ARM GAS  /tmp/ccbXNC0P.s 			page 1


   1              		.syntax unified
   2              		.cpu cortex-m3
   3              		.fpu softvfp
   4              		.eabi_attribute 20, 1
   5              		.eabi_attribute 21, 1
   6              		.eabi_attribute 23, 3
   7              		.eabi_attribute 24, 1
   8              		.eabi_attribute 25, 1
   9              		.eabi_attribute 26, 1
  10              		.eabi_attribute 30, 6
  11              		.eabi_attribute 34, 1
  12              		.eabi_attribute 18, 4
  13              		.thumb
  14              		.file	"api_lib.c"
  15              		.text
  16              	.Ltext0:
  17              		.cfi_sections	.debug_frame
  18              		.section	.text.netconn_new_with_proto_and_callback,"ax",%progbits
  19              		.align	2
  20              		.p2align 4,,15
  21              		.global	netconn_new_with_proto_and_callback
  22              		.thumb
  23              		.thumb_func
  24              		.type	netconn_new_with_proto_and_callback, %function
  25              	netconn_new_with_proto_and_callback:
  26              	.LFB7:
  27              		.file 1 "../../ext/lwip/src/api/api_lib.c"
  28              		.loc 1 69 0
  29              		.cfi_startproc
  30              		@ args = 0, pretend = 0, frame = 40
  31              		@ frame_needed = 0, uses_anonymous_args = 0
  32 0000 00B5     		push	{lr}
  33              	.LCFI0:
  34              		.cfi_def_cfa_offset 4
  35              		.cfi_offset 14, -4
  36 0002 8BB0     		sub	sp, sp, #44
  37              	.LCFI1:
  38              		.cfi_def_cfa_offset 48
  39 0004 0B46     		mov	r3, r1
  40 0006 0092     		str	r2, [sp, #0]
  41 0008 0246     		mov	r2, r0
  42 000a 8DF80720 		strb	r2, [sp, #7]
  43 000e 8DF80630 		strb	r3, [sp, #6]
  44              		.loc 1 73 0
  45 0012 9DF80730 		ldrb	r3, [sp, #7]	@ zero_extendqisi2
  46 0016 1846     		mov	r0, r3
  47 0018 0099     		ldr	r1, [sp, #0]
  48 001a FFF7FEFF 		bl	netconn_alloc
  49 001e 0346     		mov	r3, r0
  50 0020 0993     		str	r3, [sp, #36]
  51              		.loc 1 74 0
  52 0022 099B     		ldr	r3, [sp, #36]
  53 0024 002B     		cmp	r3, #0
  54 0026 4CD0     		beq	.L2
  55              		.loc 1 75 0
  56 0028 40F20003 		movw	r3, #:lower16:do_newconn
  57 002c C0F20003 		movt	r3, #:upper16:do_newconn
ARM GAS  /tmp/ccbXNC0P.s 			page 2


  58 0030 0393     		str	r3, [sp, #12]
  59              		.loc 1 76 0
  60 0032 9DF80630 		ldrb	r3, [sp, #6]
  61 0036 8DF81830 		strb	r3, [sp, #24]
  62              		.loc 1 77 0
  63 003a 099B     		ldr	r3, [sp, #36]
  64 003c 0493     		str	r3, [sp, #16]
  65              		.loc 1 78 0
  66 003e 03AB     		add	r3, sp, #12
  67 0040 1846     		mov	r0, r3
  68 0042 FFF7FEFF 		bl	tcpip_apimsg
  69 0046 0346     		mov	r3, r0
  70 0048 002B     		cmp	r3, #0
  71 004a 3AD0     		beq	.L2
  72              		.loc 1 79 0
  73 004c 099B     		ldr	r3, [sp, #36]
  74 004e 5B68     		ldr	r3, [r3, #4]
  75 0050 002B     		cmp	r3, #0
  76 0052 01D0     		beq	.L3
  77              		.loc 1 79 0 is_stmt 0 discriminator 1
  78 0054 FFF7FEFF 		bl	port_halt
  79              	.L3:
  80              		.loc 1 80 0 is_stmt 1
  81 0058 099B     		ldr	r3, [sp, #36]
  82 005a 03F10C03 		add	r3, r3, #12
  83 005e 1846     		mov	r0, r3
  84 0060 FFF7FEFF 		bl	sys_sem_valid
  85 0064 0346     		mov	r3, r0
  86 0066 002B     		cmp	r3, #0
  87 0068 01D1     		bne	.L4
  88              		.loc 1 80 0 is_stmt 0 discriminator 1
  89 006a FFF7FEFF 		bl	port_halt
  90              	.L4:
  91              		.loc 1 81 0 is_stmt 1
  92 006e 099B     		ldr	r3, [sp, #36]
  93 0070 03F11003 		add	r3, r3, #16
  94 0074 1846     		mov	r0, r3
  95 0076 FFF7FEFF 		bl	sys_mbox_valid
  96 007a 0346     		mov	r3, r0
  97 007c 002B     		cmp	r3, #0
  98 007e 01D1     		bne	.L5
  99              		.loc 1 81 0 is_stmt 0 discriminator 1
 100 0080 FFF7FEFF 		bl	port_halt
 101              	.L5:
 102              		.loc 1 83 0 is_stmt 1
 103 0084 099B     		ldr	r3, [sp, #36]
 104 0086 03F11403 		add	r3, r3, #20
 105 008a 1846     		mov	r0, r3
 106 008c FFF7FEFF 		bl	sys_mbox_valid
 107 0090 0346     		mov	r3, r0
 108 0092 002B     		cmp	r3, #0
 109 0094 01D0     		beq	.L6
 110              		.loc 1 83 0 is_stmt 0 discriminator 1
 111 0096 FFF7FEFF 		bl	port_halt
 112              	.L6:
 113              		.loc 1 85 0 is_stmt 1
 114 009a 099B     		ldr	r3, [sp, #36]
ARM GAS  /tmp/ccbXNC0P.s 			page 3


 115 009c 03F10C03 		add	r3, r3, #12
 116 00a0 1846     		mov	r0, r3
 117 00a2 FFF7FEFF 		bl	sys_sem_free
 118              		.loc 1 86 0
 119 00a6 099B     		ldr	r3, [sp, #36]
 120 00a8 03F11003 		add	r3, r3, #16
 121 00ac 1846     		mov	r0, r3
 122 00ae FFF7FEFF 		bl	sys_mbox_free
 123              		.loc 1 87 0
 124 00b2 4FF00800 		mov	r0, #8
 125 00b6 0999     		ldr	r1, [sp, #36]
 126 00b8 FFF7FEFF 		bl	memp_free
 127              		.loc 1 88 0
 128 00bc 4FF00003 		mov	r3, #0
 129 00c0 00E0     		b	.L7
 130              	.L2:
 131              		.loc 1 91 0
 132 00c2 099B     		ldr	r3, [sp, #36]
 133              	.L7:
 134              		.loc 1 92 0
 135 00c4 1846     		mov	r0, r3
 136 00c6 0BB0     		add	sp, sp, #44
 137 00c8 00BD     		pop	{pc}
 138              		.cfi_endproc
 139              	.LFE7:
 140              		.size	netconn_new_with_proto_and_callback, .-netconn_new_with_proto_and_callback
 141 00ca 00BFAFF3 		.section	.text.netconn_delete,"ax",%progbits
 141      0080
 142              		.align	2
 143              		.p2align 4,,15
 144              		.global	netconn_delete
 145              		.thumb
 146              		.thumb_func
 147              		.type	netconn_delete, %function
 148              	netconn_delete:
 149              	.LFB8:
 150              		.loc 1 104 0
 151              		.cfi_startproc
 152              		@ args = 0, pretend = 0, frame = 32
 153              		@ frame_needed = 0, uses_anonymous_args = 0
 154 0000 00B5     		push	{lr}
 155              	.LCFI2:
 156              		.cfi_def_cfa_offset 4
 157              		.cfi_offset 14, -4
 158 0002 89B0     		sub	sp, sp, #36
 159              	.LCFI3:
 160              		.cfi_def_cfa_offset 40
 161 0004 0190     		str	r0, [sp, #4]
 162              		.loc 1 108 0
 163 0006 019B     		ldr	r3, [sp, #4]
 164 0008 002B     		cmp	r3, #0
 165 000a 02D1     		bne	.L9
 166              		.loc 1 109 0
 167 000c 4FF00003 		mov	r3, #0
 168 0010 0FE0     		b	.L10
 169              	.L9:
 170              		.loc 1 112 0
ARM GAS  /tmp/ccbXNC0P.s 			page 4


 171 0012 40F20003 		movw	r3, #:lower16:do_delconn
 172 0016 C0F20003 		movt	r3, #:upper16:do_delconn
 173 001a 0293     		str	r3, [sp, #8]
 174              		.loc 1 113 0
 175 001c 019B     		ldr	r3, [sp, #4]
 176 001e 0393     		str	r3, [sp, #12]
 177              		.loc 1 114 0
 178 0020 02AB     		add	r3, sp, #8
 179 0022 1846     		mov	r0, r3
 180 0024 FFF7FEFF 		bl	tcpip_apimsg
 181              		.loc 1 116 0
 182 0028 0198     		ldr	r0, [sp, #4]
 183 002a FFF7FEFF 		bl	netconn_free
 184              		.loc 1 120 0
 185 002e 4FF00003 		mov	r3, #0
 186              	.L10:
 187 0032 5BB2     		sxtb	r3, r3
 188              		.loc 1 121 0
 189 0034 1846     		mov	r0, r3
 190 0036 09B0     		add	sp, sp, #36
 191 0038 00BD     		pop	{pc}
 192              		.cfi_endproc
 193              	.LFE8:
 194              		.size	netconn_delete, .-netconn_delete
 195 003a 00BFAFF3 		.section	.text.netconn_getaddr,"ax",%progbits
 195      0080
 196              		.align	2
 197              		.p2align 4,,15
 198              		.global	netconn_getaddr
 199              		.thumb
 200              		.thumb_func
 201              		.type	netconn_getaddr, %function
 202              	netconn_getaddr:
 203              	.LFB9:
 204              		.loc 1 136 0
 205              		.cfi_startproc
 206              		@ args = 0, pretend = 0, frame = 48
 207              		@ frame_needed = 0, uses_anonymous_args = 0
 208 0000 00B5     		push	{lr}
 209              	.LCFI4:
 210              		.cfi_def_cfa_offset 4
 211              		.cfi_offset 14, -4
 212 0002 8DB0     		sub	sp, sp, #52
 213              	.LCFI5:
 214              		.cfi_def_cfa_offset 56
 215 0004 0390     		str	r0, [sp, #12]
 216 0006 0291     		str	r1, [sp, #8]
 217 0008 0192     		str	r2, [sp, #4]
 218 000a 8DF80330 		strb	r3, [sp, #3]
 219              		.loc 1 140 0
 220 000e 039B     		ldr	r3, [sp, #12]
 221 0010 002B     		cmp	r3, #0
 222 0012 04D1     		bne	.L12
 223              		.loc 1 140 0 is_stmt 0 discriminator 1
 224 0014 FFF7FEFF 		bl	port_halt
 225 0018 4FF0F203 		mov	r3, #242
 226 001c 31E0     		b	.L13
ARM GAS  /tmp/ccbXNC0P.s 			page 5


 227              	.L12:
 228              		.loc 1 141 0 is_stmt 1
 229 001e 029B     		ldr	r3, [sp, #8]
 230 0020 002B     		cmp	r3, #0
 231 0022 04D1     		bne	.L14
 232              		.loc 1 141 0 is_stmt 0 discriminator 1
 233 0024 FFF7FEFF 		bl	port_halt
 234 0028 4FF0F203 		mov	r3, #242
 235 002c 29E0     		b	.L13
 236              	.L14:
 237              		.loc 1 142 0 is_stmt 1
 238 002e 019B     		ldr	r3, [sp, #4]
 239 0030 002B     		cmp	r3, #0
 240 0032 04D1     		bne	.L15
 241              		.loc 1 142 0 is_stmt 0 discriminator 1
 242 0034 FFF7FEFF 		bl	port_halt
 243 0038 4FF0F203 		mov	r3, #242
 244 003c 21E0     		b	.L13
 245              	.L15:
 246              		.loc 1 144 0 is_stmt 1
 247 003e 40F20003 		movw	r3, #:lower16:do_getaddr
 248 0042 C0F20003 		movt	r3, #:upper16:do_getaddr
 249 0046 0593     		str	r3, [sp, #20]
 250              		.loc 1 145 0
 251 0048 039B     		ldr	r3, [sp, #12]
 252 004a 0693     		str	r3, [sp, #24]
 253              		.loc 1 146 0
 254 004c 029B     		ldr	r3, [sp, #8]
 255 004e 0893     		str	r3, [sp, #32]
 256              		.loc 1 147 0
 257 0050 019B     		ldr	r3, [sp, #4]
 258 0052 0993     		str	r3, [sp, #36]
 259              		.loc 1 148 0
 260 0054 9DF80330 		ldrb	r3, [sp, #3]
 261 0058 8DF82830 		strb	r3, [sp, #40]
 262              		.loc 1 149 0
 263 005c 05AB     		add	r3, sp, #20
 264 005e 1846     		mov	r0, r3
 265 0060 FFF7FEFF 		bl	tcpip_apimsg
 266 0064 0346     		mov	r3, r0
 267 0066 8DF82F30 		strb	r3, [sp, #47]
 268              		.loc 1 151 0
 269 006a 039B     		ldr	r3, [sp, #12]
 270 006c 1B7A     		ldrb	r3, [r3, #8]	@ zero_extendqisi2
 271 006e 5BB2     		sxtb	r3, r3
 272 0070 13F1090F 		cmn	r3, #9
 273 0074 03DB     		blt	.L16
 274              		.loc 1 151 0 is_stmt 0 discriminator 1
 275 0076 039B     		ldr	r3, [sp, #12]
 276 0078 9DF82F20 		ldrb	r2, [sp, #47]
 277 007c 1A72     		strb	r2, [r3, #8]
 278              	.L16:
 279              		.loc 1 152 0 is_stmt 1
 280 007e 9DF82F30 		ldrb	r3, [sp, #47]	@ zero_extendqisi2
 281              	.L13:
 282 0082 5BB2     		sxtb	r3, r3
 283              		.loc 1 153 0
ARM GAS  /tmp/ccbXNC0P.s 			page 6


 284 0084 1846     		mov	r0, r3
 285 0086 0DB0     		add	sp, sp, #52
 286 0088 00BD     		pop	{pc}
 287              		.cfi_endproc
 288              	.LFE9:
 289              		.size	netconn_getaddr, .-netconn_getaddr
 290 008a 00BFAFF3 		.section	.text.netconn_bind,"ax",%progbits
 290      0080
 291              		.align	2
 292              		.p2align 4,,15
 293              		.global	netconn_bind
 294              		.thumb
 295              		.thumb_func
 296              		.type	netconn_bind, %function
 297              	netconn_bind:
 298              	.LFB10:
 299              		.loc 1 167 0
 300              		.cfi_startproc
 301              		@ args = 0, pretend = 0, frame = 48
 302              		@ frame_needed = 0, uses_anonymous_args = 0
 303 0000 00B5     		push	{lr}
 304              	.LCFI6:
 305              		.cfi_def_cfa_offset 4
 306              		.cfi_offset 14, -4
 307 0002 8DB0     		sub	sp, sp, #52
 308              	.LCFI7:
 309              		.cfi_def_cfa_offset 56
 310 0004 0390     		str	r0, [sp, #12]
 311 0006 0291     		str	r1, [sp, #8]
 312 0008 1346     		mov	r3, r2
 313 000a ADF80630 		strh	r3, [sp, #6]	@ movhi
 314              		.loc 1 171 0
 315 000e 039B     		ldr	r3, [sp, #12]
 316 0010 002B     		cmp	r3, #0
 317 0012 04D1     		bne	.L18
 318              		.loc 1 171 0 is_stmt 0 discriminator 1
 319 0014 FFF7FEFF 		bl	port_halt
 320 0018 4FF0F203 		mov	r3, #242
 321 001c 1FE0     		b	.L19
 322              	.L18:
 323              		.loc 1 173 0 is_stmt 1
 324 001e 40F20003 		movw	r3, #:lower16:do_bind
 325 0022 C0F20003 		movt	r3, #:upper16:do_bind
 326 0026 0593     		str	r3, [sp, #20]
 327              		.loc 1 174 0
 328 0028 039B     		ldr	r3, [sp, #12]
 329 002a 0693     		str	r3, [sp, #24]
 330              		.loc 1 175 0
 331 002c 029B     		ldr	r3, [sp, #8]
 332 002e 0893     		str	r3, [sp, #32]
 333              		.loc 1 176 0
 334 0030 BDF80630 		ldrh	r3, [sp, #6]	@ movhi
 335 0034 ADF82430 		strh	r3, [sp, #36]	@ movhi
 336              		.loc 1 177 0
 337 0038 05AB     		add	r3, sp, #20
 338 003a 1846     		mov	r0, r3
 339 003c FFF7FEFF 		bl	tcpip_apimsg
ARM GAS  /tmp/ccbXNC0P.s 			page 7


 340 0040 0346     		mov	r3, r0
 341 0042 8DF82F30 		strb	r3, [sp, #47]
 342              		.loc 1 179 0
 343 0046 039B     		ldr	r3, [sp, #12]
 344 0048 1B7A     		ldrb	r3, [r3, #8]	@ zero_extendqisi2
 345 004a 5BB2     		sxtb	r3, r3
 346 004c 13F1090F 		cmn	r3, #9
 347 0050 03DB     		blt	.L20
 348              		.loc 1 179 0 is_stmt 0 discriminator 1
 349 0052 039B     		ldr	r3, [sp, #12]
 350 0054 9DF82F20 		ldrb	r2, [sp, #47]
 351 0058 1A72     		strb	r2, [r3, #8]
 352              	.L20:
 353              		.loc 1 180 0 is_stmt 1
 354 005a 9DF82F30 		ldrb	r3, [sp, #47]	@ zero_extendqisi2
 355              	.L19:
 356 005e 5BB2     		sxtb	r3, r3
 357              		.loc 1 181 0
 358 0060 1846     		mov	r0, r3
 359 0062 0DB0     		add	sp, sp, #52
 360 0064 00BD     		pop	{pc}
 361              		.cfi_endproc
 362              	.LFE10:
 363              		.size	netconn_bind, .-netconn_bind
 364 0066 00BFAFF3 		.section	.text.netconn_connect,"ax",%progbits
 364      0080AFF3 
 364      0080
 365              		.align	2
 366              		.p2align 4,,15
 367              		.global	netconn_connect
 368              		.thumb
 369              		.thumb_func
 370              		.type	netconn_connect, %function
 371              	netconn_connect:
 372              	.LFB11:
 373              		.loc 1 193 0
 374              		.cfi_startproc
 375              		@ args = 0, pretend = 0, frame = 48
 376              		@ frame_needed = 0, uses_anonymous_args = 0
 377 0000 00B5     		push	{lr}
 378              	.LCFI8:
 379              		.cfi_def_cfa_offset 4
 380              		.cfi_offset 14, -4
 381 0002 8DB0     		sub	sp, sp, #52
 382              	.LCFI9:
 383              		.cfi_def_cfa_offset 56
 384 0004 0390     		str	r0, [sp, #12]
 385 0006 0291     		str	r1, [sp, #8]
 386 0008 1346     		mov	r3, r2
 387 000a ADF80630 		strh	r3, [sp, #6]	@ movhi
 388              		.loc 1 197 0
 389 000e 039B     		ldr	r3, [sp, #12]
 390 0010 002B     		cmp	r3, #0
 391 0012 04D1     		bne	.L22
 392              		.loc 1 197 0 is_stmt 0 discriminator 1
 393 0014 FFF7FEFF 		bl	port_halt
 394 0018 4FF0F203 		mov	r3, #242
ARM GAS  /tmp/ccbXNC0P.s 			page 8


 395 001c 1FE0     		b	.L23
 396              	.L22:
 397              		.loc 1 199 0 is_stmt 1
 398 001e 40F20003 		movw	r3, #:lower16:do_connect
 399 0022 C0F20003 		movt	r3, #:upper16:do_connect
 400 0026 0593     		str	r3, [sp, #20]
 401              		.loc 1 200 0
 402 0028 039B     		ldr	r3, [sp, #12]
 403 002a 0693     		str	r3, [sp, #24]
 404              		.loc 1 201 0
 405 002c 029B     		ldr	r3, [sp, #8]
 406 002e 0893     		str	r3, [sp, #32]
 407              		.loc 1 202 0
 408 0030 BDF80630 		ldrh	r3, [sp, #6]	@ movhi
 409 0034 ADF82430 		strh	r3, [sp, #36]	@ movhi
 410              		.loc 1 204 0
 411 0038 05AB     		add	r3, sp, #20
 412 003a 1846     		mov	r0, r3
 413 003c FFF7FEFF 		bl	tcpip_apimsg
 414 0040 0346     		mov	r3, r0
 415 0042 8DF82F30 		strb	r3, [sp, #47]
 416              		.loc 1 206 0
 417 0046 039B     		ldr	r3, [sp, #12]
 418 0048 1B7A     		ldrb	r3, [r3, #8]	@ zero_extendqisi2
 419 004a 5BB2     		sxtb	r3, r3
 420 004c 13F1090F 		cmn	r3, #9
 421 0050 03DB     		blt	.L24
 422              		.loc 1 206 0 is_stmt 0 discriminator 1
 423 0052 039B     		ldr	r3, [sp, #12]
 424 0054 9DF82F20 		ldrb	r2, [sp, #47]
 425 0058 1A72     		strb	r2, [r3, #8]
 426              	.L24:
 427              		.loc 1 207 0 is_stmt 1
 428 005a 9DF82F30 		ldrb	r3, [sp, #47]	@ zero_extendqisi2
 429              	.L23:
 430 005e 5BB2     		sxtb	r3, r3
 431              		.loc 1 208 0
 432 0060 1846     		mov	r0, r3
 433 0062 0DB0     		add	sp, sp, #52
 434 0064 00BD     		pop	{pc}
 435              		.cfi_endproc
 436              	.LFE11:
 437              		.size	netconn_connect, .-netconn_connect
 438 0066 00BFAFF3 		.section	.text.netconn_disconnect,"ax",%progbits
 438      0080AFF3 
 438      0080
 439              		.align	2
 440              		.p2align 4,,15
 441              		.global	netconn_disconnect
 442              		.thumb
 443              		.thumb_func
 444              		.type	netconn_disconnect, %function
 445              	netconn_disconnect:
 446              	.LFB12:
 447              		.loc 1 218 0
 448              		.cfi_startproc
 449              		@ args = 0, pretend = 0, frame = 40
ARM GAS  /tmp/ccbXNC0P.s 			page 9


 450              		@ frame_needed = 0, uses_anonymous_args = 0
 451 0000 00B5     		push	{lr}
 452              	.LCFI10:
 453              		.cfi_def_cfa_offset 4
 454              		.cfi_offset 14, -4
 455 0002 8BB0     		sub	sp, sp, #44
 456              	.LCFI11:
 457              		.cfi_def_cfa_offset 48
 458 0004 0190     		str	r0, [sp, #4]
 459              		.loc 1 222 0
 460 0006 019B     		ldr	r3, [sp, #4]
 461 0008 002B     		cmp	r3, #0
 462 000a 04D1     		bne	.L26
 463              		.loc 1 222 0 is_stmt 0 discriminator 1
 464 000c FFF7FEFF 		bl	port_halt
 465 0010 4FF0F203 		mov	r3, #242
 466 0014 19E0     		b	.L27
 467              	.L26:
 468              		.loc 1 224 0 is_stmt 1
 469 0016 40F20003 		movw	r3, #:lower16:do_disconnect
 470 001a C0F20003 		movt	r3, #:upper16:do_disconnect
 471 001e 0393     		str	r3, [sp, #12]
 472              		.loc 1 225 0
 473 0020 019B     		ldr	r3, [sp, #4]
 474 0022 0493     		str	r3, [sp, #16]
 475              		.loc 1 226 0
 476 0024 03AB     		add	r3, sp, #12
 477 0026 1846     		mov	r0, r3
 478 0028 FFF7FEFF 		bl	tcpip_apimsg
 479 002c 0346     		mov	r3, r0
 480 002e 8DF82730 		strb	r3, [sp, #39]
 481              		.loc 1 228 0
 482 0032 019B     		ldr	r3, [sp, #4]
 483 0034 1B7A     		ldrb	r3, [r3, #8]	@ zero_extendqisi2
 484 0036 5BB2     		sxtb	r3, r3
 485 0038 13F1090F 		cmn	r3, #9
 486 003c 03DB     		blt	.L28
 487              		.loc 1 228 0 is_stmt 0 discriminator 1
 488 003e 019B     		ldr	r3, [sp, #4]
 489 0040 9DF82720 		ldrb	r2, [sp, #39]
 490 0044 1A72     		strb	r2, [r3, #8]
 491              	.L28:
 492              		.loc 1 229 0 is_stmt 1
 493 0046 9DF82730 		ldrb	r3, [sp, #39]	@ zero_extendqisi2
 494              	.L27:
 495 004a 5BB2     		sxtb	r3, r3
 496              		.loc 1 230 0
 497 004c 1846     		mov	r0, r3
 498 004e 0BB0     		add	sp, sp, #44
 499 0050 00BD     		pop	{pc}
 500              		.cfi_endproc
 501              	.LFE12:
 502              		.size	netconn_disconnect, .-netconn_disconnect
 503 0052 00BFAFF3 		.section	.text.netconn_listen_with_backlog,"ax",%progbits
 503      0080AFF3 
 503      0080AFF3 
 503      0080
ARM GAS  /tmp/ccbXNC0P.s 			page 10


 504              		.align	2
 505              		.p2align 4,,15
 506              		.global	netconn_listen_with_backlog
 507              		.thumb
 508              		.thumb_func
 509              		.type	netconn_listen_with_backlog, %function
 510              	netconn_listen_with_backlog:
 511              	.LFB13:
 512              		.loc 1 242 0
 513              		.cfi_startproc
 514              		@ args = 0, pretend = 0, frame = 40
 515              		@ frame_needed = 0, uses_anonymous_args = 0
 516 0000 00B5     		push	{lr}
 517              	.LCFI12:
 518              		.cfi_def_cfa_offset 4
 519              		.cfi_offset 14, -4
 520 0002 8BB0     		sub	sp, sp, #44
 521              	.LCFI13:
 522              		.cfi_def_cfa_offset 48
 523 0004 0190     		str	r0, [sp, #4]
 524 0006 0B46     		mov	r3, r1
 525 0008 8DF80330 		strb	r3, [sp, #3]
 526              		.loc 1 250 0
 527 000c 019B     		ldr	r3, [sp, #4]
 528 000e 002B     		cmp	r3, #0
 529 0010 04D1     		bne	.L30
 530              		.loc 1 250 0 is_stmt 0 discriminator 1
 531 0012 FFF7FEFF 		bl	port_halt
 532 0016 4FF0F203 		mov	r3, #242
 533 001a 19E0     		b	.L31
 534              	.L30:
 535              		.loc 1 252 0 is_stmt 1
 536 001c 40F20003 		movw	r3, #:lower16:do_listen
 537 0020 C0F20003 		movt	r3, #:upper16:do_listen
 538 0024 0393     		str	r3, [sp, #12]
 539              		.loc 1 253 0
 540 0026 019B     		ldr	r3, [sp, #4]
 541 0028 0493     		str	r3, [sp, #16]
 542              		.loc 1 257 0
 543 002a 03AB     		add	r3, sp, #12
 544 002c 1846     		mov	r0, r3
 545 002e FFF7FEFF 		bl	tcpip_apimsg
 546 0032 0346     		mov	r3, r0
 547 0034 8DF82730 		strb	r3, [sp, #39]
 548              		.loc 1 259 0
 549 0038 019B     		ldr	r3, [sp, #4]
 550 003a 1B7A     		ldrb	r3, [r3, #8]	@ zero_extendqisi2
 551 003c 5BB2     		sxtb	r3, r3
 552 003e 13F1090F 		cmn	r3, #9
 553 0042 03DB     		blt	.L32
 554              		.loc 1 259 0 is_stmt 0 discriminator 1
 555 0044 019B     		ldr	r3, [sp, #4]
 556 0046 9DF82720 		ldrb	r2, [sp, #39]
 557 004a 1A72     		strb	r2, [r3, #8]
 558              	.L32:
 559              		.loc 1 260 0 is_stmt 1
 560 004c 9DF82730 		ldrb	r3, [sp, #39]	@ zero_extendqisi2
ARM GAS  /tmp/ccbXNC0P.s 			page 11


 561              	.L31:
 562 0050 5BB2     		sxtb	r3, r3
 563              		.loc 1 266 0
 564 0052 1846     		mov	r0, r3
 565 0054 0BB0     		add	sp, sp, #44
 566 0056 00BD     		pop	{pc}
 567              		.cfi_endproc
 568              	.LFE13:
 569              		.size	netconn_listen_with_backlog, .-netconn_listen_with_backlog
 570              		.section	.text.netconn_accept,"ax",%progbits
 571              		.align	2
 572              		.p2align 4,,15
 573              		.global	netconn_accept
 574              		.thumb
 575              		.thumb_func
 576              		.type	netconn_accept, %function
 577              	netconn_accept:
 578              	.LFB14:
 579              		.loc 1 278 0
 580              		.cfi_startproc
 581              		@ args = 0, pretend = 0, frame = 16
 582              		@ frame_needed = 0, uses_anonymous_args = 0
 583 0000 00B5     		push	{lr}
 584              	.LCFI14:
 585              		.cfi_def_cfa_offset 4
 586              		.cfi_offset 14, -4
 587 0002 85B0     		sub	sp, sp, #20
 588              	.LCFI15:
 589              		.cfi_def_cfa_offset 24
 590 0004 0190     		str	r0, [sp, #4]
 591 0006 0091     		str	r1, [sp, #0]
 592              		.loc 1 286 0
 593 0008 009B     		ldr	r3, [sp, #0]
 594 000a 002B     		cmp	r3, #0
 595 000c 04D1     		bne	.L34
 596              		.loc 1 286 0 is_stmt 0 discriminator 1
 597 000e FFF7FEFF 		bl	port_halt
 598 0012 4FF0F203 		mov	r3, #242
 599 0016 50E0     		b	.L35
 600              	.L34:
 601              		.loc 1 287 0 is_stmt 1
 602 0018 009B     		ldr	r3, [sp, #0]
 603 001a 4FF00002 		mov	r2, #0
 604 001e 1A60     		str	r2, [r3, #0]
 605              		.loc 1 288 0
 606 0020 019B     		ldr	r3, [sp, #4]
 607 0022 002B     		cmp	r3, #0
 608 0024 04D1     		bne	.L36
 609              		.loc 1 288 0 is_stmt 0 discriminator 1
 610 0026 FFF7FEFF 		bl	port_halt
 611 002a 4FF0F203 		mov	r3, #242
 612 002e 44E0     		b	.L35
 613              	.L36:
 614              		.loc 1 289 0 is_stmt 1
 615 0030 019B     		ldr	r3, [sp, #4]
 616 0032 03F11403 		add	r3, r3, #20
 617 0036 1846     		mov	r0, r3
ARM GAS  /tmp/ccbXNC0P.s 			page 12


 618 0038 FFF7FEFF 		bl	sys_mbox_valid
 619 003c 0346     		mov	r3, r0
 620 003e 002B     		cmp	r3, #0
 621 0040 04D1     		bne	.L37
 622              		.loc 1 289 0 is_stmt 0 discriminator 1
 623 0042 FFF7FEFF 		bl	port_halt
 624 0046 4FF0F203 		mov	r3, #242
 625 004a 36E0     		b	.L35
 626              	.L37:
 627              		.loc 1 291 0 is_stmt 1
 628 004c 019B     		ldr	r3, [sp, #4]
 629 004e 1B7A     		ldrb	r3, [r3, #8]
 630 0050 8DF80F30 		strb	r3, [sp, #15]
 631              		.loc 1 292 0
 632 0054 9DF90F30 		ldrsb	r3, [sp, #15]
 633 0058 13F1090F 		cmn	r3, #9
 634 005c 02DA     		bge	.L38
 635              		.loc 1 295 0
 636 005e 9DF80F30 		ldrb	r3, [sp, #15]	@ zero_extendqisi2
 637 0062 2AE0     		b	.L35
 638              	.L38:
 639              		.loc 1 304 0
 640 0064 019B     		ldr	r3, [sp, #4]
 641 0066 03F11402 		add	r2, r3, #20
 642 006a 02AB     		add	r3, sp, #8
 643 006c 1046     		mov	r0, r2
 644 006e 1946     		mov	r1, r3
 645 0070 4FF00002 		mov	r2, #0
 646 0074 FFF7FEFF 		bl	sys_arch_mbox_fetch
 647              		.loc 1 307 0
 648 0078 019B     		ldr	r3, [sp, #4]
 649 007a 9B6A     		ldr	r3, [r3, #40]
 650 007c 002B     		cmp	r3, #0
 651 007e 07D0     		beq	.L39
 652              		.loc 1 307 0 is_stmt 0 discriminator 1
 653 0080 019B     		ldr	r3, [sp, #4]
 654 0082 9B6A     		ldr	r3, [r3, #40]
 655 0084 0198     		ldr	r0, [sp, #4]
 656 0086 4FF00101 		mov	r1, #1
 657 008a 4FF00002 		mov	r2, #0
 658 008e 9847     		blx	r3
 659              	.L39:
 660              		.loc 1 309 0 is_stmt 1
 661 0090 029B     		ldr	r3, [sp, #8]
 662 0092 002B     		cmp	r3, #0
 663 0094 0CD1     		bne	.L40
 664              		.loc 1 311 0
 665 0096 019B     		ldr	r3, [sp, #4]
 666 0098 1B7A     		ldrb	r3, [r3, #8]	@ zero_extendqisi2
 667 009a 5BB2     		sxtb	r3, r3
 668 009c 13F1090F 		cmn	r3, #9
 669 00a0 03DB     		blt	.L41
 670              		.loc 1 311 0 is_stmt 0 discriminator 1
 671 00a2 019B     		ldr	r3, [sp, #4]
 672 00a4 4FF0F602 		mov	r2, #246
 673 00a8 1A72     		strb	r2, [r3, #8]
 674              	.L41:
ARM GAS  /tmp/ccbXNC0P.s 			page 13


 675              		.loc 1 312 0 is_stmt 1
 676 00aa 4FF0F603 		mov	r3, #246
 677 00ae 04E0     		b	.L35
 678              	.L40:
 679              		.loc 1 322 0
 680 00b0 029A     		ldr	r2, [sp, #8]
 681 00b2 009B     		ldr	r3, [sp, #0]
 682 00b4 1A60     		str	r2, [r3, #0]
 683              		.loc 1 324 0
 684 00b6 4FF00003 		mov	r3, #0
 685              	.L35:
 686 00ba 5BB2     		sxtb	r3, r3
 687              		.loc 1 330 0
 688 00bc 1846     		mov	r0, r3
 689 00be 05B0     		add	sp, sp, #20
 690 00c0 00BD     		pop	{pc}
 691              		.cfi_endproc
 692              	.LFE14:
 693              		.size	netconn_accept, .-netconn_accept
 694 00c2 00BFAFF3 		.section	.text.netconn_recv_data,"ax",%progbits
 694      0080AFF3 
 694      0080AFF3 
 694      0080
 695              		.align	2
 696              		.p2align 4,,15
 697              		.thumb
 698              		.thumb_func
 699              		.type	netconn_recv_data, %function
 700              	netconn_recv_data:
 701              	.LFB15:
 702              		.loc 1 343 0
 703              		.cfi_startproc
 704              		@ args = 0, pretend = 0, frame = 40
 705              		@ frame_needed = 0, uses_anonymous_args = 0
 706 0000 00B5     		push	{lr}
 707              	.LCFI16:
 708              		.cfi_def_cfa_offset 4
 709              		.cfi_offset 14, -4
 710 0002 8BB0     		sub	sp, sp, #44
 711              	.LCFI17:
 712              		.cfi_def_cfa_offset 48
 713 0004 0190     		str	r0, [sp, #4]
 714 0006 0091     		str	r1, [sp, #0]
 715              		.loc 1 344 0
 716 0008 4FF00003 		mov	r3, #0
 717 000c 0893     		str	r3, [sp, #32]
 718              		.loc 1 351 0
 719 000e 009B     		ldr	r3, [sp, #0]
 720 0010 002B     		cmp	r3, #0
 721 0012 04D1     		bne	.L43
 722              		.loc 1 351 0 is_stmt 0 discriminator 1
 723 0014 FFF7FEFF 		bl	port_halt
 724 0018 4FF0F203 		mov	r3, #242
 725 001c 8DE0     		b	.L44
 726              	.L43:
 727              		.loc 1 352 0 is_stmt 1
 728 001e 009B     		ldr	r3, [sp, #0]
ARM GAS  /tmp/ccbXNC0P.s 			page 14


 729 0020 4FF00002 		mov	r2, #0
 730 0024 1A60     		str	r2, [r3, #0]
 731              		.loc 1 353 0
 732 0026 019B     		ldr	r3, [sp, #4]
 733 0028 002B     		cmp	r3, #0
 734 002a 04D1     		bne	.L45
 735              		.loc 1 353 0 is_stmt 0 discriminator 1
 736 002c FFF7FEFF 		bl	port_halt
 737 0030 4FF0F203 		mov	r3, #242
 738 0034 81E0     		b	.L44
 739              	.L45:
 740              		.loc 1 354 0 is_stmt 1
 741 0036 019B     		ldr	r3, [sp, #4]
 742 0038 03F11003 		add	r3, r3, #16
 743 003c 1846     		mov	r0, r3
 744 003e FFF7FEFF 		bl	sys_mbox_valid
 745 0042 0346     		mov	r3, r0
 746 0044 002B     		cmp	r3, #0
 747 0046 04D1     		bne	.L46
 748              		.loc 1 354 0 is_stmt 0 discriminator 1
 749 0048 FFF7FEFF 		bl	port_halt
 750 004c 4FF0F303 		mov	r3, #243
 751 0050 73E0     		b	.L44
 752              	.L46:
 753              		.loc 1 356 0 is_stmt 1
 754 0052 019B     		ldr	r3, [sp, #4]
 755 0054 1B7A     		ldrb	r3, [r3, #8]
 756 0056 8DF82530 		strb	r3, [sp, #37]
 757              		.loc 1 357 0
 758 005a 9DF92530 		ldrsb	r3, [sp, #37]
 759 005e 13F1090F 		cmn	r3, #9
 760 0062 02DA     		bge	.L47
 761              		.loc 1 362 0
 762 0064 9DF82530 		ldrb	r3, [sp, #37]	@ zero_extendqisi2
 763 0068 67E0     		b	.L44
 764              	.L47:
 765              		.loc 1 371 0
 766 006a 019B     		ldr	r3, [sp, #4]
 767 006c 03F11002 		add	r2, r3, #16
 768 0070 08AB     		add	r3, sp, #32
 769 0072 1046     		mov	r0, r2
 770 0074 1946     		mov	r1, r3
 771 0076 4FF00002 		mov	r2, #0
 772 007a FFF7FEFF 		bl	sys_arch_mbox_fetch
 773              		.loc 1 375 0
 774 007e 019B     		ldr	r3, [sp, #4]
 775 0080 1B78     		ldrb	r3, [r3, #0]	@ zero_extendqisi2
 776 0082 102B     		cmp	r3, #16
 777 0084 3ED1     		bne	.L48
 778              		.loc 1 376 0
 779 0086 019B     		ldr	r3, [sp, #4]
 780 0088 1B7F     		ldrb	r3, [r3, #28]	@ zero_extendqisi2
 781 008a 03F00803 		and	r3, r3, #8
 782 008e 002B     		cmp	r3, #0
 783 0090 02D0     		beq	.L49
 784              		.loc 1 376 0 is_stmt 0 discriminator 1
 785 0092 089B     		ldr	r3, [sp, #32]
ARM GAS  /tmp/ccbXNC0P.s 			page 15


 786 0094 002B     		cmp	r3, #0
 787 0096 14D1     		bne	.L50
 788              	.L49:
 789              		.loc 1 380 0 is_stmt 1
 790 0098 40F20003 		movw	r3, #:lower16:do_recv
 791 009c C0F20003 		movt	r3, #:upper16:do_recv
 792 00a0 0293     		str	r3, [sp, #8]
 793              		.loc 1 381 0
 794 00a2 019B     		ldr	r3, [sp, #4]
 795 00a4 0393     		str	r3, [sp, #12]
 796              		.loc 1 382 0
 797 00a6 089B     		ldr	r3, [sp, #32]
 798 00a8 002B     		cmp	r3, #0
 799 00aa 03D0     		beq	.L51
 800              		.loc 1 383 0
 801 00ac 089B     		ldr	r3, [sp, #32]
 802 00ae 1B89     		ldrh	r3, [r3, #8]
 803 00b0 0593     		str	r3, [sp, #20]
 804 00b2 02E0     		b	.L52
 805              	.L51:
 806              		.loc 1 385 0
 807 00b4 4FF00103 		mov	r3, #1
 808 00b8 0593     		str	r3, [sp, #20]
 809              	.L52:
 810              		.loc 1 388 0
 811 00ba 02AB     		add	r3, sp, #8
 812 00bc 1846     		mov	r0, r3
 813 00be FFF7FEFF 		bl	tcpip_apimsg
 814              	.L50:
 815              		.loc 1 392 0
 816 00c2 089B     		ldr	r3, [sp, #32]
 817 00c4 002B     		cmp	r3, #0
 818 00c6 18D1     		bne	.L53
 819              		.loc 1 393 0
 820 00c8 019B     		ldr	r3, [sp, #4]
 821 00ca 9B6A     		ldr	r3, [r3, #40]
 822 00cc 002B     		cmp	r3, #0
 823 00ce 07D0     		beq	.L54
 824              		.loc 1 393 0 is_stmt 0 discriminator 1
 825 00d0 019B     		ldr	r3, [sp, #4]
 826 00d2 9B6A     		ldr	r3, [r3, #40]
 827 00d4 0198     		ldr	r0, [sp, #4]
 828 00d6 4FF00101 		mov	r1, #1
 829 00da 4FF00002 		mov	r2, #0
 830 00de 9847     		blx	r3
 831              	.L54:
 832              		.loc 1 395 0 is_stmt 1
 833 00e0 019B     		ldr	r3, [sp, #4]
 834 00e2 1B7A     		ldrb	r3, [r3, #8]	@ zero_extendqisi2
 835 00e4 5BB2     		sxtb	r3, r3
 836 00e6 13F1090F 		cmn	r3, #9
 837 00ea 03DB     		blt	.L55
 838              		.loc 1 395 0 is_stmt 0 discriminator 1
 839 00ec 019B     		ldr	r3, [sp, #4]
 840 00ee 4FF0F402 		mov	r2, #244
 841 00f2 1A72     		strb	r2, [r3, #8]
 842              	.L55:
ARM GAS  /tmp/ccbXNC0P.s 			page 16


 843              		.loc 1 396 0 is_stmt 1
 844 00f4 4FF0F403 		mov	r3, #244
 845 00f8 1FE0     		b	.L44
 846              	.L53:
 847              		.loc 1 398 0
 848 00fa 089B     		ldr	r3, [sp, #32]
 849 00fc 1B89     		ldrh	r3, [r3, #8]	@ movhi
 850 00fe ADF82630 		strh	r3, [sp, #38]	@ movhi
 851 0102 09E0     		b	.L56
 852              	.L48:
 853              		.loc 1 406 0
 854 0104 089B     		ldr	r3, [sp, #32]
 855 0106 002B     		cmp	r3, #0
 856 0108 01D1     		bne	.L57
 857              		.loc 1 406 0 is_stmt 0 discriminator 1
 858 010a FFF7FEFF 		bl	port_halt
 859              	.L57:
 860              		.loc 1 407 0 is_stmt 1
 861 010e 089B     		ldr	r3, [sp, #32]
 862 0110 1B68     		ldr	r3, [r3, #0]
 863 0112 1B89     		ldrh	r3, [r3, #8]	@ movhi
 864 0114 ADF82630 		strh	r3, [sp, #38]	@ movhi
 865              	.L56:
 866              		.loc 1 415 0
 867 0118 019B     		ldr	r3, [sp, #4]
 868 011a 9B6A     		ldr	r3, [r3, #40]
 869 011c 002B     		cmp	r3, #0
 870 011e 07D0     		beq	.L58
 871              		.loc 1 415 0 is_stmt 0 discriminator 1
 872 0120 019B     		ldr	r3, [sp, #4]
 873 0122 9B6A     		ldr	r3, [r3, #40]
 874 0124 BDF82620 		ldrh	r2, [sp, #38]
 875 0128 0198     		ldr	r0, [sp, #4]
 876 012a 4FF00101 		mov	r1, #1
 877 012e 9847     		blx	r3
 878              	.L58:
 879              		.loc 1 419 0 is_stmt 1
 880 0130 089A     		ldr	r2, [sp, #32]
 881 0132 009B     		ldr	r3, [sp, #0]
 882 0134 1A60     		str	r2, [r3, #0]
 883              		.loc 1 421 0
 884 0136 4FF00003 		mov	r3, #0
 885              	.L44:
 886 013a 5BB2     		sxtb	r3, r3
 887              		.loc 1 422 0
 888 013c 1846     		mov	r0, r3
 889 013e 0BB0     		add	sp, sp, #44
 890 0140 00BD     		pop	{pc}
 891              		.cfi_endproc
 892              	.LFE15:
 893              		.size	netconn_recv_data, .-netconn_recv_data
 894 0142 00BFAFF3 		.section	.text.netconn_recv_tcp_pbuf,"ax",%progbits
 894      0080AFF3 
 894      0080AFF3 
 894      0080
 895              		.align	2
 896              		.p2align 4,,15
ARM GAS  /tmp/ccbXNC0P.s 			page 17


 897              		.global	netconn_recv_tcp_pbuf
 898              		.thumb
 899              		.thumb_func
 900              		.type	netconn_recv_tcp_pbuf, %function
 901              	netconn_recv_tcp_pbuf:
 902              	.LFB16:
 903              		.loc 1 435 0
 904              		.cfi_startproc
 905              		@ args = 0, pretend = 0, frame = 8
 906              		@ frame_needed = 0, uses_anonymous_args = 0
 907 0000 00B5     		push	{lr}
 908              	.LCFI18:
 909              		.cfi_def_cfa_offset 4
 910              		.cfi_offset 14, -4
 911 0002 83B0     		sub	sp, sp, #12
 912              	.LCFI19:
 913              		.cfi_def_cfa_offset 16
 914 0004 0190     		str	r0, [sp, #4]
 915 0006 0091     		str	r1, [sp, #0]
 916              		.loc 1 436 0
 917 0008 019B     		ldr	r3, [sp, #4]
 918 000a 002B     		cmp	r3, #0
 919 000c 03D0     		beq	.L60
 920              		.loc 1 436 0 is_stmt 0 discriminator 2
 921 000e 019B     		ldr	r3, [sp, #4]
 922 0010 1B78     		ldrb	r3, [r3, #0]	@ zero_extendqisi2
 923 0012 102B     		cmp	r3, #16
 924 0014 04D0     		beq	.L61
 925              	.L60:
 926              		.loc 1 436 0 discriminator 1
 927 0016 FFF7FEFF 		bl	port_halt
 928 001a 4FF0F203 		mov	r3, #242
 929 001e 04E0     		b	.L62
 930              	.L61:
 931              		.loc 1 439 0 is_stmt 1
 932 0020 0198     		ldr	r0, [sp, #4]
 933 0022 0099     		ldr	r1, [sp, #0]
 934 0024 FFF7FEFF 		bl	netconn_recv_data
 935 0028 0346     		mov	r3, r0
 936              	.L62:
 937 002a 5BB2     		sxtb	r3, r3
 938              		.loc 1 440 0
 939 002c 1846     		mov	r0, r3
 940 002e 03B0     		add	sp, sp, #12
 941 0030 00BD     		pop	{pc}
 942              		.cfi_endproc
 943              	.LFE16:
 944              		.size	netconn_recv_tcp_pbuf, .-netconn_recv_tcp_pbuf
 945 0032 00BFAFF3 		.section	.text.netconn_recv,"ax",%progbits
 945      0080AFF3 
 945      0080AFF3 
 945      0080
 946              		.align	2
 947              		.p2align 4,,15
 948              		.global	netconn_recv
 949              		.thumb
 950              		.thumb_func
ARM GAS  /tmp/ccbXNC0P.s 			page 18


 951              		.type	netconn_recv, %function
 952              	netconn_recv:
 953              	.LFB17:
 954              		.loc 1 452 0
 955              		.cfi_startproc
 956              		@ args = 0, pretend = 0, frame = 24
 957              		@ frame_needed = 0, uses_anonymous_args = 0
 958 0000 00B5     		push	{lr}
 959              	.LCFI20:
 960              		.cfi_def_cfa_offset 4
 961              		.cfi_offset 14, -4
 962 0002 87B0     		sub	sp, sp, #28
 963              	.LCFI21:
 964              		.cfi_def_cfa_offset 32
 965 0004 0190     		str	r0, [sp, #4]
 966 0006 0091     		str	r1, [sp, #0]
 967              		.loc 1 454 0
 968 0008 4FF00003 		mov	r3, #0
 969 000c 0593     		str	r3, [sp, #20]
 970              		.loc 1 458 0
 971 000e 009B     		ldr	r3, [sp, #0]
 972 0010 002B     		cmp	r3, #0
 973 0012 04D1     		bne	.L64
 974              		.loc 1 458 0 is_stmt 0 discriminator 1
 975 0014 FFF7FEFF 		bl	port_halt
 976 0018 4FF0F203 		mov	r3, #242
 977 001c 68E0     		b	.L65
 978              	.L64:
 979              		.loc 1 459 0 is_stmt 1
 980 001e 009B     		ldr	r3, [sp, #0]
 981 0020 4FF00002 		mov	r2, #0
 982 0024 1A60     		str	r2, [r3, #0]
 983              		.loc 1 460 0
 984 0026 019B     		ldr	r3, [sp, #4]
 985 0028 002B     		cmp	r3, #0
 986 002a 04D1     		bne	.L66
 987              		.loc 1 460 0 is_stmt 0 discriminator 1
 988 002c FFF7FEFF 		bl	port_halt
 989 0030 4FF0F203 		mov	r3, #242
 990 0034 5CE0     		b	.L65
 991              	.L66:
 992              		.loc 1 461 0 is_stmt 1
 993 0036 019B     		ldr	r3, [sp, #4]
 994 0038 03F11003 		add	r3, r3, #16
 995 003c 1846     		mov	r0, r3
 996 003e FFF7FEFF 		bl	sys_mbox_valid
 997 0042 0346     		mov	r3, r0
 998 0044 002B     		cmp	r3, #0
 999 0046 04D1     		bne	.L67
 1000              		.loc 1 461 0 is_stmt 0 discriminator 1
 1001 0048 FFF7FEFF 		bl	port_halt
 1002 004c 4FF0F303 		mov	r3, #243
 1003 0050 4EE0     		b	.L65
 1004              	.L67:
 1005              		.loc 1 464 0 is_stmt 1
 1006 0052 019B     		ldr	r3, [sp, #4]
 1007 0054 1B78     		ldrb	r3, [r3, #0]	@ zero_extendqisi2
ARM GAS  /tmp/ccbXNC0P.s 			page 19


 1008 0056 102B     		cmp	r3, #16
 1009 0058 45D1     		bne	.L68
 1010              	.LBB2:
 1011              		.loc 1 465 0
 1012 005a 4FF00003 		mov	r3, #0
 1013 005e 0393     		str	r3, [sp, #12]
 1014              		.loc 1 468 0
 1015 0060 4FF00700 		mov	r0, #7
 1016 0064 FFF7FEFF 		bl	memp_malloc
 1017 0068 0346     		mov	r3, r0
 1018 006a 0593     		str	r3, [sp, #20]
 1019              		.loc 1 469 0
 1020 006c 059B     		ldr	r3, [sp, #20]
 1021 006e 002B     		cmp	r3, #0
 1022 0070 0CD1     		bne	.L69
 1023              		.loc 1 470 0
 1024 0072 019B     		ldr	r3, [sp, #4]
 1025 0074 1B7A     		ldrb	r3, [r3, #8]	@ zero_extendqisi2
 1026 0076 5BB2     		sxtb	r3, r3
 1027 0078 13F1090F 		cmn	r3, #9
 1028 007c 03DB     		blt	.L70
 1029              		.loc 1 470 0 is_stmt 0 discriminator 1
 1030 007e 019B     		ldr	r3, [sp, #4]
 1031 0080 4FF0FF02 		mov	r2, #255
 1032 0084 1A72     		strb	r2, [r3, #8]
 1033              	.L70:
 1034              		.loc 1 471 0 is_stmt 1
 1035 0086 4FF0FF03 		mov	r3, #255
 1036 008a 31E0     		b	.L65
 1037              	.L69:
 1038              		.loc 1 474 0
 1039 008c 03AB     		add	r3, sp, #12
 1040 008e 0198     		ldr	r0, [sp, #4]
 1041 0090 1946     		mov	r1, r3
 1042 0092 FFF7FEFF 		bl	netconn_recv_data
 1043 0096 0346     		mov	r3, r0
 1044 0098 8DF81330 		strb	r3, [sp, #19]
 1045              		.loc 1 475 0
 1046 009c 9DF91330 		ldrsb	r3, [sp, #19]
 1047 00a0 002B     		cmp	r3, #0
 1048 00a2 07D0     		beq	.L71
 1049              		.loc 1 476 0
 1050 00a4 4FF00700 		mov	r0, #7
 1051 00a8 0599     		ldr	r1, [sp, #20]
 1052 00aa FFF7FEFF 		bl	memp_free
 1053              		.loc 1 477 0
 1054 00ae 9DF81330 		ldrb	r3, [sp, #19]	@ zero_extendqisi2
 1055 00b2 1DE0     		b	.L65
 1056              	.L71:
 1057              		.loc 1 479 0
 1058 00b4 039B     		ldr	r3, [sp, #12]
 1059 00b6 002B     		cmp	r3, #0
 1060 00b8 01D1     		bne	.L72
 1061              		.loc 1 479 0 is_stmt 0 discriminator 1
 1062 00ba FFF7FEFF 		bl	port_halt
 1063              	.L72:
 1064              		.loc 1 481 0 is_stmt 1
ARM GAS  /tmp/ccbXNC0P.s 			page 20


 1065 00be 039A     		ldr	r2, [sp, #12]
 1066 00c0 059B     		ldr	r3, [sp, #20]
 1067 00c2 1A60     		str	r2, [r3, #0]
 1068              		.loc 1 482 0
 1069 00c4 039A     		ldr	r2, [sp, #12]
 1070 00c6 059B     		ldr	r3, [sp, #20]
 1071 00c8 5A60     		str	r2, [r3, #4]
 1072              		.loc 1 483 0
 1073 00ca 059B     		ldr	r3, [sp, #20]
 1074 00cc 4FF00002 		mov	r2, #0
 1075 00d0 9A81     		strh	r2, [r3, #12]	@ movhi
 1076              		.loc 1 484 0
 1077 00d2 059B     		ldr	r3, [sp, #20]
 1078 00d4 4FF00002 		mov	r2, #0
 1079 00d8 9A60     		str	r2, [r3, #8]
 1080              		.loc 1 485 0
 1081 00da 009B     		ldr	r3, [sp, #0]
 1082 00dc 059A     		ldr	r2, [sp, #20]
 1083 00de 1A60     		str	r2, [r3, #0]
 1084              		.loc 1 487 0
 1085 00e0 4FF00003 		mov	r3, #0
 1086 00e4 04E0     		b	.L65
 1087              	.L68:
 1088              	.LBE2:
 1089              		.loc 1 492 0
 1090 00e6 0198     		ldr	r0, [sp, #4]
 1091 00e8 0099     		ldr	r1, [sp, #0]
 1092 00ea FFF7FEFF 		bl	netconn_recv_data
 1093 00ee 0346     		mov	r3, r0
 1094              	.L65:
 1095 00f0 5BB2     		sxtb	r3, r3
 1096              		.loc 1 495 0
 1097 00f2 1846     		mov	r0, r3
 1098 00f4 07B0     		add	sp, sp, #28
 1099 00f6 00BD     		pop	{pc}
 1100              		.cfi_endproc
 1101              	.LFE17:
 1102              		.size	netconn_recv, .-netconn_recv
 1103 00f8 AFF30080 		.section	.text.netconn_recved,"ax",%progbits
 1103      AFF30080 
 1104              		.align	2
 1105              		.p2align 4,,15
 1106              		.global	netconn_recved
 1107              		.thumb
 1108              		.thumb_func
 1109              		.type	netconn_recved, %function
 1110              	netconn_recved:
 1111              	.LFB18:
 1112              		.loc 1 509 0
 1113              		.cfi_startproc
 1114              		@ args = 0, pretend = 0, frame = 32
 1115              		@ frame_needed = 0, uses_anonymous_args = 0
 1116 0000 00B5     		push	{lr}
 1117              	.LCFI22:
 1118              		.cfi_def_cfa_offset 4
 1119              		.cfi_offset 14, -4
 1120 0002 89B0     		sub	sp, sp, #36
ARM GAS  /tmp/ccbXNC0P.s 			page 21


 1121              	.LCFI23:
 1122              		.cfi_def_cfa_offset 40
 1123 0004 0190     		str	r0, [sp, #4]
 1124 0006 0091     		str	r1, [sp, #0]
 1125              		.loc 1 511 0
 1126 0008 019B     		ldr	r3, [sp, #4]
 1127 000a 002B     		cmp	r3, #0
 1128 000c 16D0     		beq	.L73
 1129              		.loc 1 511 0 is_stmt 0 discriminator 1
 1130 000e 019B     		ldr	r3, [sp, #4]
 1131 0010 1B78     		ldrb	r3, [r3, #0]	@ zero_extendqisi2
 1132 0012 102B     		cmp	r3, #16
 1133 0014 12D1     		bne	.L73
 1134              		.loc 1 512 0 is_stmt 1 discriminator 1
 1135 0016 019B     		ldr	r3, [sp, #4]
 1136 0018 1B7F     		ldrb	r3, [r3, #28]	@ zero_extendqisi2
 1137 001a 03F00803 		and	r3, r3, #8
 1138              		.loc 1 511 0 discriminator 1
 1139 001e 002B     		cmp	r3, #0
 1140 0020 0CD0     		beq	.L73
 1141              	.LBB3:
 1142              		.loc 1 517 0
 1143 0022 40F20003 		movw	r3, #:lower16:do_recv
 1144 0026 C0F20003 		movt	r3, #:upper16:do_recv
 1145 002a 0293     		str	r3, [sp, #8]
 1146              		.loc 1 518 0
 1147 002c 019B     		ldr	r3, [sp, #4]
 1148 002e 0393     		str	r3, [sp, #12]
 1149              		.loc 1 519 0
 1150 0030 009B     		ldr	r3, [sp, #0]
 1151 0032 0593     		str	r3, [sp, #20]
 1152              		.loc 1 521 0
 1153 0034 02AB     		add	r3, sp, #8
 1154 0036 1846     		mov	r0, r3
 1155 0038 FFF7FEFF 		bl	tcpip_apimsg
 1156              	.L73:
 1157              	.LBE3:
 1158              		.loc 1 527 0
 1159 003c 09B0     		add	sp, sp, #36
 1160 003e 00BD     		pop	{pc}
 1161              		.cfi_endproc
 1162              	.LFE18:
 1163              		.size	netconn_recved, .-netconn_recved
 1164              		.section	.text.netconn_sendto,"ax",%progbits
 1165              		.align	2
 1166              		.p2align 4,,15
 1167              		.global	netconn_sendto
 1168              		.thumb
 1169              		.thumb_func
 1170              		.type	netconn_sendto, %function
 1171              	netconn_sendto:
 1172              	.LFB19:
 1173              		.loc 1 541 0
 1174              		.cfi_startproc
 1175              		@ args = 0, pretend = 0, frame = 16
 1176              		@ frame_needed = 0, uses_anonymous_args = 0
 1177 0000 00B5     		push	{lr}
ARM GAS  /tmp/ccbXNC0P.s 			page 22


 1178              	.LCFI24:
 1179              		.cfi_def_cfa_offset 4
 1180              		.cfi_offset 14, -4
 1181 0002 85B0     		sub	sp, sp, #20
 1182              	.LCFI25:
 1183              		.cfi_def_cfa_offset 24
 1184 0004 0390     		str	r0, [sp, #12]
 1185 0006 0291     		str	r1, [sp, #8]
 1186 0008 0192     		str	r2, [sp, #4]
 1187 000a ADF80230 		strh	r3, [sp, #2]	@ movhi
 1188              		.loc 1 542 0
 1189 000e 029B     		ldr	r3, [sp, #8]
 1190 0010 002B     		cmp	r3, #0
 1191 0012 13D0     		beq	.L76
 1192              		.loc 1 543 0
 1193 0014 019B     		ldr	r3, [sp, #4]
 1194 0016 002B     		cmp	r3, #0
 1195 0018 02D0     		beq	.L77
 1196              		.loc 1 543 0 is_stmt 0 discriminator 1
 1197 001a 019B     		ldr	r3, [sp, #4]
 1198 001c 1B68     		ldr	r3, [r3, #0]
 1199 001e 01E0     		b	.L78
 1200              	.L77:
 1201              		.loc 1 543 0 discriminator 2
 1202 0020 4FF00003 		mov	r3, #0
 1203              	.L78:
 1204              		.loc 1 543 0 discriminator 3
 1205 0024 029A     		ldr	r2, [sp, #8]
 1206 0026 9360     		str	r3, [r2, #8]
 1207              		.loc 1 544 0 is_stmt 1 discriminator 3
 1208 0028 029B     		ldr	r3, [sp, #8]
 1209 002a BDF80220 		ldrh	r2, [sp, #2]	@ movhi
 1210 002e 9A81     		strh	r2, [r3, #12]	@ movhi
 1211              		.loc 1 545 0 discriminator 3
 1212 0030 0398     		ldr	r0, [sp, #12]
 1213 0032 0299     		ldr	r1, [sp, #8]
 1214 0034 FFF7FEFF 		bl	netconn_send
 1215 0038 0346     		mov	r3, r0
 1216 003a 01E0     		b	.L79
 1217              	.L76:
 1218              		.loc 1 547 0
 1219 003c 4FF0FA03 		mov	r3, #250
 1220              	.L79:
 1221 0040 5BB2     		sxtb	r3, r3
 1222              		.loc 1 548 0
 1223 0042 1846     		mov	r0, r3
 1224 0044 05B0     		add	sp, sp, #20
 1225 0046 00BD     		pop	{pc}
 1226              		.cfi_endproc
 1227              	.LFE19:
 1228              		.size	netconn_sendto, .-netconn_sendto
 1229 0048 AFF30080 		.section	.text.netconn_send,"ax",%progbits
 1229      AFF30080 
 1230              		.align	2
 1231              		.p2align 4,,15
 1232              		.global	netconn_send
 1233              		.thumb
ARM GAS  /tmp/ccbXNC0P.s 			page 23


 1234              		.thumb_func
 1235              		.type	netconn_send, %function
 1236              	netconn_send:
 1237              	.LFB20:
 1238              		.loc 1 559 0
 1239              		.cfi_startproc
 1240              		@ args = 0, pretend = 0, frame = 40
 1241              		@ frame_needed = 0, uses_anonymous_args = 0
 1242 0000 00B5     		push	{lr}
 1243              	.LCFI26:
 1244              		.cfi_def_cfa_offset 4
 1245              		.cfi_offset 14, -4
 1246 0002 8BB0     		sub	sp, sp, #44
 1247              	.LCFI27:
 1248              		.cfi_def_cfa_offset 48
 1249 0004 0190     		str	r0, [sp, #4]
 1250 0006 0091     		str	r1, [sp, #0]
 1251              		.loc 1 563 0
 1252 0008 019B     		ldr	r3, [sp, #4]
 1253 000a 002B     		cmp	r3, #0
 1254 000c 04D1     		bne	.L81
 1255              		.loc 1 563 0 is_stmt 0 discriminator 1
 1256 000e FFF7FEFF 		bl	port_halt
 1257 0012 4FF0F203 		mov	r3, #242
 1258 0016 1BE0     		b	.L82
 1259              	.L81:
 1260              		.loc 1 566 0 is_stmt 1
 1261 0018 40F20003 		movw	r3, #:lower16:do_send
 1262 001c C0F20003 		movt	r3, #:upper16:do_send
 1263 0020 0393     		str	r3, [sp, #12]
 1264              		.loc 1 567 0
 1265 0022 019B     		ldr	r3, [sp, #4]
 1266 0024 0493     		str	r3, [sp, #16]
 1267              		.loc 1 568 0
 1268 0026 009B     		ldr	r3, [sp, #0]
 1269 0028 0693     		str	r3, [sp, #24]
 1270              		.loc 1 569 0
 1271 002a 03AB     		add	r3, sp, #12
 1272 002c 1846     		mov	r0, r3
 1273 002e FFF7FEFF 		bl	tcpip_apimsg
 1274 0032 0346     		mov	r3, r0
 1275 0034 8DF82730 		strb	r3, [sp, #39]
 1276              		.loc 1 571 0
 1277 0038 019B     		ldr	r3, [sp, #4]
 1278 003a 1B7A     		ldrb	r3, [r3, #8]	@ zero_extendqisi2
 1279 003c 5BB2     		sxtb	r3, r3
 1280 003e 13F1090F 		cmn	r3, #9
 1281 0042 03DB     		blt	.L83
 1282              		.loc 1 571 0 is_stmt 0 discriminator 1
 1283 0044 019B     		ldr	r3, [sp, #4]
 1284 0046 9DF82720 		ldrb	r2, [sp, #39]
 1285 004a 1A72     		strb	r2, [r3, #8]
 1286              	.L83:
 1287              		.loc 1 572 0 is_stmt 1
 1288 004c 9DF82730 		ldrb	r3, [sp, #39]	@ zero_extendqisi2
 1289              	.L82:
 1290 0050 5BB2     		sxtb	r3, r3
ARM GAS  /tmp/ccbXNC0P.s 			page 24


 1291              		.loc 1 573 0
 1292 0052 1846     		mov	r0, r3
 1293 0054 0BB0     		add	sp, sp, #44
 1294 0056 00BD     		pop	{pc}
 1295              		.cfi_endproc
 1296              	.LFE20:
 1297              		.size	netconn_send, .-netconn_send
 1298 0058 AFF30080 		.section	.text.netconn_write,"ax",%progbits
 1298      AFF30080 
 1299              		.align	2
 1300              		.p2align 4,,15
 1301              		.global	netconn_write
 1302              		.thumb
 1303              		.thumb_func
 1304              		.type	netconn_write, %function
 1305              	netconn_write:
 1306              	.LFB21:
 1307              		.loc 1 589 0
 1308              		.cfi_startproc
 1309              		@ args = 0, pretend = 0, frame = 48
 1310              		@ frame_needed = 0, uses_anonymous_args = 0
 1311 0000 00B5     		push	{lr}
 1312              	.LCFI28:
 1313              		.cfi_def_cfa_offset 4
 1314              		.cfi_offset 14, -4
 1315 0002 8DB0     		sub	sp, sp, #52
 1316              	.LCFI29:
 1317              		.cfi_def_cfa_offset 56
 1318 0004 0390     		str	r0, [sp, #12]
 1319 0006 0291     		str	r1, [sp, #8]
 1320 0008 0192     		str	r2, [sp, #4]
 1321 000a 8DF80330 		strb	r3, [sp, #3]
 1322              		.loc 1 593 0
 1323 000e 039B     		ldr	r3, [sp, #12]
 1324 0010 002B     		cmp	r3, #0
 1325 0012 04D1     		bne	.L85
 1326              		.loc 1 593 0 is_stmt 0 discriminator 1
 1327 0014 FFF7FEFF 		bl	port_halt
 1328 0018 4FF0F203 		mov	r3, #242
 1329 001c 30E0     		b	.L86
 1330              	.L85:
 1331              		.loc 1 594 0 is_stmt 1
 1332 001e 039B     		ldr	r3, [sp, #12]
 1333 0020 1B78     		ldrb	r3, [r3, #0]	@ zero_extendqisi2
 1334 0022 102B     		cmp	r3, #16
 1335 0024 04D0     		beq	.L87
 1336              		.loc 1 594 0 is_stmt 0 discriminator 1
 1337 0026 FFF7FEFF 		bl	port_halt
 1338 002a 4FF0FA03 		mov	r3, #250
 1339 002e 27E0     		b	.L86
 1340              	.L87:
 1341              		.loc 1 595 0 is_stmt 1
 1342 0030 019B     		ldr	r3, [sp, #4]
 1343 0032 002B     		cmp	r3, #0
 1344 0034 02D1     		bne	.L88
 1345              		.loc 1 596 0
 1346 0036 4FF00003 		mov	r3, #0
ARM GAS  /tmp/ccbXNC0P.s 			page 25


 1347 003a 21E0     		b	.L86
 1348              	.L88:
 1349              		.loc 1 601 0
 1350 003c 40F20003 		movw	r3, #:lower16:do_write
 1351 0040 C0F20003 		movt	r3, #:upper16:do_write
 1352 0044 0593     		str	r3, [sp, #20]
 1353              		.loc 1 602 0
 1354 0046 039B     		ldr	r3, [sp, #12]
 1355 0048 0693     		str	r3, [sp, #24]
 1356              		.loc 1 603 0
 1357 004a 029B     		ldr	r3, [sp, #8]
 1358 004c 0893     		str	r3, [sp, #32]
 1359              		.loc 1 604 0
 1360 004e 9DF80330 		ldrb	r3, [sp, #3]
 1361 0052 8DF82830 		strb	r3, [sp, #40]
 1362              		.loc 1 605 0
 1363 0056 019B     		ldr	r3, [sp, #4]
 1364 0058 0993     		str	r3, [sp, #36]
 1365              		.loc 1 609 0
 1366 005a 05AB     		add	r3, sp, #20
 1367 005c 1846     		mov	r0, r3
 1368 005e FFF7FEFF 		bl	tcpip_apimsg
 1369 0062 0346     		mov	r3, r0
 1370 0064 8DF82F30 		strb	r3, [sp, #47]
 1371              		.loc 1 611 0
 1372 0068 039B     		ldr	r3, [sp, #12]
 1373 006a 1B7A     		ldrb	r3, [r3, #8]	@ zero_extendqisi2
 1374 006c 5BB2     		sxtb	r3, r3
 1375 006e 13F1090F 		cmn	r3, #9
 1376 0072 03DB     		blt	.L89
 1377              		.loc 1 611 0 is_stmt 0 discriminator 1
 1378 0074 039B     		ldr	r3, [sp, #12]
 1379 0076 9DF82F20 		ldrb	r2, [sp, #47]
 1380 007a 1A72     		strb	r2, [r3, #8]
 1381              	.L89:
 1382              		.loc 1 612 0 is_stmt 1
 1383 007c 9DF82F30 		ldrb	r3, [sp, #47]	@ zero_extendqisi2
 1384              	.L86:
 1385 0080 5BB2     		sxtb	r3, r3
 1386              		.loc 1 613 0
 1387 0082 1846     		mov	r0, r3
 1388 0084 0DB0     		add	sp, sp, #52
 1389 0086 00BD     		pop	{pc}
 1390              		.cfi_endproc
 1391              	.LFE21:
 1392              		.size	netconn_write, .-netconn_write
 1393 0088 AFF30080 		.section	.text.netconn_close_shutdown,"ax",%progbits
 1393      AFF30080 
 1394              		.align	2
 1395              		.p2align 4,,15
 1396              		.thumb
 1397              		.thumb_func
 1398              		.type	netconn_close_shutdown, %function
 1399              	netconn_close_shutdown:
 1400              	.LFB22:
 1401              		.loc 1 624 0
 1402              		.cfi_startproc
ARM GAS  /tmp/ccbXNC0P.s 			page 26


 1403              		@ args = 0, pretend = 0, frame = 40
 1404              		@ frame_needed = 0, uses_anonymous_args = 0
 1405 0000 00B5     		push	{lr}
 1406              	.LCFI30:
 1407              		.cfi_def_cfa_offset 4
 1408              		.cfi_offset 14, -4
 1409 0002 8BB0     		sub	sp, sp, #44
 1410              	.LCFI31:
 1411              		.cfi_def_cfa_offset 48
 1412 0004 0190     		str	r0, [sp, #4]
 1413 0006 0B46     		mov	r3, r1
 1414 0008 8DF80330 		strb	r3, [sp, #3]
 1415              		.loc 1 628 0
 1416 000c 019B     		ldr	r3, [sp, #4]
 1417 000e 002B     		cmp	r3, #0
 1418 0010 04D1     		bne	.L91
 1419              		.loc 1 628 0 is_stmt 0 discriminator 1
 1420 0012 FFF7FEFF 		bl	port_halt
 1421 0016 4FF0F203 		mov	r3, #242
 1422 001a 1DE0     		b	.L92
 1423              	.L91:
 1424              		.loc 1 630 0 is_stmt 1
 1425 001c 40F20003 		movw	r3, #:lower16:do_close
 1426 0020 C0F20003 		movt	r3, #:upper16:do_close
 1427 0024 0393     		str	r3, [sp, #12]
 1428              		.loc 1 631 0
 1429 0026 019B     		ldr	r3, [sp, #4]
 1430 0028 0493     		str	r3, [sp, #16]
 1431              		.loc 1 633 0
 1432 002a 9DF80330 		ldrb	r3, [sp, #3]
 1433 002e 8DF81830 		strb	r3, [sp, #24]
 1434              		.loc 1 636 0
 1435 0032 03AB     		add	r3, sp, #12
 1436 0034 1846     		mov	r0, r3
 1437 0036 FFF7FEFF 		bl	tcpip_apimsg
 1438 003a 0346     		mov	r3, r0
 1439 003c 8DF82730 		strb	r3, [sp, #39]
 1440              		.loc 1 638 0
 1441 0040 019B     		ldr	r3, [sp, #4]
 1442 0042 1B7A     		ldrb	r3, [r3, #8]	@ zero_extendqisi2
 1443 0044 5BB2     		sxtb	r3, r3
 1444 0046 13F1090F 		cmn	r3, #9
 1445 004a 03DB     		blt	.L93
 1446              		.loc 1 638 0 is_stmt 0 discriminator 1
 1447 004c 019B     		ldr	r3, [sp, #4]
 1448 004e 9DF82720 		ldrb	r2, [sp, #39]
 1449 0052 1A72     		strb	r2, [r3, #8]
 1450              	.L93:
 1451              		.loc 1 639 0 is_stmt 1
 1452 0054 9DF82730 		ldrb	r3, [sp, #39]	@ zero_extendqisi2
 1453              	.L92:
 1454 0058 5BB2     		sxtb	r3, r3
 1455              		.loc 1 640 0
 1456 005a 1846     		mov	r0, r3
 1457 005c 0BB0     		add	sp, sp, #44
 1458 005e 00BD     		pop	{pc}
 1459              		.cfi_endproc
ARM GAS  /tmp/ccbXNC0P.s 			page 27


 1460              	.LFE22:
 1461              		.size	netconn_close_shutdown, .-netconn_close_shutdown
 1462              		.section	.text.netconn_close,"ax",%progbits
 1463              		.align	2
 1464              		.p2align 4,,15
 1465              		.global	netconn_close
 1466              		.thumb
 1467              		.thumb_func
 1468              		.type	netconn_close, %function
 1469              	netconn_close:
 1470              	.LFB23:
 1471              		.loc 1 650 0
 1472              		.cfi_startproc
 1473              		@ args = 0, pretend = 0, frame = 8
 1474              		@ frame_needed = 0, uses_anonymous_args = 0
 1475 0000 00B5     		push	{lr}
 1476              	.LCFI32:
 1477              		.cfi_def_cfa_offset 4
 1478              		.cfi_offset 14, -4
 1479 0002 83B0     		sub	sp, sp, #12
 1480              	.LCFI33:
 1481              		.cfi_def_cfa_offset 16
 1482 0004 0190     		str	r0, [sp, #4]
 1483              		.loc 1 652 0
 1484 0006 0198     		ldr	r0, [sp, #4]
 1485 0008 4FF00301 		mov	r1, #3
 1486 000c FFF7FEFF 		bl	netconn_close_shutdown
 1487 0010 0346     		mov	r3, r0
 1488              		.loc 1 653 0
 1489 0012 1846     		mov	r0, r3
 1490 0014 03B0     		add	sp, sp, #12
 1491 0016 00BD     		pop	{pc}
 1492              		.cfi_endproc
 1493              	.LFE23:
 1494              		.size	netconn_close, .-netconn_close
 1495 0018 AFF30080 		.section	.text.netconn_shutdown,"ax",%progbits
 1495      AFF30080 
 1496              		.align	2
 1497              		.p2align 4,,15
 1498              		.global	netconn_shutdown
 1499              		.thumb
 1500              		.thumb_func
 1501              		.type	netconn_shutdown, %function
 1502              	netconn_shutdown:
 1503              	.LFB24:
 1504              		.loc 1 663 0
 1505              		.cfi_startproc
 1506              		@ args = 0, pretend = 0, frame = 8
 1507              		@ frame_needed = 0, uses_anonymous_args = 0
 1508 0000 00B5     		push	{lr}
 1509              	.LCFI34:
 1510              		.cfi_def_cfa_offset 4
 1511              		.cfi_offset 14, -4
 1512 0002 83B0     		sub	sp, sp, #12
 1513              	.LCFI35:
 1514              		.cfi_def_cfa_offset 16
 1515 0004 0190     		str	r0, [sp, #4]
ARM GAS  /tmp/ccbXNC0P.s 			page 28


 1516 0006 1346     		mov	r3, r2
 1517 0008 0A46     		mov	r2, r1
 1518 000a 8DF80320 		strb	r2, [sp, #3]
 1519 000e 8DF80230 		strb	r3, [sp, #2]
 1520              		.loc 1 664 0
 1521 0012 9DF80330 		ldrb	r3, [sp, #3]	@ zero_extendqisi2
 1522 0016 002B     		cmp	r3, #0
 1523 0018 0CBF     		ite	eq
 1524 001a 0023     		moveq	r3, #0
 1525 001c 0123     		movne	r3, #1
 1526 001e DAB2     		uxtb	r2, r3
 1527 0020 9DF80230 		ldrb	r3, [sp, #2]	@ zero_extendqisi2
 1528 0024 002B     		cmp	r3, #0
 1529 0026 02D0     		beq	.L96
 1530              		.loc 1 664 0 is_stmt 0 discriminator 1
 1531 0028 4FF00203 		mov	r3, #2
 1532 002c 01E0     		b	.L97
 1533              	.L96:
 1534              		.loc 1 664 0 discriminator 2
 1535 002e 4FF00003 		mov	r3, #0
 1536              	.L97:
 1537              		.loc 1 664 0 discriminator 3
 1538 0032 1343     		orrs	r3, r3, r2
 1539 0034 DBB2     		uxtb	r3, r3
 1540 0036 DBB2     		uxtb	r3, r3
 1541 0038 0198     		ldr	r0, [sp, #4]
 1542 003a 1946     		mov	r1, r3
 1543 003c FFF7FEFF 		bl	netconn_close_shutdown
 1544 0040 0346     		mov	r3, r0
 1545              		.loc 1 665 0 is_stmt 1 discriminator 3
 1546 0042 1846     		mov	r0, r3
 1547 0044 03B0     		add	sp, sp, #12
 1548 0046 00BD     		pop	{pc}
 1549              		.cfi_endproc
 1550              	.LFE24:
 1551              		.size	netconn_shutdown, .-netconn_shutdown
 1552 0048 AFF30080 		.text
 1552      AFF30080 
 1553              	.Letext0:
 1554              		.file 2 "/home/texzk/ChibiStudio/tools/GNU Tools ARM Embedded/4.6 2012q2/bin/../lib/gcc/arm-none-e
 1555              		.file 3 "/home/texzk/ChibiStudio/tools/GNU Tools ARM Embedded/4.6 2012q2/bin/../lib/gcc/arm-none-e
 1556              		.file 4 "../../os/ports/GCC/ARMCMx/chtypes.h"
 1557              		.file 5 "../../os/kernel/include/chlists.h"
 1558              		.file 6 "../../os/kernel/include/chthreads.h"
 1559              		.file 7 "../../os/ports/GCC/ARMCMx/chcore_v7m.h"
 1560              		.file 8 "../../os/kernel/include/chsem.h"
 1561              		.file 9 "../../os/kernel/include/chmtx.h"
 1562              		.file 10 "../../os/kernel/include/chmboxes.h"
 1563              		.file 11 "../../os/various/lwip_bindings/arch/cc.h"
 1564              		.file 12 "../../ext/lwip/src/include/lwip/err.h"
 1565              		.file 13 "../../ext/lwip/src/include/lwip/pbuf.h"
 1566              		.file 14 "../../ext/lwip/src/include/ipv4/lwip/ip_addr.h"
 1567              		.file 15 "../../ext/lwip/src/include/lwip/netbuf.h"
 1568              		.file 16 "../../os/various/lwip_bindings/arch/sys_arch.h"
 1569              		.file 17 "../../ext/lwip/src/include/lwip/api.h"
 1570              		.file 18 "../../ext/lwip/src/include/ipv4/lwip/ip.h"
 1571              		.file 19 "../../ext/lwip/src/include/lwip/tcp.h"
ARM GAS  /tmp/ccbXNC0P.s 			page 29


 1572              		.file 20 "../../ext/lwip/src/include/lwip/udp.h"
 1573              		.file 21 "../../ext/lwip/src/include/lwip/raw.h"
 1574              		.file 22 "../../ext/lwip/src/include/lwip/api_msg.h"
 1575              		.file 23 "../../ext/lwip/src/include/lwip/memp.h"