ARM GAS  /tmp/ccRevIkM.s 			page 1


   1              		.syntax unified
   2              		.cpu cortex-m3
   3              		.fpu softvfp
   4              		.eabi_attribute 20, 1
   5              		.eabi_attribute 21, 1
   6              		.eabi_attribute 23, 3
   7              		.eabi_attribute 24, 1
   8              		.eabi_attribute 25, 1
   9              		.eabi_attribute 26, 1
  10              		.eabi_attribute 30, 6
  11              		.eabi_attribute 34, 1
  12              		.eabi_attribute 18, 4
  13              		.thumb
  14              		.file	"chregistry.c"
  15              		.text
  16              	.Ltext0:
  17              		.cfi_sections	.debug_frame
  18              		.global	ch_root
  19              		.section	.rodata.ch_root,"a",%progbits
  20              		.align	2
  21              		.type	ch_root, %object
  22              		.size	ch_root, 22
  23              	ch_root:
  24 0000 43485254 		.ascii	"CHRT"
  25 0004 16       		.byte	22
  26 0005 00       		.byte	0
  27 0006 4011     		.short	4416
  28 0008 04       		.byte	4
  29 0009 04       		.byte	4
  30 000a 4C       		.byte	76
  31 000b 08       		.byte	8
  32 000c 0C       		.byte	12
  33 000d 10       		.byte	16
  34 000e 14       		.byte	20
  35 000f 18       		.byte	24
  36 0010 1C       		.byte	28
  37 0011 20       		.byte	32
  38 0012 21       		.byte	33
  39 0013 22       		.byte	34
  40 0014 23       		.byte	35
  41 0015 24       		.byte	36
  42 0016 0000     		.section	.text.chRegFirstThread,"ax",%progbits
  43              		.align	2
  44              		.p2align 4,,15
  45              		.global	chRegFirstThread
  46              		.thumb
  47              		.thumb_func
  48              		.type	chRegFirstThread, %function
  49              	chRegFirstThread:
  50              	.LFB7:
  51              		.file 1 "../../os/kernel/src/chregistry.c"
  52              		.loc 1 106 0
  53              		.cfi_startproc
  54              		@ args = 0, pretend = 0, frame = 8
  55              		@ frame_needed = 0, uses_anonymous_args = 0
  56 0000 00B5     		push	{lr}
  57              	.LCFI0:
ARM GAS  /tmp/ccRevIkM.s 			page 2


  58              		.cfi_def_cfa_offset 4
  59              		.cfi_offset 14, -4
  60 0002 83B0     		sub	sp, sp, #12
  61              	.LCFI1:
  62              		.cfi_def_cfa_offset 16
  63              	.LBB2:
  64              		.loc 1 109 0
  65 0004 4FF02003 		mov	r3, #32
  66              	@ 109 "../../os/kernel/src/chregistry.c" 1
  67 0008 83F31188 		msr     BASEPRI, r3
  68              	@ 0 "" 2
  69              		.thumb
  70              	.LBE2:
  71 000c FFF7FEFF 		bl	dbg_check_lock
  72              		.loc 1 110 0
  73 0010 40F20003 		movw	r3, #:lower16:rlist
  74 0014 C0F20003 		movt	r3, #:upper16:rlist
  75 0018 1B69     		ldr	r3, [r3, #16]
  76 001a 0193     		str	r3, [sp, #4]
  77              		.loc 1 112 0
  78 001c 019B     		ldr	r3, [sp, #4]
  79 001e 93F82230 		ldrb	r3, [r3, #34]	@ zero_extendqisi2
  80 0022 03F10103 		add	r3, r3, #1
  81 0026 DAB2     		uxtb	r2, r3
  82 0028 019B     		ldr	r3, [sp, #4]
  83 002a 83F82220 		strb	r2, [r3, #34]
  84              		.loc 1 114 0
  85 002e FFF7FEFF 		bl	dbg_check_unlock
  86              	.LBB3:
  87 0032 4FF00003 		mov	r3, #0
  88              	@ 114 "../../os/kernel/src/chregistry.c" 1
  89 0036 83F31188 		msr     BASEPRI, r3
  90              	@ 0 "" 2
  91              		.thumb
  92              	.LBE3:
  93              		.loc 1 115 0
  94 003a 019B     		ldr	r3, [sp, #4]
  95              		.loc 1 116 0
  96 003c 1846     		mov	r0, r3
  97 003e 03B0     		add	sp, sp, #12
  98 0040 00BD     		pop	{pc}
  99              		.cfi_endproc
 100              	.LFE7:
 101              		.size	chRegFirstThread, .-chRegFirstThread
 102 0042 00BFAFF3 		.section	.rodata
 102      0080AFF3 
 102      0080AFF3 
 102      0080
 103              		.align	2
 104              	.LC0:
 105 0000 63685265 		.ascii	"chRegNextThread(), #1\000"
 105      674E6578 
 105      74546872 
 105      65616428 
 105      292C2023 
 106 0016 0000     		.section	.text.chRegNextThread,"ax",%progbits
 107              		.align	2
ARM GAS  /tmp/ccRevIkM.s 			page 3


 108              		.p2align 4,,15
 109              		.global	chRegNextThread
 110              		.thumb
 111              		.thumb_func
 112              		.type	chRegNextThread, %function
 113              	chRegNextThread:
 114              	.LFB8:
 115              		.loc 1 129 0
 116              		.cfi_startproc
 117              		@ args = 0, pretend = 0, frame = 16
 118              		@ frame_needed = 0, uses_anonymous_args = 0
 119 0000 00B5     		push	{lr}
 120              	.LCFI2:
 121              		.cfi_def_cfa_offset 4
 122              		.cfi_offset 14, -4
 123 0002 85B0     		sub	sp, sp, #20
 124              	.LCFI3:
 125              		.cfi_def_cfa_offset 24
 126 0004 0190     		str	r0, [sp, #4]
 127              	.LBB4:
 128              		.loc 1 132 0
 129 0006 4FF02003 		mov	r3, #32
 130              	@ 132 "../../os/kernel/src/chregistry.c" 1
 131 000a 83F31188 		msr     BASEPRI, r3
 132              	@ 0 "" 2
 133              		.thumb
 134              	.LBE4:
 135 000e FFF7FEFF 		bl	dbg_check_lock
 136              		.loc 1 133 0
 137 0012 019B     		ldr	r3, [sp, #4]
 138 0014 1B69     		ldr	r3, [r3, #16]
 139 0016 0393     		str	r3, [sp, #12]
 140              		.loc 1 134 0
 141 0018 039A     		ldr	r2, [sp, #12]
 142 001a 40F20003 		movw	r3, #:lower16:rlist
 143 001e C0F20003 		movt	r3, #:upper16:rlist
 144 0022 9A42     		cmp	r2, r3
 145 0024 03D1     		bne	.L3
 146              		.loc 1 135 0
 147 0026 4FF00003 		mov	r3, #0
 148 002a 0393     		str	r3, [sp, #12]
 149 002c 13E0     		b	.L4
 150              	.L3:
 151              		.loc 1 138 0
 152 002e 039B     		ldr	r3, [sp, #12]
 153 0030 93F82230 		ldrb	r3, [r3, #34]	@ zero_extendqisi2
 154 0034 FF2B     		cmp	r3, #255
 155 0036 05D1     		bne	.L5
 156              		.loc 1 138 0 is_stmt 0 discriminator 1
 157 0038 40F20000 		movw	r0, #:lower16:.LC0
 158 003c C0F20000 		movt	r0, #:upper16:.LC0
 159 0040 FFF7FEFF 		bl	chDbgPanic
 160              	.L5:
 161              		.loc 1 140 0 is_stmt 1
 162 0044 039B     		ldr	r3, [sp, #12]
 163 0046 93F82230 		ldrb	r3, [r3, #34]	@ zero_extendqisi2
 164 004a 03F10103 		add	r3, r3, #1
ARM GAS  /tmp/ccRevIkM.s 			page 4


 165 004e DAB2     		uxtb	r2, r3
 166 0050 039B     		ldr	r3, [sp, #12]
 167 0052 83F82220 		strb	r2, [r3, #34]
 168              	.L4:
 169              		.loc 1 143 0
 170 0056 FFF7FEFF 		bl	dbg_check_unlock
 171              	.LBB5:
 172 005a 4FF00003 		mov	r3, #0
 173              	@ 143 "../../os/kernel/src/chregistry.c" 1
 174 005e 83F31188 		msr     BASEPRI, r3
 175              	@ 0 "" 2
 176              		.thumb
 177              	.LBE5:
 178              		.loc 1 145 0
 179 0062 0198     		ldr	r0, [sp, #4]
 180 0064 FFF7FEFF 		bl	chThdRelease
 181              		.loc 1 147 0
 182 0068 039B     		ldr	r3, [sp, #12]
 183              		.loc 1 148 0
 184 006a 1846     		mov	r0, r3
 185 006c 05B0     		add	sp, sp, #20
 186 006e 00BD     		pop	{pc}
 187              		.cfi_endproc
 188              	.LFE8:
 189              		.size	chRegNextThread, .-chRegNextThread
 190              		.text
 191              	.Letext0:
 192              		.file 2 "/home/texzk/ChibiStudio/tools/GNU Tools ARM Embedded/4.6 2012q2/bin/../lib/gcc/arm-none-e
 193              		.file 3 "/home/texzk/ChibiStudio/tools/GNU Tools ARM Embedded/4.6 2012q2/bin/../lib/gcc/arm-none-e
 194              		.file 4 "../../os/ports/GCC/ARMCMx/chtypes.h"
 195              		.file 5 "../../os/kernel/include/chlists.h"
 196              		.file 6 "../../os/kernel/include/chthreads.h"
 197              		.file 7 "../../os/ports/GCC/ARMCMx/chcore_v7m.h"
 198              		.file 8 "../../os/kernel/include/chschd.h"
 199              		.file 9 "../../os/kernel/include/chmtx.h"
 200              		.file 10 "../../os/kernel/include/chregistry.h"
 201              		.section	.debug_info,"",%progbits
 202              	.Ldebug_info0:
 203 0000 86060000 		.4byte	0x686
 204 0004 0200     		.2byte	0x2
 205 0006 00000000 		.4byte	.Ldebug_abbrev0
 206 000a 04       		.byte	0x4
 207 000b 01       		.uleb128 0x1
 208 000c 25010000 		.4byte	.LASF89
 209 0010 01       		.byte	0x1
 210 0011 AD030000 		.4byte	.LASF90
 211 0015 21000000 		.4byte	.LASF91
 212 0019 00000000 		.4byte	0
 213 001d 00000000 		.4byte	0
 214 0021 00000000 		.4byte	.Ldebug_ranges0+0
 215 0025 00000000 		.4byte	.Ldebug_line0
 216 0029 02       		.uleb128 0x2
 217 002a 04       		.byte	0x4
 218 002b 05       		.byte	0x5
 219 002c 696E7400 		.ascii	"int\000"
 220 0030 03       		.uleb128 0x3
 221 0031 13000000 		.4byte	.LASF2
ARM GAS  /tmp/ccRevIkM.s 			page 5


 222 0035 02       		.byte	0x2
 223 0036 D4       		.byte	0xd4
 224 0037 3B000000 		.4byte	0x3b
 225 003b 04       		.uleb128 0x4
 226 003c 04       		.byte	0x4
 227 003d 07       		.byte	0x7
 228 003e A4010000 		.4byte	.LASF0
 229 0042 04       		.uleb128 0x4
 230 0043 01       		.byte	0x1
 231 0044 06       		.byte	0x6
 232 0045 D0000000 		.4byte	.LASF1
 233 0049 03       		.uleb128 0x3
 234 004a F0030000 		.4byte	.LASF3
 235 004e 03       		.byte	0x3
 236 004f 2A       		.byte	0x2a
 237 0050 54000000 		.4byte	0x54
 238 0054 04       		.uleb128 0x4
 239 0055 01       		.byte	0x1
 240 0056 08       		.byte	0x8
 241 0057 AD020000 		.4byte	.LASF4
 242 005b 04       		.uleb128 0x4
 243 005c 02       		.byte	0x2
 244 005d 05       		.byte	0x5
 245 005e C5020000 		.4byte	.LASF5
 246 0062 03       		.uleb128 0x3
 247 0063 77010000 		.4byte	.LASF6
 248 0067 03       		.byte	0x3
 249 0068 36       		.byte	0x36
 250 0069 6D000000 		.4byte	0x6d
 251 006d 04       		.uleb128 0x4
 252 006e 02       		.byte	0x2
 253 006f 07       		.byte	0x7
 254 0070 E6010000 		.4byte	.LASF7
 255 0074 03       		.uleb128 0x3
 256 0075 A5020000 		.4byte	.LASF8
 257 0079 03       		.byte	0x3
 258 007a 4F       		.byte	0x4f
 259 007b 7F000000 		.4byte	0x7f
 260 007f 04       		.uleb128 0x4
 261 0080 04       		.byte	0x4
 262 0081 05       		.byte	0x5
 263 0082 1C010000 		.4byte	.LASF9
 264 0086 03       		.uleb128 0x3
 265 0087 38030000 		.4byte	.LASF10
 266 008b 03       		.byte	0x3
 267 008c 50       		.byte	0x50
 268 008d 91000000 		.4byte	0x91
 269 0091 04       		.uleb128 0x4
 270 0092 04       		.byte	0x4
 271 0093 07       		.byte	0x7
 272 0094 BE010000 		.4byte	.LASF11
 273 0098 04       		.uleb128 0x4
 274 0099 08       		.byte	0x8
 275 009a 05       		.byte	0x5
 276 009b C2000000 		.4byte	.LASF12
 277 009f 03       		.uleb128 0x3
 278 00a0 66000000 		.4byte	.LASF13
ARM GAS  /tmp/ccRevIkM.s 			page 6


 279 00a4 03       		.byte	0x3
 280 00a5 78       		.byte	0x78
 281 00a6 AA000000 		.4byte	0xaa
 282 00aa 04       		.uleb128 0x4
 283 00ab 08       		.byte	0x8
 284 00ac 07       		.byte	0x7
 285 00ad 6F000000 		.4byte	.LASF14
 286 00b1 03       		.uleb128 0x3
 287 00b2 FF010000 		.4byte	.LASF15
 288 00b6 04       		.byte	0x4
 289 00b7 28       		.byte	0x28
 290 00b8 49000000 		.4byte	0x49
 291 00bc 03       		.uleb128 0x3
 292 00bd 6E010000 		.4byte	.LASF16
 293 00c1 04       		.byte	0x4
 294 00c2 29       		.byte	0x29
 295 00c3 49000000 		.4byte	0x49
 296 00c7 03       		.uleb128 0x3
 297 00c8 83020000 		.4byte	.LASF17
 298 00cc 04       		.byte	0x4
 299 00cd 2A       		.byte	0x2a
 300 00ce 49000000 		.4byte	0x49
 301 00d2 03       		.uleb128 0x3
 302 00d3 12010000 		.4byte	.LASF18
 303 00d7 04       		.byte	0x4
 304 00d8 2B       		.byte	0x2b
 305 00d9 49000000 		.4byte	0x49
 306 00dd 03       		.uleb128 0x3
 307 00de 9D020000 		.4byte	.LASF19
 308 00e2 04       		.byte	0x4
 309 00e3 2C       		.byte	0x2c
 310 00e4 86000000 		.4byte	0x86
 311 00e8 03       		.uleb128 0x3
 312 00e9 F9010000 		.4byte	.LASF20
 313 00ed 04       		.byte	0x4
 314 00ee 2D       		.byte	0x2d
 315 00ef 74000000 		.4byte	0x74
 316 00f3 03       		.uleb128 0x3
 317 00f4 13020000 		.4byte	.LASF21
 318 00f8 04       		.byte	0x4
 319 00f9 2F       		.byte	0x2f
 320 00fa 86000000 		.4byte	0x86
 321 00fe 03       		.uleb128 0x3
 322 00ff 71030000 		.4byte	.LASF22
 323 0103 04       		.byte	0x4
 324 0104 30       		.byte	0x30
 325 0105 86000000 		.4byte	0x86
 326 0109 03       		.uleb128 0x3
 327 010a 19030000 		.4byte	.LASF23
 328 010e 05       		.byte	0x5
 329 010f 23       		.byte	0x23
 330 0110 14010000 		.4byte	0x114
 331 0114 05       		.uleb128 0x5
 332 0115 19030000 		.4byte	.LASF23
 333 0119 4C       		.byte	0x4c
 334 011a 06       		.byte	0x6
 335 011b 57       		.byte	0x57
ARM GAS  /tmp/ccRevIkM.s 			page 7


 336 011c 47020000 		.4byte	0x247
 337 0120 06       		.uleb128 0x6
 338 0121 FB020000 		.4byte	.LASF24
 339 0125 06       		.byte	0x6
 340 0126 58       		.byte	0x58
 341 0127 6C020000 		.4byte	0x26c
 342 012b 02       		.byte	0x2
 343 012c 23       		.byte	0x23
 344 012d 00       		.uleb128 0
 345 012e 06       		.uleb128 0x6
 346 012f 96020000 		.4byte	.LASF25
 347 0133 06       		.byte	0x6
 348 0134 5A       		.byte	0x5a
 349 0135 6C020000 		.4byte	0x26c
 350 0139 02       		.byte	0x2
 351 013a 23       		.byte	0x23
 352 013b 04       		.uleb128 0x4
 353 013c 06       		.uleb128 0x6
 354 013d AE000000 		.4byte	.LASF26
 355 0141 06       		.byte	0x6
 356 0142 5C       		.byte	0x5c
 357 0143 DD000000 		.4byte	0xdd
 358 0147 02       		.byte	0x2
 359 0148 23       		.byte	0x23
 360 0149 08       		.uleb128 0x8
 361 014a 06       		.uleb128 0x6
 362 014b 19040000 		.4byte	.LASF27
 363 014f 06       		.byte	0x6
 364 0150 5D       		.byte	0x5d
 365 0151 45030000 		.4byte	0x345
 366 0155 02       		.byte	0x2
 367 0156 23       		.byte	0x23
 368 0157 0C       		.uleb128 0xc
 369 0158 06       		.uleb128 0x6
 370 0159 80010000 		.4byte	.LASF28
 371 015d 06       		.byte	0x6
 372 015e 5F       		.byte	0x5f
 373 015f 6C020000 		.4byte	0x26c
 374 0163 02       		.byte	0x2
 375 0164 23       		.byte	0x23
 376 0165 10       		.uleb128 0x10
 377 0166 06       		.uleb128 0x6
 378 0167 54020000 		.4byte	.LASF29
 379 016b 06       		.byte	0x6
 380 016c 60       		.byte	0x60
 381 016d 6C020000 		.4byte	0x26c
 382 0171 02       		.byte	0x2
 383 0172 23       		.byte	0x23
 384 0173 14       		.uleb128 0x14
 385 0174 06       		.uleb128 0x6
 386 0175 FF030000 		.4byte	.LASF30
 387 0179 06       		.byte	0x6
 388 017a 67       		.byte	0x67
 389 017b 52040000 		.4byte	0x452
 390 017f 02       		.byte	0x2
 391 0180 23       		.byte	0x23
 392 0181 18       		.uleb128 0x18
ARM GAS  /tmp/ccRevIkM.s 			page 8


 393 0182 06       		.uleb128 0x6
 394 0183 99010000 		.4byte	.LASF31
 395 0187 06       		.byte	0x6
 396 0188 6D       		.byte	0x6d
 397 0189 64040000 		.4byte	0x464
 398 018d 02       		.byte	0x2
 399 018e 23       		.byte	0x23
 400 018f 1C       		.uleb128 0x1c
 401 0190 06       		.uleb128 0x6
 402 0191 CF020000 		.4byte	.LASF32
 403 0195 06       		.byte	0x6
 404 0196 72       		.byte	0x72
 405 0197 BC000000 		.4byte	0xbc
 406 019b 02       		.byte	0x2
 407 019c 23       		.byte	0x23
 408 019d 20       		.uleb128 0x20
 409 019e 06       		.uleb128 0x6
 410 019f 11030000 		.4byte	.LASF33
 411 01a3 06       		.byte	0x6
 412 01a4 76       		.byte	0x76
 413 01a5 B1000000 		.4byte	0xb1
 414 01a9 02       		.byte	0x2
 415 01aa 23       		.byte	0x23
 416 01ab 21       		.uleb128 0x21
 417 01ac 06       		.uleb128 0x6
 418 01ad D9030000 		.4byte	.LASF34
 419 01b1 06       		.byte	0x6
 420 01b2 7B       		.byte	0x7b
 421 01b3 C7000000 		.4byte	0xc7
 422 01b7 02       		.byte	0x2
 423 01b8 23       		.byte	0x23
 424 01b9 22       		.uleb128 0x22
 425 01ba 06       		.uleb128 0x6
 426 01bb D7020000 		.4byte	.LASF35
 427 01bf 06       		.byte	0x6
 428 01c0 81       		.byte	0x81
 429 01c1 D2000000 		.4byte	0xd2
 430 01c5 02       		.byte	0x2
 431 01c6 23       		.byte	0x23
 432 01c7 23       		.uleb128 0x23
 433 01c8 06       		.uleb128 0x6
 434 01c9 86030000 		.4byte	.LASF36
 435 01cd 06       		.byte	0x6
 436 01ce 88       		.byte	0x88
 437 01cf 68030000 		.4byte	0x368
 438 01d3 02       		.byte	0x2
 439 01d4 23       		.byte	0x23
 440 01d5 24       		.uleb128 0x24
 441 01d6 07       		.uleb128 0x7
 442 01d7 705F7500 		.ascii	"p_u\000"
 443 01db 06       		.byte	0x6
 444 01dc AD       		.byte	0xad
 445 01dd 1D040000 		.4byte	0x41d
 446 01e1 02       		.byte	0x2
 447 01e2 23       		.byte	0x23
 448 01e3 28       		.uleb128 0x28
 449 01e4 06       		.uleb128 0x6
ARM GAS  /tmp/ccRevIkM.s 			page 9


 450 01e5 1F040000 		.4byte	.LASF37
 451 01e9 06       		.byte	0x6
 452 01ea B2       		.byte	0xb2
 453 01eb 94020000 		.4byte	0x294
 454 01ef 02       		.byte	0x2
 455 01f0 23       		.byte	0x23
 456 01f1 2C       		.uleb128 0x2c
 457 01f2 06       		.uleb128 0x6
 458 01f3 A2030000 		.4byte	.LASF38
 459 01f7 06       		.byte	0x6
 460 01f8 B8       		.byte	0xb8
 461 01f9 72020000 		.4byte	0x272
 462 01fd 02       		.byte	0x2
 463 01fe 23       		.byte	0x23
 464 01ff 30       		.uleb128 0x30
 465 0200 06       		.uleb128 0x6
 466 0201 0D000000 		.4byte	.LASF39
 467 0205 06       		.byte	0x6
 468 0206 BC       		.byte	0xbc
 469 0207 E8000000 		.4byte	0xe8
 470 020b 02       		.byte	0x2
 471 020c 23       		.byte	0x23
 472 020d 38       		.uleb128 0x38
 473 020e 06       		.uleb128 0x6
 474 020f 2D030000 		.4byte	.LASF40
 475 0213 06       		.byte	0x6
 476 0214 C2       		.byte	0xc2
 477 0215 F3000000 		.4byte	0xf3
 478 0219 02       		.byte	0x2
 479 021a 23       		.byte	0x23
 480 021b 3C       		.uleb128 0x3c
 481 021c 06       		.uleb128 0x6
 482 021d BB020000 		.4byte	.LASF41
 483 0221 06       		.byte	0x6
 484 0222 C9       		.byte	0xc9
 485 0223 6A040000 		.4byte	0x46a
 486 0227 02       		.byte	0x2
 487 0228 23       		.byte	0x23
 488 0229 40       		.uleb128 0x40
 489 022a 06       		.uleb128 0x6
 490 022b 7B030000 		.4byte	.LASF42
 491 022f 06       		.byte	0x6
 492 0230 CD       		.byte	0xcd
 493 0231 DD000000 		.4byte	0xdd
 494 0235 02       		.byte	0x2
 495 0236 23       		.byte	0x23
 496 0237 44       		.uleb128 0x44
 497 0238 06       		.uleb128 0x6
 498 0239 F9000000 		.4byte	.LASF43
 499 023d 06       		.byte	0x6
 500 023e D3       		.byte	0xd3
 501 023f AA020000 		.4byte	0x2aa
 502 0243 02       		.byte	0x2
 503 0244 23       		.byte	0x23
 504 0245 48       		.uleb128 0x48
 505 0246 00       		.byte	0
 506 0247 08       		.uleb128 0x8
ARM GAS  /tmp/ccRevIkM.s 			page 10


 507 0248 08       		.byte	0x8
 508 0249 05       		.byte	0x5
 509 024a 5A       		.byte	0x5a
 510 024b 6C020000 		.4byte	0x26c
 511 024f 06       		.uleb128 0x6
 512 0250 FB020000 		.4byte	.LASF24
 513 0254 05       		.byte	0x5
 514 0255 5B       		.byte	0x5b
 515 0256 6C020000 		.4byte	0x26c
 516 025a 02       		.byte	0x2
 517 025b 23       		.byte	0x23
 518 025c 00       		.uleb128 0
 519 025d 06       		.uleb128 0x6
 520 025e 96020000 		.4byte	.LASF25
 521 0262 05       		.byte	0x5
 522 0263 5D       		.byte	0x5d
 523 0264 6C020000 		.4byte	0x26c
 524 0268 02       		.byte	0x2
 525 0269 23       		.byte	0x23
 526 026a 04       		.uleb128 0x4
 527 026b 00       		.byte	0
 528 026c 09       		.uleb128 0x9
 529 026d 04       		.byte	0x4
 530 026e 09010000 		.4byte	0x109
 531 0272 03       		.uleb128 0x3
 532 0273 5C020000 		.4byte	.LASF44
 533 0277 05       		.byte	0x5
 534 0278 5F       		.byte	0x5f
 535 0279 47020000 		.4byte	0x247
 536 027d 08       		.uleb128 0x8
 537 027e 04       		.byte	0x4
 538 027f 05       		.byte	0x5
 539 0280 64       		.byte	0x64
 540 0281 94020000 		.4byte	0x294
 541 0285 06       		.uleb128 0x6
 542 0286 FB020000 		.4byte	.LASF24
 543 028a 05       		.byte	0x5
 544 028b 66       		.byte	0x66
 545 028c 6C020000 		.4byte	0x26c
 546 0290 02       		.byte	0x2
 547 0291 23       		.byte	0x23
 548 0292 00       		.uleb128 0
 549 0293 00       		.byte	0
 550 0294 03       		.uleb128 0x3
 551 0295 07020000 		.4byte	.LASF45
 552 0299 05       		.byte	0x5
 553 029a 69       		.byte	0x69
 554 029b 7D020000 		.4byte	0x27d
 555 029f 03       		.uleb128 0x3
 556 02a0 90010000 		.4byte	.LASF46
 557 02a4 07       		.byte	0x7
 558 02a5 DE       		.byte	0xde
 559 02a6 AA020000 		.4byte	0x2aa
 560 02aa 0A       		.uleb128 0xa
 561 02ab 04       		.byte	0x4
 562 02ac 03       		.uleb128 0x3
 563 02ad 25020000 		.4byte	.LASF47
ARM GAS  /tmp/ccRevIkM.s 			page 11


 564 02b1 07       		.byte	0x7
 565 02b2 E4       		.byte	0xe4
 566 02b3 9F000000 		.4byte	0x9f
 567 02b7 0B       		.uleb128 0xb
 568 02b8 9B030000 		.4byte	.LASF48
 569 02bc 24       		.byte	0x24
 570 02bd 07       		.byte	0x7
 571 02be 0501     		.2byte	0x105
 572 02c0 45030000 		.4byte	0x345
 573 02c4 0C       		.uleb128 0xc
 574 02c5 723400   		.ascii	"r4\000"
 575 02c8 07       		.byte	0x7
 576 02c9 1801     		.2byte	0x118
 577 02cb 9F020000 		.4byte	0x29f
 578 02cf 02       		.byte	0x2
 579 02d0 23       		.byte	0x23
 580 02d1 00       		.uleb128 0
 581 02d2 0C       		.uleb128 0xc
 582 02d3 723500   		.ascii	"r5\000"
 583 02d6 07       		.byte	0x7
 584 02d7 1901     		.2byte	0x119
 585 02d9 9F020000 		.4byte	0x29f
 586 02dd 02       		.byte	0x2
 587 02de 23       		.byte	0x23
 588 02df 04       		.uleb128 0x4
 589 02e0 0C       		.uleb128 0xc
 590 02e1 723600   		.ascii	"r6\000"
 591 02e4 07       		.byte	0x7
 592 02e5 1A01     		.2byte	0x11a
 593 02e7 9F020000 		.4byte	0x29f
 594 02eb 02       		.byte	0x2
 595 02ec 23       		.byte	0x23
 596 02ed 08       		.uleb128 0x8
 597 02ee 0C       		.uleb128 0xc
 598 02ef 723700   		.ascii	"r7\000"
 599 02f2 07       		.byte	0x7
 600 02f3 1B01     		.2byte	0x11b
 601 02f5 9F020000 		.4byte	0x29f
 602 02f9 02       		.byte	0x2
 603 02fa 23       		.byte	0x23
 604 02fb 0C       		.uleb128 0xc
 605 02fc 0C       		.uleb128 0xc
 606 02fd 723800   		.ascii	"r8\000"
 607 0300 07       		.byte	0x7
 608 0301 1C01     		.2byte	0x11c
 609 0303 9F020000 		.4byte	0x29f
 610 0307 02       		.byte	0x2
 611 0308 23       		.byte	0x23
 612 0309 10       		.uleb128 0x10
 613 030a 0C       		.uleb128 0xc
 614 030b 723900   		.ascii	"r9\000"
 615 030e 07       		.byte	0x7
 616 030f 1D01     		.2byte	0x11d
 617 0311 9F020000 		.4byte	0x29f
 618 0315 02       		.byte	0x2
 619 0316 23       		.byte	0x23
 620 0317 14       		.uleb128 0x14
ARM GAS  /tmp/ccRevIkM.s 			page 12


 621 0318 0C       		.uleb128 0xc
 622 0319 72313000 		.ascii	"r10\000"
 623 031d 07       		.byte	0x7
 624 031e 1E01     		.2byte	0x11e
 625 0320 9F020000 		.4byte	0x29f
 626 0324 02       		.byte	0x2
 627 0325 23       		.byte	0x23
 628 0326 18       		.uleb128 0x18
 629 0327 0C       		.uleb128 0xc
 630 0328 72313100 		.ascii	"r11\000"
 631 032c 07       		.byte	0x7
 632 032d 1F01     		.2byte	0x11f
 633 032f 9F020000 		.4byte	0x29f
 634 0333 02       		.byte	0x2
 635 0334 23       		.byte	0x23
 636 0335 1C       		.uleb128 0x1c
 637 0336 0C       		.uleb128 0xc
 638 0337 6C7200   		.ascii	"lr\000"
 639 033a 07       		.byte	0x7
 640 033b 2001     		.2byte	0x120
 641 033d 9F020000 		.4byte	0x29f
 642 0341 02       		.byte	0x2
 643 0342 23       		.byte	0x23
 644 0343 20       		.uleb128 0x20
 645 0344 00       		.byte	0
 646 0345 0B       		.uleb128 0xb
 647 0346 DE010000 		.4byte	.LASF49
 648 034a 04       		.byte	0x4
 649 034b 07       		.byte	0x7
 650 034c 2A01     		.2byte	0x12a
 651 034e 62030000 		.4byte	0x362
 652 0352 0C       		.uleb128 0xc
 653 0353 72313300 		.ascii	"r13\000"
 654 0357 07       		.byte	0x7
 655 0358 2B01     		.2byte	0x12b
 656 035a 62030000 		.4byte	0x362
 657 035e 02       		.byte	0x2
 658 035f 23       		.byte	0x23
 659 0360 00       		.uleb128 0
 660 0361 00       		.byte	0
 661 0362 09       		.uleb128 0x9
 662 0363 04       		.byte	0x4
 663 0364 B7020000 		.4byte	0x2b7
 664 0368 0D       		.uleb128 0xd
 665 0369 FE000000 		.4byte	0xfe
 666 036d 08       		.uleb128 0x8
 667 036e 1C       		.byte	0x1c
 668 036f 08       		.byte	0x8
 669 0370 57       		.byte	0x57
 670 0371 CA030000 		.4byte	0x3ca
 671 0375 06       		.uleb128 0x6
 672 0376 4D030000 		.4byte	.LASF50
 673 037a 08       		.byte	0x8
 674 037b 58       		.byte	0x58
 675 037c 72020000 		.4byte	0x272
 676 0380 02       		.byte	0x2
 677 0381 23       		.byte	0x23
ARM GAS  /tmp/ccRevIkM.s 			page 13


 678 0382 00       		.uleb128 0
 679 0383 06       		.uleb128 0x6
 680 0384 ED020000 		.4byte	.LASF51
 681 0388 08       		.byte	0x8
 682 0389 59       		.byte	0x59
 683 038a DD000000 		.4byte	0xdd
 684 038e 02       		.byte	0x2
 685 038f 23       		.byte	0x23
 686 0390 08       		.uleb128 0x8
 687 0391 06       		.uleb128 0x6
 688 0392 8D030000 		.4byte	.LASF52
 689 0396 08       		.byte	0x8
 690 0397 5B       		.byte	0x5b
 691 0398 45030000 		.4byte	0x345
 692 039c 02       		.byte	0x2
 693 039d 23       		.byte	0x23
 694 039e 0C       		.uleb128 0xc
 695 039f 06       		.uleb128 0x6
 696 03a0 88010000 		.4byte	.LASF53
 697 03a4 08       		.byte	0x8
 698 03a5 5E       		.byte	0x5e
 699 03a6 6C020000 		.4byte	0x26c
 700 03aa 02       		.byte	0x2
 701 03ab 23       		.byte	0x23
 702 03ac 10       		.uleb128 0x10
 703 03ad 06       		.uleb128 0x6
 704 03ae 7B020000 		.4byte	.LASF54
 705 03b2 08       		.byte	0x8
 706 03b3 5F       		.byte	0x5f
 707 03b4 6C020000 		.4byte	0x26c
 708 03b8 02       		.byte	0x2
 709 03b9 23       		.byte	0x23
 710 03ba 14       		.uleb128 0x14
 711 03bb 06       		.uleb128 0x6
 712 03bc 71020000 		.4byte	.LASF55
 713 03c0 08       		.byte	0x8
 714 03c1 62       		.byte	0x62
 715 03c2 6C020000 		.4byte	0x26c
 716 03c6 02       		.byte	0x2
 717 03c7 23       		.byte	0x23
 718 03c8 18       		.uleb128 0x18
 719 03c9 00       		.byte	0
 720 03ca 03       		.uleb128 0x3
 721 03cb E0030000 		.4byte	.LASF56
 722 03cf 08       		.byte	0x8
 723 03d0 64       		.byte	0x64
 724 03d1 6D030000 		.4byte	0x36d
 725 03d5 05       		.uleb128 0x5
 726 03d6 1F020000 		.4byte	.LASF57
 727 03da 10       		.byte	0x10
 728 03db 09       		.byte	0x9
 729 03dc 25       		.byte	0x25
 730 03dd 0C040000 		.4byte	0x40c
 731 03e1 06       		.uleb128 0x6
 732 03e2 01010000 		.4byte	.LASF58
 733 03e6 09       		.byte	0x9
 734 03e7 26       		.byte	0x26
ARM GAS  /tmp/ccRevIkM.s 			page 14


 735 03e8 72020000 		.4byte	0x272
 736 03ec 02       		.byte	0x2
 737 03ed 23       		.byte	0x23
 738 03ee 00       		.uleb128 0
 739 03ef 06       		.uleb128 0x6
 740 03f0 11040000 		.4byte	.LASF59
 741 03f4 09       		.byte	0x9
 742 03f5 28       		.byte	0x28
 743 03f6 6C020000 		.4byte	0x26c
 744 03fa 02       		.byte	0x2
 745 03fb 23       		.byte	0x23
 746 03fc 08       		.uleb128 0x8
 747 03fd 06       		.uleb128 0x6
 748 03fe 6A030000 		.4byte	.LASF60
 749 0402 09       		.byte	0x9
 750 0403 2A       		.byte	0x2a
 751 0404 0C040000 		.4byte	0x40c
 752 0408 02       		.byte	0x2
 753 0409 23       		.byte	0x23
 754 040a 0C       		.uleb128 0xc
 755 040b 00       		.byte	0
 756 040c 09       		.uleb128 0x9
 757 040d 04       		.byte	0x4
 758 040e D5030000 		.4byte	0x3d5
 759 0412 03       		.uleb128 0x3
 760 0413 1F020000 		.4byte	.LASF57
 761 0417 09       		.byte	0x9
 762 0418 2C       		.byte	0x2c
 763 0419 D5030000 		.4byte	0x3d5
 764 041d 0E       		.uleb128 0xe
 765 041e 04       		.byte	0x4
 766 041f 06       		.byte	0x6
 767 0420 8F       		.byte	0x8f
 768 0421 52040000 		.4byte	0x452
 769 0425 0F       		.uleb128 0xf
 770 0426 1A000000 		.4byte	.LASF61
 771 042a 06       		.byte	0x6
 772 042b 96       		.byte	0x96
 773 042c E8000000 		.4byte	0xe8
 774 0430 0F       		.uleb128 0xf
 775 0431 94000000 		.4byte	.LASF62
 776 0435 06       		.byte	0x6
 777 0436 9D       		.byte	0x9d
 778 0437 E8000000 		.4byte	0xe8
 779 043b 0F       		.uleb128 0xf
 780 043c F8030000 		.4byte	.LASF63
 781 0440 06       		.byte	0x6
 782 0441 A4       		.byte	0xa4
 783 0442 AA020000 		.4byte	0x2aa
 784 0446 0F       		.uleb128 0xf
 785 0447 F4020000 		.4byte	.LASF64
 786 044b 06       		.byte	0x6
 787 044c AB       		.byte	0xab
 788 044d F3000000 		.4byte	0xf3
 789 0451 00       		.byte	0
 790 0452 09       		.uleb128 0x9
 791 0453 04       		.byte	0x4
ARM GAS  /tmp/ccRevIkM.s 			page 15


 792 0454 58040000 		.4byte	0x458
 793 0458 10       		.uleb128 0x10
 794 0459 5D040000 		.4byte	0x45d
 795 045d 04       		.uleb128 0x4
 796 045e 01       		.byte	0x1
 797 045f 08       		.byte	0x8
 798 0460 55030000 		.4byte	.LASF65
 799 0464 09       		.uleb128 0x9
 800 0465 04       		.byte	0x4
 801 0466 AC020000 		.4byte	0x2ac
 802 046a 09       		.uleb128 0x9
 803 046b 04       		.byte	0x4
 804 046c 12040000 		.4byte	0x412
 805 0470 08       		.uleb128 0x8
 806 0471 16       		.byte	0x16
 807 0472 0A       		.byte	0xa
 808 0473 25       		.byte	0x25
 809 0474 75050000 		.4byte	0x575
 810 0478 06       		.uleb128 0x6
 811 0479 D0010000 		.4byte	.LASF66
 812 047d 0A       		.byte	0xa
 813 047e 26       		.byte	0x26
 814 047f 75050000 		.4byte	0x575
 815 0483 02       		.byte	0x2
 816 0484 23       		.byte	0x23
 817 0485 00       		.uleb128 0
 818 0486 06       		.uleb128 0x6
 819 0487 69020000 		.4byte	.LASF67
 820 048b 0A       		.byte	0xa
 821 048c 27       		.byte	0x27
 822 048d 49000000 		.4byte	0x49
 823 0491 02       		.byte	0x2
 824 0492 23       		.byte	0x23
 825 0493 04       		.uleb128 0x4
 826 0494 06       		.uleb128 0x6
 827 0495 B1010000 		.4byte	.LASF68
 828 0499 0A       		.byte	0xa
 829 049a 28       		.byte	0x28
 830 049b 49000000 		.4byte	0x49
 831 049f 02       		.byte	0x2
 832 04a0 23       		.byte	0x23
 833 04a1 05       		.uleb128 0x5
 834 04a2 06       		.uleb128 0x6
 835 04a3 06040000 		.4byte	.LASF69
 836 04a7 0A       		.byte	0xa
 837 04a8 29       		.byte	0x29
 838 04a9 62000000 		.4byte	0x62
 839 04ad 02       		.byte	0x2
 840 04ae 23       		.byte	0x23
 841 04af 06       		.uleb128 0x6
 842 04b0 06       		.uleb128 0x6
 843 04b1 8B020000 		.4byte	.LASF70
 844 04b5 0A       		.byte	0xa
 845 04b6 2A       		.byte	0x2a
 846 04b7 49000000 		.4byte	0x49
 847 04bb 02       		.byte	0x2
 848 04bc 23       		.byte	0x23
ARM GAS  /tmp/ccRevIkM.s 			page 16


 849 04bd 08       		.uleb128 0x8
 850 04be 06       		.uleb128 0x6
 851 04bf 3C020000 		.4byte	.LASF71
 852 04c3 0A       		.byte	0xa
 853 04c4 2B       		.byte	0x2b
 854 04c5 49000000 		.4byte	0x49
 855 04c9 02       		.byte	0x2
 856 04ca 23       		.byte	0x23
 857 04cb 09       		.uleb128 0x9
 858 04cc 06       		.uleb128 0x6
 859 04cd 86000000 		.4byte	.LASF72
 860 04d1 0A       		.byte	0xa
 861 04d2 2C       		.byte	0x2c
 862 04d3 49000000 		.4byte	0x49
 863 04d7 02       		.byte	0x2
 864 04d8 23       		.byte	0x23
 865 04d9 0A       		.uleb128 0xa
 866 04da 06       		.uleb128 0x6
 867 04db 41030000 		.4byte	.LASF73
 868 04df 0A       		.byte	0xa
 869 04e0 2D       		.byte	0x2d
 870 04e1 49000000 		.4byte	0x49
 871 04e5 02       		.byte	0x2
 872 04e6 23       		.byte	0x23
 873 04e7 0B       		.uleb128 0xb
 874 04e8 06       		.uleb128 0x6
 875 04e9 CE030000 		.4byte	.LASF74
 876 04ed 0A       		.byte	0xa
 877 04ee 2E       		.byte	0x2e
 878 04ef 49000000 		.4byte	0x49
 879 04f3 02       		.byte	0x2
 880 04f4 23       		.byte	0x23
 881 04f5 0C       		.uleb128 0xc
 882 04f6 06       		.uleb128 0x6
 883 04f7 20030000 		.4byte	.LASF75
 884 04fb 0A       		.byte	0xa
 885 04fc 2F       		.byte	0x2f
 886 04fd 49000000 		.4byte	0x49
 887 0501 02       		.byte	0x2
 888 0502 23       		.byte	0x23
 889 0503 0D       		.uleb128 0xd
 890 0504 06       		.uleb128 0x6
 891 0505 00000000 		.4byte	.LASF76
 892 0509 0A       		.byte	0xa
 893 050a 30       		.byte	0x30
 894 050b 49000000 		.4byte	0x49
 895 050f 02       		.byte	0x2
 896 0510 23       		.byte	0x23
 897 0511 0E       		.uleb128 0xe
 898 0512 06       		.uleb128 0x6
 899 0513 48020000 		.4byte	.LASF77
 900 0517 0A       		.byte	0xa
 901 0518 31       		.byte	0x31
 902 0519 49000000 		.4byte	0x49
 903 051d 02       		.byte	0x2
 904 051e 23       		.byte	0x23
 905 051f 0F       		.uleb128 0xf
ARM GAS  /tmp/ccRevIkM.s 			page 17


 906 0520 06       		.uleb128 0x6
 907 0521 DC000000 		.4byte	.LASF78
 908 0525 0A       		.byte	0xa
 909 0526 32       		.byte	0x32
 910 0527 49000000 		.4byte	0x49
 911 052b 02       		.byte	0x2
 912 052c 23       		.byte	0x23
 913 052d 10       		.uleb128 0x10
 914 052e 06       		.uleb128 0x6
 915 052f B5000000 		.4byte	.LASF79
 916 0533 0A       		.byte	0xa
 917 0534 34       		.byte	0x34
 918 0535 49000000 		.4byte	0x49
 919 0539 02       		.byte	0x2
 920 053a 23       		.byte	0x23
 921 053b 11       		.uleb128 0x11
 922 053c 06       		.uleb128 0x6
 923 053d EC000000 		.4byte	.LASF80
 924 0541 0A       		.byte	0xa
 925 0542 35       		.byte	0x35
 926 0543 49000000 		.4byte	0x49
 927 0547 02       		.byte	0x2
 928 0548 23       		.byte	0x23
 929 0549 12       		.uleb128 0x12
 930 054a 06       		.uleb128 0x6
 931 054b 30020000 		.4byte	.LASF81
 932 054f 0A       		.byte	0xa
 933 0550 36       		.byte	0x36
 934 0551 49000000 		.4byte	0x49
 935 0555 02       		.byte	0x2
 936 0556 23       		.byte	0x23
 937 0557 13       		.uleb128 0x13
 938 0558 06       		.uleb128 0x6
 939 0559 02030000 		.4byte	.LASF82
 940 055d 0A       		.byte	0xa
 941 055e 37       		.byte	0x37
 942 055f 49000000 		.4byte	0x49
 943 0563 02       		.byte	0x2
 944 0564 23       		.byte	0x23
 945 0565 14       		.uleb128 0x14
 946 0566 06       		.uleb128 0x6
 947 0567 E1020000 		.4byte	.LASF83
 948 056b 0A       		.byte	0xa
 949 056c 39       		.byte	0x39
 950 056d 49000000 		.4byte	0x49
 951 0571 02       		.byte	0x2
 952 0572 23       		.byte	0x23
 953 0573 15       		.uleb128 0x15
 954 0574 00       		.byte	0
 955 0575 11       		.uleb128 0x11
 956 0576 5D040000 		.4byte	0x45d
 957 057a 85050000 		.4byte	0x585
 958 057e 12       		.uleb128 0x12
 959 057f 3B000000 		.4byte	0x3b
 960 0583 03       		.byte	0x3
 961 0584 00       		.byte	0
 962 0585 03       		.uleb128 0x3
ARM GAS  /tmp/ccRevIkM.s 			page 18


 963 0586 09010000 		.4byte	.LASF84
 964 058a 0A       		.byte	0xa
 965 058b 3A       		.byte	0x3a
 966 058c 70040000 		.4byte	0x470
 967 0590 13       		.uleb128 0x13
 968 0591 01       		.byte	0x1
 969 0592 9D000000 		.4byte	.LASF85
 970 0596 01       		.byte	0x1
 971 0597 6A       		.byte	0x6a
 972 0598 01       		.byte	0x1
 973 0599 6C020000 		.4byte	0x26c
 974 059d 00000000 		.4byte	.LFB7
 975 05a1 42000000 		.4byte	.LFE7
 976 05a5 00000000 		.4byte	.LLST0
 977 05a9 ED050000 		.4byte	0x5ed
 978 05ad 14       		.uleb128 0x14
 979 05ae 747000   		.ascii	"tp\000"
 980 05b1 01       		.byte	0x1
 981 05b2 6B       		.byte	0x6b
 982 05b3 6C020000 		.4byte	0x26c
 983 05b7 02       		.byte	0x2
 984 05b8 91       		.byte	0x91
 985 05b9 74       		.sleb128 -12
 986 05ba 15       		.uleb128 0x15
 987 05bb 04000000 		.4byte	.LBB2
 988 05bf 0C000000 		.4byte	.LBE2
 989 05c3 D5050000 		.4byte	0x5d5
 990 05c7 14       		.uleb128 0x14
 991 05c8 746D7000 		.ascii	"tmp\000"
 992 05cc 01       		.byte	0x1
 993 05cd 6D       		.byte	0x6d
 994 05ce 86000000 		.4byte	0x86
 995 05d2 01       		.byte	0x1
 996 05d3 53       		.byte	0x53
 997 05d4 00       		.byte	0
 998 05d5 16       		.uleb128 0x16
 999 05d6 32000000 		.4byte	.LBB3
 1000 05da 3A000000 		.4byte	.LBE3
 1001 05de 14       		.uleb128 0x14
 1002 05df 746D7000 		.ascii	"tmp\000"
 1003 05e3 01       		.byte	0x1
 1004 05e4 72       		.byte	0x72
 1005 05e5 86000000 		.4byte	0x86
 1006 05e9 01       		.byte	0x1
 1007 05ea 53       		.byte	0x53
 1008 05eb 00       		.byte	0
 1009 05ec 00       		.byte	0
 1010 05ed 13       		.uleb128 0x13
 1011 05ee 01       		.byte	0x1
 1012 05ef 5A030000 		.4byte	.LASF86
 1013 05f3 01       		.byte	0x1
 1014 05f4 81       		.byte	0x81
 1015 05f5 01       		.byte	0x1
 1016 05f6 6C020000 		.4byte	0x26c
 1017 05fa 00000000 		.4byte	.LFB8
 1018 05fe 70000000 		.4byte	.LFE8
 1019 0602 2C000000 		.4byte	.LLST1
ARM GAS  /tmp/ccRevIkM.s 			page 19


 1020 0606 58060000 		.4byte	0x658
 1021 060a 17       		.uleb128 0x17
 1022 060b 747000   		.ascii	"tp\000"
 1023 060e 01       		.byte	0x1
 1024 060f 81       		.byte	0x81
 1025 0610 6C020000 		.4byte	0x26c
 1026 0614 02       		.byte	0x2
 1027 0615 91       		.byte	0x91
 1028 0616 6C       		.sleb128 -20
 1029 0617 14       		.uleb128 0x14
 1030 0618 6E747000 		.ascii	"ntp\000"
 1031 061c 01       		.byte	0x1
 1032 061d 82       		.byte	0x82
 1033 061e 6C020000 		.4byte	0x26c
 1034 0622 02       		.byte	0x2
 1035 0623 91       		.byte	0x91
 1036 0624 74       		.sleb128 -12
 1037 0625 15       		.uleb128 0x15
 1038 0626 06000000 		.4byte	.LBB4
 1039 062a 0E000000 		.4byte	.LBE4
 1040 062e 40060000 		.4byte	0x640
 1041 0632 14       		.uleb128 0x14
 1042 0633 746D7000 		.ascii	"tmp\000"
 1043 0637 01       		.byte	0x1
 1044 0638 84       		.byte	0x84
 1045 0639 86000000 		.4byte	0x86
 1046 063d 01       		.byte	0x1
 1047 063e 53       		.byte	0x53
 1048 063f 00       		.byte	0
 1049 0640 16       		.uleb128 0x16
 1050 0641 5A000000 		.4byte	.LBB5
 1051 0645 62000000 		.4byte	.LBE5
 1052 0649 14       		.uleb128 0x14
 1053 064a 746D7000 		.ascii	"tmp\000"
 1054 064e 01       		.byte	0x1
 1055 064f 8F       		.byte	0x8f
 1056 0650 86000000 		.4byte	0x86
 1057 0654 01       		.byte	0x1
 1058 0655 53       		.byte	0x53
 1059 0656 00       		.byte	0
 1060 0657 00       		.byte	0
 1061 0658 18       		.uleb128 0x18
 1062 0659 EA030000 		.4byte	.LASF87
 1063 065d 08       		.byte	0x8
 1064 065e 68       		.byte	0x68
 1065 065f CA030000 		.4byte	0x3ca
 1066 0663 01       		.byte	0x1
 1067 0664 01       		.byte	0x1
 1068 0665 18       		.uleb128 0x18
 1069 0666 EA030000 		.4byte	.LASF87
 1070 066a 08       		.byte	0x8
 1071 066b 68       		.byte	0x68
 1072 066c CA030000 		.4byte	0x3ca
 1073 0670 01       		.byte	0x1
 1074 0671 01       		.byte	0x1
 1075 0672 19       		.uleb128 0x19
 1076 0673 93030000 		.4byte	.LASF88
ARM GAS  /tmp/ccRevIkM.s 			page 20


 1077 0677 01       		.byte	0x1
 1078 0678 3B       		.byte	0x3b
 1079 0679 84060000 		.4byte	0x684
 1080 067d 01       		.byte	0x1
 1081 067e 05       		.byte	0x5
 1082 067f 03       		.byte	0x3
 1083 0680 00000000 		.4byte	ch_root
 1084 0684 10       		.uleb128 0x10
 1085 0685 85050000 		.4byte	0x585
 1086 0689 00       		.byte	0
 1087              		.section	.debug_abbrev,"",%progbits
 1088              	.Ldebug_abbrev0:
 1089 0000 01       		.uleb128 0x1
 1090 0001 11       		.uleb128 0x11
 1091 0002 01       		.byte	0x1
 1092 0003 25       		.uleb128 0x25
 1093 0004 0E       		.uleb128 0xe
 1094 0005 13       		.uleb128 0x13
 1095 0006 0B       		.uleb128 0xb
 1096 0007 03       		.uleb128 0x3
 1097 0008 0E       		.uleb128 0xe
 1098 0009 1B       		.uleb128 0x1b
 1099 000a 0E       		.uleb128 0xe
 1100 000b 11       		.uleb128 0x11
 1101 000c 01       		.uleb128 0x1
 1102 000d 52       		.uleb128 0x52
 1103 000e 01       		.uleb128 0x1
 1104 000f 55       		.uleb128 0x55
 1105 0010 06       		.uleb128 0x6
 1106 0011 10       		.uleb128 0x10
 1107 0012 06       		.uleb128 0x6
 1108 0013 00       		.byte	0
 1109 0014 00       		.byte	0
 1110 0015 02       		.uleb128 0x2
 1111 0016 24       		.uleb128 0x24
 1112 0017 00       		.byte	0
 1113 0018 0B       		.uleb128 0xb
 1114 0019 0B       		.uleb128 0xb
 1115 001a 3E       		.uleb128 0x3e
 1116 001b 0B       		.uleb128 0xb
 1117 001c 03       		.uleb128 0x3
 1118 001d 08       		.uleb128 0x8
 1119 001e 00       		.byte	0
 1120 001f 00       		.byte	0
 1121 0020 03       		.uleb128 0x3
 1122 0021 16       		.uleb128 0x16
 1123 0022 00       		.byte	0
 1124 0023 03       		.uleb128 0x3
 1125 0024 0E       		.uleb128 0xe
 1126 0025 3A       		.uleb128 0x3a
 1127 0026 0B       		.uleb128 0xb
 1128 0027 3B       		.uleb128 0x3b
 1129 0028 0B       		.uleb128 0xb
 1130 0029 49       		.uleb128 0x49
 1131 002a 13       		.uleb128 0x13
 1132 002b 00       		.byte	0
 1133 002c 00       		.byte	0
ARM GAS  /tmp/ccRevIkM.s 			page 21


 1134 002d 04       		.uleb128 0x4
 1135 002e 24       		.uleb128 0x24
 1136 002f 00       		.byte	0
 1137 0030 0B       		.uleb128 0xb
 1138 0031 0B       		.uleb128 0xb
 1139 0032 3E       		.uleb128 0x3e
 1140 0033 0B       		.uleb128 0xb
 1141 0034 03       		.uleb128 0x3
 1142 0035 0E       		.uleb128 0xe
 1143 0036 00       		.byte	0
 1144 0037 00       		.byte	0
 1145 0038 05       		.uleb128 0x5
 1146 0039 13       		.uleb128 0x13
 1147 003a 01       		.byte	0x1
 1148 003b 03       		.uleb128 0x3
 1149 003c 0E       		.uleb128 0xe
 1150 003d 0B       		.uleb128 0xb
 1151 003e 0B       		.uleb128 0xb
 1152 003f 3A       		.uleb128 0x3a
 1153 0040 0B       		.uleb128 0xb
 1154 0041 3B       		.uleb128 0x3b
 1155 0042 0B       		.uleb128 0xb
 1156 0043 01       		.uleb128 0x1
 1157 0044 13       		.uleb128 0x13
 1158 0045 00       		.byte	0
 1159 0046 00       		.byte	0
 1160 0047 06       		.uleb128 0x6
 1161 0048 0D       		.uleb128 0xd
 1162 0049 00       		.byte	0
 1163 004a 03       		.uleb128 0x3
 1164 004b 0E       		.uleb128 0xe
 1165 004c 3A       		.uleb128 0x3a
 1166 004d 0B       		.uleb128 0xb
 1167 004e 3B       		.uleb128 0x3b
 1168 004f 0B       		.uleb128 0xb
 1169 0050 49       		.uleb128 0x49
 1170 0051 13       		.uleb128 0x13
 1171 0052 38       		.uleb128 0x38
 1172 0053 0A       		.uleb128 0xa
 1173 0054 00       		.byte	0
 1174 0055 00       		.byte	0
 1175 0056 07       		.uleb128 0x7
 1176 0057 0D       		.uleb128 0xd
 1177 0058 00       		.byte	0
 1178 0059 03       		.uleb128 0x3
 1179 005a 08       		.uleb128 0x8
 1180 005b 3A       		.uleb128 0x3a
 1181 005c 0B       		.uleb128 0xb
 1182 005d 3B       		.uleb128 0x3b
 1183 005e 0B       		.uleb128 0xb
 1184 005f 49       		.uleb128 0x49
 1185 0060 13       		.uleb128 0x13
 1186 0061 38       		.uleb128 0x38
 1187 0062 0A       		.uleb128 0xa
 1188 0063 00       		.byte	0
 1189 0064 00       		.byte	0
 1190 0065 08       		.uleb128 0x8
ARM GAS  /tmp/ccRevIkM.s 			page 22


 1191 0066 13       		.uleb128 0x13
 1192 0067 01       		.byte	0x1
 1193 0068 0B       		.uleb128 0xb
 1194 0069 0B       		.uleb128 0xb
 1195 006a 3A       		.uleb128 0x3a
 1196 006b 0B       		.uleb128 0xb
 1197 006c 3B       		.uleb128 0x3b
 1198 006d 0B       		.uleb128 0xb
 1199 006e 01       		.uleb128 0x1
 1200 006f 13       		.uleb128 0x13
 1201 0070 00       		.byte	0
 1202 0071 00       		.byte	0
 1203 0072 09       		.uleb128 0x9
 1204 0073 0F       		.uleb128 0xf
 1205 0074 00       		.byte	0
 1206 0075 0B       		.uleb128 0xb
 1207 0076 0B       		.uleb128 0xb
 1208 0077 49       		.uleb128 0x49
 1209 0078 13       		.uleb128 0x13
 1210 0079 00       		.byte	0
 1211 007a 00       		.byte	0
 1212 007b 0A       		.uleb128 0xa
 1213 007c 0F       		.uleb128 0xf
 1214 007d 00       		.byte	0
 1215 007e 0B       		.uleb128 0xb
 1216 007f 0B       		.uleb128 0xb
 1217 0080 00       		.byte	0
 1218 0081 00       		.byte	0
 1219 0082 0B       		.uleb128 0xb
 1220 0083 13       		.uleb128 0x13
 1221 0084 01       		.byte	0x1
 1222 0085 03       		.uleb128 0x3
 1223 0086 0E       		.uleb128 0xe
 1224 0087 0B       		.uleb128 0xb
 1225 0088 0B       		.uleb128 0xb
 1226 0089 3A       		.uleb128 0x3a
 1227 008a 0B       		.uleb128 0xb
 1228 008b 3B       		.uleb128 0x3b
 1229 008c 05       		.uleb128 0x5
 1230 008d 01       		.uleb128 0x1
 1231 008e 13       		.uleb128 0x13
 1232 008f 00       		.byte	0
 1233 0090 00       		.byte	0
 1234 0091 0C       		.uleb128 0xc
 1235 0092 0D       		.uleb128 0xd
 1236 0093 00       		.byte	0
 1237 0094 03       		.uleb128 0x3
 1238 0095 08       		.uleb128 0x8
 1239 0096 3A       		.uleb128 0x3a
 1240 0097 0B       		.uleb128 0xb
 1241 0098 3B       		.uleb128 0x3b
 1242 0099 05       		.uleb128 0x5
 1243 009a 49       		.uleb128 0x49
 1244 009b 13       		.uleb128 0x13
 1245 009c 38       		.uleb128 0x38
 1246 009d 0A       		.uleb128 0xa
 1247 009e 00       		.byte	0
ARM GAS  /tmp/ccRevIkM.s 			page 23


 1248 009f 00       		.byte	0
 1249 00a0 0D       		.uleb128 0xd
 1250 00a1 35       		.uleb128 0x35
 1251 00a2 00       		.byte	0
 1252 00a3 49       		.uleb128 0x49
 1253 00a4 13       		.uleb128 0x13
 1254 00a5 00       		.byte	0
 1255 00a6 00       		.byte	0
 1256 00a7 0E       		.uleb128 0xe
 1257 00a8 17       		.uleb128 0x17
 1258 00a9 01       		.byte	0x1
 1259 00aa 0B       		.uleb128 0xb
 1260 00ab 0B       		.uleb128 0xb
 1261 00ac 3A       		.uleb128 0x3a
 1262 00ad 0B       		.uleb128 0xb
 1263 00ae 3B       		.uleb128 0x3b
 1264 00af 0B       		.uleb128 0xb
 1265 00b0 01       		.uleb128 0x1
 1266 00b1 13       		.uleb128 0x13
 1267 00b2 00       		.byte	0
 1268 00b3 00       		.byte	0
 1269 00b4 0F       		.uleb128 0xf
 1270 00b5 0D       		.uleb128 0xd
 1271 00b6 00       		.byte	0
 1272 00b7 03       		.uleb128 0x3
 1273 00b8 0E       		.uleb128 0xe
 1274 00b9 3A       		.uleb128 0x3a
 1275 00ba 0B       		.uleb128 0xb
 1276 00bb 3B       		.uleb128 0x3b
 1277 00bc 0B       		.uleb128 0xb
 1278 00bd 49       		.uleb128 0x49
 1279 00be 13       		.uleb128 0x13
 1280 00bf 00       		.byte	0
 1281 00c0 00       		.byte	0
 1282 00c1 10       		.uleb128 0x10
 1283 00c2 26       		.uleb128 0x26
 1284 00c3 00       		.byte	0
 1285 00c4 49       		.uleb128 0x49
 1286 00c5 13       		.uleb128 0x13
 1287 00c6 00       		.byte	0
 1288 00c7 00       		.byte	0
 1289 00c8 11       		.uleb128 0x11
 1290 00c9 01       		.uleb128 0x1
 1291 00ca 01       		.byte	0x1
 1292 00cb 49       		.uleb128 0x49
 1293 00cc 13       		.uleb128 0x13
 1294 00cd 01       		.uleb128 0x1
 1295 00ce 13       		.uleb128 0x13
 1296 00cf 00       		.byte	0
 1297 00d0 00       		.byte	0
 1298 00d1 12       		.uleb128 0x12
 1299 00d2 21       		.uleb128 0x21
 1300 00d3 00       		.byte	0
 1301 00d4 49       		.uleb128 0x49
 1302 00d5 13       		.uleb128 0x13
 1303 00d6 2F       		.uleb128 0x2f
 1304 00d7 0B       		.uleb128 0xb
ARM GAS  /tmp/ccRevIkM.s 			page 24


 1305 00d8 00       		.byte	0
 1306 00d9 00       		.byte	0
 1307 00da 13       		.uleb128 0x13
 1308 00db 2E       		.uleb128 0x2e
 1309 00dc 01       		.byte	0x1
 1310 00dd 3F       		.uleb128 0x3f
 1311 00de 0C       		.uleb128 0xc
 1312 00df 03       		.uleb128 0x3
 1313 00e0 0E       		.uleb128 0xe
 1314 00e1 3A       		.uleb128 0x3a
 1315 00e2 0B       		.uleb128 0xb
 1316 00e3 3B       		.uleb128 0x3b
 1317 00e4 0B       		.uleb128 0xb
 1318 00e5 27       		.uleb128 0x27
 1319 00e6 0C       		.uleb128 0xc
 1320 00e7 49       		.uleb128 0x49
 1321 00e8 13       		.uleb128 0x13
 1322 00e9 11       		.uleb128 0x11
 1323 00ea 01       		.uleb128 0x1
 1324 00eb 12       		.uleb128 0x12
 1325 00ec 01       		.uleb128 0x1
 1326 00ed 40       		.uleb128 0x40
 1327 00ee 06       		.uleb128 0x6
 1328 00ef 01       		.uleb128 0x1
 1329 00f0 13       		.uleb128 0x13
 1330 00f1 00       		.byte	0
 1331 00f2 00       		.byte	0
 1332 00f3 14       		.uleb128 0x14
 1333 00f4 34       		.uleb128 0x34
 1334 00f5 00       		.byte	0
 1335 00f6 03       		.uleb128 0x3
 1336 00f7 08       		.uleb128 0x8
 1337 00f8 3A       		.uleb128 0x3a
 1338 00f9 0B       		.uleb128 0xb
 1339 00fa 3B       		.uleb128 0x3b
 1340 00fb 0B       		.uleb128 0xb
 1341 00fc 49       		.uleb128 0x49
 1342 00fd 13       		.uleb128 0x13
 1343 00fe 02       		.uleb128 0x2
 1344 00ff 0A       		.uleb128 0xa
 1345 0100 00       		.byte	0
 1346 0101 00       		.byte	0
 1347 0102 15       		.uleb128 0x15
 1348 0103 0B       		.uleb128 0xb
 1349 0104 01       		.byte	0x1
 1350 0105 11       		.uleb128 0x11
 1351 0106 01       		.uleb128 0x1
 1352 0107 12       		.uleb128 0x12
 1353 0108 01       		.uleb128 0x1
 1354 0109 01       		.uleb128 0x1
 1355 010a 13       		.uleb128 0x13
 1356 010b 00       		.byte	0
 1357 010c 00       		.byte	0
 1358 010d 16       		.uleb128 0x16
 1359 010e 0B       		.uleb128 0xb
 1360 010f 01       		.byte	0x1
 1361 0110 11       		.uleb128 0x11
ARM GAS  /tmp/ccRevIkM.s 			page 25


 1362 0111 01       		.uleb128 0x1
 1363 0112 12       		.uleb128 0x12
 1364 0113 01       		.uleb128 0x1
 1365 0114 00       		.byte	0
 1366 0115 00       		.byte	0
 1367 0116 17       		.uleb128 0x17
 1368 0117 05       		.uleb128 0x5
 1369 0118 00       		.byte	0
 1370 0119 03       		.uleb128 0x3
 1371 011a 08       		.uleb128 0x8
 1372 011b 3A       		.uleb128 0x3a
 1373 011c 0B       		.uleb128 0xb
 1374 011d 3B       		.uleb128 0x3b
 1375 011e 0B       		.uleb128 0xb
 1376 011f 49       		.uleb128 0x49
 1377 0120 13       		.uleb128 0x13
 1378 0121 02       		.uleb128 0x2
 1379 0122 0A       		.uleb128 0xa
 1380 0123 00       		.byte	0
 1381 0124 00       		.byte	0
 1382 0125 18       		.uleb128 0x18
 1383 0126 34       		.uleb128 0x34
 1384 0127 00       		.byte	0
 1385 0128 03       		.uleb128 0x3
 1386 0129 0E       		.uleb128 0xe
 1387 012a 3A       		.uleb128 0x3a
 1388 012b 0B       		.uleb128 0xb
 1389 012c 3B       		.uleb128 0x3b
 1390 012d 0B       		.uleb128 0xb
 1391 012e 49       		.uleb128 0x49
 1392 012f 13       		.uleb128 0x13
 1393 0130 3F       		.uleb128 0x3f
 1394 0131 0C       		.uleb128 0xc
 1395 0132 3C       		.uleb128 0x3c
 1396 0133 0C       		.uleb128 0xc
 1397 0134 00       		.byte	0
 1398 0135 00       		.byte	0
 1399 0136 19       		.uleb128 0x19
 1400 0137 34       		.uleb128 0x34
 1401 0138 00       		.byte	0
 1402 0139 03       		.uleb128 0x3
 1403 013a 0E       		.uleb128 0xe
 1404 013b 3A       		.uleb128 0x3a
 1405 013c 0B       		.uleb128 0xb
 1406 013d 3B       		.uleb128 0x3b
 1407 013e 0B       		.uleb128 0xb
 1408 013f 49       		.uleb128 0x49
 1409 0140 13       		.uleb128 0x13
 1410 0141 3F       		.uleb128 0x3f
 1411 0142 0C       		.uleb128 0xc
 1412 0143 02       		.uleb128 0x2
 1413 0144 0A       		.uleb128 0xa
 1414 0145 00       		.byte	0
 1415 0146 00       		.byte	0
 1416 0147 00       		.byte	0
 1417              		.section	.debug_loc,"",%progbits
 1418              	.Ldebug_loc0:
ARM GAS  /tmp/ccRevIkM.s 			page 26


 1419              	.LLST0:
 1420 0000 00000000 		.4byte	.LFB7
 1421 0004 02000000 		.4byte	.LCFI0
 1422 0008 0200     		.2byte	0x2
 1423 000a 7D       		.byte	0x7d
 1424 000b 00       		.sleb128 0
 1425 000c 02000000 		.4byte	.LCFI0
 1426 0010 04000000 		.4byte	.LCFI1
 1427 0014 0200     		.2byte	0x2
 1428 0016 7D       		.byte	0x7d
 1429 0017 04       		.sleb128 4
 1430 0018 04000000 		.4byte	.LCFI1
 1431 001c 42000000 		.4byte	.LFE7
 1432 0020 0200     		.2byte	0x2
 1433 0022 7D       		.byte	0x7d
 1434 0023 10       		.sleb128 16
 1435 0024 00000000 		.4byte	0
 1436 0028 00000000 		.4byte	0
 1437              	.LLST1:
 1438 002c 00000000 		.4byte	.LFB8
 1439 0030 02000000 		.4byte	.LCFI2
 1440 0034 0200     		.2byte	0x2
 1441 0036 7D       		.byte	0x7d
 1442 0037 00       		.sleb128 0
 1443 0038 02000000 		.4byte	.LCFI2
 1444 003c 04000000 		.4byte	.LCFI3
 1445 0040 0200     		.2byte	0x2
 1446 0042 7D       		.byte	0x7d
 1447 0043 04       		.sleb128 4
 1448 0044 04000000 		.4byte	.LCFI3
 1449 0048 70000000 		.4byte	.LFE8
 1450 004c 0200     		.2byte	0x2
 1451 004e 7D       		.byte	0x7d
 1452 004f 18       		.sleb128 24
 1453 0050 00000000 		.4byte	0
 1454 0054 00000000 		.4byte	0
 1455              		.section	.debug_aranges,"",%progbits
 1456 0000 24000000 		.4byte	0x24
 1457 0004 0200     		.2byte	0x2
 1458 0006 00000000 		.4byte	.Ldebug_info0
 1459 000a 04       		.byte	0x4
 1460 000b 00       		.byte	0
 1461 000c 0000     		.2byte	0
 1462 000e 0000     		.2byte	0
 1463 0010 00000000 		.4byte	.LFB7
 1464 0014 42000000 		.4byte	.LFE7-.LFB7
 1465 0018 00000000 		.4byte	.LFB8
 1466 001c 70000000 		.4byte	.LFE8-.LFB8
 1467 0020 00000000 		.4byte	0
 1468 0024 00000000 		.4byte	0
 1469              		.section	.debug_ranges,"",%progbits
 1470              	.Ldebug_ranges0:
 1471 0000 00000000 		.4byte	.LFB7
 1472 0004 42000000 		.4byte	.LFE7
 1473 0008 00000000 		.4byte	.LFB8
 1474 000c 70000000 		.4byte	.LFE8
 1475 0010 00000000 		.4byte	0
ARM GAS  /tmp/ccRevIkM.s 			page 27


 1476 0014 00000000 		.4byte	0
 1477              		.section	.debug_line,"",%progbits
 1478              	.Ldebug_line0:
 1479 0000 0E020000 		.section	.debug_str,"MS",%progbits,1
 1479      0200D101 
 1479      00000201 
 1479      FB0E0D00 
 1479      01010101 
 1480              	.LASF76:
 1481 0000 63665F6F 		.ascii	"cf_off_older\000"
 1481      66665F6F 
 1481      6C646572 
 1481      00
 1482              	.LASF39:
 1483 000d 705F6D73 		.ascii	"p_msg\000"
 1483      6700
 1484              	.LASF2:
 1485 0013 73697A65 		.ascii	"size_t\000"
 1485      5F7400
 1486              	.LASF61:
 1487 001a 7264796D 		.ascii	"rdymsg\000"
 1487      736700
 1488              	.LASF91:
 1489 0021 2F686F6D 		.ascii	"/home/texzk/ChibiStudio/chibios/demos/ARMCM3-STM32F"
 1489      652F7465 
 1489      787A6B2F 
 1489      43686962 
 1489      69537475 
 1490 0054 3230372D 		.ascii	"207-STM3220G-LWIP\000"
 1490      53544D33 
 1490      32323047 
 1490      2D4C5749 
 1490      5000
 1491              	.LASF13:
 1492 0066 75696E74 		.ascii	"uint64_t\000"
 1492      36345F74 
 1492      00
 1493              	.LASF14:
 1494 006f 6C6F6E67 		.ascii	"long long unsigned int\000"
 1494      206C6F6E 
 1494      6720756E 
 1494      7369676E 
 1494      65642069 
 1495              	.LASF72:
 1496 0086 63685F74 		.ascii	"ch_threadsize\000"
 1496      68726561 
 1496      6473697A 
 1496      6500
 1497              	.LASF62:
 1498 0094 65786974 		.ascii	"exitcode\000"
 1498      636F6465 
 1498      00
 1499              	.LASF85:
 1500 009d 63685265 		.ascii	"chRegFirstThread\000"
 1500      67466972 
 1500      73745468 
 1500      72656164 
ARM GAS  /tmp/ccRevIkM.s 			page 28


 1500      00
 1501              	.LASF26:
 1502 00ae 705F7072 		.ascii	"p_prio\000"
 1502      696F00
 1503              	.LASF79:
 1504 00b5 63665F6F 		.ascii	"cf_off_state\000"
 1504      66665F73 
 1504      74617465 
 1504      00
 1505              	.LASF12:
 1506 00c2 6C6F6E67 		.ascii	"long long int\000"
 1506      206C6F6E 
 1506      6720696E 
 1506      7400
 1507              	.LASF1:
 1508 00d0 7369676E 		.ascii	"signed char\000"
 1508      65642063 
 1508      68617200 
 1509              	.LASF78:
 1510 00dc 63665F6F 		.ascii	"cf_off_stklimit\000"
 1510      66665F73 
 1510      746B6C69 
 1510      6D697400 
 1511              	.LASF80:
 1512 00ec 63665F6F 		.ascii	"cf_off_flags\000"
 1512      66665F66 
 1512      6C616773 
 1512      00
 1513              	.LASF43:
 1514 00f9 705F6D70 		.ascii	"p_mpool\000"
 1514      6F6F6C00 
 1515              	.LASF58:
 1516 0101 6D5F7175 		.ascii	"m_queue\000"
 1516      65756500 
 1517              	.LASF84:
 1518 0109 6368726F 		.ascii	"chroot_t\000"
 1518      6F745F74 
 1518      00
 1519              	.LASF18:
 1520 0112 74736C69 		.ascii	"tslices_t\000"
 1520      6365735F 
 1520      7400
 1521              	.LASF9:
 1522 011c 6C6F6E67 		.ascii	"long int\000"
 1522      20696E74 
 1522      00
 1523              	.LASF89:
 1524 0125 474E5520 		.ascii	"GNU C 4.6.2 20120613 (release) [ARM/embedded-4_6-br"
 1524      4320342E 
 1524      362E3220 
 1524      32303132 
 1524      30363133 
 1525 0158 616E6368 		.ascii	"anch revision 188521]\000"
 1525      20726576 
 1525      6973696F 
 1525      6E203138 
 1525      38353231 
ARM GAS  /tmp/ccRevIkM.s 			page 29


 1526              	.LASF16:
 1527 016e 74737461 		.ascii	"tstate_t\000"
 1527      74655F74 
 1527      00
 1528              	.LASF6:
 1529 0177 75696E74 		.ascii	"uint16_t\000"
 1529      31365F74 
 1529      00
 1530              	.LASF28:
 1531 0180 705F6E65 		.ascii	"p_newer\000"
 1531      77657200 
 1532              	.LASF53:
 1533 0188 725F6E65 		.ascii	"r_newer\000"
 1533      77657200 
 1534              	.LASF46:
 1535 0190 72656761 		.ascii	"regarm_t\000"
 1535      726D5F74 
 1535      00
 1536              	.LASF31:
 1537 0199 705F7374 		.ascii	"p_stklimit\000"
 1537      6B6C696D 
 1537      697400
 1538              	.LASF0:
 1539 01a4 756E7369 		.ascii	"unsigned int\000"
 1539      676E6564 
 1539      20696E74 
 1539      00
 1540              	.LASF68:
 1541 01b1 63685F72 		.ascii	"ch_reserved5\000"
 1541      65736572 
 1541      76656435 
 1541      00
 1542              	.LASF11:
 1543 01be 6C6F6E67 		.ascii	"long unsigned int\000"
 1543      20756E73 
 1543      69676E65 
 1543      6420696E 
 1543      7400
 1544              	.LASF66:
 1545 01d0 63685F69 		.ascii	"ch_identifier\000"
 1545      64656E74 
 1545      69666965 
 1545      7200
 1546              	.LASF49:
 1547 01de 636F6E74 		.ascii	"context\000"
 1547      65787400 
 1548              	.LASF7:
 1549 01e6 73686F72 		.ascii	"short unsigned int\000"
 1549      7420756E 
 1549      7369676E 
 1549      65642069 
 1549      6E7400
 1550              	.LASF20:
 1551 01f9 6D73675F 		.ascii	"msg_t\000"
 1551      7400
 1552              	.LASF15:
 1553 01ff 746D6F64 		.ascii	"tmode_t\000"
ARM GAS  /tmp/ccRevIkM.s 			page 30


 1553      655F7400 
 1554              	.LASF45:
 1555 0207 54687265 		.ascii	"ThreadsList\000"
 1555      6164734C 
 1555      69737400 
 1556              	.LASF21:
 1557 0213 6576656E 		.ascii	"eventmask_t\000"
 1557      746D6173 
 1557      6B5F7400 
 1558              	.LASF57:
 1559 021f 4D757465 		.ascii	"Mutex\000"
 1559      7800
 1560              	.LASF47:
 1561 0225 73746B61 		.ascii	"stkalign_t\000"
 1561      6C69676E 
 1561      5F7400
 1562              	.LASF81:
 1563 0230 63665F6F 		.ascii	"cf_off_refs\000"
 1563      66665F72 
 1563      65667300 
 1564              	.LASF71:
 1565 023c 63685F74 		.ascii	"ch_timesize\000"
 1565      696D6573 
 1565      697A6500 
 1566              	.LASF77:
 1567 0248 63665F6F 		.ascii	"cf_off_name\000"
 1567      66665F6E 
 1567      616D6500 
 1568              	.LASF29:
 1569 0254 705F6F6C 		.ascii	"p_older\000"
 1569      64657200 
 1570              	.LASF44:
 1571 025c 54687265 		.ascii	"ThreadsQueue\000"
 1571      61647351 
 1571      75657565 
 1571      00
 1572              	.LASF67:
 1573 0269 63685F73 		.ascii	"ch_size\000"
 1573      697A6500 
 1574              	.LASF55:
 1575 0271 725F6375 		.ascii	"r_current\000"
 1575      7272656E 
 1575      7400
 1576              	.LASF54:
 1577 027b 725F6F6C 		.ascii	"r_older\000"
 1577      64657200 
 1578              	.LASF17:
 1579 0283 74726566 		.ascii	"trefs_t\000"
 1579      735F7400 
 1580              	.LASF70:
 1581 028b 63685F70 		.ascii	"ch_ptrsize\000"
 1581      74727369 
 1581      7A6500
 1582              	.LASF25:
 1583 0296 705F7072 		.ascii	"p_prev\000"
 1583      657600
 1584              	.LASF19:
ARM GAS  /tmp/ccRevIkM.s 			page 31


 1585 029d 74707269 		.ascii	"tprio_t\000"
 1585      6F5F7400 
 1586              	.LASF8:
 1587 02a5 696E7433 		.ascii	"int32_t\000"
 1587      325F7400 
 1588              	.LASF4:
 1589 02ad 756E7369 		.ascii	"unsigned char\000"
 1589      676E6564 
 1589      20636861 
 1589      7200
 1590              	.LASF41:
 1591 02bb 705F6D74 		.ascii	"p_mtxlist\000"
 1591      786C6973 
 1591      7400
 1592              	.LASF5:
 1593 02c5 73686F72 		.ascii	"short int\000"
 1593      7420696E 
 1593      7400
 1594              	.LASF32:
 1595 02cf 705F7374 		.ascii	"p_state\000"
 1595      61746500 
 1596              	.LASF35:
 1597 02d7 705F7072 		.ascii	"p_preempt\000"
 1597      65656D70 
 1597      7400
 1598              	.LASF83:
 1599 02e1 63665F6F 		.ascii	"cf_off_time\000"
 1599      66665F74 
 1599      696D6500 
 1600              	.LASF51:
 1601 02ed 725F7072 		.ascii	"r_prio\000"
 1601      696F00
 1602              	.LASF64:
 1603 02f4 65776D61 		.ascii	"ewmask\000"
 1603      736B00
 1604              	.LASF24:
 1605 02fb 705F6E65 		.ascii	"p_next\000"
 1605      787400
 1606              	.LASF82:
 1607 0302 63665F6F 		.ascii	"cf_off_preempt\000"
 1607      66665F70 
 1607      7265656D 
 1607      707400
 1608              	.LASF33:
 1609 0311 705F666C 		.ascii	"p_flags\000"
 1609      61677300 
 1610              	.LASF23:
 1611 0319 54687265 		.ascii	"Thread\000"
 1611      616400
 1612              	.LASF75:
 1613 0320 63665F6F 		.ascii	"cf_off_newer\000"
 1613      66665F6E 
 1613      65776572 
 1613      00
 1614              	.LASF40:
 1615 032d 705F6570 		.ascii	"p_epending\000"
 1615      656E6469 
ARM GAS  /tmp/ccRevIkM.s 			page 32


 1615      6E6700
 1616              	.LASF10:
 1617 0338 75696E74 		.ascii	"uint32_t\000"
 1617      33325F74 
 1617      00
 1618              	.LASF73:
 1619 0341 63665F6F 		.ascii	"cf_off_prio\000"
 1619      66665F70 
 1619      72696F00 
 1620              	.LASF50:
 1621 034d 725F7175 		.ascii	"r_queue\000"
 1621      65756500 
 1622              	.LASF65:
 1623 0355 63686172 		.ascii	"char\000"
 1623      00
 1624              	.LASF86:
 1625 035a 63685265 		.ascii	"chRegNextThread\000"
 1625      674E6578 
 1625      74546872 
 1625      65616400 
 1626              	.LASF60:
 1627 036a 6D5F6E65 		.ascii	"m_next\000"
 1627      787400
 1628              	.LASF22:
 1629 0371 73797374 		.ascii	"systime_t\000"
 1629      696D655F 
 1629      7400
 1630              	.LASF42:
 1631 037b 705F7265 		.ascii	"p_realprio\000"
 1631      616C7072 
 1631      696F00
 1632              	.LASF36:
 1633 0386 705F7469 		.ascii	"p_time\000"
 1633      6D6500
 1634              	.LASF52:
 1635 038d 725F6374 		.ascii	"r_ctx\000"
 1635      7800
 1636              	.LASF88:
 1637 0393 63685F72 		.ascii	"ch_root\000"
 1637      6F6F7400 
 1638              	.LASF48:
 1639 039b 696E7463 		.ascii	"intctx\000"
 1639      747800
 1640              	.LASF38:
 1641 03a2 705F6D73 		.ascii	"p_msgqueue\000"
 1641      67717565 
 1641      756500
 1642              	.LASF90:
 1643 03ad 2E2E2F2E 		.ascii	"../../os/kernel/src/chregistry.c\000"
 1643      2E2F6F73 
 1643      2F6B6572 
 1643      6E656C2F 
 1643      7372632F 
 1644              	.LASF74:
 1645 03ce 63665F6F 		.ascii	"cf_off_ctx\000"
 1645      66665F63 
 1645      747800
ARM GAS  /tmp/ccRevIkM.s 			page 33


 1646              	.LASF34:
 1647 03d9 705F7265 		.ascii	"p_refs\000"
 1647      667300
 1648              	.LASF56:
 1649 03e0 52656164 		.ascii	"ReadyList\000"
 1649      794C6973 
 1649      7400
 1650              	.LASF87:
 1651 03ea 726C6973 		.ascii	"rlist\000"
 1651      7400
 1652              	.LASF3:
 1653 03f0 75696E74 		.ascii	"uint8_t\000"
 1653      385F7400 
 1654              	.LASF63:
 1655 03f8 77746F62 		.ascii	"wtobjp\000"
 1655      6A7000
 1656              	.LASF30:
 1657 03ff 705F6E61 		.ascii	"p_name\000"
 1657      6D6500
 1658              	.LASF69:
 1659 0406 63685F76 		.ascii	"ch_version\000"
 1659      65727369 
 1659      6F6E00
 1660              	.LASF59:
 1661 0411 6D5F6F77 		.ascii	"m_owner\000"
 1661      6E657200 
 1662              	.LASF27:
 1663 0419 705F6374 		.ascii	"p_ctx\000"
 1663      7800
 1664              	.LASF37:
 1665 041f 705F7761 		.ascii	"p_waiting\000"
 1665      6974696E 
 1665      6700
 1666              		.ident	"GCC: (GNU Tools for ARM Embedded Processors) 4.6.2 20120613 (release) [ARM/embedded-4_6-br
ARM GAS  /tmp/ccRevIkM.s 			page 34


DEFINED SYMBOLS
                            *ABS*:00000000 chregistry.c
     /tmp/ccRevIkM.s:23     .rodata.ch_root:00000000 ch_root
     /tmp/ccRevIkM.s:20     .rodata.ch_root:00000000 $d
     /tmp/ccRevIkM.s:43     .text.chRegFirstThread:00000000 $t
     /tmp/ccRevIkM.s:49     .text.chRegFirstThread:00000000 chRegFirstThread
     /tmp/ccRevIkM.s:103    .rodata:00000000 $d
     /tmp/ccRevIkM.s:104    .rodata:00000000 .LC0
     /tmp/ccRevIkM.s:107    .text.chRegNextThread:00000000 $t
     /tmp/ccRevIkM.s:113    .text.chRegNextThread:00000000 chRegNextThread
                     .debug_frame:00000010 $d

UNDEFINED SYMBOLS
dbg_check_lock
rlist
dbg_check_unlock
chDbgPanic
chThdRelease
