ARM GAS  /tmp/ccRevIkM.s 			page 1


   1              		.syntax unified
   2              		.cpu cortex-m3
   3              		.fpu softvfp
   4              		.eabi_attribute 20, 1
   5              		.eabi_attribute 21, 1
   6              		.eabi_attribute 23, 3
   7              		.eabi_attribute 24, 1
   8              		.eabi_attribute 25, 1
   9              		.eabi_attribute 26, 1
  10              		.eabi_attribute 30, 6
  11              		.eabi_attribute 34, 1
  12              		.eabi_attribute 18, 4
  13              		.thumb
  14              		.file	"chregistry.c"
  15              		.text
  16              	.Ltext0:
  17              		.cfi_sections	.debug_frame
  18              		.global	ch_root
  19              		.section	.rodata.ch_root,"a",%progbits
  20              		.align	2
  21              		.type	ch_root, %object
  22              		.size	ch_root, 22
  23              	ch_root:
  24 0000 43485254 		.ascii	"CHRT"
  25 0004 16       		.byte	22
  26 0005 00       		.byte	0
  27 0006 4011     		.short	4416
  28 0008 04       		.byte	4
  29 0009 04       		.byte	4
  30 000a 4C       		.byte	76
  31 000b 08       		.byte	8
  32 000c 0C       		.byte	12
  33 000d 10       		.byte	16
  34 000e 14       		.byte	20
  35 000f 18       		.byte	24
  36 0010 1C       		.byte	28
  37 0011 20       		.byte	32
  38 0012 21       		.byte	33
  39 0013 22       		.byte	34
  40 0014 23       		.byte	35
  41 0015 24       		.byte	36
  42 0016 0000     		.section	.text.chRegFirstThread,"ax",%progbits
  43              		.align	2
  44              		.p2align 4,,15
  45              		.global	chRegFirstThread
  46              		.thumb
  47              		.thumb_func
  48              		.type	chRegFirstThread, %function
  49              	chRegFirstThread:
  50              	.LFB7:
  51              		.file 1 "../../os/kernel/src/chregistry.c"
  52              		.loc 1 106 0
  53              		.cfi_startproc
  54              		@ args = 0, pretend = 0, frame = 8
  55              		@ frame_needed = 0, uses_anonymous_args = 0
  56 0000 00B5     		push	{lr}
  57              	.LCFI0:
ARM GAS  /tmp/ccRevIkM.s 			page 2


  58              		.cfi_def_cfa_offset 4
  59              		.cfi_offset 14, -4
  60 0002 83B0     		sub	sp, sp, #12
  61              	.LCFI1:
  62              		.cfi_def_cfa_offset 16
  63              	.LBB2:
  64              		.loc 1 109 0
  65 0004 4FF02003 		mov	r3, #32
  66              	@ 109 "../../os/kernel/src/chregistry.c" 1
  67 0008 83F31188 		msr     BASEPRI, r3
  68              	@ 0 "" 2
  69              		.thumb
  70              	.LBE2:
  71 000c FFF7FEFF 		bl	dbg_check_lock
  72              		.loc 1 110 0
  73 0010 40F20003 		movw	r3, #:lower16:rlist
  74 0014 C0F20003 		movt	r3, #:upper16:rlist
  75 0018 1B69     		ldr	r3, [r3, #16]
  76 001a 0193     		str	r3, [sp, #4]
  77              		.loc 1 112 0
  78 001c 019B     		ldr	r3, [sp, #4]
  79 001e 93F82230 		ldrb	r3, [r3, #34]	@ zero_extendqisi2
  80 0022 03F10103 		add	r3, r3, #1
  81 0026 DAB2     		uxtb	r2, r3
  82 0028 019B     		ldr	r3, [sp, #4]
  83 002a 83F82220 		strb	r2, [r3, #34]
  84              		.loc 1 114 0
  85 002e FFF7FEFF 		bl	dbg_check_unlock
  86              	.LBB3:
  87 0032 4FF00003 		mov	r3, #0
  88              	@ 114 "../../os/kernel/src/chregistry.c" 1
  89 0036 83F31188 		msr     BASEPRI, r3
  90              	@ 0 "" 2
  91              		.thumb
  92              	.LBE3:
  93              		.loc 1 115 0
  94 003a 019B     		ldr	r3, [sp, #4]
  95              		.loc 1 116 0
  96 003c 1846     		mov	r0, r3
  97 003e 03B0     		add	sp, sp, #12
  98 0040 00BD     		pop	{pc}
  99              		.cfi_endproc
 100              	.LFE7:
 101              		.size	chRegFirstThread, .-chRegFirstThread
 102 0042 00BFAFF3 		.section	.rodata
 102      0080AFF3 
 102      0080AFF3 
 102      0080
 103              		.align	2
 104              	.LC0:
 105 0000 63685265 		.ascii	"chRegNextThread(), #1\000"
 105      674E6578 
 105      74546872 
 105      65616428 
 105      292C2023 
 106 0016 0000     		.section	.text.chRegNextThread,"ax",%progbits
 107              		.align	2
ARM GAS  /tmp/ccRevIkM.s 			page 3


 108              		.p2align 4,,15
 109              		.global	chRegNextThread
 110              		.thumb
 111              		.thumb_func
 112              		.type	chRegNextThread, %function
 113              	chRegNextThread:
 114              	.LFB8:
 115              		.loc 1 129 0
 116              		.cfi_startproc
 117              		@ args = 0, pretend = 0, frame = 16
 118              		@ frame_needed = 0, uses_anonymous_args = 0
 119 0000 00B5     		push	{lr}
 120              	.LCFI2:
 121              		.cfi_def_cfa_offset 4
 122              		.cfi_offset 14, -4
 123 0002 85B0     		sub	sp, sp, #20
 124              	.LCFI3:
 125              		.cfi_def_cfa_offset 24
 126 0004 0190     		str	r0, [sp, #4]
 127              	.LBB4:
 128              		.loc 1 132 0
 129 0006 4FF02003 		mov	r3, #32
 130              	@ 132 "../../os/kernel/src/chregistry.c" 1
 131 000a 83F31188 		msr     BASEPRI, r3
 132              	@ 0 "" 2
 133              		.thumb
 134              	.LBE4:
 135 000e FFF7FEFF 		bl	dbg_check_lock
 136              		.loc 1 133 0
 137 0012 019B     		ldr	r3, [sp, #4]
 138 0014 1B69     		ldr	r3, [r3, #16]
 139 0016 0393     		str	r3, [sp, #12]
 140              		.loc 1 134 0
 141 0018 039A     		ldr	r2, [sp, #12]
 142 001a 40F20003 		movw	r3, #:lower16:rlist
 143 001e C0F20003 		movt	r3, #:upper16:rlist
 144 0022 9A42     		cmp	r2, r3
 145 0024 03D1     		bne	.L3
 146              		.loc 1 135 0
 147 0026 4FF00003 		mov	r3, #0
 148 002a 0393     		str	r3, [sp, #12]
 149 002c 13E0     		b	.L4
 150              	.L3:
 151              		.loc 1 138 0
 152 002e 039B     		ldr	r3, [sp, #12]
 153 0030 93F82230 		ldrb	r3, [r3, #34]	@ zero_extendqisi2
 154 0034 FF2B     		cmp	r3, #255
 155 0036 05D1     		bne	.L5
 156              		.loc 1 138 0 is_stmt 0 discriminator 1
 157 0038 40F20000 		movw	r0, #:lower16:.LC0
 158 003c C0F20000 		movt	r0, #:upper16:.LC0
 159 0040 FFF7FEFF 		bl	chDbgPanic
 160              	.L5:
 161              		.loc 1 140 0 is_stmt 1
 162 0044 039B     		ldr	r3, [sp, #12]
 163 0046 93F82230 		ldrb	r3, [r3, #34]	@ zero_extendqisi2
 164 004a 03F10103 		add	r3, r3, #1
ARM GAS  /tmp/ccRevIkM.s 			page 4


 165 004e DAB2     		uxtb	r2, r3
 166 0050 039B     		ldr	r3, [sp, #12]
 167 0052 83F82220 		strb	r2, [r3, #34]
 168              	.L4:
 169              		.loc 1 143 0
 170 0056 FFF7FEFF 		bl	dbg_check_unlock
 171              	.LBB5:
 172 005a 4FF00003 		mov	r3, #0
 173              	@ 143 "../../os/kernel/src/chregistry.c" 1
 174 005e 83F31188 		msr     BASEPRI, r3
 175              	@ 0 "" 2
 176              		.thumb
 177              	.LBE5:
 178              		.loc 1 145 0
 179 0062 0198     		ldr	r0, [sp, #4]
 180 0064 FFF7FEFF 		bl	chThdRelease
 181              		.loc 1 147 0
 182 0068 039B     		ldr	r3, [sp, #12]
 183              		.loc 1 148 0
 184 006a 1846     		mov	r0, r3
 185 006c 05B0     		add	sp, sp, #20
 186 006e 00BD     		pop	{pc}
 187              		.cfi_endproc
 188              	.LFE8:
 189              		.size	chRegNextThread, .-chRegNextThread
 190              		.text
 191              	.Letext0:
 192              		.file 2 "/home/texzk/ChibiStudio/tools/GNU Tools ARM Embedded/4.6 2012q2/bin/../lib/gcc/arm-none-e
 193              		.file 3 "/home/texzk/ChibiStudio/tools/GNU Tools ARM Embedded/4.6 2012q2/bin/../lib/gcc/arm-none-e
 194              		.file 4 "../../os/ports/GCC/ARMCMx/chtypes.h"
 195              		.file 5 "../../os/kernel/include/chlists.h"
 196              		.file 6 "../../os/kernel/include/chthreads.h"
 197              		.file 7 "../../os/ports/GCC/ARMCMx/chcore_v7m.h"
 198              		.file 8 "../../os/kernel/include/chschd.h"
 199              		.file 9 "../../os/kernel/include/chmtx.h"
 200              		.file 10 "../../os/kernel/include/chregistry.h"