ARM GAS  /tmp/ccnFBhij.s 			page 1


   1              		.syntax unified
   2              		.cpu cortex-m3
   3              		.fpu softvfp
   4              		.eabi_attribute 20, 1
   5              		.eabi_attribute 21, 1
   6              		.eabi_attribute 23, 3
   7              		.eabi_attribute 24, 1
   8              		.eabi_attribute 25, 1
   9              		.eabi_attribute 26, 1
  10              		.eabi_attribute 30, 6
  11              		.eabi_attribute 34, 1
  12              		.eabi_attribute 18, 4
  13              		.thumb
  14              		.file	"chsys.c"
  15              		.text
  16              	.Ltext0:
  17              		.cfi_sections	.debug_frame
  18              		.global	_idle_thread_wa
  19              		.section	.bss._idle_thread_wa,"aw",%nobits
  20              		.align	3
  21              		.type	_idle_thread_wa, %object
  22              		.size	_idle_thread_wa, 192
  23              	_idle_thread_wa:
  24 0000 00000000 		.space	192
  24      00000000 
  24      00000000 
  24      00000000 
  24      00000000 
  25              		.section	.rodata
  26              		.align	2
  27              	.LC0:
  28 0000 69646C65 		.ascii	"idle\000"
  28      00
  29              		.section	.text._idle_thread,"ax",%progbits
  30              		.align	2
  31              		.p2align 4,,15
  32              		.global	_idle_thread
  33              		.thumb
  34              		.thumb_func
  35              		.type	_idle_thread, %function
  36              	_idle_thread:
  37              	.LFB7:
  38              		.file 1 "../../os/kernel/src/chsys.c"
  39              		.loc 1 54 0
  40              		.cfi_startproc
  41              		@ args = 0, pretend = 0, frame = 8
  42              		@ frame_needed = 0, uses_anonymous_args = 0
  43              		@ link register save eliminated.
  44 0000 82B0     		sub	sp, sp, #8
  45              	.LCFI0:
  46              		.cfi_def_cfa_offset 8
  47 0002 0190     		str	r0, [sp, #4]
  48              		.loc 1 57 0
  49 0004 40F20003 		movw	r3, #:lower16:rlist
  50 0008 C0F20003 		movt	r3, #:upper16:rlist
  51 000c 9A69     		ldr	r2, [r3, #24]
  52 000e 40F20003 		movw	r3, #:lower16:.LC0
ARM GAS  /tmp/ccnFBhij.s 			page 2


  53 0012 C0F20003 		movt	r3, #:upper16:.LC0
  54 0016 9361     		str	r3, [r2, #24]
  55              	.L2:
  56              		.loc 1 61 0 discriminator 1
  57 0018 FEE7     		b	.L2
  58              		.cfi_endproc
  59              	.LFE7:
  60              		.size	_idle_thread, .-_idle_thread
  61 001a 00BFAFF3 		.section	.rodata
  61      0080
  62 0005 000000   		.align	2
  63              	.LC1:
  64 0008 6D61696E 		.ascii	"main\000"
  64      00
  65 000d 000000   		.section	.text.chSysInit,"ax",%progbits
  66              		.align	2
  67              		.p2align 4,,15
  68              		.global	chSysInit
  69              		.thumb
  70              		.thumb_func
  71              		.type	chSysInit, %function
  72              	chSysInit:
  73              	.LFB8:
  74              		.loc 1 77 0
  75              		.cfi_startproc
  76              		@ args = 0, pretend = 0, frame = 0
  77              		@ frame_needed = 0, uses_anonymous_args = 0
  78 0000 00B5     		push	{lr}
  79              	.LCFI1:
  80              		.cfi_def_cfa_offset 4
  81              		.cfi_offset 14, -4
  82 0002 83B0     		sub	sp, sp, #12
  83              	.LCFI2:
  84              		.cfi_def_cfa_offset 16
  85              		.loc 1 83 0
  86 0004 FFF7FEFF 		bl	_port_init
  87              		.loc 1 84 0
  88 0008 FFF7FEFF 		bl	_scheduler_init
  89              		.loc 1 85 0
  90 000c FFF7FEFF 		bl	_vt_init
  91              		.loc 1 87 0
  92 0010 FFF7FEFF 		bl	_core_init
  93              		.loc 1 90 0
  94 0014 FFF7FEFF 		bl	_heap_init
  95              		.loc 1 93 0
  96 0018 FFF7FEFF 		bl	_trace_init
  97              		.loc 1 97 0
  98 001c 40F20000 		movw	r0, #:lower16:mainthread.4684
  99 0020 C0F20000 		movt	r0, #:upper16:mainthread.4684
 100 0024 4FF04001 		mov	r1, #64
 101 0028 FFF7FEFF 		bl	_thread_init
 102 002c 0246     		mov	r2, r0
 103 002e 40F20003 		movw	r3, #:lower16:rlist
 104 0032 C0F20003 		movt	r3, #:upper16:rlist
 105 0036 9A61     		str	r2, [r3, #24]
 106              		.loc 1 98 0
 107 0038 40F20003 		movw	r3, #:lower16:rlist
ARM GAS  /tmp/ccnFBhij.s 			page 3


 108 003c C0F20003 		movt	r3, #:upper16:rlist
 109 0040 9B69     		ldr	r3, [r3, #24]
 110 0042 4FF00102 		mov	r2, #1
 111 0046 83F82020 		strb	r2, [r3, #32]
 112              		.loc 1 102 0
 113 004a 40F20003 		movw	r3, #:lower16:rlist
 114 004e C0F20003 		movt	r3, #:upper16:rlist
 115 0052 9A69     		ldr	r2, [r3, #24]
 116 0054 40F20003 		movw	r3, #:lower16:__main_thread_stack_base__
 117 0058 C0F20003 		movt	r3, #:upper16:__main_thread_stack_base__
 118 005c D361     		str	r3, [r2, #28]
 119              		.loc 1 104 0
 120 005e FFF7FEFF 		bl	dbg_check_enable
 121              	.LBB2:
 122 0062 4FF00003 		mov	r3, #0
 123              	@ 104 "../../os/kernel/src/chsys.c" 1
 124 0066 83F31188 		msr     BASEPRI, r3                    
 125 006a 62B6     		cpsie   i
 126              	@ 0 "" 2
 127              		.thumb
 128              	.LBE2:
 129              		.loc 1 106 0
 130 006c 40F20003 		movw	r3, #:lower16:rlist
 131 0070 C0F20003 		movt	r3, #:upper16:rlist
 132 0074 9A69     		ldr	r2, [r3, #24]
 133 0076 40F20003 		movw	r3, #:lower16:.LC1
 134 007a C0F20003 		movt	r3, #:upper16:.LC1
 135 007e 9361     		str	r3, [r2, #24]
 136              		.loc 1 112 0
 137 0080 40F20003 		movw	r3, #:lower16:_idle_thread
 138 0084 C0F20003 		movt	r3, #:upper16:_idle_thread
 139 0088 4FF00002 		mov	r2, #0
 140 008c 0092     		str	r2, [sp, #0]
 141 008e 40F20000 		movw	r0, #:lower16:_idle_thread_wa
 142 0092 C0F20000 		movt	r0, #:upper16:_idle_thread_wa
 143 0096 4FF0C001 		mov	r1, #192
 144 009a 4FF00102 		mov	r2, #1
 145 009e FFF7FEFF 		bl	chThdCreateStatic
 146              		.loc 1 115 0
 147 00a2 03B0     		add	sp, sp, #12
 148 00a4 00BD     		pop	{pc}
 149              		.cfi_endproc
 150              	.LFE8:
 151              		.size	chSysInit, .-chSysInit
 152 00a6 00BFAFF3 		.section	.text.chSysTimerHandlerI,"ax",%progbits
 152      0080AFF3 
 152      0080
 153              		.align	2
 154              		.p2align 4,,15
 155              		.global	chSysTimerHandlerI
 156              		.thumb
 157              		.thumb_func
 158              		.type	chSysTimerHandlerI, %function
 159              	chSysTimerHandlerI:
 160              	.LFB9:
 161              		.loc 1 128 0
 162              		.cfi_startproc
ARM GAS  /tmp/ccnFBhij.s 			page 4


 163              		@ args = 0, pretend = 0, frame = 8
 164              		@ frame_needed = 0, uses_anonymous_args = 0
 165 0000 00B5     		push	{lr}
 166              	.LCFI3:
 167              		.cfi_def_cfa_offset 4
 168              		.cfi_offset 14, -4
 169 0002 83B0     		sub	sp, sp, #12
 170              	.LCFI4:
 171              		.cfi_def_cfa_offset 16
 172              		.loc 1 130 0
 173 0004 FFF7FEFF 		bl	chDbgCheckClassI
 174              		.loc 1 134 0
 175 0008 40F20003 		movw	r3, #:lower16:rlist
 176 000c C0F20003 		movt	r3, #:upper16:rlist
 177 0010 9B69     		ldr	r3, [r3, #24]
 178 0012 93F82330 		ldrb	r3, [r3, #35]	@ zero_extendqisi2
 179 0016 002B     		cmp	r3, #0
 180 0018 0BD0     		beq	.L5
 181              		.loc 1 136 0
 182 001a 40F20003 		movw	r3, #:lower16:rlist
 183 001e C0F20003 		movt	r3, #:upper16:rlist
 184 0022 9B69     		ldr	r3, [r3, #24]
 185 0024 93F82320 		ldrb	r2, [r3, #35]	@ zero_extendqisi2
 186 0028 02F1FF32 		add	r2, r2, #-1
 187 002c D2B2     		uxtb	r2, r2
 188 002e 83F82320 		strb	r2, [r3, #35]
 189              	.L5:
 190              		.loc 1 139 0
 191 0032 40F20003 		movw	r3, #:lower16:rlist
 192 0036 C0F20003 		movt	r3, #:upper16:rlist
 193 003a 9B69     		ldr	r3, [r3, #24]
 194 003c 5A6A     		ldr	r2, [r3, #36]
 195 003e 02F10102 		add	r2, r2, #1
 196 0042 5A62     		str	r2, [r3, #36]
 197              		.loc 1 141 0
 198 0044 40F20003 		movw	r3, #:lower16:vtlist
 199 0048 C0F20003 		movt	r3, #:upper16:vtlist
 200 004c DB68     		ldr	r3, [r3, #12]
 201 004e 03F10102 		add	r2, r3, #1
 202 0052 40F20003 		movw	r3, #:lower16:vtlist
 203 0056 C0F20003 		movt	r3, #:upper16:vtlist
 204 005a DA60     		str	r2, [r3, #12]
 205 005c 40F20003 		movw	r3, #:lower16:vtlist
 206 0060 C0F20003 		movt	r3, #:upper16:vtlist
 207 0064 1A68     		ldr	r2, [r3, #0]
 208 0066 40F20003 		movw	r3, #:lower16:vtlist
 209 006a C0F20003 		movt	r3, #:upper16:vtlist
 210 006e 9A42     		cmp	r2, r3
 211 0070 39D0     		beq	.L4
 212              	.LBB3:
 213              		.loc 1 141 0 is_stmt 0 discriminator 1
 214 0072 40F20003 		movw	r3, #:lower16:vtlist
 215 0076 C0F20003 		movt	r3, #:upper16:vtlist
 216 007a 1B68     		ldr	r3, [r3, #0]
 217 007c 9A68     		ldr	r2, [r3, #8]
 218 007e 02F1FF32 		add	r2, r2, #-1
 219 0082 9A60     		str	r2, [r3, #8]
ARM GAS  /tmp/ccnFBhij.s 			page 5


 220 0084 25E0     		b	.L7
 221              	.L8:
 222              	.LBB4:
 223              		.loc 1 141 0 discriminator 3
 224 0086 019B     		ldr	r3, [sp, #4]
 225 0088 DB68     		ldr	r3, [r3, #12]
 226 008a 0093     		str	r3, [sp, #0]
 227 008c 019B     		ldr	r3, [sp, #4]
 228 008e 4FF00002 		mov	r2, #0
 229 0092 DA60     		str	r2, [r3, #12]
 230 0094 019B     		ldr	r3, [sp, #4]
 231 0096 1A68     		ldr	r2, [r3, #0]
 232 0098 40F20003 		movw	r3, #:lower16:vtlist
 233 009c C0F20003 		movt	r3, #:upper16:vtlist
 234 00a0 5360     		str	r3, [r2, #4]
 235 00a2 019B     		ldr	r3, [sp, #4]
 236 00a4 1A68     		ldr	r2, [r3, #0]
 237 00a6 40F20003 		movw	r3, #:lower16:vtlist
 238 00aa C0F20003 		movt	r3, #:upper16:vtlist
 239 00ae 1A60     		str	r2, [r3, #0]
 240 00b0 FFF7FEFF 		bl	dbg_check_unlock_from_isr
 241              	.LBB5:
 242 00b4 4FF00003 		mov	r3, #0
 243              	@ 141 "../../os/kernel/src/chsys.c" 1
 244 00b8 83F31188 		msr     BASEPRI, r3
 245              	@ 0 "" 2
 246              		.thumb
 247              	.LBE5:
 248 00bc 019B     		ldr	r3, [sp, #4]
 249 00be 1A69     		ldr	r2, [r3, #16]
 250 00c0 009B     		ldr	r3, [sp, #0]
 251 00c2 1046     		mov	r0, r2
 252 00c4 9847     		blx	r3
 253              	.LBB6:
 254 00c6 4FF02003 		mov	r3, #32
 255              	@ 141 "../../os/kernel/src/chsys.c" 1
 256 00ca 83F31188 		msr     BASEPRI, r3
 257              	@ 0 "" 2
 258              		.thumb
 259              	.LBE6:
 260 00ce FFF7FEFF 		bl	dbg_check_lock_from_isr
 261              	.L7:
 262              	.LBE4:
 263              		.loc 1 141 0 discriminator 2
 264 00d2 40F20003 		movw	r3, #:lower16:vtlist
 265 00d6 C0F20003 		movt	r3, #:upper16:vtlist
 266 00da 1B68     		ldr	r3, [r3, #0]
 267 00dc 0193     		str	r3, [sp, #4]
 268 00de 019B     		ldr	r3, [sp, #4]
 269 00e0 9B68     		ldr	r3, [r3, #8]
 270 00e2 002B     		cmp	r3, #0
 271 00e4 CFD0     		beq	.L8
 272              	.L4:
 273              	.LBE3:
 274              		.loc 1 145 0 is_stmt 1
 275 00e6 03B0     		add	sp, sp, #12
 276 00e8 00BD     		pop	{pc}
ARM GAS  /tmp/ccnFBhij.s 			page 6


 277              		.cfi_endproc
 278              	.LFE9:
 279              		.size	chSysTimerHandlerI, .-chSysTimerHandlerI
 280 00ea 00BFAFF3 		.section	.bss.mainthread.4684,"aw",%nobits
 280      0080
 281              		.align	2
 282              		.type	mainthread.4684, %object
 283              		.size	mainthread.4684, 76
 284              	mainthread.4684:
 285 0000 00000000 		.space	76
 285      00000000 
 285      00000000 
 285      00000000 
 285      00000000 
 286              		.text
 287              	.Letext0:
 288              		.file 2 "/home/texzk/ChibiStudio/tools/GNU Tools ARM Embedded/4.6 2012q2/bin/../lib/gcc/arm-none-e
 289              		.file 3 "../../os/ports/GCC/ARMCMx/chtypes.h"
 290              		.file 4 "../../os/kernel/include/chlists.h"
 291              		.file 5 "../../os/kernel/include/chthreads.h"
 292              		.file 6 "../../os/ports/GCC/ARMCMx/chcore_v7m.h"
 293              		.file 7 "../../os/kernel/include/chvt.h"
 294              		.file 8 "../../os/kernel/include/chschd.h"
 295              		.file 9 "../../os/kernel/include/chmtx.h"
 296              		.file 10 "../../os/kernel/include/ch.h"