ARM GAS  /tmp/ccuUWFpb.s 			page 1


   1              		.syntax unified
   2              		.cpu cortex-m3
   3              		.fpu softvfp
   4              		.eabi_attribute 20, 1
   5              		.eabi_attribute 21, 1
   6              		.eabi_attribute 23, 3
   7              		.eabi_attribute 24, 1
   8              		.eabi_attribute 25, 1
   9              		.eabi_attribute 26, 1
  10              		.eabi_attribute 30, 6
  11              		.eabi_attribute 34, 1
  12              		.eabi_attribute 18, 4
  13              		.thumb
  14              		.file	"crt0.c"
  15              		.text
  16              	.Ltext0:
  17              		.cfi_sections	.debug_frame
  18              		.section	.text.__early_init,"ax",%progbits
  19              		.align	2
  20              		.p2align 4,,15
  21              		.weak	__early_init
  22              		.thumb
  23              		.thumb_func
  24              		.type	__early_init, %function
  25              	__early_init:
  26              	.LFB7:
  27              		.file 1 "../../os/ports/GCC/ARMCMx/crt0.c"
  28              		.loc 1 202 0
  29              		.cfi_startproc
  30              		@ args = 0, pretend = 0, frame = 0
  31              		@ frame_needed = 0, uses_anonymous_args = 0
  32              		@ link register save eliminated.
  33              		.loc 1 202 0
  34 0000 7047     		bx	lr
  35              		.cfi_endproc
  36              	.LFE7:
  37              		.size	__early_init, .-__early_init
  38 0002 00BFAFF3 		.section	.text.__late_init,"ax",%progbits
  38      0080AFF3 
  38      0080AFF3 
  38      0080
  39              		.align	2
  40              		.p2align 4,,15
  41              		.weak	__late_init
  42              		.thumb
  43              		.thumb_func
  44              		.type	__late_init, %function
  45              	__late_init:
  46              	.LFB8:
  47              		.loc 1 214 0
  48              		.cfi_startproc
  49              		@ args = 0, pretend = 0, frame = 0
  50              		@ frame_needed = 0, uses_anonymous_args = 0
  51              		@ link register save eliminated.
  52              		.loc 1 214 0
  53 0000 7047     		bx	lr
  54              		.cfi_endproc
ARM GAS  /tmp/ccuUWFpb.s 			page 2


  55              	.LFE8:
  56              		.size	__late_init, .-__late_init
  57 0002 00BFAFF3 		.section	.text._default_exit,"ax",%progbits
  57      0080AFF3 
  57      0080AFF3 
  57      0080
  58              		.align	2
  59              		.p2align 4,,15
  60              		.weak	_default_exit
  61              		.thumb
  62              		.thumb_func
  63              		.type	_default_exit, %function
  64              	_default_exit:
  65              	.LFB9:
  66              		.loc 1 225 0
  67              		.cfi_startproc
  68              		@ Naked Function: prologue and epilogue provided by programmer.
  69              		@ args = 0, pretend = 0, frame = 0
  70              		@ frame_needed = 0, uses_anonymous_args = 0
  71              	.L4:
  72              		.loc 1 227 0 discriminator 1
  73 0000 FEE7     		b	.L4
  74              		.cfi_endproc
  75              	.LFE9:
  76              		.size	_default_exit, .-_default_exit
  77 0002 00BFAFF3 		.section	.text.fill32,"ax",%progbits
  77      0080AFF3 
  77      0080AFF3 
  77      0080
  78              		.align	2
  79              		.p2align 4,,15
  80              		.thumb
  81              		.thumb_func
  82              		.type	fill32, %function
  83              	fill32:
  84              	.LFB10:
  85              		.loc 1 237 0
  86              		.cfi_startproc
  87              		@ args = 0, pretend = 0, frame = 16
  88              		@ frame_needed = 0, uses_anonymous_args = 0
  89              		@ link register save eliminated.
  90 0000 84B0     		sub	sp, sp, #16
  91              	.LCFI0:
  92              		.cfi_def_cfa_offset 16
  93 0002 0390     		str	r0, [sp, #12]
  94 0004 0291     		str	r1, [sp, #8]
  95 0006 0192     		str	r2, [sp, #4]
  96              		.loc 1 239 0
  97 0008 06E0     		b	.L6
  98              	.L7:
  99              		.loc 1 240 0
 100 000a 039B     		ldr	r3, [sp, #12]
 101 000c 019A     		ldr	r2, [sp, #4]
 102 000e 1A60     		str	r2, [r3, #0]
 103 0010 039B     		ldr	r3, [sp, #12]
 104 0012 03F10403 		add	r3, r3, #4
 105 0016 0393     		str	r3, [sp, #12]
ARM GAS  /tmp/ccuUWFpb.s 			page 3


 106              	.L6:
 107              		.loc 1 239 0 discriminator 1
 108 0018 039A     		ldr	r2, [sp, #12]
 109 001a 029B     		ldr	r3, [sp, #8]
 110 001c 9A42     		cmp	r2, r3
 111 001e F4D3     		bcc	.L7
 112              		.loc 1 241 0
 113 0020 04B0     		add	sp, sp, #16
 114 0022 7047     		bx	lr
 115              		.cfi_endproc
 116              	.LFE10:
 117              		.size	fill32, .-fill32
 118 0024 AFF30080 		.section	.text.ResetHandler,"ax",%progbits
 118      AFF30080 
 118      AFF30080 
 119              		.align	2
 120              		.p2align 4,,15
 121              		.global	ResetHandler
 122              		.thumb
 123              		.thumb_func
 124              		.type	ResetHandler, %function
 125              	ResetHandler:
 126              	.LFB11:
 127              		.loc 1 249 0
 128              		.cfi_startproc
 129              		@ Naked Function: prologue and epilogue provided by programmer.
 130              		@ args = 0, pretend = 0, frame = 0
 131              		@ frame_needed = 0, uses_anonymous_args = 0
 132              		.loc 1 255 0
 133              	@ 255 "../../os/ports/GCC/ARMCMx/crt0.c" 1
 134 0000 72B6     		cpsid   i
 135              	@ 0 "" 2
 136              		.loc 1 256 0
 137              		.thumb
 138 0002 40F20004 		movw	r4, #:lower16:__process_stack_end__
 139 0006 C0F20004 		movt	r4, #:upper16:__process_stack_end__
 140              		.loc 1 257 0
 141              	@ 257 "../../os/ports/GCC/ARMCMx/crt0.c" 1
 142 000a 84F30988 		msr     PSP, r4
 143              	@ 0 "" 2
 144              		.loc 1 275 0
 145              		.thumb
 146 000e 4FF00204 		mov	r4, #2
 147              		.loc 1 277 0
 148              	@ 277 "../../os/ports/GCC/ARMCMx/crt0.c" 1
 149 0012 84F31488 		msr     CONTROL, r4
 150              	@ 0 "" 2
 151              		.loc 1 278 0
 152              	@ 278 "../../os/ports/GCC/ARMCMx/crt0.c" 1
 153 0016 BFF36F8F 		isb
 154              	@ 0 "" 2
 155              		.loc 1 281 0
 156              		.thumb
 157 001a FFF7FEFF 		bl	__early_init
 158              		.loc 1 285 0
 159 001e 40F20000 		movw	r0, #:lower16:__main_stack_base__
 160 0022 C0F20000 		movt	r0, #:upper16:__main_stack_base__
ARM GAS  /tmp/ccuUWFpb.s 			page 4


 161 0026 40F20001 		movw	r1, #:lower16:__main_stack_end__
 162 002a C0F20001 		movt	r1, #:upper16:__main_stack_end__
 163 002e 4FF05532 		mov	r2, #1431655765
 164 0032 FFF7FEFF 		bl	fill32
 165              		.loc 1 288 0
 166 0036 40F20000 		movw	r0, #:lower16:__process_stack_base__
 167 003a C0F20000 		movt	r0, #:upper16:__process_stack_base__
 168 003e 40F20001 		movw	r1, #:lower16:__process_stack_end__
 169 0042 C0F20001 		movt	r1, #:upper16:__process_stack_end__
 170 0046 4FF05532 		mov	r2, #1431655765
 171 004a FFF7FEFF 		bl	fill32
 172              	.LBB2:
 173              		.loc 1 298 0
 174 004e 40F20005 		movw	r5, #:lower16:_textdata
 175 0052 C0F20005 		movt	r5, #:upper16:_textdata
 176              		.loc 1 299 0
 177 0056 40F20004 		movw	r4, #:lower16:_data
 178 005a C0F20004 		movt	r4, #:upper16:_data
 179              		.loc 1 300 0
 180 005e 05E0     		b	.L9
 181              	.L10:
 182              		.loc 1 301 0
 183 0060 2B68     		ldr	r3, [r5, #0]
 184 0062 2360     		str	r3, [r4, #0]
 185 0064 04F10404 		add	r4, r4, #4
 186 0068 05F10405 		add	r5, r5, #4
 187              	.L9:
 188              		.loc 1 300 0 discriminator 1
 189 006c 40F20003 		movw	r3, #:lower16:_edata
 190 0070 C0F20003 		movt	r3, #:upper16:_edata
 191 0074 9C42     		cmp	r4, r3
 192 0076 F3D3     		bcc	.L10
 193              	.LBE2:
 194              		.loc 1 307 0
 195 0078 40F20000 		movw	r0, #:lower16:_bss_start
 196 007c C0F20000 		movt	r0, #:upper16:_bss_start
 197 0080 40F20001 		movw	r1, #:lower16:_bss_end
 198 0084 C0F20001 		movt	r1, #:upper16:_bss_end
 199 0088 4FF00002 		mov	r2, #0
 200 008c FFF7FEFF 		bl	fill32
 201              		.loc 1 311 0
 202 0090 FFF7FEFF 		bl	__late_init
 203              	.LBB3:
 204              		.loc 1 316 0
 205 0094 40F20004 		movw	r4, #:lower16:__init_array_start
 206 0098 C0F20004 		movt	r4, #:upper16:__init_array_start
 207              		.loc 1 317 0
 208 009c 03E0     		b	.L11
 209              	.L12:
 210              		.loc 1 318 0
 211 009e 2368     		ldr	r3, [r4, #0]
 212 00a0 9847     		blx	r3
 213              		.loc 1 319 0
 214 00a2 04F10404 		add	r4, r4, #4
 215              	.L11:
 216              		.loc 1 317 0 discriminator 1
 217 00a6 40F20003 		movw	r3, #:lower16:__init_array_end
ARM GAS  /tmp/ccuUWFpb.s 			page 5


 218 00aa C0F20003 		movt	r3, #:upper16:__init_array_end
 219 00ae 9C42     		cmp	r4, r3
 220 00b0 F5D3     		bcc	.L12
 221              	.LBE3:
 222              		.loc 1 325 0
 223 00b2 FFF7FEFF 		bl	main
 224              	.LBB4:
 225              		.loc 1 330 0
 226 00b6 40F20004 		movw	r4, #:lower16:__fini_array_start
 227 00ba C0F20004 		movt	r4, #:upper16:__fini_array_start
 228              		.loc 1 331 0
 229 00be 03E0     		b	.L13
 230              	.L14:
 231              		.loc 1 332 0
 232 00c0 2368     		ldr	r3, [r4, #0]
 233 00c2 9847     		blx	r3
 234              		.loc 1 333 0
 235 00c4 04F10404 		add	r4, r4, #4
 236              	.L13:
 237              		.loc 1 331 0 discriminator 1
 238 00c8 40F20003 		movw	r3, #:lower16:__fini_array_end
 239 00cc C0F20003 		movt	r3, #:upper16:__fini_array_end
 240 00d0 9C42     		cmp	r4, r3
 241 00d2 F5D3     		bcc	.L14
 242              	.LBE4:
 243              		.loc 1 339 0
 244 00d4 FFF7FEFF 		bl	_default_exit
 245              		.loc 1 340 0
 246              		.cfi_endproc
 247              	.LFE11:
 248              		.size	ResetHandler, .-ResetHandler
 249 00d8 AFF30080 		.text
 249      AFF30080 
 250              	.Letext0:
 251              		.file 2 "/home/texzk/ChibiStudio/tools/GNU Tools ARM Embedded/4.6 2012q2/bin/../lib/gcc/arm-none-e