ARM GAS  /tmp/ccHzVhGG.s 			page 1


   1              		.syntax unified
   2              		.cpu cortex-m3
   3              		.fpu softvfp
   4              		.eabi_attribute 20, 1
   5              		.eabi_attribute 21, 1
   6              		.eabi_attribute 23, 3
   7              		.eabi_attribute 24, 1
   8              		.eabi_attribute 25, 1
   9              		.eabi_attribute 26, 1
  10              		.eabi_attribute 30, 6
  11              		.eabi_attribute 34, 1
  12              		.eabi_attribute 18, 4
  13              		.thumb
  14              		.file	"def.c"
  15              		.text
  16              	.Ltext0:
  17              		.cfi_sections	.debug_frame
  18              		.section	.text.lwip_htons,"ax",%progbits
  19              		.align	2
  20              		.p2align 4,,15
  21              		.global	lwip_htons
  22              		.thumb
  23              		.thumb_func
  24              		.type	lwip_htons, %function
  25              	lwip_htons:
  26              	.LFB7:
  27              		.file 1 "../../ext/lwip/src/core/def.c"
  28              		.loc 1 65 0
  29              		.cfi_startproc
  30              		@ args = 0, pretend = 0, frame = 8
  31              		@ frame_needed = 0, uses_anonymous_args = 0
  32              		@ link register save eliminated.
  33 0000 82B0     		sub	sp, sp, #8
  34              	.LCFI0:
  35              		.cfi_def_cfa_offset 8
  36 0002 0346     		mov	r3, r0
  37 0004 ADF80630 		strh	r3, [sp, #6]	@ movhi
  38              		.loc 1 66 0
  39 0008 BDF80630 		ldrh	r3, [sp, #6]
  40 000c 4FEA0323 		lsl	r3, r3, #8
  41 0010 9AB2     		uxth	r2, r3
  42 0012 BDF80630 		ldrh	r3, [sp, #6]
  43 0016 4FEA1323 		lsr	r3, r3, #8
  44 001a 9BB2     		uxth	r3, r3
  45 001c 9BB2     		uxth	r3, r3
  46 001e 1343     		orrs	r3, r3, r2
  47 0020 9BB2     		uxth	r3, r3
  48 0022 9BB2     		uxth	r3, r3
  49              		.loc 1 67 0
  50 0024 1846     		mov	r0, r3
  51 0026 02B0     		add	sp, sp, #8
  52 0028 7047     		bx	lr
  53              		.cfi_endproc
  54              	.LFE7:
  55              		.size	lwip_htons, .-lwip_htons
  56 002a 00BFAFF3 		.section	.text.lwip_ntohs,"ax",%progbits
  56      0080
ARM GAS  /tmp/ccHzVhGG.s 			page 2


  57              		.align	2
  58              		.p2align 4,,15
  59              		.global	lwip_ntohs
  60              		.thumb
  61              		.thumb_func
  62              		.type	lwip_ntohs, %function
  63              	lwip_ntohs:
  64              	.LFB8:
  65              		.loc 1 77 0
  66              		.cfi_startproc
  67              		@ args = 0, pretend = 0, frame = 8
  68              		@ frame_needed = 0, uses_anonymous_args = 0
  69 0000 00B5     		push	{lr}
  70              	.LCFI1:
  71              		.cfi_def_cfa_offset 4
  72              		.cfi_offset 14, -4
  73 0002 83B0     		sub	sp, sp, #12
  74              	.LCFI2:
  75              		.cfi_def_cfa_offset 16
  76 0004 0346     		mov	r3, r0
  77 0006 ADF80630 		strh	r3, [sp, #6]	@ movhi
  78              		.loc 1 78 0
  79 000a BDF80630 		ldrh	r3, [sp, #6]
  80 000e 1846     		mov	r0, r3
  81 0010 FFF7FEFF 		bl	lwip_htons
  82 0014 0346     		mov	r3, r0
  83              		.loc 1 79 0
  84 0016 1846     		mov	r0, r3
  85 0018 03B0     		add	sp, sp, #12
  86 001a 00BD     		pop	{pc}
  87              		.cfi_endproc
  88              	.LFE8:
  89              		.size	lwip_ntohs, .-lwip_ntohs
  90 001c AFF30080 		.section	.text.lwip_htonl,"ax",%progbits
  91              		.align	2
  92              		.p2align 4,,15
  93              		.global	lwip_htonl
  94              		.thumb
  95              		.thumb_func
  96              		.type	lwip_htonl, %function
  97              	lwip_htonl:
  98              	.LFB9:
  99              		.loc 1 89 0
 100              		.cfi_startproc
 101              		@ args = 0, pretend = 0, frame = 8
 102              		@ frame_needed = 0, uses_anonymous_args = 0
 103              		@ link register save eliminated.
 104 0000 82B0     		sub	sp, sp, #8
 105              	.LCFI3:
 106              		.cfi_def_cfa_offset 8
 107 0002 0190     		str	r0, [sp, #4]
 108              		.loc 1 90 0
 109 0004 019B     		ldr	r3, [sp, #4]
 110 0006 4FEA0362 		lsl	r2, r3, #24
 111              		.loc 1 91 0
 112 000a 019B     		ldr	r3, [sp, #4]
 113 000c 03F47F43 		and	r3, r3, #65280
ARM GAS  /tmp/ccHzVhGG.s 			page 3


 114 0010 4FEA0323 		lsl	r3, r3, #8
 115              		.loc 1 90 0
 116 0014 1A43     		orrs	r2, r2, r3
 117              		.loc 1 92 0
 118 0016 019B     		ldr	r3, [sp, #4]
 119 0018 03F47F03 		and	r3, r3, #16711680
 120 001c 4FEA1323 		lsr	r3, r3, #8
 121              		.loc 1 91 0
 122 0020 1A43     		orrs	r2, r2, r3
 123              		.loc 1 93 0
 124 0022 019B     		ldr	r3, [sp, #4]
 125 0024 4FEA1363 		lsr	r3, r3, #24
 126              		.loc 1 90 0
 127 0028 1343     		orrs	r3, r3, r2
 128              		.loc 1 94 0
 129 002a 1846     		mov	r0, r3
 130 002c 02B0     		add	sp, sp, #8
 131 002e 7047     		bx	lr
 132              		.cfi_endproc
 133              	.LFE9:
 134              		.size	lwip_htonl, .-lwip_htonl
 135              		.section	.text.lwip_ntohl,"ax",%progbits
 136              		.align	2
 137              		.p2align 4,,15
 138              		.global	lwip_ntohl
 139              		.thumb
 140              		.thumb_func
 141              		.type	lwip_ntohl, %function
 142              	lwip_ntohl:
 143              	.LFB10:
 144              		.loc 1 104 0
 145              		.cfi_startproc
 146              		@ args = 0, pretend = 0, frame = 8
 147              		@ frame_needed = 0, uses_anonymous_args = 0
 148 0000 00B5     		push	{lr}
 149              	.LCFI4:
 150              		.cfi_def_cfa_offset 4
 151              		.cfi_offset 14, -4
 152 0002 83B0     		sub	sp, sp, #12
 153              	.LCFI5:
 154              		.cfi_def_cfa_offset 16
 155 0004 0190     		str	r0, [sp, #4]
 156              		.loc 1 105 0
 157 0006 0198     		ldr	r0, [sp, #4]
 158 0008 FFF7FEFF 		bl	lwip_htonl
 159 000c 0346     		mov	r3, r0
 160              		.loc 1 106 0
 161 000e 1846     		mov	r0, r3
 162 0010 03B0     		add	sp, sp, #12
 163 0012 00BD     		pop	{pc}
 164              		.cfi_endproc
 165              	.LFE10:
 166              		.size	lwip_ntohl, .-lwip_ntohl
 167 0014 AFF30080 		.text
 167      AFF30080 
 167      AFF30080 
 168              	.Letext0:
ARM GAS  /tmp/ccHzVhGG.s 			page 4


 169              		.file 2 "/home/texzk/ChibiStudio/tools/GNU Tools ARM Embedded/4.6 2012q2/bin/../lib/gcc/arm-none-e
 170              		.file 3 "../../os/various/lwip_bindings/arch/cc.h"