ARM GAS  /tmp/ccLoOG9f.s 			page 1


   1              		.syntax unified
   2              		.cpu cortex-m3
   3              		.fpu softvfp
   4              		.eabi_attribute 20, 1
   5              		.eabi_attribute 21, 1
   6              		.eabi_attribute 23, 3
   7              		.eabi_attribute 24, 1
   8              		.eabi_attribute 25, 1
   9              		.eabi_attribute 26, 1
  10              		.eabi_attribute 30, 6
  11              		.eabi_attribute 34, 1
  12              		.eabi_attribute 18, 4
  13              		.thumb
  14              		.file	"etharp.c"
  15              		.text
  16              	.Ltext0:
  17              		.cfi_sections	.debug_frame
  18              		.global	ethbroadcast
  19              		.section	.rodata.ethbroadcast,"a",%progbits
  20              		.align	2
  21              		.type	ethbroadcast, %object
  22              		.size	ethbroadcast, 6
  23              	ethbroadcast:
  24 0000 FF       		.byte	-1
  25 0001 FF       		.byte	-1
  26 0002 FF       		.byte	-1
  27 0003 FF       		.byte	-1
  28 0004 FF       		.byte	-1
  29 0005 FF       		.byte	-1
  30              		.global	ethzero
  31 0006 0000     		.section	.rodata.ethzero,"a",%progbits
  32              		.align	2
  33              		.type	ethzero, %object
  34              		.size	ethzero, 6
  35              	ethzero:
  36 0000 00000000 		.space	6
  36      0000
  37 0006 0000     		.section	.bss.arp_table,"aw",%nobits
  38              		.align	2
  39              		.type	arp_table, %object
  40              		.size	arp_table, 160
  41              	arp_table:
  42 0000 00000000 		.space	160
  42      00000000 
  42      00000000 
  42      00000000 
  42      00000000 
  43              		.section	.bss.etharp_cached_entry,"aw",%nobits
  44              		.type	etharp_cached_entry, %object
  45              		.size	etharp_cached_entry, 1
  46              	etharp_cached_entry:
  47 0000 00       		.space	1
  48              		.section	.text.free_entry,"ax",%progbits
  49              		.align	2
  50              		.p2align 4,,15
  51              		.thumb
  52              		.thumb_func
ARM GAS  /tmp/ccLoOG9f.s 			page 2


  53              		.type	free_entry, %function
  54              	free_entry:
  55              	.LFB7:
  56              		.file 1 "../../ext/lwip/src/netif/etharp.c"
  57              		.loc 1 170 0
  58              		.cfi_startproc
  59              		@ args = 0, pretend = 0, frame = 8
  60              		@ frame_needed = 0, uses_anonymous_args = 0
  61 0000 00B5     		push	{lr}
  62              	.LCFI0:
  63              		.cfi_def_cfa_offset 4
  64              		.cfi_offset 14, -4
  65 0002 83B0     		sub	sp, sp, #12
  66              	.LCFI1:
  67              		.cfi_def_cfa_offset 16
  68 0004 0190     		str	r0, [sp, #4]
  69              		.loc 1 174 0
  70 0006 40F20003 		movw	r3, #:lower16:arp_table
  71 000a C0F20003 		movt	r3, #:upper16:arp_table
  72 000e 019A     		ldr	r2, [sp, #4]
  73 0010 4FEA0212 		lsl	r2, r2, #4
  74 0014 9B18     		adds	r3, r3, r2
  75 0016 1B68     		ldr	r3, [r3, #0]
  76 0018 002B     		cmp	r3, #0
  77 001a 16D0     		beq	.L2
  78              		.loc 1 177 0
  79 001c 40F20003 		movw	r3, #:lower16:arp_table
  80 0020 C0F20003 		movt	r3, #:upper16:arp_table
  81 0024 019A     		ldr	r2, [sp, #4]
  82 0026 4FEA0212 		lsl	r2, r2, #4
  83 002a 9B18     		adds	r3, r3, r2
  84 002c 1B68     		ldr	r3, [r3, #0]
  85 002e 1846     		mov	r0, r3
  86 0030 FFF7FEFF 		bl	pbuf_free
  87              		.loc 1 178 0
  88 0034 40F20003 		movw	r3, #:lower16:arp_table
  89 0038 C0F20003 		movt	r3, #:upper16:arp_table
  90 003c 019A     		ldr	r2, [sp, #4]
  91 003e 4FEA0212 		lsl	r2, r2, #4
  92 0042 9B18     		adds	r3, r3, r2
  93 0044 4FF00002 		mov	r2, #0
  94 0048 1A60     		str	r2, [r3, #0]
  95              	.L2:
  96              		.loc 1 181 0
  97 004a 40F20003 		movw	r3, #:lower16:arp_table
  98 004e C0F20003 		movt	r3, #:upper16:arp_table
  99 0052 019A     		ldr	r2, [sp, #4]
 100 0054 4FEA0212 		lsl	r2, r2, #4
 101 0058 9B18     		adds	r3, r3, r2
 102 005a 03F10803 		add	r3, r3, #8
 103 005e 4FF00002 		mov	r2, #0
 104 0062 9A71     		strb	r2, [r3, #6]
 105              		.loc 1 194 0
 106 0064 03B0     		add	sp, sp, #12
 107 0066 00BD     		pop	{pc}
 108              		.cfi_endproc
 109              	.LFE7:
ARM GAS  /tmp/ccLoOG9f.s 			page 3


 110              		.size	free_entry, .-free_entry
 111 0068 AFF30080 		.section	.text.etharp_tmr,"ax",%progbits
 111      AFF30080 
 112              		.align	2
 113              		.p2align 4,,15
 114              		.global	etharp_tmr
 115              		.thumb
 116              		.thumb_func
 117              		.type	etharp_tmr, %function
 118              	etharp_tmr:
 119              	.LFB8:
 120              		.loc 1 204 0
 121              		.cfi_startproc
 122              		@ args = 0, pretend = 0, frame = 8
 123              		@ frame_needed = 0, uses_anonymous_args = 0
 124 0000 00B5     		push	{lr}
 125              	.LCFI2:
 126              		.cfi_def_cfa_offset 4
 127              		.cfi_offset 14, -4
 128 0002 83B0     		sub	sp, sp, #12
 129              	.LCFI3:
 130              		.cfi_def_cfa_offset 16
 131              		.loc 1 209 0
 132 0004 4FF00003 		mov	r3, #0
 133 0008 8DF80730 		strb	r3, [sp, #7]
 134 000c 60E0     		b	.L4
 135              	.L7:
 136              	.LBB2:
 137              		.loc 1 210 0
 138 000e 9DF80720 		ldrb	r2, [sp, #7]	@ zero_extendqisi2
 139 0012 40F20003 		movw	r3, #:lower16:arp_table
 140 0016 C0F20003 		movt	r3, #:upper16:arp_table
 141 001a 4FEA0212 		lsl	r2, r2, #4
 142 001e 9B18     		adds	r3, r3, r2
 143 0020 03F10803 		add	r3, r3, #8
 144 0024 9B79     		ldrb	r3, [r3, #6]
 145 0026 8DF80630 		strb	r3, [sp, #6]
 146              		.loc 1 211 0
 147 002a 9DF80630 		ldrb	r3, [sp, #6]	@ zero_extendqisi2
 148 002e 002B     		cmp	r3, #0
 149 0030 48D0     		beq	.L5
 150              		.loc 1 216 0
 151 0032 9DF80720 		ldrb	r2, [sp, #7]	@ zero_extendqisi2
 152 0036 40F20003 		movw	r3, #:lower16:arp_table
 153 003a C0F20003 		movt	r3, #:upper16:arp_table
 154 003e 4FEA0211 		lsl	r1, r2, #4
 155 0042 5B18     		adds	r3, r3, r1
 156 0044 03F10803 		add	r3, r3, #8
 157 0048 DB79     		ldrb	r3, [r3, #7]	@ zero_extendqisi2
 158 004a 03F10103 		add	r3, r3, #1
 159 004e D9B2     		uxtb	r1, r3
 160 0050 40F20003 		movw	r3, #:lower16:arp_table
 161 0054 C0F20003 		movt	r3, #:upper16:arp_table
 162 0058 4FEA0212 		lsl	r2, r2, #4
 163 005c 9B18     		adds	r3, r3, r2
 164 005e 03F10803 		add	r3, r3, #8
 165 0062 0A46     		mov	r2, r1
ARM GAS  /tmp/ccLoOG9f.s 			page 4


 166 0064 DA71     		strb	r2, [r3, #7]
 167              		.loc 1 217 0
 168 0066 9DF80720 		ldrb	r2, [sp, #7]	@ zero_extendqisi2
 169 006a 40F20003 		movw	r3, #:lower16:arp_table
 170 006e C0F20003 		movt	r3, #:upper16:arp_table
 171 0072 4FEA0212 		lsl	r2, r2, #4
 172 0076 9B18     		adds	r3, r3, r2
 173 0078 03F10803 		add	r3, r3, #8
 174 007c DB79     		ldrb	r3, [r3, #7]	@ zero_extendqisi2
 175 007e EF2B     		cmp	r3, #239
 176 0080 1BD8     		bhi	.L6
 177              		.loc 1 218 0 discriminator 1
 178 0082 9DF80720 		ldrb	r2, [sp, #7]	@ zero_extendqisi2
 179 0086 40F20003 		movw	r3, #:lower16:arp_table
 180 008a C0F20003 		movt	r3, #:upper16:arp_table
 181 008e 4FEA0212 		lsl	r2, r2, #4
 182 0092 9B18     		adds	r3, r3, r2
 183 0094 03F10803 		add	r3, r3, #8
 184 0098 9B79     		ldrb	r3, [r3, #6]	@ zero_extendqisi2
 185              		.loc 1 217 0 discriminator 1
 186 009a 012B     		cmp	r3, #1
 187 009c 12D1     		bne	.L5
 188              		.loc 1 219 0
 189 009e 9DF80720 		ldrb	r2, [sp, #7]	@ zero_extendqisi2
 190 00a2 40F20003 		movw	r3, #:lower16:arp_table
 191 00a6 C0F20003 		movt	r3, #:upper16:arp_table
 192 00aa 4FEA0212 		lsl	r2, r2, #4
 193 00ae 9B18     		adds	r3, r3, r2
 194 00b0 03F10803 		add	r3, r3, #8
 195 00b4 DB79     		ldrb	r3, [r3, #7]	@ zero_extendqisi2
 196              		.loc 1 218 0
 197 00b6 012B     		cmp	r3, #1
 198 00b8 04D9     		bls	.L5
 199              	.L6:
 200              		.loc 1 224 0
 201 00ba 9DF80730 		ldrb	r3, [sp, #7]	@ zero_extendqisi2
 202 00be 1846     		mov	r0, r3
 203 00c0 FFF7FEFF 		bl	free_entry
 204              	.L5:
 205              	.LBE2:
 206              		.loc 1 209 0
 207 00c4 9DF80730 		ldrb	r3, [sp, #7]
 208 00c8 03F10103 		add	r3, r3, #1
 209 00cc 8DF80730 		strb	r3, [sp, #7]
 210              	.L4:
 211              		.loc 1 209 0 is_stmt 0 discriminator 1
 212 00d0 9DF80730 		ldrb	r3, [sp, #7]	@ zero_extendqisi2
 213 00d4 092B     		cmp	r3, #9
 214 00d6 9AD9     		bls	.L7
 215              		.loc 1 234 0 is_stmt 1
 216 00d8 03B0     		add	sp, sp, #12
 217 00da 00BD     		pop	{pc}
 218              		.cfi_endproc
 219              	.LFE8:
 220              		.size	etharp_tmr, .-etharp_tmr
 221 00dc AFF30080 		.section	.text.find_entry,"ax",%progbits
 222              		.align	2
ARM GAS  /tmp/ccLoOG9f.s 			page 5


 223              		.p2align 4,,15
 224              		.thumb
 225              		.thumb_func
 226              		.type	find_entry, %function
 227              	find_entry:
 228              	.LFB9:
 229              		.loc 1 259 0
 230              		.cfi_startproc
 231              		@ args = 0, pretend = 0, frame = 24
 232              		@ frame_needed = 0, uses_anonymous_args = 0
 233 0000 00B5     		push	{lr}
 234              	.LCFI4:
 235              		.cfi_def_cfa_offset 4
 236              		.cfi_offset 14, -4
 237 0002 87B0     		sub	sp, sp, #28
 238              	.LCFI5:
 239              		.cfi_def_cfa_offset 32
 240 0004 0190     		str	r0, [sp, #4]
 241 0006 0B46     		mov	r3, r1
 242 0008 8DF80330 		strb	r3, [sp, #3]
 243              		.loc 1 260 0
 244 000c 4FF00A03 		mov	r3, #10
 245 0010 8DF81730 		strb	r3, [sp, #23]
 246 0014 4FF00A03 		mov	r3, #10
 247 0018 8DF81630 		strb	r3, [sp, #22]
 248              		.loc 1 261 0
 249 001c 4FF00A03 		mov	r3, #10
 250 0020 8DF81530 		strb	r3, [sp, #21]
 251              		.loc 1 262 0
 252 0024 4FF00003 		mov	r3, #0
 253 0028 8DF81430 		strb	r3, [sp, #20]
 254 002c 4FF00003 		mov	r3, #0
 255 0030 8DF81330 		strb	r3, [sp, #19]
 256 0034 4FF00003 		mov	r3, #0
 257 0038 8DF81230 		strb	r3, [sp, #18]
 258              		.loc 1 264 0
 259 003c 4FF00A03 		mov	r3, #10
 260 0040 8DF81130 		strb	r3, [sp, #17]
 261              		.loc 1 266 0
 262 0044 4FF00003 		mov	r3, #0
 263 0048 8DF81030 		strb	r3, [sp, #16]
 264              		.loc 1 283 0
 265 004c 4FF00003 		mov	r3, #0
 266 0050 8DF81430 		strb	r3, [sp, #20]
 267 0054 C1E0     		b	.L9
 268              	.L17:
 269              	.LBB3:
 270              		.loc 1 284 0
 271 0056 9DF81420 		ldrb	r2, [sp, #20]	@ zero_extendqisi2
 272 005a 40F20003 		movw	r3, #:lower16:arp_table
 273 005e C0F20003 		movt	r3, #:upper16:arp_table
 274 0062 4FEA0212 		lsl	r2, r2, #4
 275 0066 9B18     		adds	r3, r3, r2
 276 0068 03F10803 		add	r3, r3, #8
 277 006c 9B79     		ldrb	r3, [r3, #6]
 278 006e 8DF80F30 		strb	r3, [sp, #15]
 279              		.loc 1 286 0
ARM GAS  /tmp/ccLoOG9f.s 			page 6


 280 0072 9DF91530 		ldrsb	r3, [sp, #21]
 281 0076 0A2B     		cmp	r3, #10
 282 0078 08D1     		bne	.L10
 283              		.loc 1 286 0 is_stmt 0 discriminator 1
 284 007a 9DF80F30 		ldrb	r3, [sp, #15]	@ zero_extendqisi2
 285 007e 002B     		cmp	r3, #0
 286 0080 04D1     		bne	.L10
 287              		.loc 1 289 0 is_stmt 1
 288 0082 9DF81430 		ldrb	r3, [sp, #20]
 289 0086 8DF81530 		strb	r3, [sp, #21]
 290 008a A0E0     		b	.L11
 291              	.L10:
 292              		.loc 1 290 0
 293 008c 9DF80F30 		ldrb	r3, [sp, #15]	@ zero_extendqisi2
 294 0090 002B     		cmp	r3, #0
 295 0092 00F09C80 		beq	.L11
 296              		.loc 1 291 0
 297 0096 9DF80F30 		ldrb	r3, [sp, #15]	@ zero_extendqisi2
 298 009a 012B     		cmp	r3, #1
 299 009c 05D0     		beq	.L12
 300              		.loc 1 291 0 is_stmt 0 discriminator 1
 301 009e 9DF80F30 		ldrb	r3, [sp, #15]	@ zero_extendqisi2
 302 00a2 022B     		cmp	r3, #2
 303 00a4 01D0     		beq	.L12
 304              		.loc 1 291 0 discriminator 2
 305 00a6 FFF7FEFF 		bl	port_halt
 306              	.L12:
 307              		.loc 1 294 0 is_stmt 1
 308 00aa 019B     		ldr	r3, [sp, #4]
 309 00ac 002B     		cmp	r3, #0
 310 00ae 12D0     		beq	.L13
 311              		.loc 1 294 0 is_stmt 0 discriminator 1
 312 00b0 019B     		ldr	r3, [sp, #4]
 313 00b2 1A68     		ldr	r2, [r3, #0]
 314 00b4 9DF81410 		ldrb	r1, [sp, #20]	@ zero_extendqisi2
 315 00b8 40F20003 		movw	r3, #:lower16:arp_table
 316 00bc C0F20003 		movt	r3, #:upper16:arp_table
 317 00c0 4FEA0111 		lsl	r1, r1, #4
 318 00c4 5B18     		adds	r3, r3, r1
 319 00c6 03F10403 		add	r3, r3, #4
 320 00ca 1B68     		ldr	r3, [r3, #0]
 321 00cc 9A42     		cmp	r2, r3
 322 00ce 02D1     		bne	.L13
 323              		.loc 1 297 0 is_stmt 1
 324 00d0 9DF81430 		ldrb	r3, [sp, #20]	@ zero_extendqisi2
 325 00d4 10E1     		b	.L14
 326              	.L13:
 327              		.loc 1 300 0
 328 00d6 9DF80F30 		ldrb	r3, [sp, #15]	@ zero_extendqisi2
 329 00da 012B     		cmp	r3, #1
 330 00dc 51D1     		bne	.L15
 331              		.loc 1 302 0
 332 00de 9DF81420 		ldrb	r2, [sp, #20]	@ zero_extendqisi2
 333 00e2 40F20003 		movw	r3, #:lower16:arp_table
 334 00e6 C0F20003 		movt	r3, #:upper16:arp_table
 335 00ea 4FEA0212 		lsl	r2, r2, #4
 336 00ee 9B18     		adds	r3, r3, r2
ARM GAS  /tmp/ccLoOG9f.s 			page 7


 337 00f0 1B68     		ldr	r3, [r3, #0]
 338 00f2 002B     		cmp	r3, #0
 339 00f4 22D0     		beq	.L16
 340              		.loc 1 303 0
 341 00f6 9DF81420 		ldrb	r2, [sp, #20]	@ zero_extendqisi2
 342 00fa 40F20003 		movw	r3, #:lower16:arp_table
 343 00fe C0F20003 		movt	r3, #:upper16:arp_table
 344 0102 4FEA0212 		lsl	r2, r2, #4
 345 0106 9B18     		adds	r3, r3, r2
 346 0108 03F10803 		add	r3, r3, #8
 347 010c DB79     		ldrb	r3, [r3, #7]	@ zero_extendqisi2
 348 010e 9DF81020 		ldrb	r2, [sp, #16]	@ zero_extendqisi2
 349 0112 9A42     		cmp	r2, r3
 350 0114 5BD8     		bhi	.L11
 351              		.loc 1 304 0
 352 0116 9DF81430 		ldrb	r3, [sp, #20]
 353 011a 8DF81130 		strb	r3, [sp, #17]
 354              		.loc 1 305 0
 355 011e 9DF81420 		ldrb	r2, [sp, #20]	@ zero_extendqisi2
 356 0122 40F20003 		movw	r3, #:lower16:arp_table
 357 0126 C0F20003 		movt	r3, #:upper16:arp_table
 358 012a 4FEA0212 		lsl	r2, r2, #4
 359 012e 9B18     		adds	r3, r3, r2
 360 0130 03F10803 		add	r3, r3, #8
 361 0134 DB79     		ldrb	r3, [r3, #7]
 362 0136 8DF81030 		strb	r3, [sp, #16]
 363 013a 48E0     		b	.L11
 364              	.L16:
 365              		.loc 1 310 0
 366 013c 9DF81420 		ldrb	r2, [sp, #20]	@ zero_extendqisi2
 367 0140 40F20003 		movw	r3, #:lower16:arp_table
 368 0144 C0F20003 		movt	r3, #:upper16:arp_table
 369 0148 4FEA0212 		lsl	r2, r2, #4
 370 014c 9B18     		adds	r3, r3, r2
 371 014e 03F10803 		add	r3, r3, #8
 372 0152 DB79     		ldrb	r3, [r3, #7]	@ zero_extendqisi2
 373 0154 9DF81320 		ldrb	r2, [sp, #19]	@ zero_extendqisi2
 374 0158 9A42     		cmp	r2, r3
 375 015a 38D8     		bhi	.L11
 376              		.loc 1 311 0
 377 015c 9DF81430 		ldrb	r3, [sp, #20]
 378 0160 8DF81730 		strb	r3, [sp, #23]
 379              		.loc 1 312 0
 380 0164 9DF81420 		ldrb	r2, [sp, #20]	@ zero_extendqisi2
 381 0168 40F20003 		movw	r3, #:lower16:arp_table
 382 016c C0F20003 		movt	r3, #:upper16:arp_table
 383 0170 4FEA0212 		lsl	r2, r2, #4
 384 0174 9B18     		adds	r3, r3, r2
 385 0176 03F10803 		add	r3, r3, #8
 386 017a DB79     		ldrb	r3, [r3, #7]
 387 017c 8DF81330 		strb	r3, [sp, #19]
 388 0180 25E0     		b	.L11
 389              	.L15:
 390              		.loc 1 316 0
 391 0182 9DF80F30 		ldrb	r3, [sp, #15]	@ zero_extendqisi2
 392 0186 022B     		cmp	r3, #2
 393 0188 21D1     		bne	.L11
ARM GAS  /tmp/ccLoOG9f.s 			page 8


 394              		.loc 1 323 0
 395 018a 9DF81420 		ldrb	r2, [sp, #20]	@ zero_extendqisi2
 396 018e 40F20003 		movw	r3, #:lower16:arp_table
 397 0192 C0F20003 		movt	r3, #:upper16:arp_table
 398 0196 4FEA0212 		lsl	r2, r2, #4
 399 019a 9B18     		adds	r3, r3, r2
 400 019c 03F10803 		add	r3, r3, #8
 401 01a0 DB79     		ldrb	r3, [r3, #7]	@ zero_extendqisi2
 402 01a2 9DF81220 		ldrb	r2, [sp, #18]	@ zero_extendqisi2
 403 01a6 9A42     		cmp	r2, r3
 404 01a8 11D8     		bhi	.L11
 405              		.loc 1 324 0
 406 01aa 9DF81430 		ldrb	r3, [sp, #20]
 407 01ae 8DF81630 		strb	r3, [sp, #22]
 408              		.loc 1 325 0
 409 01b2 9DF81420 		ldrb	r2, [sp, #20]	@ zero_extendqisi2
 410 01b6 40F20003 		movw	r3, #:lower16:arp_table
 411 01ba C0F20003 		movt	r3, #:upper16:arp_table
 412 01be 4FEA0212 		lsl	r2, r2, #4
 413 01c2 9B18     		adds	r3, r3, r2
 414 01c4 03F10803 		add	r3, r3, #8
 415 01c8 DB79     		ldrb	r3, [r3, #7]
 416 01ca 8DF81230 		strb	r3, [sp, #18]
 417              	.L11:
 418              	.LBE3:
 419              		.loc 1 283 0
 420 01ce 9DF81430 		ldrb	r3, [sp, #20]
 421 01d2 03F10103 		add	r3, r3, #1
 422 01d6 8DF81430 		strb	r3, [sp, #20]
 423              	.L9:
 424              		.loc 1 283 0 is_stmt 0 discriminator 1
 425 01da 9DF81430 		ldrb	r3, [sp, #20]	@ zero_extendqisi2
 426 01de 092B     		cmp	r3, #9
 427 01e0 7FF639AF 		bls	.L17
 428              		.loc 1 334 0 is_stmt 1
 429 01e4 9DF80330 		ldrb	r3, [sp, #3]	@ zero_extendqisi2
 430 01e8 03F00203 		and	r3, r3, #2
 431 01ec 002B     		cmp	r3, #0
 432 01ee 09D1     		bne	.L18
 433              		.loc 1 334 0 is_stmt 0 discriminator 1
 434 01f0 9DF91530 		ldrsb	r3, [sp, #21]
 435 01f4 0A2B     		cmp	r3, #10
 436 01f6 08D1     		bne	.L19
 437              		.loc 1 336 0 is_stmt 1
 438 01f8 9DF80330 		ldrb	r3, [sp, #3]	@ zero_extendqisi2
 439 01fc 03F00103 		and	r3, r3, #1
 440 0200 002B     		cmp	r3, #0
 441 0202 02D1     		bne	.L19
 442              	.L18:
 443              		.loc 1 338 0
 444 0204 4FF0FF03 		mov	r3, #255
 445 0208 76E0     		b	.L14
 446              	.L19:
 447              		.loc 1 351 0
 448 020a 9DF91530 		ldrsb	r3, [sp, #21]
 449 020e 092B     		cmp	r3, #9
 450 0210 04DC     		bgt	.L20
ARM GAS  /tmp/ccLoOG9f.s 			page 9


 451              		.loc 1 352 0
 452 0212 9DF81530 		ldrb	r3, [sp, #21]
 453 0216 8DF81430 		strb	r3, [sp, #20]
 454 021a 36E0     		b	.L21
 455              	.L20:
 456              		.loc 1 356 0
 457 021c 9DF91630 		ldrsb	r3, [sp, #22]
 458 0220 092B     		cmp	r3, #9
 459 0222 12DC     		bgt	.L22
 460              		.loc 1 358 0
 461 0224 9DF81630 		ldrb	r3, [sp, #22]
 462 0228 8DF81430 		strb	r3, [sp, #20]
 463              		.loc 1 361 0
 464 022c 9DF81420 		ldrb	r2, [sp, #20]	@ zero_extendqisi2
 465 0230 40F20003 		movw	r3, #:lower16:arp_table
 466 0234 C0F20003 		movt	r3, #:upper16:arp_table
 467 0238 4FEA0212 		lsl	r2, r2, #4
 468 023c 9B18     		adds	r3, r3, r2
 469 023e 1B68     		ldr	r3, [r3, #0]
 470 0240 002B     		cmp	r3, #0
 471 0242 17D0     		beq	.L23
 472              		.loc 1 361 0 is_stmt 0 discriminator 1
 473 0244 FFF7FEFF 		bl	port_halt
 474 0248 14E0     		b	.L23
 475              	.L22:
 476              		.loc 1 363 0 is_stmt 1
 477 024a 9DF91730 		ldrsb	r3, [sp, #23]
 478 024e 092B     		cmp	r3, #9
 479 0250 04DC     		bgt	.L24
 480              		.loc 1 365 0
 481 0252 9DF81730 		ldrb	r3, [sp, #23]
 482 0256 8DF81430 		strb	r3, [sp, #20]
 483 025a 0BE0     		b	.L23
 484              	.L24:
 485              		.loc 1 368 0
 486 025c 9DF91130 		ldrsb	r3, [sp, #17]
 487 0260 092B     		cmp	r3, #9
 488 0262 04DC     		bgt	.L25
 489              		.loc 1 370 0
 490 0264 9DF81130 		ldrb	r3, [sp, #17]
 491 0268 8DF81430 		strb	r3, [sp, #20]
 492 026c 02E0     		b	.L23
 493              	.L25:
 494              		.loc 1 375 0
 495 026e 4FF0FF03 		mov	r3, #255
 496 0272 41E0     		b	.L14
 497              	.L23:
 498              		.loc 1 379 0
 499 0274 9DF81430 		ldrb	r3, [sp, #20]	@ zero_extendqisi2
 500 0278 092B     		cmp	r3, #9
 501 027a 01D9     		bls	.L26
 502              		.loc 1 379 0 is_stmt 0 discriminator 1
 503 027c FFF7FEFF 		bl	port_halt
 504              	.L26:
 505              		.loc 1 380 0 is_stmt 1
 506 0280 9DF81430 		ldrb	r3, [sp, #20]	@ zero_extendqisi2
 507 0284 1846     		mov	r0, r3
ARM GAS  /tmp/ccLoOG9f.s 			page 10


 508 0286 FFF7FEFF 		bl	free_entry
 509              	.L21:
 510              		.loc 1 383 0
 511 028a 9DF81430 		ldrb	r3, [sp, #20]	@ zero_extendqisi2
 512 028e 092B     		cmp	r3, #9
 513 0290 01D9     		bls	.L27
 514              		.loc 1 383 0 is_stmt 0 discriminator 1
 515 0292 FFF7FEFF 		bl	port_halt
 516              	.L27:
 517              		.loc 1 384 0 is_stmt 1
 518 0296 9DF81420 		ldrb	r2, [sp, #20]	@ zero_extendqisi2
 519 029a 40F20003 		movw	r3, #:lower16:arp_table
 520 029e C0F20003 		movt	r3, #:upper16:arp_table
 521 02a2 4FEA0212 		lsl	r2, r2, #4
 522 02a6 9B18     		adds	r3, r3, r2
 523 02a8 03F10803 		add	r3, r3, #8
 524 02ac 9B79     		ldrb	r3, [r3, #6]	@ zero_extendqisi2
 525 02ae 002B     		cmp	r3, #0
 526 02b0 01D0     		beq	.L28
 527              		.loc 1 384 0 is_stmt 0 discriminator 1
 528 02b2 FFF7FEFF 		bl	port_halt
 529              	.L28:
 530              		.loc 1 388 0 is_stmt 1
 531 02b6 019B     		ldr	r3, [sp, #4]
 532 02b8 002B     		cmp	r3, #0
 533 02ba 0DD0     		beq	.L29
 534              		.loc 1 390 0
 535 02bc 9DF81410 		ldrb	r1, [sp, #20]	@ zero_extendqisi2
 536 02c0 019B     		ldr	r3, [sp, #4]
 537 02c2 1A68     		ldr	r2, [r3, #0]
 538 02c4 40F20003 		movw	r3, #:lower16:arp_table
 539 02c8 C0F20003 		movt	r3, #:upper16:arp_table
 540 02cc 4FEA0111 		lsl	r1, r1, #4
 541 02d0 5B18     		adds	r3, r3, r1
 542 02d2 03F10403 		add	r3, r3, #4
 543 02d6 1A60     		str	r2, [r3, #0]
 544              	.L29:
 545              		.loc 1 392 0
 546 02d8 9DF81420 		ldrb	r2, [sp, #20]	@ zero_extendqisi2
 547 02dc 40F20003 		movw	r3, #:lower16:arp_table
 548 02e0 C0F20003 		movt	r3, #:upper16:arp_table
 549 02e4 4FEA0212 		lsl	r2, r2, #4
 550 02e8 9B18     		adds	r3, r3, r2
 551 02ea 03F10803 		add	r3, r3, #8
 552 02ee 4FF00002 		mov	r2, #0
 553 02f2 DA71     		strb	r2, [r3, #7]
 554              		.loc 1 396 0
 555 02f4 9DF81430 		ldrb	r3, [sp, #20]	@ zero_extendqisi2
 556              	.L14:
 557 02f8 5BB2     		sxtb	r3, r3
 558              		.loc 1 397 0
 559 02fa 1846     		mov	r0, r3
 560 02fc 07B0     		add	sp, sp, #28
 561 02fe 00BD     		pop	{pc}
 562              		.cfi_endproc
 563              	.LFE9:
 564              		.size	find_entry, .-find_entry
ARM GAS  /tmp/ccLoOG9f.s 			page 11


 565              		.section	.text.etharp_send_ip,"ax",%progbits
 566              		.align	2
 567              		.p2align 4,,15
 568              		.thumb
 569              		.thumb_func
 570              		.type	etharp_send_ip, %function
 571              	etharp_send_ip:
 572              	.LFB10:
 573              		.loc 1 411 0
 574              		.cfi_startproc
 575              		@ args = 0, pretend = 0, frame = 24
 576              		@ frame_needed = 0, uses_anonymous_args = 0
 577 0000 00B5     		push	{lr}
 578              	.LCFI6:
 579              		.cfi_def_cfa_offset 4
 580              		.cfi_offset 14, -4
 581 0002 87B0     		sub	sp, sp, #28
 582              	.LCFI7:
 583              		.cfi_def_cfa_offset 32
 584 0004 0390     		str	r0, [sp, #12]
 585 0006 0291     		str	r1, [sp, #8]
 586 0008 0192     		str	r2, [sp, #4]
 587 000a 0093     		str	r3, [sp, #0]
 588              		.loc 1 412 0
 589 000c 029B     		ldr	r3, [sp, #8]
 590 000e 5B68     		ldr	r3, [r3, #4]
 591 0010 0593     		str	r3, [sp, #20]
 592              		.loc 1 414 0
 593 0012 039B     		ldr	r3, [sp, #12]
 594 0014 93F82230 		ldrb	r3, [r3, #34]	@ zero_extendqisi2
 595 0018 062B     		cmp	r3, #6
 596 001a 01D0     		beq	.L31
 597              		.loc 1 414 0 is_stmt 0 discriminator 1
 598 001c FFF7FEFF 		bl	port_halt
 599              	.L31:
 600              		.loc 1 416 0 is_stmt 1
 601 0020 059A     		ldr	r2, [sp, #20]
 602 0022 009B     		ldr	r3, [sp, #0]
 603 0024 1146     		mov	r1, r2
 604 0026 1A46     		mov	r2, r3
 605 0028 4FF00603 		mov	r3, #6
 606 002c 0846     		mov	r0, r1
 607 002e 1146     		mov	r1, r2
 608 0030 1A46     		mov	r2, r3
 609 0032 FFF7FEFF 		bl	memcpy
 610              		.loc 1 417 0
 611 0036 059B     		ldr	r3, [sp, #20]
 612 0038 03F10602 		add	r2, r3, #6
 613 003c 019B     		ldr	r3, [sp, #4]
 614 003e 1146     		mov	r1, r2
 615 0040 1A46     		mov	r2, r3
 616 0042 4FF00603 		mov	r3, #6
 617 0046 0846     		mov	r0, r1
 618 0048 1146     		mov	r1, r2
 619 004a 1A46     		mov	r2, r3
 620 004c FFF7FEFF 		bl	memcpy
 621              		.loc 1 418 0
ARM GAS  /tmp/ccLoOG9f.s 			page 12


 622 0050 059B     		ldr	r3, [sp, #20]
 623 0052 4FF00002 		mov	r2, #0
 624 0056 42F00802 		orr	r2, r2, #8
 625 005a 1A73     		strb	r2, [r3, #12]
 626 005c 4FF00002 		mov	r2, #0
 627 0060 5A73     		strb	r2, [r3, #13]
 628              		.loc 1 421 0
 629 0062 039B     		ldr	r3, [sp, #12]
 630 0064 9B69     		ldr	r3, [r3, #24]
 631 0066 0398     		ldr	r0, [sp, #12]
 632 0068 0299     		ldr	r1, [sp, #8]
 633 006a 9847     		blx	r3
 634 006c 0346     		mov	r3, r0
 635              		.loc 1 422 0
 636 006e 1846     		mov	r0, r3
 637 0070 07B0     		add	sp, sp, #28
 638 0072 00BD     		pop	{pc}
 639              		.cfi_endproc
 640              	.LFE10:
 641              		.size	etharp_send_ip, .-etharp_send_ip
 642 0074 AFF30080 		.section	.text.update_arp_entry,"ax",%progbits
 642      AFF30080 
 642      AFF30080 
 643              		.align	2
 644              		.p2align 4,,15
 645              		.thumb
 646              		.thumb_func
 647              		.type	update_arp_entry, %function
 648              	update_arp_entry:
 649              	.LFB11:
 650              		.loc 1 444 0
 651              		.cfi_startproc
 652              		@ args = 0, pretend = 0, frame = 24
 653              		@ frame_needed = 0, uses_anonymous_args = 0
 654 0000 00B5     		push	{lr}
 655              	.LCFI8:
 656              		.cfi_def_cfa_offset 4
 657              		.cfi_offset 14, -4
 658 0002 87B0     		sub	sp, sp, #28
 659              	.LCFI9:
 660              		.cfi_def_cfa_offset 32
 661 0004 0390     		str	r0, [sp, #12]
 662 0006 0291     		str	r1, [sp, #8]
 663 0008 0192     		str	r2, [sp, #4]
 664 000a 8DF80330 		strb	r3, [sp, #3]
 665              		.loc 1 446 0
 666 000e 039B     		ldr	r3, [sp, #12]
 667 0010 93F82230 		ldrb	r3, [r3, #34]	@ zero_extendqisi2
 668 0014 062B     		cmp	r3, #6
 669 0016 01D0     		beq	.L33
 670              		.loc 1 446 0 is_stmt 0 discriminator 1
 671 0018 FFF7FEFF 		bl	port_halt
 672              	.L33:
 673              		.loc 1 452 0 is_stmt 1
 674 001c 029B     		ldr	r3, [sp, #8]
 675 001e 002B     		cmp	r3, #0
 676 0020 12D0     		beq	.L34
ARM GAS  /tmp/ccLoOG9f.s 			page 13


 677              		.loc 1 452 0 is_stmt 0 discriminator 1
 678 0022 029B     		ldr	r3, [sp, #8]
 679 0024 1B68     		ldr	r3, [r3, #0]
 680 0026 002B     		cmp	r3, #0
 681 0028 0ED0     		beq	.L34
 682              		.loc 1 453 0 is_stmt 1 discriminator 1
 683 002a 029B     		ldr	r3, [sp, #8]
 684 002c 1B68     		ldr	r3, [r3, #0]
 685 002e 1846     		mov	r0, r3
 686 0030 0399     		ldr	r1, [sp, #12]
 687 0032 FFF7FEFF 		bl	ip4_addr_isbroadcast
 688 0036 0346     		mov	r3, r0
 689              		.loc 1 452 0 discriminator 1
 690 0038 002B     		cmp	r3, #0
 691 003a 05D1     		bne	.L34
 692              		.loc 1 454 0
 693 003c 029B     		ldr	r3, [sp, #8]
 694 003e 1B68     		ldr	r3, [r3, #0]
 695 0040 03F0F003 		and	r3, r3, #240
 696              		.loc 1 453 0
 697 0044 E02B     		cmp	r3, #224
 698 0046 02D1     		bne	.L35
 699              	.L34:
 700              		.loc 1 456 0
 701 0048 4FF0F203 		mov	r3, #242
 702 004c 71E0     		b	.L36
 703              	.L35:
 704              		.loc 1 459 0
 705 004e 9DF80330 		ldrb	r3, [sp, #3]	@ zero_extendqisi2
 706 0052 0298     		ldr	r0, [sp, #8]
 707 0054 1946     		mov	r1, r3
 708 0056 FFF7FEFF 		bl	find_entry
 709 005a 0346     		mov	r3, r0
 710 005c 8DF81730 		strb	r3, [sp, #23]
 711              		.loc 1 461 0
 712 0060 9DF91730 		ldrsb	r3, [sp, #23]
 713 0064 002B     		cmp	r3, #0
 714 0066 02DA     		bge	.L37
 715              		.loc 1 462 0
 716 0068 9DF81730 		ldrb	r3, [sp, #23]	@ zero_extendqisi2
 717 006c 61E0     		b	.L36
 718              	.L37:
 719              		.loc 1 473 0
 720 006e 9DF91720 		ldrsb	r2, [sp, #23]
 721 0072 40F20003 		movw	r3, #:lower16:arp_table
 722 0076 C0F20003 		movt	r3, #:upper16:arp_table
 723 007a 4FEA0212 		lsl	r2, r2, #4
 724 007e 9B18     		adds	r3, r3, r2
 725 0080 03F10803 		add	r3, r3, #8
 726 0084 4FF00202 		mov	r2, #2
 727 0088 9A71     		strb	r2, [r3, #6]
 728              		.loc 1 484 0
 729 008a 9DF91730 		ldrsb	r3, [sp, #23]
 730 008e 4FEA0313 		lsl	r3, r3, #4
 731 0092 03F10802 		add	r2, r3, #8
 732 0096 40F20003 		movw	r3, #:lower16:arp_table
 733 009a C0F20003 		movt	r3, #:upper16:arp_table
ARM GAS  /tmp/ccLoOG9f.s 			page 14


 734 009e D218     		adds	r2, r2, r3
 735 00a0 019B     		ldr	r3, [sp, #4]
 736 00a2 1146     		mov	r1, r2
 737 00a4 1A46     		mov	r2, r3
 738 00a6 4FF00603 		mov	r3, #6
 739 00aa 0846     		mov	r0, r1
 740 00ac 1146     		mov	r1, r2
 741 00ae 1A46     		mov	r2, r3
 742 00b0 FFF7FEFF 		bl	memcpy
 743              		.loc 1 486 0
 744 00b4 9DF91720 		ldrsb	r2, [sp, #23]
 745 00b8 40F20003 		movw	r3, #:lower16:arp_table
 746 00bc C0F20003 		movt	r3, #:upper16:arp_table
 747 00c0 4FEA0212 		lsl	r2, r2, #4
 748 00c4 9B18     		adds	r3, r3, r2
 749 00c6 03F10803 		add	r3, r3, #8
 750 00ca 4FF00002 		mov	r2, #0
 751 00ce DA71     		strb	r2, [r3, #7]
 752              		.loc 1 500 0
 753 00d0 9DF91720 		ldrsb	r2, [sp, #23]
 754 00d4 40F20003 		movw	r3, #:lower16:arp_table
 755 00d8 C0F20003 		movt	r3, #:upper16:arp_table
 756 00dc 4FEA0212 		lsl	r2, r2, #4
 757 00e0 9B18     		adds	r3, r3, r2
 758 00e2 1B68     		ldr	r3, [r3, #0]
 759 00e4 002B     		cmp	r3, #0
 760 00e6 22D0     		beq	.L38
 761              	.LBB4:
 762              		.loc 1 501 0
 763 00e8 9DF91720 		ldrsb	r2, [sp, #23]
 764 00ec 40F20003 		movw	r3, #:lower16:arp_table
 765 00f0 C0F20003 		movt	r3, #:upper16:arp_table
 766 00f4 4FEA0212 		lsl	r2, r2, #4
 767 00f8 9B18     		adds	r3, r3, r2
 768 00fa 1B68     		ldr	r3, [r3, #0]
 769 00fc 0493     		str	r3, [sp, #16]
 770              		.loc 1 502 0
 771 00fe 9DF91720 		ldrsb	r2, [sp, #23]
 772 0102 40F20003 		movw	r3, #:lower16:arp_table
 773 0106 C0F20003 		movt	r3, #:upper16:arp_table
 774 010a 4FEA0212 		lsl	r2, r2, #4
 775 010e 9B18     		adds	r3, r3, r2
 776 0110 4FF00002 		mov	r2, #0
 777 0114 1A60     		str	r2, [r3, #0]
 778              		.loc 1 505 0
 779 0116 039B     		ldr	r3, [sp, #12]
 780 0118 03F12303 		add	r3, r3, #35
 781 011c 0398     		ldr	r0, [sp, #12]
 782 011e 0499     		ldr	r1, [sp, #16]
 783 0120 1A46     		mov	r2, r3
 784 0122 019B     		ldr	r3, [sp, #4]
 785 0124 FFF7FEFF 		bl	etharp_send_ip
 786              		.loc 1 507 0
 787 0128 0498     		ldr	r0, [sp, #16]
 788 012a FFF7FEFF 		bl	pbuf_free
 789              	.L38:
 790              	.LBE4:
ARM GAS  /tmp/ccLoOG9f.s 			page 15


 791              		.loc 1 509 0
 792 012e 4FF00003 		mov	r3, #0
 793              	.L36:
 794 0132 5BB2     		sxtb	r3, r3
 795              		.loc 1 510 0
 796 0134 1846     		mov	r0, r3
 797 0136 07B0     		add	sp, sp, #28
 798 0138 00BD     		pop	{pc}
 799              		.cfi_endproc
 800              	.LFE11:
 801              		.size	update_arp_entry, .-update_arp_entry
 802 013a 00BFAFF3 		.section	.text.etharp_find_addr,"ax",%progbits
 802      0080
 803              		.align	2
 804              		.p2align 4,,15
 805              		.global	etharp_find_addr
 806              		.thumb
 807              		.thumb_func
 808              		.type	etharp_find_addr, %function
 809              	etharp_find_addr:
 810              	.LFB12:
 811              		.loc 1 585 0
 812              		.cfi_startproc
 813              		@ args = 0, pretend = 0, frame = 24
 814              		@ frame_needed = 0, uses_anonymous_args = 0
 815 0000 00B5     		push	{lr}
 816              	.LCFI10:
 817              		.cfi_def_cfa_offset 4
 818              		.cfi_offset 14, -4
 819 0002 87B0     		sub	sp, sp, #28
 820              	.LCFI11:
 821              		.cfi_def_cfa_offset 32
 822 0004 0390     		str	r0, [sp, #12]
 823 0006 0291     		str	r1, [sp, #8]
 824 0008 0192     		str	r2, [sp, #4]
 825 000a 0093     		str	r3, [sp, #0]
 826              		.loc 1 588 0
 827 000c 019B     		ldr	r3, [sp, #4]
 828 000e 002B     		cmp	r3, #0
 829 0010 02D0     		beq	.L40
 830              		.loc 1 588 0 is_stmt 0 discriminator 2
 831 0012 009B     		ldr	r3, [sp, #0]
 832 0014 002B     		cmp	r3, #0
 833 0016 01D1     		bne	.L41
 834              	.L40:
 835              		.loc 1 588 0 discriminator 1
 836 0018 FFF7FEFF 		bl	port_halt
 837              	.L41:
 838              		.loc 1 593 0 is_stmt 1
 839 001c 0298     		ldr	r0, [sp, #8]
 840 001e 4FF00201 		mov	r1, #2
 841 0022 FFF7FEFF 		bl	find_entry
 842 0026 0346     		mov	r3, r0
 843 0028 8DF81730 		strb	r3, [sp, #23]
 844              		.loc 1 594 0
 845 002c 9DF91730 		ldrsb	r3, [sp, #23]
 846 0030 002B     		cmp	r3, #0
ARM GAS  /tmp/ccLoOG9f.s 			page 16


 847 0032 2ADB     		blt	.L42
 848              		.loc 1 594 0 is_stmt 0 discriminator 1
 849 0034 9DF91720 		ldrsb	r2, [sp, #23]
 850 0038 40F20003 		movw	r3, #:lower16:arp_table
 851 003c C0F20003 		movt	r3, #:upper16:arp_table
 852 0040 4FEA0212 		lsl	r2, r2, #4
 853 0044 9B18     		adds	r3, r3, r2
 854 0046 03F10803 		add	r3, r3, #8
 855 004a 9B79     		ldrb	r3, [r3, #6]	@ zero_extendqisi2
 856 004c 022B     		cmp	r3, #2
 857 004e 1CD1     		bne	.L42
 858              		.loc 1 595 0 is_stmt 1
 859 0050 9DF91730 		ldrsb	r3, [sp, #23]
 860 0054 4FEA0313 		lsl	r3, r3, #4
 861 0058 03F10802 		add	r2, r3, #8
 862 005c 40F20003 		movw	r3, #:lower16:arp_table
 863 0060 C0F20003 		movt	r3, #:upper16:arp_table
 864 0064 D218     		adds	r2, r2, r3
 865 0066 019B     		ldr	r3, [sp, #4]
 866 0068 1A60     		str	r2, [r3, #0]
 867              		.loc 1 596 0
 868 006a 9DF91730 		ldrsb	r3, [sp, #23]
 869 006e 4FEA0312 		lsl	r2, r3, #4
 870 0072 40F20003 		movw	r3, #:lower16:arp_table
 871 0076 C0F20003 		movt	r3, #:upper16:arp_table
 872 007a D318     		adds	r3, r2, r3
 873 007c 03F10402 		add	r2, r3, #4
 874 0080 009B     		ldr	r3, [sp, #0]
 875 0082 1A60     		str	r2, [r3, #0]
 876              		.loc 1 597 0
 877 0084 9DF81730 		ldrb	r3, [sp, #23]	@ zero_extendqisi2
 878 0088 01E0     		b	.L43
 879              	.L42:
 880              		.loc 1 599 0
 881 008a 4FF0FF03 		mov	r3, #255
 882              	.L43:
 883 008e 5BB2     		sxtb	r3, r3
 884              		.loc 1 600 0
 885 0090 1846     		mov	r0, r3
 886 0092 07B0     		add	sp, sp, #28
 887 0094 00BD     		pop	{pc}
 888              		.cfi_endproc
 889              	.LFE12:
 890              		.size	etharp_find_addr, .-etharp_find_addr
 891 0096 00BFAFF3 		.section	.text.etharp_arp_input,"ax",%progbits
 891      0080AFF3 
 891      0080
 892              		.align	2
 893              		.p2align 4,,15
 894              		.thumb
 895              		.thumb_func
 896              		.type	etharp_arp_input, %function
 897              	etharp_arp_input:
 898              	.LFB13:
 899              		.loc 1 669 0
 900              		.cfi_startproc
 901              		@ args = 0, pretend = 0, frame = 40
ARM GAS  /tmp/ccLoOG9f.s 			page 17


 902              		@ frame_needed = 0, uses_anonymous_args = 0
 903 0000 00B5     		push	{lr}
 904              	.LCFI12:
 905              		.cfi_def_cfa_offset 4
 906              		.cfi_offset 14, -4
 907 0002 8BB0     		sub	sp, sp, #44
 908              	.LCFI13:
 909              		.cfi_def_cfa_offset 48
 910 0004 0390     		str	r0, [sp, #12]
 911 0006 0291     		str	r1, [sp, #8]
 912 0008 0192     		str	r2, [sp, #4]
 913              		.loc 1 679 0
 914 000a 039B     		ldr	r3, [sp, #12]
 915 000c 002B     		cmp	r3, #0
 916 000e 02D1     		bne	.L45
 917              		.loc 1 679 0 is_stmt 0 discriminator 1
 918 0010 FFF7FEFF 		bl	port_halt
 919 0014 36E1     		b	.L44
 920              	.L45:
 921              		.loc 1 683 0 is_stmt 1
 922 0016 019B     		ldr	r3, [sp, #4]
 923 0018 5B89     		ldrh	r3, [r3, #10]
 924 001a 292B     		cmp	r3, #41
 925 001c 1DD8     		bhi	.L47
 926              		.loc 1 687 0
 927 001e 40F20003 		movw	r3, #:lower16:lwip_stats
 928 0022 C0F20003 		movt	r3, #:upper16:lwip_stats
 929 0026 5B8C     		ldrh	r3, [r3, #34]
 930 0028 03F10103 		add	r3, r3, #1
 931 002c 9AB2     		uxth	r2, r3
 932 002e 40F20003 		movw	r3, #:lower16:lwip_stats
 933 0032 C0F20003 		movt	r3, #:upper16:lwip_stats
 934 0036 5A84     		strh	r2, [r3, #34]	@ movhi
 935              		.loc 1 688 0
 936 0038 40F20003 		movw	r3, #:lower16:lwip_stats
 937 003c C0F20003 		movt	r3, #:upper16:lwip_stats
 938 0040 DB8B     		ldrh	r3, [r3, #30]
 939 0042 03F10103 		add	r3, r3, #1
 940 0046 9AB2     		uxth	r2, r3
 941 0048 40F20003 		movw	r3, #:lower16:lwip_stats
 942 004c C0F20003 		movt	r3, #:upper16:lwip_stats
 943 0050 DA83     		strh	r2, [r3, #30]	@ movhi
 944              		.loc 1 689 0
 945 0052 0198     		ldr	r0, [sp, #4]
 946 0054 FFF7FEFF 		bl	pbuf_free
 947              		.loc 1 690 0
 948 0058 14E1     		b	.L44
 949              	.L47:
 950              		.loc 1 693 0
 951 005a 019B     		ldr	r3, [sp, #4]
 952 005c 5B68     		ldr	r3, [r3, #4]
 953 005e 0893     		str	r3, [sp, #32]
 954              		.loc 1 694 0
 955 0060 089B     		ldr	r3, [sp, #32]
 956 0062 03F10E03 		add	r3, r3, #14
 957 0066 0793     		str	r3, [sp, #28]
 958              		.loc 1 702 0
ARM GAS  /tmp/ccLoOG9f.s 			page 18


 959 0068 079B     		ldr	r3, [sp, #28]
 960 006a 1B88     		ldrh	r3, [r3, #0]	@ unaligned
 961 006c 9BB2     		uxth	r3, r3
 962 006e B3F5807F 		cmp	r3, #256
 963 0072 0CD1     		bne	.L48
 964              		.loc 1 703 0 discriminator 1
 965 0074 079B     		ldr	r3, [sp, #28]
 966 0076 1B79     		ldrb	r3, [r3, #4]	@ zero_extendqisi2
 967              		.loc 1 702 0 discriminator 1
 968 0078 062B     		cmp	r3, #6
 969 007a 08D1     		bne	.L48
 970              		.loc 1 704 0
 971 007c 079B     		ldr	r3, [sp, #28]
 972 007e 5B79     		ldrb	r3, [r3, #5]	@ zero_extendqisi2
 973              		.loc 1 703 0
 974 0080 042B     		cmp	r3, #4
 975 0082 04D1     		bne	.L48
 976              		.loc 1 705 0
 977 0084 079B     		ldr	r3, [sp, #28]
 978 0086 5B88     		ldrh	r3, [r3, #2]	@ unaligned
 979 0088 9BB2     		uxth	r3, r3
 980              		.loc 1 704 0
 981 008a 082B     		cmp	r3, #8
 982 008c 1DD0     		beq	.L49
 983              	.L48:
 984              		.loc 1 709 0
 985 008e 40F20003 		movw	r3, #:lower16:lwip_stats
 986 0092 C0F20003 		movt	r3, #:upper16:lwip_stats
 987 0096 1B8D     		ldrh	r3, [r3, #40]
 988 0098 03F10103 		add	r3, r3, #1
 989 009c 9AB2     		uxth	r2, r3
 990 009e 40F20003 		movw	r3, #:lower16:lwip_stats
 991 00a2 C0F20003 		movt	r3, #:upper16:lwip_stats
 992 00a6 1A85     		strh	r2, [r3, #40]	@ movhi
 993              		.loc 1 710 0
 994 00a8 40F20003 		movw	r3, #:lower16:lwip_stats
 995 00ac C0F20003 		movt	r3, #:upper16:lwip_stats
 996 00b0 DB8B     		ldrh	r3, [r3, #30]
 997 00b2 03F10103 		add	r3, r3, #1
 998 00b6 9AB2     		uxth	r2, r3
 999 00b8 40F20003 		movw	r3, #:lower16:lwip_stats
 1000 00bc C0F20003 		movt	r3, #:upper16:lwip_stats
 1001 00c0 DA83     		strh	r2, [r3, #30]	@ movhi
 1002              		.loc 1 711 0
 1003 00c2 0198     		ldr	r0, [sp, #4]
 1004 00c4 FFF7FEFF 		bl	pbuf_free
 1005              		.loc 1 712 0
 1006 00c8 DCE0     		b	.L44
 1007              	.L49:
 1008              		.loc 1 714 0
 1009 00ca 40F20003 		movw	r3, #:lower16:lwip_stats
 1010 00ce C0F20003 		movt	r3, #:upper16:lwip_stats
 1011 00d2 5B8B     		ldrh	r3, [r3, #26]
 1012 00d4 03F10103 		add	r3, r3, #1
 1013 00d8 9AB2     		uxth	r2, r3
 1014 00da 40F20003 		movw	r3, #:lower16:lwip_stats
 1015 00de C0F20003 		movt	r3, #:upper16:lwip_stats
ARM GAS  /tmp/ccLoOG9f.s 			page 19


 1016 00e2 5A83     		strh	r2, [r3, #26]	@ movhi
 1017              		.loc 1 725 0
 1018 00e4 079B     		ldr	r3, [sp, #28]
 1019 00e6 03F10E03 		add	r3, r3, #14
 1020 00ea 06AA     		add	r2, sp, #24
 1021 00ec 1146     		mov	r1, r2
 1022 00ee 1A46     		mov	r2, r3
 1023 00f0 4FF00403 		mov	r3, #4
 1024 00f4 0846     		mov	r0, r1
 1025 00f6 1146     		mov	r1, r2
 1026 00f8 1A46     		mov	r2, r3
 1027 00fa FFF7FEFF 		bl	memcpy
 1028              		.loc 1 726 0
 1029 00fe 079B     		ldr	r3, [sp, #28]
 1030 0100 03F11803 		add	r3, r3, #24
 1031 0104 05AA     		add	r2, sp, #20
 1032 0106 1146     		mov	r1, r2
 1033 0108 1A46     		mov	r2, r3
 1034 010a 4FF00403 		mov	r3, #4
 1035 010e 0846     		mov	r0, r1
 1036 0110 1146     		mov	r1, r2
 1037 0112 1A46     		mov	r2, r3
 1038 0114 FFF7FEFF 		bl	memcpy
 1039              		.loc 1 729 0
 1040 0118 039B     		ldr	r3, [sp, #12]
 1041 011a 03F10403 		add	r3, r3, #4
 1042 011e 002B     		cmp	r3, #0
 1043 0120 03D0     		beq	.L50
 1044              		.loc 1 729 0 is_stmt 0 discriminator 1
 1045 0122 039B     		ldr	r3, [sp, #12]
 1046 0124 5B68     		ldr	r3, [r3, #4]
 1047 0126 002B     		cmp	r3, #0
 1048 0128 04D1     		bne	.L51
 1049              	.L50:
 1050              		.loc 1 730 0 is_stmt 1
 1051 012a 4FF00003 		mov	r3, #0
 1052 012e 8DF82730 		strb	r3, [sp, #39]
 1053 0132 08E0     		b	.L52
 1054              	.L51:
 1055              		.loc 1 733 0
 1056 0134 059A     		ldr	r2, [sp, #20]
 1057 0136 039B     		ldr	r3, [sp, #12]
 1058 0138 5B68     		ldr	r3, [r3, #4]
 1059 013a 9A42     		cmp	r2, r3
 1060 013c 14BF     		ite	ne
 1061 013e 0023     		movne	r3, #0
 1062 0140 0123     		moveq	r3, #1
 1063 0142 8DF82730 		strb	r3, [sp, #39]
 1064              	.L52:
 1065              		.loc 1 741 0
 1066 0146 079B     		ldr	r3, [sp, #28]
 1067 0148 03F10802 		add	r2, r3, #8
 1068 014c 9DF82730 		ldrb	r3, [sp, #39]	@ zero_extendqisi2
 1069 0150 002B     		cmp	r3, #0
 1070 0152 02D0     		beq	.L53
 1071              		.loc 1 741 0 is_stmt 0 discriminator 1
 1072 0154 4FF00103 		mov	r3, #1
ARM GAS  /tmp/ccLoOG9f.s 			page 20


 1073 0158 01E0     		b	.L54
 1074              	.L53:
 1075              		.loc 1 741 0 discriminator 2
 1076 015a 4FF00203 		mov	r3, #2
 1077              	.L54:
 1078              		.loc 1 741 0 discriminator 3
 1079 015e 06A9     		add	r1, sp, #24
 1080 0160 0398     		ldr	r0, [sp, #12]
 1081 0162 FFF7FEFF 		bl	update_arp_entry
 1082              		.loc 1 745 0 is_stmt 1 discriminator 3
 1083 0166 079B     		ldr	r3, [sp, #28]
 1084 0168 DB88     		ldrh	r3, [r3, #6]	@ unaligned
 1085 016a 9BB2     		uxth	r3, r3
 1086 016c B3F5807F 		cmp	r3, #256
 1087 0170 04D0     		beq	.L56
 1088 0172 B3F5007F 		cmp	r3, #512
 1089 0176 00F08180 		beq	.L63
 1090              		.loc 1 745 0 is_stmt 0
 1091 017a 71E0     		b	.L62
 1092              	.L56:
 1093              		.loc 1 754 0 is_stmt 1
 1094 017c 9DF82730 		ldrb	r3, [sp, #39]	@ zero_extendqisi2
 1095 0180 002B     		cmp	r3, #0
 1096 0182 68D0     		beq	.L58
 1097              		.loc 1 760 0
 1098 0184 4FF00200 		mov	r0, #2
 1099 0188 FFF7FEFF 		bl	lwip_htons
 1100 018c 0346     		mov	r3, r0
 1101 018e 1A46     		mov	r2, r3
 1102 0190 079B     		ldr	r3, [sp, #28]
 1103 0192 DA80     		strh	r2, [r3, #6]	@ unaligned
 1104              		.loc 1 762 0
 1105 0194 079B     		ldr	r3, [sp, #28]
 1106 0196 03F11802 		add	r2, r3, #24
 1107 019a 079B     		ldr	r3, [sp, #28]
 1108 019c 03F10E03 		add	r3, r3, #14
 1109 01a0 1146     		mov	r1, r2
 1110 01a2 1A46     		mov	r2, r3
 1111 01a4 4FF00403 		mov	r3, #4
 1112 01a8 0846     		mov	r0, r1
 1113 01aa 1146     		mov	r1, r2
 1114 01ac 1A46     		mov	r2, r3
 1115 01ae FFF7FEFF 		bl	memcpy
 1116              		.loc 1 763 0
 1117 01b2 079B     		ldr	r3, [sp, #28]
 1118 01b4 03F10E02 		add	r2, r3, #14
 1119 01b8 039B     		ldr	r3, [sp, #12]
 1120 01ba 03F10403 		add	r3, r3, #4
 1121 01be 1146     		mov	r1, r2
 1122 01c0 1A46     		mov	r2, r3
 1123 01c2 4FF00403 		mov	r3, #4
 1124 01c6 0846     		mov	r0, r1
 1125 01c8 1146     		mov	r1, r2
 1126 01ca 1A46     		mov	r2, r3
 1127 01cc FFF7FEFF 		bl	memcpy
 1128              		.loc 1 765 0
 1129 01d0 039B     		ldr	r3, [sp, #12]
ARM GAS  /tmp/ccLoOG9f.s 			page 21


 1130 01d2 93F82230 		ldrb	r3, [r3, #34]	@ zero_extendqisi2
 1131 01d6 062B     		cmp	r3, #6
 1132 01d8 01D0     		beq	.L59
 1133              		.loc 1 765 0 is_stmt 0 discriminator 1
 1134 01da FFF7FEFF 		bl	port_halt
 1135              	.L59:
 1136              		.loc 1 774 0 is_stmt 1
 1137 01de 079B     		ldr	r3, [sp, #28]
 1138 01e0 03F11202 		add	r2, r3, #18
 1139 01e4 079B     		ldr	r3, [sp, #28]
 1140 01e6 03F10803 		add	r3, r3, #8
 1141 01ea 1146     		mov	r1, r2
 1142 01ec 1A46     		mov	r2, r3
 1143 01ee 4FF00603 		mov	r3, #6
 1144 01f2 0846     		mov	r0, r1
 1145 01f4 1146     		mov	r1, r2
 1146 01f6 1A46     		mov	r2, r3
 1147 01f8 FFF7FEFF 		bl	memcpy
 1148              		.loc 1 778 0
 1149 01fc 089A     		ldr	r2, [sp, #32]
 1150 01fe 079B     		ldr	r3, [sp, #28]
 1151 0200 03F10803 		add	r3, r3, #8
 1152 0204 1146     		mov	r1, r2
 1153 0206 1A46     		mov	r2, r3
 1154 0208 4FF00603 		mov	r3, #6
 1155 020c 0846     		mov	r0, r1
 1156 020e 1146     		mov	r1, r2
 1157 0210 1A46     		mov	r2, r3
 1158 0212 FFF7FEFF 		bl	memcpy
 1159              		.loc 1 780 0
 1160 0216 079B     		ldr	r3, [sp, #28]
 1161 0218 03F10802 		add	r2, r3, #8
 1162 021c 029B     		ldr	r3, [sp, #8]
 1163 021e 1146     		mov	r1, r2
 1164 0220 1A46     		mov	r2, r3
 1165 0222 4FF00603 		mov	r3, #6
 1166 0226 0846     		mov	r0, r1
 1167 0228 1146     		mov	r1, r2
 1168 022a 1A46     		mov	r2, r3
 1169 022c FFF7FEFF 		bl	memcpy
 1170              		.loc 1 781 0
 1171 0230 089B     		ldr	r3, [sp, #32]
 1172 0232 03F10602 		add	r2, r3, #6
 1173 0236 029B     		ldr	r3, [sp, #8]
 1174 0238 1146     		mov	r1, r2
 1175 023a 1A46     		mov	r2, r3
 1176 023c 4FF00603 		mov	r3, #6
 1177 0240 0846     		mov	r0, r1
 1178 0242 1146     		mov	r1, r2
 1179 0244 1A46     		mov	r2, r3
 1180 0246 FFF7FEFF 		bl	memcpy
 1181              		.loc 1 787 0
 1182 024a 039B     		ldr	r3, [sp, #12]
 1183 024c 9B69     		ldr	r3, [r3, #24]
 1184 024e 0398     		ldr	r0, [sp, #12]
 1185 0250 0199     		ldr	r1, [sp, #4]
 1186 0252 9847     		blx	r3
ARM GAS  /tmp/ccLoOG9f.s 			page 22


 1187              		.loc 1 797 0
 1188 0254 13E0     		b	.L61
 1189              	.L58:
 1190              		.loc 1 789 0
 1191 0256 039B     		ldr	r3, [sp, #12]
 1192 0258 03F10403 		add	r3, r3, #4
 1193 025c 002B     		cmp	r3, #0
 1194              		.loc 1 797 0
 1195 025e 0EE0     		b	.L61
 1196              	.L62:
 1197              		.loc 1 811 0
 1198 0260 40F20003 		movw	r3, #:lower16:lwip_stats
 1199 0264 C0F20003 		movt	r3, #:upper16:lwip_stats
 1200 0268 9B8D     		ldrh	r3, [r3, #44]
 1201 026a 03F10103 		add	r3, r3, #1
 1202 026e 9AB2     		uxth	r2, r3
 1203 0270 40F20003 		movw	r3, #:lower16:lwip_stats
 1204 0274 C0F20003 		movt	r3, #:upper16:lwip_stats
 1205 0278 9A85     		strh	r2, [r3, #44]	@ movhi
 1206              		.loc 1 812 0
 1207 027a 00E0     		b	.L61
 1208              	.L63:
 1209              		.loc 1 808 0
 1210 027c 00BF     		nop
 1211              	.L61:
 1212              		.loc 1 815 0
 1213 027e 0198     		ldr	r0, [sp, #4]
 1214 0280 FFF7FEFF 		bl	pbuf_free
 1215              	.L44:
 1216              		.loc 1 816 0
 1217 0284 0BB0     		add	sp, sp, #44
 1218 0286 00BD     		pop	{pc}
 1219              		.cfi_endproc
 1220              	.LFE13:
 1221              		.size	etharp_arp_input, .-etharp_arp_input
 1222 0288 AFF30080 		.section	.text.etharp_output,"ax",%progbits
 1222      AFF30080 
 1223              		.align	2
 1224              		.p2align 4,,15
 1225              		.global	etharp_output
 1226              		.thumb
 1227              		.thumb_func
 1228              		.type	etharp_output, %function
 1229              	etharp_output:
 1230              	.LFB14:
 1231              		.loc 1 838 0
 1232              		.cfi_startproc
 1233              		@ args = 0, pretend = 0, frame = 32
 1234              		@ frame_needed = 0, uses_anonymous_args = 0
 1235 0000 00B5     		push	{lr}
 1236              	.LCFI14:
 1237              		.cfi_def_cfa_offset 4
 1238              		.cfi_offset 14, -4
 1239 0002 89B0     		sub	sp, sp, #36
 1240              	.LCFI15:
 1241              		.cfi_def_cfa_offset 40
 1242 0004 0390     		str	r0, [sp, #12]
ARM GAS  /tmp/ccLoOG9f.s 			page 23


 1243 0006 0291     		str	r1, [sp, #8]
 1244 0008 0192     		str	r2, [sp, #4]
 1245              		.loc 1 842 0
 1246 000a 0298     		ldr	r0, [sp, #8]
 1247 000c 4FF00E01 		mov	r1, #14
 1248 0010 FFF7FEFF 		bl	pbuf_header
 1249 0014 0346     		mov	r3, r0
 1250 0016 002B     		cmp	r3, #0
 1251 0018 0FD0     		beq	.L65
 1252              		.loc 1 846 0
 1253 001a 40F20003 		movw	r3, #:lower16:lwip_stats
 1254 001e C0F20003 		movt	r3, #:upper16:lwip_stats
 1255 0022 5B89     		ldrh	r3, [r3, #10]
 1256 0024 03F10103 		add	r3, r3, #1
 1257 0028 9AB2     		uxth	r2, r3
 1258 002a 40F20003 		movw	r3, #:lower16:lwip_stats
 1259 002e C0F20003 		movt	r3, #:upper16:lwip_stats
 1260 0032 5A81     		strh	r2, [r3, #10]	@ movhi
 1261              		.loc 1 847 0
 1262 0034 4FF0FE03 		mov	r3, #254
 1263 0038 B7E0     		b	.L66
 1264              	.L65:
 1265              		.loc 1 851 0
 1266 003a 4FF00003 		mov	r3, #0
 1267 003e 0793     		str	r3, [sp, #28]
 1268              		.loc 1 856 0
 1269 0040 019B     		ldr	r3, [sp, #4]
 1270 0042 1B68     		ldr	r3, [r3, #0]
 1271 0044 1846     		mov	r0, r3
 1272 0046 0399     		ldr	r1, [sp, #12]
 1273 0048 FFF7FEFF 		bl	ip4_addr_isbroadcast
 1274 004c 0346     		mov	r3, r0
 1275 004e 002B     		cmp	r3, #0
 1276 0050 05D0     		beq	.L67
 1277              		.loc 1 858 0
 1278 0052 40F20003 		movw	r3, #:lower16:ethbroadcast
 1279 0056 C0F20003 		movt	r3, #:upper16:ethbroadcast
 1280 005a 0793     		str	r3, [sp, #28]
 1281 005c 9BE0     		b	.L68
 1282              	.L67:
 1283              		.loc 1 860 0
 1284 005e 019B     		ldr	r3, [sp, #4]
 1285 0060 1B68     		ldr	r3, [r3, #0]
 1286 0062 03F0F003 		and	r3, r3, #240
 1287 0066 E02B     		cmp	r3, #224
 1288 0068 1FD1     		bne	.L69
 1289              		.loc 1 862 0
 1290 006a 4FF00103 		mov	r3, #1
 1291 006e 8DF81430 		strb	r3, [sp, #20]
 1292              		.loc 1 863 0
 1293 0072 4FF00003 		mov	r3, #0
 1294 0076 8DF81530 		strb	r3, [sp, #21]
 1295              		.loc 1 864 0
 1296 007a 4FF05E03 		mov	r3, #94
 1297 007e 8DF81630 		strb	r3, [sp, #22]
 1298              		.loc 1 865 0
 1299 0082 019B     		ldr	r3, [sp, #4]
ARM GAS  /tmp/ccLoOG9f.s 			page 24


 1300 0084 03F10103 		add	r3, r3, #1
 1301 0088 1B78     		ldrb	r3, [r3, #0]	@ zero_extendqisi2
 1302 008a 03F07F03 		and	r3, r3, #127
 1303 008e DBB2     		uxtb	r3, r3
 1304 0090 8DF81730 		strb	r3, [sp, #23]
 1305              		.loc 1 866 0
 1306 0094 019B     		ldr	r3, [sp, #4]
 1307 0096 9B78     		ldrb	r3, [r3, #2]	@ zero_extendqisi2
 1308 0098 8DF81830 		strb	r3, [sp, #24]
 1309              		.loc 1 867 0
 1310 009c 019B     		ldr	r3, [sp, #4]
 1311 009e DB78     		ldrb	r3, [r3, #3]	@ zero_extendqisi2
 1312 00a0 8DF81930 		strb	r3, [sp, #25]
 1313              		.loc 1 869 0
 1314 00a4 05AB     		add	r3, sp, #20
 1315 00a6 0793     		str	r3, [sp, #28]
 1316 00a8 75E0     		b	.L68
 1317              	.L69:
 1318              		.loc 1 873 0
 1319 00aa 019B     		ldr	r3, [sp, #4]
 1320 00ac 1A68     		ldr	r2, [r3, #0]
 1321 00ae 039B     		ldr	r3, [sp, #12]
 1322 00b0 5B68     		ldr	r3, [r3, #4]
 1323 00b2 5A40     		eors	r2, r2, r3
 1324 00b4 039B     		ldr	r3, [sp, #12]
 1325 00b6 9B68     		ldr	r3, [r3, #8]
 1326 00b8 1340     		ands	r3, r3, r2
 1327 00ba 002B     		cmp	r3, #0
 1328 00bc 1AD0     		beq	.L70
 1329              		.loc 1 874 0 discriminator 1
 1330 00be 019B     		ldr	r3, [sp, #4]
 1331 00c0 1B68     		ldr	r3, [r3, #0]
 1332 00c2 4FEA0343 		lsl	r3, r3, #16
 1333 00c6 4FEA1343 		lsr	r3, r3, #16
 1334              		.loc 1 873 0 discriminator 1
 1335 00ca 4FF6A962 		movw	r2, #65193
 1336 00ce 9342     		cmp	r3, r2
 1337 00d0 10D0     		beq	.L70
 1338              		.loc 1 886 0
 1339 00d2 039B     		ldr	r3, [sp, #12]
 1340 00d4 03F10C03 		add	r3, r3, #12
 1341 00d8 002B     		cmp	r3, #0
 1342 00da 08D0     		beq	.L71
 1343              		.loc 1 886 0 is_stmt 0 discriminator 1
 1344 00dc 039B     		ldr	r3, [sp, #12]
 1345 00de DB68     		ldr	r3, [r3, #12]
 1346 00e0 002B     		cmp	r3, #0
 1347 00e2 04D0     		beq	.L71
 1348              		.loc 1 888 0 is_stmt 1
 1349 00e4 039B     		ldr	r3, [sp, #12]
 1350 00e6 03F10C03 		add	r3, r3, #12
 1351 00ea 0193     		str	r3, [sp, #4]
 1352 00ec 02E0     		b	.L70
 1353              	.L71:
 1354              		.loc 1 892 0
 1355 00ee 4FF0FC03 		mov	r3, #252
 1356 00f2 5AE0     		b	.L66
ARM GAS  /tmp/ccLoOG9f.s 			page 25


 1357              	.L70:
 1358              		.loc 1 902 0
 1359 00f4 40F20003 		movw	r3, #:lower16:etharp_cached_entry
 1360 00f8 C0F20003 		movt	r3, #:upper16:etharp_cached_entry
 1361 00fc 1B78     		ldrb	r3, [r3, #0]	@ zero_extendqisi2
 1362 00fe 1A46     		mov	r2, r3
 1363 0100 40F20003 		movw	r3, #:lower16:arp_table
 1364 0104 C0F20003 		movt	r3, #:upper16:arp_table
 1365 0108 4FEA0212 		lsl	r2, r2, #4
 1366 010c 9B18     		adds	r3, r3, r2
 1367 010e 03F10803 		add	r3, r3, #8
 1368 0112 9B79     		ldrb	r3, [r3, #6]	@ zero_extendqisi2
 1369 0114 022B     		cmp	r3, #2
 1370 0116 37D1     		bne	.L72
 1371              		.loc 1 903 0 discriminator 1
 1372 0118 019B     		ldr	r3, [sp, #4]
 1373 011a 1A68     		ldr	r2, [r3, #0]
 1374 011c 40F20003 		movw	r3, #:lower16:etharp_cached_entry
 1375 0120 C0F20003 		movt	r3, #:upper16:etharp_cached_entry
 1376 0124 1B78     		ldrb	r3, [r3, #0]	@ zero_extendqisi2
 1377 0126 1946     		mov	r1, r3
 1378 0128 40F20003 		movw	r3, #:lower16:arp_table
 1379 012c C0F20003 		movt	r3, #:upper16:arp_table
 1380 0130 4FEA0111 		lsl	r1, r1, #4
 1381 0134 5B18     		adds	r3, r3, r1
 1382 0136 03F10403 		add	r3, r3, #4
 1383 013a 1B68     		ldr	r3, [r3, #0]
 1384              		.loc 1 902 0 discriminator 1
 1385 013c 9A42     		cmp	r2, r3
 1386 013e 23D1     		bne	.L72
 1387              		.loc 1 905 0
 1388 0140 40F20003 		movw	r3, #:lower16:lwip_stats
 1389 0144 C0F20003 		movt	r3, #:upper16:lwip_stats
 1390 0148 DB8D     		ldrh	r3, [r3, #46]
 1391 014a 03F10103 		add	r3, r3, #1
 1392 014e 9AB2     		uxth	r2, r3
 1393 0150 40F20003 		movw	r3, #:lower16:lwip_stats
 1394 0154 C0F20003 		movt	r3, #:upper16:lwip_stats
 1395 0158 DA85     		strh	r2, [r3, #46]	@ movhi
 1396              		.loc 1 906 0
 1397 015a 039B     		ldr	r3, [sp, #12]
 1398 015c 03F12302 		add	r2, r3, #35
 1399              		.loc 1 907 0
 1400 0160 40F20003 		movw	r3, #:lower16:etharp_cached_entry
 1401 0164 C0F20003 		movt	r3, #:upper16:etharp_cached_entry
 1402 0168 1B78     		ldrb	r3, [r3, #0]	@ zero_extendqisi2
 1403              		.loc 1 906 0
 1404 016a 4FEA0313 		lsl	r3, r3, #4
 1405 016e 03F10801 		add	r1, r3, #8
 1406 0172 40F20003 		movw	r3, #:lower16:arp_table
 1407 0176 C0F20003 		movt	r3, #:upper16:arp_table
 1408 017a CB18     		adds	r3, r1, r3
 1409 017c 0398     		ldr	r0, [sp, #12]
 1410 017e 0299     		ldr	r1, [sp, #8]
 1411 0180 FFF7FEFF 		bl	etharp_send_ip
 1412 0184 0346     		mov	r3, r0
 1413 0186 10E0     		b	.L66
ARM GAS  /tmp/ccLoOG9f.s 			page 26


 1414              	.L72:
 1415              		.loc 1 914 0
 1416 0188 0398     		ldr	r0, [sp, #12]
 1417 018a 0199     		ldr	r1, [sp, #4]
 1418 018c 029A     		ldr	r2, [sp, #8]
 1419 018e FFF7FEFF 		bl	etharp_query
 1420 0192 0346     		mov	r3, r0
 1421 0194 09E0     		b	.L66
 1422              	.L68:
 1423              		.loc 1 920 0
 1424 0196 039B     		ldr	r3, [sp, #12]
 1425 0198 03F12303 		add	r3, r3, #35
 1426 019c 0398     		ldr	r0, [sp, #12]
 1427 019e 0299     		ldr	r1, [sp, #8]
 1428 01a0 1A46     		mov	r2, r3
 1429 01a2 079B     		ldr	r3, [sp, #28]
 1430 01a4 FFF7FEFF 		bl	etharp_send_ip
 1431 01a8 0346     		mov	r3, r0
 1432              	.L66:
 1433 01aa 5BB2     		sxtb	r3, r3
 1434              		.loc 1 921 0
 1435 01ac 1846     		mov	r0, r3
 1436 01ae 09B0     		add	sp, sp, #36
 1437 01b0 00BD     		pop	{pc}
 1438              		.cfi_endproc
 1439              	.LFE14:
 1440              		.size	etharp_output, .-etharp_output
 1441 01b2 00BFAFF3 		.section	.text.etharp_query,"ax",%progbits
 1441      0080AFF3 
 1441      0080AFF3 
 1441      0080
 1442              		.align	2
 1443              		.p2align 4,,15
 1444              		.global	etharp_query
 1445              		.thumb
 1446              		.thumb_func
 1447              		.type	etharp_query, %function
 1448              	etharp_query:
 1449              	.LFB15:
 1450              		.loc 1 958 0
 1451              		.cfi_startproc
 1452              		@ args = 0, pretend = 0, frame = 40
 1453              		@ frame_needed = 0, uses_anonymous_args = 0
 1454 0000 00B5     		push	{lr}
 1455              	.LCFI16:
 1456              		.cfi_def_cfa_offset 4
 1457              		.cfi_offset 14, -4
 1458 0002 8BB0     		sub	sp, sp, #44
 1459              	.LCFI17:
 1460              		.cfi_def_cfa_offset 48
 1461 0004 0390     		str	r0, [sp, #12]
 1462 0006 0291     		str	r1, [sp, #8]
 1463 0008 0192     		str	r2, [sp, #4]
 1464              		.loc 1 959 0
 1465 000a 039B     		ldr	r3, [sp, #12]
 1466 000c 03F12303 		add	r3, r3, #35
 1467 0010 0693     		str	r3, [sp, #24]
ARM GAS  /tmp/ccLoOG9f.s 			page 27


 1468              		.loc 1 960 0
 1469 0012 4FF0FF03 		mov	r3, #255
 1470 0016 8DF82730 		strb	r3, [sp, #39]
 1471              		.loc 1 964 0
 1472 001a 029B     		ldr	r3, [sp, #8]
 1473 001c 1B68     		ldr	r3, [r3, #0]
 1474 001e 1846     		mov	r0, r3
 1475 0020 0399     		ldr	r1, [sp, #12]
 1476 0022 FFF7FEFF 		bl	ip4_addr_isbroadcast
 1477 0026 0346     		mov	r3, r0
 1478 0028 002B     		cmp	r3, #0
 1479 002a 0CD1     		bne	.L74
 1480              		.loc 1 965 0 discriminator 1
 1481 002c 029B     		ldr	r3, [sp, #8]
 1482 002e 1B68     		ldr	r3, [r3, #0]
 1483 0030 03F0F003 		and	r3, r3, #240
 1484              		.loc 1 964 0 discriminator 1
 1485 0034 E02B     		cmp	r3, #224
 1486 0036 06D0     		beq	.L74
 1487              		.loc 1 965 0
 1488 0038 029B     		ldr	r3, [sp, #8]
 1489 003a 002B     		cmp	r3, #0
 1490 003c 03D0     		beq	.L74
 1491              		.loc 1 966 0
 1492 003e 029B     		ldr	r3, [sp, #8]
 1493 0040 1B68     		ldr	r3, [r3, #0]
 1494 0042 002B     		cmp	r3, #0
 1495 0044 02D1     		bne	.L75
 1496              	.L74:
 1497              		.loc 1 968 0
 1498 0046 4FF0F203 		mov	r3, #242
 1499 004a 36E1     		b	.L76
 1500              	.L75:
 1501              		.loc 1 972 0
 1502 004c 0298     		ldr	r0, [sp, #8]
 1503 004e 4FF00101 		mov	r1, #1
 1504 0052 FFF7FEFF 		bl	find_entry
 1505 0056 0346     		mov	r3, r0
 1506 0058 8DF81730 		strb	r3, [sp, #23]
 1507              		.loc 1 975 0
 1508 005c 9DF91730 		ldrsb	r3, [sp, #23]
 1509 0060 002B     		cmp	r3, #0
 1510 0062 12DA     		bge	.L77
 1511              		.loc 1 977 0
 1512 0064 019B     		ldr	r3, [sp, #4]
 1513 0066 002B     		cmp	r3, #0
 1514 0068 0CD0     		beq	.L78
 1515              		.loc 1 979 0
 1516 006a 40F20003 		movw	r3, #:lower16:lwip_stats
 1517 006e C0F20003 		movt	r3, #:upper16:lwip_stats
 1518 0072 9B8C     		ldrh	r3, [r3, #36]
 1519 0074 03F10103 		add	r3, r3, #1
 1520 0078 9AB2     		uxth	r2, r3
 1521 007a 40F20003 		movw	r3, #:lower16:lwip_stats
 1522 007e C0F20003 		movt	r3, #:upper16:lwip_stats
 1523 0082 9A84     		strh	r2, [r3, #36]	@ movhi
 1524              	.L78:
ARM GAS  /tmp/ccLoOG9f.s 			page 28


 1525              		.loc 1 981 0
 1526 0084 9DF81730 		ldrb	r3, [sp, #23]	@ zero_extendqisi2
 1527 0088 17E1     		b	.L76
 1528              	.L77:
 1529              		.loc 1 985 0
 1530 008a 9DF91720 		ldrsb	r2, [sp, #23]
 1531 008e 40F20003 		movw	r3, #:lower16:arp_table
 1532 0092 C0F20003 		movt	r3, #:upper16:arp_table
 1533 0096 4FEA0212 		lsl	r2, r2, #4
 1534 009a 9B18     		adds	r3, r3, r2
 1535 009c 03F10803 		add	r3, r3, #8
 1536 00a0 9B79     		ldrb	r3, [r3, #6]	@ zero_extendqisi2
 1537 00a2 002B     		cmp	r3, #0
 1538 00a4 0DD1     		bne	.L79
 1539              		.loc 1 986 0
 1540 00a6 9DF91720 		ldrsb	r2, [sp, #23]
 1541 00aa 40F20003 		movw	r3, #:lower16:arp_table
 1542 00ae C0F20003 		movt	r3, #:upper16:arp_table
 1543 00b2 4FEA0212 		lsl	r2, r2, #4
 1544 00b6 9B18     		adds	r3, r3, r2
 1545 00b8 03F10803 		add	r3, r3, #8
 1546 00bc 4FF00102 		mov	r2, #1
 1547 00c0 9A71     		strb	r2, [r3, #6]
 1548              	.L79:
 1549              		.loc 1 990 0
 1550 00c2 9DF91720 		ldrsb	r2, [sp, #23]
 1551 00c6 40F20003 		movw	r3, #:lower16:arp_table
 1552 00ca C0F20003 		movt	r3, #:upper16:arp_table
 1553 00ce 4FEA0212 		lsl	r2, r2, #4
 1554 00d2 9B18     		adds	r3, r3, r2
 1555 00d4 03F10803 		add	r3, r3, #8
 1556 00d8 9B79     		ldrb	r3, [r3, #6]	@ zero_extendqisi2
 1557 00da 012B     		cmp	r3, #1
 1558 00dc 0FD0     		beq	.L80
 1559              		.loc 1 990 0 is_stmt 0 discriminator 1
 1560 00de 9DF91720 		ldrsb	r2, [sp, #23]
 1561 00e2 40F20003 		movw	r3, #:lower16:arp_table
 1562 00e6 C0F20003 		movt	r3, #:upper16:arp_table
 1563 00ea 4FEA0212 		lsl	r2, r2, #4
 1564 00ee 9B18     		adds	r3, r3, r2
 1565 00f0 03F10803 		add	r3, r3, #8
 1566 00f4 9B79     		ldrb	r3, [r3, #6]	@ zero_extendqisi2
 1567 00f6 022B     		cmp	r3, #2
 1568 00f8 01D0     		beq	.L80
 1569              		.loc 1 990 0 discriminator 2
 1570 00fa FFF7FEFF 		bl	port_halt
 1571              	.L80:
 1572              		.loc 1 995 0 is_stmt 1
 1573 00fe 9DF91720 		ldrsb	r2, [sp, #23]
 1574 0102 40F20003 		movw	r3, #:lower16:arp_table
 1575 0106 C0F20003 		movt	r3, #:upper16:arp_table
 1576 010a 4FEA0212 		lsl	r2, r2, #4
 1577 010e 9B18     		adds	r3, r3, r2
 1578 0110 03F10803 		add	r3, r3, #8
 1579 0114 9B79     		ldrb	r3, [r3, #6]	@ zero_extendqisi2
 1580 0116 012B     		cmp	r3, #1
 1581 0118 02D0     		beq	.L81
ARM GAS  /tmp/ccLoOG9f.s 			page 29


 1582              		.loc 1 995 0 is_stmt 0 discriminator 1
 1583 011a 019B     		ldr	r3, [sp, #4]
 1584 011c 002B     		cmp	r3, #0
 1585 011e 0CD1     		bne	.L82
 1586              	.L81:
 1587              		.loc 1 997 0 is_stmt 1
 1588 0120 0398     		ldr	r0, [sp, #12]
 1589 0122 0299     		ldr	r1, [sp, #8]
 1590 0124 FFF7FEFF 		bl	etharp_request
 1591 0128 0346     		mov	r3, r0
 1592 012a 8DF82730 		strb	r3, [sp, #39]
 1593              		.loc 1 1004 0
 1594 012e 019B     		ldr	r3, [sp, #4]
 1595 0130 002B     		cmp	r3, #0
 1596 0132 02D1     		bne	.L82
 1597              		.loc 1 1005 0
 1598 0134 9DF82730 		ldrb	r3, [sp, #39]	@ zero_extendqisi2
 1599 0138 BFE0     		b	.L76
 1600              	.L82:
 1601              		.loc 1 1010 0
 1602 013a 019B     		ldr	r3, [sp, #4]
 1603 013c 002B     		cmp	r3, #0
 1604 013e 01D1     		bne	.L83
 1605              		.loc 1 1010 0 is_stmt 0 discriminator 1
 1606 0140 FFF7FEFF 		bl	port_halt
 1607              	.L83:
 1608              		.loc 1 1012 0 is_stmt 1
 1609 0144 9DF91720 		ldrsb	r2, [sp, #23]
 1610 0148 40F20003 		movw	r3, #:lower16:arp_table
 1611 014c C0F20003 		movt	r3, #:upper16:arp_table
 1612 0150 4FEA0212 		lsl	r2, r2, #4
 1613 0154 9B18     		adds	r3, r3, r2
 1614 0156 03F10803 		add	r3, r3, #8
 1615 015a 9B79     		ldrb	r3, [r3, #6]	@ zero_extendqisi2
 1616 015c 022B     		cmp	r3, #2
 1617 015e 1AD1     		bne	.L84
 1618              		.loc 1 1014 0
 1619 0160 9DF81720 		ldrb	r2, [sp, #23]	@ zero_extendqisi2
 1620 0164 40F20003 		movw	r3, #:lower16:etharp_cached_entry
 1621 0168 C0F20003 		movt	r3, #:upper16:etharp_cached_entry
 1622 016c 1A70     		strb	r2, [r3, #0]
 1623              		.loc 1 1016 0
 1624 016e 9DF91730 		ldrsb	r3, [sp, #23]
 1625 0172 4FEA0313 		lsl	r3, r3, #4
 1626 0176 03F10802 		add	r2, r3, #8
 1627 017a 40F20003 		movw	r3, #:lower16:arp_table
 1628 017e C0F20003 		movt	r3, #:upper16:arp_table
 1629 0182 D318     		adds	r3, r2, r3
 1630 0184 0398     		ldr	r0, [sp, #12]
 1631 0186 0199     		ldr	r1, [sp, #4]
 1632 0188 069A     		ldr	r2, [sp, #24]
 1633 018a FFF7FEFF 		bl	etharp_send_ip
 1634 018e 0346     		mov	r3, r0
 1635 0190 8DF82730 		strb	r3, [sp, #39]
 1636 0194 8FE0     		b	.L85
 1637              	.L84:
 1638              		.loc 1 1018 0
ARM GAS  /tmp/ccLoOG9f.s 			page 30


 1639 0196 9DF91720 		ldrsb	r2, [sp, #23]
 1640 019a 40F20003 		movw	r3, #:lower16:arp_table
 1641 019e C0F20003 		movt	r3, #:upper16:arp_table
 1642 01a2 4FEA0212 		lsl	r2, r2, #4
 1643 01a6 9B18     		adds	r3, r3, r2
 1644 01a8 03F10803 		add	r3, r3, #8
 1645 01ac 9B79     		ldrb	r3, [r3, #6]	@ zero_extendqisi2
 1646 01ae 012B     		cmp	r3, #1
 1647 01b0 40F08180 		bne	.L85
 1648              	.LBB5:
 1649              		.loc 1 1021 0
 1650 01b4 4FF00003 		mov	r3, #0
 1651 01b8 0793     		str	r3, [sp, #28]
 1652              		.loc 1 1025 0
 1653 01ba 019B     		ldr	r3, [sp, #4]
 1654 01bc 0893     		str	r3, [sp, #32]
 1655              		.loc 1 1026 0
 1656 01be 16E0     		b	.L86
 1657              	.L90:
 1658              		.loc 1 1027 0
 1659 01c0 089B     		ldr	r3, [sp, #32]
 1660 01c2 5A89     		ldrh	r2, [r3, #10]
 1661 01c4 089B     		ldr	r3, [sp, #32]
 1662 01c6 1B89     		ldrh	r3, [r3, #8]
 1663 01c8 9A42     		cmp	r2, r3
 1664 01ca 05D1     		bne	.L87
 1665              		.loc 1 1027 0 is_stmt 0 discriminator 1
 1666 01cc 089B     		ldr	r3, [sp, #32]
 1667 01ce 1B68     		ldr	r3, [r3, #0]
 1668 01d0 002B     		cmp	r3, #0
 1669 01d2 01D0     		beq	.L87
 1670              		.loc 1 1027 0 discriminator 2
 1671 01d4 FFF7FEFF 		bl	port_halt
 1672              	.L87:
 1673              		.loc 1 1028 0 is_stmt 1
 1674 01d8 089B     		ldr	r3, [sp, #32]
 1675 01da 1B7B     		ldrb	r3, [r3, #12]	@ zero_extendqisi2
 1676 01dc 012B     		cmp	r3, #1
 1677 01de 03D0     		beq	.L88
 1678              		.loc 1 1029 0
 1679 01e0 4FF00103 		mov	r3, #1
 1680 01e4 0793     		str	r3, [sp, #28]
 1681              		.loc 1 1030 0
 1682 01e6 05E0     		b	.L89
 1683              	.L88:
 1684              		.loc 1 1032 0
 1685 01e8 089B     		ldr	r3, [sp, #32]
 1686 01ea 1B68     		ldr	r3, [r3, #0]
 1687 01ec 0893     		str	r3, [sp, #32]
 1688              	.L86:
 1689              		.loc 1 1026 0 discriminator 1
 1690 01ee 089B     		ldr	r3, [sp, #32]
 1691 01f0 002B     		cmp	r3, #0
 1692 01f2 E5D1     		bne	.L90
 1693              	.L89:
 1694              		.loc 1 1034 0
 1695 01f4 079B     		ldr	r3, [sp, #28]
ARM GAS  /tmp/ccLoOG9f.s 			page 31


 1696 01f6 002B     		cmp	r3, #0
 1697 01f8 1BD0     		beq	.L91
 1698              		.loc 1 1036 0
 1699 01fa 089B     		ldr	r3, [sp, #32]
 1700 01fc 1B89     		ldrh	r3, [r3, #8]
 1701 01fe 4FF00300 		mov	r0, #3
 1702 0202 1946     		mov	r1, r3
 1703 0204 4FF00002 		mov	r2, #0
 1704 0208 FFF7FEFF 		bl	pbuf_alloc
 1705 020c 0346     		mov	r3, r0
 1706 020e 0893     		str	r3, [sp, #32]
 1707              		.loc 1 1037 0
 1708 0210 089B     		ldr	r3, [sp, #32]
 1709 0212 002B     		cmp	r3, #0
 1710 0214 12D0     		beq	.L92
 1711              		.loc 1 1038 0
 1712 0216 0898     		ldr	r0, [sp, #32]
 1713 0218 0199     		ldr	r1, [sp, #4]
 1714 021a FFF7FEFF 		bl	pbuf_copy
 1715 021e 0346     		mov	r3, r0
 1716 0220 002B     		cmp	r3, #0
 1717 0222 0BD0     		beq	.L92
 1718              		.loc 1 1039 0
 1719 0224 0898     		ldr	r0, [sp, #32]
 1720 0226 FFF7FEFF 		bl	pbuf_free
 1721              		.loc 1 1040 0
 1722 022a 4FF00003 		mov	r3, #0
 1723 022e 0893     		str	r3, [sp, #32]
 1724 0230 04E0     		b	.L92
 1725              	.L91:
 1726              		.loc 1 1045 0
 1727 0232 019B     		ldr	r3, [sp, #4]
 1728 0234 0893     		str	r3, [sp, #32]
 1729              		.loc 1 1046 0
 1730 0236 0898     		ldr	r0, [sp, #32]
 1731 0238 FFF7FEFF 		bl	pbuf_ref
 1732              	.L92:
 1733              		.loc 1 1049 0
 1734 023c 089B     		ldr	r3, [sp, #32]
 1735 023e 002B     		cmp	r3, #0
 1736 0240 28D0     		beq	.L93
 1737              		.loc 1 1080 0
 1738 0242 9DF91720 		ldrsb	r2, [sp, #23]
 1739 0246 40F20003 		movw	r3, #:lower16:arp_table
 1740 024a C0F20003 		movt	r3, #:upper16:arp_table
 1741 024e 4FEA0212 		lsl	r2, r2, #4
 1742 0252 9B18     		adds	r3, r3, r2
 1743 0254 1B68     		ldr	r3, [r3, #0]
 1744 0256 002B     		cmp	r3, #0
 1745 0258 0CD0     		beq	.L94
 1746              		.loc 1 1082 0
 1747 025a 9DF91720 		ldrsb	r2, [sp, #23]
 1748 025e 40F20003 		movw	r3, #:lower16:arp_table
 1749 0262 C0F20003 		movt	r3, #:upper16:arp_table
 1750 0266 4FEA0212 		lsl	r2, r2, #4
 1751 026a 9B18     		adds	r3, r3, r2
 1752 026c 1B68     		ldr	r3, [r3, #0]
ARM GAS  /tmp/ccLoOG9f.s 			page 32


 1753 026e 1846     		mov	r0, r3
 1754 0270 FFF7FEFF 		bl	pbuf_free
 1755              	.L94:
 1756              		.loc 1 1084 0
 1757 0274 9DF91720 		ldrsb	r2, [sp, #23]
 1758 0278 40F20003 		movw	r3, #:lower16:arp_table
 1759 027c C0F20003 		movt	r3, #:upper16:arp_table
 1760 0280 4FEA0212 		lsl	r2, r2, #4
 1761 0284 9B18     		adds	r3, r3, r2
 1762 0286 089A     		ldr	r2, [sp, #32]
 1763 0288 1A60     		str	r2, [r3, #0]
 1764              		.loc 1 1085 0
 1765 028a 4FF00003 		mov	r3, #0
 1766 028e 8DF82730 		strb	r3, [sp, #39]
 1767 0292 10E0     		b	.L85
 1768              	.L93:
 1769              		.loc 1 1089 0
 1770 0294 40F20003 		movw	r3, #:lower16:lwip_stats
 1771 0298 C0F20003 		movt	r3, #:upper16:lwip_stats
 1772 029c 9B8C     		ldrh	r3, [r3, #36]
 1773 029e 03F10103 		add	r3, r3, #1
 1774 02a2 9AB2     		uxth	r2, r3
 1775 02a4 40F20003 		movw	r3, #:lower16:lwip_stats
 1776 02a8 C0F20003 		movt	r3, #:upper16:lwip_stats
 1777 02ac 9A84     		strh	r2, [r3, #36]	@ movhi
 1778              		.loc 1 1091 0
 1779 02ae 4FF0FF03 		mov	r3, #255
 1780 02b2 8DF82730 		strb	r3, [sp, #39]
 1781              	.L85:
 1782              	.LBE5:
 1783              		.loc 1 1094 0
 1784 02b6 9DF82730 		ldrb	r3, [sp, #39]	@ zero_extendqisi2
 1785              	.L76:
 1786 02ba 5BB2     		sxtb	r3, r3
 1787              		.loc 1 1095 0
 1788 02bc 1846     		mov	r0, r3
 1789 02be 0BB0     		add	sp, sp, #44
 1790 02c0 00BD     		pop	{pc}
 1791              		.cfi_endproc
 1792              	.LFE15:
 1793              		.size	etharp_query, .-etharp_query
 1794 02c2 00BFAFF3 		.section	.text.etharp_raw,"ax",%progbits
 1794      0080AFF3 
 1794      0080AFF3 
 1794      0080
 1795              		.align	2
 1796              		.p2align 4,,15
 1797              		.thumb
 1798              		.thumb_func
 1799              		.type	etharp_raw, %function
 1800              	etharp_raw:
 1801              	.LFB16:
 1802              		.loc 1 1121 0
 1803              		.cfi_startproc
 1804              		@ args = 16, pretend = 0, frame = 32
 1805              		@ frame_needed = 0, uses_anonymous_args = 0
 1806 0000 00B5     		push	{lr}
ARM GAS  /tmp/ccLoOG9f.s 			page 33


 1807              	.LCFI18:
 1808              		.cfi_def_cfa_offset 4
 1809              		.cfi_offset 14, -4
 1810 0002 89B0     		sub	sp, sp, #36
 1811              	.LCFI19:
 1812              		.cfi_def_cfa_offset 40
 1813 0004 0390     		str	r0, [sp, #12]
 1814 0006 0291     		str	r1, [sp, #8]
 1815 0008 0192     		str	r2, [sp, #4]
 1816 000a 0093     		str	r3, [sp, #0]
 1817              		.loc 1 1123 0
 1818 000c 4FF00003 		mov	r3, #0
 1819 0010 8DF81F30 		strb	r3, [sp, #31]
 1820              		.loc 1 1131 0
 1821 0014 4FF00300 		mov	r0, #3
 1822 0018 4FF02A01 		mov	r1, #42
 1823 001c 4FF00002 		mov	r2, #0
 1824 0020 FFF7FEFF 		bl	pbuf_alloc
 1825 0024 0346     		mov	r3, r0
 1826 0026 0693     		str	r3, [sp, #24]
 1827              		.loc 1 1133 0
 1828 0028 069B     		ldr	r3, [sp, #24]
 1829 002a 002B     		cmp	r3, #0
 1830 002c 0FD1     		bne	.L96
 1831              		.loc 1 1136 0
 1832 002e 40F20003 		movw	r3, #:lower16:lwip_stats
 1833 0032 C0F20003 		movt	r3, #:upper16:lwip_stats
 1834 0036 9B8C     		ldrh	r3, [r3, #36]
 1835 0038 03F10103 		add	r3, r3, #1
 1836 003c 9AB2     		uxth	r2, r3
 1837 003e 40F20003 		movw	r3, #:lower16:lwip_stats
 1838 0042 C0F20003 		movt	r3, #:upper16:lwip_stats
 1839 0046 9A84     		strh	r2, [r3, #36]	@ movhi
 1840              		.loc 1 1137 0
 1841 0048 4FF0FF03 		mov	r3, #255
 1842 004c AAE0     		b	.L97
 1843              	.L96:
 1844              		.loc 1 1139 0
 1845 004e 069B     		ldr	r3, [sp, #24]
 1846 0050 5B89     		ldrh	r3, [r3, #10]
 1847 0052 292B     		cmp	r3, #41
 1848 0054 01D8     		bhi	.L98
 1849              		.loc 1 1139 0 is_stmt 0 discriminator 1
 1850 0056 FFF7FEFF 		bl	port_halt
 1851              	.L98:
 1852              		.loc 1 1142 0 is_stmt 1
 1853 005a 069B     		ldr	r3, [sp, #24]
 1854 005c 5B68     		ldr	r3, [r3, #4]
 1855 005e 0593     		str	r3, [sp, #20]
 1856              		.loc 1 1143 0
 1857 0060 059B     		ldr	r3, [sp, #20]
 1858 0062 03F10E03 		add	r3, r3, #14
 1859 0066 0493     		str	r3, [sp, #16]
 1860              		.loc 1 1145 0
 1861 0068 BDF83430 		ldrh	r3, [sp, #52]
 1862 006c 1846     		mov	r0, r3
 1863 006e FFF7FEFF 		bl	lwip_htons
ARM GAS  /tmp/ccLoOG9f.s 			page 34


 1864 0072 0346     		mov	r3, r0
 1865 0074 1A46     		mov	r2, r3
 1866 0076 049B     		ldr	r3, [sp, #16]
 1867 0078 DA80     		strh	r2, [r3, #6]	@ unaligned
 1868              		.loc 1 1147 0
 1869 007a 039B     		ldr	r3, [sp, #12]
 1870 007c 93F82230 		ldrb	r3, [r3, #34]	@ zero_extendqisi2
 1871 0080 062B     		cmp	r3, #6
 1872 0082 01D0     		beq	.L99
 1873              		.loc 1 1147 0 is_stmt 0 discriminator 1
 1874 0084 FFF7FEFF 		bl	port_halt
 1875              	.L99:
 1876              		.loc 1 1156 0 is_stmt 1
 1877 0088 049B     		ldr	r3, [sp, #16]
 1878 008a 03F10802 		add	r2, r3, #8
 1879 008e 009B     		ldr	r3, [sp, #0]
 1880 0090 1146     		mov	r1, r2
 1881 0092 1A46     		mov	r2, r3
 1882 0094 4FF00603 		mov	r3, #6
 1883 0098 0846     		mov	r0, r1
 1884 009a 1146     		mov	r1, r2
 1885 009c 1A46     		mov	r2, r3
 1886 009e FFF7FEFF 		bl	memcpy
 1887              		.loc 1 1157 0
 1888 00a2 049B     		ldr	r3, [sp, #16]
 1889 00a4 03F11202 		add	r2, r3, #18
 1890 00a8 0B9B     		ldr	r3, [sp, #44]
 1891 00aa 1146     		mov	r1, r2
 1892 00ac 1A46     		mov	r2, r3
 1893 00ae 4FF00603 		mov	r3, #6
 1894 00b2 0846     		mov	r0, r1
 1895 00b4 1146     		mov	r1, r2
 1896 00b6 1A46     		mov	r2, r3
 1897 00b8 FFF7FEFF 		bl	memcpy
 1898              		.loc 1 1162 0
 1899 00bc 059A     		ldr	r2, [sp, #20]
 1900 00be 019B     		ldr	r3, [sp, #4]
 1901 00c0 1146     		mov	r1, r2
 1902 00c2 1A46     		mov	r2, r3
 1903 00c4 4FF00603 		mov	r3, #6
 1904 00c8 0846     		mov	r0, r1
 1905 00ca 1146     		mov	r1, r2
 1906 00cc 1A46     		mov	r2, r3
 1907 00ce FFF7FEFF 		bl	memcpy
 1908              		.loc 1 1164 0
 1909 00d2 059B     		ldr	r3, [sp, #20]
 1910 00d4 03F10602 		add	r2, r3, #6
 1911 00d8 029B     		ldr	r3, [sp, #8]
 1912 00da 1146     		mov	r1, r2
 1913 00dc 1A46     		mov	r2, r3
 1914 00de 4FF00603 		mov	r3, #6
 1915 00e2 0846     		mov	r0, r1
 1916 00e4 1146     		mov	r1, r2
 1917 00e6 1A46     		mov	r2, r3
 1918 00e8 FFF7FEFF 		bl	memcpy
 1919              		.loc 1 1167 0
 1920 00ec 049B     		ldr	r3, [sp, #16]
ARM GAS  /tmp/ccLoOG9f.s 			page 35


 1921 00ee 03F10E02 		add	r2, r3, #14
 1922 00f2 0A9B     		ldr	r3, [sp, #40]
 1923 00f4 1146     		mov	r1, r2
 1924 00f6 1A46     		mov	r2, r3
 1925 00f8 4FF00403 		mov	r3, #4
 1926 00fc 0846     		mov	r0, r1
 1927 00fe 1146     		mov	r1, r2
 1928 0100 1A46     		mov	r2, r3
 1929 0102 FFF7FEFF 		bl	memcpy
 1930              		.loc 1 1168 0
 1931 0106 049B     		ldr	r3, [sp, #16]
 1932 0108 03F11802 		add	r2, r3, #24
 1933 010c 0C9B     		ldr	r3, [sp, #48]
 1934 010e 1146     		mov	r1, r2
 1935 0110 1A46     		mov	r2, r3
 1936 0112 4FF00403 		mov	r3, #4
 1937 0116 0846     		mov	r0, r1
 1938 0118 1146     		mov	r1, r2
 1939 011a 1A46     		mov	r2, r3
 1940 011c FFF7FEFF 		bl	memcpy
 1941              		.loc 1 1170 0
 1942 0120 049B     		ldr	r3, [sp, #16]
 1943 0122 4FF00002 		mov	r2, #0
 1944 0126 1A70     		strb	r2, [r3, #0]
 1945 0128 4FF00002 		mov	r2, #0
 1946 012c 42F00102 		orr	r2, r2, #1
 1947 0130 5A70     		strb	r2, [r3, #1]
 1948              		.loc 1 1171 0
 1949 0132 049B     		ldr	r3, [sp, #16]
 1950 0134 4FF00002 		mov	r2, #0
 1951 0138 42F00802 		orr	r2, r2, #8
 1952 013c 9A70     		strb	r2, [r3, #2]
 1953 013e 4FF00002 		mov	r2, #0
 1954 0142 DA70     		strb	r2, [r3, #3]
 1955              		.loc 1 1173 0
 1956 0144 049B     		ldr	r3, [sp, #16]
 1957 0146 4FF00602 		mov	r2, #6
 1958 014a 1A71     		strb	r2, [r3, #4]
 1959              		.loc 1 1174 0
 1960 014c 049B     		ldr	r3, [sp, #16]
 1961 014e 4FF00402 		mov	r2, #4
 1962 0152 5A71     		strb	r2, [r3, #5]
 1963              		.loc 1 1176 0
 1964 0154 059B     		ldr	r3, [sp, #20]
 1965 0156 4FF00002 		mov	r2, #0
 1966 015a 42F00802 		orr	r2, r2, #8
 1967 015e 1A73     		strb	r2, [r3, #12]
 1968 0160 4FF00002 		mov	r2, #0
 1969 0164 42F00602 		orr	r2, r2, #6
 1970 0168 5A73     		strb	r2, [r3, #13]
 1971              		.loc 1 1178 0
 1972 016a 039B     		ldr	r3, [sp, #12]
 1973 016c 9B69     		ldr	r3, [r3, #24]
 1974 016e 0398     		ldr	r0, [sp, #12]
 1975 0170 0699     		ldr	r1, [sp, #24]
 1976 0172 9847     		blx	r3
 1977 0174 0346     		mov	r3, r0
ARM GAS  /tmp/ccLoOG9f.s 			page 36


 1978 0176 8DF81F30 		strb	r3, [sp, #31]
 1979              		.loc 1 1179 0
 1980 017a 40F20003 		movw	r3, #:lower16:lwip_stats
 1981 017e C0F20003 		movt	r3, #:upper16:lwip_stats
 1982 0182 1B8B     		ldrh	r3, [r3, #24]
 1983 0184 03F10103 		add	r3, r3, #1
 1984 0188 9AB2     		uxth	r2, r3
 1985 018a 40F20003 		movw	r3, #:lower16:lwip_stats
 1986 018e C0F20003 		movt	r3, #:upper16:lwip_stats
 1987 0192 1A83     		strh	r2, [r3, #24]	@ movhi
 1988              		.loc 1 1181 0
 1989 0194 0698     		ldr	r0, [sp, #24]
 1990 0196 FFF7FEFF 		bl	pbuf_free
 1991              		.loc 1 1182 0
 1992 019a 4FF00003 		mov	r3, #0
 1993 019e 0693     		str	r3, [sp, #24]
 1994              		.loc 1 1185 0
 1995 01a0 9DF81F30 		ldrb	r3, [sp, #31]	@ zero_extendqisi2
 1996              	.L97:
 1997 01a4 5BB2     		sxtb	r3, r3
 1998              		.loc 1 1186 0
 1999 01a6 1846     		mov	r0, r3
 2000 01a8 09B0     		add	sp, sp, #36
 2001 01aa 00BD     		pop	{pc}
 2002              		.cfi_endproc
 2003              	.LFE16:
 2004              		.size	etharp_raw, .-etharp_raw
 2005 01ac AFF30080 		.section	.text.etharp_request,"ax",%progbits
 2006              		.align	2
 2007              		.p2align 4,,15
 2008              		.global	etharp_request
 2009              		.thumb
 2010              		.thumb_func
 2011              		.type	etharp_request, %function
 2012              	etharp_request:
 2013              	.LFB17:
 2014              		.loc 1 1199 0
 2015              		.cfi_startproc
 2016              		@ args = 0, pretend = 0, frame = 8
 2017              		@ frame_needed = 0, uses_anonymous_args = 0
 2018 0000 10B5     		push	{r4, lr}
 2019              	.LCFI20:
 2020              		.cfi_def_cfa_offset 8
 2021              		.cfi_offset 14, -4
 2022              		.cfi_offset 4, -8
 2023 0002 86B0     		sub	sp, sp, #24
 2024              	.LCFI21:
 2025              		.cfi_def_cfa_offset 32
 2026 0004 0590     		str	r0, [sp, #20]
 2027 0006 0491     		str	r1, [sp, #16]
 2028              		.loc 1 1201 0
 2029 0008 059B     		ldr	r3, [sp, #20]
 2030 000a 03F12302 		add	r2, r3, #35
 2031              		.loc 1 1202 0
 2032 000e 059B     		ldr	r3, [sp, #20]
 2033 0010 03F12304 		add	r4, r3, #35
 2034 0014 059B     		ldr	r3, [sp, #20]
ARM GAS  /tmp/ccLoOG9f.s 			page 37


 2035 0016 03F10403 		add	r3, r3, #4
 2036              		.loc 1 1201 0
 2037 001a 0093     		str	r3, [sp, #0]
 2038 001c 40F20003 		movw	r3, #:lower16:ethzero
 2039 0020 C0F20003 		movt	r3, #:upper16:ethzero
 2040 0024 0193     		str	r3, [sp, #4]
 2041 0026 049B     		ldr	r3, [sp, #16]
 2042 0028 0293     		str	r3, [sp, #8]
 2043 002a 4FF00103 		mov	r3, #1
 2044 002e 0393     		str	r3, [sp, #12]
 2045 0030 0598     		ldr	r0, [sp, #20]
 2046 0032 1146     		mov	r1, r2
 2047 0034 40F20002 		movw	r2, #:lower16:ethbroadcast
 2048 0038 C0F20002 		movt	r2, #:upper16:ethbroadcast
 2049 003c 2346     		mov	r3, r4
 2050 003e FFF7FEFF 		bl	etharp_raw
 2051 0042 0346     		mov	r3, r0
 2052              		.loc 1 1204 0
 2053 0044 1846     		mov	r0, r3
 2054 0046 06B0     		add	sp, sp, #24
 2055 0048 10BD     		pop	{r4, pc}
 2056              		.cfi_endproc
 2057              	.LFE17:
 2058              		.size	etharp_request, .-etharp_request
 2059 004a 00BFAFF3 		.section	.text.ethernet_input,"ax",%progbits
 2059      0080
 2060              		.align	2
 2061              		.p2align 4,,15
 2062              		.global	ethernet_input
 2063              		.thumb
 2064              		.thumb_func
 2065              		.type	ethernet_input, %function
 2066              	ethernet_input:
 2067              	.LFB18:
 2068              		.loc 1 1217 0
 2069              		.cfi_startproc
 2070              		@ args = 0, pretend = 0, frame = 24
 2071              		@ frame_needed = 0, uses_anonymous_args = 0
 2072 0000 00B5     		push	{lr}
 2073              	.LCFI22:
 2074              		.cfi_def_cfa_offset 4
 2075              		.cfi_offset 14, -4
 2076 0002 87B0     		sub	sp, sp, #28
 2077              	.LCFI23:
 2078              		.cfi_def_cfa_offset 32
 2079 0004 0190     		str	r0, [sp, #4]
 2080 0006 0091     		str	r1, [sp, #0]
 2081              		.loc 1 1220 0
 2082 0008 4FF00E03 		mov	r3, #14
 2083 000c ADF81630 		strh	r3, [sp, #22]	@ movhi
 2084              		.loc 1 1222 0
 2085 0010 019B     		ldr	r3, [sp, #4]
 2086 0012 5B89     		ldrh	r3, [r3, #10]
 2087 0014 0E2B     		cmp	r3, #14
 2088 0016 1AD8     		bhi	.L102
 2089              		.loc 1 1224 0
 2090 0018 40F20003 		movw	r3, #:lower16:lwip_stats
ARM GAS  /tmp/ccLoOG9f.s 			page 38


 2091 001c C0F20003 		movt	r3, #:upper16:lwip_stats
 2092 0020 1B8D     		ldrh	r3, [r3, #40]
 2093 0022 03F10103 		add	r3, r3, #1
 2094 0026 9AB2     		uxth	r2, r3
 2095 0028 40F20003 		movw	r3, #:lower16:lwip_stats
 2096 002c C0F20003 		movt	r3, #:upper16:lwip_stats
 2097 0030 1A85     		strh	r2, [r3, #40]	@ movhi
 2098              		.loc 1 1225 0
 2099 0032 40F20003 		movw	r3, #:lower16:lwip_stats
 2100 0036 C0F20003 		movt	r3, #:upper16:lwip_stats
 2101 003a DB8B     		ldrh	r3, [r3, #30]
 2102 003c 03F10103 		add	r3, r3, #1
 2103 0040 9AB2     		uxth	r2, r3
 2104 0042 40F20003 		movw	r3, #:lower16:lwip_stats
 2105 0046 C0F20003 		movt	r3, #:upper16:lwip_stats
 2106 004a DA83     		strh	r2, [r3, #30]	@ movhi
 2107              		.loc 1 1226 0
 2108 004c 60E0     		b	.L103
 2109              	.L102:
 2110              		.loc 1 1230 0
 2111 004e 019B     		ldr	r3, [sp, #4]
 2112 0050 5B68     		ldr	r3, [r3, #4]
 2113 0052 0493     		str	r3, [sp, #16]
 2114              		.loc 1 1239 0
 2115 0054 049B     		ldr	r3, [sp, #16]
 2116 0056 1A7B     		ldrb	r2, [r3, #12]	@ zero_extendqisi2
 2117 0058 5B7B     		ldrb	r3, [r3, #13]	@ zero_extendqisi2
 2118 005a 4FEA0323 		lsl	r3, r3, #8
 2119 005e 1343     		orrs	r3, r3, r2
 2120 0060 ADF80E30 		strh	r3, [sp, #14]	@ movhi
 2121              		.loc 1 1265 0
 2122 0064 BDF80E30 		ldrh	r3, [sp, #14]
 2123 0068 082B     		cmp	r3, #8
 2124 006a 03D0     		beq	.L105
 2125 006c B3F5C16F 		cmp	r3, #1544
 2126 0070 1DD0     		beq	.L106
 2127 0072 2CE0     		b	.L112
 2128              	.L105:
 2129              		.loc 1 1269 0
 2130 0074 009B     		ldr	r3, [sp, #0]
 2131 0076 93F82930 		ldrb	r3, [r3, #41]	@ zero_extendqisi2
 2132 007a 03F02003 		and	r3, r3, #32
 2133 007e 002B     		cmp	r3, #0
 2134 0080 43D0     		beq	.L113
 2135              	.L107:
 2136              		.loc 1 1277 0
 2137 0082 BDF81630 		ldrh	r3, [sp, #22]
 2138 0086 C3F10003 		rsb	r3, r3, #0
 2139 008a 9BB2     		uxth	r3, r3
 2140 008c 9BB2     		uxth	r3, r3
 2141 008e 1BB2     		sxth	r3, r3
 2142 0090 0198     		ldr	r0, [sp, #4]
 2143 0092 1946     		mov	r1, r3
 2144 0094 FFF7FEFF 		bl	pbuf_header
 2145 0098 0346     		mov	r3, r0
 2146 009a 002B     		cmp	r3, #0
 2147 009c 02D0     		beq	.L108
ARM GAS  /tmp/ccLoOG9f.s 			page 39


 2148              		.loc 1 1278 0 discriminator 1
 2149 009e FFF7FEFF 		bl	port_halt
 2150              		.loc 1 1279 0 discriminator 1
 2151 00a2 35E0     		b	.L103
 2152              	.L108:
 2153              		.loc 1 1282 0
 2154 00a4 0198     		ldr	r0, [sp, #4]
 2155 00a6 0099     		ldr	r1, [sp, #0]
 2156 00a8 FFF7FEFF 		bl	ip_input
 2157              		.loc 1 1284 0
 2158 00ac 2AE0     		b	.L109
 2159              	.L106:
 2160              		.loc 1 1287 0
 2161 00ae 009B     		ldr	r3, [sp, #0]
 2162 00b0 93F82930 		ldrb	r3, [r3, #41]	@ zero_extendqisi2
 2163 00b4 03F02003 		and	r3, r3, #32
 2164 00b8 002B     		cmp	r3, #0
 2165 00ba 28D0     		beq	.L114
 2166              	.L110:
 2167              		.loc 1 1291 0
 2168 00bc 009B     		ldr	r3, [sp, #0]
 2169 00be 03F12303 		add	r3, r3, #35
 2170 00c2 0098     		ldr	r0, [sp, #0]
 2171 00c4 1946     		mov	r1, r3
 2172 00c6 019A     		ldr	r2, [sp, #4]
 2173 00c8 FFF7FEFF 		bl	etharp_arp_input
 2174              		.loc 1 1292 0
 2175 00cc 1AE0     		b	.L109
 2176              	.L112:
 2177              		.loc 1 1305 0
 2178 00ce 40F20003 		movw	r3, #:lower16:lwip_stats
 2179 00d2 C0F20003 		movt	r3, #:upper16:lwip_stats
 2180 00d6 1B8D     		ldrh	r3, [r3, #40]
 2181 00d8 03F10103 		add	r3, r3, #1
 2182 00dc 9AB2     		uxth	r2, r3
 2183 00de 40F20003 		movw	r3, #:lower16:lwip_stats
 2184 00e2 C0F20003 		movt	r3, #:upper16:lwip_stats
 2185 00e6 1A85     		strh	r2, [r3, #40]	@ movhi
 2186              		.loc 1 1306 0
 2187 00e8 40F20003 		movw	r3, #:lower16:lwip_stats
 2188 00ec C0F20003 		movt	r3, #:upper16:lwip_stats
 2189 00f0 DB8B     		ldrh	r3, [r3, #30]
 2190 00f2 03F10103 		add	r3, r3, #1
 2191 00f6 9AB2     		uxth	r2, r3
 2192 00f8 40F20003 		movw	r3, #:lower16:lwip_stats
 2193 00fc C0F20003 		movt	r3, #:upper16:lwip_stats
 2194 0100 DA83     		strh	r2, [r3, #30]	@ movhi
 2195              		.loc 1 1307 0
 2196 0102 05E0     		b	.L103
 2197              	.L109:
 2198              		.loc 1 1312 0
 2199 0104 4FF00003 		mov	r3, #0
 2200 0108 07E0     		b	.L111
 2201              	.L113:
 2202              		.loc 1 1270 0
 2203 010a 00BF     		nop
 2204 010c 00E0     		b	.L103
ARM GAS  /tmp/ccLoOG9f.s 			page 40


 2205              	.L114:
 2206              		.loc 1 1288 0
 2207 010e 00BF     		nop
 2208              	.L103:
 2209              		.loc 1 1315 0
 2210 0110 0198     		ldr	r0, [sp, #4]
 2211 0112 FFF7FEFF 		bl	pbuf_free
 2212              		.loc 1 1316 0
 2213 0116 4FF00003 		mov	r3, #0
 2214              	.L111:
 2215 011a 5BB2     		sxtb	r3, r3
 2216              		.loc 1 1317 0
 2217 011c 1846     		mov	r0, r3
 2218 011e 07B0     		add	sp, sp, #28
 2219 0120 00BD     		pop	{pc}
 2220              		.cfi_endproc
 2221              	.LFE18:
 2222              		.size	ethernet_input, .-ethernet_input
 2223 0122 00BFAFF3 		.text
 2223      0080AFF3 
 2223      0080AFF3 
 2223      0080
 2224              	.Letext0:
 2225              		.file 2 "/home/texzk/ChibiStudio/tools/GNU Tools ARM Embedded/4.6 2012q2/bin/../lib/gcc/arm-none-e
 2226              		.file 3 "../../os/various/lwip_bindings/arch/cc.h"
 2227              		.file 4 "../../ext/lwip/src/include/ipv4/lwip/ip_addr.h"
 2228              		.file 5 "../../ext/lwip/src/include/lwip/err.h"
 2229              		.file 6 "../../ext/lwip/src/include/lwip/pbuf.h"
 2230              		.file 7 "../../ext/lwip/src/include/lwip/netif.h"
 2231              		.file 8 "../../ext/lwip/src/include/lwip/mem.h"
 2232              		.file 9 "../../ext/lwip/src/include/lwip/memp.h"
 2233              		.file 10 "../../ext/lwip/src/include/lwip/stats.h"
 2234              		.file 11 "../../ext/lwip/src/include/netif/etharp.h"
 2235              		.section	.debug_info,"",%progbits
 2236              	.Ldebug_info0:
 2237 0000 980D0000 		.4byte	0xd98
 2238 0004 0200     		.2byte	0x2
 2239 0006 00000000 		.4byte	.Ldebug_abbrev0
 2240 000a 04       		.byte	0x4
 2241 000b 01       		.uleb128 0x1
 2242 000c 55030000 		.4byte	.LASF151
 2243 0010 01       		.byte	0x1
 2244 0011 CB000000 		.4byte	.LASF152
 2245 0015 D0010000 		.4byte	.LASF153
 2246 0019 00000000 		.4byte	0
 2247 001d 00000000 		.4byte	0
 2248 0021 00000000 		.4byte	.Ldebug_ranges0+0
 2249 0025 00000000 		.4byte	.Ldebug_line0
 2250 0029 02       		.uleb128 0x2
 2251 002a 04       		.byte	0x4
 2252 002b 05       		.byte	0x5
 2253 002c 696E7400 		.ascii	"int\000"
 2254 0030 03       		.uleb128 0x3
 2255 0031 04       		.byte	0x4
 2256 0032 07       		.byte	0x7
 2257 0033 71000000 		.4byte	.LASF0
 2258 0037 04       		.uleb128 0x4
ARM GAS  /tmp/ccLoOG9f.s 			page 41


 2259 0038 58010000 		.4byte	.LASF2
 2260 003c 02       		.byte	0x2
 2261 003d 29       		.byte	0x29
 2262 003e 42000000 		.4byte	0x42
 2263 0042 03       		.uleb128 0x3
 2264 0043 01       		.byte	0x1
 2265 0044 06       		.byte	0x6
 2266 0045 71060000 		.4byte	.LASF1
 2267 0049 04       		.uleb128 0x4
 2268 004a AD030000 		.4byte	.LASF3
 2269 004e 02       		.byte	0x2
 2270 004f 2A       		.byte	0x2a
 2271 0050 54000000 		.4byte	0x54
 2272 0054 03       		.uleb128 0x3
 2273 0055 01       		.byte	0x1
 2274 0056 08       		.byte	0x8
 2275 0057 FC050000 		.4byte	.LASF4
 2276 005b 04       		.uleb128 0x4
 2277 005c 8F010000 		.4byte	.LASF5
 2278 0060 02       		.byte	0x2
 2279 0061 35       		.byte	0x35
 2280 0062 66000000 		.4byte	0x66
 2281 0066 03       		.uleb128 0x3
 2282 0067 02       		.byte	0x2
 2283 0068 05       		.byte	0x5
 2284 0069 D0040000 		.4byte	.LASF6
 2285 006d 04       		.uleb128 0x4
 2286 006e 97040000 		.4byte	.LASF7
 2287 0072 02       		.byte	0x2
 2288 0073 36       		.byte	0x36
 2289 0074 78000000 		.4byte	0x78
 2290 0078 03       		.uleb128 0x3
 2291 0079 02       		.byte	0x2
 2292 007a 07       		.byte	0x7
 2293 007b 7D060000 		.4byte	.LASF8
 2294 007f 03       		.uleb128 0x3
 2295 0080 04       		.byte	0x4
 2296 0081 05       		.byte	0x5
 2297 0082 DF040000 		.4byte	.LASF9
 2298 0086 04       		.uleb128 0x4
 2299 0087 4F010000 		.4byte	.LASF10
 2300 008b 02       		.byte	0x2
 2301 008c 50       		.byte	0x50
 2302 008d 91000000 		.4byte	0x91
 2303 0091 03       		.uleb128 0x3
 2304 0092 04       		.byte	0x4
 2305 0093 07       		.byte	0x7
 2306 0094 AB050000 		.4byte	.LASF11
 2307 0098 03       		.uleb128 0x3
 2308 0099 08       		.byte	0x8
 2309 009a 05       		.byte	0x5
 2310 009b EC030000 		.4byte	.LASF12
 2311 009f 03       		.uleb128 0x3
 2312 00a0 08       		.byte	0x8
 2313 00a1 07       		.byte	0x7
 2314 00a2 B9010000 		.4byte	.LASF13
 2315 00a6 05       		.uleb128 0x5
ARM GAS  /tmp/ccLoOG9f.s 			page 42


 2316 00a7 04       		.byte	0x4
 2317 00a8 03       		.uleb128 0x3
 2318 00a9 01       		.byte	0x1
 2319 00aa 08       		.byte	0x8
 2320 00ab 39030000 		.4byte	.LASF14
 2321 00af 04       		.uleb128 0x4
 2322 00b0 2E040000 		.4byte	.LASF15
 2323 00b4 03       		.byte	0x3
 2324 00b5 3C       		.byte	0x3c
 2325 00b6 49000000 		.4byte	0x49
 2326 00ba 04       		.uleb128 0x4
 2327 00bb A8020000 		.4byte	.LASF16
 2328 00bf 03       		.byte	0x3
 2329 00c0 3D       		.byte	0x3d
 2330 00c1 37000000 		.4byte	0x37
 2331 00c5 04       		.uleb128 0x4
 2332 00c6 AE000000 		.4byte	.LASF17
 2333 00ca 03       		.byte	0x3
 2334 00cb 3E       		.byte	0x3e
 2335 00cc 6D000000 		.4byte	0x6d
 2336 00d0 04       		.uleb128 0x4
 2337 00d1 D5050000 		.4byte	.LASF18
 2338 00d5 03       		.byte	0x3
 2339 00d6 3F       		.byte	0x3f
 2340 00d7 5B000000 		.4byte	0x5b
 2341 00db 04       		.uleb128 0x4
 2342 00dc CA040000 		.4byte	.LASF19
 2343 00e0 03       		.byte	0x3
 2344 00e1 40       		.byte	0x40
 2345 00e2 86000000 		.4byte	0x86
 2346 00e6 06       		.uleb128 0x6
 2347 00e7 C4060000 		.4byte	.LASF21
 2348 00eb 04       		.byte	0x4
 2349 00ec 04       		.byte	0x4
 2350 00ed 2C       		.byte	0x2c
 2351 00ee 01010000 		.4byte	0x101
 2352 00f2 07       		.uleb128 0x7
 2353 00f3 31060000 		.4byte	.LASF23
 2354 00f7 04       		.byte	0x4
 2355 00f8 2D       		.byte	0x2d
 2356 00f9 DB000000 		.4byte	0xdb
 2357 00fd 02       		.byte	0x2
 2358 00fe 23       		.byte	0x23
 2359 00ff 00       		.uleb128 0
 2360 0100 00       		.byte	0
 2361 0101 04       		.uleb128 0x4
 2362 0102 9B060000 		.4byte	.LASF20
 2363 0106 04       		.byte	0x4
 2364 0107 40       		.byte	0x40
 2365 0108 E6000000 		.4byte	0xe6
 2366 010c 06       		.uleb128 0x6
 2367 010d 8E040000 		.4byte	.LASF22
 2368 0111 04       		.byte	0x4
 2369 0112 04       		.byte	0x4
 2370 0113 4B       		.byte	0x4b
 2371 0114 27010000 		.4byte	0x127
 2372 0118 07       		.uleb128 0x7
ARM GAS  /tmp/ccLoOG9f.s 			page 43


 2373 0119 A8000000 		.4byte	.LASF24
 2374 011d 04       		.byte	0x4
 2375 011e 4C       		.byte	0x4c
 2376 011f 27010000 		.4byte	0x127
 2377 0123 02       		.byte	0x2
 2378 0124 23       		.byte	0x23
 2379 0125 00       		.uleb128 0
 2380 0126 00       		.byte	0
 2381 0127 08       		.uleb128 0x8
 2382 0128 C5000000 		.4byte	0xc5
 2383 012c 37010000 		.4byte	0x137
 2384 0130 09       		.uleb128 0x9
 2385 0131 30000000 		.4byte	0x30
 2386 0135 01       		.byte	0x1
 2387 0136 00       		.byte	0
 2388 0137 04       		.uleb128 0x4
 2389 0138 8F000000 		.4byte	.LASF25
 2390 013c 05       		.byte	0x5
 2391 013d 2F       		.byte	0x2f
 2392 013e BA000000 		.4byte	0xba
 2393 0142 0A       		.uleb128 0xa
 2394 0143 01       		.byte	0x1
 2395 0144 06       		.byte	0x6
 2396 0145 32       		.byte	0x32
 2397 0146 63010000 		.4byte	0x163
 2398 014a 0B       		.uleb128 0xb
 2399 014b 23010000 		.4byte	.LASF26
 2400 014f 00       		.sleb128 0
 2401 0150 0B       		.uleb128 0xb
 2402 0151 75020000 		.4byte	.LASF27
 2403 0155 01       		.sleb128 1
 2404 0156 0B       		.uleb128 0xb
 2405 0157 65040000 		.4byte	.LASF28
 2406 015b 02       		.sleb128 2
 2407 015c 0B       		.uleb128 0xb
 2408 015d 5C000000 		.4byte	.LASF29
 2409 0161 03       		.sleb128 3
 2410 0162 00       		.byte	0
 2411 0163 0A       		.uleb128 0xa
 2412 0164 01       		.byte	0x1
 2413 0165 06       		.byte	0x6
 2414 0166 39       		.byte	0x39
 2415 0167 84010000 		.4byte	0x184
 2416 016b 0B       		.uleb128 0xb
 2417 016c 53000000 		.4byte	.LASF30
 2418 0170 00       		.sleb128 0
 2419 0171 0B       		.uleb128 0xb
 2420 0172 A5060000 		.4byte	.LASF31
 2421 0176 01       		.sleb128 1
 2422 0177 0B       		.uleb128 0xb
 2423 0178 4E020000 		.4byte	.LASF32
 2424 017c 02       		.sleb128 2
 2425 017d 0B       		.uleb128 0xb
 2426 017e 95020000 		.4byte	.LASF33
 2427 0182 03       		.sleb128 3
 2428 0183 00       		.byte	0
 2429 0184 06       		.uleb128 0x6
ARM GAS  /tmp/ccLoOG9f.s 			page 44


 2430 0185 84020000 		.4byte	.LASF34
 2431 0189 10       		.byte	0x10
 2432 018a 06       		.byte	0x6
 2433 018b 49       		.byte	0x49
 2434 018c F3010000 		.4byte	0x1f3
 2435 0190 07       		.uleb128 0x7
 2436 0191 7E000000 		.4byte	.LASF35
 2437 0195 06       		.byte	0x6
 2438 0196 4B       		.byte	0x4b
 2439 0197 F3010000 		.4byte	0x1f3
 2440 019b 02       		.byte	0x2
 2441 019c 23       		.byte	0x23
 2442 019d 00       		.uleb128 0
 2443 019e 07       		.uleb128 0x7
 2444 019f 6D020000 		.4byte	.LASF36
 2445 01a3 06       		.byte	0x6
 2446 01a4 4E       		.byte	0x4e
 2447 01a5 A6000000 		.4byte	0xa6
 2448 01a9 02       		.byte	0x2
 2449 01aa 23       		.byte	0x23
 2450 01ab 04       		.uleb128 0x4
 2451 01ac 07       		.uleb128 0x7
 2452 01ad 5E020000 		.4byte	.LASF37
 2453 01b1 06       		.byte	0x6
 2454 01b2 57       		.byte	0x57
 2455 01b3 C5000000 		.4byte	0xc5
 2456 01b7 02       		.byte	0x2
 2457 01b8 23       		.byte	0x23
 2458 01b9 08       		.uleb128 0x8
 2459 01ba 0C       		.uleb128 0xc
 2460 01bb 6C656E00 		.ascii	"len\000"
 2461 01bf 06       		.byte	0x6
 2462 01c0 5A       		.byte	0x5a
 2463 01c1 C5000000 		.4byte	0xc5
 2464 01c5 02       		.byte	0x2
 2465 01c6 23       		.byte	0x23
 2466 01c7 0A       		.uleb128 0xa
 2467 01c8 07       		.uleb128 0x7
 2468 01c9 ED050000 		.4byte	.LASF38
 2469 01cd 06       		.byte	0x6
 2470 01ce 5D       		.byte	0x5d
 2471 01cf AF000000 		.4byte	0xaf
 2472 01d3 02       		.byte	0x2
 2473 01d4 23       		.byte	0x23
 2474 01d5 0C       		.uleb128 0xc
 2475 01d6 07       		.uleb128 0x7
 2476 01d7 65000000 		.4byte	.LASF39
 2477 01db 06       		.byte	0x6
 2478 01dc 60       		.byte	0x60
 2479 01dd AF000000 		.4byte	0xaf
 2480 01e1 02       		.byte	0x2
 2481 01e2 23       		.byte	0x23
 2482 01e3 0D       		.uleb128 0xd
 2483 01e4 0C       		.uleb128 0xc
 2484 01e5 72656600 		.ascii	"ref\000"
 2485 01e9 06       		.byte	0x6
 2486 01ea 67       		.byte	0x67
ARM GAS  /tmp/ccLoOG9f.s 			page 45


 2487 01eb C5000000 		.4byte	0xc5
 2488 01ef 02       		.byte	0x2
 2489 01f0 23       		.byte	0x23
 2490 01f1 0E       		.uleb128 0xe
 2491 01f2 00       		.byte	0
 2492 01f3 0D       		.uleb128 0xd
 2493 01f4 04       		.byte	0x4
 2494 01f5 84010000 		.4byte	0x184
 2495 01f9 0D       		.uleb128 0xd
 2496 01fa 04       		.byte	0x4
 2497 01fb FF010000 		.4byte	0x1ff
 2498 01ff 06       		.uleb128 0x6
 2499 0200 4C060000 		.4byte	.LASF40
 2500 0204 30       		.byte	0x30
 2501 0205 07       		.byte	0x7
 2502 0206 88       		.byte	0x88
 2503 0207 CF020000 		.4byte	0x2cf
 2504 020b 07       		.uleb128 0x7
 2505 020c 7E000000 		.4byte	.LASF35
 2506 0210 07       		.byte	0x7
 2507 0211 8A       		.byte	0x8a
 2508 0212 F9010000 		.4byte	0x1f9
 2509 0216 02       		.byte	0x2
 2510 0217 23       		.byte	0x23
 2511 0218 00       		.uleb128 0
 2512 0219 07       		.uleb128 0x7
 2513 021a C4060000 		.4byte	.LASF21
 2514 021e 07       		.byte	0x7
 2515 021f 8D       		.byte	0x8d
 2516 0220 01010000 		.4byte	0x101
 2517 0224 02       		.byte	0x2
 2518 0225 23       		.byte	0x23
 2519 0226 04       		.uleb128 0x4
 2520 0227 07       		.uleb128 0x7
 2521 0228 E4030000 		.4byte	.LASF41
 2522 022c 07       		.byte	0x7
 2523 022d 8E       		.byte	0x8e
 2524 022e 01010000 		.4byte	0x101
 2525 0232 02       		.byte	0x2
 2526 0233 23       		.byte	0x23
 2527 0234 08       		.uleb128 0x8
 2528 0235 0C       		.uleb128 0xc
 2529 0236 677700   		.ascii	"gw\000"
 2530 0239 07       		.byte	0x7
 2531 023a 8F       		.byte	0x8f
 2532 023b 01010000 		.4byte	0x101
 2533 023f 02       		.byte	0x2
 2534 0240 23       		.byte	0x23
 2535 0241 0C       		.uleb128 0xc
 2536 0242 07       		.uleb128 0x7
 2537 0243 30000000 		.4byte	.LASF42
 2538 0247 07       		.byte	0x7
 2539 0248 93       		.byte	0x93
 2540 0249 CF020000 		.4byte	0x2cf
 2541 024d 02       		.byte	0x2
 2542 024e 23       		.byte	0x23
 2543 024f 10       		.uleb128 0x10
ARM GAS  /tmp/ccLoOG9f.s 			page 46


 2544 0250 07       		.uleb128 0x7
 2545 0251 7D020000 		.4byte	.LASF43
 2546 0255 07       		.byte	0x7
 2547 0256 97       		.byte	0x97
 2548 0257 F5020000 		.4byte	0x2f5
 2549 025b 02       		.byte	0x2
 2550 025c 23       		.byte	0x23
 2551 025d 14       		.uleb128 0x14
 2552 025e 07       		.uleb128 0x7
 2553 025f 9D000000 		.4byte	.LASF44
 2554 0263 07       		.byte	0x7
 2555 0264 9B       		.byte	0x9b
 2556 0265 26030000 		.4byte	0x326
 2557 0269 02       		.byte	0x2
 2558 026a 23       		.byte	0x23
 2559 026b 18       		.uleb128 0x18
 2560 026c 07       		.uleb128 0x7
 2561 026d 3B060000 		.4byte	.LASF45
 2562 0271 07       		.byte	0x7
 2563 0272 A8       		.byte	0xa8
 2564 0273 A6000000 		.4byte	0xa6
 2565 0277 02       		.byte	0x2
 2566 0278 23       		.byte	0x23
 2567 0279 1C       		.uleb128 0x1c
 2568 027a 0C       		.uleb128 0xc
 2569 027b 6D747500 		.ascii	"mtu\000"
 2570 027f 07       		.byte	0x7
 2571 0280 B6       		.byte	0xb6
 2572 0281 C5000000 		.4byte	0xc5
 2573 0285 02       		.byte	0x2
 2574 0286 23       		.byte	0x23
 2575 0287 20       		.uleb128 0x20
 2576 0288 07       		.uleb128 0x7
 2577 0289 2E020000 		.4byte	.LASF46
 2578 028d 07       		.byte	0x7
 2579 028e B8       		.byte	0xb8
 2580 028f AF000000 		.4byte	0xaf
 2581 0293 02       		.byte	0x2
 2582 0294 23       		.byte	0x23
 2583 0295 22       		.uleb128 0x22
 2584 0296 07       		.uleb128 0x7
 2585 0297 AB010000 		.4byte	.LASF47
 2586 029b 07       		.byte	0x7
 2587 029c BA       		.byte	0xba
 2588 029d 4C030000 		.4byte	0x34c
 2589 02a1 02       		.byte	0x2
 2590 02a2 23       		.byte	0x23
 2591 02a3 23       		.uleb128 0x23
 2592 02a4 07       		.uleb128 0x7
 2593 02a5 65000000 		.4byte	.LASF39
 2594 02a9 07       		.byte	0x7
 2595 02aa BC       		.byte	0xbc
 2596 02ab AF000000 		.4byte	0xaf
 2597 02af 02       		.byte	0x2
 2598 02b0 23       		.byte	0x23
 2599 02b1 29       		.uleb128 0x29
 2600 02b2 07       		.uleb128 0x7
ARM GAS  /tmp/ccLoOG9f.s 			page 47


 2601 02b3 4B050000 		.4byte	.LASF48
 2602 02b7 07       		.byte	0x7
 2603 02b8 BE       		.byte	0xbe
 2604 02b9 5C030000 		.4byte	0x35c
 2605 02bd 02       		.byte	0x2
 2606 02be 23       		.byte	0x23
 2607 02bf 2A       		.uleb128 0x2a
 2608 02c0 0C       		.uleb128 0xc
 2609 02c1 6E756D00 		.ascii	"num\000"
 2610 02c5 07       		.byte	0x7
 2611 02c6 C0       		.byte	0xc0
 2612 02c7 AF000000 		.4byte	0xaf
 2613 02cb 02       		.byte	0x2
 2614 02cc 23       		.byte	0x23
 2615 02cd 2C       		.uleb128 0x2c
 2616 02ce 00       		.byte	0
 2617 02cf 04       		.uleb128 0x4
 2618 02d0 40010000 		.4byte	.LASF49
 2619 02d4 07       		.byte	0x7
 2620 02d5 6D       		.byte	0x6d
 2621 02d6 DA020000 		.4byte	0x2da
 2622 02da 0D       		.uleb128 0xd
 2623 02db 04       		.byte	0x4
 2624 02dc E0020000 		.4byte	0x2e0
 2625 02e0 0E       		.uleb128 0xe
 2626 02e1 01       		.byte	0x1
 2627 02e2 37010000 		.4byte	0x137
 2628 02e6 F5020000 		.4byte	0x2f5
 2629 02ea 0F       		.uleb128 0xf
 2630 02eb F3010000 		.4byte	0x1f3
 2631 02ef 0F       		.uleb128 0xf
 2632 02f0 F9010000 		.4byte	0x1f9
 2633 02f4 00       		.byte	0
 2634 02f5 04       		.uleb128 0x4
 2635 02f6 ED000000 		.4byte	.LASF50
 2636 02fa 07       		.byte	0x7
 2637 02fb 76       		.byte	0x76
 2638 02fc 00030000 		.4byte	0x300
 2639 0300 0D       		.uleb128 0xd
 2640 0301 04       		.byte	0x4
 2641 0302 06030000 		.4byte	0x306
 2642 0306 0E       		.uleb128 0xe
 2643 0307 01       		.byte	0x1
 2644 0308 37010000 		.4byte	0x137
 2645 030c 20030000 		.4byte	0x320
 2646 0310 0F       		.uleb128 0xf
 2647 0311 F9010000 		.4byte	0x1f9
 2648 0315 0F       		.uleb128 0xf
 2649 0316 F3010000 		.4byte	0x1f3
 2650 031a 0F       		.uleb128 0xf
 2651 031b 20030000 		.4byte	0x320
 2652 031f 00       		.byte	0
 2653 0320 0D       		.uleb128 0xd
 2654 0321 04       		.byte	0x4
 2655 0322 01010000 		.4byte	0x101
 2656 0326 04       		.uleb128 0x4
 2657 0327 50050000 		.4byte	.LASF51
ARM GAS  /tmp/ccLoOG9f.s 			page 48


 2658 032b 07       		.byte	0x7
 2659 032c 7E       		.byte	0x7e
 2660 032d 31030000 		.4byte	0x331
 2661 0331 0D       		.uleb128 0xd
 2662 0332 04       		.byte	0x4
 2663 0333 37030000 		.4byte	0x337
 2664 0337 0E       		.uleb128 0xe
 2665 0338 01       		.byte	0x1
 2666 0339 37010000 		.4byte	0x137
 2667 033d 4C030000 		.4byte	0x34c
 2668 0341 0F       		.uleb128 0xf
 2669 0342 F9010000 		.4byte	0x1f9
 2670 0346 0F       		.uleb128 0xf
 2671 0347 F3010000 		.4byte	0x1f3
 2672 034b 00       		.byte	0
 2673 034c 08       		.uleb128 0x8
 2674 034d AF000000 		.4byte	0xaf
 2675 0351 5C030000 		.4byte	0x35c
 2676 0355 09       		.uleb128 0x9
 2677 0356 30000000 		.4byte	0x30
 2678 035a 05       		.byte	0x5
 2679 035b 00       		.byte	0
 2680 035c 08       		.uleb128 0x8
 2681 035d A8000000 		.4byte	0xa8
 2682 0361 6C030000 		.4byte	0x36c
 2683 0365 09       		.uleb128 0x9
 2684 0366 30000000 		.4byte	0x30
 2685 036a 01       		.byte	0x1
 2686 036b 00       		.byte	0
 2687 036c 04       		.uleb128 0x4
 2688 036d 3E030000 		.4byte	.LASF52
 2689 0371 08       		.byte	0x8
 2690 0372 4B       		.byte	0x4b
 2691 0373 C5000000 		.4byte	0xc5
 2692 0377 0A       		.uleb128 0xa
 2693 0378 01       		.byte	0x1
 2694 0379 09       		.byte	0x9
 2695 037a 2B       		.byte	0x2b
 2696 037b DA030000 		.4byte	0x3da
 2697 037f 0B       		.uleb128 0xb
 2698 0380 88050000 		.4byte	.LASF53
 2699 0384 00       		.sleb128 0
 2700 0385 0B       		.uleb128 0xb
 2701 0386 05050000 		.4byte	.LASF54
 2702 038a 01       		.sleb128 1
 2703 038b 0B       		.uleb128 0xb
 2704 038c 1C040000 		.4byte	.LASF55
 2705 0390 02       		.sleb128 2
 2706 0391 0B       		.uleb128 0xb
 2707 0392 1C000000 		.4byte	.LASF56
 2708 0396 03       		.sleb128 3
 2709 0397 0B       		.uleb128 0xb
 2710 0398 11060000 		.4byte	.LASF57
 2711 039c 04       		.sleb128 4
 2712 039d 0B       		.uleb128 0xb
 2713 039e 56040000 		.4byte	.LASF58
 2714 03a2 05       		.sleb128 5
ARM GAS  /tmp/ccLoOG9f.s 			page 49


 2715 03a3 0B       		.uleb128 0xb
 2716 03a4 64050000 		.4byte	.LASF59
 2717 03a8 06       		.sleb128 6
 2718 03a9 0B       		.uleb128 0xb
 2719 03aa D8030000 		.4byte	.LASF60
 2720 03ae 07       		.sleb128 7
 2721 03af 0B       		.uleb128 0xb
 2722 03b0 DB020000 		.4byte	.LASF61
 2723 03b4 08       		.sleb128 8
 2724 03b5 0B       		.uleb128 0xb
 2725 03b6 5F010000 		.4byte	.LASF62
 2726 03ba 09       		.sleb128 9
 2727 03bb 0B       		.uleb128 0xb
 2728 03bc 39020000 		.4byte	.LASF63
 2729 03c0 0A       		.sleb128 10
 2730 03c1 0B       		.uleb128 0xb
 2731 03c2 F4040000 		.4byte	.LASF64
 2732 03c6 0B       		.sleb128 11
 2733 03c7 0B       		.uleb128 0xb
 2734 03c8 04030000 		.4byte	.LASF65
 2735 03cc 0C       		.sleb128 12
 2736 03cd 0B       		.uleb128 0xb
 2737 03ce FD000000 		.4byte	.LASF66
 2738 03d2 0D       		.sleb128 13
 2739 03d3 0B       		.uleb128 0xb
 2740 03d4 9F020000 		.4byte	.LASF67
 2741 03d8 0E       		.sleb128 14
 2742 03d9 00       		.byte	0
 2743 03da 06       		.uleb128 0x6
 2744 03db 49030000 		.4byte	.LASF68
 2745 03df 18       		.byte	0x18
 2746 03e0 0A       		.byte	0xa
 2747 03e1 3A       		.byte	0x3a
 2748 03e2 8E040000 		.4byte	0x48e
 2749 03e6 07       		.uleb128 0x7
 2750 03e7 90060000 		.4byte	.LASF69
 2751 03eb 0A       		.byte	0xa
 2752 03ec 3B       		.byte	0x3b
 2753 03ed C5000000 		.4byte	0xc5
 2754 03f1 02       		.byte	0x2
 2755 03f2 23       		.byte	0x23
 2756 03f3 00       		.uleb128 0
 2757 03f4 07       		.uleb128 0x7
 2758 03f5 6C060000 		.4byte	.LASF70
 2759 03f9 0A       		.byte	0xa
 2760 03fa 3C       		.byte	0x3c
 2761 03fb C5000000 		.4byte	0xc5
 2762 03ff 02       		.byte	0x2
 2763 0400 23       		.byte	0x23
 2764 0401 02       		.uleb128 0x2
 2765 0402 0C       		.uleb128 0xc
 2766 0403 667700   		.ascii	"fw\000"
 2767 0406 0A       		.byte	0xa
 2768 0407 3D       		.byte	0x3d
 2769 0408 C5000000 		.4byte	0xc5
 2770 040c 02       		.byte	0x2
 2771 040d 23       		.byte	0x23
ARM GAS  /tmp/ccLoOG9f.s 			page 50


 2772 040e 04       		.uleb128 0x4
 2773 040f 07       		.uleb128 0x7
 2774 0410 36060000 		.4byte	.LASF71
 2775 0414 0A       		.byte	0xa
 2776 0415 3E       		.byte	0x3e
 2777 0416 C5000000 		.4byte	0xc5
 2778 041a 02       		.byte	0x2
 2779 041b 23       		.byte	0x23
 2780 041c 06       		.uleb128 0x6
 2781 041d 07       		.uleb128 0x7
 2782 041e 44040000 		.4byte	.LASF72
 2783 0422 0A       		.byte	0xa
 2784 0423 3F       		.byte	0x3f
 2785 0424 C5000000 		.4byte	0xc5
 2786 0428 02       		.byte	0x2
 2787 0429 23       		.byte	0x23
 2788 042a 08       		.uleb128 0x8
 2789 042b 07       		.uleb128 0x7
 2790 042c 95050000 		.4byte	.LASF73
 2791 0430 0A       		.byte	0xa
 2792 0431 40       		.byte	0x40
 2793 0432 C5000000 		.4byte	0xc5
 2794 0436 02       		.byte	0x2
 2795 0437 23       		.byte	0x23
 2796 0438 0A       		.uleb128 0xa
 2797 0439 07       		.uleb128 0x7
 2798 043a 0A060000 		.4byte	.LASF74
 2799 043e 0A       		.byte	0xa
 2800 043f 41       		.byte	0x41
 2801 0440 C5000000 		.4byte	0xc5
 2802 0444 02       		.byte	0x2
 2803 0445 23       		.byte	0x23
 2804 0446 0C       		.uleb128 0xc
 2805 0447 07       		.uleb128 0x7
 2806 0448 E8040000 		.4byte	.LASF75
 2807 044c 0A       		.byte	0xa
 2808 044d 42       		.byte	0x42
 2809 044e C5000000 		.4byte	0xc5
 2810 0452 02       		.byte	0x2
 2811 0453 23       		.byte	0x23
 2812 0454 0E       		.uleb128 0xe
 2813 0455 07       		.uleb128 0x7
 2814 0456 DB050000 		.4byte	.LASF76
 2815 045a 0A       		.byte	0xa
 2816 045b 43       		.byte	0x43
 2817 045c C5000000 		.4byte	0xc5
 2818 0460 02       		.byte	0x2
 2819 0461 23       		.byte	0x23
 2820 0462 10       		.uleb128 0x10
 2821 0463 07       		.uleb128 0x7
 2822 0464 72010000 		.4byte	.LASF77
 2823 0468 0A       		.byte	0xa
 2824 0469 44       		.byte	0x44
 2825 046a C5000000 		.4byte	0xc5
 2826 046e 02       		.byte	0x2
 2827 046f 23       		.byte	0x23
 2828 0470 12       		.uleb128 0x12
ARM GAS  /tmp/ccLoOG9f.s 			page 51


 2829 0471 0C       		.uleb128 0xc
 2830 0472 65727200 		.ascii	"err\000"
 2831 0476 0A       		.byte	0xa
 2832 0477 45       		.byte	0x45
 2833 0478 C5000000 		.4byte	0xc5
 2834 047c 02       		.byte	0x2
 2835 047d 23       		.byte	0x23
 2836 047e 14       		.uleb128 0x14
 2837 047f 07       		.uleb128 0x7
 2838 0480 42050000 		.4byte	.LASF78
 2839 0484 0A       		.byte	0xa
 2840 0485 46       		.byte	0x46
 2841 0486 C5000000 		.4byte	0xc5
 2842 048a 02       		.byte	0x2
 2843 048b 23       		.byte	0x23
 2844 048c 16       		.uleb128 0x16
 2845 048d 00       		.byte	0
 2846 048e 06       		.uleb128 0x6
 2847 048f B4000000 		.4byte	.LASF79
 2848 0493 0A       		.byte	0xa
 2849 0494 0A       		.byte	0xa
 2850 0495 5A       		.byte	0x5a
 2851 0496 E1040000 		.4byte	0x4e1
 2852 049a 07       		.uleb128 0x7
 2853 049b EE040000 		.4byte	.LASF80
 2854 049f 0A       		.byte	0xa
 2855 04a0 5E       		.byte	0x5e
 2856 04a1 6C030000 		.4byte	0x36c
 2857 04a5 02       		.byte	0x2
 2858 04a6 23       		.byte	0x23
 2859 04a7 00       		.uleb128 0
 2860 04a8 07       		.uleb128 0x7
 2861 04a9 3F040000 		.4byte	.LASF81
 2862 04ad 0A       		.byte	0xa
 2863 04ae 5F       		.byte	0x5f
 2864 04af 6C030000 		.4byte	0x36c
 2865 04b3 02       		.byte	0x2
 2866 04b4 23       		.byte	0x23
 2867 04b5 02       		.uleb128 0x2
 2868 04b6 0C       		.uleb128 0xc
 2869 04b7 6D617800 		.ascii	"max\000"
 2870 04bb 0A       		.byte	0xa
 2871 04bc 60       		.byte	0x60
 2872 04bd 6C030000 		.4byte	0x36c
 2873 04c1 02       		.byte	0x2
 2874 04c2 23       		.byte	0x23
 2875 04c3 04       		.uleb128 0x4
 2876 04c4 0C       		.uleb128 0xc
 2877 04c5 65727200 		.ascii	"err\000"
 2878 04c9 0A       		.byte	0xa
 2879 04ca 61       		.byte	0x61
 2880 04cb C5000000 		.4byte	0xc5
 2881 04cf 02       		.byte	0x2
 2882 04d0 23       		.byte	0x23
 2883 04d1 06       		.uleb128 0x6
 2884 04d2 07       		.uleb128 0x7
 2885 04d3 87010000 		.4byte	.LASF82
ARM GAS  /tmp/ccLoOG9f.s 			page 52


 2886 04d7 0A       		.byte	0xa
 2887 04d8 62       		.byte	0x62
 2888 04d9 C5000000 		.4byte	0xc5
 2889 04dd 02       		.byte	0x2
 2890 04de 23       		.byte	0x23
 2891 04df 08       		.uleb128 0x8
 2892 04e0 00       		.byte	0
 2893 04e1 06       		.uleb128 0x6
 2894 04e2 32010000 		.4byte	.LASF83
 2895 04e6 06       		.byte	0x6
 2896 04e7 0A       		.byte	0xa
 2897 04e8 65       		.byte	0x65
 2898 04e9 18050000 		.4byte	0x518
 2899 04ed 07       		.uleb128 0x7
 2900 04ee 3F040000 		.4byte	.LASF81
 2901 04f2 0A       		.byte	0xa
 2902 04f3 66       		.byte	0x66
 2903 04f4 C5000000 		.4byte	0xc5
 2904 04f8 02       		.byte	0x2
 2905 04f9 23       		.byte	0x23
 2906 04fa 00       		.uleb128 0
 2907 04fb 0C       		.uleb128 0xc
 2908 04fc 6D617800 		.ascii	"max\000"
 2909 0500 0A       		.byte	0xa
 2910 0501 67       		.byte	0x67
 2911 0502 C5000000 		.4byte	0xc5
 2912 0506 02       		.byte	0x2
 2913 0507 23       		.byte	0x23
 2914 0508 02       		.uleb128 0x2
 2915 0509 0C       		.uleb128 0xc
 2916 050a 65727200 		.ascii	"err\000"
 2917 050e 0A       		.byte	0xa
 2918 050f 68       		.byte	0x68
 2919 0510 C5000000 		.4byte	0xc5
 2920 0514 02       		.byte	0x2
 2921 0515 23       		.byte	0x23
 2922 0516 04       		.uleb128 0x4
 2923 0517 00       		.byte	0
 2924 0518 06       		.uleb128 0x6
 2925 0519 F2050000 		.4byte	.LASF84
 2926 051d 12       		.byte	0x12
 2927 051e 0A       		.byte	0xa
 2928 051f 6B       		.byte	0x6b
 2929 0520 4F050000 		.4byte	0x54f
 2930 0524 0C       		.uleb128 0xc
 2931 0525 73656D00 		.ascii	"sem\000"
 2932 0529 0A       		.byte	0xa
 2933 052a 6C       		.byte	0x6c
 2934 052b E1040000 		.4byte	0x4e1
 2935 052f 02       		.byte	0x2
 2936 0530 23       		.byte	0x23
 2937 0531 00       		.uleb128 0
 2938 0532 07       		.uleb128 0x7
 2939 0533 79010000 		.4byte	.LASF85
 2940 0537 0A       		.byte	0xa
 2941 0538 6D       		.byte	0x6d
 2942 0539 E1040000 		.4byte	0x4e1
ARM GAS  /tmp/ccLoOG9f.s 			page 53


 2943 053d 02       		.byte	0x2
 2944 053e 23       		.byte	0x23
 2945 053f 06       		.uleb128 0x6
 2946 0540 07       		.uleb128 0x7
 2947 0541 12050000 		.4byte	.LASF86
 2948 0545 0A       		.byte	0xa
 2949 0546 6E       		.byte	0x6e
 2950 0547 E1040000 		.4byte	0x4e1
 2951 054b 02       		.byte	0x2
 2952 054c 23       		.byte	0x23
 2953 054d 0C       		.uleb128 0xc
 2954 054e 00       		.byte	0
 2955 054f 10       		.uleb128 0x10
 2956 0550 57020000 		.4byte	.LASF87
 2957 0554 5001     		.2byte	0x150
 2958 0556 0A       		.byte	0xa
 2959 0557 71       		.byte	0x71
 2960 0558 EC050000 		.4byte	0x5ec
 2961 055c 07       		.uleb128 0x7
 2962 055d 1E060000 		.4byte	.LASF88
 2963 0561 0A       		.byte	0xa
 2964 0562 73       		.byte	0x73
 2965 0563 DA030000 		.4byte	0x3da
 2966 0567 02       		.byte	0x2
 2967 0568 23       		.byte	0x23
 2968 0569 00       		.uleb128 0
 2969 056a 07       		.uleb128 0x7
 2970 056b B2010000 		.4byte	.LASF89
 2971 056f 0A       		.byte	0xa
 2972 0570 76       		.byte	0x76
 2973 0571 DA030000 		.4byte	0x3da
 2974 0575 02       		.byte	0x2
 2975 0576 23       		.byte	0x23
 2976 0577 18       		.uleb128 0x18
 2977 0578 07       		.uleb128 0x7
 2978 0579 7F010000 		.4byte	.LASF90
 2979 057d 0A       		.byte	0xa
 2980 057e 79       		.byte	0x79
 2981 057f DA030000 		.4byte	0x3da
 2982 0583 02       		.byte	0x2
 2983 0584 23       		.byte	0x23
 2984 0585 30       		.uleb128 0x30
 2985 0586 0C       		.uleb128 0xc
 2986 0587 697000   		.ascii	"ip\000"
 2987 058a 0A       		.byte	0xa
 2988 058b 7C       		.byte	0x7c
 2989 058c DA030000 		.4byte	0x3da
 2990 0590 02       		.byte	0x2
 2991 0591 23       		.byte	0x23
 2992 0592 48       		.uleb128 0x48
 2993 0593 07       		.uleb128 0x7
 2994 0594 DA040000 		.4byte	.LASF91
 2995 0598 0A       		.byte	0xa
 2996 0599 7F       		.byte	0x7f
 2997 059a DA030000 		.4byte	0x3da
 2998 059e 02       		.byte	0x2
 2999 059f 23       		.byte	0x23
ARM GAS  /tmp/ccLoOG9f.s 			page 54


 3000 05a0 60       		.uleb128 0x60
 3001 05a1 0C       		.uleb128 0xc
 3002 05a2 75647000 		.ascii	"udp\000"
 3003 05a6 0A       		.byte	0xa
 3004 05a7 85       		.byte	0x85
 3005 05a8 DA030000 		.4byte	0x3da
 3006 05ac 02       		.byte	0x2
 3007 05ad 23       		.byte	0x23
 3008 05ae 78       		.uleb128 0x78
 3009 05af 0C       		.uleb128 0xc
 3010 05b0 74637000 		.ascii	"tcp\000"
 3011 05b4 0A       		.byte	0xa
 3012 05b5 88       		.byte	0x88
 3013 05b6 DA030000 		.4byte	0x3da
 3014 05ba 03       		.byte	0x3
 3015 05bb 23       		.byte	0x23
 3016 05bc 9001     		.uleb128 0x90
 3017 05be 0C       		.uleb128 0xc
 3018 05bf 6D656D00 		.ascii	"mem\000"
 3019 05c3 0A       		.byte	0xa
 3020 05c4 8B       		.byte	0x8b
 3021 05c5 8E040000 		.4byte	0x48e
 3022 05c9 03       		.byte	0x3
 3023 05ca 23       		.byte	0x23
 3024 05cb A801     		.uleb128 0xa8
 3025 05cd 07       		.uleb128 0x7
 3026 05ce 29040000 		.4byte	.LASF92
 3027 05d2 0A       		.byte	0xa
 3028 05d3 8E       		.byte	0x8e
 3029 05d4 EC050000 		.4byte	0x5ec
 3030 05d8 03       		.byte	0x3
 3031 05d9 23       		.byte	0x23
 3032 05da B201     		.uleb128 0xb2
 3033 05dc 0C       		.uleb128 0xc
 3034 05dd 73797300 		.ascii	"sys\000"
 3035 05e1 0A       		.byte	0xa
 3036 05e2 91       		.byte	0x91
 3037 05e3 18050000 		.4byte	0x518
 3038 05e7 03       		.byte	0x3
 3039 05e8 23       		.byte	0x23
 3040 05e9 BE02     		.uleb128 0x13e
 3041 05eb 00       		.byte	0
 3042 05ec 08       		.uleb128 0x8
 3043 05ed 8E040000 		.4byte	0x48e
 3044 05f1 FC050000 		.4byte	0x5fc
 3045 05f5 09       		.uleb128 0x9
 3046 05f6 30000000 		.4byte	0x30
 3047 05fa 0D       		.byte	0xd
 3048 05fb 00       		.byte	0
 3049 05fc 06       		.uleb128 0x6
 3050 05fd 00000000 		.4byte	.LASF93
 3051 0601 06       		.byte	0x6
 3052 0602 0B       		.byte	0xb
 3053 0603 3B       		.byte	0x3b
 3054 0604 17060000 		.4byte	0x617
 3055 0608 07       		.uleb128 0x7
 3056 0609 31060000 		.4byte	.LASF23
ARM GAS  /tmp/ccLoOG9f.s 			page 55


 3057 060d 0B       		.byte	0xb
 3058 060e 3C       		.byte	0x3c
 3059 060f 4C030000 		.4byte	0x34c
 3060 0613 02       		.byte	0x2
 3061 0614 23       		.byte	0x23
 3062 0615 00       		.uleb128 0
 3063 0616 00       		.byte	0
 3064 0617 06       		.uleb128 0x6
 3065 0618 B5030000 		.4byte	.LASF94
 3066 061c 0E       		.byte	0xe
 3067 061d 0B       		.byte	0xb
 3068 061e 48       		.byte	0x48
 3069 061f 4E060000 		.4byte	0x64e
 3070 0623 07       		.uleb128 0x7
 3071 0624 BF060000 		.4byte	.LASF95
 3072 0628 0B       		.byte	0xb
 3073 0629 4C       		.byte	0x4c
 3074 062a FC050000 		.4byte	0x5fc
 3075 062e 02       		.byte	0x2
 3076 062f 23       		.byte	0x23
 3077 0630 00       		.uleb128 0
 3078 0631 0C       		.uleb128 0xc
 3079 0632 73726300 		.ascii	"src\000"
 3080 0636 0B       		.byte	0xb
 3081 0637 4D       		.byte	0x4d
 3082 0638 FC050000 		.4byte	0x5fc
 3083 063c 02       		.byte	0x2
 3084 063d 23       		.byte	0x23
 3085 063e 06       		.uleb128 0x6
 3086 063f 07       		.uleb128 0x7
 3087 0640 ED050000 		.4byte	.LASF38
 3088 0644 0B       		.byte	0xb
 3089 0645 4E       		.byte	0x4e
 3090 0646 C5000000 		.4byte	0xc5
 3091 064a 02       		.byte	0x2
 3092 064b 23       		.byte	0x23
 3093 064c 0C       		.uleb128 0xc
 3094 064d 00       		.byte	0
 3095 064e 06       		.uleb128 0x6
 3096 064f 11000000 		.4byte	.LASF96
 3097 0653 1C       		.byte	0x1c
 3098 0654 0B       		.byte	0xb
 3099 0655 73       		.byte	0x73
 3100 0656 D9060000 		.4byte	0x6d9
 3101 065a 07       		.uleb128 0x7
 3102 065b 16030000 		.4byte	.LASF97
 3103 065f 0B       		.byte	0xb
 3104 0660 74       		.byte	0x74
 3105 0661 C5000000 		.4byte	0xc5
 3106 0665 02       		.byte	0x2
 3107 0666 23       		.byte	0x23
 3108 0667 00       		.uleb128 0
 3109 0668 07       		.uleb128 0x7
 3110 0669 6B000000 		.4byte	.LASF98
 3111 066d 0B       		.byte	0xb
 3112 066e 75       		.byte	0x75
 3113 066f C5000000 		.4byte	0xc5
ARM GAS  /tmp/ccLoOG9f.s 			page 56


 3114 0673 02       		.byte	0x2
 3115 0674 23       		.byte	0x23
 3116 0675 02       		.uleb128 0x2
 3117 0676 07       		.uleb128 0x7
 3118 0677 95060000 		.4byte	.LASF99
 3119 067b 0B       		.byte	0xb
 3120 067c 76       		.byte	0x76
 3121 067d AF000000 		.4byte	0xaf
 3122 0681 02       		.byte	0x2
 3123 0682 23       		.byte	0x23
 3124 0683 04       		.uleb128 0x4
 3125 0684 07       		.uleb128 0x7
 3126 0685 4A000000 		.4byte	.LASF100
 3127 0689 0B       		.byte	0xb
 3128 068a 77       		.byte	0x77
 3129 068b AF000000 		.4byte	0xaf
 3130 068f 02       		.byte	0x2
 3131 0690 23       		.byte	0x23
 3132 0691 05       		.uleb128 0x5
 3133 0692 07       		.uleb128 0x7
 3134 0693 9E030000 		.4byte	.LASF101
 3135 0697 0B       		.byte	0xb
 3136 0698 78       		.byte	0x78
 3137 0699 C5000000 		.4byte	0xc5
 3138 069d 02       		.byte	0x2
 3139 069e 23       		.byte	0x23
 3140 069f 06       		.uleb128 0x6
 3141 06a0 07       		.uleb128 0x7
 3142 06a1 B7020000 		.4byte	.LASF102
 3143 06a5 0B       		.byte	0xb
 3144 06a6 79       		.byte	0x79
 3145 06a7 FC050000 		.4byte	0x5fc
 3146 06ab 02       		.byte	0x2
 3147 06ac 23       		.byte	0x23
 3148 06ad 08       		.uleb128 0x8
 3149 06ae 07       		.uleb128 0x7
 3150 06af A5030000 		.4byte	.LASF103
 3151 06b3 0B       		.byte	0xb
 3152 06b4 7A       		.byte	0x7a
 3153 06b5 0C010000 		.4byte	0x10c
 3154 06b9 02       		.byte	0x2
 3155 06ba 23       		.byte	0x23
 3156 06bb 0E       		.uleb128 0xe
 3157 06bc 07       		.uleb128 0x7
 3158 06bd 09000000 		.4byte	.LASF104
 3159 06c1 0B       		.byte	0xb
 3160 06c2 7B       		.byte	0x7b
 3161 06c3 FC050000 		.4byte	0x5fc
 3162 06c7 02       		.byte	0x2
 3163 06c8 23       		.byte	0x23
 3164 06c9 12       		.uleb128 0x12
 3165 06ca 07       		.uleb128 0x7
 3166 06cb 95000000 		.4byte	.LASF105
 3167 06cf 0B       		.byte	0xb
 3168 06d0 7C       		.byte	0x7c
 3169 06d1 0C010000 		.4byte	0x10c
 3170 06d5 02       		.byte	0x2
ARM GAS  /tmp/ccLoOG9f.s 			page 57


 3171 06d6 23       		.byte	0x23
 3172 06d7 18       		.uleb128 0x18
 3173 06d8 00       		.byte	0
 3174 06d9 11       		.uleb128 0x11
 3175 06da E8020000 		.4byte	.LASF154
 3176 06de 01       		.byte	0x1
 3177 06df 01       		.byte	0x1
 3178 06e0 56       		.byte	0x56
 3179 06e1 F8060000 		.4byte	0x6f8
 3180 06e5 0B       		.uleb128 0xb
 3181 06e6 15020000 		.4byte	.LASF106
 3182 06ea 00       		.sleb128 0
 3183 06eb 0B       		.uleb128 0xb
 3184 06ec 73050000 		.4byte	.LASF107
 3185 06f0 01       		.sleb128 1
 3186 06f1 0B       		.uleb128 0xb
 3187 06f2 6F040000 		.4byte	.LASF108
 3188 06f6 02       		.sleb128 2
 3189 06f7 00       		.byte	0
 3190 06f8 06       		.uleb128 0x6
 3191 06f9 97010000 		.4byte	.LASF109
 3192 06fd 10       		.byte	0x10
 3193 06fe 01       		.byte	0x1
 3194 06ff 5C       		.byte	0x5c
 3195 0700 49070000 		.4byte	0x749
 3196 0704 0C       		.uleb128 0xc
 3197 0705 7100     		.ascii	"q\000"
 3198 0707 01       		.byte	0x1
 3199 0708 62       		.byte	0x62
 3200 0709 F3010000 		.4byte	0x1f3
 3201 070d 02       		.byte	0x2
 3202 070e 23       		.byte	0x23
 3203 070f 00       		.uleb128 0
 3204 0710 07       		.uleb128 0x7
 3205 0711 66020000 		.4byte	.LASF110
 3206 0715 01       		.byte	0x1
 3207 0716 64       		.byte	0x64
 3208 0717 01010000 		.4byte	0x101
 3209 071b 02       		.byte	0x2
 3210 071c 23       		.byte	0x23
 3211 071d 04       		.uleb128 0x4
 3212 071e 07       		.uleb128 0x7
 3213 071f 0E030000 		.4byte	.LASF111
 3214 0723 01       		.byte	0x1
 3215 0724 65       		.byte	0x65
 3216 0725 FC050000 		.4byte	0x5fc
 3217 0729 02       		.byte	0x2
 3218 072a 23       		.byte	0x23
 3219 072b 08       		.uleb128 0x8
 3220 072c 07       		.uleb128 0x7
 3221 072d 3B060000 		.4byte	.LASF45
 3222 0731 01       		.byte	0x1
 3223 0732 69       		.byte	0x69
 3224 0733 AF000000 		.4byte	0xaf
 3225 0737 02       		.byte	0x2
 3226 0738 23       		.byte	0x23
 3227 0739 0E       		.uleb128 0xe
ARM GAS  /tmp/ccLoOG9f.s 			page 58


 3228 073a 07       		.uleb128 0x7
 3229 073b 28020000 		.4byte	.LASF112
 3230 073f 01       		.byte	0x1
 3231 0740 6A       		.byte	0x6a
 3232 0741 AF000000 		.4byte	0xaf
 3233 0745 02       		.byte	0x2
 3234 0746 23       		.byte	0x23
 3235 0747 0F       		.uleb128 0xf
 3236 0748 00       		.byte	0
 3237 0749 12       		.uleb128 0x12
 3238 074a BD030000 		.4byte	.LASF126
 3239 074e 01       		.byte	0x1
 3240 074f A9       		.byte	0xa9
 3241 0750 01       		.byte	0x1
 3242 0751 00000000 		.4byte	.LFB7
 3243 0755 68000000 		.4byte	.LFE7
 3244 0759 00000000 		.4byte	.LLST0
 3245 075d 6E070000 		.4byte	0x76e
 3246 0761 13       		.uleb128 0x13
 3247 0762 6900     		.ascii	"i\000"
 3248 0764 01       		.byte	0x1
 3249 0765 A9       		.byte	0xa9
 3250 0766 29000000 		.4byte	0x29
 3251 076a 02       		.byte	0x2
 3252 076b 91       		.byte	0x91
 3253 076c 74       		.sleb128 -12
 3254 076d 00       		.byte	0
 3255 076e 14       		.uleb128 0x14
 3256 076f 01       		.byte	0x1
 3257 0770 BF020000 		.4byte	.LASF155
 3258 0774 01       		.byte	0x1
 3259 0775 CB       		.byte	0xcb
 3260 0776 01       		.byte	0x1
 3261 0777 00000000 		.4byte	.LFB8
 3262 077b DC000000 		.4byte	.LFE8
 3263 077f 2C000000 		.4byte	.LLST1
 3264 0783 AC070000 		.4byte	0x7ac
 3265 0787 15       		.uleb128 0x15
 3266 0788 6900     		.ascii	"i\000"
 3267 078a 01       		.byte	0x1
 3268 078b CD       		.byte	0xcd
 3269 078c AF000000 		.4byte	0xaf
 3270 0790 02       		.byte	0x2
 3271 0791 91       		.byte	0x91
 3272 0792 77       		.sleb128 -9
 3273 0793 16       		.uleb128 0x16
 3274 0794 0E000000 		.4byte	.LBB2
 3275 0798 C4000000 		.4byte	.LBE2
 3276 079c 17       		.uleb128 0x17
 3277 079d 3B060000 		.4byte	.LASF45
 3278 07a1 01       		.byte	0x1
 3279 07a2 D2       		.byte	0xd2
 3280 07a3 AF000000 		.4byte	0xaf
 3281 07a7 02       		.byte	0x2
 3282 07a8 91       		.byte	0x91
 3283 07a9 76       		.sleb128 -10
 3284 07aa 00       		.byte	0
ARM GAS  /tmp/ccLoOG9f.s 			page 59


 3285 07ab 00       		.byte	0
 3286 07ac 18       		.uleb128 0x18
 3287 07ad 83040000 		.4byte	.LASF120
 3288 07b1 01       		.byte	0x1
 3289 07b2 0201     		.2byte	0x102
 3290 07b4 01       		.byte	0x1
 3291 07b5 BA000000 		.4byte	0xba
 3292 07b9 00000000 		.4byte	.LFB9
 3293 07bd 00030000 		.4byte	.LFE9
 3294 07c1 58000000 		.4byte	.LLST2
 3295 07c5 77080000 		.4byte	0x877
 3296 07c9 19       		.uleb128 0x19
 3297 07ca 66020000 		.4byte	.LASF110
 3298 07ce 01       		.byte	0x1
 3299 07cf 0201     		.2byte	0x102
 3300 07d1 20030000 		.4byte	0x320
 3301 07d5 02       		.byte	0x2
 3302 07d6 91       		.byte	0x91
 3303 07d7 64       		.sleb128 -28
 3304 07d8 19       		.uleb128 0x19
 3305 07d9 65000000 		.4byte	.LASF39
 3306 07dd 01       		.byte	0x1
 3307 07de 0201     		.2byte	0x102
 3308 07e0 AF000000 		.4byte	0xaf
 3309 07e4 02       		.byte	0x2
 3310 07e5 91       		.byte	0x91
 3311 07e6 63       		.sleb128 -29
 3312 07e7 1A       		.uleb128 0x1a
 3313 07e8 89020000 		.4byte	.LASF113
 3314 07ec 01       		.byte	0x1
 3315 07ed 0401     		.2byte	0x104
 3316 07ef BA000000 		.4byte	0xba
 3317 07f3 02       		.byte	0x2
 3318 07f4 91       		.byte	0x91
 3319 07f5 77       		.sleb128 -9
 3320 07f6 1A       		.uleb128 0x1a
 3321 07f7 4B040000 		.4byte	.LASF114
 3322 07fb 01       		.byte	0x1
 3323 07fc 0401     		.2byte	0x104
 3324 07fe BA000000 		.4byte	0xba
 3325 0802 02       		.byte	0x2
 3326 0803 91       		.byte	0x91
 3327 0804 76       		.sleb128 -10
 3328 0805 1A       		.uleb128 0x1a
 3329 0806 BD050000 		.4byte	.LASF115
 3330 080a 01       		.byte	0x1
 3331 080b 0501     		.2byte	0x105
 3332 080d BA000000 		.4byte	0xba
 3333 0811 02       		.byte	0x2
 3334 0812 91       		.byte	0x91
 3335 0813 75       		.sleb128 -11
 3336 0814 1B       		.uleb128 0x1b
 3337 0815 6900     		.ascii	"i\000"
 3338 0817 01       		.byte	0x1
 3339 0818 0601     		.2byte	0x106
 3340 081a AF000000 		.4byte	0xaf
 3341 081e 02       		.byte	0x2
ARM GAS  /tmp/ccLoOG9f.s 			page 60


 3342 081f 91       		.byte	0x91
 3343 0820 74       		.sleb128 -12
 3344 0821 1A       		.uleb128 0x1a
 3345 0822 52060000 		.4byte	.LASF116
 3346 0826 01       		.byte	0x1
 3347 0827 0601     		.2byte	0x106
 3348 0829 AF000000 		.4byte	0xaf
 3349 082d 02       		.byte	0x2
 3350 082e 91       		.byte	0x91
 3351 082f 73       		.sleb128 -13
 3352 0830 1A       		.uleb128 0x1a
 3353 0831 A0040000 		.4byte	.LASF117
 3354 0835 01       		.byte	0x1
 3355 0836 0601     		.2byte	0x106
 3356 0838 AF000000 		.4byte	0xaf
 3357 083c 02       		.byte	0x2
 3358 083d 91       		.byte	0x91
 3359 083e 72       		.sleb128 -14
 3360 083f 1A       		.uleb128 0x1a
 3361 0840 AD020000 		.4byte	.LASF118
 3362 0844 01       		.byte	0x1
 3363 0845 0801     		.2byte	0x108
 3364 0847 BA000000 		.4byte	0xba
 3365 084b 02       		.byte	0x2
 3366 084c 91       		.byte	0x91
 3367 084d 71       		.sleb128 -15
 3368 084e 1A       		.uleb128 0x1a
 3369 084f 40000000 		.4byte	.LASF119
 3370 0853 01       		.byte	0x1
 3371 0854 0A01     		.2byte	0x10a
 3372 0856 AF000000 		.4byte	0xaf
 3373 085a 02       		.byte	0x2
 3374 085b 91       		.byte	0x91
 3375 085c 70       		.sleb128 -16
 3376 085d 16       		.uleb128 0x16
 3377 085e 56000000 		.4byte	.LBB3
 3378 0862 CE010000 		.4byte	.LBE3
 3379 0866 1A       		.uleb128 0x1a
 3380 0867 3B060000 		.4byte	.LASF45
 3381 086b 01       		.byte	0x1
 3382 086c 1C01     		.2byte	0x11c
 3383 086e AF000000 		.4byte	0xaf
 3384 0872 02       		.byte	0x2
 3385 0873 91       		.byte	0x91
 3386 0874 6F       		.sleb128 -17
 3387 0875 00       		.byte	0
 3388 0876 00       		.byte	0
 3389 0877 18       		.uleb128 0x18
 3390 0878 FA030000 		.4byte	.LASF121
 3391 087c 01       		.byte	0x1
 3392 087d 9A01     		.2byte	0x19a
 3393 087f 01       		.byte	0x1
 3394 0880 37010000 		.4byte	0x137
 3395 0884 00000000 		.4byte	.LFB10
 3396 0888 74000000 		.4byte	.LFE10
 3397 088c 84000000 		.4byte	.LLST3
 3398 0890 DE080000 		.4byte	0x8de
ARM GAS  /tmp/ccLoOG9f.s 			page 61


 3399 0894 19       		.uleb128 0x19
 3400 0895 4C060000 		.4byte	.LASF40
 3401 0899 01       		.byte	0x1
 3402 089a 9A01     		.2byte	0x19a
 3403 089c F9010000 		.4byte	0x1f9
 3404 08a0 02       		.byte	0x2
 3405 08a1 91       		.byte	0x91
 3406 08a2 6C       		.sleb128 -20
 3407 08a3 1C       		.uleb128 0x1c
 3408 08a4 7000     		.ascii	"p\000"
 3409 08a6 01       		.byte	0x1
 3410 08a7 9A01     		.2byte	0x19a
 3411 08a9 F3010000 		.4byte	0x1f3
 3412 08ad 02       		.byte	0x2
 3413 08ae 91       		.byte	0x91
 3414 08af 68       		.sleb128 -24
 3415 08b0 1C       		.uleb128 0x1c
 3416 08b1 73726300 		.ascii	"src\000"
 3417 08b5 01       		.byte	0x1
 3418 08b6 9A01     		.2byte	0x19a
 3419 08b8 DE080000 		.4byte	0x8de
 3420 08bc 02       		.byte	0x2
 3421 08bd 91       		.byte	0x91
 3422 08be 64       		.sleb128 -28
 3423 08bf 1C       		.uleb128 0x1c
 3424 08c0 64737400 		.ascii	"dst\000"
 3425 08c4 01       		.byte	0x1
 3426 08c5 9A01     		.2byte	0x19a
 3427 08c7 DE080000 		.4byte	0x8de
 3428 08cb 02       		.byte	0x2
 3429 08cc 91       		.byte	0x91
 3430 08cd 60       		.sleb128 -32
 3431 08ce 1A       		.uleb128 0x1a
 3432 08cf C3040000 		.4byte	.LASF122
 3433 08d3 01       		.byte	0x1
 3434 08d4 9C01     		.2byte	0x19c
 3435 08d6 E4080000 		.4byte	0x8e4
 3436 08da 02       		.byte	0x2
 3437 08db 91       		.byte	0x91
 3438 08dc 74       		.sleb128 -12
 3439 08dd 00       		.byte	0
 3440 08de 0D       		.uleb128 0xd
 3441 08df 04       		.byte	0x4
 3442 08e0 FC050000 		.4byte	0x5fc
 3443 08e4 0D       		.uleb128 0xd
 3444 08e5 04       		.byte	0x4
 3445 08e6 17060000 		.4byte	0x617
 3446 08ea 18       		.uleb128 0x18
 3447 08eb CA020000 		.4byte	.LASF123
 3448 08ef 01       		.byte	0x1
 3449 08f0 BB01     		.2byte	0x1bb
 3450 08f2 01       		.byte	0x1
 3451 08f3 37010000 		.4byte	0x137
 3452 08f7 00000000 		.4byte	.LFB11
 3453 08fb 3A010000 		.4byte	.LFE11
 3454 08ff B0000000 		.4byte	.LLST4
 3455 0903 68090000 		.4byte	0x968
ARM GAS  /tmp/ccLoOG9f.s 			page 62


 3456 0907 19       		.uleb128 0x19
 3457 0908 4C060000 		.4byte	.LASF40
 3458 090c 01       		.byte	0x1
 3459 090d BB01     		.2byte	0x1bb
 3460 090f F9010000 		.4byte	0x1f9
 3461 0913 02       		.byte	0x2
 3462 0914 91       		.byte	0x91
 3463 0915 6C       		.sleb128 -20
 3464 0916 19       		.uleb128 0x19
 3465 0917 66020000 		.4byte	.LASF110
 3466 091b 01       		.byte	0x1
 3467 091c BB01     		.2byte	0x1bb
 3468 091e 20030000 		.4byte	0x320
 3469 0922 02       		.byte	0x2
 3470 0923 91       		.byte	0x91
 3471 0924 68       		.sleb128 -24
 3472 0925 19       		.uleb128 0x19
 3473 0926 0E030000 		.4byte	.LASF111
 3474 092a 01       		.byte	0x1
 3475 092b BB01     		.2byte	0x1bb
 3476 092d DE080000 		.4byte	0x8de
 3477 0931 02       		.byte	0x2
 3478 0932 91       		.byte	0x91
 3479 0933 64       		.sleb128 -28
 3480 0934 19       		.uleb128 0x19
 3481 0935 65000000 		.4byte	.LASF39
 3482 0939 01       		.byte	0x1
 3483 093a BB01     		.2byte	0x1bb
 3484 093c AF000000 		.4byte	0xaf
 3485 0940 02       		.byte	0x2
 3486 0941 91       		.byte	0x91
 3487 0942 63       		.sleb128 -29
 3488 0943 1B       		.uleb128 0x1b
 3489 0944 6900     		.ascii	"i\000"
 3490 0946 01       		.byte	0x1
 3491 0947 BD01     		.2byte	0x1bd
 3492 0949 BA000000 		.4byte	0xba
 3493 094d 02       		.byte	0x2
 3494 094e 91       		.byte	0x91
 3495 094f 77       		.sleb128 -9
 3496 0950 16       		.uleb128 0x16
 3497 0951 E8000000 		.4byte	.LBB4
 3498 0955 2E010000 		.4byte	.LBE4
 3499 0959 1B       		.uleb128 0x1b
 3500 095a 7000     		.ascii	"p\000"
 3501 095c 01       		.byte	0x1
 3502 095d F501     		.2byte	0x1f5
 3503 095f F3010000 		.4byte	0x1f3
 3504 0963 02       		.byte	0x2
 3505 0964 91       		.byte	0x91
 3506 0965 70       		.sleb128 -16
 3507 0966 00       		.byte	0
 3508 0967 00       		.byte	0
 3509 0968 1D       		.uleb128 0x1d
 3510 0969 01       		.byte	0x1
 3511 096a AE060000 		.4byte	.LASF129
 3512 096e 01       		.byte	0x1
ARM GAS  /tmp/ccLoOG9f.s 			page 63


 3513 096f 4702     		.2byte	0x247
 3514 0971 01       		.byte	0x1
 3515 0972 BA000000 		.4byte	0xba
 3516 0976 00000000 		.4byte	.LFB12
 3517 097a 96000000 		.4byte	.LFE12
 3518 097e DC000000 		.4byte	.LLST5
 3519 0982 D0090000 		.4byte	0x9d0
 3520 0986 19       		.uleb128 0x19
 3521 0987 4C060000 		.4byte	.LASF40
 3522 098b 01       		.byte	0x1
 3523 098c 4702     		.2byte	0x247
 3524 098e F9010000 		.4byte	0x1f9
 3525 0992 02       		.byte	0x2
 3526 0993 91       		.byte	0x91
 3527 0994 6C       		.sleb128 -20
 3528 0995 19       		.uleb128 0x19
 3529 0996 66020000 		.4byte	.LASF110
 3530 099a 01       		.byte	0x1
 3531 099b 4702     		.2byte	0x247
 3532 099d 20030000 		.4byte	0x320
 3533 09a1 02       		.byte	0x2
 3534 09a2 91       		.byte	0x91
 3535 09a3 68       		.sleb128 -24
 3536 09a4 19       		.uleb128 0x19
 3537 09a5 14040000 		.4byte	.LASF124
 3538 09a9 01       		.byte	0x1
 3539 09aa 4802     		.2byte	0x248
 3540 09ac D0090000 		.4byte	0x9d0
 3541 09b0 02       		.byte	0x2
 3542 09b1 91       		.byte	0x91
 3543 09b2 64       		.sleb128 -28
 3544 09b3 19       		.uleb128 0x19
 3545 09b4 A4050000 		.4byte	.LASF125
 3546 09b8 01       		.byte	0x1
 3547 09b9 4802     		.2byte	0x248
 3548 09bb D6090000 		.4byte	0x9d6
 3549 09bf 02       		.byte	0x2
 3550 09c0 91       		.byte	0x91
 3551 09c1 60       		.sleb128 -32
 3552 09c2 1B       		.uleb128 0x1b
 3553 09c3 6900     		.ascii	"i\000"
 3554 09c5 01       		.byte	0x1
 3555 09c6 4A02     		.2byte	0x24a
 3556 09c8 BA000000 		.4byte	0xba
 3557 09cc 02       		.byte	0x2
 3558 09cd 91       		.byte	0x91
 3559 09ce 77       		.sleb128 -9
 3560 09cf 00       		.byte	0
 3561 09d0 0D       		.uleb128 0xd
 3562 09d1 04       		.byte	0x4
 3563 09d2 DE080000 		.4byte	0x8de
 3564 09d6 0D       		.uleb128 0xd
 3565 09d7 04       		.byte	0x4
 3566 09d8 20030000 		.4byte	0x320
 3567 09dc 1E       		.uleb128 0x1e
 3568 09dd 22050000 		.4byte	.LASF127
 3569 09e1 01       		.byte	0x1
ARM GAS  /tmp/ccLoOG9f.s 			page 64


 3570 09e2 9C02     		.2byte	0x29c
 3571 09e4 01       		.byte	0x1
 3572 09e5 00000000 		.4byte	.LFB13
 3573 09e9 88020000 		.4byte	.LFE13
 3574 09ed 08010000 		.4byte	.LLST6
 3575 09f1 6C0A0000 		.4byte	0xa6c
 3576 09f5 19       		.uleb128 0x19
 3577 09f6 4C060000 		.4byte	.LASF40
 3578 09fa 01       		.byte	0x1
 3579 09fb 9C02     		.2byte	0x29c
 3580 09fd F9010000 		.4byte	0x1f9
 3581 0a01 02       		.byte	0x2
 3582 0a02 91       		.byte	0x91
 3583 0a03 5C       		.sleb128 -36
 3584 0a04 19       		.uleb128 0x19
 3585 0a05 0E030000 		.4byte	.LASF111
 3586 0a09 01       		.byte	0x1
 3587 0a0a 9C02     		.2byte	0x29c
 3588 0a0c DE080000 		.4byte	0x8de
 3589 0a10 02       		.byte	0x2
 3590 0a11 91       		.byte	0x91
 3591 0a12 58       		.sleb128 -40
 3592 0a13 1C       		.uleb128 0x1c
 3593 0a14 7000     		.ascii	"p\000"
 3594 0a16 01       		.byte	0x1
 3595 0a17 9C02     		.2byte	0x29c
 3596 0a19 F3010000 		.4byte	0x1f3
 3597 0a1d 02       		.byte	0x2
 3598 0a1e 91       		.byte	0x91
 3599 0a1f 54       		.sleb128 -44
 3600 0a20 1B       		.uleb128 0x1b
 3601 0a21 68647200 		.ascii	"hdr\000"
 3602 0a25 01       		.byte	0x1
 3603 0a26 9E02     		.2byte	0x29e
 3604 0a28 6C0A0000 		.4byte	0xa6c
 3605 0a2c 02       		.byte	0x2
 3606 0a2d 91       		.byte	0x91
 3607 0a2e 6C       		.sleb128 -20
 3608 0a2f 1A       		.uleb128 0x1a
 3609 0a30 C3040000 		.4byte	.LASF122
 3610 0a34 01       		.byte	0x1
 3611 0a35 9F02     		.2byte	0x29f
 3612 0a37 E4080000 		.4byte	0x8e4
 3613 0a3b 02       		.byte	0x2
 3614 0a3c 91       		.byte	0x91
 3615 0a3d 70       		.sleb128 -16
 3616 0a3e 1A       		.uleb128 0x1a
 3617 0a3f A5030000 		.4byte	.LASF103
 3618 0a43 01       		.byte	0x1
 3619 0a44 A102     		.2byte	0x2a1
 3620 0a46 01010000 		.4byte	0x101
 3621 0a4a 02       		.byte	0x2
 3622 0a4b 91       		.byte	0x91
 3623 0a4c 68       		.sleb128 -24
 3624 0a4d 1A       		.uleb128 0x1a
 3625 0a4e 95000000 		.4byte	.LASF105
 3626 0a52 01       		.byte	0x1
ARM GAS  /tmp/ccLoOG9f.s 			page 65


 3627 0a53 A102     		.2byte	0x2a1
 3628 0a55 01010000 		.4byte	0x101
 3629 0a59 02       		.byte	0x2
 3630 0a5a 91       		.byte	0x91
 3631 0a5b 64       		.sleb128 -28
 3632 0a5c 1A       		.uleb128 0x1a
 3633 0a5d CE050000 		.4byte	.LASF128
 3634 0a61 01       		.byte	0x1
 3635 0a62 A202     		.2byte	0x2a2
 3636 0a64 AF000000 		.4byte	0xaf
 3637 0a68 02       		.byte	0x2
 3638 0a69 91       		.byte	0x91
 3639 0a6a 77       		.sleb128 -9
 3640 0a6b 00       		.byte	0
 3641 0a6c 0D       		.uleb128 0xd
 3642 0a6d 04       		.byte	0x4
 3643 0a6e 4E060000 		.4byte	0x64e
 3644 0a72 1D       		.uleb128 0x1d
 3645 0a73 01       		.byte	0x1
 3646 0a74 5E060000 		.4byte	.LASF130
 3647 0a78 01       		.byte	0x1
 3648 0a79 4503     		.2byte	0x345
 3649 0a7b 01       		.byte	0x1
 3650 0a7c 37010000 		.4byte	0x137
 3651 0a80 00000000 		.4byte	.LFB14
 3652 0a84 B2010000 		.4byte	.LFE14
 3653 0a88 34010000 		.4byte	.LLST7
 3654 0a8c DA0A0000 		.4byte	0xada
 3655 0a90 19       		.uleb128 0x19
 3656 0a91 4C060000 		.4byte	.LASF40
 3657 0a95 01       		.byte	0x1
 3658 0a96 4503     		.2byte	0x345
 3659 0a98 F9010000 		.4byte	0x1f9
 3660 0a9c 02       		.byte	0x2
 3661 0a9d 91       		.byte	0x91
 3662 0a9e 64       		.sleb128 -28
 3663 0a9f 1C       		.uleb128 0x1c
 3664 0aa0 7100     		.ascii	"q\000"
 3665 0aa2 01       		.byte	0x1
 3666 0aa3 4503     		.2byte	0x345
 3667 0aa5 F3010000 		.4byte	0x1f3
 3668 0aa9 02       		.byte	0x2
 3669 0aaa 91       		.byte	0x91
 3670 0aab 60       		.sleb128 -32
 3671 0aac 19       		.uleb128 0x19
 3672 0aad 66020000 		.4byte	.LASF110
 3673 0ab1 01       		.byte	0x1
 3674 0ab2 4503     		.2byte	0x345
 3675 0ab4 20030000 		.4byte	0x320
 3676 0ab8 02       		.byte	0x2
 3677 0ab9 91       		.byte	0x91
 3678 0aba 5C       		.sleb128 -36
 3679 0abb 1A       		.uleb128 0x1a
 3680 0abc BF060000 		.4byte	.LASF95
 3681 0ac0 01       		.byte	0x1
 3682 0ac1 4703     		.2byte	0x347
 3683 0ac3 DE080000 		.4byte	0x8de
ARM GAS  /tmp/ccLoOG9f.s 			page 66


 3684 0ac7 02       		.byte	0x2
 3685 0ac8 91       		.byte	0x91
 3686 0ac9 74       		.sleb128 -12
 3687 0aca 1A       		.uleb128 0x1a
 3688 0acb E3050000 		.4byte	.LASF131
 3689 0acf 01       		.byte	0x1
 3690 0ad0 4703     		.2byte	0x347
 3691 0ad2 FC050000 		.4byte	0x5fc
 3692 0ad6 02       		.byte	0x2
 3693 0ad7 91       		.byte	0x91
 3694 0ad8 6C       		.sleb128 -20
 3695 0ad9 00       		.byte	0
 3696 0ada 1D       		.uleb128 0x1d
 3697 0adb 01       		.byte	0x1
 3698 0adc BE000000 		.4byte	.LASF132
 3699 0ae0 01       		.byte	0x1
 3700 0ae1 BD03     		.2byte	0x3bd
 3701 0ae3 01       		.byte	0x1
 3702 0ae4 37010000 		.4byte	0x137
 3703 0ae8 00000000 		.4byte	.LFB15
 3704 0aec C2020000 		.4byte	.LFE15
 3705 0af0 60010000 		.4byte	.LLST8
 3706 0af4 750B0000 		.4byte	0xb75
 3707 0af8 19       		.uleb128 0x19
 3708 0af9 4C060000 		.4byte	.LASF40
 3709 0afd 01       		.byte	0x1
 3710 0afe BD03     		.2byte	0x3bd
 3711 0b00 F9010000 		.4byte	0x1f9
 3712 0b04 02       		.byte	0x2
 3713 0b05 91       		.byte	0x91
 3714 0b06 5C       		.sleb128 -36
 3715 0b07 19       		.uleb128 0x19
 3716 0b08 66020000 		.4byte	.LASF110
 3717 0b0c 01       		.byte	0x1
 3718 0b0d BD03     		.2byte	0x3bd
 3719 0b0f 20030000 		.4byte	0x320
 3720 0b13 02       		.byte	0x2
 3721 0b14 91       		.byte	0x91
 3722 0b15 58       		.sleb128 -40
 3723 0b16 1C       		.uleb128 0x1c
 3724 0b17 7100     		.ascii	"q\000"
 3725 0b19 01       		.byte	0x1
 3726 0b1a BD03     		.2byte	0x3bd
 3727 0b1c F3010000 		.4byte	0x1f3
 3728 0b20 02       		.byte	0x2
 3729 0b21 91       		.byte	0x91
 3730 0b22 54       		.sleb128 -44
 3731 0b23 1A       		.uleb128 0x1a
 3732 0b24 31030000 		.4byte	.LASF133
 3733 0b28 01       		.byte	0x1
 3734 0b29 BF03     		.2byte	0x3bf
 3735 0b2b DE080000 		.4byte	0x8de
 3736 0b2f 02       		.byte	0x2
 3737 0b30 91       		.byte	0x91
 3738 0b31 68       		.sleb128 -24
 3739 0b32 1A       		.uleb128 0x1a
 3740 0b33 A4010000 		.4byte	.LASF134
ARM GAS  /tmp/ccLoOG9f.s 			page 67


 3741 0b37 01       		.byte	0x1
 3742 0b38 C003     		.2byte	0x3c0
 3743 0b3a 37010000 		.4byte	0x137
 3744 0b3e 02       		.byte	0x2
 3745 0b3f 91       		.byte	0x91
 3746 0b40 77       		.sleb128 -9
 3747 0b41 1B       		.uleb128 0x1b
 3748 0b42 6900     		.ascii	"i\000"
 3749 0b44 01       		.byte	0x1
 3750 0b45 C103     		.2byte	0x3c1
 3751 0b47 BA000000 		.4byte	0xba
 3752 0b4b 02       		.byte	0x2
 3753 0b4c 91       		.byte	0x91
 3754 0b4d 67       		.sleb128 -25
 3755 0b4e 16       		.uleb128 0x16
 3756 0b4f B4010000 		.4byte	.LBB5
 3757 0b53 B6020000 		.4byte	.LBE5
 3758 0b57 1B       		.uleb128 0x1b
 3759 0b58 7000     		.ascii	"p\000"
 3760 0b5a 01       		.byte	0x1
 3761 0b5b FC03     		.2byte	0x3fc
 3762 0b5d F3010000 		.4byte	0x1f3
 3763 0b61 02       		.byte	0x2
 3764 0b62 91       		.byte	0x91
 3765 0b63 70       		.sleb128 -16
 3766 0b64 1A       		.uleb128 0x1a
 3767 0b65 83000000 		.4byte	.LASF135
 3768 0b69 01       		.byte	0x1
 3769 0b6a FD03     		.2byte	0x3fd
 3770 0b6c 29000000 		.4byte	0x29
 3771 0b70 02       		.byte	0x2
 3772 0b71 91       		.byte	0x91
 3773 0b72 6C       		.sleb128 -20
 3774 0b73 00       		.byte	0
 3775 0b74 00       		.byte	0
 3776 0b75 18       		.uleb128 0x18
 3777 0b76 C3050000 		.4byte	.LASF136
 3778 0b7a 01       		.byte	0x1
 3779 0b7b 5C04     		.2byte	0x45c
 3780 0b7d 01       		.byte	0x1
 3781 0b7e 37010000 		.4byte	0x137
 3782 0b82 00000000 		.4byte	.LFB16
 3783 0b86 AC010000 		.4byte	.LFE16
 3784 0b8a 8C010000 		.4byte	.LLST9
 3785 0b8e 450C0000 		.4byte	0xc45
 3786 0b92 19       		.uleb128 0x19
 3787 0b93 4C060000 		.4byte	.LASF40
 3788 0b97 01       		.byte	0x1
 3789 0b98 5C04     		.2byte	0x45c
 3790 0b9a F9010000 		.4byte	0x1f9
 3791 0b9e 02       		.byte	0x2
 3792 0b9f 91       		.byte	0x91
 3793 0ba0 64       		.sleb128 -28
 3794 0ba1 19       		.uleb128 0x19
 3795 0ba2 17010000 		.4byte	.LASF137
 3796 0ba6 01       		.byte	0x1
 3797 0ba7 5C04     		.2byte	0x45c
ARM GAS  /tmp/ccLoOG9f.s 			page 68


 3798 0ba9 450C0000 		.4byte	0xc45
 3799 0bad 02       		.byte	0x2
 3800 0bae 91       		.byte	0x91
 3801 0baf 60       		.sleb128 -32
 3802 0bb0 19       		.uleb128 0x19
 3803 0bb1 33040000 		.4byte	.LASF138
 3804 0bb5 01       		.byte	0x1
 3805 0bb6 5D04     		.2byte	0x45d
 3806 0bb8 450C0000 		.4byte	0xc45
 3807 0bbc 02       		.byte	0x2
 3808 0bbd 91       		.byte	0x91
 3809 0bbe 5C       		.sleb128 -36
 3810 0bbf 19       		.uleb128 0x19
 3811 0bc0 09040000 		.4byte	.LASF139
 3812 0bc4 01       		.byte	0x1
 3813 0bc5 5E04     		.2byte	0x45e
 3814 0bc7 450C0000 		.4byte	0xc45
 3815 0bcb 02       		.byte	0x2
 3816 0bcc 91       		.byte	0x91
 3817 0bcd 58       		.sleb128 -40
 3818 0bce 19       		.uleb128 0x19
 3819 0bcf 17050000 		.4byte	.LASF140
 3820 0bd3 01       		.byte	0x1
 3821 0bd4 5E04     		.2byte	0x45e
 3822 0bd6 500C0000 		.4byte	0xc50
 3823 0bda 02       		.byte	0x2
 3824 0bdb 91       		.byte	0x91
 3825 0bdc 00       		.sleb128 0
 3826 0bdd 19       		.uleb128 0x19
 3827 0bde 41060000 		.4byte	.LASF141
 3828 0be2 01       		.byte	0x1
 3829 0be3 5F04     		.2byte	0x45f
 3830 0be5 450C0000 		.4byte	0xc45
 3831 0be9 02       		.byte	0x2
 3832 0bea 91       		.byte	0x91
 3833 0beb 04       		.sleb128 4
 3834 0bec 19       		.uleb128 0x19
 3835 0bed B8040000 		.4byte	.LASF142
 3836 0bf1 01       		.byte	0x1
 3837 0bf2 5F04     		.2byte	0x45f
 3838 0bf4 500C0000 		.4byte	0xc50
 3839 0bf8 02       		.byte	0x2
 3840 0bf9 91       		.byte	0x91
 3841 0bfa 08       		.sleb128 8
 3842 0bfb 19       		.uleb128 0x19
 3843 0bfc 9E030000 		.4byte	.LASF101
 3844 0c00 01       		.byte	0x1
 3845 0c01 6004     		.2byte	0x460
 3846 0c03 5B0C0000 		.4byte	0xc5b
 3847 0c07 02       		.byte	0x2
 3848 0c08 91       		.byte	0x91
 3849 0c09 0C       		.sleb128 12
 3850 0c0a 1B       		.uleb128 0x1b
 3851 0c0b 7000     		.ascii	"p\000"
 3852 0c0d 01       		.byte	0x1
 3853 0c0e 6204     		.2byte	0x462
 3854 0c10 F3010000 		.4byte	0x1f3
ARM GAS  /tmp/ccLoOG9f.s 			page 69


 3855 0c14 02       		.byte	0x2
 3856 0c15 91       		.byte	0x91
 3857 0c16 70       		.sleb128 -16
 3858 0c17 1A       		.uleb128 0x1a
 3859 0c18 A4010000 		.4byte	.LASF134
 3860 0c1c 01       		.byte	0x1
 3861 0c1d 6304     		.2byte	0x463
 3862 0c1f 37010000 		.4byte	0x137
 3863 0c23 02       		.byte	0x2
 3864 0c24 91       		.byte	0x91
 3865 0c25 77       		.sleb128 -9
 3866 0c26 1A       		.uleb128 0x1a
 3867 0c27 C3040000 		.4byte	.LASF122
 3868 0c2b 01       		.byte	0x1
 3869 0c2c 6404     		.2byte	0x464
 3870 0c2e E4080000 		.4byte	0x8e4
 3871 0c32 02       		.byte	0x2
 3872 0c33 91       		.byte	0x91
 3873 0c34 6C       		.sleb128 -20
 3874 0c35 1B       		.uleb128 0x1b
 3875 0c36 68647200 		.ascii	"hdr\000"
 3876 0c3a 01       		.byte	0x1
 3877 0c3b 6504     		.2byte	0x465
 3878 0c3d 6C0A0000 		.4byte	0xa6c
 3879 0c41 02       		.byte	0x2
 3880 0c42 91       		.byte	0x91
 3881 0c43 68       		.sleb128 -24
 3882 0c44 00       		.byte	0
 3883 0c45 0D       		.uleb128 0xd
 3884 0c46 04       		.byte	0x4
 3885 0c47 4B0C0000 		.4byte	0xc4b
 3886 0c4b 1F       		.uleb128 0x1f
 3887 0c4c FC050000 		.4byte	0x5fc
 3888 0c50 0D       		.uleb128 0xd
 3889 0c51 04       		.byte	0x4
 3890 0c52 560C0000 		.4byte	0xc56
 3891 0c56 1F       		.uleb128 0x1f
 3892 0c57 01010000 		.4byte	0x101
 3893 0c5b 1F       		.uleb128 0x1f
 3894 0c5c C5000000 		.4byte	0xc5
 3895 0c60 1D       		.uleb128 0x1d
 3896 0c61 01       		.byte	0x1
 3897 0c62 33050000 		.4byte	.LASF143
 3898 0c66 01       		.byte	0x1
 3899 0c67 AE04     		.2byte	0x4ae
 3900 0c69 01       		.byte	0x1
 3901 0c6a 37010000 		.4byte	0x137
 3902 0c6e 00000000 		.4byte	.LFB17
 3903 0c72 4A000000 		.4byte	.LFE17
 3904 0c76 B8010000 		.4byte	.LLST10
 3905 0c7a 9D0C0000 		.4byte	0xc9d
 3906 0c7e 19       		.uleb128 0x19
 3907 0c7f 4C060000 		.4byte	.LASF40
 3908 0c83 01       		.byte	0x1
 3909 0c84 AE04     		.2byte	0x4ae
 3910 0c86 F9010000 		.4byte	0x1f9
 3911 0c8a 02       		.byte	0x2
ARM GAS  /tmp/ccLoOG9f.s 			page 70


 3912 0c8b 91       		.byte	0x91
 3913 0c8c 74       		.sleb128 -12
 3914 0c8d 19       		.uleb128 0x19
 3915 0c8e 66020000 		.4byte	.LASF110
 3916 0c92 01       		.byte	0x1
 3917 0c93 AE04     		.2byte	0x4ae
 3918 0c95 20030000 		.4byte	0x320
 3919 0c99 02       		.byte	0x2
 3920 0c9a 91       		.byte	0x91
 3921 0c9b 70       		.sleb128 -16
 3922 0c9c 00       		.byte	0
 3923 0c9d 1D       		.uleb128 0x1d
 3924 0c9e 01       		.byte	0x1
 3925 0c9f F5020000 		.4byte	.LASF144
 3926 0ca3 01       		.byte	0x1
 3927 0ca4 C004     		.2byte	0x4c0
 3928 0ca6 01       		.byte	0x1
 3929 0ca7 37010000 		.4byte	0x137
 3930 0cab 00000000 		.4byte	.LFB18
 3931 0caf 22010000 		.4byte	.LFE18
 3932 0cb3 E4010000 		.4byte	.LLST11
 3933 0cb7 110D0000 		.4byte	0xd11
 3934 0cbb 1C       		.uleb128 0x1c
 3935 0cbc 7000     		.ascii	"p\000"
 3936 0cbe 01       		.byte	0x1
 3937 0cbf C004     		.2byte	0x4c0
 3938 0cc1 F3010000 		.4byte	0x1f3
 3939 0cc5 02       		.byte	0x2
 3940 0cc6 91       		.byte	0x91
 3941 0cc7 64       		.sleb128 -28
 3942 0cc8 19       		.uleb128 0x19
 3943 0cc9 4C060000 		.4byte	.LASF40
 3944 0ccd 01       		.byte	0x1
 3945 0cce C004     		.2byte	0x4c0
 3946 0cd0 F9010000 		.4byte	0x1f9
 3947 0cd4 02       		.byte	0x2
 3948 0cd5 91       		.byte	0x91
 3949 0cd6 60       		.sleb128 -32
 3950 0cd7 1A       		.uleb128 0x1a
 3951 0cd8 C3040000 		.4byte	.LASF122
 3952 0cdc 01       		.byte	0x1
 3953 0cdd C204     		.2byte	0x4c2
 3954 0cdf E4080000 		.4byte	0x8e4
 3955 0ce3 02       		.byte	0x2
 3956 0ce4 91       		.byte	0x91
 3957 0ce5 70       		.sleb128 -16
 3958 0ce6 1A       		.uleb128 0x1a
 3959 0ce7 ED050000 		.4byte	.LASF38
 3960 0ceb 01       		.byte	0x1
 3961 0cec C304     		.2byte	0x4c3
 3962 0cee C5000000 		.4byte	0xc5
 3963 0cf2 02       		.byte	0x2
 3964 0cf3 91       		.byte	0x91
 3965 0cf4 6E       		.sleb128 -18
 3966 0cf5 1A       		.uleb128 0x1a
 3967 0cf6 23060000 		.4byte	.LASF145
 3968 0cfa 01       		.byte	0x1
ARM GAS  /tmp/ccLoOG9f.s 			page 71


 3969 0cfb C404     		.2byte	0x4c4
 3970 0cfd D0000000 		.4byte	0xd0
 3971 0d01 02       		.byte	0x2
 3972 0d02 91       		.byte	0x91
 3973 0d03 76       		.sleb128 -10
 3974 0d04 20       		.uleb128 0x20
 3975 0d05 C8030000 		.4byte	.LASF156
 3976 0d09 01       		.byte	0x1
 3977 0d0a 2205     		.2byte	0x522
 3978 0d0c 10010000 		.4byte	.L103
 3979 0d10 00       		.byte	0
 3980 0d11 21       		.uleb128 0x21
 3981 0d12 0C010000 		.4byte	.LASF146
 3982 0d16 0A       		.byte	0xa
 3983 0d17 95       		.byte	0x95
 3984 0d18 4F050000 		.4byte	0x54f
 3985 0d1c 01       		.byte	0x1
 3986 0d1d 01       		.byte	0x1
 3987 0d1e 21       		.uleb128 0x21
 3988 0d1f AB040000 		.4byte	.LASF147
 3989 0d23 0B       		.byte	0xb
 3990 0d24 D5       		.byte	0xd5
 3991 0d25 4B0C0000 		.4byte	0xc4b
 3992 0d29 01       		.byte	0x1
 3993 0d2a 01       		.byte	0x1
 3994 0d2b 21       		.uleb128 0x21
 3995 0d2c 9C050000 		.4byte	.LASF148
 3996 0d30 0B       		.byte	0xb
 3997 0d31 D5       		.byte	0xd5
 3998 0d32 4B0C0000 		.4byte	0xc4b
 3999 0d36 01       		.byte	0x1
 4000 0d37 01       		.byte	0x1
 4001 0d38 08       		.uleb128 0x8
 4002 0d39 F8060000 		.4byte	0x6f8
 4003 0d3d 480D0000 		.4byte	0xd48
 4004 0d41 09       		.uleb128 0x9
 4005 0d42 30000000 		.4byte	0x30
 4006 0d46 09       		.byte	0x9
 4007 0d47 00       		.byte	0
 4008 0d48 17       		.uleb128 0x17
 4009 0d49 36000000 		.4byte	.LASF149
 4010 0d4d 01       		.byte	0x1
 4011 0d4e 70       		.byte	0x70
 4012 0d4f 380D0000 		.4byte	0xd38
 4013 0d53 05       		.byte	0x5
 4014 0d54 03       		.byte	0x3
 4015 0d55 00000000 		.4byte	arp_table
 4016 0d59 17       		.uleb128 0x17
 4017 0d5a 1D030000 		.4byte	.LASF150
 4018 0d5e 01       		.byte	0x1
 4019 0d5f 73       		.byte	0x73
 4020 0d60 AF000000 		.4byte	0xaf
 4021 0d64 05       		.byte	0x5
 4022 0d65 03       		.byte	0x3
 4023 0d66 00000000 		.4byte	etharp_cached_entry
 4024 0d6a 21       		.uleb128 0x21
 4025 0d6b 0C010000 		.4byte	.LASF146
ARM GAS  /tmp/ccLoOG9f.s 			page 72


 4026 0d6f 0A       		.byte	0xa
 4027 0d70 95       		.byte	0x95
 4028 0d71 4F050000 		.4byte	0x54f
 4029 0d75 01       		.byte	0x1
 4030 0d76 01       		.byte	0x1
 4031 0d77 22       		.uleb128 0x22
 4032 0d78 AB040000 		.4byte	.LASF147
 4033 0d7c 01       		.byte	0x1
 4034 0d7d 41       		.byte	0x41
 4035 0d7e 4B0C0000 		.4byte	0xc4b
 4036 0d82 01       		.byte	0x1
 4037 0d83 05       		.byte	0x5
 4038 0d84 03       		.byte	0x3
 4039 0d85 00000000 		.4byte	ethbroadcast
 4040 0d89 22       		.uleb128 0x22
 4041 0d8a 9C050000 		.4byte	.LASF148
 4042 0d8e 01       		.byte	0x1
 4043 0d8f 42       		.byte	0x42
 4044 0d90 4B0C0000 		.4byte	0xc4b
 4045 0d94 01       		.byte	0x1
 4046 0d95 05       		.byte	0x5
 4047 0d96 03       		.byte	0x3
 4048 0d97 00000000 		.4byte	ethzero
 4049 0d9b 00       		.byte	0
 4050              		.section	.debug_abbrev,"",%progbits
 4051              	.Ldebug_abbrev0:
 4052 0000 01       		.uleb128 0x1
 4053 0001 11       		.uleb128 0x11
 4054 0002 01       		.byte	0x1
 4055 0003 25       		.uleb128 0x25
 4056 0004 0E       		.uleb128 0xe
 4057 0005 13       		.uleb128 0x13
 4058 0006 0B       		.uleb128 0xb
 4059 0007 03       		.uleb128 0x3
 4060 0008 0E       		.uleb128 0xe
 4061 0009 1B       		.uleb128 0x1b
 4062 000a 0E       		.uleb128 0xe
 4063 000b 11       		.uleb128 0x11
 4064 000c 01       		.uleb128 0x1
 4065 000d 52       		.uleb128 0x52
 4066 000e 01       		.uleb128 0x1
 4067 000f 55       		.uleb128 0x55
 4068 0010 06       		.uleb128 0x6
 4069 0011 10       		.uleb128 0x10
 4070 0012 06       		.uleb128 0x6
 4071 0013 00       		.byte	0
 4072 0014 00       		.byte	0
 4073 0015 02       		.uleb128 0x2
 4074 0016 24       		.uleb128 0x24
 4075 0017 00       		.byte	0
 4076 0018 0B       		.uleb128 0xb
 4077 0019 0B       		.uleb128 0xb
 4078 001a 3E       		.uleb128 0x3e
 4079 001b 0B       		.uleb128 0xb
 4080 001c 03       		.uleb128 0x3
 4081 001d 08       		.uleb128 0x8
 4082 001e 00       		.byte	0
ARM GAS  /tmp/ccLoOG9f.s 			page 73


 4083 001f 00       		.byte	0
 4084 0020 03       		.uleb128 0x3
 4085 0021 24       		.uleb128 0x24
 4086 0022 00       		.byte	0
 4087 0023 0B       		.uleb128 0xb
 4088 0024 0B       		.uleb128 0xb
 4089 0025 3E       		.uleb128 0x3e
 4090 0026 0B       		.uleb128 0xb
 4091 0027 03       		.uleb128 0x3
 4092 0028 0E       		.uleb128 0xe
 4093 0029 00       		.byte	0
 4094 002a 00       		.byte	0
 4095 002b 04       		.uleb128 0x4
 4096 002c 16       		.uleb128 0x16
 4097 002d 00       		.byte	0
 4098 002e 03       		.uleb128 0x3
 4099 002f 0E       		.uleb128 0xe
 4100 0030 3A       		.uleb128 0x3a
 4101 0031 0B       		.uleb128 0xb
 4102 0032 3B       		.uleb128 0x3b
 4103 0033 0B       		.uleb128 0xb
 4104 0034 49       		.uleb128 0x49
 4105 0035 13       		.uleb128 0x13
 4106 0036 00       		.byte	0
 4107 0037 00       		.byte	0
 4108 0038 05       		.uleb128 0x5
 4109 0039 0F       		.uleb128 0xf
 4110 003a 00       		.byte	0
 4111 003b 0B       		.uleb128 0xb
 4112 003c 0B       		.uleb128 0xb
 4113 003d 00       		.byte	0
 4114 003e 00       		.byte	0
 4115 003f 06       		.uleb128 0x6
 4116 0040 13       		.uleb128 0x13
 4117 0041 01       		.byte	0x1
 4118 0042 03       		.uleb128 0x3
 4119 0043 0E       		.uleb128 0xe
 4120 0044 0B       		.uleb128 0xb
 4121 0045 0B       		.uleb128 0xb
 4122 0046 3A       		.uleb128 0x3a
 4123 0047 0B       		.uleb128 0xb
 4124 0048 3B       		.uleb128 0x3b
 4125 0049 0B       		.uleb128 0xb
 4126 004a 01       		.uleb128 0x1
 4127 004b 13       		.uleb128 0x13
 4128 004c 00       		.byte	0
 4129 004d 00       		.byte	0
 4130 004e 07       		.uleb128 0x7
 4131 004f 0D       		.uleb128 0xd
 4132 0050 00       		.byte	0
 4133 0051 03       		.uleb128 0x3
 4134 0052 0E       		.uleb128 0xe
 4135 0053 3A       		.uleb128 0x3a
 4136 0054 0B       		.uleb128 0xb
 4137 0055 3B       		.uleb128 0x3b
 4138 0056 0B       		.uleb128 0xb
 4139 0057 49       		.uleb128 0x49
ARM GAS  /tmp/ccLoOG9f.s 			page 74


 4140 0058 13       		.uleb128 0x13
 4141 0059 38       		.uleb128 0x38
 4142 005a 0A       		.uleb128 0xa
 4143 005b 00       		.byte	0
 4144 005c 00       		.byte	0
 4145 005d 08       		.uleb128 0x8
 4146 005e 01       		.uleb128 0x1
 4147 005f 01       		.byte	0x1
 4148 0060 49       		.uleb128 0x49
 4149 0061 13       		.uleb128 0x13
 4150 0062 01       		.uleb128 0x1
 4151 0063 13       		.uleb128 0x13
 4152 0064 00       		.byte	0
 4153 0065 00       		.byte	0
 4154 0066 09       		.uleb128 0x9
 4155 0067 21       		.uleb128 0x21
 4156 0068 00       		.byte	0
 4157 0069 49       		.uleb128 0x49
 4158 006a 13       		.uleb128 0x13
 4159 006b 2F       		.uleb128 0x2f
 4160 006c 0B       		.uleb128 0xb
 4161 006d 00       		.byte	0
 4162 006e 00       		.byte	0
 4163 006f 0A       		.uleb128 0xa
 4164 0070 04       		.uleb128 0x4
 4165 0071 01       		.byte	0x1
 4166 0072 0B       		.uleb128 0xb
 4167 0073 0B       		.uleb128 0xb
 4168 0074 3A       		.uleb128 0x3a
 4169 0075 0B       		.uleb128 0xb
 4170 0076 3B       		.uleb128 0x3b
 4171 0077 0B       		.uleb128 0xb
 4172 0078 01       		.uleb128 0x1
 4173 0079 13       		.uleb128 0x13
 4174 007a 00       		.byte	0
 4175 007b 00       		.byte	0
 4176 007c 0B       		.uleb128 0xb
 4177 007d 28       		.uleb128 0x28
 4178 007e 00       		.byte	0
 4179 007f 03       		.uleb128 0x3
 4180 0080 0E       		.uleb128 0xe
 4181 0081 1C       		.uleb128 0x1c
 4182 0082 0D       		.uleb128 0xd
 4183 0083 00       		.byte	0
 4184 0084 00       		.byte	0
 4185 0085 0C       		.uleb128 0xc
 4186 0086 0D       		.uleb128 0xd
 4187 0087 00       		.byte	0
 4188 0088 03       		.uleb128 0x3
 4189 0089 08       		.uleb128 0x8
 4190 008a 3A       		.uleb128 0x3a
 4191 008b 0B       		.uleb128 0xb
 4192 008c 3B       		.uleb128 0x3b
 4193 008d 0B       		.uleb128 0xb
 4194 008e 49       		.uleb128 0x49
 4195 008f 13       		.uleb128 0x13
 4196 0090 38       		.uleb128 0x38
ARM GAS  /tmp/ccLoOG9f.s 			page 75


 4197 0091 0A       		.uleb128 0xa
 4198 0092 00       		.byte	0
 4199 0093 00       		.byte	0
 4200 0094 0D       		.uleb128 0xd
 4201 0095 0F       		.uleb128 0xf
 4202 0096 00       		.byte	0
 4203 0097 0B       		.uleb128 0xb
 4204 0098 0B       		.uleb128 0xb
 4205 0099 49       		.uleb128 0x49
 4206 009a 13       		.uleb128 0x13
 4207 009b 00       		.byte	0
 4208 009c 00       		.byte	0
 4209 009d 0E       		.uleb128 0xe
 4210 009e 15       		.uleb128 0x15
 4211 009f 01       		.byte	0x1
 4212 00a0 27       		.uleb128 0x27
 4213 00a1 0C       		.uleb128 0xc
 4214 00a2 49       		.uleb128 0x49
 4215 00a3 13       		.uleb128 0x13
 4216 00a4 01       		.uleb128 0x1
 4217 00a5 13       		.uleb128 0x13
 4218 00a6 00       		.byte	0
 4219 00a7 00       		.byte	0
 4220 00a8 0F       		.uleb128 0xf
 4221 00a9 05       		.uleb128 0x5
 4222 00aa 00       		.byte	0
 4223 00ab 49       		.uleb128 0x49
 4224 00ac 13       		.uleb128 0x13
 4225 00ad 00       		.byte	0
 4226 00ae 00       		.byte	0
 4227 00af 10       		.uleb128 0x10
 4228 00b0 13       		.uleb128 0x13
 4229 00b1 01       		.byte	0x1
 4230 00b2 03       		.uleb128 0x3
 4231 00b3 0E       		.uleb128 0xe
 4232 00b4 0B       		.uleb128 0xb
 4233 00b5 05       		.uleb128 0x5
 4234 00b6 3A       		.uleb128 0x3a
 4235 00b7 0B       		.uleb128 0xb
 4236 00b8 3B       		.uleb128 0x3b
 4237 00b9 0B       		.uleb128 0xb
 4238 00ba 01       		.uleb128 0x1
 4239 00bb 13       		.uleb128 0x13
 4240 00bc 00       		.byte	0
 4241 00bd 00       		.byte	0
 4242 00be 11       		.uleb128 0x11
 4243 00bf 04       		.uleb128 0x4
 4244 00c0 01       		.byte	0x1
 4245 00c1 03       		.uleb128 0x3
 4246 00c2 0E       		.uleb128 0xe
 4247 00c3 0B       		.uleb128 0xb
 4248 00c4 0B       		.uleb128 0xb
 4249 00c5 3A       		.uleb128 0x3a
 4250 00c6 0B       		.uleb128 0xb
 4251 00c7 3B       		.uleb128 0x3b
 4252 00c8 0B       		.uleb128 0xb
 4253 00c9 01       		.uleb128 0x1
ARM GAS  /tmp/ccLoOG9f.s 			page 76


 4254 00ca 13       		.uleb128 0x13
 4255 00cb 00       		.byte	0
 4256 00cc 00       		.byte	0
 4257 00cd 12       		.uleb128 0x12
 4258 00ce 2E       		.uleb128 0x2e
 4259 00cf 01       		.byte	0x1
 4260 00d0 03       		.uleb128 0x3
 4261 00d1 0E       		.uleb128 0xe
 4262 00d2 3A       		.uleb128 0x3a
 4263 00d3 0B       		.uleb128 0xb
 4264 00d4 3B       		.uleb128 0x3b
 4265 00d5 0B       		.uleb128 0xb
 4266 00d6 27       		.uleb128 0x27
 4267 00d7 0C       		.uleb128 0xc
 4268 00d8 11       		.uleb128 0x11
 4269 00d9 01       		.uleb128 0x1
 4270 00da 12       		.uleb128 0x12
 4271 00db 01       		.uleb128 0x1
 4272 00dc 40       		.uleb128 0x40
 4273 00dd 06       		.uleb128 0x6
 4274 00de 01       		.uleb128 0x1
 4275 00df 13       		.uleb128 0x13
 4276 00e0 00       		.byte	0
 4277 00e1 00       		.byte	0
 4278 00e2 13       		.uleb128 0x13
 4279 00e3 05       		.uleb128 0x5
 4280 00e4 00       		.byte	0
 4281 00e5 03       		.uleb128 0x3
 4282 00e6 08       		.uleb128 0x8
 4283 00e7 3A       		.uleb128 0x3a
 4284 00e8 0B       		.uleb128 0xb
 4285 00e9 3B       		.uleb128 0x3b
 4286 00ea 0B       		.uleb128 0xb
 4287 00eb 49       		.uleb128 0x49
 4288 00ec 13       		.uleb128 0x13
 4289 00ed 02       		.uleb128 0x2
 4290 00ee 0A       		.uleb128 0xa
 4291 00ef 00       		.byte	0
 4292 00f0 00       		.byte	0
 4293 00f1 14       		.uleb128 0x14
 4294 00f2 2E       		.uleb128 0x2e
 4295 00f3 01       		.byte	0x1
 4296 00f4 3F       		.uleb128 0x3f
 4297 00f5 0C       		.uleb128 0xc
 4298 00f6 03       		.uleb128 0x3
 4299 00f7 0E       		.uleb128 0xe
 4300 00f8 3A       		.uleb128 0x3a
 4301 00f9 0B       		.uleb128 0xb
 4302 00fa 3B       		.uleb128 0x3b
 4303 00fb 0B       		.uleb128 0xb
 4304 00fc 27       		.uleb128 0x27
 4305 00fd 0C       		.uleb128 0xc
 4306 00fe 11       		.uleb128 0x11
 4307 00ff 01       		.uleb128 0x1
 4308 0100 12       		.uleb128 0x12
 4309 0101 01       		.uleb128 0x1
 4310 0102 40       		.uleb128 0x40
ARM GAS  /tmp/ccLoOG9f.s 			page 77


 4311 0103 06       		.uleb128 0x6
 4312 0104 01       		.uleb128 0x1
 4313 0105 13       		.uleb128 0x13
 4314 0106 00       		.byte	0
 4315 0107 00       		.byte	0
 4316 0108 15       		.uleb128 0x15
 4317 0109 34       		.uleb128 0x34
 4318 010a 00       		.byte	0
 4319 010b 03       		.uleb128 0x3
 4320 010c 08       		.uleb128 0x8
 4321 010d 3A       		.uleb128 0x3a
 4322 010e 0B       		.uleb128 0xb
 4323 010f 3B       		.uleb128 0x3b
 4324 0110 0B       		.uleb128 0xb
 4325 0111 49       		.uleb128 0x49
 4326 0112 13       		.uleb128 0x13
 4327 0113 02       		.uleb128 0x2
 4328 0114 0A       		.uleb128 0xa
 4329 0115 00       		.byte	0
 4330 0116 00       		.byte	0
 4331 0117 16       		.uleb128 0x16
 4332 0118 0B       		.uleb128 0xb
 4333 0119 01       		.byte	0x1
 4334 011a 11       		.uleb128 0x11
 4335 011b 01       		.uleb128 0x1
 4336 011c 12       		.uleb128 0x12
 4337 011d 01       		.uleb128 0x1
 4338 011e 00       		.byte	0
 4339 011f 00       		.byte	0
 4340 0120 17       		.uleb128 0x17
 4341 0121 34       		.uleb128 0x34
 4342 0122 00       		.byte	0
 4343 0123 03       		.uleb128 0x3
 4344 0124 0E       		.uleb128 0xe
 4345 0125 3A       		.uleb128 0x3a
 4346 0126 0B       		.uleb128 0xb
 4347 0127 3B       		.uleb128 0x3b
 4348 0128 0B       		.uleb128 0xb
 4349 0129 49       		.uleb128 0x49
 4350 012a 13       		.uleb128 0x13
 4351 012b 02       		.uleb128 0x2
 4352 012c 0A       		.uleb128 0xa
 4353 012d 00       		.byte	0
 4354 012e 00       		.byte	0
 4355 012f 18       		.uleb128 0x18
 4356 0130 2E       		.uleb128 0x2e
 4357 0131 01       		.byte	0x1
 4358 0132 03       		.uleb128 0x3
 4359 0133 0E       		.uleb128 0xe
 4360 0134 3A       		.uleb128 0x3a
 4361 0135 0B       		.uleb128 0xb
 4362 0136 3B       		.uleb128 0x3b
 4363 0137 05       		.uleb128 0x5
 4364 0138 27       		.uleb128 0x27
 4365 0139 0C       		.uleb128 0xc
 4366 013a 49       		.uleb128 0x49
 4367 013b 13       		.uleb128 0x13
ARM GAS  /tmp/ccLoOG9f.s 			page 78


 4368 013c 11       		.uleb128 0x11
 4369 013d 01       		.uleb128 0x1
 4370 013e 12       		.uleb128 0x12
 4371 013f 01       		.uleb128 0x1
 4372 0140 40       		.uleb128 0x40
 4373 0141 06       		.uleb128 0x6
 4374 0142 01       		.uleb128 0x1
 4375 0143 13       		.uleb128 0x13
 4376 0144 00       		.byte	0
 4377 0145 00       		.byte	0
 4378 0146 19       		.uleb128 0x19
 4379 0147 05       		.uleb128 0x5
 4380 0148 00       		.byte	0
 4381 0149 03       		.uleb128 0x3
 4382 014a 0E       		.uleb128 0xe
 4383 014b 3A       		.uleb128 0x3a
 4384 014c 0B       		.uleb128 0xb
 4385 014d 3B       		.uleb128 0x3b
 4386 014e 05       		.uleb128 0x5
 4387 014f 49       		.uleb128 0x49
 4388 0150 13       		.uleb128 0x13
 4389 0151 02       		.uleb128 0x2
 4390 0152 0A       		.uleb128 0xa
 4391 0153 00       		.byte	0
 4392 0154 00       		.byte	0
 4393 0155 1A       		.uleb128 0x1a
 4394 0156 34       		.uleb128 0x34
 4395 0157 00       		.byte	0
 4396 0158 03       		.uleb128 0x3
 4397 0159 0E       		.uleb128 0xe
 4398 015a 3A       		.uleb128 0x3a
 4399 015b 0B       		.uleb128 0xb
 4400 015c 3B       		.uleb128 0x3b
 4401 015d 05       		.uleb128 0x5
 4402 015e 49       		.uleb128 0x49
 4403 015f 13       		.uleb128 0x13
 4404 0160 02       		.uleb128 0x2
 4405 0161 0A       		.uleb128 0xa
 4406 0162 00       		.byte	0
 4407 0163 00       		.byte	0
 4408 0164 1B       		.uleb128 0x1b
 4409 0165 34       		.uleb128 0x34
 4410 0166 00       		.byte	0
 4411 0167 03       		.uleb128 0x3
 4412 0168 08       		.uleb128 0x8
 4413 0169 3A       		.uleb128 0x3a
 4414 016a 0B       		.uleb128 0xb
 4415 016b 3B       		.uleb128 0x3b
 4416 016c 05       		.uleb128 0x5
 4417 016d 49       		.uleb128 0x49
 4418 016e 13       		.uleb128 0x13
 4419 016f 02       		.uleb128 0x2
 4420 0170 0A       		.uleb128 0xa
 4421 0171 00       		.byte	0
 4422 0172 00       		.byte	0
 4423 0173 1C       		.uleb128 0x1c
 4424 0174 05       		.uleb128 0x5
ARM GAS  /tmp/ccLoOG9f.s 			page 79


 4425 0175 00       		.byte	0
 4426 0176 03       		.uleb128 0x3
 4427 0177 08       		.uleb128 0x8
 4428 0178 3A       		.uleb128 0x3a
 4429 0179 0B       		.uleb128 0xb
 4430 017a 3B       		.uleb128 0x3b
 4431 017b 05       		.uleb128 0x5
 4432 017c 49       		.uleb128 0x49
 4433 017d 13       		.uleb128 0x13
 4434 017e 02       		.uleb128 0x2
 4435 017f 0A       		.uleb128 0xa
 4436 0180 00       		.byte	0
 4437 0181 00       		.byte	0
 4438 0182 1D       		.uleb128 0x1d
 4439 0183 2E       		.uleb128 0x2e
 4440 0184 01       		.byte	0x1
 4441 0185 3F       		.uleb128 0x3f
 4442 0186 0C       		.uleb128 0xc
 4443 0187 03       		.uleb128 0x3
 4444 0188 0E       		.uleb128 0xe
 4445 0189 3A       		.uleb128 0x3a
 4446 018a 0B       		.uleb128 0xb
 4447 018b 3B       		.uleb128 0x3b
 4448 018c 05       		.uleb128 0x5
 4449 018d 27       		.uleb128 0x27
 4450 018e 0C       		.uleb128 0xc
 4451 018f 49       		.uleb128 0x49
 4452 0190 13       		.uleb128 0x13
 4453 0191 11       		.uleb128 0x11
 4454 0192 01       		.uleb128 0x1
 4455 0193 12       		.uleb128 0x12
 4456 0194 01       		.uleb128 0x1
 4457 0195 40       		.uleb128 0x40
 4458 0196 06       		.uleb128 0x6
 4459 0197 01       		.uleb128 0x1
 4460 0198 13       		.uleb128 0x13
 4461 0199 00       		.byte	0
 4462 019a 00       		.byte	0
 4463 019b 1E       		.uleb128 0x1e
 4464 019c 2E       		.uleb128 0x2e
 4465 019d 01       		.byte	0x1
 4466 019e 03       		.uleb128 0x3
 4467 019f 0E       		.uleb128 0xe
 4468 01a0 3A       		.uleb128 0x3a
 4469 01a1 0B       		.uleb128 0xb
 4470 01a2 3B       		.uleb128 0x3b
 4471 01a3 05       		.uleb128 0x5
 4472 01a4 27       		.uleb128 0x27
 4473 01a5 0C       		.uleb128 0xc
 4474 01a6 11       		.uleb128 0x11
 4475 01a7 01       		.uleb128 0x1
 4476 01a8 12       		.uleb128 0x12
 4477 01a9 01       		.uleb128 0x1
 4478 01aa 40       		.uleb128 0x40
 4479 01ab 06       		.uleb128 0x6
 4480 01ac 01       		.uleb128 0x1
 4481 01ad 13       		.uleb128 0x13
ARM GAS  /tmp/ccLoOG9f.s 			page 80


 4482 01ae 00       		.byte	0
 4483 01af 00       		.byte	0
 4484 01b0 1F       		.uleb128 0x1f
 4485 01b1 26       		.uleb128 0x26
 4486 01b2 00       		.byte	0
 4487 01b3 49       		.uleb128 0x49
 4488 01b4 13       		.uleb128 0x13
 4489 01b5 00       		.byte	0
 4490 01b6 00       		.byte	0
 4491 01b7 20       		.uleb128 0x20
 4492 01b8 0A       		.uleb128 0xa
 4493 01b9 00       		.byte	0
 4494 01ba 03       		.uleb128 0x3
 4495 01bb 0E       		.uleb128 0xe
 4496 01bc 3A       		.uleb128 0x3a
 4497 01bd 0B       		.uleb128 0xb
 4498 01be 3B       		.uleb128 0x3b
 4499 01bf 05       		.uleb128 0x5
 4500 01c0 11       		.uleb128 0x11
 4501 01c1 01       		.uleb128 0x1
 4502 01c2 00       		.byte	0
 4503 01c3 00       		.byte	0
 4504 01c4 21       		.uleb128 0x21
 4505 01c5 34       		.uleb128 0x34
 4506 01c6 00       		.byte	0
 4507 01c7 03       		.uleb128 0x3
 4508 01c8 0E       		.uleb128 0xe
 4509 01c9 3A       		.uleb128 0x3a
 4510 01ca 0B       		.uleb128 0xb
 4511 01cb 3B       		.uleb128 0x3b
 4512 01cc 0B       		.uleb128 0xb
 4513 01cd 49       		.uleb128 0x49
 4514 01ce 13       		.uleb128 0x13
 4515 01cf 3F       		.uleb128 0x3f
 4516 01d0 0C       		.uleb128 0xc
 4517 01d1 3C       		.uleb128 0x3c
 4518 01d2 0C       		.uleb128 0xc
 4519 01d3 00       		.byte	0
 4520 01d4 00       		.byte	0
 4521 01d5 22       		.uleb128 0x22
 4522 01d6 34       		.uleb128 0x34
 4523 01d7 00       		.byte	0
 4524 01d8 03       		.uleb128 0x3
 4525 01d9 0E       		.uleb128 0xe
 4526 01da 3A       		.uleb128 0x3a
 4527 01db 0B       		.uleb128 0xb
 4528 01dc 3B       		.uleb128 0x3b
 4529 01dd 0B       		.uleb128 0xb
 4530 01de 49       		.uleb128 0x49
 4531 01df 13       		.uleb128 0x13
 4532 01e0 3F       		.uleb128 0x3f
 4533 01e1 0C       		.uleb128 0xc
 4534 01e2 02       		.uleb128 0x2
 4535 01e3 0A       		.uleb128 0xa
 4536 01e4 00       		.byte	0
 4537 01e5 00       		.byte	0
 4538 01e6 00       		.byte	0
ARM GAS  /tmp/ccLoOG9f.s 			page 81


 4539              		.section	.debug_loc,"",%progbits
 4540              	.Ldebug_loc0:
 4541              	.LLST0:
 4542 0000 00000000 		.4byte	.LFB7
 4543 0004 02000000 		.4byte	.LCFI0
 4544 0008 0200     		.2byte	0x2
 4545 000a 7D       		.byte	0x7d
 4546 000b 00       		.sleb128 0
 4547 000c 02000000 		.4byte	.LCFI0
 4548 0010 04000000 		.4byte	.LCFI1
 4549 0014 0200     		.2byte	0x2
 4550 0016 7D       		.byte	0x7d
 4551 0017 04       		.sleb128 4
 4552 0018 04000000 		.4byte	.LCFI1
 4553 001c 68000000 		.4byte	.LFE7
 4554 0020 0200     		.2byte	0x2
 4555 0022 7D       		.byte	0x7d
 4556 0023 10       		.sleb128 16
 4557 0024 00000000 		.4byte	0
 4558 0028 00000000 		.4byte	0
 4559              	.LLST1:
 4560 002c 00000000 		.4byte	.LFB8
 4561 0030 02000000 		.4byte	.LCFI2
 4562 0034 0200     		.2byte	0x2
 4563 0036 7D       		.byte	0x7d
 4564 0037 00       		.sleb128 0
 4565 0038 02000000 		.4byte	.LCFI2
 4566 003c 04000000 		.4byte	.LCFI3
 4567 0040 0200     		.2byte	0x2
 4568 0042 7D       		.byte	0x7d
 4569 0043 04       		.sleb128 4
 4570 0044 04000000 		.4byte	.LCFI3
 4571 0048 DC000000 		.4byte	.LFE8
 4572 004c 0200     		.2byte	0x2
 4573 004e 7D       		.byte	0x7d
 4574 004f 10       		.sleb128 16
 4575 0050 00000000 		.4byte	0
 4576 0054 00000000 		.4byte	0
 4577              	.LLST2:
 4578 0058 00000000 		.4byte	.LFB9
 4579 005c 02000000 		.4byte	.LCFI4
 4580 0060 0200     		.2byte	0x2
 4581 0062 7D       		.byte	0x7d
 4582 0063 00       		.sleb128 0
 4583 0064 02000000 		.4byte	.LCFI4
 4584 0068 04000000 		.4byte	.LCFI5
 4585 006c 0200     		.2byte	0x2
 4586 006e 7D       		.byte	0x7d
 4587 006f 04       		.sleb128 4
 4588 0070 04000000 		.4byte	.LCFI5
 4589 0074 00030000 		.4byte	.LFE9
 4590 0078 0200     		.2byte	0x2
 4591 007a 7D       		.byte	0x7d
 4592 007b 20       		.sleb128 32
 4593 007c 00000000 		.4byte	0
 4594 0080 00000000 		.4byte	0
 4595              	.LLST3:
ARM GAS  /tmp/ccLoOG9f.s 			page 82


 4596 0084 00000000 		.4byte	.LFB10
 4597 0088 02000000 		.4byte	.LCFI6
 4598 008c 0200     		.2byte	0x2
 4599 008e 7D       		.byte	0x7d
 4600 008f 00       		.sleb128 0
 4601 0090 02000000 		.4byte	.LCFI6
 4602 0094 04000000 		.4byte	.LCFI7
 4603 0098 0200     		.2byte	0x2
 4604 009a 7D       		.byte	0x7d
 4605 009b 04       		.sleb128 4
 4606 009c 04000000 		.4byte	.LCFI7
 4607 00a0 74000000 		.4byte	.LFE10
 4608 00a4 0200     		.2byte	0x2
 4609 00a6 7D       		.byte	0x7d
 4610 00a7 20       		.sleb128 32
 4611 00a8 00000000 		.4byte	0
 4612 00ac 00000000 		.4byte	0
 4613              	.LLST4:
 4614 00b0 00000000 		.4byte	.LFB11
 4615 00b4 02000000 		.4byte	.LCFI8
 4616 00b8 0200     		.2byte	0x2
 4617 00ba 7D       		.byte	0x7d
 4618 00bb 00       		.sleb128 0
 4619 00bc 02000000 		.4byte	.LCFI8
 4620 00c0 04000000 		.4byte	.LCFI9
 4621 00c4 0200     		.2byte	0x2
 4622 00c6 7D       		.byte	0x7d
 4623 00c7 04       		.sleb128 4
 4624 00c8 04000000 		.4byte	.LCFI9
 4625 00cc 3A010000 		.4byte	.LFE11
 4626 00d0 0200     		.2byte	0x2
 4627 00d2 7D       		.byte	0x7d
 4628 00d3 20       		.sleb128 32
 4629 00d4 00000000 		.4byte	0
 4630 00d8 00000000 		.4byte	0
 4631              	.LLST5:
 4632 00dc 00000000 		.4byte	.LFB12
 4633 00e0 02000000 		.4byte	.LCFI10
 4634 00e4 0200     		.2byte	0x2
 4635 00e6 7D       		.byte	0x7d
 4636 00e7 00       		.sleb128 0
 4637 00e8 02000000 		.4byte	.LCFI10
 4638 00ec 04000000 		.4byte	.LCFI11
 4639 00f0 0200     		.2byte	0x2
 4640 00f2 7D       		.byte	0x7d
 4641 00f3 04       		.sleb128 4
 4642 00f4 04000000 		.4byte	.LCFI11
 4643 00f8 96000000 		.4byte	.LFE12
 4644 00fc 0200     		.2byte	0x2
 4645 00fe 7D       		.byte	0x7d
 4646 00ff 20       		.sleb128 32
 4647 0100 00000000 		.4byte	0
 4648 0104 00000000 		.4byte	0
 4649              	.LLST6:
 4650 0108 00000000 		.4byte	.LFB13
 4651 010c 02000000 		.4byte	.LCFI12
 4652 0110 0200     		.2byte	0x2
ARM GAS  /tmp/ccLoOG9f.s 			page 83


 4653 0112 7D       		.byte	0x7d
 4654 0113 00       		.sleb128 0
 4655 0114 02000000 		.4byte	.LCFI12
 4656 0118 04000000 		.4byte	.LCFI13
 4657 011c 0200     		.2byte	0x2
 4658 011e 7D       		.byte	0x7d
 4659 011f 04       		.sleb128 4
 4660 0120 04000000 		.4byte	.LCFI13
 4661 0124 88020000 		.4byte	.LFE13
 4662 0128 0200     		.2byte	0x2
 4663 012a 7D       		.byte	0x7d
 4664 012b 30       		.sleb128 48
 4665 012c 00000000 		.4byte	0
 4666 0130 00000000 		.4byte	0
 4667              	.LLST7:
 4668 0134 00000000 		.4byte	.LFB14
 4669 0138 02000000 		.4byte	.LCFI14
 4670 013c 0200     		.2byte	0x2
 4671 013e 7D       		.byte	0x7d
 4672 013f 00       		.sleb128 0
 4673 0140 02000000 		.4byte	.LCFI14
 4674 0144 04000000 		.4byte	.LCFI15
 4675 0148 0200     		.2byte	0x2
 4676 014a 7D       		.byte	0x7d
 4677 014b 04       		.sleb128 4
 4678 014c 04000000 		.4byte	.LCFI15
 4679 0150 B2010000 		.4byte	.LFE14
 4680 0154 0200     		.2byte	0x2
 4681 0156 7D       		.byte	0x7d
 4682 0157 28       		.sleb128 40
 4683 0158 00000000 		.4byte	0
 4684 015c 00000000 		.4byte	0
 4685              	.LLST8:
 4686 0160 00000000 		.4byte	.LFB15
 4687 0164 02000000 		.4byte	.LCFI16
 4688 0168 0200     		.2byte	0x2
 4689 016a 7D       		.byte	0x7d
 4690 016b 00       		.sleb128 0
 4691 016c 02000000 		.4byte	.LCFI16
 4692 0170 04000000 		.4byte	.LCFI17
 4693 0174 0200     		.2byte	0x2
 4694 0176 7D       		.byte	0x7d
 4695 0177 04       		.sleb128 4
 4696 0178 04000000 		.4byte	.LCFI17
 4697 017c C2020000 		.4byte	.LFE15
 4698 0180 0200     		.2byte	0x2
 4699 0182 7D       		.byte	0x7d
 4700 0183 30       		.sleb128 48
 4701 0184 00000000 		.4byte	0
 4702 0188 00000000 		.4byte	0
 4703              	.LLST9:
 4704 018c 00000000 		.4byte	.LFB16
 4705 0190 02000000 		.4byte	.LCFI18
 4706 0194 0200     		.2byte	0x2
 4707 0196 7D       		.byte	0x7d
 4708 0197 00       		.sleb128 0
 4709 0198 02000000 		.4byte	.LCFI18
ARM GAS  /tmp/ccLoOG9f.s 			page 84


 4710 019c 04000000 		.4byte	.LCFI19
 4711 01a0 0200     		.2byte	0x2
 4712 01a2 7D       		.byte	0x7d
 4713 01a3 04       		.sleb128 4
 4714 01a4 04000000 		.4byte	.LCFI19
 4715 01a8 AC010000 		.4byte	.LFE16
 4716 01ac 0200     		.2byte	0x2
 4717 01ae 7D       		.byte	0x7d
 4718 01af 28       		.sleb128 40
 4719 01b0 00000000 		.4byte	0
 4720 01b4 00000000 		.4byte	0
 4721              	.LLST10:
 4722 01b8 00000000 		.4byte	.LFB17
 4723 01bc 02000000 		.4byte	.LCFI20
 4724 01c0 0200     		.2byte	0x2
 4725 01c2 7D       		.byte	0x7d
 4726 01c3 00       		.sleb128 0
 4727 01c4 02000000 		.4byte	.LCFI20
 4728 01c8 04000000 		.4byte	.LCFI21
 4729 01cc 0200     		.2byte	0x2
 4730 01ce 7D       		.byte	0x7d
 4731 01cf 08       		.sleb128 8
 4732 01d0 04000000 		.4byte	.LCFI21
 4733 01d4 4A000000 		.4byte	.LFE17
 4734 01d8 0200     		.2byte	0x2
 4735 01da 7D       		.byte	0x7d
 4736 01db 20       		.sleb128 32
 4737 01dc 00000000 		.4byte	0
 4738 01e0 00000000 		.4byte	0
 4739              	.LLST11:
 4740 01e4 00000000 		.4byte	.LFB18
 4741 01e8 02000000 		.4byte	.LCFI22
 4742 01ec 0200     		.2byte	0x2
 4743 01ee 7D       		.byte	0x7d
 4744 01ef 00       		.sleb128 0
 4745 01f0 02000000 		.4byte	.LCFI22
 4746 01f4 04000000 		.4byte	.LCFI23
 4747 01f8 0200     		.2byte	0x2
 4748 01fa 7D       		.byte	0x7d
 4749 01fb 04       		.sleb128 4
 4750 01fc 04000000 		.4byte	.LCFI23
 4751 0200 22010000 		.4byte	.LFE18
 4752 0204 0200     		.2byte	0x2
 4753 0206 7D       		.byte	0x7d
 4754 0207 20       		.sleb128 32
 4755 0208 00000000 		.4byte	0
 4756 020c 00000000 		.4byte	0
 4757              		.section	.debug_aranges,"",%progbits
 4758 0000 74000000 		.4byte	0x74
 4759 0004 0200     		.2byte	0x2
 4760 0006 00000000 		.4byte	.Ldebug_info0
 4761 000a 04       		.byte	0x4
 4762 000b 00       		.byte	0
 4763 000c 0000     		.2byte	0
 4764 000e 0000     		.2byte	0
 4765 0010 00000000 		.4byte	.LFB7
 4766 0014 68000000 		.4byte	.LFE7-.LFB7
ARM GAS  /tmp/ccLoOG9f.s 			page 85


 4767 0018 00000000 		.4byte	.LFB8
 4768 001c DC000000 		.4byte	.LFE8-.LFB8
 4769 0020 00000000 		.4byte	.LFB9
 4770 0024 00030000 		.4byte	.LFE9-.LFB9
 4771 0028 00000000 		.4byte	.LFB10
 4772 002c 74000000 		.4byte	.LFE10-.LFB10
 4773 0030 00000000 		.4byte	.LFB11
 4774 0034 3A010000 		.4byte	.LFE11-.LFB11
 4775 0038 00000000 		.4byte	.LFB12
 4776 003c 96000000 		.4byte	.LFE12-.LFB12
 4777 0040 00000000 		.4byte	.LFB13
 4778 0044 88020000 		.4byte	.LFE13-.LFB13
 4779 0048 00000000 		.4byte	.LFB14
 4780 004c B2010000 		.4byte	.LFE14-.LFB14
 4781 0050 00000000 		.4byte	.LFB15
 4782 0054 C2020000 		.4byte	.LFE15-.LFB15
 4783 0058 00000000 		.4byte	.LFB16
 4784 005c AC010000 		.4byte	.LFE16-.LFB16
 4785 0060 00000000 		.4byte	.LFB17
 4786 0064 4A000000 		.4byte	.LFE17-.LFB17
 4787 0068 00000000 		.4byte	.LFB18
 4788 006c 22010000 		.4byte	.LFE18-.LFB18
 4789 0070 00000000 		.4byte	0
 4790 0074 00000000 		.4byte	0
 4791              		.section	.debug_ranges,"",%progbits
 4792              	.Ldebug_ranges0:
 4793 0000 00000000 		.4byte	.LFB7
 4794 0004 68000000 		.4byte	.LFE7
 4795 0008 00000000 		.4byte	.LFB8
 4796 000c DC000000 		.4byte	.LFE8
 4797 0010 00000000 		.4byte	.LFB9
 4798 0014 00030000 		.4byte	.LFE9
 4799 0018 00000000 		.4byte	.LFB10
 4800 001c 74000000 		.4byte	.LFE10
 4801 0020 00000000 		.4byte	.LFB11
 4802 0024 3A010000 		.4byte	.LFE11
 4803 0028 00000000 		.4byte	.LFB12
 4804 002c 96000000 		.4byte	.LFE12
 4805 0030 00000000 		.4byte	.LFB13
 4806 0034 88020000 		.4byte	.LFE13
 4807 0038 00000000 		.4byte	.LFB14
 4808 003c B2010000 		.4byte	.LFE14
 4809 0040 00000000 		.4byte	.LFB15
 4810 0044 C2020000 		.4byte	.LFE15
 4811 0048 00000000 		.4byte	.LFB16
 4812 004c AC010000 		.4byte	.LFE16
 4813 0050 00000000 		.4byte	.LFB17
 4814 0054 4A000000 		.4byte	.LFE17
 4815 0058 00000000 		.4byte	.LFB18
 4816 005c 22010000 		.4byte	.LFE18
 4817 0060 00000000 		.4byte	0
 4818 0064 00000000 		.4byte	0
 4819              		.section	.debug_line,"",%progbits
 4820              	.Ldebug_line0:
 4821 0000 E6040000 		.section	.debug_str,"MS",%progbits,1
 4821      0200B001 
 4821      00000201 
ARM GAS  /tmp/ccLoOG9f.s 			page 86


 4821      FB0E0D00 
 4821      01010101 
 4822              	.LASF93:
 4823 0000 6574685F 		.ascii	"eth_addr\000"
 4823      61646472 
 4823      00
 4824              	.LASF104:
 4825 0009 64687761 		.ascii	"dhwaddr\000"
 4825      64647200 
 4826              	.LASF96:
 4827 0011 65746861 		.ascii	"etharp_hdr\000"
 4827      72705F68 
 4827      647200
 4828              	.LASF56:
 4829 001c 4D454D50 		.ascii	"MEMP_TCP_PCB_LISTEN\000"
 4829      5F544350 
 4829      5F504342 
 4829      5F4C4953 
 4829      54454E00 
 4830              	.LASF42:
 4831 0030 696E7075 		.ascii	"input\000"
 4831      7400
 4832              	.LASF149:
 4833 0036 6172705F 		.ascii	"arp_table\000"
 4833      7461626C 
 4833      6500
 4834              	.LASF119:
 4835 0040 6167655F 		.ascii	"age_queue\000"
 4835      71756575 
 4835      6500
 4836              	.LASF100:
 4837 004a 70726F74 		.ascii	"protolen\000"
 4837      6F6C656E 
 4837      00
 4838              	.LASF30:
 4839 0053 50425546 		.ascii	"PBUF_RAM\000"
 4839      5F52414D 
 4839      00
 4840              	.LASF29:
 4841 005c 50425546 		.ascii	"PBUF_RAW\000"
 4841      5F524157 
 4841      00
 4842              	.LASF39:
 4843 0065 666C6167 		.ascii	"flags\000"
 4843      7300
 4844              	.LASF98:
 4845 006b 70726F74 		.ascii	"proto\000"
 4845      6F00
 4846              	.LASF0:
 4847 0071 756E7369 		.ascii	"unsigned int\000"
 4847      676E6564 
 4847      20696E74 
 4847      00
 4848              	.LASF35:
 4849 007e 6E657874 		.ascii	"next\000"
 4849      00
 4850              	.LASF135:
ARM GAS  /tmp/ccLoOG9f.s 			page 87


 4851 0083 636F7079 		.ascii	"copy_needed\000"
 4851      5F6E6565 
 4851      64656400 
 4852              	.LASF25:
 4853 008f 6572725F 		.ascii	"err_t\000"
 4853      7400
 4854              	.LASF105:
 4855 0095 64697061 		.ascii	"dipaddr\000"
 4855      64647200 
 4856              	.LASF44:
 4857 009d 6C696E6B 		.ascii	"linkoutput\000"
 4857      6F757470 
 4857      757400
 4858              	.LASF24:
 4859 00a8 61646472 		.ascii	"addrw\000"
 4859      7700
 4860              	.LASF17:
 4861 00ae 7531365F 		.ascii	"u16_t\000"
 4861      7400
 4862              	.LASF79:
 4863 00b4 73746174 		.ascii	"stats_mem\000"
 4863      735F6D65 
 4863      6D00
 4864              	.LASF132:
 4865 00be 65746861 		.ascii	"etharp_query\000"
 4865      72705F71 
 4865      75657279 
 4865      00
 4866              	.LASF152:
 4867 00cb 2E2E2F2E 		.ascii	"../../ext/lwip/src/netif/etharp.c\000"
 4867      2E2F6578 
 4867      742F6C77 
 4867      69702F73 
 4867      72632F6E 
 4868              	.LASF50:
 4869 00ed 6E657469 		.ascii	"netif_output_fn\000"
 4869      665F6F75 
 4869      74707574 
 4869      5F666E00 
 4870              	.LASF66:
 4871 00fd 4D454D50 		.ascii	"MEMP_PBUF_POOL\000"
 4871      5F504255 
 4871      465F504F 
 4871      4F4C00
 4872              	.LASF146:
 4873 010c 6C776970 		.ascii	"lwip_stats\000"
 4873      5F737461 
 4873      747300
 4874              	.LASF137:
 4875 0117 65746873 		.ascii	"ethsrc_addr\000"
 4875      72635F61 
 4875      64647200 
 4876              	.LASF26:
 4877 0123 50425546 		.ascii	"PBUF_TRANSPORT\000"
 4877      5F545241 
 4877      4E53504F 
 4877      525400
ARM GAS  /tmp/ccLoOG9f.s 			page 88


 4878              	.LASF83:
 4879 0132 73746174 		.ascii	"stats_syselem\000"
 4879      735F7379 
 4879      73656C65 
 4879      6D00
 4880              	.LASF49:
 4881 0140 6E657469 		.ascii	"netif_input_fn\000"
 4881      665F696E 
 4881      7075745F 
 4881      666E00
 4882              	.LASF10:
 4883 014f 75696E74 		.ascii	"uint32_t\000"
 4883      33325F74 
 4883      00
 4884              	.LASF2:
 4885 0158 696E7438 		.ascii	"int8_t\000"
 4885      5F7400
 4886              	.LASF62:
 4887 015f 4D454D50 		.ascii	"MEMP_TCPIP_MSG_API\000"
 4887      5F544350 
 4887      49505F4D 
 4887      53475F41 
 4887      504900
 4888              	.LASF77:
 4889 0172 6F707465 		.ascii	"opterr\000"
 4889      727200
 4890              	.LASF85:
 4891 0179 6D757465 		.ascii	"mutex\000"
 4891      7800
 4892              	.LASF90:
 4893 017f 69705F66 		.ascii	"ip_frag\000"
 4893      72616700 
 4894              	.LASF82:
 4895 0187 696C6C65 		.ascii	"illegal\000"
 4895      67616C00 
 4896              	.LASF5:
 4897 018f 696E7431 		.ascii	"int16_t\000"
 4897      365F7400 
 4898              	.LASF109:
 4899 0197 65746861 		.ascii	"etharp_entry\000"
 4899      72705F65 
 4899      6E747279 
 4899      00
 4900              	.LASF134:
 4901 01a4 72657375 		.ascii	"result\000"
 4901      6C7400
 4902              	.LASF47:
 4903 01ab 68776164 		.ascii	"hwaddr\000"
 4903      647200
 4904              	.LASF89:
 4905 01b2 65746861 		.ascii	"etharp\000"
 4905      727000
 4906              	.LASF13:
 4907 01b9 6C6F6E67 		.ascii	"long long unsigned int\000"
 4907      206C6F6E 
 4907      6720756E 
 4907      7369676E 
ARM GAS  /tmp/ccLoOG9f.s 			page 89


 4907      65642069 
 4908              	.LASF153:
 4909 01d0 2F686F6D 		.ascii	"/home/texzk/ChibiStudio/chibios/demos/ARMCM3-STM32F"
 4909      652F7465 
 4909      787A6B2F 
 4909      43686962 
 4909      69537475 
 4910 0203 3230372D 		.ascii	"207-STM3220G-LWIP\000"
 4910      53544D33 
 4910      32323047 
 4910      2D4C5749 
 4910      5000
 4911              	.LASF106:
 4912 0215 45544841 		.ascii	"ETHARP_STATE_EMPTY\000"
 4912      52505F53 
 4912      54415445 
 4912      5F454D50 
 4912      545900
 4913              	.LASF112:
 4914 0228 6374696D 		.ascii	"ctime\000"
 4914      6500
 4915              	.LASF46:
 4916 022e 68776164 		.ascii	"hwaddr_len\000"
 4916      64725F6C 
 4916      656E00
 4917              	.LASF63:
 4918 0239 4D454D50 		.ascii	"MEMP_TCPIP_MSG_INPKT\000"
 4918      5F544350 
 4918      49505F4D 
 4918      53475F49 
 4918      4E504B54 
 4919              	.LASF32:
 4920 024e 50425546 		.ascii	"PBUF_REF\000"
 4920      5F524546 
 4920      00
 4921              	.LASF87:
 4922 0257 73746174 		.ascii	"stats_\000"
 4922      735F00
 4923              	.LASF37:
 4924 025e 746F745F 		.ascii	"tot_len\000"
 4924      6C656E00 
 4925              	.LASF110:
 4926 0266 69706164 		.ascii	"ipaddr\000"
 4926      647200
 4927              	.LASF36:
 4928 026d 7061796C 		.ascii	"payload\000"
 4928      6F616400 
 4929              	.LASF27:
 4930 0275 50425546 		.ascii	"PBUF_IP\000"
 4930      5F495000 
 4931              	.LASF43:
 4932 027d 6F757470 		.ascii	"output\000"
 4932      757400
 4933              	.LASF34:
 4934 0284 70627566 		.ascii	"pbuf\000"
 4934      00
 4935              	.LASF113:
ARM GAS  /tmp/ccLoOG9f.s 			page 90


 4936 0289 6F6C645F 		.ascii	"old_pending\000"
 4936      70656E64 
 4936      696E6700 
 4937              	.LASF33:
 4938 0295 50425546 		.ascii	"PBUF_POOL\000"
 4938      5F504F4F 
 4938      4C00
 4939              	.LASF67:
 4940 029f 4D454D50 		.ascii	"MEMP_MAX\000"
 4940      5F4D4158 
 4940      00
 4941              	.LASF16:
 4942 02a8 73385F74 		.ascii	"s8_t\000"
 4942      00
 4943              	.LASF118:
 4944 02ad 6F6C645F 		.ascii	"old_queue\000"
 4944      71756575 
 4944      6500
 4945              	.LASF102:
 4946 02b7 73687761 		.ascii	"shwaddr\000"
 4946      64647200 
 4947              	.LASF155:
 4948 02bf 65746861 		.ascii	"etharp_tmr\000"
 4948      72705F74 
 4948      6D7200
 4949              	.LASF123:
 4950 02ca 75706461 		.ascii	"update_arp_entry\000"
 4950      74655F61 
 4950      72705F65 
 4950      6E747279 
 4950      00
 4951              	.LASF61:
 4952 02db 4D454D50 		.ascii	"MEMP_NETCONN\000"
 4952      5F4E4554 
 4952      434F4E4E 
 4952      00
 4953              	.LASF154:
 4954 02e8 65746861 		.ascii	"etharp_state\000"
 4954      72705F73 
 4954      74617465 
 4954      00
 4955              	.LASF144:
 4956 02f5 65746865 		.ascii	"ethernet_input\000"
 4956      726E6574 
 4956      5F696E70 
 4956      757400
 4957              	.LASF65:
 4958 0304 4D454D50 		.ascii	"MEMP_PBUF\000"
 4958      5F504255 
 4958      4600
 4959              	.LASF111:
 4960 030e 65746861 		.ascii	"ethaddr\000"
 4960      64647200 
 4961              	.LASF97:
 4962 0316 68777479 		.ascii	"hwtype\000"
 4962      706500
 4963              	.LASF150:
ARM GAS  /tmp/ccLoOG9f.s 			page 91


 4964 031d 65746861 		.ascii	"etharp_cached_entry\000"
 4964      72705F63 
 4964      61636865 
 4964      645F656E 
 4964      74727900 
 4965              	.LASF133:
 4966 0331 73726361 		.ascii	"srcaddr\000"
 4966      64647200 
 4967              	.LASF14:
 4968 0339 63686172 		.ascii	"char\000"
 4968      00
 4969              	.LASF52:
 4970 033e 6D656D5F 		.ascii	"mem_size_t\000"
 4970      73697A65 
 4970      5F7400
 4971              	.LASF68:
 4972 0349 73746174 		.ascii	"stats_proto\000"
 4972      735F7072 
 4972      6F746F00 
 4973              	.LASF151:
 4974 0355 474E5520 		.ascii	"GNU C 4.6.2 20120613 (release) [ARM/embedded-4_6-br"
 4974      4320342E 
 4974      362E3220 
 4974      32303132 
 4974      30363133 
 4975 0388 616E6368 		.ascii	"anch revision 188521]\000"
 4975      20726576 
 4975      6973696F 
 4975      6E203138 
 4975      38353231 
 4976              	.LASF101:
 4977 039e 6F70636F 		.ascii	"opcode\000"
 4977      646500
 4978              	.LASF103:
 4979 03a5 73697061 		.ascii	"sipaddr\000"
 4979      64647200 
 4980              	.LASF3:
 4981 03ad 75696E74 		.ascii	"uint8_t\000"
 4981      385F7400 
 4982              	.LASF94:
 4983 03b5 6574685F 		.ascii	"eth_hdr\000"
 4983      68647200 
 4984              	.LASF126:
 4985 03bd 66726565 		.ascii	"free_entry\000"
 4985      5F656E74 
 4985      727900
 4986              	.LASF156:
 4987 03c8 66726565 		.ascii	"free_and_return\000"
 4987      5F616E64 
 4987      5F726574 
 4987      75726E00 
 4988              	.LASF60:
 4989 03d8 4D454D50 		.ascii	"MEMP_NETBUF\000"
 4989      5F4E4554 
 4989      42554600 
 4990              	.LASF41:
 4991 03e4 6E65746D 		.ascii	"netmask\000"
ARM GAS  /tmp/ccLoOG9f.s 			page 92


 4991      61736B00 
 4992              	.LASF12:
 4993 03ec 6C6F6E67 		.ascii	"long long int\000"
 4993      206C6F6E 
 4993      6720696E 
 4993      7400
 4994              	.LASF121:
 4995 03fa 65746861 		.ascii	"etharp_send_ip\000"
 4995      72705F73 
 4995      656E645F 
 4995      697000
 4996              	.LASF139:
 4997 0409 68777372 		.ascii	"hwsrc_addr\000"
 4997      635F6164 
 4997      647200
 4998              	.LASF124:
 4999 0414 6574685F 		.ascii	"eth_ret\000"
 4999      72657400 
 5000              	.LASF55:
 5001 041c 4D454D50 		.ascii	"MEMP_TCP_PCB\000"
 5001      5F544350 
 5001      5F504342 
 5001      00
 5002              	.LASF92:
 5003 0429 6D656D70 		.ascii	"memp\000"
 5003      00
 5004              	.LASF15:
 5005 042e 75385F74 		.ascii	"u8_t\000"
 5005      00
 5006              	.LASF138:
 5007 0433 65746864 		.ascii	"ethdst_addr\000"
 5007      73745F61 
 5007      64647200 
 5008              	.LASF81:
 5009 043f 75736564 		.ascii	"used\000"
 5009      00
 5010              	.LASF72:
 5011 0444 63686B65 		.ascii	"chkerr\000"
 5011      727200
 5012              	.LASF114:
 5013 044b 6F6C645F 		.ascii	"old_stable\000"
 5013      73746162 
 5013      6C6500
 5014              	.LASF58:
 5015 0456 4D454D50 		.ascii	"MEMP_REASSDATA\000"
 5015      5F524541 
 5015      53534441 
 5015      544100
 5016              	.LASF28:
 5017 0465 50425546 		.ascii	"PBUF_LINK\000"
 5017      5F4C494E 
 5017      4B00
 5018              	.LASF108:
 5019 046f 45544841 		.ascii	"ETHARP_STATE_STABLE\000"
 5019      52505F53 
 5019      54415445 
 5019      5F535441 
ARM GAS  /tmp/ccLoOG9f.s 			page 93


 5019      424C4500 
 5020              	.LASF120:
 5021 0483 66696E64 		.ascii	"find_entry\000"
 5021      5F656E74 
 5021      727900
 5022              	.LASF22:
 5023 048e 69705F61 		.ascii	"ip_addr2\000"
 5023      64647232 
 5023      00
 5024              	.LASF7:
 5025 0497 75696E74 		.ascii	"uint16_t\000"
 5025      31365F74 
 5025      00
 5026              	.LASF117:
 5027 04a0 6167655F 		.ascii	"age_stable\000"
 5027      73746162 
 5027      6C6500
 5028              	.LASF147:
 5029 04ab 65746862 		.ascii	"ethbroadcast\000"
 5029      726F6164 
 5029      63617374 
 5029      00
 5030              	.LASF142:
 5031 04b8 69706473 		.ascii	"ipdst_addr\000"
 5031      745F6164 
 5031      647200
 5032              	.LASF122:
 5033 04c3 65746868 		.ascii	"ethhdr\000"
 5033      647200
 5034              	.LASF19:
 5035 04ca 7533325F 		.ascii	"u32_t\000"
 5035      7400
 5036              	.LASF6:
 5037 04d0 73686F72 		.ascii	"short int\000"
 5037      7420696E 
 5037      7400
 5038              	.LASF91:
 5039 04da 69636D70 		.ascii	"icmp\000"
 5039      00
 5040              	.LASF9:
 5041 04df 6C6F6E67 		.ascii	"long int\000"
 5041      20696E74 
 5041      00
 5042              	.LASF75:
 5043 04e8 72746572 		.ascii	"rterr\000"
 5043      7200
 5044              	.LASF80:
 5045 04ee 61766169 		.ascii	"avail\000"
 5045      6C00
 5046              	.LASF64:
 5047 04f4 4D454D50 		.ascii	"MEMP_SYS_TIMEOUT\000"
 5047      5F535953 
 5047      5F54494D 
 5047      454F5554 
 5047      00
 5048              	.LASF54:
 5049 0505 4D454D50 		.ascii	"MEMP_UDP_PCB\000"
ARM GAS  /tmp/ccLoOG9f.s 			page 94


 5049      5F554450 
 5049      5F504342 
 5049      00
 5050              	.LASF86:
 5051 0512 6D626F78 		.ascii	"mbox\000"
 5051      00
 5052              	.LASF140:
 5053 0517 69707372 		.ascii	"ipsrc_addr\000"
 5053      635F6164 
 5053      647200
 5054              	.LASF127:
 5055 0522 65746861 		.ascii	"etharp_arp_input\000"
 5055      72705F61 
 5055      72705F69 
 5055      6E707574 
 5055      00
 5056              	.LASF143:
 5057 0533 65746861 		.ascii	"etharp_request\000"
 5057      72705F72 
 5057      65717565 
 5057      737400
 5058              	.LASF78:
 5059 0542 63616368 		.ascii	"cachehit\000"
 5059      65686974 
 5059      00
 5060              	.LASF48:
 5061 054b 6E616D65 		.ascii	"name\000"
 5061      00
 5062              	.LASF51:
 5063 0550 6E657469 		.ascii	"netif_linkoutput_fn\000"
 5063      665F6C69 
 5063      6E6B6F75 
 5063      74707574 
 5063      5F666E00 
 5064              	.LASF59:
 5065 0564 4D454D50 		.ascii	"MEMP_FRAG_PBUF\000"
 5065      5F465241 
 5065      475F5042 
 5065      554600
 5066              	.LASF107:
 5067 0573 45544841 		.ascii	"ETHARP_STATE_PENDING\000"
 5067      52505F53 
 5067      54415445 
 5067      5F50454E 
 5067      44494E47 
 5068              	.LASF53:
 5069 0588 4D454D50 		.ascii	"MEMP_RAW_PCB\000"
 5069      5F524157 
 5069      5F504342 
 5069      00
 5070              	.LASF73:
 5071 0595 6C656E65 		.ascii	"lenerr\000"
 5071      727200
 5072              	.LASF148:
 5073 059c 6574687A 		.ascii	"ethzero\000"
 5073      65726F00 
 5074              	.LASF125:
ARM GAS  /tmp/ccLoOG9f.s 			page 95


 5075 05a4 69705F72 		.ascii	"ip_ret\000"
 5075      657400
 5076              	.LASF11:
 5077 05ab 6C6F6E67 		.ascii	"long unsigned int\000"
 5077      20756E73 
 5077      69676E65 
 5077      6420696E 
 5077      7400
 5078              	.LASF115:
 5079 05bd 656D7074 		.ascii	"empty\000"
 5079      7900
 5080              	.LASF136:
 5081 05c3 65746861 		.ascii	"etharp_raw\000"
 5081      72705F72 
 5081      617700
 5082              	.LASF128:
 5083 05ce 666F725F 		.ascii	"for_us\000"
 5083      757300
 5084              	.LASF18:
 5085 05d5 7331365F 		.ascii	"s16_t\000"
 5085      7400
 5086              	.LASF76:
 5087 05db 70726F74 		.ascii	"proterr\000"
 5087      65727200 
 5088              	.LASF131:
 5089 05e3 6D636173 		.ascii	"mcastaddr\000"
 5089      74616464 
 5089      7200
 5090              	.LASF38:
 5091 05ed 74797065 		.ascii	"type\000"
 5091      00
 5092              	.LASF84:
 5093 05f2 73746174 		.ascii	"stats_sys\000"
 5093      735F7379 
 5093      7300
 5094              	.LASF4:
 5095 05fc 756E7369 		.ascii	"unsigned char\000"
 5095      676E6564 
 5095      20636861 
 5095      7200
 5096              	.LASF74:
 5097 060a 6D656D65 		.ascii	"memerr\000"
 5097      727200
 5098              	.LASF57:
 5099 0611 4D454D50 		.ascii	"MEMP_TCP_SEG\000"
 5099      5F544350 
 5099      5F534547 
 5099      00
 5100              	.LASF88:
 5101 061e 6C696E6B 		.ascii	"link\000"
 5101      00
 5102              	.LASF145:
 5103 0623 69705F68 		.ascii	"ip_hdr_offset\000"
 5103      64725F6F 
 5103      66667365 
 5103      7400
 5104              	.LASF23:
ARM GAS  /tmp/ccLoOG9f.s 			page 96


 5105 0631 61646472 		.ascii	"addr\000"
 5105      00
 5106              	.LASF71:
 5107 0636 64726F70 		.ascii	"drop\000"
 5107      00
 5108              	.LASF45:
 5109 063b 73746174 		.ascii	"state\000"
 5109      6500
 5110              	.LASF141:
 5111 0641 68776473 		.ascii	"hwdst_addr\000"
 5111      745F6164 
 5111      647200
 5112              	.LASF40:
 5113 064c 6E657469 		.ascii	"netif\000"
 5113      6600
 5114              	.LASF116:
 5115 0652 6167655F 		.ascii	"age_pending\000"
 5115      70656E64 
 5115      696E6700 
 5116              	.LASF130:
 5117 065e 65746861 		.ascii	"etharp_output\000"
 5117      72705F6F 
 5117      75747075 
 5117      7400
 5118              	.LASF70:
 5119 066c 72656376 		.ascii	"recv\000"
 5119      00
 5120              	.LASF1:
 5121 0671 7369676E 		.ascii	"signed char\000"
 5121      65642063 
 5121      68617200 
 5122              	.LASF8:
 5123 067d 73686F72 		.ascii	"short unsigned int\000"
 5123      7420756E 
 5123      7369676E 
 5123      65642069 
 5123      6E7400
 5124              	.LASF69:
 5125 0690 786D6974 		.ascii	"xmit\000"
 5125      00
 5126              	.LASF99:
 5127 0695 68776C65 		.ascii	"hwlen\000"
 5127      6E00
 5128              	.LASF20:
 5129 069b 69705F61 		.ascii	"ip_addr_t\000"
 5129      6464725F 
 5129      7400
 5130              	.LASF31:
 5131 06a5 50425546 		.ascii	"PBUF_ROM\000"
 5131      5F524F4D 
 5131      00
 5132              	.LASF129:
 5133 06ae 65746861 		.ascii	"etharp_find_addr\000"
 5133      72705F66 
 5133      696E645F 
 5133      61646472 
 5133      00
ARM GAS  /tmp/ccLoOG9f.s 			page 97


 5134              	.LASF95:
 5135 06bf 64657374 		.ascii	"dest\000"
 5135      00
 5136              	.LASF21:
 5137 06c4 69705F61 		.ascii	"ip_addr\000"
 5137      64647200 
 5138              		.ident	"GCC: (GNU Tools for ARM Embedded Processors) 4.6.2 20120613 (release) [ARM/embedded-4_6-br
ARM GAS  /tmp/ccLoOG9f.s 			page 98


DEFINED SYMBOLS
                            *ABS*:00000000 etharp.c
     /tmp/ccLoOG9f.s:23     .rodata.ethbroadcast:00000000 ethbroadcast
     /tmp/ccLoOG9f.s:20     .rodata.ethbroadcast:00000000 $d
     /tmp/ccLoOG9f.s:35     .rodata.ethzero:00000000 ethzero
     /tmp/ccLoOG9f.s:32     .rodata.ethzero:00000000 $d
     /tmp/ccLoOG9f.s:38     .bss.arp_table:00000000 $d
     /tmp/ccLoOG9f.s:41     .bss.arp_table:00000000 arp_table
     /tmp/ccLoOG9f.s:46     .bss.etharp_cached_entry:00000000 etharp_cached_entry
     /tmp/ccLoOG9f.s:47     .bss.etharp_cached_entry:00000000 $d
     /tmp/ccLoOG9f.s:49     .text.free_entry:00000000 $t
     /tmp/ccLoOG9f.s:54     .text.free_entry:00000000 free_entry
     /tmp/ccLoOG9f.s:112    .text.etharp_tmr:00000000 $t
     /tmp/ccLoOG9f.s:118    .text.etharp_tmr:00000000 etharp_tmr
     /tmp/ccLoOG9f.s:222    .text.find_entry:00000000 $t
     /tmp/ccLoOG9f.s:227    .text.find_entry:00000000 find_entry
     /tmp/ccLoOG9f.s:566    .text.etharp_send_ip:00000000 $t
     /tmp/ccLoOG9f.s:571    .text.etharp_send_ip:00000000 etharp_send_ip
     /tmp/ccLoOG9f.s:643    .text.update_arp_entry:00000000 $t
     /tmp/ccLoOG9f.s:648    .text.update_arp_entry:00000000 update_arp_entry
     /tmp/ccLoOG9f.s:803    .text.etharp_find_addr:00000000 $t
     /tmp/ccLoOG9f.s:809    .text.etharp_find_addr:00000000 etharp_find_addr
     /tmp/ccLoOG9f.s:892    .text.etharp_arp_input:00000000 $t
     /tmp/ccLoOG9f.s:897    .text.etharp_arp_input:00000000 etharp_arp_input
     /tmp/ccLoOG9f.s:1223   .text.etharp_output:00000000 $t
     /tmp/ccLoOG9f.s:1229   .text.etharp_output:00000000 etharp_output
     /tmp/ccLoOG9f.s:1448   .text.etharp_query:00000000 etharp_query
     /tmp/ccLoOG9f.s:1442   .text.etharp_query:00000000 $t
     /tmp/ccLoOG9f.s:2012   .text.etharp_request:00000000 etharp_request
     /tmp/ccLoOG9f.s:1795   .text.etharp_raw:00000000 $t
     /tmp/ccLoOG9f.s:1800   .text.etharp_raw:00000000 etharp_raw
     /tmp/ccLoOG9f.s:2006   .text.etharp_request:00000000 $t
     /tmp/ccLoOG9f.s:2060   .text.ethernet_input:00000000 $t
     /tmp/ccLoOG9f.s:2066   .text.ethernet_input:00000000 ethernet_input
                     .debug_frame:00000010 $d

UNDEFINED SYMBOLS
pbuf_free
port_halt
memcpy
ip4_addr_isbroadcast
lwip_stats
lwip_htons
pbuf_header
pbuf_alloc
pbuf_copy
pbuf_ref
ip_input
