ARM GAS  /tmp/ccLoOG9f.s 			page 1


   1              		.syntax unified
   2              		.cpu cortex-m3
   3              		.fpu softvfp
   4              		.eabi_attribute 20, 1
   5              		.eabi_attribute 21, 1
   6              		.eabi_attribute 23, 3
   7              		.eabi_attribute 24, 1
   8              		.eabi_attribute 25, 1
   9              		.eabi_attribute 26, 1
  10              		.eabi_attribute 30, 6
  11              		.eabi_attribute 34, 1
  12              		.eabi_attribute 18, 4
  13              		.thumb
  14              		.file	"etharp.c"
  15              		.text
  16              	.Ltext0:
  17              		.cfi_sections	.debug_frame
  18              		.global	ethbroadcast
  19              		.section	.rodata.ethbroadcast,"a",%progbits
  20              		.align	2
  21              		.type	ethbroadcast, %object
  22              		.size	ethbroadcast, 6
  23              	ethbroadcast:
  24 0000 FF       		.byte	-1
  25 0001 FF       		.byte	-1
  26 0002 FF       		.byte	-1
  27 0003 FF       		.byte	-1
  28 0004 FF       		.byte	-1
  29 0005 FF       		.byte	-1
  30              		.global	ethzero
  31 0006 0000     		.section	.rodata.ethzero,"a",%progbits
  32              		.align	2
  33              		.type	ethzero, %object
  34              		.size	ethzero, 6
  35              	ethzero:
  36 0000 00000000 		.space	6
  36      0000
  37 0006 0000     		.section	.bss.arp_table,"aw",%nobits
  38              		.align	2
  39              		.type	arp_table, %object
  40              		.size	arp_table, 160
  41              	arp_table:
  42 0000 00000000 		.space	160
  42      00000000 
  42      00000000 
  42      00000000 
  42      00000000 
  43              		.section	.bss.etharp_cached_entry,"aw",%nobits
  44              		.type	etharp_cached_entry, %object
  45              		.size	etharp_cached_entry, 1
  46              	etharp_cached_entry:
  47 0000 00       		.space	1
  48              		.section	.text.free_entry,"ax",%progbits
  49              		.align	2
  50              		.p2align 4,,15
  51              		.thumb
  52              		.thumb_func
ARM GAS  /tmp/ccLoOG9f.s 			page 2


  53              		.type	free_entry, %function
  54              	free_entry:
  55              	.LFB7:
  56              		.file 1 "../../ext/lwip/src/netif/etharp.c"
  57              		.loc 1 170 0
  58              		.cfi_startproc
  59              		@ args = 0, pretend = 0, frame = 8
  60              		@ frame_needed = 0, uses_anonymous_args = 0
  61 0000 00B5     		push	{lr}
  62              	.LCFI0:
  63              		.cfi_def_cfa_offset 4
  64              		.cfi_offset 14, -4
  65 0002 83B0     		sub	sp, sp, #12
  66              	.LCFI1:
  67              		.cfi_def_cfa_offset 16
  68 0004 0190     		str	r0, [sp, #4]
  69              		.loc 1 174 0
  70 0006 40F20003 		movw	r3, #:lower16:arp_table
  71 000a C0F20003 		movt	r3, #:upper16:arp_table
  72 000e 019A     		ldr	r2, [sp, #4]
  73 0010 4FEA0212 		lsl	r2, r2, #4
  74 0014 9B18     		adds	r3, r3, r2
  75 0016 1B68     		ldr	r3, [r3, #0]
  76 0018 002B     		cmp	r3, #0
  77 001a 16D0     		beq	.L2
  78              		.loc 1 177 0
  79 001c 40F20003 		movw	r3, #:lower16:arp_table
  80 0020 C0F20003 		movt	r3, #:upper16:arp_table
  81 0024 019A     		ldr	r2, [sp, #4]
  82 0026 4FEA0212 		lsl	r2, r2, #4
  83 002a 9B18     		adds	r3, r3, r2
  84 002c 1B68     		ldr	r3, [r3, #0]
  85 002e 1846     		mov	r0, r3
  86 0030 FFF7FEFF 		bl	pbuf_free
  87              		.loc 1 178 0
  88 0034 40F20003 		movw	r3, #:lower16:arp_table
  89 0038 C0F20003 		movt	r3, #:upper16:arp_table
  90 003c 019A     		ldr	r2, [sp, #4]
  91 003e 4FEA0212 		lsl	r2, r2, #4
  92 0042 9B18     		adds	r3, r3, r2
  93 0044 4FF00002 		mov	r2, #0
  94 0048 1A60     		str	r2, [r3, #0]
  95              	.L2:
  96              		.loc 1 181 0
  97 004a 40F20003 		movw	r3, #:lower16:arp_table
  98 004e C0F20003 		movt	r3, #:upper16:arp_table
  99 0052 019A     		ldr	r2, [sp, #4]
 100 0054 4FEA0212 		lsl	r2, r2, #4
 101 0058 9B18     		adds	r3, r3, r2
 102 005a 03F10803 		add	r3, r3, #8
 103 005e 4FF00002 		mov	r2, #0
 104 0062 9A71     		strb	r2, [r3, #6]
 105              		.loc 1 194 0
 106 0064 03B0     		add	sp, sp, #12
 107 0066 00BD     		pop	{pc}
 108              		.cfi_endproc
 109              	.LFE7:
ARM GAS  /tmp/ccLoOG9f.s 			page 3


 110              		.size	free_entry, .-free_entry
 111 0068 AFF30080 		.section	.text.etharp_tmr,"ax",%progbits
 111      AFF30080 
 112              		.align	2
 113              		.p2align 4,,15
 114              		.global	etharp_tmr
 115              		.thumb
 116              		.thumb_func
 117              		.type	etharp_tmr, %function
 118              	etharp_tmr:
 119              	.LFB8:
 120              		.loc 1 204 0
 121              		.cfi_startproc
 122              		@ args = 0, pretend = 0, frame = 8
 123              		@ frame_needed = 0, uses_anonymous_args = 0
 124 0000 00B5     		push	{lr}
 125              	.LCFI2:
 126              		.cfi_def_cfa_offset 4
 127              		.cfi_offset 14, -4
 128 0002 83B0     		sub	sp, sp, #12
 129              	.LCFI3:
 130              		.cfi_def_cfa_offset 16
 131              		.loc 1 209 0
 132 0004 4FF00003 		mov	r3, #0
 133 0008 8DF80730 		strb	r3, [sp, #7]
 134 000c 60E0     		b	.L4
 135              	.L7:
 136              	.LBB2:
 137              		.loc 1 210 0
 138 000e 9DF80720 		ldrb	r2, [sp, #7]	@ zero_extendqisi2
 139 0012 40F20003 		movw	r3, #:lower16:arp_table
 140 0016 C0F20003 		movt	r3, #:upper16:arp_table
 141 001a 4FEA0212 		lsl	r2, r2, #4
 142 001e 9B18     		adds	r3, r3, r2
 143 0020 03F10803 		add	r3, r3, #8
 144 0024 9B79     		ldrb	r3, [r3, #6]
 145 0026 8DF80630 		strb	r3, [sp, #6]
 146              		.loc 1 211 0
 147 002a 9DF80630 		ldrb	r3, [sp, #6]	@ zero_extendqisi2
 148 002e 002B     		cmp	r3, #0
 149 0030 48D0     		beq	.L5
 150              		.loc 1 216 0
 151 0032 9DF80720 		ldrb	r2, [sp, #7]	@ zero_extendqisi2
 152 0036 40F20003 		movw	r3, #:lower16:arp_table
 153 003a C0F20003 		movt	r3, #:upper16:arp_table
 154 003e 4FEA0211 		lsl	r1, r2, #4
 155 0042 5B18     		adds	r3, r3, r1
 156 0044 03F10803 		add	r3, r3, #8
 157 0048 DB79     		ldrb	r3, [r3, #7]	@ zero_extendqisi2
 158 004a 03F10103 		add	r3, r3, #1
 159 004e D9B2     		uxtb	r1, r3
 160 0050 40F20003 		movw	r3, #:lower16:arp_table
 161 0054 C0F20003 		movt	r3, #:upper16:arp_table
 162 0058 4FEA0212 		lsl	r2, r2, #4
 163 005c 9B18     		adds	r3, r3, r2
 164 005e 03F10803 		add	r3, r3, #8
 165 0062 0A46     		mov	r2, r1
ARM GAS  /tmp/ccLoOG9f.s 			page 4


 166 0064 DA71     		strb	r2, [r3, #7]
 167              		.loc 1 217 0
 168 0066 9DF80720 		ldrb	r2, [sp, #7]	@ zero_extendqisi2
 169 006a 40F20003 		movw	r3, #:lower16:arp_table
 170 006e C0F20003 		movt	r3, #:upper16:arp_table
 171 0072 4FEA0212 		lsl	r2, r2, #4
 172 0076 9B18     		adds	r3, r3, r2
 173 0078 03F10803 		add	r3, r3, #8
 174 007c DB79     		ldrb	r3, [r3, #7]	@ zero_extendqisi2
 175 007e EF2B     		cmp	r3, #239
 176 0080 1BD8     		bhi	.L6
 177              		.loc 1 218 0 discriminator 1
 178 0082 9DF80720 		ldrb	r2, [sp, #7]	@ zero_extendqisi2
 179 0086 40F20003 		movw	r3, #:lower16:arp_table
 180 008a C0F20003 		movt	r3, #:upper16:arp_table
 181 008e 4FEA0212 		lsl	r2, r2, #4
 182 0092 9B18     		adds	r3, r3, r2
 183 0094 03F10803 		add	r3, r3, #8
 184 0098 9B79     		ldrb	r3, [r3, #6]	@ zero_extendqisi2
 185              		.loc 1 217 0 discriminator 1
 186 009a 012B     		cmp	r3, #1
 187 009c 12D1     		bne	.L5
 188              		.loc 1 219 0
 189 009e 9DF80720 		ldrb	r2, [sp, #7]	@ zero_extendqisi2
 190 00a2 40F20003 		movw	r3, #:lower16:arp_table
 191 00a6 C0F20003 		movt	r3, #:upper16:arp_table
 192 00aa 4FEA0212 		lsl	r2, r2, #4
 193 00ae 9B18     		adds	r3, r3, r2
 194 00b0 03F10803 		add	r3, r3, #8
 195 00b4 DB79     		ldrb	r3, [r3, #7]	@ zero_extendqisi2
 196              		.loc 1 218 0
 197 00b6 012B     		cmp	r3, #1
 198 00b8 04D9     		bls	.L5
 199              	.L6:
 200              		.loc 1 224 0
 201 00ba 9DF80730 		ldrb	r3, [sp, #7]	@ zero_extendqisi2
 202 00be 1846     		mov	r0, r3
 203 00c0 FFF7FEFF 		bl	free_entry
 204              	.L5:
 205              	.LBE2:
 206              		.loc 1 209 0
 207 00c4 9DF80730 		ldrb	r3, [sp, #7]
 208 00c8 03F10103 		add	r3, r3, #1
 209 00cc 8DF80730 		strb	r3, [sp, #7]
 210              	.L4:
 211              		.loc 1 209 0 is_stmt 0 discriminator 1
 212 00d0 9DF80730 		ldrb	r3, [sp, #7]	@ zero_extendqisi2
 213 00d4 092B     		cmp	r3, #9
 214 00d6 9AD9     		bls	.L7
 215              		.loc 1 234 0 is_stmt 1
 216 00d8 03B0     		add	sp, sp, #12
 217 00da 00BD     		pop	{pc}
 218              		.cfi_endproc
 219              	.LFE8:
 220              		.size	etharp_tmr, .-etharp_tmr
 221 00dc AFF30080 		.section	.text.find_entry,"ax",%progbits
 222              		.align	2
ARM GAS  /tmp/ccLoOG9f.s 			page 5


 223              		.p2align 4,,15
 224              		.thumb
 225              		.thumb_func
 226              		.type	find_entry, %function
 227              	find_entry:
 228              	.LFB9:
 229              		.loc 1 259 0
 230              		.cfi_startproc
 231              		@ args = 0, pretend = 0, frame = 24
 232              		@ frame_needed = 0, uses_anonymous_args = 0
 233 0000 00B5     		push	{lr}
 234              	.LCFI4:
 235              		.cfi_def_cfa_offset 4
 236              		.cfi_offset 14, -4
 237 0002 87B0     		sub	sp, sp, #28
 238              	.LCFI5:
 239              		.cfi_def_cfa_offset 32
 240 0004 0190     		str	r0, [sp, #4]
 241 0006 0B46     		mov	r3, r1
 242 0008 8DF80330 		strb	r3, [sp, #3]
 243              		.loc 1 260 0
 244 000c 4FF00A03 		mov	r3, #10
 245 0010 8DF81730 		strb	r3, [sp, #23]
 246 0014 4FF00A03 		mov	r3, #10
 247 0018 8DF81630 		strb	r3, [sp, #22]
 248              		.loc 1 261 0
 249 001c 4FF00A03 		mov	r3, #10
 250 0020 8DF81530 		strb	r3, [sp, #21]
 251              		.loc 1 262 0
 252 0024 4FF00003 		mov	r3, #0
 253 0028 8DF81430 		strb	r3, [sp, #20]
 254 002c 4FF00003 		mov	r3, #0
 255 0030 8DF81330 		strb	r3, [sp, #19]
 256 0034 4FF00003 		mov	r3, #0
 257 0038 8DF81230 		strb	r3, [sp, #18]
 258              		.loc 1 264 0
 259 003c 4FF00A03 		mov	r3, #10
 260 0040 8DF81130 		strb	r3, [sp, #17]
 261              		.loc 1 266 0
 262 0044 4FF00003 		mov	r3, #0
 263 0048 8DF81030 		strb	r3, [sp, #16]
 264              		.loc 1 283 0
 265 004c 4FF00003 		mov	r3, #0
 266 0050 8DF81430 		strb	r3, [sp, #20]
 267 0054 C1E0     		b	.L9
 268              	.L17:
 269              	.LBB3:
 270              		.loc 1 284 0
 271 0056 9DF81420 		ldrb	r2, [sp, #20]	@ zero_extendqisi2
 272 005a 40F20003 		movw	r3, #:lower16:arp_table
 273 005e C0F20003 		movt	r3, #:upper16:arp_table
 274 0062 4FEA0212 		lsl	r2, r2, #4
 275 0066 9B18     		adds	r3, r3, r2
 276 0068 03F10803 		add	r3, r3, #8
 277 006c 9B79     		ldrb	r3, [r3, #6]
 278 006e 8DF80F30 		strb	r3, [sp, #15]
 279              		.loc 1 286 0
ARM GAS  /tmp/ccLoOG9f.s 			page 6


 280 0072 9DF91530 		ldrsb	r3, [sp, #21]
 281 0076 0A2B     		cmp	r3, #10
 282 0078 08D1     		bne	.L10
 283              		.loc 1 286 0 is_stmt 0 discriminator 1
 284 007a 9DF80F30 		ldrb	r3, [sp, #15]	@ zero_extendqisi2
 285 007e 002B     		cmp	r3, #0
 286 0080 04D1     		bne	.L10
 287              		.loc 1 289 0 is_stmt 1
 288 0082 9DF81430 		ldrb	r3, [sp, #20]
 289 0086 8DF81530 		strb	r3, [sp, #21]
 290 008a A0E0     		b	.L11
 291              	.L10:
 292              		.loc 1 290 0
 293 008c 9DF80F30 		ldrb	r3, [sp, #15]	@ zero_extendqisi2
 294 0090 002B     		cmp	r3, #0
 295 0092 00F09C80 		beq	.L11
 296              		.loc 1 291 0
 297 0096 9DF80F30 		ldrb	r3, [sp, #15]	@ zero_extendqisi2
 298 009a 012B     		cmp	r3, #1
 299 009c 05D0     		beq	.L12
 300              		.loc 1 291 0 is_stmt 0 discriminator 1
 301 009e 9DF80F30 		ldrb	r3, [sp, #15]	@ zero_extendqisi2
 302 00a2 022B     		cmp	r3, #2
 303 00a4 01D0     		beq	.L12
 304              		.loc 1 291 0 discriminator 2
 305 00a6 FFF7FEFF 		bl	port_halt
 306              	.L12:
 307              		.loc 1 294 0 is_stmt 1
 308 00aa 019B     		ldr	r3, [sp, #4]
 309 00ac 002B     		cmp	r3, #0
 310 00ae 12D0     		beq	.L13
 311              		.loc 1 294 0 is_stmt 0 discriminator 1
 312 00b0 019B     		ldr	r3, [sp, #4]
 313 00b2 1A68     		ldr	r2, [r3, #0]
 314 00b4 9DF81410 		ldrb	r1, [sp, #20]	@ zero_extendqisi2
 315 00b8 40F20003 		movw	r3, #:lower16:arp_table
 316 00bc C0F20003 		movt	r3, #:upper16:arp_table
 317 00c0 4FEA0111 		lsl	r1, r1, #4
 318 00c4 5B18     		adds	r3, r3, r1
 319 00c6 03F10403 		add	r3, r3, #4
 320 00ca 1B68     		ldr	r3, [r3, #0]
 321 00cc 9A42     		cmp	r2, r3
 322 00ce 02D1     		bne	.L13
 323              		.loc 1 297 0 is_stmt 1
 324 00d0 9DF81430 		ldrb	r3, [sp, #20]	@ zero_extendqisi2
 325 00d4 10E1     		b	.L14
 326              	.L13:
 327              		.loc 1 300 0
 328 00d6 9DF80F30 		ldrb	r3, [sp, #15]	@ zero_extendqisi2
 329 00da 012B     		cmp	r3, #1
 330 00dc 51D1     		bne	.L15
 331              		.loc 1 302 0
 332 00de 9DF81420 		ldrb	r2, [sp, #20]	@ zero_extendqisi2
 333 00e2 40F20003 		movw	r3, #:lower16:arp_table
 334 00e6 C0F20003 		movt	r3, #:upper16:arp_table
 335 00ea 4FEA0212 		lsl	r2, r2, #4
 336 00ee 9B18     		adds	r3, r3, r2
ARM GAS  /tmp/ccLoOG9f.s 			page 7


 337 00f0 1B68     		ldr	r3, [r3, #0]
 338 00f2 002B     		cmp	r3, #0
 339 00f4 22D0     		beq	.L16
 340              		.loc 1 303 0
 341 00f6 9DF81420 		ldrb	r2, [sp, #20]	@ zero_extendqisi2
 342 00fa 40F20003 		movw	r3, #:lower16:arp_table
 343 00fe C0F20003 		movt	r3, #:upper16:arp_table
 344 0102 4FEA0212 		lsl	r2, r2, #4
 345 0106 9B18     		adds	r3, r3, r2
 346 0108 03F10803 		add	r3, r3, #8
 347 010c DB79     		ldrb	r3, [r3, #7]	@ zero_extendqisi2
 348 010e 9DF81020 		ldrb	r2, [sp, #16]	@ zero_extendqisi2
 349 0112 9A42     		cmp	r2, r3
 350 0114 5BD8     		bhi	.L11
 351              		.loc 1 304 0
 352 0116 9DF81430 		ldrb	r3, [sp, #20]
 353 011a 8DF81130 		strb	r3, [sp, #17]
 354              		.loc 1 305 0
 355 011e 9DF81420 		ldrb	r2, [sp, #20]	@ zero_extendqisi2
 356 0122 40F20003 		movw	r3, #:lower16:arp_table
 357 0126 C0F20003 		movt	r3, #:upper16:arp_table
 358 012a 4FEA0212 		lsl	r2, r2, #4
 359 012e 9B18     		adds	r3, r3, r2
 360 0130 03F10803 		add	r3, r3, #8
 361 0134 DB79     		ldrb	r3, [r3, #7]
 362 0136 8DF81030 		strb	r3, [sp, #16]
 363 013a 48E0     		b	.L11
 364              	.L16:
 365              		.loc 1 310 0
 366 013c 9DF81420 		ldrb	r2, [sp, #20]	@ zero_extendqisi2
 367 0140 40F20003 		movw	r3, #:lower16:arp_table
 368 0144 C0F20003 		movt	r3, #:upper16:arp_table
 369 0148 4FEA0212 		lsl	r2, r2, #4
 370 014c 9B18     		adds	r3, r3, r2
 371 014e 03F10803 		add	r3, r3, #8
 372 0152 DB79     		ldrb	r3, [r3, #7]	@ zero_extendqisi2
 373 0154 9DF81320 		ldrb	r2, [sp, #19]	@ zero_extendqisi2
 374 0158 9A42     		cmp	r2, r3
 375 015a 38D8     		bhi	.L11
 376              		.loc 1 311 0
 377 015c 9DF81430 		ldrb	r3, [sp, #20]
 378 0160 8DF81730 		strb	r3, [sp, #23]
 379              		.loc 1 312 0
 380 0164 9DF81420 		ldrb	r2, [sp, #20]	@ zero_extendqisi2
 381 0168 40F20003 		movw	r3, #:lower16:arp_table
 382 016c C0F20003 		movt	r3, #:upper16:arp_table
 383 0170 4FEA0212 		lsl	r2, r2, #4
 384 0174 9B18     		adds	r3, r3, r2
 385 0176 03F10803 		add	r3, r3, #8
 386 017a DB79     		ldrb	r3, [r3, #7]
 387 017c 8DF81330 		strb	r3, [sp, #19]
 388 0180 25E0     		b	.L11
 389              	.L15:
 390              		.loc 1 316 0
 391 0182 9DF80F30 		ldrb	r3, [sp, #15]	@ zero_extendqisi2
 392 0186 022B     		cmp	r3, #2
 393 0188 21D1     		bne	.L11
ARM GAS  /tmp/ccLoOG9f.s 			page 8


 394              		.loc 1 323 0
 395 018a 9DF81420 		ldrb	r2, [sp, #20]	@ zero_extendqisi2
 396 018e 40F20003 		movw	r3, #:lower16:arp_table
 397 0192 C0F20003 		movt	r3, #:upper16:arp_table
 398 0196 4FEA0212 		lsl	r2, r2, #4
 399 019a 9B18     		adds	r3, r3, r2
 400 019c 03F10803 		add	r3, r3, #8
 401 01a0 DB79     		ldrb	r3, [r3, #7]	@ zero_extendqisi2
 402 01a2 9DF81220 		ldrb	r2, [sp, #18]	@ zero_extendqisi2
 403 01a6 9A42     		cmp	r2, r3
 404 01a8 11D8     		bhi	.L11
 405              		.loc 1 324 0
 406 01aa 9DF81430 		ldrb	r3, [sp, #20]
 407 01ae 8DF81630 		strb	r3, [sp, #22]
 408              		.loc 1 325 0
 409 01b2 9DF81420 		ldrb	r2, [sp, #20]	@ zero_extendqisi2
 410 01b6 40F20003 		movw	r3, #:lower16:arp_table
 411 01ba C0F20003 		movt	r3, #:upper16:arp_table
 412 01be 4FEA0212 		lsl	r2, r2, #4
 413 01c2 9B18     		adds	r3, r3, r2
 414 01c4 03F10803 		add	r3, r3, #8
 415 01c8 DB79     		ldrb	r3, [r3, #7]
 416 01ca 8DF81230 		strb	r3, [sp, #18]
 417              	.L11:
 418              	.LBE3:
 419              		.loc 1 283 0
 420 01ce 9DF81430 		ldrb	r3, [sp, #20]
 421 01d2 03F10103 		add	r3, r3, #1
 422 01d6 8DF81430 		strb	r3, [sp, #20]
 423              	.L9:
 424              		.loc 1 283 0 is_stmt 0 discriminator 1
 425 01da 9DF81430 		ldrb	r3, [sp, #20]	@ zero_extendqisi2
 426 01de 092B     		cmp	r3, #9
 427 01e0 7FF639AF 		bls	.L17
 428              		.loc 1 334 0 is_stmt 1
 429 01e4 9DF80330 		ldrb	r3, [sp, #3]	@ zero_extendqisi2
 430 01e8 03F00203 		and	r3, r3, #2
 431 01ec 002B     		cmp	r3, #0
 432 01ee 09D1     		bne	.L18
 433              		.loc 1 334 0 is_stmt 0 discriminator 1
 434 01f0 9DF91530 		ldrsb	r3, [sp, #21]
 435 01f4 0A2B     		cmp	r3, #10
 436 01f6 08D1     		bne	.L19
 437              		.loc 1 336 0 is_stmt 1
 438 01f8 9DF80330 		ldrb	r3, [sp, #3]	@ zero_extendqisi2
 439 01fc 03F00103 		and	r3, r3, #1
 440 0200 002B     		cmp	r3, #0
 441 0202 02D1     		bne	.L19
 442              	.L18:
 443              		.loc 1 338 0
 444 0204 4FF0FF03 		mov	r3, #255
 445 0208 76E0     		b	.L14
 446              	.L19:
 447              		.loc 1 351 0
 448 020a 9DF91530 		ldrsb	r3, [sp, #21]
 449 020e 092B     		cmp	r3, #9
 450 0210 04DC     		bgt	.L20
ARM GAS  /tmp/ccLoOG9f.s 			page 9


 451              		.loc 1 352 0
 452 0212 9DF81530 		ldrb	r3, [sp, #21]
 453 0216 8DF81430 		strb	r3, [sp, #20]
 454 021a 36E0     		b	.L21
 455              	.L20:
 456              		.loc 1 356 0
 457 021c 9DF91630 		ldrsb	r3, [sp, #22]
 458 0220 092B     		cmp	r3, #9
 459 0222 12DC     		bgt	.L22
 460              		.loc 1 358 0
 461 0224 9DF81630 		ldrb	r3, [sp, #22]
 462 0228 8DF81430 		strb	r3, [sp, #20]
 463              		.loc 1 361 0
 464 022c 9DF81420 		ldrb	r2, [sp, #20]	@ zero_extendqisi2
 465 0230 40F20003 		movw	r3, #:lower16:arp_table
 466 0234 C0F20003 		movt	r3, #:upper16:arp_table
 467 0238 4FEA0212 		lsl	r2, r2, #4
 468 023c 9B18     		adds	r3, r3, r2
 469 023e 1B68     		ldr	r3, [r3, #0]
 470 0240 002B     		cmp	r3, #0
 471 0242 17D0     		beq	.L23
 472              		.loc 1 361 0 is_stmt 0 discriminator 1
 473 0244 FFF7FEFF 		bl	port_halt
 474 0248 14E0     		b	.L23
 475              	.L22:
 476              		.loc 1 363 0 is_stmt 1
 477 024a 9DF91730 		ldrsb	r3, [sp, #23]
 478 024e 092B     		cmp	r3, #9
 479 0250 04DC     		bgt	.L24
 480              		.loc 1 365 0
 481 0252 9DF81730 		ldrb	r3, [sp, #23]
 482 0256 8DF81430 		strb	r3, [sp, #20]
 483 025a 0BE0     		b	.L23
 484              	.L24:
 485              		.loc 1 368 0
 486 025c 9DF91130 		ldrsb	r3, [sp, #17]
 487 0260 092B     		cmp	r3, #9
 488 0262 04DC     		bgt	.L25
 489              		.loc 1 370 0
 490 0264 9DF81130 		ldrb	r3, [sp, #17]
 491 0268 8DF81430 		strb	r3, [sp, #20]
 492 026c 02E0     		b	.L23
 493              	.L25:
 494              		.loc 1 375 0
 495 026e 4FF0FF03 		mov	r3, #255
 496 0272 41E0     		b	.L14
 497              	.L23:
 498              		.loc 1 379 0
 499 0274 9DF81430 		ldrb	r3, [sp, #20]	@ zero_extendqisi2
 500 0278 092B     		cmp	r3, #9
 501 027a 01D9     		bls	.L26
 502              		.loc 1 379 0 is_stmt 0 discriminator 1
 503 027c FFF7FEFF 		bl	port_halt
 504              	.L26:
 505              		.loc 1 380 0 is_stmt 1
 506 0280 9DF81430 		ldrb	r3, [sp, #20]	@ zero_extendqisi2
 507 0284 1846     		mov	r0, r3
ARM GAS  /tmp/ccLoOG9f.s 			page 10


 508 0286 FFF7FEFF 		bl	free_entry
 509              	.L21:
 510              		.loc 1 383 0
 511 028a 9DF81430 		ldrb	r3, [sp, #20]	@ zero_extendqisi2
 512 028e 092B     		cmp	r3, #9
 513 0290 01D9     		bls	.L27
 514              		.loc 1 383 0 is_stmt 0 discriminator 1
 515 0292 FFF7FEFF 		bl	port_halt
 516              	.L27:
 517              		.loc 1 384 0 is_stmt 1
 518 0296 9DF81420 		ldrb	r2, [sp, #20]	@ zero_extendqisi2
 519 029a 40F20003 		movw	r3, #:lower16:arp_table
 520 029e C0F20003 		movt	r3, #:upper16:arp_table
 521 02a2 4FEA0212 		lsl	r2, r2, #4
 522 02a6 9B18     		adds	r3, r3, r2
 523 02a8 03F10803 		add	r3, r3, #8
 524 02ac 9B79     		ldrb	r3, [r3, #6]	@ zero_extendqisi2
 525 02ae 002B     		cmp	r3, #0
 526 02b0 01D0     		beq	.L28
 527              		.loc 1 384 0 is_stmt 0 discriminator 1
 528 02b2 FFF7FEFF 		bl	port_halt
 529              	.L28:
 530              		.loc 1 388 0 is_stmt 1
 531 02b6 019B     		ldr	r3, [sp, #4]
 532 02b8 002B     		cmp	r3, #0
 533 02ba 0DD0     		beq	.L29
 534              		.loc 1 390 0
 535 02bc 9DF81410 		ldrb	r1, [sp, #20]	@ zero_extendqisi2
 536 02c0 019B     		ldr	r3, [sp, #4]
 537 02c2 1A68     		ldr	r2, [r3, #0]
 538 02c4 40F20003 		movw	r3, #:lower16:arp_table
 539 02c8 C0F20003 		movt	r3, #:upper16:arp_table
 540 02cc 4FEA0111 		lsl	r1, r1, #4
 541 02d0 5B18     		adds	r3, r3, r1
 542 02d2 03F10403 		add	r3, r3, #4
 543 02d6 1A60     		str	r2, [r3, #0]
 544              	.L29:
 545              		.loc 1 392 0
 546 02d8 9DF81420 		ldrb	r2, [sp, #20]	@ zero_extendqisi2
 547 02dc 40F20003 		movw	r3, #:lower16:arp_table
 548 02e0 C0F20003 		movt	r3, #:upper16:arp_table
 549 02e4 4FEA0212 		lsl	r2, r2, #4
 550 02e8 9B18     		adds	r3, r3, r2
 551 02ea 03F10803 		add	r3, r3, #8
 552 02ee 4FF00002 		mov	r2, #0
 553 02f2 DA71     		strb	r2, [r3, #7]
 554              		.loc 1 396 0
 555 02f4 9DF81430 		ldrb	r3, [sp, #20]	@ zero_extendqisi2
 556              	.L14:
 557 02f8 5BB2     		sxtb	r3, r3
 558              		.loc 1 397 0
 559 02fa 1846     		mov	r0, r3
 560 02fc 07B0     		add	sp, sp, #28
 561 02fe 00BD     		pop	{pc}
 562              		.cfi_endproc
 563              	.LFE9:
 564              		.size	find_entry, .-find_entry
ARM GAS  /tmp/ccLoOG9f.s 			page 11


 565              		.section	.text.etharp_send_ip,"ax",%progbits
 566              		.align	2
 567              		.p2align 4,,15
 568              		.thumb
 569              		.thumb_func
 570              		.type	etharp_send_ip, %function
 571              	etharp_send_ip:
 572              	.LFB10:
 573              		.loc 1 411 0
 574              		.cfi_startproc
 575              		@ args = 0, pretend = 0, frame = 24
 576              		@ frame_needed = 0, uses_anonymous_args = 0
 577 0000 00B5     		push	{lr}
 578              	.LCFI6:
 579              		.cfi_def_cfa_offset 4
 580              		.cfi_offset 14, -4
 581 0002 87B0     		sub	sp, sp, #28
 582              	.LCFI7:
 583              		.cfi_def_cfa_offset 32
 584 0004 0390     		str	r0, [sp, #12]
 585 0006 0291     		str	r1, [sp, #8]
 586 0008 0192     		str	r2, [sp, #4]
 587 000a 0093     		str	r3, [sp, #0]
 588              		.loc 1 412 0
 589 000c 029B     		ldr	r3, [sp, #8]
 590 000e 5B68     		ldr	r3, [r3, #4]
 591 0010 0593     		str	r3, [sp, #20]
 592              		.loc 1 414 0
 593 0012 039B     		ldr	r3, [sp, #12]
 594 0014 93F82230 		ldrb	r3, [r3, #34]	@ zero_extendqisi2
 595 0018 062B     		cmp	r3, #6
 596 001a 01D0     		beq	.L31
 597              		.loc 1 414 0 is_stmt 0 discriminator 1
 598 001c FFF7FEFF 		bl	port_halt
 599              	.L31:
 600              		.loc 1 416 0 is_stmt 1
 601 0020 059A     		ldr	r2, [sp, #20]
 602 0022 009B     		ldr	r3, [sp, #0]
 603 0024 1146     		mov	r1, r2
 604 0026 1A46     		mov	r2, r3
 605 0028 4FF00603 		mov	r3, #6
 606 002c 0846     		mov	r0, r1
 607 002e 1146     		mov	r1, r2
 608 0030 1A46     		mov	r2, r3
 609 0032 FFF7FEFF 		bl	memcpy
 610              		.loc 1 417 0
 611 0036 059B     		ldr	r3, [sp, #20]
 612 0038 03F10602 		add	r2, r3, #6
 613 003c 019B     		ldr	r3, [sp, #4]
 614 003e 1146     		mov	r1, r2
 615 0040 1A46     		mov	r2, r3
 616 0042 4FF00603 		mov	r3, #6
 617 0046 0846     		mov	r0, r1
 618 0048 1146     		mov	r1, r2
 619 004a 1A46     		mov	r2, r3
 620 004c FFF7FEFF 		bl	memcpy
 621              		.loc 1 418 0
ARM GAS  /tmp/ccLoOG9f.s 			page 12


 622 0050 059B     		ldr	r3, [sp, #20]
 623 0052 4FF00002 		mov	r2, #0
 624 0056 42F00802 		orr	r2, r2, #8
 625 005a 1A73     		strb	r2, [r3, #12]
 626 005c 4FF00002 		mov	r2, #0
 627 0060 5A73     		strb	r2, [r3, #13]
 628              		.loc 1 421 0
 629 0062 039B     		ldr	r3, [sp, #12]
 630 0064 9B69     		ldr	r3, [r3, #24]
 631 0066 0398     		ldr	r0, [sp, #12]
 632 0068 0299     		ldr	r1, [sp, #8]
 633 006a 9847     		blx	r3
 634 006c 0346     		mov	r3, r0
 635              		.loc 1 422 0
 636 006e 1846     		mov	r0, r3
 637 0070 07B0     		add	sp, sp, #28
 638 0072 00BD     		pop	{pc}
 639              		.cfi_endproc
 640              	.LFE10:
 641              		.size	etharp_send_ip, .-etharp_send_ip
 642 0074 AFF30080 		.section	.text.update_arp_entry,"ax",%progbits
 642      AFF30080 
 642      AFF30080 
 643              		.align	2
 644              		.p2align 4,,15
 645              		.thumb
 646              		.thumb_func
 647              		.type	update_arp_entry, %function
 648              	update_arp_entry:
 649              	.LFB11:
 650              		.loc 1 444 0
 651              		.cfi_startproc
 652              		@ args = 0, pretend = 0, frame = 24
 653              		@ frame_needed = 0, uses_anonymous_args = 0
 654 0000 00B5     		push	{lr}
 655              	.LCFI8:
 656              		.cfi_def_cfa_offset 4
 657              		.cfi_offset 14, -4
 658 0002 87B0     		sub	sp, sp, #28
 659              	.LCFI9:
 660              		.cfi_def_cfa_offset 32
 661 0004 0390     		str	r0, [sp, #12]
 662 0006 0291     		str	r1, [sp, #8]
 663 0008 0192     		str	r2, [sp, #4]
 664 000a 8DF80330 		strb	r3, [sp, #3]
 665              		.loc 1 446 0
 666 000e 039B     		ldr	r3, [sp, #12]
 667 0010 93F82230 		ldrb	r3, [r3, #34]	@ zero_extendqisi2
 668 0014 062B     		cmp	r3, #6
 669 0016 01D0     		beq	.L33
 670              		.loc 1 446 0 is_stmt 0 discriminator 1
 671 0018 FFF7FEFF 		bl	port_halt
 672              	.L33:
 673              		.loc 1 452 0 is_stmt 1
 674 001c 029B     		ldr	r3, [sp, #8]
 675 001e 002B     		cmp	r3, #0
 676 0020 12D0     		beq	.L34
ARM GAS  /tmp/ccLoOG9f.s 			page 13


 677              		.loc 1 452 0 is_stmt 0 discriminator 1
 678 0022 029B     		ldr	r3, [sp, #8]
 679 0024 1B68     		ldr	r3, [r3, #0]
 680 0026 002B     		cmp	r3, #0
 681 0028 0ED0     		beq	.L34
 682              		.loc 1 453 0 is_stmt 1 discriminator 1
 683 002a 029B     		ldr	r3, [sp, #8]
 684 002c 1B68     		ldr	r3, [r3, #0]
 685 002e 1846     		mov	r0, r3
 686 0030 0399     		ldr	r1, [sp, #12]
 687 0032 FFF7FEFF 		bl	ip4_addr_isbroadcast
 688 0036 0346     		mov	r3, r0
 689              		.loc 1 452 0 discriminator 1
 690 0038 002B     		cmp	r3, #0
 691 003a 05D1     		bne	.L34
 692              		.loc 1 454 0
 693 003c 029B     		ldr	r3, [sp, #8]
 694 003e 1B68     		ldr	r3, [r3, #0]
 695 0040 03F0F003 		and	r3, r3, #240
 696              		.loc 1 453 0
 697 0044 E02B     		cmp	r3, #224
 698 0046 02D1     		bne	.L35
 699              	.L34:
 700              		.loc 1 456 0
 701 0048 4FF0F203 		mov	r3, #242
 702 004c 71E0     		b	.L36
 703              	.L35:
 704              		.loc 1 459 0
 705 004e 9DF80330 		ldrb	r3, [sp, #3]	@ zero_extendqisi2
 706 0052 0298     		ldr	r0, [sp, #8]
 707 0054 1946     		mov	r1, r3
 708 0056 FFF7FEFF 		bl	find_entry
 709 005a 0346     		mov	r3, r0
 710 005c 8DF81730 		strb	r3, [sp, #23]
 711              		.loc 1 461 0
 712 0060 9DF91730 		ldrsb	r3, [sp, #23]
 713 0064 002B     		cmp	r3, #0
 714 0066 02DA     		bge	.L37
 715              		.loc 1 462 0
 716 0068 9DF81730 		ldrb	r3, [sp, #23]	@ zero_extendqisi2
 717 006c 61E0     		b	.L36
 718              	.L37:
 719              		.loc 1 473 0
 720 006e 9DF91720 		ldrsb	r2, [sp, #23]
 721 0072 40F20003 		movw	r3, #:lower16:arp_table
 722 0076 C0F20003 		movt	r3, #:upper16:arp_table
 723 007a 4FEA0212 		lsl	r2, r2, #4
 724 007e 9B18     		adds	r3, r3, r2
 725 0080 03F10803 		add	r3, r3, #8
 726 0084 4FF00202 		mov	r2, #2
 727 0088 9A71     		strb	r2, [r3, #6]
 728              		.loc 1 484 0
 729 008a 9DF91730 		ldrsb	r3, [sp, #23]
 730 008e 4FEA0313 		lsl	r3, r3, #4
 731 0092 03F10802 		add	r2, r3, #8
 732 0096 40F20003 		movw	r3, #:lower16:arp_table
 733 009a C0F20003 		movt	r3, #:upper16:arp_table
ARM GAS  /tmp/ccLoOG9f.s 			page 14


 734 009e D218     		adds	r2, r2, r3
 735 00a0 019B     		ldr	r3, [sp, #4]
 736 00a2 1146     		mov	r1, r2
 737 00a4 1A46     		mov	r2, r3
 738 00a6 4FF00603 		mov	r3, #6
 739 00aa 0846     		mov	r0, r1
 740 00ac 1146     		mov	r1, r2
 741 00ae 1A46     		mov	r2, r3
 742 00b0 FFF7FEFF 		bl	memcpy
 743              		.loc 1 486 0
 744 00b4 9DF91720 		ldrsb	r2, [sp, #23]
 745 00b8 40F20003 		movw	r3, #:lower16:arp_table
 746 00bc C0F20003 		movt	r3, #:upper16:arp_table
 747 00c0 4FEA0212 		lsl	r2, r2, #4
 748 00c4 9B18     		adds	r3, r3, r2
 749 00c6 03F10803 		add	r3, r3, #8
 750 00ca 4FF00002 		mov	r2, #0
 751 00ce DA71     		strb	r2, [r3, #7]
 752              		.loc 1 500 0
 753 00d0 9DF91720 		ldrsb	r2, [sp, #23]
 754 00d4 40F20003 		movw	r3, #:lower16:arp_table
 755 00d8 C0F20003 		movt	r3, #:upper16:arp_table
 756 00dc 4FEA0212 		lsl	r2, r2, #4
 757 00e0 9B18     		adds	r3, r3, r2
 758 00e2 1B68     		ldr	r3, [r3, #0]
 759 00e4 002B     		cmp	r3, #0
 760 00e6 22D0     		beq	.L38
 761              	.LBB4:
 762              		.loc 1 501 0
 763 00e8 9DF91720 		ldrsb	r2, [sp, #23]
 764 00ec 40F20003 		movw	r3, #:lower16:arp_table
 765 00f0 C0F20003 		movt	r3, #:upper16:arp_table
 766 00f4 4FEA0212 		lsl	r2, r2, #4
 767 00f8 9B18     		adds	r3, r3, r2
 768 00fa 1B68     		ldr	r3, [r3, #0]
 769 00fc 0493     		str	r3, [sp, #16]
 770              		.loc 1 502 0
 771 00fe 9DF91720 		ldrsb	r2, [sp, #23]
 772 0102 40F20003 		movw	r3, #:lower16:arp_table
 773 0106 C0F20003 		movt	r3, #:upper16:arp_table
 774 010a 4FEA0212 		lsl	r2, r2, #4
 775 010e 9B18     		adds	r3, r3, r2
 776 0110 4FF00002 		mov	r2, #0
 777 0114 1A60     		str	r2, [r3, #0]
 778              		.loc 1 505 0
 779 0116 039B     		ldr	r3, [sp, #12]
 780 0118 03F12303 		add	r3, r3, #35
 781 011c 0398     		ldr	r0, [sp, #12]
 782 011e 0499     		ldr	r1, [sp, #16]
 783 0120 1A46     		mov	r2, r3
 784 0122 019B     		ldr	r3, [sp, #4]
 785 0124 FFF7FEFF 		bl	etharp_send_ip
 786              		.loc 1 507 0
 787 0128 0498     		ldr	r0, [sp, #16]
 788 012a FFF7FEFF 		bl	pbuf_free
 789              	.L38:
 790              	.LBE4:
ARM GAS  /tmp/ccLoOG9f.s 			page 15


 791              		.loc 1 509 0
 792 012e 4FF00003 		mov	r3, #0
 793              	.L36:
 794 0132 5BB2     		sxtb	r3, r3
 795              		.loc 1 510 0
 796 0134 1846     		mov	r0, r3
 797 0136 07B0     		add	sp, sp, #28
 798 0138 00BD     		pop	{pc}
 799              		.cfi_endproc
 800              	.LFE11:
 801              		.size	update_arp_entry, .-update_arp_entry
 802 013a 00BFAFF3 		.section	.text.etharp_find_addr,"ax",%progbits
 802      0080
 803              		.align	2
 804              		.p2align 4,,15
 805              		.global	etharp_find_addr
 806              		.thumb
 807              		.thumb_func
 808              		.type	etharp_find_addr, %function
 809              	etharp_find_addr:
 810              	.LFB12:
 811              		.loc 1 585 0
 812              		.cfi_startproc
 813              		@ args = 0, pretend = 0, frame = 24
 814              		@ frame_needed = 0, uses_anonymous_args = 0
 815 0000 00B5     		push	{lr}
 816              	.LCFI10:
 817              		.cfi_def_cfa_offset 4
 818              		.cfi_offset 14, -4
 819 0002 87B0     		sub	sp, sp, #28
 820              	.LCFI11:
 821              		.cfi_def_cfa_offset 32
 822 0004 0390     		str	r0, [sp, #12]
 823 0006 0291     		str	r1, [sp, #8]
 824 0008 0192     		str	r2, [sp, #4]
 825 000a 0093     		str	r3, [sp, #0]
 826              		.loc 1 588 0
 827 000c 019B     		ldr	r3, [sp, #4]
 828 000e 002B     		cmp	r3, #0
 829 0010 02D0     		beq	.L40
 830              		.loc 1 588 0 is_stmt 0 discriminator 2
 831 0012 009B     		ldr	r3, [sp, #0]
 832 0014 002B     		cmp	r3, #0
 833 0016 01D1     		bne	.L41
 834              	.L40:
 835              		.loc 1 588 0 discriminator 1
 836 0018 FFF7FEFF 		bl	port_halt
 837              	.L41:
 838              		.loc 1 593 0 is_stmt 1
 839 001c 0298     		ldr	r0, [sp, #8]
 840 001e 4FF00201 		mov	r1, #2
 841 0022 FFF7FEFF 		bl	find_entry
 842 0026 0346     		mov	r3, r0
 843 0028 8DF81730 		strb	r3, [sp, #23]
 844              		.loc 1 594 0
 845 002c 9DF91730 		ldrsb	r3, [sp, #23]
 846 0030 002B     		cmp	r3, #0
ARM GAS  /tmp/ccLoOG9f.s 			page 16


 847 0032 2ADB     		blt	.L42
 848              		.loc 1 594 0 is_stmt 0 discriminator 1
 849 0034 9DF91720 		ldrsb	r2, [sp, #23]
 850 0038 40F20003 		movw	r3, #:lower16:arp_table
 851 003c C0F20003 		movt	r3, #:upper16:arp_table
 852 0040 4FEA0212 		lsl	r2, r2, #4
 853 0044 9B18     		adds	r3, r3, r2
 854 0046 03F10803 		add	r3, r3, #8
 855 004a 9B79     		ldrb	r3, [r3, #6]	@ zero_extendqisi2
 856 004c 022B     		cmp	r3, #2
 857 004e 1CD1     		bne	.L42
 858              		.loc 1 595 0 is_stmt 1
 859 0050 9DF91730 		ldrsb	r3, [sp, #23]
 860 0054 4FEA0313 		lsl	r3, r3, #4
 861 0058 03F10802 		add	r2, r3, #8
 862 005c 40F20003 		movw	r3, #:lower16:arp_table
 863 0060 C0F20003 		movt	r3, #:upper16:arp_table
 864 0064 D218     		adds	r2, r2, r3
 865 0066 019B     		ldr	r3, [sp, #4]
 866 0068 1A60     		str	r2, [r3, #0]
 867              		.loc 1 596 0
 868 006a 9DF91730 		ldrsb	r3, [sp, #23]
 869 006e 4FEA0312 		lsl	r2, r3, #4
 870 0072 40F20003 		movw	r3, #:lower16:arp_table
 871 0076 C0F20003 		movt	r3, #:upper16:arp_table
 872 007a D318     		adds	r3, r2, r3
 873 007c 03F10402 		add	r2, r3, #4
 874 0080 009B     		ldr	r3, [sp, #0]
 875 0082 1A60     		str	r2, [r3, #0]
 876              		.loc 1 597 0
 877 0084 9DF81730 		ldrb	r3, [sp, #23]	@ zero_extendqisi2
 878 0088 01E0     		b	.L43
 879              	.L42:
 880              		.loc 1 599 0
 881 008a 4FF0FF03 		mov	r3, #255
 882              	.L43:
 883 008e 5BB2     		sxtb	r3, r3
 884              		.loc 1 600 0
 885 0090 1846     		mov	r0, r3
 886 0092 07B0     		add	sp, sp, #28
 887 0094 00BD     		pop	{pc}
 888              		.cfi_endproc
 889              	.LFE12:
 890              		.size	etharp_find_addr, .-etharp_find_addr
 891 0096 00BFAFF3 		.section	.text.etharp_arp_input,"ax",%progbits
 891      0080AFF3 
 891      0080
 892              		.align	2
 893              		.p2align 4,,15
 894              		.thumb
 895              		.thumb_func
 896              		.type	etharp_arp_input, %function
 897              	etharp_arp_input:
 898              	.LFB13:
 899              		.loc 1 669 0
 900              		.cfi_startproc
 901              		@ args = 0, pretend = 0, frame = 40
ARM GAS  /tmp/ccLoOG9f.s 			page 17


 902              		@ frame_needed = 0, uses_anonymous_args = 0
 903 0000 00B5     		push	{lr}
 904              	.LCFI12:
 905              		.cfi_def_cfa_offset 4
 906              		.cfi_offset 14, -4
 907 0002 8BB0     		sub	sp, sp, #44
 908              	.LCFI13:
 909              		.cfi_def_cfa_offset 48
 910 0004 0390     		str	r0, [sp, #12]
 911 0006 0291     		str	r1, [sp, #8]
 912 0008 0192     		str	r2, [sp, #4]
 913              		.loc 1 679 0
 914 000a 039B     		ldr	r3, [sp, #12]
 915 000c 002B     		cmp	r3, #0
 916 000e 02D1     		bne	.L45
 917              		.loc 1 679 0 is_stmt 0 discriminator 1
 918 0010 FFF7FEFF 		bl	port_halt
 919 0014 36E1     		b	.L44
 920              	.L45:
 921              		.loc 1 683 0 is_stmt 1
 922 0016 019B     		ldr	r3, [sp, #4]
 923 0018 5B89     		ldrh	r3, [r3, #10]
 924 001a 292B     		cmp	r3, #41
 925 001c 1DD8     		bhi	.L47
 926              		.loc 1 687 0
 927 001e 40F20003 		movw	r3, #:lower16:lwip_stats
 928 0022 C0F20003 		movt	r3, #:upper16:lwip_stats
 929 0026 5B8C     		ldrh	r3, [r3, #34]
 930 0028 03F10103 		add	r3, r3, #1
 931 002c 9AB2     		uxth	r2, r3
 932 002e 40F20003 		movw	r3, #:lower16:lwip_stats
 933 0032 C0F20003 		movt	r3, #:upper16:lwip_stats
 934 0036 5A84     		strh	r2, [r3, #34]	@ movhi
 935              		.loc 1 688 0
 936 0038 40F20003 		movw	r3, #:lower16:lwip_stats
 937 003c C0F20003 		movt	r3, #:upper16:lwip_stats
 938 0040 DB8B     		ldrh	r3, [r3, #30]
 939 0042 03F10103 		add	r3, r3, #1
 940 0046 9AB2     		uxth	r2, r3
 941 0048 40F20003 		movw	r3, #:lower16:lwip_stats
 942 004c C0F20003 		movt	r3, #:upper16:lwip_stats
 943 0050 DA83     		strh	r2, [r3, #30]	@ movhi
 944              		.loc 1 689 0
 945 0052 0198     		ldr	r0, [sp, #4]
 946 0054 FFF7FEFF 		bl	pbuf_free
 947              		.loc 1 690 0
 948 0058 14E1     		b	.L44
 949              	.L47:
 950              		.loc 1 693 0
 951 005a 019B     		ldr	r3, [sp, #4]
 952 005c 5B68     		ldr	r3, [r3, #4]
 953 005e 0893     		str	r3, [sp, #32]
 954              		.loc 1 694 0
 955 0060 089B     		ldr	r3, [sp, #32]
 956 0062 03F10E03 		add	r3, r3, #14
 957 0066 0793     		str	r3, [sp, #28]
 958              		.loc 1 702 0
ARM GAS  /tmp/ccLoOG9f.s 			page 18


 959 0068 079B     		ldr	r3, [sp, #28]
 960 006a 1B88     		ldrh	r3, [r3, #0]	@ unaligned
 961 006c 9BB2     		uxth	r3, r3
 962 006e B3F5807F 		cmp	r3, #256
 963 0072 0CD1     		bne	.L48
 964              		.loc 1 703 0 discriminator 1
 965 0074 079B     		ldr	r3, [sp, #28]
 966 0076 1B79     		ldrb	r3, [r3, #4]	@ zero_extendqisi2
 967              		.loc 1 702 0 discriminator 1
 968 0078 062B     		cmp	r3, #6
 969 007a 08D1     		bne	.L48
 970              		.loc 1 704 0
 971 007c 079B     		ldr	r3, [sp, #28]
 972 007e 5B79     		ldrb	r3, [r3, #5]	@ zero_extendqisi2
 973              		.loc 1 703 0
 974 0080 042B     		cmp	r3, #4
 975 0082 04D1     		bne	.L48
 976              		.loc 1 705 0
 977 0084 079B     		ldr	r3, [sp, #28]
 978 0086 5B88     		ldrh	r3, [r3, #2]	@ unaligned
 979 0088 9BB2     		uxth	r3, r3
 980              		.loc 1 704 0
 981 008a 082B     		cmp	r3, #8
 982 008c 1DD0     		beq	.L49
 983              	.L48:
 984              		.loc 1 709 0
 985 008e 40F20003 		movw	r3, #:lower16:lwip_stats
 986 0092 C0F20003 		movt	r3, #:upper16:lwip_stats
 987 0096 1B8D     		ldrh	r3, [r3, #40]
 988 0098 03F10103 		add	r3, r3, #1
 989 009c 9AB2     		uxth	r2, r3
 990 009e 40F20003 		movw	r3, #:lower16:lwip_stats
 991 00a2 C0F20003 		movt	r3, #:upper16:lwip_stats
 992 00a6 1A85     		strh	r2, [r3, #40]	@ movhi
 993              		.loc 1 710 0
 994 00a8 40F20003 		movw	r3, #:lower16:lwip_stats
 995 00ac C0F20003 		movt	r3, #:upper16:lwip_stats
 996 00b0 DB8B     		ldrh	r3, [r3, #30]
 997 00b2 03F10103 		add	r3, r3, #1
 998 00b6 9AB2     		uxth	r2, r3
 999 00b8 40F20003 		movw	r3, #:lower16:lwip_stats
 1000 00bc C0F20003 		movt	r3, #:upper16:lwip_stats
 1001 00c0 DA83     		strh	r2, [r3, #30]	@ movhi
 1002              		.loc 1 711 0
 1003 00c2 0198     		ldr	r0, [sp, #4]
 1004 00c4 FFF7FEFF 		bl	pbuf_free
 1005              		.loc 1 712 0
 1006 00c8 DCE0     		b	.L44
 1007              	.L49:
 1008              		.loc 1 714 0
 1009 00ca 40F20003 		movw	r3, #:lower16:lwip_stats
 1010 00ce C0F20003 		movt	r3, #:upper16:lwip_stats
 1011 00d2 5B8B     		ldrh	r3, [r3, #26]
 1012 00d4 03F10103 		add	r3, r3, #1
 1013 00d8 9AB2     		uxth	r2, r3
 1014 00da 40F20003 		movw	r3, #:lower16:lwip_stats
 1015 00de C0F20003 		movt	r3, #:upper16:lwip_stats
ARM GAS  /tmp/ccLoOG9f.s 			page 19


 1016 00e2 5A83     		strh	r2, [r3, #26]	@ movhi
 1017              		.loc 1 725 0
 1018 00e4 079B     		ldr	r3, [sp, #28]
 1019 00e6 03F10E03 		add	r3, r3, #14
 1020 00ea 06AA     		add	r2, sp, #24
 1021 00ec 1146     		mov	r1, r2
 1022 00ee 1A46     		mov	r2, r3
 1023 00f0 4FF00403 		mov	r3, #4
 1024 00f4 0846     		mov	r0, r1
 1025 00f6 1146     		mov	r1, r2
 1026 00f8 1A46     		mov	r2, r3
 1027 00fa FFF7FEFF 		bl	memcpy
 1028              		.loc 1 726 0
 1029 00fe 079B     		ldr	r3, [sp, #28]
 1030 0100 03F11803 		add	r3, r3, #24
 1031 0104 05AA     		add	r2, sp, #20
 1032 0106 1146     		mov	r1, r2
 1033 0108 1A46     		mov	r2, r3
 1034 010a 4FF00403 		mov	r3, #4
 1035 010e 0846     		mov	r0, r1
 1036 0110 1146     		mov	r1, r2
 1037 0112 1A46     		mov	r2, r3
 1038 0114 FFF7FEFF 		bl	memcpy
 1039              		.loc 1 729 0
 1040 0118 039B     		ldr	r3, [sp, #12]
 1041 011a 03F10403 		add	r3, r3, #4
 1042 011e 002B     		cmp	r3, #0
 1043 0120 03D0     		beq	.L50
 1044              		.loc 1 729 0 is_stmt 0 discriminator 1
 1045 0122 039B     		ldr	r3, [sp, #12]
 1046 0124 5B68     		ldr	r3, [r3, #4]
 1047 0126 002B     		cmp	r3, #0
 1048 0128 04D1     		bne	.L51
 1049              	.L50:
 1050              		.loc 1 730 0 is_stmt 1
 1051 012a 4FF00003 		mov	r3, #0
 1052 012e 8DF82730 		strb	r3, [sp, #39]
 1053 0132 08E0     		b	.L52
 1054              	.L51:
 1055              		.loc 1 733 0
 1056 0134 059A     		ldr	r2, [sp, #20]
 1057 0136 039B     		ldr	r3, [sp, #12]
 1058 0138 5B68     		ldr	r3, [r3, #4]
 1059 013a 9A42     		cmp	r2, r3
 1060 013c 14BF     		ite	ne
 1061 013e 0023     		movne	r3, #0
 1062 0140 0123     		moveq	r3, #1
 1063 0142 8DF82730 		strb	r3, [sp, #39]
 1064              	.L52:
 1065              		.loc 1 741 0
 1066 0146 079B     		ldr	r3, [sp, #28]
 1067 0148 03F10802 		add	r2, r3, #8
 1068 014c 9DF82730 		ldrb	r3, [sp, #39]	@ zero_extendqisi2
 1069 0150 002B     		cmp	r3, #0
 1070 0152 02D0     		beq	.L53
 1071              		.loc 1 741 0 is_stmt 0 discriminator 1
 1072 0154 4FF00103 		mov	r3, #1
ARM GAS  /tmp/ccLoOG9f.s 			page 20


 1073 0158 01E0     		b	.L54
 1074              	.L53:
 1075              		.loc 1 741 0 discriminator 2
 1076 015a 4FF00203 		mov	r3, #2
 1077              	.L54:
 1078              		.loc 1 741 0 discriminator 3
 1079 015e 06A9     		add	r1, sp, #24
 1080 0160 0398     		ldr	r0, [sp, #12]
 1081 0162 FFF7FEFF 		bl	update_arp_entry
 1082              		.loc 1 745 0 is_stmt 1 discriminator 3
 1083 0166 079B     		ldr	r3, [sp, #28]
 1084 0168 DB88     		ldrh	r3, [r3, #6]	@ unaligned
 1085 016a 9BB2     		uxth	r3, r3
 1086 016c B3F5807F 		cmp	r3, #256
 1087 0170 04D0     		beq	.L56
 1088 0172 B3F5007F 		cmp	r3, #512
 1089 0176 00F08180 		beq	.L63
 1090              		.loc 1 745 0 is_stmt 0
 1091 017a 71E0     		b	.L62
 1092              	.L56:
 1093              		.loc 1 754 0 is_stmt 1
 1094 017c 9DF82730 		ldrb	r3, [sp, #39]	@ zero_extendqisi2
 1095 0180 002B     		cmp	r3, #0
 1096 0182 68D0     		beq	.L58
 1097              		.loc 1 760 0
 1098 0184 4FF00200 		mov	r0, #2
 1099 0188 FFF7FEFF 		bl	lwip_htons
 1100 018c 0346     		mov	r3, r0
 1101 018e 1A46     		mov	r2, r3
 1102 0190 079B     		ldr	r3, [sp, #28]
 1103 0192 DA80     		strh	r2, [r3, #6]	@ unaligned
 1104              		.loc 1 762 0
 1105 0194 079B     		ldr	r3, [sp, #28]
 1106 0196 03F11802 		add	r2, r3, #24
 1107 019a 079B     		ldr	r3, [sp, #28]
 1108 019c 03F10E03 		add	r3, r3, #14
 1109 01a0 1146     		mov	r1, r2
 1110 01a2 1A46     		mov	r2, r3
 1111 01a4 4FF00403 		mov	r3, #4
 1112 01a8 0846     		mov	r0, r1
 1113 01aa 1146     		mov	r1, r2
 1114 01ac 1A46     		mov	r2, r3
 1115 01ae FFF7FEFF 		bl	memcpy
 1116              		.loc 1 763 0
 1117 01b2 079B     		ldr	r3, [sp, #28]
 1118 01b4 03F10E02 		add	r2, r3, #14
 1119 01b8 039B     		ldr	r3, [sp, #12]
 1120 01ba 03F10403 		add	r3, r3, #4
 1121 01be 1146     		mov	r1, r2
 1122 01c0 1A46     		mov	r2, r3
 1123 01c2 4FF00403 		mov	r3, #4
 1124 01c6 0846     		mov	r0, r1
 1125 01c8 1146     		mov	r1, r2
 1126 01ca 1A46     		mov	r2, r3
 1127 01cc FFF7FEFF 		bl	memcpy
 1128              		.loc 1 765 0
 1129 01d0 039B     		ldr	r3, [sp, #12]
ARM GAS  /tmp/ccLoOG9f.s 			page 21


 1130 01d2 93F82230 		ldrb	r3, [r3, #34]	@ zero_extendqisi2
 1131 01d6 062B     		cmp	r3, #6
 1132 01d8 01D0     		beq	.L59
 1133              		.loc 1 765 0 is_stmt 0 discriminator 1
 1134 01da FFF7FEFF 		bl	port_halt
 1135              	.L59:
 1136              		.loc 1 774 0 is_stmt 1
 1137 01de 079B     		ldr	r3, [sp, #28]
 1138 01e0 03F11202 		add	r2, r3, #18
 1139 01e4 079B     		ldr	r3, [sp, #28]
 1140 01e6 03F10803 		add	r3, r3, #8
 1141 01ea 1146     		mov	r1, r2
 1142 01ec 1A46     		mov	r2, r3
 1143 01ee 4FF00603 		mov	r3, #6
 1144 01f2 0846     		mov	r0, r1
 1145 01f4 1146     		mov	r1, r2
 1146 01f6 1A46     		mov	r2, r3
 1147 01f8 FFF7FEFF 		bl	memcpy
 1148              		.loc 1 778 0
 1149 01fc 089A     		ldr	r2, [sp, #32]
 1150 01fe 079B     		ldr	r3, [sp, #28]
 1151 0200 03F10803 		add	r3, r3, #8
 1152 0204 1146     		mov	r1, r2
 1153 0206 1A46     		mov	r2, r3
 1154 0208 4FF00603 		mov	r3, #6
 1155 020c 0846     		mov	r0, r1
 1156 020e 1146     		mov	r1, r2
 1157 0210 1A46     		mov	r2, r3
 1158 0212 FFF7FEFF 		bl	memcpy
 1159              		.loc 1 780 0
 1160 0216 079B     		ldr	r3, [sp, #28]
 1161 0218 03F10802 		add	r2, r3, #8
 1162 021c 029B     		ldr	r3, [sp, #8]
 1163 021e 1146     		mov	r1, r2
 1164 0220 1A46     		mov	r2, r3
 1165 0222 4FF00603 		mov	r3, #6
 1166 0226 0846     		mov	r0, r1
 1167 0228 1146     		mov	r1, r2
 1168 022a 1A46     		mov	r2, r3
 1169 022c FFF7FEFF 		bl	memcpy
 1170              		.loc 1 781 0
 1171 0230 089B     		ldr	r3, [sp, #32]
 1172 0232 03F10602 		add	r2, r3, #6
 1173 0236 029B     		ldr	r3, [sp, #8]
 1174 0238 1146     		mov	r1, r2
 1175 023a 1A46     		mov	r2, r3
 1176 023c 4FF00603 		mov	r3, #6
 1177 0240 0846     		mov	r0, r1
 1178 0242 1146     		mov	r1, r2
 1179 0244 1A46     		mov	r2, r3
 1180 0246 FFF7FEFF 		bl	memcpy
 1181              		.loc 1 787 0
 1182 024a 039B     		ldr	r3, [sp, #12]
 1183 024c 9B69     		ldr	r3, [r3, #24]
 1184 024e 0398     		ldr	r0, [sp, #12]
 1185 0250 0199     		ldr	r1, [sp, #4]
 1186 0252 9847     		blx	r3
ARM GAS  /tmp/ccLoOG9f.s 			page 22


 1187              		.loc 1 797 0
 1188 0254 13E0     		b	.L61
 1189              	.L58:
 1190              		.loc 1 789 0
 1191 0256 039B     		ldr	r3, [sp, #12]
 1192 0258 03F10403 		add	r3, r3, #4
 1193 025c 002B     		cmp	r3, #0
 1194              		.loc 1 797 0
 1195 025e 0EE0     		b	.L61
 1196              	.L62:
 1197              		.loc 1 811 0
 1198 0260 40F20003 		movw	r3, #:lower16:lwip_stats
 1199 0264 C0F20003 		movt	r3, #:upper16:lwip_stats
 1200 0268 9B8D     		ldrh	r3, [r3, #44]
 1201 026a 03F10103 		add	r3, r3, #1
 1202 026e 9AB2     		uxth	r2, r3
 1203 0270 40F20003 		movw	r3, #:lower16:lwip_stats
 1204 0274 C0F20003 		movt	r3, #:upper16:lwip_stats
 1205 0278 9A85     		strh	r2, [r3, #44]	@ movhi
 1206              		.loc 1 812 0
 1207 027a 00E0     		b	.L61
 1208              	.L63:
 1209              		.loc 1 808 0
 1210 027c 00BF     		nop
 1211              	.L61:
 1212              		.loc 1 815 0
 1213 027e 0198     		ldr	r0, [sp, #4]
 1214 0280 FFF7FEFF 		bl	pbuf_free
 1215              	.L44:
 1216              		.loc 1 816 0
 1217 0284 0BB0     		add	sp, sp, #44
 1218 0286 00BD     		pop	{pc}
 1219              		.cfi_endproc
 1220              	.LFE13:
 1221              		.size	etharp_arp_input, .-etharp_arp_input
 1222 0288 AFF30080 		.section	.text.etharp_output,"ax",%progbits
 1222      AFF30080 
 1223              		.align	2
 1224              		.p2align 4,,15
 1225              		.global	etharp_output
 1226              		.thumb
 1227              		.thumb_func
 1228              		.type	etharp_output, %function
 1229              	etharp_output:
 1230              	.LFB14:
 1231              		.loc 1 838 0
 1232              		.cfi_startproc
 1233              		@ args = 0, pretend = 0, frame = 32
 1234              		@ frame_needed = 0, uses_anonymous_args = 0
 1235 0000 00B5     		push	{lr}
 1236              	.LCFI14:
 1237              		.cfi_def_cfa_offset 4
 1238              		.cfi_offset 14, -4
 1239 0002 89B0     		sub	sp, sp, #36
 1240              	.LCFI15:
 1241              		.cfi_def_cfa_offset 40
 1242 0004 0390     		str	r0, [sp, #12]
ARM GAS  /tmp/ccLoOG9f.s 			page 23


 1243 0006 0291     		str	r1, [sp, #8]
 1244 0008 0192     		str	r2, [sp, #4]
 1245              		.loc 1 842 0
 1246 000a 0298     		ldr	r0, [sp, #8]
 1247 000c 4FF00E01 		mov	r1, #14
 1248 0010 FFF7FEFF 		bl	pbuf_header
 1249 0014 0346     		mov	r3, r0
 1250 0016 002B     		cmp	r3, #0
 1251 0018 0FD0     		beq	.L65
 1252              		.loc 1 846 0
 1253 001a 40F20003 		movw	r3, #:lower16:lwip_stats
 1254 001e C0F20003 		movt	r3, #:upper16:lwip_stats
 1255 0022 5B89     		ldrh	r3, [r3, #10]
 1256 0024 03F10103 		add	r3, r3, #1
 1257 0028 9AB2     		uxth	r2, r3
 1258 002a 40F20003 		movw	r3, #:lower16:lwip_stats
 1259 002e C0F20003 		movt	r3, #:upper16:lwip_stats
 1260 0032 5A81     		strh	r2, [r3, #10]	@ movhi
 1261              		.loc 1 847 0
 1262 0034 4FF0FE03 		mov	r3, #254
 1263 0038 B7E0     		b	.L66
 1264              	.L65:
 1265              		.loc 1 851 0
 1266 003a 4FF00003 		mov	r3, #0
 1267 003e 0793     		str	r3, [sp, #28]
 1268              		.loc 1 856 0
 1269 0040 019B     		ldr	r3, [sp, #4]
 1270 0042 1B68     		ldr	r3, [r3, #0]
 1271 0044 1846     		mov	r0, r3
 1272 0046 0399     		ldr	r1, [sp, #12]
 1273 0048 FFF7FEFF 		bl	ip4_addr_isbroadcast
 1274 004c 0346     		mov	r3, r0
 1275 004e 002B     		cmp	r3, #0
 1276 0050 05D0     		beq	.L67
 1277              		.loc 1 858 0
 1278 0052 40F20003 		movw	r3, #:lower16:ethbroadcast
 1279 0056 C0F20003 		movt	r3, #:upper16:ethbroadcast
 1280 005a 0793     		str	r3, [sp, #28]
 1281 005c 9BE0     		b	.L68
 1282              	.L67:
 1283              		.loc 1 860 0
 1284 005e 019B     		ldr	r3, [sp, #4]
 1285 0060 1B68     		ldr	r3, [r3, #0]
 1286 0062 03F0F003 		and	r3, r3, #240
 1287 0066 E02B     		cmp	r3, #224
 1288 0068 1FD1     		bne	.L69
 1289              		.loc 1 862 0
 1290 006a 4FF00103 		mov	r3, #1
 1291 006e 8DF81430 		strb	r3, [sp, #20]
 1292              		.loc 1 863 0
 1293 0072 4FF00003 		mov	r3, #0
 1294 0076 8DF81530 		strb	r3, [sp, #21]
 1295              		.loc 1 864 0
 1296 007a 4FF05E03 		mov	r3, #94
 1297 007e 8DF81630 		strb	r3, [sp, #22]
 1298              		.loc 1 865 0
 1299 0082 019B     		ldr	r3, [sp, #4]
ARM GAS  /tmp/ccLoOG9f.s 			page 24


 1300 0084 03F10103 		add	r3, r3, #1
 1301 0088 1B78     		ldrb	r3, [r3, #0]	@ zero_extendqisi2
 1302 008a 03F07F03 		and	r3, r3, #127
 1303 008e DBB2     		uxtb	r3, r3
 1304 0090 8DF81730 		strb	r3, [sp, #23]
 1305              		.loc 1 866 0
 1306 0094 019B     		ldr	r3, [sp, #4]
 1307 0096 9B78     		ldrb	r3, [r3, #2]	@ zero_extendqisi2
 1308 0098 8DF81830 		strb	r3, [sp, #24]
 1309              		.loc 1 867 0
 1310 009c 019B     		ldr	r3, [sp, #4]
 1311 009e DB78     		ldrb	r3, [r3, #3]	@ zero_extendqisi2
 1312 00a0 8DF81930 		strb	r3, [sp, #25]
 1313              		.loc 1 869 0
 1314 00a4 05AB     		add	r3, sp, #20
 1315 00a6 0793     		str	r3, [sp, #28]
 1316 00a8 75E0     		b	.L68
 1317              	.L69:
 1318              		.loc 1 873 0
 1319 00aa 019B     		ldr	r3, [sp, #4]
 1320 00ac 1A68     		ldr	r2, [r3, #0]
 1321 00ae 039B     		ldr	r3, [sp, #12]
 1322 00b0 5B68     		ldr	r3, [r3, #4]
 1323 00b2 5A40     		eors	r2, r2, r3
 1324 00b4 039B     		ldr	r3, [sp, #12]
 1325 00b6 9B68     		ldr	r3, [r3, #8]
 1326 00b8 1340     		ands	r3, r3, r2
 1327 00ba 002B     		cmp	r3, #0
 1328 00bc 1AD0     		beq	.L70
 1329              		.loc 1 874 0 discriminator 1
 1330 00be 019B     		ldr	r3, [sp, #4]
 1331 00c0 1B68     		ldr	r3, [r3, #0]
 1332 00c2 4FEA0343 		lsl	r3, r3, #16
 1333 00c6 4FEA1343 		lsr	r3, r3, #16
 1334              		.loc 1 873 0 discriminator 1
 1335 00ca 4FF6A962 		movw	r2, #65193
 1336 00ce 9342     		cmp	r3, r2
 1337 00d0 10D0     		beq	.L70
 1338              		.loc 1 886 0
 1339 00d2 039B     		ldr	r3, [sp, #12]
 1340 00d4 03F10C03 		add	r3, r3, #12
 1341 00d8 002B     		cmp	r3, #0
 1342 00da 08D0     		beq	.L71
 1343              		.loc 1 886 0 is_stmt 0 discriminator 1
 1344 00dc 039B     		ldr	r3, [sp, #12]
 1345 00de DB68     		ldr	r3, [r3, #12]
 1346 00e0 002B     		cmp	r3, #0
 1347 00e2 04D0     		beq	.L71
 1348              		.loc 1 888 0 is_stmt 1
 1349 00e4 039B     		ldr	r3, [sp, #12]
 1350 00e6 03F10C03 		add	r3, r3, #12
 1351 00ea 0193     		str	r3, [sp, #4]
 1352 00ec 02E0     		b	.L70
 1353              	.L71:
 1354              		.loc 1 892 0
 1355 00ee 4FF0FC03 		mov	r3, #252
 1356 00f2 5AE0     		b	.L66
ARM GAS  /tmp/ccLoOG9f.s 			page 25


 1357              	.L70:
 1358              		.loc 1 902 0
 1359 00f4 40F20003 		movw	r3, #:lower16:etharp_cached_entry
 1360 00f8 C0F20003 		movt	r3, #:upper16:etharp_cached_entry
 1361 00fc 1B78     		ldrb	r3, [r3, #0]	@ zero_extendqisi2
 1362 00fe 1A46     		mov	r2, r3
 1363 0100 40F20003 		movw	r3, #:lower16:arp_table
 1364 0104 C0F20003 		movt	r3, #:upper16:arp_table
 1365 0108 4FEA0212 		lsl	r2, r2, #4
 1366 010c 9B18     		adds	r3, r3, r2
 1367 010e 03F10803 		add	r3, r3, #8
 1368 0112 9B79     		ldrb	r3, [r3, #6]	@ zero_extendqisi2
 1369 0114 022B     		cmp	r3, #2
 1370 0116 37D1     		bne	.L72
 1371              		.loc 1 903 0 discriminator 1
 1372 0118 019B     		ldr	r3, [sp, #4]
 1373 011a 1A68     		ldr	r2, [r3, #0]
 1374 011c 40F20003 		movw	r3, #:lower16:etharp_cached_entry
 1375 0120 C0F20003 		movt	r3, #:upper16:etharp_cached_entry
 1376 0124 1B78     		ldrb	r3, [r3, #0]	@ zero_extendqisi2
 1377 0126 1946     		mov	r1, r3
 1378 0128 40F20003 		movw	r3, #:lower16:arp_table
 1379 012c C0F20003 		movt	r3, #:upper16:arp_table
 1380 0130 4FEA0111 		lsl	r1, r1, #4
 1381 0134 5B18     		adds	r3, r3, r1
 1382 0136 03F10403 		add	r3, r3, #4
 1383 013a 1B68     		ldr	r3, [r3, #0]
 1384              		.loc 1 902 0 discriminator 1
 1385 013c 9A42     		cmp	r2, r3
 1386 013e 23D1     		bne	.L72
 1387              		.loc 1 905 0
 1388 0140 40F20003 		movw	r3, #:lower16:lwip_stats
 1389 0144 C0F20003 		movt	r3, #:upper16:lwip_stats
 1390 0148 DB8D     		ldrh	r3, [r3, #46]
 1391 014a 03F10103 		add	r3, r3, #1
 1392 014e 9AB2     		uxth	r2, r3
 1393 0150 40F20003 		movw	r3, #:lower16:lwip_stats
 1394 0154 C0F20003 		movt	r3, #:upper16:lwip_stats
 1395 0158 DA85     		strh	r2, [r3, #46]	@ movhi
 1396              		.loc 1 906 0
 1397 015a 039B     		ldr	r3, [sp, #12]
 1398 015c 03F12302 		add	r2, r3, #35
 1399              		.loc 1 907 0
 1400 0160 40F20003 		movw	r3, #:lower16:etharp_cached_entry
 1401 0164 C0F20003 		movt	r3, #:upper16:etharp_cached_entry
 1402 0168 1B78     		ldrb	r3, [r3, #0]	@ zero_extendqisi2
 1403              		.loc 1 906 0
 1404 016a 4FEA0313 		lsl	r3, r3, #4
 1405 016e 03F10801 		add	r1, r3, #8
 1406 0172 40F20003 		movw	r3, #:lower16:arp_table
 1407 0176 C0F20003 		movt	r3, #:upper16:arp_table
 1408 017a CB18     		adds	r3, r1, r3
 1409 017c 0398     		ldr	r0, [sp, #12]
 1410 017e 0299     		ldr	r1, [sp, #8]
 1411 0180 FFF7FEFF 		bl	etharp_send_ip
 1412 0184 0346     		mov	r3, r0
 1413 0186 10E0     		b	.L66
ARM GAS  /tmp/ccLoOG9f.s 			page 26


 1414              	.L72:
 1415              		.loc 1 914 0
 1416 0188 0398     		ldr	r0, [sp, #12]
 1417 018a 0199     		ldr	r1, [sp, #4]
 1418 018c 029A     		ldr	r2, [sp, #8]
 1419 018e FFF7FEFF 		bl	etharp_query
 1420 0192 0346     		mov	r3, r0
 1421 0194 09E0     		b	.L66
 1422              	.L68:
 1423              		.loc 1 920 0
 1424 0196 039B     		ldr	r3, [sp, #12]
 1425 0198 03F12303 		add	r3, r3, #35
 1426 019c 0398     		ldr	r0, [sp, #12]
 1427 019e 0299     		ldr	r1, [sp, #8]
 1428 01a0 1A46     		mov	r2, r3
 1429 01a2 079B     		ldr	r3, [sp, #28]
 1430 01a4 FFF7FEFF 		bl	etharp_send_ip
 1431 01a8 0346     		mov	r3, r0
 1432              	.L66:
 1433 01aa 5BB2     		sxtb	r3, r3
 1434              		.loc 1 921 0
 1435 01ac 1846     		mov	r0, r3
 1436 01ae 09B0     		add	sp, sp, #36
 1437 01b0 00BD     		pop	{pc}
 1438              		.cfi_endproc
 1439              	.LFE14:
 1440              		.size	etharp_output, .-etharp_output
 1441 01b2 00BFAFF3 		.section	.text.etharp_query,"ax",%progbits
 1441      0080AFF3 
 1441      0080AFF3 
 1441      0080
 1442              		.align	2
 1443              		.p2align 4,,15
 1444              		.global	etharp_query
 1445              		.thumb
 1446              		.thumb_func
 1447              		.type	etharp_query, %function
 1448              	etharp_query:
 1449              	.LFB15:
 1450              		.loc 1 958 0
 1451              		.cfi_startproc
 1452              		@ args = 0, pretend = 0, frame = 40
 1453              		@ frame_needed = 0, uses_anonymous_args = 0
 1454 0000 00B5     		push	{lr}
 1455              	.LCFI16:
 1456              		.cfi_def_cfa_offset 4
 1457              		.cfi_offset 14, -4
 1458 0002 8BB0     		sub	sp, sp, #44
 1459              	.LCFI17:
 1460              		.cfi_def_cfa_offset 48
 1461 0004 0390     		str	r0, [sp, #12]
 1462 0006 0291     		str	r1, [sp, #8]
 1463 0008 0192     		str	r2, [sp, #4]
 1464              		.loc 1 959 0
 1465 000a 039B     		ldr	r3, [sp, #12]
 1466 000c 03F12303 		add	r3, r3, #35
 1467 0010 0693     		str	r3, [sp, #24]
ARM GAS  /tmp/ccLoOG9f.s 			page 27


 1468              		.loc 1 960 0
 1469 0012 4FF0FF03 		mov	r3, #255
 1470 0016 8DF82730 		strb	r3, [sp, #39]
 1471              		.loc 1 964 0
 1472 001a 029B     		ldr	r3, [sp, #8]
 1473 001c 1B68     		ldr	r3, [r3, #0]
 1474 001e 1846     		mov	r0, r3
 1475 0020 0399     		ldr	r1, [sp, #12]
 1476 0022 FFF7FEFF 		bl	ip4_addr_isbroadcast
 1477 0026 0346     		mov	r3, r0
 1478 0028 002B     		cmp	r3, #0
 1479 002a 0CD1     		bne	.L74
 1480              		.loc 1 965 0 discriminator 1
 1481 002c 029B     		ldr	r3, [sp, #8]
 1482 002e 1B68     		ldr	r3, [r3, #0]
 1483 0030 03F0F003 		and	r3, r3, #240
 1484              		.loc 1 964 0 discriminator 1
 1485 0034 E02B     		cmp	r3, #224
 1486 0036 06D0     		beq	.L74
 1487              		.loc 1 965 0
 1488 0038 029B     		ldr	r3, [sp, #8]
 1489 003a 002B     		cmp	r3, #0
 1490 003c 03D0     		beq	.L74
 1491              		.loc 1 966 0
 1492 003e 029B     		ldr	r3, [sp, #8]
 1493 0040 1B68     		ldr	r3, [r3, #0]
 1494 0042 002B     		cmp	r3, #0
 1495 0044 02D1     		bne	.L75
 1496              	.L74:
 1497              		.loc 1 968 0
 1498 0046 4FF0F203 		mov	r3, #242
 1499 004a 36E1     		b	.L76
 1500              	.L75:
 1501              		.loc 1 972 0
 1502 004c 0298     		ldr	r0, [sp, #8]
 1503 004e 4FF00101 		mov	r1, #1
 1504 0052 FFF7FEFF 		bl	find_entry
 1505 0056 0346     		mov	r3, r0
 1506 0058 8DF81730 		strb	r3, [sp, #23]
 1507              		.loc 1 975 0
 1508 005c 9DF91730 		ldrsb	r3, [sp, #23]
 1509 0060 002B     		cmp	r3, #0
 1510 0062 12DA     		bge	.L77
 1511              		.loc 1 977 0
 1512 0064 019B     		ldr	r3, [sp, #4]
 1513 0066 002B     		cmp	r3, #0
 1514 0068 0CD0     		beq	.L78
 1515              		.loc 1 979 0
 1516 006a 40F20003 		movw	r3, #:lower16:lwip_stats
 1517 006e C0F20003 		movt	r3, #:upper16:lwip_stats
 1518 0072 9B8C     		ldrh	r3, [r3, #36]
 1519 0074 03F10103 		add	r3, r3, #1
 1520 0078 9AB2     		uxth	r2, r3
 1521 007a 40F20003 		movw	r3, #:lower16:lwip_stats
 1522 007e C0F20003 		movt	r3, #:upper16:lwip_stats
 1523 0082 9A84     		strh	r2, [r3, #36]	@ movhi
 1524              	.L78:
ARM GAS  /tmp/ccLoOG9f.s 			page 28


 1525              		.loc 1 981 0
 1526 0084 9DF81730 		ldrb	r3, [sp, #23]	@ zero_extendqisi2
 1527 0088 17E1     		b	.L76
 1528              	.L77:
 1529              		.loc 1 985 0
 1530 008a 9DF91720 		ldrsb	r2, [sp, #23]
 1531 008e 40F20003 		movw	r3, #:lower16:arp_table
 1532 0092 C0F20003 		movt	r3, #:upper16:arp_table
 1533 0096 4FEA0212 		lsl	r2, r2, #4
 1534 009a 9B18     		adds	r3, r3, r2
 1535 009c 03F10803 		add	r3, r3, #8
 1536 00a0 9B79     		ldrb	r3, [r3, #6]	@ zero_extendqisi2
 1537 00a2 002B     		cmp	r3, #0
 1538 00a4 0DD1     		bne	.L79
 1539              		.loc 1 986 0
 1540 00a6 9DF91720 		ldrsb	r2, [sp, #23]
 1541 00aa 40F20003 		movw	r3, #:lower16:arp_table
 1542 00ae C0F20003 		movt	r3, #:upper16:arp_table
 1543 00b2 4FEA0212 		lsl	r2, r2, #4
 1544 00b6 9B18     		adds	r3, r3, r2
 1545 00b8 03F10803 		add	r3, r3, #8
 1546 00bc 4FF00102 		mov	r2, #1
 1547 00c0 9A71     		strb	r2, [r3, #6]
 1548              	.L79:
 1549              		.loc 1 990 0
 1550 00c2 9DF91720 		ldrsb	r2, [sp, #23]
 1551 00c6 40F20003 		movw	r3, #:lower16:arp_table
 1552 00ca C0F20003 		movt	r3, #:upper16:arp_table
 1553 00ce 4FEA0212 		lsl	r2, r2, #4
 1554 00d2 9B18     		adds	r3, r3, r2
 1555 00d4 03F10803 		add	r3, r3, #8
 1556 00d8 9B79     		ldrb	r3, [r3, #6]	@ zero_extendqisi2
 1557 00da 012B     		cmp	r3, #1
 1558 00dc 0FD0     		beq	.L80
 1559              		.loc 1 990 0 is_stmt 0 discriminator 1
 1560 00de 9DF91720 		ldrsb	r2, [sp, #23]
 1561 00e2 40F20003 		movw	r3, #:lower16:arp_table
 1562 00e6 C0F20003 		movt	r3, #:upper16:arp_table
 1563 00ea 4FEA0212 		lsl	r2, r2, #4
 1564 00ee 9B18     		adds	r3, r3, r2
 1565 00f0 03F10803 		add	r3, r3, #8
 1566 00f4 9B79     		ldrb	r3, [r3, #6]	@ zero_extendqisi2
 1567 00f6 022B     		cmp	r3, #2
 1568 00f8 01D0     		beq	.L80
 1569              		.loc 1 990 0 discriminator 2
 1570 00fa FFF7FEFF 		bl	port_halt
 1571              	.L80:
 1572              		.loc 1 995 0 is_stmt 1
 1573 00fe 9DF91720 		ldrsb	r2, [sp, #23]
 1574 0102 40F20003 		movw	r3, #:lower16:arp_table
 1575 0106 C0F20003 		movt	r3, #:upper16:arp_table
 1576 010a 4FEA0212 		lsl	r2, r2, #4
 1577 010e 9B18     		adds	r3, r3, r2
 1578 0110 03F10803 		add	r3, r3, #8
 1579 0114 9B79     		ldrb	r3, [r3, #6]	@ zero_extendqisi2
 1580 0116 012B     		cmp	r3, #1
 1581 0118 02D0     		beq	.L81
ARM GAS  /tmp/ccLoOG9f.s 			page 29


 1582              		.loc 1 995 0 is_stmt 0 discriminator 1
 1583 011a 019B     		ldr	r3, [sp, #4]
 1584 011c 002B     		cmp	r3, #0
 1585 011e 0CD1     		bne	.L82
 1586              	.L81:
 1587              		.loc 1 997 0 is_stmt 1
 1588 0120 0398     		ldr	r0, [sp, #12]
 1589 0122 0299     		ldr	r1, [sp, #8]
 1590 0124 FFF7FEFF 		bl	etharp_request
 1591 0128 0346     		mov	r3, r0
 1592 012a 8DF82730 		strb	r3, [sp, #39]
 1593              		.loc 1 1004 0
 1594 012e 019B     		ldr	r3, [sp, #4]
 1595 0130 002B     		cmp	r3, #0
 1596 0132 02D1     		bne	.L82
 1597              		.loc 1 1005 0
 1598 0134 9DF82730 		ldrb	r3, [sp, #39]	@ zero_extendqisi2
 1599 0138 BFE0     		b	.L76
 1600              	.L82:
 1601              		.loc 1 1010 0
 1602 013a 019B     		ldr	r3, [sp, #4]
 1603 013c 002B     		cmp	r3, #0
 1604 013e 01D1     		bne	.L83
 1605              		.loc 1 1010 0 is_stmt 0 discriminator 1
 1606 0140 FFF7FEFF 		bl	port_halt
 1607              	.L83:
 1608              		.loc 1 1012 0 is_stmt 1
 1609 0144 9DF91720 		ldrsb	r2, [sp, #23]
 1610 0148 40F20003 		movw	r3, #:lower16:arp_table
 1611 014c C0F20003 		movt	r3, #:upper16:arp_table
 1612 0150 4FEA0212 		lsl	r2, r2, #4
 1613 0154 9B18     		adds	r3, r3, r2
 1614 0156 03F10803 		add	r3, r3, #8
 1615 015a 9B79     		ldrb	r3, [r3, #6]	@ zero_extendqisi2
 1616 015c 022B     		cmp	r3, #2
 1617 015e 1AD1     		bne	.L84
 1618              		.loc 1 1014 0
 1619 0160 9DF81720 		ldrb	r2, [sp, #23]	@ zero_extendqisi2
 1620 0164 40F20003 		movw	r3, #:lower16:etharp_cached_entry
 1621 0168 C0F20003 		movt	r3, #:upper16:etharp_cached_entry
 1622 016c 1A70     		strb	r2, [r3, #0]
 1623              		.loc 1 1016 0
 1624 016e 9DF91730 		ldrsb	r3, [sp, #23]
 1625 0172 4FEA0313 		lsl	r3, r3, #4
 1626 0176 03F10802 		add	r2, r3, #8
 1627 017a 40F20003 		movw	r3, #:lower16:arp_table
 1628 017e C0F20003 		movt	r3, #:upper16:arp_table
 1629 0182 D318     		adds	r3, r2, r3
 1630 0184 0398     		ldr	r0, [sp, #12]
 1631 0186 0199     		ldr	r1, [sp, #4]
 1632 0188 069A     		ldr	r2, [sp, #24]
 1633 018a FFF7FEFF 		bl	etharp_send_ip
 1634 018e 0346     		mov	r3, r0
 1635 0190 8DF82730 		strb	r3, [sp, #39]
 1636 0194 8FE0     		b	.L85
 1637              	.L84:
 1638              		.loc 1 1018 0
ARM GAS  /tmp/ccLoOG9f.s 			page 30


 1639 0196 9DF91720 		ldrsb	r2, [sp, #23]
 1640 019a 40F20003 		movw	r3, #:lower16:arp_table
 1641 019e C0F20003 		movt	r3, #:upper16:arp_table
 1642 01a2 4FEA0212 		lsl	r2, r2, #4
 1643 01a6 9B18     		adds	r3, r3, r2
 1644 01a8 03F10803 		add	r3, r3, #8
 1645 01ac 9B79     		ldrb	r3, [r3, #6]	@ zero_extendqisi2
 1646 01ae 012B     		cmp	r3, #1
 1647 01b0 40F08180 		bne	.L85
 1648              	.LBB5:
 1649              		.loc 1 1021 0
 1650 01b4 4FF00003 		mov	r3, #0
 1651 01b8 0793     		str	r3, [sp, #28]
 1652              		.loc 1 1025 0
 1653 01ba 019B     		ldr	r3, [sp, #4]
 1654 01bc 0893     		str	r3, [sp, #32]
 1655              		.loc 1 1026 0
 1656 01be 16E0     		b	.L86
 1657              	.L90:
 1658              		.loc 1 1027 0
 1659 01c0 089B     		ldr	r3, [sp, #32]
 1660 01c2 5A89     		ldrh	r2, [r3, #10]
 1661 01c4 089B     		ldr	r3, [sp, #32]
 1662 01c6 1B89     		ldrh	r3, [r3, #8]
 1663 01c8 9A42     		cmp	r2, r3
 1664 01ca 05D1     		bne	.L87
 1665              		.loc 1 1027 0 is_stmt 0 discriminator 1
 1666 01cc 089B     		ldr	r3, [sp, #32]
 1667 01ce 1B68     		ldr	r3, [r3, #0]
 1668 01d0 002B     		cmp	r3, #0
 1669 01d2 01D0     		beq	.L87
 1670              		.loc 1 1027 0 discriminator 2
 1671 01d4 FFF7FEFF 		bl	port_halt
 1672              	.L87:
 1673              		.loc 1 1028 0 is_stmt 1
 1674 01d8 089B     		ldr	r3, [sp, #32]
 1675 01da 1B7B     		ldrb	r3, [r3, #12]	@ zero_extendqisi2
 1676 01dc 012B     		cmp	r3, #1
 1677 01de 03D0     		beq	.L88
 1678              		.loc 1 1029 0
 1679 01e0 4FF00103 		mov	r3, #1
 1680 01e4 0793     		str	r3, [sp, #28]
 1681              		.loc 1 1030 0
 1682 01e6 05E0     		b	.L89
 1683              	.L88:
 1684              		.loc 1 1032 0
 1685 01e8 089B     		ldr	r3, [sp, #32]
 1686 01ea 1B68     		ldr	r3, [r3, #0]
 1687 01ec 0893     		str	r3, [sp, #32]
 1688              	.L86:
 1689              		.loc 1 1026 0 discriminator 1
 1690 01ee 089B     		ldr	r3, [sp, #32]
 1691 01f0 002B     		cmp	r3, #0
 1692 01f2 E5D1     		bne	.L90
 1693              	.L89:
 1694              		.loc 1 1034 0
 1695 01f4 079B     		ldr	r3, [sp, #28]
ARM GAS  /tmp/ccLoOG9f.s 			page 31


 1696 01f6 002B     		cmp	r3, #0
 1697 01f8 1BD0     		beq	.L91
 1698              		.loc 1 1036 0
 1699 01fa 089B     		ldr	r3, [sp, #32]
 1700 01fc 1B89     		ldrh	r3, [r3, #8]
 1701 01fe 4FF00300 		mov	r0, #3
 1702 0202 1946     		mov	r1, r3
 1703 0204 4FF00002 		mov	r2, #0
 1704 0208 FFF7FEFF 		bl	pbuf_alloc
 1705 020c 0346     		mov	r3, r0
 1706 020e 0893     		str	r3, [sp, #32]
 1707              		.loc 1 1037 0
 1708 0210 089B     		ldr	r3, [sp, #32]
 1709 0212 002B     		cmp	r3, #0
 1710 0214 12D0     		beq	.L92
 1711              		.loc 1 1038 0
 1712 0216 0898     		ldr	r0, [sp, #32]
 1713 0218 0199     		ldr	r1, [sp, #4]
 1714 021a FFF7FEFF 		bl	pbuf_copy
 1715 021e 0346     		mov	r3, r0
 1716 0220 002B     		cmp	r3, #0
 1717 0222 0BD0     		beq	.L92
 1718              		.loc 1 1039 0
 1719 0224 0898     		ldr	r0, [sp, #32]
 1720 0226 FFF7FEFF 		bl	pbuf_free
 1721              		.loc 1 1040 0
 1722 022a 4FF00003 		mov	r3, #0
 1723 022e 0893     		str	r3, [sp, #32]
 1724 0230 04E0     		b	.L92
 1725              	.L91:
 1726              		.loc 1 1045 0
 1727 0232 019B     		ldr	r3, [sp, #4]
 1728 0234 0893     		str	r3, [sp, #32]
 1729              		.loc 1 1046 0
 1730 0236 0898     		ldr	r0, [sp, #32]
 1731 0238 FFF7FEFF 		bl	pbuf_ref
 1732              	.L92:
 1733              		.loc 1 1049 0
 1734 023c 089B     		ldr	r3, [sp, #32]
 1735 023e 002B     		cmp	r3, #0
 1736 0240 28D0     		beq	.L93
 1737              		.loc 1 1080 0
 1738 0242 9DF91720 		ldrsb	r2, [sp, #23]
 1739 0246 40F20003 		movw	r3, #:lower16:arp_table
 1740 024a C0F20003 		movt	r3, #:upper16:arp_table
 1741 024e 4FEA0212 		lsl	r2, r2, #4
 1742 0252 9B18     		adds	r3, r3, r2
 1743 0254 1B68     		ldr	r3, [r3, #0]
 1744 0256 002B     		cmp	r3, #0
 1745 0258 0CD0     		beq	.L94
 1746              		.loc 1 1082 0
 1747 025a 9DF91720 		ldrsb	r2, [sp, #23]
 1748 025e 40F20003 		movw	r3, #:lower16:arp_table
 1749 0262 C0F20003 		movt	r3, #:upper16:arp_table
 1750 0266 4FEA0212 		lsl	r2, r2, #4
 1751 026a 9B18     		adds	r3, r3, r2
 1752 026c 1B68     		ldr	r3, [r3, #0]
ARM GAS  /tmp/ccLoOG9f.s 			page 32


 1753 026e 1846     		mov	r0, r3
 1754 0270 FFF7FEFF 		bl	pbuf_free
 1755              	.L94:
 1756              		.loc 1 1084 0
 1757 0274 9DF91720 		ldrsb	r2, [sp, #23]
 1758 0278 40F20003 		movw	r3, #:lower16:arp_table
 1759 027c C0F20003 		movt	r3, #:upper16:arp_table
 1760 0280 4FEA0212 		lsl	r2, r2, #4
 1761 0284 9B18     		adds	r3, r3, r2
 1762 0286 089A     		ldr	r2, [sp, #32]
 1763 0288 1A60     		str	r2, [r3, #0]
 1764              		.loc 1 1085 0
 1765 028a 4FF00003 		mov	r3, #0
 1766 028e 8DF82730 		strb	r3, [sp, #39]
 1767 0292 10E0     		b	.L85
 1768              	.L93:
 1769              		.loc 1 1089 0
 1770 0294 40F20003 		movw	r3, #:lower16:lwip_stats
 1771 0298 C0F20003 		movt	r3, #:upper16:lwip_stats
 1772 029c 9B8C     		ldrh	r3, [r3, #36]
 1773 029e 03F10103 		add	r3, r3, #1
 1774 02a2 9AB2     		uxth	r2, r3
 1775 02a4 40F20003 		movw	r3, #:lower16:lwip_stats
 1776 02a8 C0F20003 		movt	r3, #:upper16:lwip_stats
 1777 02ac 9A84     		strh	r2, [r3, #36]	@ movhi
 1778              		.loc 1 1091 0
 1779 02ae 4FF0FF03 		mov	r3, #255
 1780 02b2 8DF82730 		strb	r3, [sp, #39]
 1781              	.L85:
 1782              	.LBE5:
 1783              		.loc 1 1094 0
 1784 02b6 9DF82730 		ldrb	r3, [sp, #39]	@ zero_extendqisi2
 1785              	.L76:
 1786 02ba 5BB2     		sxtb	r3, r3
 1787              		.loc 1 1095 0
 1788 02bc 1846     		mov	r0, r3
 1789 02be 0BB0     		add	sp, sp, #44
 1790 02c0 00BD     		pop	{pc}
 1791              		.cfi_endproc
 1792              	.LFE15:
 1793              		.size	etharp_query, .-etharp_query
 1794 02c2 00BFAFF3 		.section	.text.etharp_raw,"ax",%progbits
 1794      0080AFF3 
 1794      0080AFF3 
 1794      0080
 1795              		.align	2
 1796              		.p2align 4,,15
 1797              		.thumb
 1798              		.thumb_func
 1799              		.type	etharp_raw, %function
 1800              	etharp_raw:
 1801              	.LFB16:
 1802              		.loc 1 1121 0
 1803              		.cfi_startproc
 1804              		@ args = 16, pretend = 0, frame = 32
 1805              		@ frame_needed = 0, uses_anonymous_args = 0
 1806 0000 00B5     		push	{lr}
ARM GAS  /tmp/ccLoOG9f.s 			page 33


 1807              	.LCFI18:
 1808              		.cfi_def_cfa_offset 4
 1809              		.cfi_offset 14, -4
 1810 0002 89B0     		sub	sp, sp, #36
 1811              	.LCFI19:
 1812              		.cfi_def_cfa_offset 40
 1813 0004 0390     		str	r0, [sp, #12]
 1814 0006 0291     		str	r1, [sp, #8]
 1815 0008 0192     		str	r2, [sp, #4]
 1816 000a 0093     		str	r3, [sp, #0]
 1817              		.loc 1 1123 0
 1818 000c 4FF00003 		mov	r3, #0
 1819 0010 8DF81F30 		strb	r3, [sp, #31]
 1820              		.loc 1 1131 0
 1821 0014 4FF00300 		mov	r0, #3
 1822 0018 4FF02A01 		mov	r1, #42
 1823 001c 4FF00002 		mov	r2, #0
 1824 0020 FFF7FEFF 		bl	pbuf_alloc
 1825 0024 0346     		mov	r3, r0
 1826 0026 0693     		str	r3, [sp, #24]
 1827              		.loc 1 1133 0
 1828 0028 069B     		ldr	r3, [sp, #24]
 1829 002a 002B     		cmp	r3, #0
 1830 002c 0FD1     		bne	.L96
 1831              		.loc 1 1136 0
 1832 002e 40F20003 		movw	r3, #:lower16:lwip_stats
 1833 0032 C0F20003 		movt	r3, #:upper16:lwip_stats
 1834 0036 9B8C     		ldrh	r3, [r3, #36]
 1835 0038 03F10103 		add	r3, r3, #1
 1836 003c 9AB2     		uxth	r2, r3
 1837 003e 40F20003 		movw	r3, #:lower16:lwip_stats
 1838 0042 C0F20003 		movt	r3, #:upper16:lwip_stats
 1839 0046 9A84     		strh	r2, [r3, #36]	@ movhi
 1840              		.loc 1 1137 0
 1841 0048 4FF0FF03 		mov	r3, #255
 1842 004c AAE0     		b	.L97
 1843              	.L96:
 1844              		.loc 1 1139 0
 1845 004e 069B     		ldr	r3, [sp, #24]
 1846 0050 5B89     		ldrh	r3, [r3, #10]
 1847 0052 292B     		cmp	r3, #41
 1848 0054 01D8     		bhi	.L98
 1849              		.loc 1 1139 0 is_stmt 0 discriminator 1
 1850 0056 FFF7FEFF 		bl	port_halt
 1851              	.L98:
 1852              		.loc 1 1142 0 is_stmt 1
 1853 005a 069B     		ldr	r3, [sp, #24]
 1854 005c 5B68     		ldr	r3, [r3, #4]
 1855 005e 0593     		str	r3, [sp, #20]
 1856              		.loc 1 1143 0
 1857 0060 059B     		ldr	r3, [sp, #20]
 1858 0062 03F10E03 		add	r3, r3, #14
 1859 0066 0493     		str	r3, [sp, #16]
 1860              		.loc 1 1145 0
 1861 0068 BDF83430 		ldrh	r3, [sp, #52]
 1862 006c 1846     		mov	r0, r3
 1863 006e FFF7FEFF 		bl	lwip_htons
ARM GAS  /tmp/ccLoOG9f.s 			page 34


 1864 0072 0346     		mov	r3, r0
 1865 0074 1A46     		mov	r2, r3
 1866 0076 049B     		ldr	r3, [sp, #16]
 1867 0078 DA80     		strh	r2, [r3, #6]	@ unaligned
 1868              		.loc 1 1147 0
 1869 007a 039B     		ldr	r3, [sp, #12]
 1870 007c 93F82230 		ldrb	r3, [r3, #34]	@ zero_extendqisi2
 1871 0080 062B     		cmp	r3, #6
 1872 0082 01D0     		beq	.L99
 1873              		.loc 1 1147 0 is_stmt 0 discriminator 1
 1874 0084 FFF7FEFF 		bl	port_halt
 1875              	.L99:
 1876              		.loc 1 1156 0 is_stmt 1
 1877 0088 049B     		ldr	r3, [sp, #16]
 1878 008a 03F10802 		add	r2, r3, #8
 1879 008e 009B     		ldr	r3, [sp, #0]
 1880 0090 1146     		mov	r1, r2
 1881 0092 1A46     		mov	r2, r3
 1882 0094 4FF00603 		mov	r3, #6
 1883 0098 0846     		mov	r0, r1
 1884 009a 1146     		mov	r1, r2
 1885 009c 1A46     		mov	r2, r3
 1886 009e FFF7FEFF 		bl	memcpy
 1887              		.loc 1 1157 0
 1888 00a2 049B     		ldr	r3, [sp, #16]
 1889 00a4 03F11202 		add	r2, r3, #18
 1890 00a8 0B9B     		ldr	r3, [sp, #44]
 1891 00aa 1146     		mov	r1, r2
 1892 00ac 1A46     		mov	r2, r3
 1893 00ae 4FF00603 		mov	r3, #6
 1894 00b2 0846     		mov	r0, r1
 1895 00b4 1146     		mov	r1, r2
 1896 00b6 1A46     		mov	r2, r3
 1897 00b8 FFF7FEFF 		bl	memcpy
 1898              		.loc 1 1162 0
 1899 00bc 059A     		ldr	r2, [sp, #20]
 1900 00be 019B     		ldr	r3, [sp, #4]
 1901 00c0 1146     		mov	r1, r2
 1902 00c2 1A46     		mov	r2, r3
 1903 00c4 4FF00603 		mov	r3, #6
 1904 00c8 0846     		mov	r0, r1
 1905 00ca 1146     		mov	r1, r2
 1906 00cc 1A46     		mov	r2, r3
 1907 00ce FFF7FEFF 		bl	memcpy
 1908              		.loc 1 1164 0
 1909 00d2 059B     		ldr	r3, [sp, #20]
 1910 00d4 03F10602 		add	r2, r3, #6
 1911 00d8 029B     		ldr	r3, [sp, #8]
 1912 00da 1146     		mov	r1, r2
 1913 00dc 1A46     		mov	r2, r3
 1914 00de 4FF00603 		mov	r3, #6
 1915 00e2 0846     		mov	r0, r1
 1916 00e4 1146     		mov	r1, r2
 1917 00e6 1A46     		mov	r2, r3
 1918 00e8 FFF7FEFF 		bl	memcpy
 1919              		.loc 1 1167 0
 1920 00ec 049B     		ldr	r3, [sp, #16]
ARM GAS  /tmp/ccLoOG9f.s 			page 35


 1921 00ee 03F10E02 		add	r2, r3, #14
 1922 00f2 0A9B     		ldr	r3, [sp, #40]
 1923 00f4 1146     		mov	r1, r2
 1924 00f6 1A46     		mov	r2, r3
 1925 00f8 4FF00403 		mov	r3, #4
 1926 00fc 0846     		mov	r0, r1
 1927 00fe 1146     		mov	r1, r2
 1928 0100 1A46     		mov	r2, r3
 1929 0102 FFF7FEFF 		bl	memcpy
 1930              		.loc 1 1168 0
 1931 0106 049B     		ldr	r3, [sp, #16]
 1932 0108 03F11802 		add	r2, r3, #24
 1933 010c 0C9B     		ldr	r3, [sp, #48]
 1934 010e 1146     		mov	r1, r2
 1935 0110 1A46     		mov	r2, r3
 1936 0112 4FF00403 		mov	r3, #4
 1937 0116 0846     		mov	r0, r1
 1938 0118 1146     		mov	r1, r2
 1939 011a 1A46     		mov	r2, r3
 1940 011c FFF7FEFF 		bl	memcpy
 1941              		.loc 1 1170 0
 1942 0120 049B     		ldr	r3, [sp, #16]
 1943 0122 4FF00002 		mov	r2, #0
 1944 0126 1A70     		strb	r2, [r3, #0]
 1945 0128 4FF00002 		mov	r2, #0
 1946 012c 42F00102 		orr	r2, r2, #1
 1947 0130 5A70     		strb	r2, [r3, #1]
 1948              		.loc 1 1171 0
 1949 0132 049B     		ldr	r3, [sp, #16]
 1950 0134 4FF00002 		mov	r2, #0
 1951 0138 42F00802 		orr	r2, r2, #8
 1952 013c 9A70     		strb	r2, [r3, #2]
 1953 013e 4FF00002 		mov	r2, #0
 1954 0142 DA70     		strb	r2, [r3, #3]
 1955              		.loc 1 1173 0
 1956 0144 049B     		ldr	r3, [sp, #16]
 1957 0146 4FF00602 		mov	r2, #6
 1958 014a 1A71     		strb	r2, [r3, #4]
 1959              		.loc 1 1174 0
 1960 014c 049B     		ldr	r3, [sp, #16]
 1961 014e 4FF00402 		mov	r2, #4
 1962 0152 5A71     		strb	r2, [r3, #5]
 1963              		.loc 1 1176 0
 1964 0154 059B     		ldr	r3, [sp, #20]
 1965 0156 4FF00002 		mov	r2, #0
 1966 015a 42F00802 		orr	r2, r2, #8
 1967 015e 1A73     		strb	r2, [r3, #12]
 1968 0160 4FF00002 		mov	r2, #0
 1969 0164 42F00602 		orr	r2, r2, #6
 1970 0168 5A73     		strb	r2, [r3, #13]
 1971              		.loc 1 1178 0
 1972 016a 039B     		ldr	r3, [sp, #12]
 1973 016c 9B69     		ldr	r3, [r3, #24]
 1974 016e 0398     		ldr	r0, [sp, #12]
 1975 0170 0699     		ldr	r1, [sp, #24]
 1976 0172 9847     		blx	r3
 1977 0174 0346     		mov	r3, r0
ARM GAS  /tmp/ccLoOG9f.s 			page 36


 1978 0176 8DF81F30 		strb	r3, [sp, #31]
 1979              		.loc 1 1179 0
 1980 017a 40F20003 		movw	r3, #:lower16:lwip_stats
 1981 017e C0F20003 		movt	r3, #:upper16:lwip_stats
 1982 0182 1B8B     		ldrh	r3, [r3, #24]
 1983 0184 03F10103 		add	r3, r3, #1
 1984 0188 9AB2     		uxth	r2, r3
 1985 018a 40F20003 		movw	r3, #:lower16:lwip_stats
 1986 018e C0F20003 		movt	r3, #:upper16:lwip_stats
 1987 0192 1A83     		strh	r2, [r3, #24]	@ movhi
 1988              		.loc 1 1181 0
 1989 0194 0698     		ldr	r0, [sp, #24]
 1990 0196 FFF7FEFF 		bl	pbuf_free
 1991              		.loc 1 1182 0
 1992 019a 4FF00003 		mov	r3, #0
 1993 019e 0693     		str	r3, [sp, #24]
 1994              		.loc 1 1185 0
 1995 01a0 9DF81F30 		ldrb	r3, [sp, #31]	@ zero_extendqisi2
 1996              	.L97:
 1997 01a4 5BB2     		sxtb	r3, r3
 1998              		.loc 1 1186 0
 1999 01a6 1846     		mov	r0, r3
 2000 01a8 09B0     		add	sp, sp, #36
 2001 01aa 00BD     		pop	{pc}
 2002              		.cfi_endproc
 2003              	.LFE16:
 2004              		.size	etharp_raw, .-etharp_raw
 2005 01ac AFF30080 		.section	.text.etharp_request,"ax",%progbits
 2006              		.align	2
 2007              		.p2align 4,,15
 2008              		.global	etharp_request
 2009              		.thumb
 2010              		.thumb_func
 2011              		.type	etharp_request, %function
 2012              	etharp_request:
 2013              	.LFB17:
 2014              		.loc 1 1199 0
 2015              		.cfi_startproc
 2016              		@ args = 0, pretend = 0, frame = 8
 2017              		@ frame_needed = 0, uses_anonymous_args = 0
 2018 0000 10B5     		push	{r4, lr}
 2019              	.LCFI20:
 2020              		.cfi_def_cfa_offset 8
 2021              		.cfi_offset 14, -4
 2022              		.cfi_offset 4, -8
 2023 0002 86B0     		sub	sp, sp, #24
 2024              	.LCFI21:
 2025              		.cfi_def_cfa_offset 32
 2026 0004 0590     		str	r0, [sp, #20]
 2027 0006 0491     		str	r1, [sp, #16]
 2028              		.loc 1 1201 0
 2029 0008 059B     		ldr	r3, [sp, #20]
 2030 000a 03F12302 		add	r2, r3, #35
 2031              		.loc 1 1202 0
 2032 000e 059B     		ldr	r3, [sp, #20]
 2033 0010 03F12304 		add	r4, r3, #35
 2034 0014 059B     		ldr	r3, [sp, #20]
ARM GAS  /tmp/ccLoOG9f.s 			page 37


 2035 0016 03F10403 		add	r3, r3, #4
 2036              		.loc 1 1201 0
 2037 001a 0093     		str	r3, [sp, #0]
 2038 001c 40F20003 		movw	r3, #:lower16:ethzero
 2039 0020 C0F20003 		movt	r3, #:upper16:ethzero
 2040 0024 0193     		str	r3, [sp, #4]
 2041 0026 049B     		ldr	r3, [sp, #16]
 2042 0028 0293     		str	r3, [sp, #8]
 2043 002a 4FF00103 		mov	r3, #1
 2044 002e 0393     		str	r3, [sp, #12]
 2045 0030 0598     		ldr	r0, [sp, #20]
 2046 0032 1146     		mov	r1, r2
 2047 0034 40F20002 		movw	r2, #:lower16:ethbroadcast
 2048 0038 C0F20002 		movt	r2, #:upper16:ethbroadcast
 2049 003c 2346     		mov	r3, r4
 2050 003e FFF7FEFF 		bl	etharp_raw
 2051 0042 0346     		mov	r3, r0
 2052              		.loc 1 1204 0
 2053 0044 1846     		mov	r0, r3
 2054 0046 06B0     		add	sp, sp, #24
 2055 0048 10BD     		pop	{r4, pc}
 2056              		.cfi_endproc
 2057              	.LFE17:
 2058              		.size	etharp_request, .-etharp_request
 2059 004a 00BFAFF3 		.section	.text.ethernet_input,"ax",%progbits
 2059      0080
 2060              		.align	2
 2061              		.p2align 4,,15
 2062              		.global	ethernet_input
 2063              		.thumb
 2064              		.thumb_func
 2065              		.type	ethernet_input, %function
 2066              	ethernet_input:
 2067              	.LFB18:
 2068              		.loc 1 1217 0
 2069              		.cfi_startproc
 2070              		@ args = 0, pretend = 0, frame = 24
 2071              		@ frame_needed = 0, uses_anonymous_args = 0
 2072 0000 00B5     		push	{lr}
 2073              	.LCFI22:
 2074              		.cfi_def_cfa_offset 4
 2075              		.cfi_offset 14, -4
 2076 0002 87B0     		sub	sp, sp, #28
 2077              	.LCFI23:
 2078              		.cfi_def_cfa_offset 32
 2079 0004 0190     		str	r0, [sp, #4]
 2080 0006 0091     		str	r1, [sp, #0]
 2081              		.loc 1 1220 0
 2082 0008 4FF00E03 		mov	r3, #14
 2083 000c ADF81630 		strh	r3, [sp, #22]	@ movhi
 2084              		.loc 1 1222 0
 2085 0010 019B     		ldr	r3, [sp, #4]
 2086 0012 5B89     		ldrh	r3, [r3, #10]
 2087 0014 0E2B     		cmp	r3, #14
 2088 0016 1AD8     		bhi	.L102
 2089              		.loc 1 1224 0
 2090 0018 40F20003 		movw	r3, #:lower16:lwip_stats
ARM GAS  /tmp/ccLoOG9f.s 			page 38


 2091 001c C0F20003 		movt	r3, #:upper16:lwip_stats
 2092 0020 1B8D     		ldrh	r3, [r3, #40]
 2093 0022 03F10103 		add	r3, r3, #1
 2094 0026 9AB2     		uxth	r2, r3
 2095 0028 40F20003 		movw	r3, #:lower16:lwip_stats
 2096 002c C0F20003 		movt	r3, #:upper16:lwip_stats
 2097 0030 1A85     		strh	r2, [r3, #40]	@ movhi
 2098              		.loc 1 1225 0
 2099 0032 40F20003 		movw	r3, #:lower16:lwip_stats
 2100 0036 C0F20003 		movt	r3, #:upper16:lwip_stats
 2101 003a DB8B     		ldrh	r3, [r3, #30]
 2102 003c 03F10103 		add	r3, r3, #1
 2103 0040 9AB2     		uxth	r2, r3
 2104 0042 40F20003 		movw	r3, #:lower16:lwip_stats
 2105 0046 C0F20003 		movt	r3, #:upper16:lwip_stats
 2106 004a DA83     		strh	r2, [r3, #30]	@ movhi
 2107              		.loc 1 1226 0
 2108 004c 60E0     		b	.L103
 2109              	.L102:
 2110              		.loc 1 1230 0
 2111 004e 019B     		ldr	r3, [sp, #4]
 2112 0050 5B68     		ldr	r3, [r3, #4]
 2113 0052 0493     		str	r3, [sp, #16]
 2114              		.loc 1 1239 0
 2115 0054 049B     		ldr	r3, [sp, #16]
 2116 0056 1A7B     		ldrb	r2, [r3, #12]	@ zero_extendqisi2
 2117 0058 5B7B     		ldrb	r3, [r3, #13]	@ zero_extendqisi2
 2118 005a 4FEA0323 		lsl	r3, r3, #8
 2119 005e 1343     		orrs	r3, r3, r2
 2120 0060 ADF80E30 		strh	r3, [sp, #14]	@ movhi
 2121              		.loc 1 1265 0
 2122 0064 BDF80E30 		ldrh	r3, [sp, #14]
 2123 0068 082B     		cmp	r3, #8
 2124 006a 03D0     		beq	.L105
 2125 006c B3F5C16F 		cmp	r3, #1544
 2126 0070 1DD0     		beq	.L106
 2127 0072 2CE0     		b	.L112
 2128              	.L105:
 2129              		.loc 1 1269 0
 2130 0074 009B     		ldr	r3, [sp, #0]
 2131 0076 93F82930 		ldrb	r3, [r3, #41]	@ zero_extendqisi2
 2132 007a 03F02003 		and	r3, r3, #32
 2133 007e 002B     		cmp	r3, #0
 2134 0080 43D0     		beq	.L113
 2135              	.L107:
 2136              		.loc 1 1277 0
 2137 0082 BDF81630 		ldrh	r3, [sp, #22]
 2138 0086 C3F10003 		rsb	r3, r3, #0
 2139 008a 9BB2     		uxth	r3, r3
 2140 008c 9BB2     		uxth	r3, r3
 2141 008e 1BB2     		sxth	r3, r3
 2142 0090 0198     		ldr	r0, [sp, #4]
 2143 0092 1946     		mov	r1, r3
 2144 0094 FFF7FEFF 		bl	pbuf_header
 2145 0098 0346     		mov	r3, r0
 2146 009a 002B     		cmp	r3, #0
 2147 009c 02D0     		beq	.L108
ARM GAS  /tmp/ccLoOG9f.s 			page 39


 2148              		.loc 1 1278 0 discriminator 1
 2149 009e FFF7FEFF 		bl	port_halt
 2150              		.loc 1 1279 0 discriminator 1
 2151 00a2 35E0     		b	.L103
 2152              	.L108:
 2153              		.loc 1 1282 0
 2154 00a4 0198     		ldr	r0, [sp, #4]
 2155 00a6 0099     		ldr	r1, [sp, #0]
 2156 00a8 FFF7FEFF 		bl	ip_input
 2157              		.loc 1 1284 0
 2158 00ac 2AE0     		b	.L109
 2159              	.L106:
 2160              		.loc 1 1287 0
 2161 00ae 009B     		ldr	r3, [sp, #0]
 2162 00b0 93F82930 		ldrb	r3, [r3, #41]	@ zero_extendqisi2
 2163 00b4 03F02003 		and	r3, r3, #32
 2164 00b8 002B     		cmp	r3, #0
 2165 00ba 28D0     		beq	.L114
 2166              	.L110:
 2167              		.loc 1 1291 0
 2168 00bc 009B     		ldr	r3, [sp, #0]
 2169 00be 03F12303 		add	r3, r3, #35
 2170 00c2 0098     		ldr	r0, [sp, #0]
 2171 00c4 1946     		mov	r1, r3
 2172 00c6 019A     		ldr	r2, [sp, #4]
 2173 00c8 FFF7FEFF 		bl	etharp_arp_input
 2174              		.loc 1 1292 0
 2175 00cc 1AE0     		b	.L109
 2176              	.L112:
 2177              		.loc 1 1305 0
 2178 00ce 40F20003 		movw	r3, #:lower16:lwip_stats
 2179 00d2 C0F20003 		movt	r3, #:upper16:lwip_stats
 2180 00d6 1B8D     		ldrh	r3, [r3, #40]
 2181 00d8 03F10103 		add	r3, r3, #1
 2182 00dc 9AB2     		uxth	r2, r3
 2183 00de 40F20003 		movw	r3, #:lower16:lwip_stats
 2184 00e2 C0F20003 		movt	r3, #:upper16:lwip_stats
 2185 00e6 1A85     		strh	r2, [r3, #40]	@ movhi
 2186              		.loc 1 1306 0
 2187 00e8 40F20003 		movw	r3, #:lower16:lwip_stats
 2188 00ec C0F20003 		movt	r3, #:upper16:lwip_stats
 2189 00f0 DB8B     		ldrh	r3, [r3, #30]
 2190 00f2 03F10103 		add	r3, r3, #1
 2191 00f6 9AB2     		uxth	r2, r3
 2192 00f8 40F20003 		movw	r3, #:lower16:lwip_stats
 2193 00fc C0F20003 		movt	r3, #:upper16:lwip_stats
 2194 0100 DA83     		strh	r2, [r3, #30]	@ movhi
 2195              		.loc 1 1307 0
 2196 0102 05E0     		b	.L103
 2197              	.L109:
 2198              		.loc 1 1312 0
 2199 0104 4FF00003 		mov	r3, #0
 2200 0108 07E0     		b	.L111
 2201              	.L113:
 2202              		.loc 1 1270 0
 2203 010a 00BF     		nop
 2204 010c 00E0     		b	.L103
ARM GAS  /tmp/ccLoOG9f.s 			page 40


 2205              	.L114:
 2206              		.loc 1 1288 0
 2207 010e 00BF     		nop
 2208              	.L103:
 2209              		.loc 1 1315 0
 2210 0110 0198     		ldr	r0, [sp, #4]
 2211 0112 FFF7FEFF 		bl	pbuf_free
 2212              		.loc 1 1316 0
 2213 0116 4FF00003 		mov	r3, #0
 2214              	.L111:
 2215 011a 5BB2     		sxtb	r3, r3
 2216              		.loc 1 1317 0
 2217 011c 1846     		mov	r0, r3
 2218 011e 07B0     		add	sp, sp, #28
 2219 0120 00BD     		pop	{pc}
 2220              		.cfi_endproc
 2221              	.LFE18:
 2222              		.size	ethernet_input, .-ethernet_input
 2223 0122 00BFAFF3 		.text
 2223      0080AFF3 
 2223      0080AFF3 
 2223      0080
 2224              	.Letext0:
 2225              		.file 2 "/home/texzk/ChibiStudio/tools/GNU Tools ARM Embedded/4.6 2012q2/bin/../lib/gcc/arm-none-e
 2226              		.file 3 "../../os/various/lwip_bindings/arch/cc.h"
 2227              		.file 4 "../../ext/lwip/src/include/ipv4/lwip/ip_addr.h"
 2228              		.file 5 "../../ext/lwip/src/include/lwip/err.h"
 2229              		.file 6 "../../ext/lwip/src/include/lwip/pbuf.h"
 2230              		.file 7 "../../ext/lwip/src/include/lwip/netif.h"
 2231              		.file 8 "../../ext/lwip/src/include/lwip/mem.h"
 2232              		.file 9 "../../ext/lwip/src/include/lwip/memp.h"
 2233              		.file 10 "../../ext/lwip/src/include/lwip/stats.h"
 2234              		.file 11 "../../ext/lwip/src/include/netif/etharp.h"