ARM GAS  /tmp/ccDiVwpJ.s 			page 1


   1              		.syntax unified
   2              		.cpu cortex-m3
   3              		.fpu softvfp
   4              		.eabi_attribute 20, 1
   5              		.eabi_attribute 21, 1
   6              		.eabi_attribute 23, 3
   7              		.eabi_attribute 24, 1
   8              		.eabi_attribute 25, 1
   9              		.eabi_attribute 26, 1
  10              		.eabi_attribute 30, 6
  11              		.eabi_attribute 34, 1
  12              		.eabi_attribute 18, 4
  13              		.thumb
  14              		.file	"hal.c"
  15              		.text
  16              	.Ltext0:
  17              		.cfi_sections	.debug_frame
  18              		.section	.text.halInit,"ax",%progbits
  19              		.align	2
  20              		.p2align 4,,15
  21              		.global	halInit
  22              		.thumb
  23              		.thumb_func
  24              		.type	halInit, %function
  25              	halInit:
  26              	.LFB63:
  27              		.file 1 "../../os/hal/src/hal.c"
  28              		.loc 1 61 0
  29              		.cfi_startproc
  30              		@ args = 0, pretend = 0, frame = 0
  31              		@ frame_needed = 0, uses_anonymous_args = 0
  32 0000 08B5     		push	{r3, lr}
  33              	.LCFI0:
  34              		.cfi_def_cfa_offset 8
  35              		.cfi_offset 14, -4
  36              		.cfi_offset 3, -8
  37              		.loc 1 63 0
  38 0002 FFF7FEFF 		bl	hal_lld_init
  39              		.loc 1 66 0
  40 0006 FFF7FEFF 		bl	tmInit
  41              		.loc 1 69 0
  42 000a 40F20000 		movw	r0, #:lower16:pal_default_config
  43 000e C0F20000 		movt	r0, #:upper16:pal_default_config
  44 0012 FFF7FEFF 		bl	_pal_lld_init
  45              		.loc 1 90 0
  46 0016 FFF7FEFF 		bl	macInit
  47              		.loc 1 96 0
  48 001a FFF7FEFF 		bl	sdInit
  49              		.loc 1 120 0
  50 001e FFF7FEFF 		bl	boardInit
  51              		.loc 1 121 0
  52 0022 08BD     		pop	{r3, pc}
  53              		.cfi_endproc
  54              	.LFE63:
  55              		.size	halInit, .-halInit
  56 0024 AFF30080 		.section	.text.halIsCounterWithin,"ax",%progbits
  56      AFF30080 
ARM GAS  /tmp/ccDiVwpJ.s 			page 2


  56      AFF30080 
  57              		.align	2
  58              		.p2align 4,,15
  59              		.global	halIsCounterWithin
  60              		.thumb
  61              		.thumb_func
  62              		.type	halIsCounterWithin, %function
  63              	halIsCounterWithin:
  64              	.LFB64:
  65              		.loc 1 167 0
  66              		.cfi_startproc
  67              		@ args = 0, pretend = 0, frame = 16
  68              		@ frame_needed = 0, uses_anonymous_args = 0
  69              		@ link register save eliminated.
  70 0000 84B0     		sub	sp, sp, #16
  71              	.LCFI1:
  72              		.cfi_def_cfa_offset 16
  73 0002 0190     		str	r0, [sp, #4]
  74 0004 0091     		str	r1, [sp, #0]
  75              		.loc 1 168 0
  76 0006 4FF48053 		mov	r3, #4096
  77 000a CEF20003 		movt	r3, 57344
  78 000e 5B68     		ldr	r3, [r3, #4]
  79 0010 0393     		str	r3, [sp, #12]
  80              		.loc 1 170 0
  81 0012 009A     		ldr	r2, [sp, #0]
  82 0014 019B     		ldr	r3, [sp, #4]
  83 0016 9A42     		cmp	r2, r3
  84 0018 0DD9     		bls	.L3
  85              		.loc 1 170 0 is_stmt 0 discriminator 1
  86 001a 039A     		ldr	r2, [sp, #12]
  87 001c 019B     		ldr	r3, [sp, #4]
  88 001e 9A42     		cmp	r2, r3
  89 0020 06D3     		bcc	.L4
  90              		.loc 1 170 0 discriminator 3
  91 0022 039A     		ldr	r2, [sp, #12]
  92 0024 009B     		ldr	r3, [sp, #0]
  93 0026 9A42     		cmp	r2, r3
  94 0028 02D2     		bcs	.L4
  95              		.loc 1 170 0 discriminator 1
  96 002a 4FF00103 		mov	r3, #1
  97 002e 01E0     		b	.L5
  98              	.L4:
  99              		.loc 1 170 0 discriminator 4
 100 0030 4FF00003 		mov	r3, #0
 101              	.L5:
 102 0034 0CE0     		b	.L6
 103              	.L3:
 104              		.loc 1 170 0 discriminator 2
 105 0036 039A     		ldr	r2, [sp, #12]
 106 0038 019B     		ldr	r3, [sp, #4]
 107 003a 9A42     		cmp	r2, r3
 108 003c 03D2     		bcs	.L7
 109              		.loc 1 171 0 is_stmt 1
 110 003e 039A     		ldr	r2, [sp, #12]
 111 0040 009B     		ldr	r3, [sp, #0]
 112 0042 9A42     		cmp	r2, r3
ARM GAS  /tmp/ccDiVwpJ.s 			page 3


 113 0044 02D2     		bcs	.L8
 114              	.L7:
 115              		.loc 1 170 0 discriminator 6
 116 0046 4FF00103 		mov	r3, #1
 117 004a 01E0     		b	.L9
 118              	.L8:
 119              		.loc 1 170 0 is_stmt 0
 120 004c 4FF00003 		mov	r3, #0
 121              	.L9:
 122              	.L6:
 123              		.loc 1 172 0 is_stmt 1 discriminator 8
 124 0050 1846     		mov	r0, r3
 125 0052 04B0     		add	sp, sp, #16
 126 0054 7047     		bx	lr
 127              		.cfi_endproc
 128              	.LFE64:
 129              		.size	halIsCounterWithin, .-halIsCounterWithin
 130 0056 00BFAFF3 		.section	.text.halPolledDelay,"ax",%progbits
 130      0080AFF3 
 130      0080
 131              		.align	2
 132              		.p2align 4,,15
 133              		.global	halPolledDelay
 134              		.thumb
 135              		.thumb_func
 136              		.type	halPolledDelay, %function
 137              	halPolledDelay:
 138              	.LFB65:
 139              		.loc 1 186 0
 140              		.cfi_startproc
 141              		@ args = 0, pretend = 0, frame = 16
 142              		@ frame_needed = 0, uses_anonymous_args = 0
 143 0000 00B5     		push	{lr}
 144              	.LCFI2:
 145              		.cfi_def_cfa_offset 4
 146              		.cfi_offset 14, -4
 147 0002 85B0     		sub	sp, sp, #20
 148              	.LCFI3:
 149              		.cfi_def_cfa_offset 24
 150 0004 0190     		str	r0, [sp, #4]
 151              		.loc 1 187 0
 152 0006 4FF48053 		mov	r3, #4096
 153 000a CEF20003 		movt	r3, 57344
 154 000e 5B68     		ldr	r3, [r3, #4]
 155 0010 0393     		str	r3, [sp, #12]
 156              		.loc 1 188 0
 157 0012 039A     		ldr	r2, [sp, #12]
 158 0014 019B     		ldr	r3, [sp, #4]
 159 0016 D318     		adds	r3, r2, r3
 160 0018 0293     		str	r3, [sp, #8]
 161              		.loc 1 189 0
 162 001a 00BF     		nop
 163              	.L11:
 164              		.loc 1 189 0 is_stmt 0 discriminator 1
 165 001c 0398     		ldr	r0, [sp, #12]
 166 001e 0299     		ldr	r1, [sp, #8]
 167 0020 FFF7FEFF 		bl	halIsCounterWithin
ARM GAS  /tmp/ccDiVwpJ.s 			page 4


 168 0024 0346     		mov	r3, r0
 169 0026 002B     		cmp	r3, #0
 170 0028 F8D1     		bne	.L11
 171              		.loc 1 191 0 is_stmt 1
 172 002a 05B0     		add	sp, sp, #20
 173 002c 00BD     		pop	{pc}
 174              		.cfi_endproc
 175              	.LFE65:
 176              		.size	halPolledDelay, .-halPolledDelay
 177 002e 00BF     		.text
 178              	.Letext0:
 179              		.file 2 "/home/texzk/ChibiStudio/tools/GNU Tools ARM Embedded/4.6 2012q2/bin/../lib/gcc/arm-none-e
 180              		.file 3 "../../os/ports/GCC/ARMCMx/chtypes.h"
 181              		.file 4 "../../os/ports/common/ARMCMx/nvic.h"
 182              		.file 5 "../../os/hal/platforms/STM32F2xx/hal_lld.h"
 183              		.file 6 "../../os/hal/platforms/STM32/GPIOv2/pal_lld.h"
 184              		.file 7 "../../os/ports/common/ARMCMx/CMSIS/include/core_cm3.h"