ARM GAS  /tmp/ccCK5uA5.s 			page 1


   1              		.syntax unified
   2              		.cpu cortex-m3
   3              		.fpu softvfp
   4              		.eabi_attribute 20, 1
   5              		.eabi_attribute 21, 1
   6              		.eabi_attribute 23, 3
   7              		.eabi_attribute 24, 1
   8              		.eabi_attribute 25, 1
   9              		.eabi_attribute 26, 1
  10              		.eabi_attribute 30, 6
  11              		.eabi_attribute 34, 1
  12              		.eabi_attribute 18, 4
  13              		.thumb
  14              		.file	"icmp.c"
  15              		.text
  16              	.Ltext0:
  17              		.cfi_sections	.debug_frame
  18              		.section	.text.icmp_input,"ax",%progbits
  19              		.align	2
  20              		.p2align 4,,15
  21              		.global	icmp_input
  22              		.thumb
  23              		.thumb_func
  24              		.type	icmp_input, %function
  25              	icmp_input:
  26              	.LFB7:
  27              		.file 1 "../../ext/lwip/src/core/ipv4/icmp.c"
  28              		.loc 1 78 0
  29              		.cfi_startproc
  30              		@ args = 0, pretend = 0, frame = 32
  31              		@ frame_needed = 0, uses_anonymous_args = 0
  32 0000 00B5     		push	{lr}
  33              	.LCFI0:
  34              		.cfi_def_cfa_offset 4
  35              		.cfi_offset 14, -4
  36 0002 8DB0     		sub	sp, sp, #52
  37              	.LCFI1:
  38              		.cfi_def_cfa_offset 56
  39 0004 0590     		str	r0, [sp, #20]
  40 0006 0491     		str	r1, [sp, #16]
  41              		.loc 1 87 0
  42 0008 40F20003 		movw	r3, #:lower16:lwip_stats
  43 000c C0F20003 		movt	r3, #:upper16:lwip_stats
  44 0010 B3F86230 		ldrh	r3, [r3, #98]
  45 0014 03F10103 		add	r3, r3, #1
  46 0018 9AB2     		uxth	r2, r3
  47 001a 40F20003 		movw	r3, #:lower16:lwip_stats
  48 001e C0F20003 		movt	r3, #:upper16:lwip_stats
  49 0022 A3F86220 		strh	r2, [r3, #98]	@ movhi
  50              		.loc 1 91 0
  51 0026 059B     		ldr	r3, [sp, #20]
  52 0028 5B68     		ldr	r3, [r3, #4]
  53 002a 0B93     		str	r3, [sp, #44]
  54              		.loc 1 92 0
  55 002c 0B9B     		ldr	r3, [sp, #44]
  56 002e 1B88     		ldrh	r3, [r3, #0]	@ unaligned
  57 0030 9BB2     		uxth	r3, r3
ARM GAS  /tmp/ccCK5uA5.s 			page 2


  58 0032 1846     		mov	r0, r3
  59 0034 FFF7FEFF 		bl	lwip_ntohs
  60 0038 0346     		mov	r3, r0
  61 003a 4FEA1323 		lsr	r3, r3, #8
  62 003e 9BB2     		uxth	r3, r3
  63 0040 03F00F03 		and	r3, r3, #15
  64 0044 9BB2     		uxth	r3, r3
  65 0046 4FEA8303 		lsl	r3, r3, #2
  66 004a 9BB2     		uxth	r3, r3
  67 004c ADF82630 		strh	r3, [sp, #38]	@ movhi
  68              		.loc 1 93 0
  69 0050 BDF82630 		ldrh	r3, [sp, #38]
  70 0054 C3F10003 		rsb	r3, r3, #0
  71 0058 9BB2     		uxth	r3, r3
  72 005a 9BB2     		uxth	r3, r3
  73 005c 1BB2     		sxth	r3, r3
  74 005e 0598     		ldr	r0, [sp, #20]
  75 0060 1946     		mov	r1, r3
  76 0062 FFF7FEFF 		bl	pbuf_header
  77 0066 0346     		mov	r3, r0
  78 0068 002B     		cmp	r3, #0
  79 006a 40F05981 		bne	.L2
  80              		.loc 1 93 0 is_stmt 0 discriminator 1
  81 006e 059B     		ldr	r3, [sp, #20]
  82 0070 1B89     		ldrh	r3, [r3, #8]
  83 0072 032B     		cmp	r3, #3
  84 0074 40F25481 		bls	.L2
  85              		.loc 1 98 0 is_stmt 1
  86 0078 059B     		ldr	r3, [sp, #20]
  87 007a 5B68     		ldr	r3, [r3, #4]
  88 007c 1B78     		ldrb	r3, [r3, #0]
  89 007e 8DF82530 		strb	r3, [sp, #37]
  90              		.loc 1 102 0
  91 0082 9DF82530 		ldrb	r3, [sp, #37]	@ zero_extendqisi2
  92 0086 002B     		cmp	r3, #0
  93 0088 00F04481 		beq	.L26
  94 008c 082B     		cmp	r3, #8
  95 008e 40F02281 		bne	.L25
  96              	.L5:
  97              	.LBB2:
  98              		.loc 1 110 0
  99 0092 4FF00103 		mov	r3, #1
 100 0096 0A93     		str	r3, [sp, #40]
 101              		.loc 1 113 0
 102 0098 40F20003 		movw	r3, #:lower16:current_iphdr_dest
 103 009c C0F20003 		movt	r3, #:upper16:current_iphdr_dest
 104 00a0 1B68     		ldr	r3, [r3, #0]
 105 00a2 03F0F003 		and	r3, r3, #240
 106 00a6 E02B     		cmp	r3, #224
 107 00a8 02D1     		bne	.L7
 108              		.loc 1 114 0
 109 00aa 4FF00003 		mov	r3, #0
 110 00ae 0A93     		str	r3, [sp, #40]
 111              	.L7:
 112              		.loc 1 119 0
 113 00b0 40F20003 		movw	r3, #:lower16:current_iphdr_dest
 114 00b4 C0F20003 		movt	r3, #:upper16:current_iphdr_dest
ARM GAS  /tmp/ccCK5uA5.s 			page 3


 115 00b8 1B68     		ldr	r3, [r3, #0]
 116 00ba 1846     		mov	r0, r3
 117 00bc 0499     		ldr	r1, [sp, #16]
 118 00be FFF7FEFF 		bl	ip4_addr_isbroadcast
 119 00c2 0346     		mov	r3, r0
 120 00c4 002B     		cmp	r3, #0
 121 00c6 02D0     		beq	.L8
 122              		.loc 1 120 0
 123 00c8 4FF00003 		mov	r3, #0
 124 00cc 0A93     		str	r3, [sp, #40]
 125              	.L8:
 126              		.loc 1 124 0
 127 00ce 0A9B     		ldr	r3, [sp, #40]
 128 00d0 002B     		cmp	r3, #0
 129 00d2 12D1     		bne	.L9
 130              		.loc 1 126 0
 131 00d4 40F20003 		movw	r3, #:lower16:lwip_stats
 132 00d8 C0F20003 		movt	r3, #:upper16:lwip_stats
 133 00dc B3F87430 		ldrh	r3, [r3, #116]
 134 00e0 03F10103 		add	r3, r3, #1
 135 00e4 9AB2     		uxth	r2, r3
 136 00e6 40F20003 		movw	r3, #:lower16:lwip_stats
 137 00ea C0F20003 		movt	r3, #:upper16:lwip_stats
 138 00ee A3F87420 		strh	r2, [r3, #116]	@ movhi
 139              		.loc 1 127 0
 140 00f2 0598     		ldr	r0, [sp, #20]
 141 00f4 FFF7FEFF 		bl	pbuf_free
 142              		.loc 1 128 0
 143 00f8 39E1     		b	.L1
 144              	.L9:
 145              	.LBE2:
 146              		.loc 1 133 0
 147 00fa 059B     		ldr	r3, [sp, #20]
 148 00fc 1B89     		ldrh	r3, [r3, #8]
 149 00fe 072B     		cmp	r3, #7
 150 0100 40F20D81 		bls	.L27
 151              	.L11:
 152              		.loc 1 137 0
 153 0104 0598     		ldr	r0, [sp, #20]
 154 0106 FFF7FEFF 		bl	inet_chksum_pbuf
 155 010a 0346     		mov	r3, r0
 156 010c 002B     		cmp	r3, #0
 157 010e 12D0     		beq	.L12
 158              		.loc 1 139 0
 159 0110 0598     		ldr	r0, [sp, #20]
 160 0112 FFF7FEFF 		bl	pbuf_free
 161              		.loc 1 140 0
 162 0116 40F20003 		movw	r3, #:lower16:lwip_stats
 163 011a C0F20003 		movt	r3, #:upper16:lwip_stats
 164 011e B3F86830 		ldrh	r3, [r3, #104]
 165 0122 03F10103 		add	r3, r3, #1
 166 0126 9AB2     		uxth	r2, r3
 167 0128 40F20003 		movw	r3, #:lower16:lwip_stats
 168 012c C0F20003 		movt	r3, #:upper16:lwip_stats
 169 0130 A3F86820 		strh	r2, [r3, #104]	@ movhi
 170              		.loc 1 142 0
 171 0134 1BE1     		b	.L1
ARM GAS  /tmp/ccCK5uA5.s 			page 4


 172              	.L12:
 173              		.loc 1 145 0
 174 0136 0598     		ldr	r0, [sp, #20]
 175 0138 4FF02201 		mov	r1, #34
 176 013c FFF7FEFF 		bl	pbuf_header
 177 0140 0346     		mov	r3, r0
 178 0142 002B     		cmp	r3, #0
 179 0144 49D0     		beq	.L13
 180              	.LBB3:
 181              		.loc 1 151 0
 182 0146 BDF92630 		ldrsh	r3, [sp, #38]
 183 014a 0598     		ldr	r0, [sp, #20]
 184 014c 1946     		mov	r1, r3
 185 014e FFF7FEFF 		bl	pbuf_header
 186 0152 0346     		mov	r3, r0
 187 0154 002B     		cmp	r3, #0
 188 0156 02D0     		beq	.L14
 189              		.loc 1 152 0 discriminator 1
 190 0158 FFF7FEFF 		bl	port_halt
 191              		.loc 1 153 0 discriminator 1
 192 015c F4E0     		b	.L15
 193              	.L14:
 194              		.loc 1 156 0
 195 015e 059B     		ldr	r3, [sp, #20]
 196 0160 1B89     		ldrh	r3, [r3, #8]
 197 0162 4FF00200 		mov	r0, #2
 198 0166 1946     		mov	r1, r3
 199 0168 4FF00002 		mov	r2, #0
 200 016c FFF7FEFF 		bl	pbuf_alloc
 201 0170 0346     		mov	r3, r0
 202 0172 0893     		str	r3, [sp, #32]
 203              		.loc 1 157 0
 204 0174 089B     		ldr	r3, [sp, #32]
 205 0176 002B     		cmp	r3, #0
 206 0178 00F0E580 		beq	.L28
 207              	.L16:
 208              		.loc 1 161 0
 209 017c 089B     		ldr	r3, [sp, #32]
 210 017e 5B89     		ldrh	r3, [r3, #10]
 211 0180 1A46     		mov	r2, r3
 212 0182 BDF92630 		ldrsh	r3, [sp, #38]
 213 0186 03F10803 		add	r3, r3, #8
 214 018a 9A42     		cmp	r2, r3
 215 018c 01D2     		bcs	.L17
 216              		.loc 1 161 0 is_stmt 0 discriminator 1
 217 018e FFF7FEFF 		bl	port_halt
 218              	.L17:
 219              		.loc 1 164 0 is_stmt 1
 220 0192 0898     		ldr	r0, [sp, #32]
 221 0194 0599     		ldr	r1, [sp, #20]
 222 0196 FFF7FEFF 		bl	pbuf_copy
 223 019a 0346     		mov	r3, r0
 224 019c 002B     		cmp	r3, #0
 225 019e 02D0     		beq	.L18
 226              		.loc 1 165 0 discriminator 1
 227 01a0 FFF7FEFF 		bl	port_halt
 228              		.loc 1 166 0 discriminator 1
ARM GAS  /tmp/ccCK5uA5.s 			page 5


 229 01a4 D0E0     		b	.L15
 230              	.L18:
 231              		.loc 1 168 0
 232 01a6 089B     		ldr	r3, [sp, #32]
 233 01a8 5B68     		ldr	r3, [r3, #4]
 234 01aa 0B93     		str	r3, [sp, #44]
 235              		.loc 1 170 0
 236 01ac BDF82630 		ldrh	r3, [sp, #38]
 237 01b0 C3F10003 		rsb	r3, r3, #0
 238 01b4 9BB2     		uxth	r3, r3
 239 01b6 9BB2     		uxth	r3, r3
 240 01b8 1BB2     		sxth	r3, r3
 241 01ba 0898     		ldr	r0, [sp, #32]
 242 01bc 1946     		mov	r1, r3
 243 01be FFF7FEFF 		bl	pbuf_header
 244 01c2 0346     		mov	r3, r0
 245 01c4 002B     		cmp	r3, #0
 246 01c6 02D0     		beq	.L19
 247              		.loc 1 171 0 discriminator 1
 248 01c8 FFF7FEFF 		bl	port_halt
 249              		.loc 1 172 0 discriminator 1
 250 01cc BCE0     		b	.L15
 251              	.L19:
 252              		.loc 1 175 0
 253 01ce 0598     		ldr	r0, [sp, #20]
 254 01d0 FFF7FEFF 		bl	pbuf_free
 255              		.loc 1 177 0
 256 01d4 089B     		ldr	r3, [sp, #32]
 257 01d6 0593     		str	r3, [sp, #20]
 258 01d8 0AE0     		b	.L20
 259              	.L13:
 260              	.LBE3:
 261              		.loc 1 180 0
 262 01da 0598     		ldr	r0, [sp, #20]
 263 01dc 6FF02101 		mvn	r1, #33
 264 01e0 FFF7FEFF 		bl	pbuf_header
 265 01e4 0346     		mov	r3, r0
 266 01e6 002B     		cmp	r3, #0
 267 01e8 02D0     		beq	.L20
 268              		.loc 1 181 0 discriminator 1
 269 01ea FFF7FEFF 		bl	port_halt
 270              		.loc 1 182 0 discriminator 1
 271 01ee ABE0     		b	.L15
 272              	.L20:
 273              		.loc 1 189 0
 274 01f0 059B     		ldr	r3, [sp, #20]
 275 01f2 5B68     		ldr	r3, [r3, #4]
 276 01f4 0793     		str	r3, [sp, #28]
 277              		.loc 1 190 0
 278 01f6 40F20003 		movw	r3, #:lower16:current_iphdr_dest
 279 01fa C0F20003 		movt	r3, #:upper16:current_iphdr_dest
 280 01fe 1A68     		ldr	r2, [r3, #0]
 281 0200 0B9B     		ldr	r3, [sp, #44]
 282 0202 DA60     		str	r2, [r3, #12]	@ unaligned
 283              		.loc 1 191 0
 284 0204 40F20003 		movw	r3, #:lower16:current_iphdr_src
 285 0208 C0F20003 		movt	r3, #:upper16:current_iphdr_src
ARM GAS  /tmp/ccCK5uA5.s 			page 6


 286 020c 1A68     		ldr	r2, [r3, #0]
 287 020e 0B9B     		ldr	r3, [sp, #44]
 288 0210 1A61     		str	r2, [r3, #16]	@ unaligned
 289              		.loc 1 192 0
 290 0212 079B     		ldr	r3, [sp, #28]
 291 0214 4FF00002 		mov	r2, #0
 292 0218 1A70     		strb	r2, [r3, #0]
 293              		.loc 1 194 0
 294 021a 079B     		ldr	r3, [sp, #28]
 295 021c 5B88     		ldrh	r3, [r3, #2]	@ unaligned
 296 021e 9AB2     		uxth	r2, r3
 297 0220 4FF6F673 		movw	r3, #65526
 298 0224 9A42     		cmp	r2, r3
 299 0226 08D9     		bls	.L21
 300              		.loc 1 195 0
 301 0228 079B     		ldr	r3, [sp, #28]
 302 022a 5B88     		ldrh	r3, [r3, #2]	@ unaligned
 303 022c 9BB2     		uxth	r3, r3
 304 022e 03F10903 		add	r3, r3, #9
 305 0232 9AB2     		uxth	r2, r3
 306 0234 079B     		ldr	r3, [sp, #28]
 307 0236 5A80     		strh	r2, [r3, #2]	@ unaligned
 308 0238 07E0     		b	.L22
 309              	.L21:
 310              		.loc 1 197 0
 311 023a 079B     		ldr	r3, [sp, #28]
 312 023c 5B88     		ldrh	r3, [r3, #2]	@ unaligned
 313 023e 9BB2     		uxth	r3, r3
 314 0240 03F10803 		add	r3, r3, #8
 315 0244 9AB2     		uxth	r2, r3
 316 0246 079B     		ldr	r3, [sp, #28]
 317 0248 5A80     		strh	r2, [r3, #2]	@ unaligned
 318              	.L22:
 319              		.loc 1 201 0
 320 024a 0B9B     		ldr	r3, [sp, #44]
 321 024c 4FF0FF02 		mov	r2, #255
 322 0250 1A72     		strb	r2, [r3, #8]
 323              		.loc 1 202 0
 324 0252 0B9B     		ldr	r3, [sp, #44]
 325 0254 4FF00002 		mov	r2, #0
 326 0258 9A72     		strb	r2, [r3, #10]
 327 025a 4FF00002 		mov	r2, #0
 328 025e DA72     		strb	r2, [r3, #11]
 329              		.loc 1 204 0
 330 0260 0B98     		ldr	r0, [sp, #44]
 331 0262 4FF01401 		mov	r1, #20
 332 0266 FFF7FEFF 		bl	inet_chksum
 333 026a 0346     		mov	r3, r0
 334 026c 1A46     		mov	r2, r3
 335 026e 0B9B     		ldr	r3, [sp, #44]
 336 0270 5A81     		strh	r2, [r3, #10]	@ unaligned
 337              		.loc 1 207 0
 338 0272 40F20003 		movw	r3, #:lower16:lwip_stats
 339 0276 C0F20003 		movt	r3, #:upper16:lwip_stats
 340 027a B3F86030 		ldrh	r3, [r3, #96]
 341 027e 03F10103 		add	r3, r3, #1
 342 0282 9AB2     		uxth	r2, r3
ARM GAS  /tmp/ccCK5uA5.s 			page 7


 343 0284 40F20003 		movw	r3, #:lower16:lwip_stats
 344 0288 C0F20003 		movt	r3, #:upper16:lwip_stats
 345 028c A3F86020 		strh	r2, [r3, #96]	@ movhi
 346              		.loc 1 213 0
 347 0290 BDF92630 		ldrsh	r3, [sp, #38]
 348 0294 0598     		ldr	r0, [sp, #20]
 349 0296 1946     		mov	r1, r3
 350 0298 FFF7FEFF 		bl	pbuf_header
 351 029c 0346     		mov	r3, r0
 352 029e 002B     		cmp	r3, #0
 353 02a0 02D0     		beq	.L23
 354              		.loc 1 214 0 discriminator 1
 355 02a2 FFF7FEFF 		bl	port_halt
 356              		.loc 1 224 0 discriminator 1
 357 02a6 36E0     		b	.L6
 358              	.L23:
 359              	.LBB4:
 360              		.loc 1 218 0
 361 02a8 4FF00003 		mov	r3, #0
 362 02ac 0093     		str	r3, [sp, #0]
 363 02ae 4FF00103 		mov	r3, #1
 364 02b2 0193     		str	r3, [sp, #4]
 365 02b4 049B     		ldr	r3, [sp, #16]
 366 02b6 0293     		str	r3, [sp, #8]
 367 02b8 0598     		ldr	r0, [sp, #20]
 368 02ba 40F20001 		movw	r1, #:lower16:current_iphdr_dest
 369 02be C0F20001 		movt	r1, #:upper16:current_iphdr_dest
 370 02c2 4FF00002 		mov	r2, #0
 371 02c6 4FF0FF03 		mov	r3, #255
 372 02ca FFF7FEFF 		bl	ip_output_if
 373 02ce 0346     		mov	r3, r0
 374 02d0 8DF81B30 		strb	r3, [sp, #27]
 375              	.LBE4:
 376              		.loc 1 224 0
 377 02d4 1FE0     		b	.L6
 378              	.L25:
 379              		.loc 1 228 0
 380 02d6 40F20003 		movw	r3, #:lower16:lwip_stats
 381 02da C0F20003 		movt	r3, #:upper16:lwip_stats
 382 02de B3F87030 		ldrh	r3, [r3, #112]
 383 02e2 03F10103 		add	r3, r3, #1
 384 02e6 9AB2     		uxth	r2, r3
 385 02e8 40F20003 		movw	r3, #:lower16:lwip_stats
 386 02ec C0F20003 		movt	r3, #:upper16:lwip_stats
 387 02f0 A3F87020 		strh	r2, [r3, #112]	@ movhi
 388              		.loc 1 229 0
 389 02f4 40F20003 		movw	r3, #:lower16:lwip_stats
 390 02f8 C0F20003 		movt	r3, #:upper16:lwip_stats
 391 02fc B3F86630 		ldrh	r3, [r3, #102]
 392 0300 03F10103 		add	r3, r3, #1
 393 0304 9AB2     		uxth	r2, r3
 394 0306 40F20003 		movw	r3, #:lower16:lwip_stats
 395 030a C0F20003 		movt	r3, #:upper16:lwip_stats
 396 030e A3F86620 		strh	r2, [r3, #102]	@ movhi
 397 0312 00E0     		b	.L6
 398              	.L26:
 399              		.loc 1 106 0
ARM GAS  /tmp/ccCK5uA5.s 			page 8


 400 0314 00BF     		nop
 401              	.L6:
 402              		.loc 1 231 0
 403 0316 0598     		ldr	r0, [sp, #20]
 404 0318 FFF7FEFF 		bl	pbuf_free
 405              		.loc 1 232 0
 406 031c 27E0     		b	.L1
 407              	.L27:
 408              		.loc 1 135 0
 409 031e 00BF     		nop
 410              	.L2:
 411              		.loc 1 234 0
 412 0320 0598     		ldr	r0, [sp, #20]
 413 0322 FFF7FEFF 		bl	pbuf_free
 414              		.loc 1 235 0
 415 0326 40F20003 		movw	r3, #:lower16:lwip_stats
 416 032a C0F20003 		movt	r3, #:upper16:lwip_stats
 417 032e B3F86A30 		ldrh	r3, [r3, #106]
 418 0332 03F10103 		add	r3, r3, #1
 419 0336 9AB2     		uxth	r2, r3
 420 0338 40F20003 		movw	r3, #:lower16:lwip_stats
 421 033c C0F20003 		movt	r3, #:upper16:lwip_stats
 422 0340 A3F86A20 		strh	r2, [r3, #106]	@ movhi
 423              		.loc 1 237 0
 424 0344 13E0     		b	.L1
 425              	.L28:
 426              	.LBB5:
 427              		.loc 1 159 0
 428 0346 00BF     		nop
 429              	.L15:
 430              	.LBE5:
 431              		.loc 1 240 0
 432 0348 0598     		ldr	r0, [sp, #20]
 433 034a FFF7FEFF 		bl	pbuf_free
 434              		.loc 1 241 0
 435 034e 40F20003 		movw	r3, #:lower16:lwip_stats
 436 0352 C0F20003 		movt	r3, #:upper16:lwip_stats
 437 0356 B3F87430 		ldrh	r3, [r3, #116]
 438 035a 03F10103 		add	r3, r3, #1
 439 035e 9AB2     		uxth	r2, r3
 440 0360 40F20003 		movw	r3, #:lower16:lwip_stats
 441 0364 C0F20003 		movt	r3, #:upper16:lwip_stats
 442 0368 A3F87420 		strh	r2, [r3, #116]	@ movhi
 443              		.loc 1 243 0
 444 036c 00BF     		nop
 445              	.L1:
 446              		.loc 1 245 0
 447 036e 0DB0     		add	sp, sp, #52
 448 0370 00BD     		pop	{pc}
 449              		.cfi_endproc
 450              	.LFE7:
 451              		.size	icmp_input, .-icmp_input
 452 0372 00BFAFF3 		.section	.text.icmp_dest_unreach,"ax",%progbits
 452      0080AFF3 
 452      0080AFF3 
 452      0080
 453              		.align	2
ARM GAS  /tmp/ccCK5uA5.s 			page 9


 454              		.p2align 4,,15
 455              		.global	icmp_dest_unreach
 456              		.thumb
 457              		.thumb_func
 458              		.type	icmp_dest_unreach, %function
 459              	icmp_dest_unreach:
 460              	.LFB8:
 461              		.loc 1 258 0
 462              		.cfi_startproc
 463              		@ args = 0, pretend = 0, frame = 8
 464              		@ frame_needed = 0, uses_anonymous_args = 0
 465 0000 00B5     		push	{lr}
 466              	.LCFI2:
 467              		.cfi_def_cfa_offset 4
 468              		.cfi_offset 14, -4
 469 0002 83B0     		sub	sp, sp, #12
 470              	.LCFI3:
 471              		.cfi_def_cfa_offset 16
 472 0004 0190     		str	r0, [sp, #4]
 473 0006 0B46     		mov	r3, r1
 474 0008 8DF80330 		strb	r3, [sp, #3]
 475              		.loc 1 259 0
 476 000c 9DF80330 		ldrb	r3, [sp, #3]	@ zero_extendqisi2
 477 0010 0198     		ldr	r0, [sp, #4]
 478 0012 4FF00301 		mov	r1, #3
 479 0016 1A46     		mov	r2, r3
 480 0018 FFF7FEFF 		bl	icmp_send_response
 481              		.loc 1 260 0
 482 001c 03B0     		add	sp, sp, #12
 483 001e 00BD     		pop	{pc}
 484              		.cfi_endproc
 485              	.LFE8:
 486              		.size	icmp_dest_unreach, .-icmp_dest_unreach
 487              		.section	.text.icmp_time_exceeded,"ax",%progbits
 488              		.align	2
 489              		.p2align 4,,15
 490              		.global	icmp_time_exceeded
 491              		.thumb
 492              		.thumb_func
 493              		.type	icmp_time_exceeded, %function
 494              	icmp_time_exceeded:
 495              	.LFB9:
 496              		.loc 1 272 0
 497              		.cfi_startproc
 498              		@ args = 0, pretend = 0, frame = 8
 499              		@ frame_needed = 0, uses_anonymous_args = 0
 500 0000 00B5     		push	{lr}
 501              	.LCFI4:
 502              		.cfi_def_cfa_offset 4
 503              		.cfi_offset 14, -4
 504 0002 83B0     		sub	sp, sp, #12
 505              	.LCFI5:
 506              		.cfi_def_cfa_offset 16
 507 0004 0190     		str	r0, [sp, #4]
 508 0006 0B46     		mov	r3, r1
 509 0008 8DF80330 		strb	r3, [sp, #3]
 510              		.loc 1 273 0
ARM GAS  /tmp/ccCK5uA5.s 			page 10


 511 000c 9DF80330 		ldrb	r3, [sp, #3]	@ zero_extendqisi2
 512 0010 0198     		ldr	r0, [sp, #4]
 513 0012 4FF00B01 		mov	r1, #11
 514 0016 1A46     		mov	r2, r3
 515 0018 FFF7FEFF 		bl	icmp_send_response
 516              		.loc 1 274 0
 517 001c 03B0     		add	sp, sp, #12
 518 001e 00BD     		pop	{pc}
 519              		.cfi_endproc
 520              	.LFE9:
 521              		.size	icmp_time_exceeded, .-icmp_time_exceeded
 522              		.section	.text.icmp_send_response,"ax",%progbits
 523              		.align	2
 524              		.p2align 4,,15
 525              		.thumb
 526              		.thumb_func
 527              		.type	icmp_send_response, %function
 528              	icmp_send_response:
 529              	.LFB10:
 530              		.loc 1 288 0
 531              		.cfi_startproc
 532              		@ args = 0, pretend = 0, frame = 24
 533              		@ frame_needed = 0, uses_anonymous_args = 0
 534 0000 00B5     		push	{lr}
 535              	.LCFI6:
 536              		.cfi_def_cfa_offset 4
 537              		.cfi_offset 14, -4
 538 0002 89B0     		sub	sp, sp, #36
 539              	.LCFI7:
 540              		.cfi_def_cfa_offset 40
 541 0004 0390     		str	r0, [sp, #12]
 542 0006 1346     		mov	r3, r2
 543 0008 0A46     		mov	r2, r1
 544 000a 8DF80B20 		strb	r2, [sp, #11]
 545 000e 8DF80A30 		strb	r3, [sp, #10]
 546              		.loc 1 296 0
 547 0012 4FF00100 		mov	r0, #1
 548 0016 4FF02401 		mov	r1, #36
 549 001a 4FF00002 		mov	r2, #0
 550 001e FFF7FEFF 		bl	pbuf_alloc
 551 0022 0346     		mov	r3, r0
 552 0024 0793     		str	r3, [sp, #28]
 553              		.loc 1 298 0
 554 0026 079B     		ldr	r3, [sp, #28]
 555 0028 002B     		cmp	r3, #0
 556 002a 66D0     		beq	.L35
 557              	.L32:
 558              		.loc 1 302 0
 559 002c 079B     		ldr	r3, [sp, #28]
 560 002e 5B89     		ldrh	r3, [r3, #10]
 561 0030 232B     		cmp	r3, #35
 562 0032 01D8     		bhi	.L34
 563              		.loc 1 302 0 is_stmt 0 discriminator 1
 564 0034 FFF7FEFF 		bl	port_halt
 565              	.L34:
 566              		.loc 1 305 0 is_stmt 1
 567 0038 039B     		ldr	r3, [sp, #12]
ARM GAS  /tmp/ccCK5uA5.s 			page 11


 568 003a 5B68     		ldr	r3, [r3, #4]
 569 003c 0693     		str	r3, [sp, #24]
 570              		.loc 1 312 0
 571 003e 079B     		ldr	r3, [sp, #28]
 572 0040 5B68     		ldr	r3, [r3, #4]
 573 0042 0593     		str	r3, [sp, #20]
 574              		.loc 1 313 0
 575 0044 059B     		ldr	r3, [sp, #20]
 576 0046 9DF80B20 		ldrb	r2, [sp, #11]
 577 004a 1A70     		strb	r2, [r3, #0]
 578              		.loc 1 314 0
 579 004c 059B     		ldr	r3, [sp, #20]
 580 004e 9DF80A20 		ldrb	r2, [sp, #10]
 581 0052 5A70     		strb	r2, [r3, #1]
 582              		.loc 1 315 0
 583 0054 059B     		ldr	r3, [sp, #20]
 584 0056 4FF00002 		mov	r2, #0
 585 005a 1A71     		strb	r2, [r3, #4]
 586 005c 4FF00002 		mov	r2, #0
 587 0060 5A71     		strb	r2, [r3, #5]
 588              		.loc 1 316 0
 589 0062 059B     		ldr	r3, [sp, #20]
 590 0064 4FF00002 		mov	r2, #0
 591 0068 9A71     		strb	r2, [r3, #6]
 592 006a 4FF00002 		mov	r2, #0
 593 006e DA71     		strb	r2, [r3, #7]
 594              		.loc 1 319 0
 595 0070 079B     		ldr	r3, [sp, #28]
 596 0072 5B68     		ldr	r3, [r3, #4]
 597 0074 03F10802 		add	r2, r3, #8
 598 0078 039B     		ldr	r3, [sp, #12]
 599 007a 5B68     		ldr	r3, [r3, #4]
 600 007c 1146     		mov	r1, r2
 601 007e 1A46     		mov	r2, r3
 602 0080 4FF01C03 		mov	r3, #28
 603 0084 0846     		mov	r0, r1
 604 0086 1146     		mov	r1, r2
 605 0088 1A46     		mov	r2, r3
 606 008a FFF7FEFF 		bl	memcpy
 607              		.loc 1 323 0
 608 008e 059B     		ldr	r3, [sp, #20]
 609 0090 4FF00002 		mov	r2, #0
 610 0094 9A70     		strb	r2, [r3, #2]
 611 0096 4FF00002 		mov	r2, #0
 612 009a DA70     		strb	r2, [r3, #3]
 613              		.loc 1 324 0
 614 009c 079B     		ldr	r3, [sp, #28]
 615 009e 5B89     		ldrh	r3, [r3, #10]
 616 00a0 0598     		ldr	r0, [sp, #20]
 617 00a2 1946     		mov	r1, r3
 618 00a4 FFF7FEFF 		bl	inet_chksum
 619 00a8 0346     		mov	r3, r0
 620 00aa 1A46     		mov	r2, r3
 621 00ac 059B     		ldr	r3, [sp, #20]
 622 00ae 5A80     		strh	r2, [r3, #2]	@ unaligned
 623              		.loc 1 325 0
 624 00b0 40F20003 		movw	r3, #:lower16:lwip_stats
ARM GAS  /tmp/ccCK5uA5.s 			page 12


 625 00b4 C0F20003 		movt	r3, #:upper16:lwip_stats
 626 00b8 B3F86030 		ldrh	r3, [r3, #96]
 627 00bc 03F10103 		add	r3, r3, #1
 628 00c0 9AB2     		uxth	r2, r3
 629 00c2 40F20003 		movw	r3, #:lower16:lwip_stats
 630 00c6 C0F20003 		movt	r3, #:upper16:lwip_stats
 631 00ca A3F86020 		strh	r2, [r3, #96]	@ movhi
 632              		.loc 1 330 0
 633 00ce 069B     		ldr	r3, [sp, #24]
 634 00d0 DB68     		ldr	r3, [r3, #12]	@ unaligned
 635 00d2 0493     		str	r3, [sp, #16]
 636              		.loc 1 331 0
 637 00d4 04AB     		add	r3, sp, #16
 638 00d6 4FF00002 		mov	r2, #0
 639 00da 0092     		str	r2, [sp, #0]
 640 00dc 4FF00102 		mov	r2, #1
 641 00e0 0192     		str	r2, [sp, #4]
 642 00e2 0798     		ldr	r0, [sp, #28]
 643 00e4 4FF00001 		mov	r1, #0
 644 00e8 1A46     		mov	r2, r3
 645 00ea 4FF0FF03 		mov	r3, #255
 646 00ee FFF7FEFF 		bl	ip_output
 647              		.loc 1 332 0
 648 00f2 0798     		ldr	r0, [sp, #28]
 649 00f4 FFF7FEFF 		bl	pbuf_free
 650 00f8 00E0     		b	.L31
 651              	.L35:
 652              		.loc 1 300 0
 653 00fa 00BF     		nop
 654              	.L31:
 655              		.loc 1 333 0
 656 00fc 09B0     		add	sp, sp, #36
 657 00fe 00BD     		pop	{pc}
 658              		.cfi_endproc
 659              	.LFE10:
 660              		.size	icmp_send_response, .-icmp_send_response
 661              		.text
 662              	.Letext0:
 663              		.file 2 "/home/texzk/ChibiStudio/tools/GNU Tools ARM Embedded/4.6 2012q2/bin/../lib/gcc/arm-none-e
 664              		.file 3 "../../os/various/lwip_bindings/arch/cc.h"
 665              		.file 4 "../../ext/lwip/src/include/lwip/err.h"
 666              		.file 5 "../../ext/lwip/src/include/lwip/pbuf.h"
 667              		.file 6 "../../ext/lwip/src/include/ipv4/lwip/ip_addr.h"
 668              		.file 7 "../../ext/lwip/src/include/lwip/netif.h"
 669              		.file 8 "../../ext/lwip/src/include/ipv4/lwip/icmp.h"
 670              		.file 9 "../../ext/lwip/src/include/ipv4/lwip/ip.h"
 671              		.file 10 "../../ext/lwip/src/include/lwip/mem.h"
 672              		.file 11 "../../ext/lwip/src/include/lwip/stats.h"
 673              		.section	.debug_info,"",%progbits
 674              	.Ldebug_info0:
 675 0000 C7080000 		.4byte	0x8c7
 676 0004 0200     		.2byte	0x2
 677 0006 00000000 		.4byte	.Ldebug_abbrev0
 678 000a 04       		.byte	0x4
 679 000b 01       		.uleb128 0x1
 680 000c 52020000 		.4byte	.LASF112
 681 0010 01       		.byte	0x1
ARM GAS  /tmp/ccCK5uA5.s 			page 13


 682 0011 9B020000 		.4byte	.LASF113
 683 0015 4F010000 		.4byte	.LASF114
 684 0019 00000000 		.4byte	0
 685 001d 00000000 		.4byte	0
 686 0021 18000000 		.4byte	.Ldebug_ranges0+0x18
 687 0025 00000000 		.4byte	.Ldebug_line0
 688 0029 02       		.uleb128 0x2
 689 002a 04       		.byte	0x4
 690 002b 05       		.byte	0x5
 691 002c 696E7400 		.ascii	"int\000"
 692 0030 03       		.uleb128 0x3
 693 0031 04       		.byte	0x4
 694 0032 07       		.byte	0x7
 695 0033 35000000 		.4byte	.LASF0
 696 0037 04       		.uleb128 0x4
 697 0038 EB000000 		.4byte	.LASF2
 698 003c 02       		.byte	0x2
 699 003d 29       		.byte	0x29
 700 003e 42000000 		.4byte	0x42
 701 0042 03       		.uleb128 0x3
 702 0043 01       		.byte	0x1
 703 0044 06       		.byte	0x6
 704 0045 80040000 		.4byte	.LASF1
 705 0049 04       		.uleb128 0x4
 706 004a BF020000 		.4byte	.LASF3
 707 004e 02       		.byte	0x2
 708 004f 2A       		.byte	0x2a
 709 0050 54000000 		.4byte	0x54
 710 0054 03       		.uleb128 0x3
 711 0055 01       		.byte	0x1
 712 0056 08       		.byte	0x8
 713 0057 1A040000 		.4byte	.LASF4
 714 005b 04       		.uleb128 0x4
 715 005c 0F010000 		.4byte	.LASF5
 716 0060 02       		.byte	0x2
 717 0061 35       		.byte	0x35
 718 0062 66000000 		.4byte	0x66
 719 0066 03       		.uleb128 0x3
 720 0067 02       		.byte	0x2
 721 0068 05       		.byte	0x5
 722 0069 65030000 		.4byte	.LASF6
 723 006d 04       		.uleb128 0x4
 724 006e 35030000 		.4byte	.LASF7
 725 0072 02       		.byte	0x2
 726 0073 36       		.byte	0x36
 727 0074 78000000 		.4byte	0x78
 728 0078 03       		.uleb128 0x3
 729 0079 02       		.byte	0x2
 730 007a 07       		.byte	0x7
 731 007b 8C040000 		.4byte	.LASF8
 732 007f 03       		.uleb128 0x3
 733 0080 04       		.byte	0x4
 734 0081 05       		.byte	0x5
 735 0082 74030000 		.4byte	.LASF9
 736 0086 04       		.uleb128 0x4
 737 0087 E2000000 		.4byte	.LASF10
 738 008b 02       		.byte	0x2
ARM GAS  /tmp/ccCK5uA5.s 			page 14


 739 008c 50       		.byte	0x50
 740 008d 91000000 		.4byte	0x91
 741 0091 03       		.uleb128 0x3
 742 0092 04       		.byte	0x4
 743 0093 07       		.byte	0x7
 744 0094 DD030000 		.4byte	.LASF11
 745 0098 03       		.uleb128 0x3
 746 0099 08       		.byte	0x8
 747 009a 05       		.byte	0x5
 748 009b EB020000 		.4byte	.LASF12
 749 009f 03       		.uleb128 0x3
 750 00a0 08       		.byte	0x8
 751 00a1 07       		.byte	0x7
 752 00a2 25010000 		.4byte	.LASF13
 753 00a6 05       		.uleb128 0x5
 754 00a7 04       		.byte	0x4
 755 00a8 03       		.uleb128 0x3
 756 00a9 01       		.byte	0x1
 757 00aa 08       		.byte	0x8
 758 00ab 27020000 		.4byte	.LASF14
 759 00af 04       		.uleb128 0x4
 760 00b0 F9020000 		.4byte	.LASF15
 761 00b4 03       		.byte	0x3
 762 00b5 3C       		.byte	0x3c
 763 00b6 49000000 		.4byte	0x49
 764 00ba 04       		.uleb128 0x4
 765 00bb 1D020000 		.4byte	.LASF16
 766 00bf 03       		.byte	0x3
 767 00c0 3D       		.byte	0x3d
 768 00c1 37000000 		.4byte	0x37
 769 00c5 04       		.uleb128 0x4
 770 00c6 6B000000 		.4byte	.LASF17
 771 00ca 03       		.byte	0x3
 772 00cb 3E       		.byte	0x3e
 773 00cc 6D000000 		.4byte	0x6d
 774 00d0 04       		.uleb128 0x4
 775 00d1 EF030000 		.4byte	.LASF18
 776 00d5 03       		.byte	0x3
 777 00d6 3F       		.byte	0x3f
 778 00d7 5B000000 		.4byte	0x5b
 779 00db 04       		.uleb128 0x4
 780 00dc 5F030000 		.4byte	.LASF19
 781 00e0 03       		.byte	0x3
 782 00e1 40       		.byte	0x40
 783 00e2 86000000 		.4byte	0x86
 784 00e6 04       		.uleb128 0x4
 785 00e7 5A000000 		.4byte	.LASF20
 786 00eb 04       		.byte	0x4
 787 00ec 2F       		.byte	0x2f
 788 00ed BA000000 		.4byte	0xba
 789 00f1 06       		.uleb128 0x6
 790 00f2 01       		.byte	0x1
 791 00f3 05       		.byte	0x5
 792 00f4 32       		.byte	0x32
 793 00f5 12010000 		.4byte	0x112
 794 00f9 07       		.uleb128 0x7
 795 00fa B0000000 		.4byte	.LASF21
ARM GAS  /tmp/ccCK5uA5.s 			page 15


 796 00fe 00       		.sleb128 0
 797 00ff 07       		.uleb128 0x7
 798 0100 FF010000 		.4byte	.LASF22
 799 0104 01       		.sleb128 1
 800 0105 07       		.uleb128 0x7
 801 0106 2B030000 		.4byte	.LASF23
 802 010a 02       		.sleb128 2
 803 010b 07       		.uleb128 0x7
 804 010c 26000000 		.4byte	.LASF24
 805 0110 03       		.sleb128 3
 806 0111 00       		.byte	0
 807 0112 06       		.uleb128 0x6
 808 0113 01       		.byte	0x1
 809 0114 05       		.byte	0x5
 810 0115 39       		.byte	0x39
 811 0116 33010000 		.4byte	0x133
 812 011a 07       		.uleb128 0x7
 813 011b 1D000000 		.4byte	.LASF25
 814 011f 00       		.sleb128 0
 815 0120 07       		.uleb128 0x7
 816 0121 C6040000 		.4byte	.LASF26
 817 0125 01       		.sleb128 1
 818 0126 07       		.uleb128 0x7
 819 0127 DF010000 		.4byte	.LASF27
 820 012b 02       		.sleb128 2
 821 012c 07       		.uleb128 0x7
 822 012d 13020000 		.4byte	.LASF28
 823 0131 03       		.sleb128 3
 824 0132 00       		.byte	0
 825 0133 08       		.uleb128 0x8
 826 0134 0E020000 		.4byte	.LASF34
 827 0138 10       		.byte	0x10
 828 0139 05       		.byte	0x5
 829 013a 49       		.byte	0x49
 830 013b A2010000 		.4byte	0x1a2
 831 013f 09       		.uleb128 0x9
 832 0140 42000000 		.4byte	.LASF29
 833 0144 05       		.byte	0x5
 834 0145 4B       		.byte	0x4b
 835 0146 A2010000 		.4byte	0x1a2
 836 014a 02       		.byte	0x2
 837 014b 23       		.byte	0x23
 838 014c 00       		.uleb128 0
 839 014d 09       		.uleb128 0x9
 840 014e F7010000 		.4byte	.LASF30
 841 0152 05       		.byte	0x5
 842 0153 4E       		.byte	0x4e
 843 0154 A6000000 		.4byte	0xa6
 844 0158 02       		.byte	0x2
 845 0159 23       		.byte	0x23
 846 015a 04       		.uleb128 0x4
 847 015b 09       		.uleb128 0x9
 848 015c EF010000 		.4byte	.LASF31
 849 0160 05       		.byte	0x5
 850 0161 57       		.byte	0x57
 851 0162 C5000000 		.4byte	0xc5
 852 0166 02       		.byte	0x2
ARM GAS  /tmp/ccCK5uA5.s 			page 16


 853 0167 23       		.byte	0x23
 854 0168 08       		.uleb128 0x8
 855 0169 0A       		.uleb128 0xa
 856 016a 6C656E00 		.ascii	"len\000"
 857 016e 05       		.byte	0x5
 858 016f 5A       		.byte	0x5a
 859 0170 C5000000 		.4byte	0xc5
 860 0174 02       		.byte	0x2
 861 0175 23       		.byte	0x23
 862 0176 0A       		.uleb128 0xa
 863 0177 09       		.uleb128 0x9
 864 0178 0B040000 		.4byte	.LASF32
 865 017c 05       		.byte	0x5
 866 017d 5D       		.byte	0x5d
 867 017e AF000000 		.4byte	0xaf
 868 0182 02       		.byte	0x2
 869 0183 23       		.byte	0x23
 870 0184 0C       		.uleb128 0xc
 871 0185 09       		.uleb128 0x9
 872 0186 2F000000 		.4byte	.LASF33
 873 018a 05       		.byte	0x5
 874 018b 60       		.byte	0x60
 875 018c AF000000 		.4byte	0xaf
 876 0190 02       		.byte	0x2
 877 0191 23       		.byte	0x23
 878 0192 0D       		.uleb128 0xd
 879 0193 0A       		.uleb128 0xa
 880 0194 72656600 		.ascii	"ref\000"
 881 0198 05       		.byte	0x5
 882 0199 67       		.byte	0x67
 883 019a C5000000 		.4byte	0xc5
 884 019e 02       		.byte	0x2
 885 019f 23       		.byte	0x23
 886 01a0 0E       		.uleb128 0xe
 887 01a1 00       		.byte	0
 888 01a2 0B       		.uleb128 0xb
 889 01a3 04       		.byte	0x4
 890 01a4 33010000 		.4byte	0x133
 891 01a8 08       		.uleb128 0x8
 892 01a9 D4040000 		.4byte	.LASF35
 893 01ad 04       		.byte	0x4
 894 01ae 06       		.byte	0x6
 895 01af 2C       		.byte	0x2c
 896 01b0 C3010000 		.4byte	0x1c3
 897 01b4 09       		.uleb128 0x9
 898 01b5 4A040000 		.4byte	.LASF36
 899 01b9 06       		.byte	0x6
 900 01ba 2D       		.byte	0x2d
 901 01bb DB000000 		.4byte	0xdb
 902 01bf 02       		.byte	0x2
 903 01c0 23       		.byte	0x23
 904 01c1 00       		.uleb128 0
 905 01c2 00       		.byte	0
 906 01c3 08       		.uleb128 0x8
 907 01c4 43020000 		.4byte	.LASF37
 908 01c8 04       		.byte	0x4
 909 01c9 06       		.byte	0x6
ARM GAS  /tmp/ccCK5uA5.s 			page 17


 910 01ca 36       		.byte	0x36
 911 01cb DE010000 		.4byte	0x1de
 912 01cf 09       		.uleb128 0x9
 913 01d0 4A040000 		.4byte	.LASF36
 914 01d4 06       		.byte	0x6
 915 01d5 37       		.byte	0x37
 916 01d6 DB000000 		.4byte	0xdb
 917 01da 02       		.byte	0x2
 918 01db 23       		.byte	0x23
 919 01dc 00       		.uleb128 0
 920 01dd 00       		.byte	0
 921 01de 04       		.uleb128 0x4
 922 01df BC040000 		.4byte	.LASF38
 923 01e3 06       		.byte	0x6
 924 01e4 40       		.byte	0x40
 925 01e5 A8010000 		.4byte	0x1a8
 926 01e9 04       		.uleb128 0x4
 927 01ea 2F040000 		.4byte	.LASF39
 928 01ee 06       		.byte	0x6
 929 01ef 41       		.byte	0x41
 930 01f0 C3010000 		.4byte	0x1c3
 931 01f4 0B       		.uleb128 0xb
 932 01f5 04       		.byte	0x4
 933 01f6 FA010000 		.4byte	0x1fa
 934 01fa 08       		.uleb128 0x8
 935 01fb 68040000 		.4byte	.LASF40
 936 01ff 30       		.byte	0x30
 937 0200 07       		.byte	0x7
 938 0201 88       		.byte	0x88
 939 0202 CA020000 		.4byte	0x2ca
 940 0206 09       		.uleb128 0x9
 941 0207 42000000 		.4byte	.LASF29
 942 020b 07       		.byte	0x7
 943 020c 8A       		.byte	0x8a
 944 020d F4010000 		.4byte	0x1f4
 945 0211 02       		.byte	0x2
 946 0212 23       		.byte	0x23
 947 0213 00       		.uleb128 0
 948 0214 09       		.uleb128 0x9
 949 0215 D4040000 		.4byte	.LASF35
 950 0219 07       		.byte	0x7
 951 021a 8D       		.byte	0x8d
 952 021b DE010000 		.4byte	0x1de
 953 021f 02       		.byte	0x2
 954 0220 23       		.byte	0x23
 955 0221 04       		.uleb128 0x4
 956 0222 09       		.uleb128 0x9
 957 0223 E3020000 		.4byte	.LASF41
 958 0227 07       		.byte	0x7
 959 0228 8E       		.byte	0x8e
 960 0229 DE010000 		.4byte	0x1de
 961 022d 02       		.byte	0x2
 962 022e 23       		.byte	0x23
 963 022f 08       		.uleb128 0x8
 964 0230 0A       		.uleb128 0xa
 965 0231 677700   		.ascii	"gw\000"
 966 0234 07       		.byte	0x7
ARM GAS  /tmp/ccCK5uA5.s 			page 18


 967 0235 8F       		.byte	0x8f
 968 0236 DE010000 		.4byte	0x1de
 969 023a 02       		.byte	0x2
 970 023b 23       		.byte	0x23
 971 023c 0C       		.uleb128 0xc
 972 023d 09       		.uleb128 0x9
 973 023e 17000000 		.4byte	.LASF42
 974 0242 07       		.byte	0x7
 975 0243 93       		.byte	0x93
 976 0244 CA020000 		.4byte	0x2ca
 977 0248 02       		.byte	0x2
 978 0249 23       		.byte	0x23
 979 024a 10       		.uleb128 0x10
 980 024b 09       		.uleb128 0x9
 981 024c 07020000 		.4byte	.LASF43
 982 0250 07       		.byte	0x7
 983 0251 97       		.byte	0x97
 984 0252 F0020000 		.4byte	0x2f0
 985 0256 02       		.byte	0x2
 986 0257 23       		.byte	0x23
 987 0258 14       		.uleb128 0x14
 988 0259 09       		.uleb128 0x9
 989 025a 60000000 		.4byte	.LASF44
 990 025e 07       		.byte	0x7
 991 025f 9B       		.byte	0x9b
 992 0260 21030000 		.4byte	0x321
 993 0264 02       		.byte	0x2
 994 0265 23       		.byte	0x23
 995 0266 18       		.uleb128 0x18
 996 0267 09       		.uleb128 0x9
 997 0268 62040000 		.4byte	.LASF45
 998 026c 07       		.byte	0x7
 999 026d A8       		.byte	0xa8
 1000 026e A6000000 		.4byte	0xa6
 1001 0272 02       		.byte	0x2
 1002 0273 23       		.byte	0x23
 1003 0274 1C       		.uleb128 0x1c
 1004 0275 0A       		.uleb128 0xa
 1005 0276 6D747500 		.ascii	"mtu\000"
 1006 027a 07       		.byte	0x7
 1007 027b B6       		.byte	0xb6
 1008 027c C5000000 		.4byte	0xc5
 1009 0280 02       		.byte	0x2
 1010 0281 23       		.byte	0x23
 1011 0282 20       		.uleb128 0x20
 1012 0283 09       		.uleb128 0x9
 1013 0284 C0010000 		.4byte	.LASF46
 1014 0288 07       		.byte	0x7
 1015 0289 B8       		.byte	0xb8
 1016 028a AF000000 		.4byte	0xaf
 1017 028e 02       		.byte	0x2
 1018 028f 23       		.byte	0x23
 1019 0290 22       		.uleb128 0x22
 1020 0291 09       		.uleb128 0x9
 1021 0292 17010000 		.4byte	.LASF47
 1022 0296 07       		.byte	0x7
 1023 0297 BA       		.byte	0xba
ARM GAS  /tmp/ccCK5uA5.s 			page 19


 1024 0298 47030000 		.4byte	0x347
 1025 029c 02       		.byte	0x2
 1026 029d 23       		.byte	0x23
 1027 029e 23       		.uleb128 0x23
 1028 029f 09       		.uleb128 0x9
 1029 02a0 2F000000 		.4byte	.LASF33
 1030 02a4 07       		.byte	0x7
 1031 02a5 BC       		.byte	0xbc
 1032 02a6 AF000000 		.4byte	0xaf
 1033 02aa 02       		.byte	0x2
 1034 02ab 23       		.byte	0x23
 1035 02ac 29       		.uleb128 0x29
 1036 02ad 09       		.uleb128 0x9
 1037 02ae AA030000 		.4byte	.LASF48
 1038 02b2 07       		.byte	0x7
 1039 02b3 BE       		.byte	0xbe
 1040 02b4 57030000 		.4byte	0x357
 1041 02b8 02       		.byte	0x2
 1042 02b9 23       		.byte	0x23
 1043 02ba 2A       		.uleb128 0x2a
 1044 02bb 0A       		.uleb128 0xa
 1045 02bc 6E756D00 		.ascii	"num\000"
 1046 02c0 07       		.byte	0x7
 1047 02c1 C0       		.byte	0xc0
 1048 02c2 AF000000 		.4byte	0xaf
 1049 02c6 02       		.byte	0x2
 1050 02c7 23       		.byte	0x23
 1051 02c8 2C       		.uleb128 0x2c
 1052 02c9 00       		.byte	0
 1053 02ca 04       		.uleb128 0x4
 1054 02cb D3000000 		.4byte	.LASF49
 1055 02cf 07       		.byte	0x7
 1056 02d0 6D       		.byte	0x6d
 1057 02d1 D5020000 		.4byte	0x2d5
 1058 02d5 0B       		.uleb128 0xb
 1059 02d6 04       		.byte	0x4
 1060 02d7 DB020000 		.4byte	0x2db
 1061 02db 0C       		.uleb128 0xc
 1062 02dc 01       		.byte	0x1
 1063 02dd E6000000 		.4byte	0xe6
 1064 02e1 F0020000 		.4byte	0x2f0
 1065 02e5 0D       		.uleb128 0xd
 1066 02e6 A2010000 		.4byte	0x1a2
 1067 02ea 0D       		.uleb128 0xd
 1068 02eb F4010000 		.4byte	0x1f4
 1069 02ef 00       		.byte	0
 1070 02f0 04       		.uleb128 0x4
 1071 02f1 8A000000 		.4byte	.LASF50
 1072 02f5 07       		.byte	0x7
 1073 02f6 76       		.byte	0x76
 1074 02f7 FB020000 		.4byte	0x2fb
 1075 02fb 0B       		.uleb128 0xb
 1076 02fc 04       		.byte	0x4
 1077 02fd 01030000 		.4byte	0x301
 1078 0301 0C       		.uleb128 0xc
 1079 0302 01       		.byte	0x1
 1080 0303 E6000000 		.4byte	0xe6
ARM GAS  /tmp/ccCK5uA5.s 			page 20


 1081 0307 1B030000 		.4byte	0x31b
 1082 030b 0D       		.uleb128 0xd
 1083 030c F4010000 		.4byte	0x1f4
 1084 0310 0D       		.uleb128 0xd
 1085 0311 A2010000 		.4byte	0x1a2
 1086 0315 0D       		.uleb128 0xd
 1087 0316 1B030000 		.4byte	0x31b
 1088 031a 00       		.byte	0
 1089 031b 0B       		.uleb128 0xb
 1090 031c 04       		.byte	0x4
 1091 031d DE010000 		.4byte	0x1de
 1092 0321 04       		.uleb128 0x4
 1093 0322 AF030000 		.4byte	.LASF51
 1094 0326 07       		.byte	0x7
 1095 0327 7E       		.byte	0x7e
 1096 0328 2C030000 		.4byte	0x32c
 1097 032c 0B       		.uleb128 0xb
 1098 032d 04       		.byte	0x4
 1099 032e 32030000 		.4byte	0x332
 1100 0332 0C       		.uleb128 0xc
 1101 0333 01       		.byte	0x1
 1102 0334 E6000000 		.4byte	0xe6
 1103 0338 47030000 		.4byte	0x347
 1104 033c 0D       		.uleb128 0xd
 1105 033d F4010000 		.4byte	0x1f4
 1106 0341 0D       		.uleb128 0xd
 1107 0342 A2010000 		.4byte	0x1a2
 1108 0346 00       		.byte	0
 1109 0347 0E       		.uleb128 0xe
 1110 0348 AF000000 		.4byte	0xaf
 1111 034c 57030000 		.4byte	0x357
 1112 0350 0F       		.uleb128 0xf
 1113 0351 30000000 		.4byte	0x30
 1114 0355 05       		.byte	0x5
 1115 0356 00       		.byte	0
 1116 0357 0E       		.uleb128 0xe
 1117 0358 A8000000 		.4byte	0xa8
 1118 035c 67030000 		.4byte	0x367
 1119 0360 0F       		.uleb128 0xf
 1120 0361 30000000 		.4byte	0x30
 1121 0365 01       		.byte	0x1
 1122 0366 00       		.byte	0
 1123 0367 10       		.uleb128 0x10
 1124 0368 C3030000 		.4byte	.LASF58
 1125 036c 01       		.byte	0x1
 1126 036d 08       		.byte	0x8
 1127 036e 38       		.byte	0x38
 1128 036f 98030000 		.4byte	0x398
 1129 0373 07       		.uleb128 0x7
 1130 0374 47000000 		.4byte	.LASF52
 1131 0378 00       		.sleb128 0
 1132 0379 07       		.uleb128 0x7
 1133 037a 09000000 		.4byte	.LASF53
 1134 037e 01       		.sleb128 1
 1135 037f 07       		.uleb128 0x7
 1136 0380 3B040000 		.4byte	.LASF54
 1137 0384 02       		.sleb128 2
ARM GAS  /tmp/ccCK5uA5.s 			page 21


 1138 0385 07       		.uleb128 0x7
 1139 0386 0A030000 		.4byte	.LASF55
 1140 038a 03       		.sleb128 3
 1141 038b 07       		.uleb128 0x7
 1142 038c 4F040000 		.4byte	.LASF56
 1143 0390 04       		.sleb128 4
 1144 0391 07       		.uleb128 0x7
 1145 0392 D3010000 		.4byte	.LASF57
 1146 0396 05       		.sleb128 5
 1147 0397 00       		.byte	0
 1148 0398 10       		.uleb128 0x10
 1149 0399 D6020000 		.4byte	.LASF59
 1150 039d 01       		.byte	0x1
 1151 039e 08       		.byte	0x8
 1152 039f 41       		.byte	0x41
 1153 03a0 B1030000 		.4byte	0x3b1
 1154 03a4 07       		.uleb128 0x7
 1155 03a5 9E030000 		.4byte	.LASF60
 1156 03a9 00       		.sleb128 0
 1157 03aa 07       		.uleb128 0x7
 1158 03ab 52030000 		.4byte	.LASF61
 1159 03af 01       		.sleb128 1
 1160 03b0 00       		.byte	0
 1161 03b1 08       		.uleb128 0x8
 1162 03b2 FD030000 		.4byte	.LASF62
 1163 03b6 08       		.byte	0x8
 1164 03b7 08       		.byte	0x8
 1165 03b8 4F       		.byte	0x4f
 1166 03b9 03040000 		.4byte	0x403
 1167 03bd 09       		.uleb128 0x9
 1168 03be 0B040000 		.4byte	.LASF32
 1169 03c2 08       		.byte	0x8
 1170 03c3 50       		.byte	0x50
 1171 03c4 AF000000 		.4byte	0xaf
 1172 03c8 02       		.byte	0x2
 1173 03c9 23       		.byte	0x23
 1174 03ca 00       		.uleb128 0
 1175 03cb 09       		.uleb128 0x9
 1176 03cc 22020000 		.4byte	.LASF63
 1177 03d0 08       		.byte	0x8
 1178 03d1 51       		.byte	0x51
 1179 03d2 AF000000 		.4byte	0xaf
 1180 03d6 02       		.byte	0x2
 1181 03d7 23       		.byte	0x23
 1182 03d8 01       		.uleb128 0x1
 1183 03d9 09       		.uleb128 0x9
 1184 03da 6E040000 		.4byte	.LASF64
 1185 03de 08       		.byte	0x8
 1186 03df 52       		.byte	0x52
 1187 03e0 C5000000 		.4byte	0xc5
 1188 03e4 02       		.byte	0x2
 1189 03e5 23       		.byte	0x23
 1190 03e6 02       		.uleb128 0x2
 1191 03e7 0A       		.uleb128 0xa
 1192 03e8 696400   		.ascii	"id\000"
 1193 03eb 08       		.byte	0x8
 1194 03ec 53       		.byte	0x53
ARM GAS  /tmp/ccCK5uA5.s 			page 22


 1195 03ed C5000000 		.4byte	0xc5
 1196 03f1 02       		.byte	0x2
 1197 03f2 23       		.byte	0x23
 1198 03f3 04       		.uleb128 0x4
 1199 03f4 09       		.uleb128 0x9
 1200 03f5 CD000000 		.4byte	.LASF65
 1201 03f9 08       		.byte	0x8
 1202 03fa 54       		.byte	0x54
 1203 03fb C5000000 		.4byte	0xc5
 1204 03ff 02       		.byte	0x2
 1205 0400 23       		.byte	0x23
 1206 0401 06       		.uleb128 0x6
 1207 0402 00       		.byte	0
 1208 0403 08       		.uleb128 0x8
 1209 0404 97030000 		.4byte	.LASF66
 1210 0408 14       		.byte	0x14
 1211 0409 09       		.byte	0x9
 1212 040a 74       		.byte	0x74
 1213 040b 8E040000 		.4byte	0x48e
 1214 040f 09       		.uleb128 0x9
 1215 0410 48030000 		.4byte	.LASF67
 1216 0414 09       		.byte	0x9
 1217 0415 76       		.byte	0x76
 1218 0416 C5000000 		.4byte	0xc5
 1219 041a 02       		.byte	0x2
 1220 041b 23       		.byte	0x23
 1221 041c 00       		.uleb128 0
 1222 041d 09       		.uleb128 0x9
 1223 041e B7040000 		.4byte	.LASF68
 1224 0422 09       		.byte	0x9
 1225 0423 78       		.byte	0x78
 1226 0424 C5000000 		.4byte	0xc5
 1227 0428 02       		.byte	0x2
 1228 0429 23       		.byte	0x23
 1229 042a 02       		.uleb128 0x2
 1230 042b 0A       		.uleb128 0xa
 1231 042c 5F696400 		.ascii	"_id\000"
 1232 0430 09       		.byte	0x9
 1233 0431 7A       		.byte	0x7a
 1234 0432 C5000000 		.4byte	0xc5
 1235 0436 02       		.byte	0x2
 1236 0437 23       		.byte	0x23
 1237 0438 04       		.uleb128 0x4
 1238 0439 09       		.uleb128 0x9
 1239 043a CB010000 		.4byte	.LASF69
 1240 043e 09       		.byte	0x9
 1241 043f 7C       		.byte	0x7c
 1242 0440 C5000000 		.4byte	0xc5
 1243 0444 02       		.byte	0x2
 1244 0445 23       		.byte	0x23
 1245 0446 06       		.uleb128 0x6
 1246 0447 09       		.uleb128 0x9
 1247 0448 71000000 		.4byte	.LASF70
 1248 044c 09       		.byte	0x9
 1249 044d 82       		.byte	0x82
 1250 044e AF000000 		.4byte	0xaf
 1251 0452 02       		.byte	0x2
ARM GAS  /tmp/ccCK5uA5.s 			page 23


 1252 0453 23       		.byte	0x23
 1253 0454 08       		.uleb128 0x8
 1254 0455 09       		.uleb128 0x9
 1255 0456 C7020000 		.4byte	.LASF71
 1256 045a 09       		.byte	0x9
 1257 045b 84       		.byte	0x84
 1258 045c AF000000 		.4byte	0xaf
 1259 0460 02       		.byte	0x2
 1260 0461 23       		.byte	0x23
 1261 0462 09       		.uleb128 0x9
 1262 0463 09       		.uleb128 0x9
 1263 0464 B8010000 		.4byte	.LASF72
 1264 0468 09       		.byte	0x9
 1265 0469 86       		.byte	0x86
 1266 046a C5000000 		.4byte	0xc5
 1267 046e 02       		.byte	0x2
 1268 046f 23       		.byte	0x23
 1269 0470 0A       		.uleb128 0xa
 1270 0471 0A       		.uleb128 0xa
 1271 0472 73726300 		.ascii	"src\000"
 1272 0476 09       		.byte	0x9
 1273 0477 88       		.byte	0x88
 1274 0478 E9010000 		.4byte	0x1e9
 1275 047c 02       		.byte	0x2
 1276 047d 23       		.byte	0x23
 1277 047e 0C       		.uleb128 0xc
 1278 047f 09       		.uleb128 0x9
 1279 0480 CF040000 		.4byte	.LASF73
 1280 0484 09       		.byte	0x9
 1281 0485 89       		.byte	0x89
 1282 0486 E9010000 		.4byte	0x1e9
 1283 048a 02       		.byte	0x2
 1284 048b 23       		.byte	0x23
 1285 048c 10       		.uleb128 0x10
 1286 048d 00       		.byte	0
 1287 048e 04       		.uleb128 0x4
 1288 048f 2C020000 		.4byte	.LASF74
 1289 0493 0A       		.byte	0xa
 1290 0494 4B       		.byte	0x4b
 1291 0495 C5000000 		.4byte	0xc5
 1292 0499 08       		.uleb128 0x8
 1293 049a 37020000 		.4byte	.LASF75
 1294 049e 18       		.byte	0x18
 1295 049f 0B       		.byte	0xb
 1296 04a0 3A       		.byte	0x3a
 1297 04a1 4D050000 		.4byte	0x54d
 1298 04a5 09       		.uleb128 0x9
 1299 04a6 9F040000 		.4byte	.LASF76
 1300 04aa 0B       		.byte	0xb
 1301 04ab 3B       		.byte	0x3b
 1302 04ac C5000000 		.4byte	0xc5
 1303 04b0 02       		.byte	0x2
 1304 04b1 23       		.byte	0x23
 1305 04b2 00       		.uleb128 0
 1306 04b3 09       		.uleb128 0x9
 1307 04b4 7B040000 		.4byte	.LASF77
 1308 04b8 0B       		.byte	0xb
ARM GAS  /tmp/ccCK5uA5.s 			page 24


 1309 04b9 3C       		.byte	0x3c
 1310 04ba C5000000 		.4byte	0xc5
 1311 04be 02       		.byte	0x2
 1312 04bf 23       		.byte	0x23
 1313 04c0 02       		.uleb128 0x2
 1314 04c1 0A       		.uleb128 0xa
 1315 04c2 667700   		.ascii	"fw\000"
 1316 04c5 0B       		.byte	0xb
 1317 04c6 3D       		.byte	0x3d
 1318 04c7 C5000000 		.4byte	0xc5
 1319 04cb 02       		.byte	0x2
 1320 04cc 23       		.byte	0x23
 1321 04cd 04       		.uleb128 0x4
 1322 04ce 09       		.uleb128 0x9
 1323 04cf 5D040000 		.4byte	.LASF78
 1324 04d3 0B       		.byte	0xb
 1325 04d4 3E       		.byte	0x3e
 1326 04d5 C5000000 		.4byte	0xc5
 1327 04d9 02       		.byte	0x2
 1328 04da 23       		.byte	0x23
 1329 04db 06       		.uleb128 0x6
 1330 04dc 09       		.uleb128 0x9
 1331 04dd 03030000 		.4byte	.LASF79
 1332 04e1 0B       		.byte	0xb
 1333 04e2 3F       		.byte	0x3f
 1334 04e3 C5000000 		.4byte	0xc5
 1335 04e7 02       		.byte	0x2
 1336 04e8 23       		.byte	0x23
 1337 04e9 08       		.uleb128 0x8
 1338 04ea 09       		.uleb128 0x9
 1339 04eb D6030000 		.4byte	.LASF80
 1340 04ef 0B       		.byte	0xb
 1341 04f0 40       		.byte	0x40
 1342 04f1 C5000000 		.4byte	0xc5
 1343 04f5 02       		.byte	0x2
 1344 04f6 23       		.byte	0x23
 1345 04f7 0A       		.uleb128 0xa
 1346 04f8 09       		.uleb128 0x9
 1347 04f9 28040000 		.4byte	.LASF81
 1348 04fd 0B       		.byte	0xb
 1349 04fe 41       		.byte	0x41
 1350 04ff C5000000 		.4byte	0xc5
 1351 0503 02       		.byte	0x2
 1352 0504 23       		.byte	0x23
 1353 0505 0C       		.uleb128 0xc
 1354 0506 09       		.uleb128 0x9
 1355 0507 7D030000 		.4byte	.LASF82
 1356 050b 0B       		.byte	0xb
 1357 050c 42       		.byte	0x42
 1358 050d C5000000 		.4byte	0xc5
 1359 0511 02       		.byte	0x2
 1360 0512 23       		.byte	0x23
 1361 0513 0E       		.uleb128 0xe
 1362 0514 09       		.uleb128 0x9
 1363 0515 F5030000 		.4byte	.LASF83
 1364 0519 0B       		.byte	0xb
 1365 051a 43       		.byte	0x43
ARM GAS  /tmp/ccCK5uA5.s 			page 25


 1366 051b C5000000 		.4byte	0xc5
 1367 051f 02       		.byte	0x2
 1368 0520 23       		.byte	0x23
 1369 0521 10       		.uleb128 0x10
 1370 0522 09       		.uleb128 0x9
 1371 0523 F2000000 		.4byte	.LASF84
 1372 0527 0B       		.byte	0xb
 1373 0528 44       		.byte	0x44
 1374 0529 C5000000 		.4byte	0xc5
 1375 052d 02       		.byte	0x2
 1376 052e 23       		.byte	0x23
 1377 052f 12       		.uleb128 0x12
 1378 0530 0A       		.uleb128 0xa
 1379 0531 65727200 		.ascii	"err\000"
 1380 0535 0B       		.byte	0xb
 1381 0536 45       		.byte	0x45
 1382 0537 C5000000 		.4byte	0xc5
 1383 053b 02       		.byte	0x2
 1384 053c 23       		.byte	0x23
 1385 053d 14       		.uleb128 0x14
 1386 053e 09       		.uleb128 0x9
 1387 053f 8E030000 		.4byte	.LASF85
 1388 0543 0B       		.byte	0xb
 1389 0544 46       		.byte	0x46
 1390 0545 C5000000 		.4byte	0xc5
 1391 0549 02       		.byte	0x2
 1392 054a 23       		.byte	0x23
 1393 054b 16       		.uleb128 0x16
 1394 054c 00       		.byte	0
 1395 054d 08       		.uleb128 0x8
 1396 054e 7B000000 		.4byte	.LASF86
 1397 0552 0A       		.byte	0xa
 1398 0553 0B       		.byte	0xb
 1399 0554 5A       		.byte	0x5a
 1400 0555 A0050000 		.4byte	0x5a0
 1401 0559 09       		.uleb128 0x9
 1402 055a 83030000 		.4byte	.LASF87
 1403 055e 0B       		.byte	0xb
 1404 055f 5E       		.byte	0x5e
 1405 0560 8E040000 		.4byte	0x48e
 1406 0564 02       		.byte	0x2
 1407 0565 23       		.byte	0x23
 1408 0566 00       		.uleb128 0
 1409 0567 09       		.uleb128 0x9
 1410 0568 FE020000 		.4byte	.LASF88
 1411 056c 0B       		.byte	0xb
 1412 056d 5F       		.byte	0x5f
 1413 056e 8E040000 		.4byte	0x48e
 1414 0572 02       		.byte	0x2
 1415 0573 23       		.byte	0x23
 1416 0574 02       		.uleb128 0x2
 1417 0575 0A       		.uleb128 0xa
 1418 0576 6D617800 		.ascii	"max\000"
 1419 057a 0B       		.byte	0xb
 1420 057b 60       		.byte	0x60
 1421 057c 8E040000 		.4byte	0x48e
 1422 0580 02       		.byte	0x2
ARM GAS  /tmp/ccCK5uA5.s 			page 26


 1423 0581 23       		.byte	0x23
 1424 0582 04       		.uleb128 0x4
 1425 0583 0A       		.uleb128 0xa
 1426 0584 65727200 		.ascii	"err\000"
 1427 0588 0B       		.byte	0xb
 1428 0589 61       		.byte	0x61
 1429 058a C5000000 		.4byte	0xc5
 1430 058e 02       		.byte	0x2
 1431 058f 23       		.byte	0x23
 1432 0590 06       		.uleb128 0x6
 1433 0591 09       		.uleb128 0x9
 1434 0592 07010000 		.4byte	.LASF89
 1435 0596 0B       		.byte	0xb
 1436 0597 62       		.byte	0x62
 1437 0598 C5000000 		.4byte	0xc5
 1438 059c 02       		.byte	0x2
 1439 059d 23       		.byte	0x23
 1440 059e 08       		.uleb128 0x8
 1441 059f 00       		.byte	0
 1442 05a0 08       		.uleb128 0x8
 1443 05a1 BF000000 		.4byte	.LASF90
 1444 05a5 06       		.byte	0x6
 1445 05a6 0B       		.byte	0xb
 1446 05a7 65       		.byte	0x65
 1447 05a8 D7050000 		.4byte	0x5d7
 1448 05ac 09       		.uleb128 0x9
 1449 05ad FE020000 		.4byte	.LASF88
 1450 05b1 0B       		.byte	0xb
 1451 05b2 66       		.byte	0x66
 1452 05b3 C5000000 		.4byte	0xc5
 1453 05b7 02       		.byte	0x2
 1454 05b8 23       		.byte	0x23
 1455 05b9 00       		.uleb128 0
 1456 05ba 0A       		.uleb128 0xa
 1457 05bb 6D617800 		.ascii	"max\000"
 1458 05bf 0B       		.byte	0xb
 1459 05c0 67       		.byte	0x67
 1460 05c1 C5000000 		.4byte	0xc5
 1461 05c5 02       		.byte	0x2
 1462 05c6 23       		.byte	0x23
 1463 05c7 02       		.uleb128 0x2
 1464 05c8 0A       		.uleb128 0xa
 1465 05c9 65727200 		.ascii	"err\000"
 1466 05cd 0B       		.byte	0xb
 1467 05ce 68       		.byte	0x68
 1468 05cf C5000000 		.4byte	0xc5
 1469 05d3 02       		.byte	0x2
 1470 05d4 23       		.byte	0x23
 1471 05d5 04       		.uleb128 0x4
 1472 05d6 00       		.byte	0
 1473 05d7 08       		.uleb128 0x8
 1474 05d8 10040000 		.4byte	.LASF91
 1475 05dc 12       		.byte	0x12
 1476 05dd 0B       		.byte	0xb
 1477 05de 6B       		.byte	0x6b
 1478 05df 0E060000 		.4byte	0x60e
 1479 05e3 0A       		.uleb128 0xa
ARM GAS  /tmp/ccCK5uA5.s 			page 27


 1480 05e4 73656D00 		.ascii	"sem\000"
 1481 05e8 0B       		.byte	0xb
 1482 05e9 6C       		.byte	0x6c
 1483 05ea A0050000 		.4byte	0x5a0
 1484 05ee 02       		.byte	0x2
 1485 05ef 23       		.byte	0x23
 1486 05f0 00       		.uleb128 0
 1487 05f1 09       		.uleb128 0x9
 1488 05f2 F9000000 		.4byte	.LASF92
 1489 05f6 0B       		.byte	0xb
 1490 05f7 6D       		.byte	0x6d
 1491 05f8 A0050000 		.4byte	0x5a0
 1492 05fc 02       		.byte	0x2
 1493 05fd 23       		.byte	0x23
 1494 05fe 06       		.uleb128 0x6
 1495 05ff 09       		.uleb128 0x9
 1496 0600 89030000 		.4byte	.LASF93
 1497 0604 0B       		.byte	0xb
 1498 0605 6E       		.byte	0x6e
 1499 0606 A0050000 		.4byte	0x5a0
 1500 060a 02       		.byte	0x2
 1501 060b 23       		.byte	0x23
 1502 060c 0C       		.uleb128 0xc
 1503 060d 00       		.byte	0
 1504 060e 11       		.uleb128 0x11
 1505 060f E8010000 		.4byte	.LASF94
 1506 0613 5001     		.2byte	0x150
 1507 0615 0B       		.byte	0xb
 1508 0616 71       		.byte	0x71
 1509 0617 AB060000 		.4byte	0x6ab
 1510 061b 09       		.uleb128 0x9
 1511 061c 76000000 		.4byte	.LASF95
 1512 0620 0B       		.byte	0xb
 1513 0621 73       		.byte	0x73
 1514 0622 99040000 		.4byte	0x499
 1515 0626 02       		.byte	0x2
 1516 0627 23       		.byte	0x23
 1517 0628 00       		.uleb128 0
 1518 0629 09       		.uleb128 0x9
 1519 062a 1E010000 		.4byte	.LASF96
 1520 062e 0B       		.byte	0xb
 1521 062f 76       		.byte	0x76
 1522 0630 99040000 		.4byte	0x499
 1523 0634 02       		.byte	0x2
 1524 0635 23       		.byte	0x23
 1525 0636 18       		.uleb128 0x18
 1526 0637 09       		.uleb128 0x9
 1527 0638 FF000000 		.4byte	.LASF97
 1528 063c 0B       		.byte	0xb
 1529 063d 79       		.byte	0x79
 1530 063e 99040000 		.4byte	0x499
 1531 0642 02       		.byte	0x2
 1532 0643 23       		.byte	0x23
 1533 0644 30       		.uleb128 0x30
 1534 0645 0A       		.uleb128 0xa
 1535 0646 697000   		.ascii	"ip\000"
 1536 0649 0B       		.byte	0xb
ARM GAS  /tmp/ccCK5uA5.s 			page 28


 1537 064a 7C       		.byte	0x7c
 1538 064b 99040000 		.4byte	0x499
 1539 064f 02       		.byte	0x2
 1540 0650 23       		.byte	0x23
 1541 0651 48       		.uleb128 0x48
 1542 0652 09       		.uleb128 0x9
 1543 0653 6F030000 		.4byte	.LASF98
 1544 0657 0B       		.byte	0xb
 1545 0658 7F       		.byte	0x7f
 1546 0659 99040000 		.4byte	0x499
 1547 065d 02       		.byte	0x2
 1548 065e 23       		.byte	0x23
 1549 065f 60       		.uleb128 0x60
 1550 0660 0A       		.uleb128 0xa
 1551 0661 75647000 		.ascii	"udp\000"
 1552 0665 0B       		.byte	0xb
 1553 0666 85       		.byte	0x85
 1554 0667 99040000 		.4byte	0x499
 1555 066b 02       		.byte	0x2
 1556 066c 23       		.byte	0x23
 1557 066d 78       		.uleb128 0x78
 1558 066e 0A       		.uleb128 0xa
 1559 066f 74637000 		.ascii	"tcp\000"
 1560 0673 0B       		.byte	0xb
 1561 0674 88       		.byte	0x88
 1562 0675 99040000 		.4byte	0x499
 1563 0679 03       		.byte	0x3
 1564 067a 23       		.byte	0x23
 1565 067b 9001     		.uleb128 0x90
 1566 067d 0A       		.uleb128 0xa
 1567 067e 6D656D00 		.ascii	"mem\000"
 1568 0682 0B       		.byte	0xb
 1569 0683 8B       		.byte	0x8b
 1570 0684 4D050000 		.4byte	0x54d
 1571 0688 03       		.byte	0x3
 1572 0689 23       		.byte	0x23
 1573 068a A801     		.uleb128 0xa8
 1574 068c 09       		.uleb128 0x9
 1575 068d D1030000 		.4byte	.LASF99
 1576 0691 0B       		.byte	0xb
 1577 0692 8E       		.byte	0x8e
 1578 0693 AB060000 		.4byte	0x6ab
 1579 0697 03       		.byte	0x3
 1580 0698 23       		.byte	0x23
 1581 0699 B201     		.uleb128 0xb2
 1582 069b 0A       		.uleb128 0xa
 1583 069c 73797300 		.ascii	"sys\000"
 1584 06a0 0B       		.byte	0xb
 1585 06a1 91       		.byte	0x91
 1586 06a2 D7050000 		.4byte	0x5d7
 1587 06a6 03       		.byte	0x3
 1588 06a7 23       		.byte	0x23
 1589 06a8 BE02     		.uleb128 0x13e
 1590 06aa 00       		.byte	0
 1591 06ab 0E       		.uleb128 0xe
 1592 06ac 4D050000 		.4byte	0x54d
 1593 06b0 BB060000 		.4byte	0x6bb
ARM GAS  /tmp/ccCK5uA5.s 			page 29


 1594 06b4 0F       		.uleb128 0xf
 1595 06b5 30000000 		.4byte	0x30
 1596 06b9 0D       		.byte	0xd
 1597 06ba 00       		.byte	0
 1598 06bb 12       		.uleb128 0x12
 1599 06bc 01       		.byte	0x1
 1600 06bd A5000000 		.4byte	.LASF104
 1601 06c1 01       		.byte	0x1
 1602 06c2 4D       		.byte	0x4d
 1603 06c3 01       		.byte	0x1
 1604 06c4 00000000 		.4byte	.LFB7
 1605 06c8 72030000 		.4byte	.LFE7
 1606 06cc 00000000 		.4byte	.LLST0
 1607 06d0 87070000 		.4byte	0x787
 1608 06d4 13       		.uleb128 0x13
 1609 06d5 7000     		.ascii	"p\000"
 1610 06d7 01       		.byte	0x1
 1611 06d8 4D       		.byte	0x4d
 1612 06d9 A2010000 		.4byte	0x1a2
 1613 06dd 02       		.byte	0x2
 1614 06de 91       		.byte	0x91
 1615 06df 5C       		.sleb128 -36
 1616 06e0 13       		.uleb128 0x13
 1617 06e1 696E7000 		.ascii	"inp\000"
 1618 06e5 01       		.byte	0x1
 1619 06e6 4D       		.byte	0x4d
 1620 06e7 F4010000 		.4byte	0x1f4
 1621 06eb 02       		.byte	0x2
 1622 06ec 91       		.byte	0x91
 1623 06ed 58       		.sleb128 -40
 1624 06ee 14       		.uleb128 0x14
 1625 06ef 0B040000 		.4byte	.LASF32
 1626 06f3 01       		.byte	0x1
 1627 06f4 4F       		.byte	0x4f
 1628 06f5 AF000000 		.4byte	0xaf
 1629 06f9 02       		.byte	0x2
 1630 06fa 91       		.byte	0x91
 1631 06fb 6D       		.sleb128 -19
 1632 06fc 14       		.uleb128 0x14
 1633 06fd 54000000 		.4byte	.LASF100
 1634 0701 01       		.byte	0x1
 1635 0702 53       		.byte	0x53
 1636 0703 87070000 		.4byte	0x787
 1637 0707 02       		.byte	0x2
 1638 0708 91       		.byte	0x91
 1639 0709 64       		.sleb128 -28
 1640 070a 14       		.uleb128 0x14
 1641 070b 75040000 		.4byte	.LASF101
 1642 070f 01       		.byte	0x1
 1643 0710 54       		.byte	0x54
 1644 0711 8D070000 		.4byte	0x78d
 1645 0715 02       		.byte	0x2
 1646 0716 91       		.byte	0x91
 1647 0717 74       		.sleb128 -12
 1648 0718 14       		.uleb128 0x14
 1649 0719 85000000 		.4byte	.LASF102
 1650 071d 01       		.byte	0x1
ARM GAS  /tmp/ccCK5uA5.s 			page 30


 1651 071e 55       		.byte	0x55
 1652 071f D0000000 		.4byte	0xd0
 1653 0723 02       		.byte	0x2
 1654 0724 91       		.byte	0x91
 1655 0725 6E       		.sleb128 -18
 1656 0726 15       		.uleb128 0x15
 1657 0727 D6030000 		.4byte	.LASF80
 1658 072b 01       		.byte	0x1
 1659 072c E9       		.byte	0xe9
 1660 072d 20030000 		.4byte	.L2
 1661 0731 15       		.uleb128 0x15
 1662 0732 28040000 		.4byte	.LASF81
 1663 0736 01       		.byte	0x1
 1664 0737 EF       		.byte	0xef
 1665 0738 48030000 		.4byte	.L15
 1666 073c 16       		.uleb128 0x16
 1667 073d 92000000 		.4byte	.LBB2
 1668 0741 FA000000 		.4byte	.LBE2
 1669 0745 58070000 		.4byte	0x758
 1670 0749 14       		.uleb128 0x14
 1671 074a 00000000 		.4byte	.LASF103
 1672 074e 01       		.byte	0x1
 1673 074f 6E       		.byte	0x6e
 1674 0750 29000000 		.4byte	0x29
 1675 0754 02       		.byte	0x2
 1676 0755 91       		.byte	0x91
 1677 0756 70       		.sleb128 -16
 1678 0757 00       		.byte	0
 1679 0758 17       		.uleb128 0x17
 1680 0759 00000000 		.4byte	.Ldebug_ranges0+0
 1681 075d 6E070000 		.4byte	0x76e
 1682 0761 18       		.uleb128 0x18
 1683 0762 7200     		.ascii	"r\000"
 1684 0764 01       		.byte	0x1
 1685 0765 95       		.byte	0x95
 1686 0766 A2010000 		.4byte	0x1a2
 1687 076a 02       		.byte	0x2
 1688 076b 91       		.byte	0x91
 1689 076c 68       		.sleb128 -24
 1690 076d 00       		.byte	0
 1691 076e 19       		.uleb128 0x19
 1692 076f A8020000 		.4byte	.LBB4
 1693 0773 D4020000 		.4byte	.LBE4
 1694 0777 18       		.uleb128 0x18
 1695 0778 72657400 		.ascii	"ret\000"
 1696 077c 01       		.byte	0x1
 1697 077d D8       		.byte	0xd8
 1698 077e E6000000 		.4byte	0xe6
 1699 0782 02       		.byte	0x2
 1700 0783 91       		.byte	0x91
 1701 0784 63       		.sleb128 -29
 1702 0785 00       		.byte	0
 1703 0786 00       		.byte	0
 1704 0787 0B       		.uleb128 0xb
 1705 0788 04       		.byte	0x4
 1706 0789 B1030000 		.4byte	0x3b1
 1707 078d 0B       		.uleb128 0xb
ARM GAS  /tmp/ccCK5uA5.s 			page 31


 1708 078e 04       		.byte	0x4
 1709 078f 03040000 		.4byte	0x403
 1710 0793 1A       		.uleb128 0x1a
 1711 0794 01       		.byte	0x1
 1712 0795 94010000 		.4byte	.LASF105
 1713 0799 01       		.byte	0x1
 1714 079a 0101     		.2byte	0x101
 1715 079c 01       		.byte	0x1
 1716 079d 00000000 		.4byte	.LFB8
 1717 07a1 20000000 		.4byte	.LFE8
 1718 07a5 2C000000 		.4byte	.LLST1
 1719 07a9 C8070000 		.4byte	0x7c8
 1720 07ad 1B       		.uleb128 0x1b
 1721 07ae 7000     		.ascii	"p\000"
 1722 07b0 01       		.byte	0x1
 1723 07b1 0101     		.2byte	0x101
 1724 07b3 A2010000 		.4byte	0x1a2
 1725 07b7 02       		.byte	0x2
 1726 07b8 91       		.byte	0x91
 1727 07b9 74       		.sleb128 -12
 1728 07ba 1B       		.uleb128 0x1b
 1729 07bb 7400     		.ascii	"t\000"
 1730 07bd 01       		.byte	0x1
 1731 07be 0101     		.2byte	0x101
 1732 07c0 67030000 		.4byte	0x367
 1733 07c4 02       		.byte	0x2
 1734 07c5 91       		.byte	0x91
 1735 07c6 73       		.sleb128 -13
 1736 07c7 00       		.byte	0
 1737 07c8 1A       		.uleb128 0x1a
 1738 07c9 01       		.byte	0x1
 1739 07ca 3C010000 		.4byte	.LASF106
 1740 07ce 01       		.byte	0x1
 1741 07cf 0F01     		.2byte	0x10f
 1742 07d1 01       		.byte	0x1
 1743 07d2 00000000 		.4byte	.LFB9
 1744 07d6 20000000 		.4byte	.LFE9
 1745 07da 58000000 		.4byte	.LLST2
 1746 07de FD070000 		.4byte	0x7fd
 1747 07e2 1B       		.uleb128 0x1b
 1748 07e3 7000     		.ascii	"p\000"
 1749 07e5 01       		.byte	0x1
 1750 07e6 0F01     		.2byte	0x10f
 1751 07e8 A2010000 		.4byte	0x1a2
 1752 07ec 02       		.byte	0x2
 1753 07ed 91       		.byte	0x91
 1754 07ee 74       		.sleb128 -12
 1755 07ef 1B       		.uleb128 0x1b
 1756 07f0 7400     		.ascii	"t\000"
 1757 07f2 01       		.byte	0x1
 1758 07f3 0F01     		.2byte	0x10f
 1759 07f5 98030000 		.4byte	0x398
 1760 07f9 02       		.byte	0x2
 1761 07fa 91       		.byte	0x91
 1762 07fb 73       		.sleb128 -13
 1763 07fc 00       		.byte	0
 1764 07fd 1C       		.uleb128 0x1c
ARM GAS  /tmp/ccCK5uA5.s 			page 32


 1765 07fe 18030000 		.4byte	.LASF115
 1766 0802 01       		.byte	0x1
 1767 0803 1F01     		.2byte	0x11f
 1768 0805 01       		.byte	0x1
 1769 0806 00000000 		.4byte	.LFB10
 1770 080a 00010000 		.4byte	.LFE10
 1771 080e 84000000 		.4byte	.LLST3
 1772 0812 7C080000 		.4byte	0x87c
 1773 0816 1B       		.uleb128 0x1b
 1774 0817 7000     		.ascii	"p\000"
 1775 0819 01       		.byte	0x1
 1776 081a 1F01     		.2byte	0x11f
 1777 081c A2010000 		.4byte	0x1a2
 1778 0820 02       		.byte	0x2
 1779 0821 91       		.byte	0x91
 1780 0822 64       		.sleb128 -28
 1781 0823 1D       		.uleb128 0x1d
 1782 0824 0B040000 		.4byte	.LASF32
 1783 0828 01       		.byte	0x1
 1784 0829 1F01     		.2byte	0x11f
 1785 082b AF000000 		.4byte	0xaf
 1786 082f 02       		.byte	0x2
 1787 0830 91       		.byte	0x91
 1788 0831 63       		.sleb128 -29
 1789 0832 1D       		.uleb128 0x1d
 1790 0833 22020000 		.4byte	.LASF63
 1791 0837 01       		.byte	0x1
 1792 0838 1F01     		.2byte	0x11f
 1793 083a AF000000 		.4byte	0xaf
 1794 083e 02       		.byte	0x2
 1795 083f 91       		.byte	0x91
 1796 0840 62       		.sleb128 -30
 1797 0841 1E       		.uleb128 0x1e
 1798 0842 7100     		.ascii	"q\000"
 1799 0844 01       		.byte	0x1
 1800 0845 2101     		.2byte	0x121
 1801 0847 A2010000 		.4byte	0x1a2
 1802 084b 02       		.byte	0x2
 1803 084c 91       		.byte	0x91
 1804 084d 74       		.sleb128 -12
 1805 084e 1F       		.uleb128 0x1f
 1806 084f 75040000 		.4byte	.LASF101
 1807 0853 01       		.byte	0x1
 1808 0854 2201     		.2byte	0x122
 1809 0856 8D070000 		.4byte	0x78d
 1810 085a 02       		.byte	0x2
 1811 085b 91       		.byte	0x91
 1812 085c 70       		.sleb128 -16
 1813 085d 1F       		.uleb128 0x1f
 1814 085e CE020000 		.4byte	.LASF107
 1815 0862 01       		.byte	0x1
 1816 0863 2401     		.2byte	0x124
 1817 0865 87070000 		.4byte	0x787
 1818 0869 02       		.byte	0x2
 1819 086a 91       		.byte	0x91
 1820 086b 6C       		.sleb128 -20
 1821 086c 1F       		.uleb128 0x1f
ARM GAS  /tmp/ccCK5uA5.s 			page 33


 1822 086d 3E030000 		.4byte	.LASF108
 1823 0871 01       		.byte	0x1
 1824 0872 2501     		.2byte	0x125
 1825 0874 DE010000 		.4byte	0x1de
 1826 0878 02       		.byte	0x2
 1827 0879 91       		.byte	0x91
 1828 087a 68       		.sleb128 -24
 1829 087b 00       		.byte	0
 1830 087c 20       		.uleb128 0x20
 1831 087d A6010000 		.4byte	.LASF109
 1832 0881 09       		.byte	0x9
 1833 0882 A7       		.byte	0xa7
 1834 0883 DE010000 		.4byte	0x1de
 1835 0887 01       		.byte	0x1
 1836 0888 01       		.byte	0x1
 1837 0889 20       		.uleb128 0x20
 1838 088a A4040000 		.4byte	.LASF110
 1839 088e 09       		.byte	0x9
 1840 088f A9       		.byte	0xa9
 1841 0890 DE010000 		.4byte	0x1de
 1842 0894 01       		.byte	0x1
 1843 0895 01       		.byte	0x1
 1844 0896 20       		.uleb128 0x20
 1845 0897 9A000000 		.4byte	.LASF111
 1846 089b 0B       		.byte	0xb
 1847 089c 95       		.byte	0x95
 1848 089d 0E060000 		.4byte	0x60e
 1849 08a1 01       		.byte	0x1
 1850 08a2 01       		.byte	0x1
 1851 08a3 20       		.uleb128 0x20
 1852 08a4 A6010000 		.4byte	.LASF109
 1853 08a8 09       		.byte	0x9
 1854 08a9 A7       		.byte	0xa7
 1855 08aa DE010000 		.4byte	0x1de
 1856 08ae 01       		.byte	0x1
 1857 08af 01       		.byte	0x1
 1858 08b0 20       		.uleb128 0x20
 1859 08b1 A4040000 		.4byte	.LASF110
 1860 08b5 09       		.byte	0x9
 1861 08b6 A9       		.byte	0xa9
 1862 08b7 DE010000 		.4byte	0x1de
 1863 08bb 01       		.byte	0x1
 1864 08bc 01       		.byte	0x1
 1865 08bd 20       		.uleb128 0x20
 1866 08be 9A000000 		.4byte	.LASF111
 1867 08c2 0B       		.byte	0xb
 1868 08c3 95       		.byte	0x95
 1869 08c4 0E060000 		.4byte	0x60e
 1870 08c8 01       		.byte	0x1
 1871 08c9 01       		.byte	0x1
 1872 08ca 00       		.byte	0
 1873              		.section	.debug_abbrev,"",%progbits
 1874              	.Ldebug_abbrev0:
 1875 0000 01       		.uleb128 0x1
 1876 0001 11       		.uleb128 0x11
 1877 0002 01       		.byte	0x1
 1878 0003 25       		.uleb128 0x25
ARM GAS  /tmp/ccCK5uA5.s 			page 34


 1879 0004 0E       		.uleb128 0xe
 1880 0005 13       		.uleb128 0x13
 1881 0006 0B       		.uleb128 0xb
 1882 0007 03       		.uleb128 0x3
 1883 0008 0E       		.uleb128 0xe
 1884 0009 1B       		.uleb128 0x1b
 1885 000a 0E       		.uleb128 0xe
 1886 000b 11       		.uleb128 0x11
 1887 000c 01       		.uleb128 0x1
 1888 000d 52       		.uleb128 0x52
 1889 000e 01       		.uleb128 0x1
 1890 000f 55       		.uleb128 0x55
 1891 0010 06       		.uleb128 0x6
 1892 0011 10       		.uleb128 0x10
 1893 0012 06       		.uleb128 0x6
 1894 0013 00       		.byte	0
 1895 0014 00       		.byte	0
 1896 0015 02       		.uleb128 0x2
 1897 0016 24       		.uleb128 0x24
 1898 0017 00       		.byte	0
 1899 0018 0B       		.uleb128 0xb
 1900 0019 0B       		.uleb128 0xb
 1901 001a 3E       		.uleb128 0x3e
 1902 001b 0B       		.uleb128 0xb
 1903 001c 03       		.uleb128 0x3
 1904 001d 08       		.uleb128 0x8
 1905 001e 00       		.byte	0
 1906 001f 00       		.byte	0
 1907 0020 03       		.uleb128 0x3
 1908 0021 24       		.uleb128 0x24
 1909 0022 00       		.byte	0
 1910 0023 0B       		.uleb128 0xb
 1911 0024 0B       		.uleb128 0xb
 1912 0025 3E       		.uleb128 0x3e
 1913 0026 0B       		.uleb128 0xb
 1914 0027 03       		.uleb128 0x3
 1915 0028 0E       		.uleb128 0xe
 1916 0029 00       		.byte	0
 1917 002a 00       		.byte	0
 1918 002b 04       		.uleb128 0x4
 1919 002c 16       		.uleb128 0x16
 1920 002d 00       		.byte	0
 1921 002e 03       		.uleb128 0x3
 1922 002f 0E       		.uleb128 0xe
 1923 0030 3A       		.uleb128 0x3a
 1924 0031 0B       		.uleb128 0xb
 1925 0032 3B       		.uleb128 0x3b
 1926 0033 0B       		.uleb128 0xb
 1927 0034 49       		.uleb128 0x49
 1928 0035 13       		.uleb128 0x13
 1929 0036 00       		.byte	0
 1930 0037 00       		.byte	0
 1931 0038 05       		.uleb128 0x5
 1932 0039 0F       		.uleb128 0xf
 1933 003a 00       		.byte	0
 1934 003b 0B       		.uleb128 0xb
 1935 003c 0B       		.uleb128 0xb
ARM GAS  /tmp/ccCK5uA5.s 			page 35


 1936 003d 00       		.byte	0
 1937 003e 00       		.byte	0
 1938 003f 06       		.uleb128 0x6
 1939 0040 04       		.uleb128 0x4
 1940 0041 01       		.byte	0x1
 1941 0042 0B       		.uleb128 0xb
 1942 0043 0B       		.uleb128 0xb
 1943 0044 3A       		.uleb128 0x3a
 1944 0045 0B       		.uleb128 0xb
 1945 0046 3B       		.uleb128 0x3b
 1946 0047 0B       		.uleb128 0xb
 1947 0048 01       		.uleb128 0x1
 1948 0049 13       		.uleb128 0x13
 1949 004a 00       		.byte	0
 1950 004b 00       		.byte	0
 1951 004c 07       		.uleb128 0x7
 1952 004d 28       		.uleb128 0x28
 1953 004e 00       		.byte	0
 1954 004f 03       		.uleb128 0x3
 1955 0050 0E       		.uleb128 0xe
 1956 0051 1C       		.uleb128 0x1c
 1957 0052 0D       		.uleb128 0xd
 1958 0053 00       		.byte	0
 1959 0054 00       		.byte	0
 1960 0055 08       		.uleb128 0x8
 1961 0056 13       		.uleb128 0x13
 1962 0057 01       		.byte	0x1
 1963 0058 03       		.uleb128 0x3
 1964 0059 0E       		.uleb128 0xe
 1965 005a 0B       		.uleb128 0xb
 1966 005b 0B       		.uleb128 0xb
 1967 005c 3A       		.uleb128 0x3a
 1968 005d 0B       		.uleb128 0xb
 1969 005e 3B       		.uleb128 0x3b
 1970 005f 0B       		.uleb128 0xb
 1971 0060 01       		.uleb128 0x1
 1972 0061 13       		.uleb128 0x13
 1973 0062 00       		.byte	0
 1974 0063 00       		.byte	0
 1975 0064 09       		.uleb128 0x9
 1976 0065 0D       		.uleb128 0xd
 1977 0066 00       		.byte	0
 1978 0067 03       		.uleb128 0x3
 1979 0068 0E       		.uleb128 0xe
 1980 0069 3A       		.uleb128 0x3a
 1981 006a 0B       		.uleb128 0xb
 1982 006b 3B       		.uleb128 0x3b
 1983 006c 0B       		.uleb128 0xb
 1984 006d 49       		.uleb128 0x49
 1985 006e 13       		.uleb128 0x13
 1986 006f 38       		.uleb128 0x38
 1987 0070 0A       		.uleb128 0xa
 1988 0071 00       		.byte	0
 1989 0072 00       		.byte	0
 1990 0073 0A       		.uleb128 0xa
 1991 0074 0D       		.uleb128 0xd
 1992 0075 00       		.byte	0
ARM GAS  /tmp/ccCK5uA5.s 			page 36


 1993 0076 03       		.uleb128 0x3
 1994 0077 08       		.uleb128 0x8
 1995 0078 3A       		.uleb128 0x3a
 1996 0079 0B       		.uleb128 0xb
 1997 007a 3B       		.uleb128 0x3b
 1998 007b 0B       		.uleb128 0xb
 1999 007c 49       		.uleb128 0x49
 2000 007d 13       		.uleb128 0x13
 2001 007e 38       		.uleb128 0x38
 2002 007f 0A       		.uleb128 0xa
 2003 0080 00       		.byte	0
 2004 0081 00       		.byte	0
 2005 0082 0B       		.uleb128 0xb
 2006 0083 0F       		.uleb128 0xf
 2007 0084 00       		.byte	0
 2008 0085 0B       		.uleb128 0xb
 2009 0086 0B       		.uleb128 0xb
 2010 0087 49       		.uleb128 0x49
 2011 0088 13       		.uleb128 0x13
 2012 0089 00       		.byte	0
 2013 008a 00       		.byte	0
 2014 008b 0C       		.uleb128 0xc
 2015 008c 15       		.uleb128 0x15
 2016 008d 01       		.byte	0x1
 2017 008e 27       		.uleb128 0x27
 2018 008f 0C       		.uleb128 0xc
 2019 0090 49       		.uleb128 0x49
 2020 0091 13       		.uleb128 0x13
 2021 0092 01       		.uleb128 0x1
 2022 0093 13       		.uleb128 0x13
 2023 0094 00       		.byte	0
 2024 0095 00       		.byte	0
 2025 0096 0D       		.uleb128 0xd
 2026 0097 05       		.uleb128 0x5
 2027 0098 00       		.byte	0
 2028 0099 49       		.uleb128 0x49
 2029 009a 13       		.uleb128 0x13
 2030 009b 00       		.byte	0
 2031 009c 00       		.byte	0
 2032 009d 0E       		.uleb128 0xe
 2033 009e 01       		.uleb128 0x1
 2034 009f 01       		.byte	0x1
 2035 00a0 49       		.uleb128 0x49
 2036 00a1 13       		.uleb128 0x13
 2037 00a2 01       		.uleb128 0x1
 2038 00a3 13       		.uleb128 0x13
 2039 00a4 00       		.byte	0
 2040 00a5 00       		.byte	0
 2041 00a6 0F       		.uleb128 0xf
 2042 00a7 21       		.uleb128 0x21
 2043 00a8 00       		.byte	0
 2044 00a9 49       		.uleb128 0x49
 2045 00aa 13       		.uleb128 0x13
 2046 00ab 2F       		.uleb128 0x2f
 2047 00ac 0B       		.uleb128 0xb
 2048 00ad 00       		.byte	0
 2049 00ae 00       		.byte	0
ARM GAS  /tmp/ccCK5uA5.s 			page 37


 2050 00af 10       		.uleb128 0x10
 2051 00b0 04       		.uleb128 0x4
 2052 00b1 01       		.byte	0x1
 2053 00b2 03       		.uleb128 0x3
 2054 00b3 0E       		.uleb128 0xe
 2055 00b4 0B       		.uleb128 0xb
 2056 00b5 0B       		.uleb128 0xb
 2057 00b6 3A       		.uleb128 0x3a
 2058 00b7 0B       		.uleb128 0xb
 2059 00b8 3B       		.uleb128 0x3b
 2060 00b9 0B       		.uleb128 0xb
 2061 00ba 01       		.uleb128 0x1
 2062 00bb 13       		.uleb128 0x13
 2063 00bc 00       		.byte	0
 2064 00bd 00       		.byte	0
 2065 00be 11       		.uleb128 0x11
 2066 00bf 13       		.uleb128 0x13
 2067 00c0 01       		.byte	0x1
 2068 00c1 03       		.uleb128 0x3
 2069 00c2 0E       		.uleb128 0xe
 2070 00c3 0B       		.uleb128 0xb
 2071 00c4 05       		.uleb128 0x5
 2072 00c5 3A       		.uleb128 0x3a
 2073 00c6 0B       		.uleb128 0xb
 2074 00c7 3B       		.uleb128 0x3b
 2075 00c8 0B       		.uleb128 0xb
 2076 00c9 01       		.uleb128 0x1
 2077 00ca 13       		.uleb128 0x13
 2078 00cb 00       		.byte	0
 2079 00cc 00       		.byte	0
 2080 00cd 12       		.uleb128 0x12
 2081 00ce 2E       		.uleb128 0x2e
 2082 00cf 01       		.byte	0x1
 2083 00d0 3F       		.uleb128 0x3f
 2084 00d1 0C       		.uleb128 0xc
 2085 00d2 03       		.uleb128 0x3
 2086 00d3 0E       		.uleb128 0xe
 2087 00d4 3A       		.uleb128 0x3a
 2088 00d5 0B       		.uleb128 0xb
 2089 00d6 3B       		.uleb128 0x3b
 2090 00d7 0B       		.uleb128 0xb
 2091 00d8 27       		.uleb128 0x27
 2092 00d9 0C       		.uleb128 0xc
 2093 00da 11       		.uleb128 0x11
 2094 00db 01       		.uleb128 0x1
 2095 00dc 12       		.uleb128 0x12
 2096 00dd 01       		.uleb128 0x1
 2097 00de 40       		.uleb128 0x40
 2098 00df 06       		.uleb128 0x6
 2099 00e0 01       		.uleb128 0x1
 2100 00e1 13       		.uleb128 0x13
 2101 00e2 00       		.byte	0
 2102 00e3 00       		.byte	0
 2103 00e4 13       		.uleb128 0x13
 2104 00e5 05       		.uleb128 0x5
 2105 00e6 00       		.byte	0
 2106 00e7 03       		.uleb128 0x3
ARM GAS  /tmp/ccCK5uA5.s 			page 38


 2107 00e8 08       		.uleb128 0x8
 2108 00e9 3A       		.uleb128 0x3a
 2109 00ea 0B       		.uleb128 0xb
 2110 00eb 3B       		.uleb128 0x3b
 2111 00ec 0B       		.uleb128 0xb
 2112 00ed 49       		.uleb128 0x49
 2113 00ee 13       		.uleb128 0x13
 2114 00ef 02       		.uleb128 0x2
 2115 00f0 0A       		.uleb128 0xa
 2116 00f1 00       		.byte	0
 2117 00f2 00       		.byte	0
 2118 00f3 14       		.uleb128 0x14
 2119 00f4 34       		.uleb128 0x34
 2120 00f5 00       		.byte	0
 2121 00f6 03       		.uleb128 0x3
 2122 00f7 0E       		.uleb128 0xe
 2123 00f8 3A       		.uleb128 0x3a
 2124 00f9 0B       		.uleb128 0xb
 2125 00fa 3B       		.uleb128 0x3b
 2126 00fb 0B       		.uleb128 0xb
 2127 00fc 49       		.uleb128 0x49
 2128 00fd 13       		.uleb128 0x13
 2129 00fe 02       		.uleb128 0x2
 2130 00ff 0A       		.uleb128 0xa
 2131 0100 00       		.byte	0
 2132 0101 00       		.byte	0
 2133 0102 15       		.uleb128 0x15
 2134 0103 0A       		.uleb128 0xa
 2135 0104 00       		.byte	0
 2136 0105 03       		.uleb128 0x3
 2137 0106 0E       		.uleb128 0xe
 2138 0107 3A       		.uleb128 0x3a
 2139 0108 0B       		.uleb128 0xb
 2140 0109 3B       		.uleb128 0x3b
 2141 010a 0B       		.uleb128 0xb
 2142 010b 11       		.uleb128 0x11
 2143 010c 01       		.uleb128 0x1
 2144 010d 00       		.byte	0
 2145 010e 00       		.byte	0
 2146 010f 16       		.uleb128 0x16
 2147 0110 0B       		.uleb128 0xb
 2148 0111 01       		.byte	0x1
 2149 0112 11       		.uleb128 0x11
 2150 0113 01       		.uleb128 0x1
 2151 0114 12       		.uleb128 0x12
 2152 0115 01       		.uleb128 0x1
 2153 0116 01       		.uleb128 0x1
 2154 0117 13       		.uleb128 0x13
 2155 0118 00       		.byte	0
 2156 0119 00       		.byte	0
 2157 011a 17       		.uleb128 0x17
 2158 011b 0B       		.uleb128 0xb
 2159 011c 01       		.byte	0x1
 2160 011d 55       		.uleb128 0x55
 2161 011e 06       		.uleb128 0x6
 2162 011f 01       		.uleb128 0x1
 2163 0120 13       		.uleb128 0x13
ARM GAS  /tmp/ccCK5uA5.s 			page 39


 2164 0121 00       		.byte	0
 2165 0122 00       		.byte	0
 2166 0123 18       		.uleb128 0x18
 2167 0124 34       		.uleb128 0x34
 2168 0125 00       		.byte	0
 2169 0126 03       		.uleb128 0x3
 2170 0127 08       		.uleb128 0x8
 2171 0128 3A       		.uleb128 0x3a
 2172 0129 0B       		.uleb128 0xb
 2173 012a 3B       		.uleb128 0x3b
 2174 012b 0B       		.uleb128 0xb
 2175 012c 49       		.uleb128 0x49
 2176 012d 13       		.uleb128 0x13
 2177 012e 02       		.uleb128 0x2
 2178 012f 0A       		.uleb128 0xa
 2179 0130 00       		.byte	0
 2180 0131 00       		.byte	0
 2181 0132 19       		.uleb128 0x19
 2182 0133 0B       		.uleb128 0xb
 2183 0134 01       		.byte	0x1
 2184 0135 11       		.uleb128 0x11
 2185 0136 01       		.uleb128 0x1
 2186 0137 12       		.uleb128 0x12
 2187 0138 01       		.uleb128 0x1
 2188 0139 00       		.byte	0
 2189 013a 00       		.byte	0
 2190 013b 1A       		.uleb128 0x1a
 2191 013c 2E       		.uleb128 0x2e
 2192 013d 01       		.byte	0x1
 2193 013e 3F       		.uleb128 0x3f
 2194 013f 0C       		.uleb128 0xc
 2195 0140 03       		.uleb128 0x3
 2196 0141 0E       		.uleb128 0xe
 2197 0142 3A       		.uleb128 0x3a
 2198 0143 0B       		.uleb128 0xb
 2199 0144 3B       		.uleb128 0x3b
 2200 0145 05       		.uleb128 0x5
 2201 0146 27       		.uleb128 0x27
 2202 0147 0C       		.uleb128 0xc
 2203 0148 11       		.uleb128 0x11
 2204 0149 01       		.uleb128 0x1
 2205 014a 12       		.uleb128 0x12
 2206 014b 01       		.uleb128 0x1
 2207 014c 40       		.uleb128 0x40
 2208 014d 06       		.uleb128 0x6
 2209 014e 01       		.uleb128 0x1
 2210 014f 13       		.uleb128 0x13
 2211 0150 00       		.byte	0
 2212 0151 00       		.byte	0
 2213 0152 1B       		.uleb128 0x1b
 2214 0153 05       		.uleb128 0x5
 2215 0154 00       		.byte	0
 2216 0155 03       		.uleb128 0x3
 2217 0156 08       		.uleb128 0x8
 2218 0157 3A       		.uleb128 0x3a
 2219 0158 0B       		.uleb128 0xb
 2220 0159 3B       		.uleb128 0x3b
ARM GAS  /tmp/ccCK5uA5.s 			page 40


 2221 015a 05       		.uleb128 0x5
 2222 015b 49       		.uleb128 0x49
 2223 015c 13       		.uleb128 0x13
 2224 015d 02       		.uleb128 0x2
 2225 015e 0A       		.uleb128 0xa
 2226 015f 00       		.byte	0
 2227 0160 00       		.byte	0
 2228 0161 1C       		.uleb128 0x1c
 2229 0162 2E       		.uleb128 0x2e
 2230 0163 01       		.byte	0x1
 2231 0164 03       		.uleb128 0x3
 2232 0165 0E       		.uleb128 0xe
 2233 0166 3A       		.uleb128 0x3a
 2234 0167 0B       		.uleb128 0xb
 2235 0168 3B       		.uleb128 0x3b
 2236 0169 05       		.uleb128 0x5
 2237 016a 27       		.uleb128 0x27
 2238 016b 0C       		.uleb128 0xc
 2239 016c 11       		.uleb128 0x11
 2240 016d 01       		.uleb128 0x1
 2241 016e 12       		.uleb128 0x12
 2242 016f 01       		.uleb128 0x1
 2243 0170 40       		.uleb128 0x40
 2244 0171 06       		.uleb128 0x6
 2245 0172 01       		.uleb128 0x1
 2246 0173 13       		.uleb128 0x13
 2247 0174 00       		.byte	0
 2248 0175 00       		.byte	0
 2249 0176 1D       		.uleb128 0x1d
 2250 0177 05       		.uleb128 0x5
 2251 0178 00       		.byte	0
 2252 0179 03       		.uleb128 0x3
 2253 017a 0E       		.uleb128 0xe
 2254 017b 3A       		.uleb128 0x3a
 2255 017c 0B       		.uleb128 0xb
 2256 017d 3B       		.uleb128 0x3b
 2257 017e 05       		.uleb128 0x5
 2258 017f 49       		.uleb128 0x49
 2259 0180 13       		.uleb128 0x13
 2260 0181 02       		.uleb128 0x2
 2261 0182 0A       		.uleb128 0xa
 2262 0183 00       		.byte	0
 2263 0184 00       		.byte	0
 2264 0185 1E       		.uleb128 0x1e
 2265 0186 34       		.uleb128 0x34
 2266 0187 00       		.byte	0
 2267 0188 03       		.uleb128 0x3
 2268 0189 08       		.uleb128 0x8
 2269 018a 3A       		.uleb128 0x3a
 2270 018b 0B       		.uleb128 0xb
 2271 018c 3B       		.uleb128 0x3b
 2272 018d 05       		.uleb128 0x5
 2273 018e 49       		.uleb128 0x49
 2274 018f 13       		.uleb128 0x13
 2275 0190 02       		.uleb128 0x2
 2276 0191 0A       		.uleb128 0xa
 2277 0192 00       		.byte	0
ARM GAS  /tmp/ccCK5uA5.s 			page 41


 2278 0193 00       		.byte	0
 2279 0194 1F       		.uleb128 0x1f
 2280 0195 34       		.uleb128 0x34
 2281 0196 00       		.byte	0
 2282 0197 03       		.uleb128 0x3
 2283 0198 0E       		.uleb128 0xe
 2284 0199 3A       		.uleb128 0x3a
 2285 019a 0B       		.uleb128 0xb
 2286 019b 3B       		.uleb128 0x3b
 2287 019c 05       		.uleb128 0x5
 2288 019d 49       		.uleb128 0x49
 2289 019e 13       		.uleb128 0x13
 2290 019f 02       		.uleb128 0x2
 2291 01a0 0A       		.uleb128 0xa
 2292 01a1 00       		.byte	0
 2293 01a2 00       		.byte	0
 2294 01a3 20       		.uleb128 0x20
 2295 01a4 34       		.uleb128 0x34
 2296 01a5 00       		.byte	0
 2297 01a6 03       		.uleb128 0x3
 2298 01a7 0E       		.uleb128 0xe
 2299 01a8 3A       		.uleb128 0x3a
 2300 01a9 0B       		.uleb128 0xb
 2301 01aa 3B       		.uleb128 0x3b
 2302 01ab 0B       		.uleb128 0xb
 2303 01ac 49       		.uleb128 0x49
 2304 01ad 13       		.uleb128 0x13
 2305 01ae 3F       		.uleb128 0x3f
 2306 01af 0C       		.uleb128 0xc
 2307 01b0 3C       		.uleb128 0x3c
 2308 01b1 0C       		.uleb128 0xc
 2309 01b2 00       		.byte	0
 2310 01b3 00       		.byte	0
 2311 01b4 00       		.byte	0
 2312              		.section	.debug_loc,"",%progbits
 2313              	.Ldebug_loc0:
 2314              	.LLST0:
 2315 0000 00000000 		.4byte	.LFB7
 2316 0004 02000000 		.4byte	.LCFI0
 2317 0008 0200     		.2byte	0x2
 2318 000a 7D       		.byte	0x7d
 2319 000b 00       		.sleb128 0
 2320 000c 02000000 		.4byte	.LCFI0
 2321 0010 04000000 		.4byte	.LCFI1
 2322 0014 0200     		.2byte	0x2
 2323 0016 7D       		.byte	0x7d
 2324 0017 04       		.sleb128 4
 2325 0018 04000000 		.4byte	.LCFI1
 2326 001c 72030000 		.4byte	.LFE7
 2327 0020 0200     		.2byte	0x2
 2328 0022 7D       		.byte	0x7d
 2329 0023 38       		.sleb128 56
 2330 0024 00000000 		.4byte	0
 2331 0028 00000000 		.4byte	0
 2332              	.LLST1:
 2333 002c 00000000 		.4byte	.LFB8
 2334 0030 02000000 		.4byte	.LCFI2
ARM GAS  /tmp/ccCK5uA5.s 			page 42


 2335 0034 0200     		.2byte	0x2
 2336 0036 7D       		.byte	0x7d
 2337 0037 00       		.sleb128 0
 2338 0038 02000000 		.4byte	.LCFI2
 2339 003c 04000000 		.4byte	.LCFI3
 2340 0040 0200     		.2byte	0x2
 2341 0042 7D       		.byte	0x7d
 2342 0043 04       		.sleb128 4
 2343 0044 04000000 		.4byte	.LCFI3
 2344 0048 20000000 		.4byte	.LFE8
 2345 004c 0200     		.2byte	0x2
 2346 004e 7D       		.byte	0x7d
 2347 004f 10       		.sleb128 16
 2348 0050 00000000 		.4byte	0
 2349 0054 00000000 		.4byte	0
 2350              	.LLST2:
 2351 0058 00000000 		.4byte	.LFB9
 2352 005c 02000000 		.4byte	.LCFI4
 2353 0060 0200     		.2byte	0x2
 2354 0062 7D       		.byte	0x7d
 2355 0063 00       		.sleb128 0
 2356 0064 02000000 		.4byte	.LCFI4
 2357 0068 04000000 		.4byte	.LCFI5
 2358 006c 0200     		.2byte	0x2
 2359 006e 7D       		.byte	0x7d
 2360 006f 04       		.sleb128 4
 2361 0070 04000000 		.4byte	.LCFI5
 2362 0074 20000000 		.4byte	.LFE9
 2363 0078 0200     		.2byte	0x2
 2364 007a 7D       		.byte	0x7d
 2365 007b 10       		.sleb128 16
 2366 007c 00000000 		.4byte	0
 2367 0080 00000000 		.4byte	0
 2368              	.LLST3:
 2369 0084 00000000 		.4byte	.LFB10
 2370 0088 02000000 		.4byte	.LCFI6
 2371 008c 0200     		.2byte	0x2
 2372 008e 7D       		.byte	0x7d
 2373 008f 00       		.sleb128 0
 2374 0090 02000000 		.4byte	.LCFI6
 2375 0094 04000000 		.4byte	.LCFI7
 2376 0098 0200     		.2byte	0x2
 2377 009a 7D       		.byte	0x7d
 2378 009b 04       		.sleb128 4
 2379 009c 04000000 		.4byte	.LCFI7
 2380 00a0 00010000 		.4byte	.LFE10
 2381 00a4 0200     		.2byte	0x2
 2382 00a6 7D       		.byte	0x7d
 2383 00a7 28       		.sleb128 40
 2384 00a8 00000000 		.4byte	0
 2385 00ac 00000000 		.4byte	0
 2386              		.section	.debug_aranges,"",%progbits
 2387 0000 34000000 		.4byte	0x34
 2388 0004 0200     		.2byte	0x2
 2389 0006 00000000 		.4byte	.Ldebug_info0
 2390 000a 04       		.byte	0x4
 2391 000b 00       		.byte	0
ARM GAS  /tmp/ccCK5uA5.s 			page 43


 2392 000c 0000     		.2byte	0
 2393 000e 0000     		.2byte	0
 2394 0010 00000000 		.4byte	.LFB7
 2395 0014 72030000 		.4byte	.LFE7-.LFB7
 2396 0018 00000000 		.4byte	.LFB8
 2397 001c 20000000 		.4byte	.LFE8-.LFB8
 2398 0020 00000000 		.4byte	.LFB9
 2399 0024 20000000 		.4byte	.LFE9-.LFB9
 2400 0028 00000000 		.4byte	.LFB10
 2401 002c 00010000 		.4byte	.LFE10-.LFB10
 2402 0030 00000000 		.4byte	0
 2403 0034 00000000 		.4byte	0
 2404              		.section	.debug_ranges,"",%progbits
 2405              	.Ldebug_ranges0:
 2406 0000 46010000 		.4byte	.LBB3
 2407 0004 DA010000 		.4byte	.LBE3
 2408 0008 46030000 		.4byte	.LBB5
 2409 000c 48030000 		.4byte	.LBE5
 2410 0010 00000000 		.4byte	0
 2411 0014 00000000 		.4byte	0
 2412 0018 00000000 		.4byte	.LFB7
 2413 001c 72030000 		.4byte	.LFE7
 2414 0020 00000000 		.4byte	.LFB8
 2415 0024 20000000 		.4byte	.LFE8
 2416 0028 00000000 		.4byte	.LFB9
 2417 002c 20000000 		.4byte	.LFE9
 2418 0030 00000000 		.4byte	.LFB10
 2419 0034 00010000 		.4byte	.LFE10
 2420 0038 00000000 		.4byte	0
 2421 003c 00000000 		.4byte	0
 2422              		.section	.debug_line,"",%progbits
 2423              	.Ldebug_line0:
 2424 0000 89020000 		.section	.debug_str,"MS",%progbits,1
 2424      02008D01 
 2424      00000201 
 2424      FB0E0D00 
 2424      01010101 
 2425              	.LASF103:
 2426 0000 61636365 		.ascii	"accepted\000"
 2426      70746564 
 2426      00
 2427              	.LASF53:
 2428 0009 49434D50 		.ascii	"ICMP_DUR_HOST\000"
 2428      5F445552 
 2428      5F484F53 
 2428      5400
 2429              	.LASF42:
 2430 0017 696E7075 		.ascii	"input\000"
 2430      7400
 2431              	.LASF25:
 2432 001d 50425546 		.ascii	"PBUF_RAM\000"
 2432      5F52414D 
 2432      00
 2433              	.LASF24:
 2434 0026 50425546 		.ascii	"PBUF_RAW\000"
 2434      5F524157 
 2434      00
ARM GAS  /tmp/ccCK5uA5.s 			page 44


 2435              	.LASF33:
 2436 002f 666C6167 		.ascii	"flags\000"
 2436      7300
 2437              	.LASF0:
 2438 0035 756E7369 		.ascii	"unsigned int\000"
 2438      676E6564 
 2438      20696E74 
 2438      00
 2439              	.LASF29:
 2440 0042 6E657874 		.ascii	"next\000"
 2440      00
 2441              	.LASF52:
 2442 0047 49434D50 		.ascii	"ICMP_DUR_NET\000"
 2442      5F445552 
 2442      5F4E4554 
 2442      00
 2443              	.LASF100:
 2444 0054 69656368 		.ascii	"iecho\000"
 2444      6F00
 2445              	.LASF20:
 2446 005a 6572725F 		.ascii	"err_t\000"
 2446      7400
 2447              	.LASF44:
 2448 0060 6C696E6B 		.ascii	"linkoutput\000"
 2448      6F757470 
 2448      757400
 2449              	.LASF17:
 2450 006b 7531365F 		.ascii	"u16_t\000"
 2450      7400
 2451              	.LASF70:
 2452 0071 5F74746C 		.ascii	"_ttl\000"
 2452      00
 2453              	.LASF95:
 2454 0076 6C696E6B 		.ascii	"link\000"
 2454      00
 2455              	.LASF86:
 2456 007b 73746174 		.ascii	"stats_mem\000"
 2456      735F6D65 
 2456      6D00
 2457              	.LASF102:
 2458 0085 686C656E 		.ascii	"hlen\000"
 2458      00
 2459              	.LASF50:
 2460 008a 6E657469 		.ascii	"netif_output_fn\000"
 2460      665F6F75 
 2460      74707574 
 2460      5F666E00 
 2461              	.LASF111:
 2462 009a 6C776970 		.ascii	"lwip_stats\000"
 2462      5F737461 
 2462      747300
 2463              	.LASF104:
 2464 00a5 69636D70 		.ascii	"icmp_input\000"
 2464      5F696E70 
 2464      757400
 2465              	.LASF21:
 2466 00b0 50425546 		.ascii	"PBUF_TRANSPORT\000"
ARM GAS  /tmp/ccCK5uA5.s 			page 45


 2466      5F545241 
 2466      4E53504F 
 2466      525400
 2467              	.LASF90:
 2468 00bf 73746174 		.ascii	"stats_syselem\000"
 2468      735F7379 
 2468      73656C65 
 2468      6D00
 2469              	.LASF65:
 2470 00cd 7365716E 		.ascii	"seqno\000"
 2470      6F00
 2471              	.LASF49:
 2472 00d3 6E657469 		.ascii	"netif_input_fn\000"
 2472      665F696E 
 2472      7075745F 
 2472      666E00
 2473              	.LASF10:
 2474 00e2 75696E74 		.ascii	"uint32_t\000"
 2474      33325F74 
 2474      00
 2475              	.LASF2:
 2476 00eb 696E7438 		.ascii	"int8_t\000"
 2476      5F7400
 2477              	.LASF84:
 2478 00f2 6F707465 		.ascii	"opterr\000"
 2478      727200
 2479              	.LASF92:
 2480 00f9 6D757465 		.ascii	"mutex\000"
 2480      7800
 2481              	.LASF97:
 2482 00ff 69705F66 		.ascii	"ip_frag\000"
 2482      72616700 
 2483              	.LASF89:
 2484 0107 696C6C65 		.ascii	"illegal\000"
 2484      67616C00 
 2485              	.LASF5:
 2486 010f 696E7431 		.ascii	"int16_t\000"
 2486      365F7400 
 2487              	.LASF47:
 2488 0117 68776164 		.ascii	"hwaddr\000"
 2488      647200
 2489              	.LASF96:
 2490 011e 65746861 		.ascii	"etharp\000"
 2490      727000
 2491              	.LASF13:
 2492 0125 6C6F6E67 		.ascii	"long long unsigned int\000"
 2492      206C6F6E 
 2492      6720756E 
 2492      7369676E 
 2492      65642069 
 2493              	.LASF106:
 2494 013c 69636D70 		.ascii	"icmp_time_exceeded\000"
 2494      5F74696D 
 2494      655F6578 
 2494      63656564 
 2494      656400
 2495              	.LASF114:
ARM GAS  /tmp/ccCK5uA5.s 			page 46


 2496 014f 2F686F6D 		.ascii	"/home/texzk/ChibiStudio/chibios/demos/ARMCM3-STM32F"
 2496      652F7465 
 2496      787A6B2F 
 2496      43686962 
 2496      69537475 
 2497 0182 3230372D 		.ascii	"207-STM3220G-LWIP\000"
 2497      53544D33 
 2497      32323047 
 2497      2D4C5749 
 2497      5000
 2498              	.LASF105:
 2499 0194 69636D70 		.ascii	"icmp_dest_unreach\000"
 2499      5F646573 
 2499      745F756E 
 2499      72656163 
 2499      6800
 2500              	.LASF109:
 2501 01a6 63757272 		.ascii	"current_iphdr_src\000"
 2501      656E745F 
 2501      69706864 
 2501      725F7372 
 2501      6300
 2502              	.LASF72:
 2503 01b8 5F63686B 		.ascii	"_chksum\000"
 2503      73756D00 
 2504              	.LASF46:
 2505 01c0 68776164 		.ascii	"hwaddr_len\000"
 2505      64725F6C 
 2505      656E00
 2506              	.LASF69:
 2507 01cb 5F6F6666 		.ascii	"_offset\000"
 2507      73657400 
 2508              	.LASF57:
 2509 01d3 49434D50 		.ascii	"ICMP_DUR_SR\000"
 2509      5F445552 
 2509      5F535200 
 2510              	.LASF27:
 2511 01df 50425546 		.ascii	"PBUF_REF\000"
 2511      5F524546 
 2511      00
 2512              	.LASF94:
 2513 01e8 73746174 		.ascii	"stats_\000"
 2513      735F00
 2514              	.LASF31:
 2515 01ef 746F745F 		.ascii	"tot_len\000"
 2515      6C656E00 
 2516              	.LASF30:
 2517 01f7 7061796C 		.ascii	"payload\000"
 2517      6F616400 
 2518              	.LASF22:
 2519 01ff 50425546 		.ascii	"PBUF_IP\000"
 2519      5F495000 
 2520              	.LASF43:
 2521 0207 6F757470 		.ascii	"output\000"
 2521      757400
 2522              	.LASF34:
 2523 020e 70627566 		.ascii	"pbuf\000"
ARM GAS  /tmp/ccCK5uA5.s 			page 47


 2523      00
 2524              	.LASF28:
 2525 0213 50425546 		.ascii	"PBUF_POOL\000"
 2525      5F504F4F 
 2525      4C00
 2526              	.LASF16:
 2527 021d 73385F74 		.ascii	"s8_t\000"
 2527      00
 2528              	.LASF63:
 2529 0222 636F6465 		.ascii	"code\000"
 2529      00
 2530              	.LASF14:
 2531 0227 63686172 		.ascii	"char\000"
 2531      00
 2532              	.LASF74:
 2533 022c 6D656D5F 		.ascii	"mem_size_t\000"
 2533      73697A65 
 2533      5F7400
 2534              	.LASF75:
 2535 0237 73746174 		.ascii	"stats_proto\000"
 2535      735F7072 
 2535      6F746F00 
 2536              	.LASF37:
 2537 0243 69705F61 		.ascii	"ip_addr_packed\000"
 2537      6464725F 
 2537      7061636B 
 2537      656400
 2538              	.LASF112:
 2539 0252 474E5520 		.ascii	"GNU C 4.6.2 20120613 (release) [ARM/embedded-4_6-br"
 2539      4320342E 
 2539      362E3220 
 2539      32303132 
 2539      30363133 
 2540 0285 616E6368 		.ascii	"anch revision 188521]\000"
 2540      20726576 
 2540      6973696F 
 2540      6E203138 
 2540      38353231 
 2541              	.LASF113:
 2542 029b 2E2E2F2E 		.ascii	"../../ext/lwip/src/core/ipv4/icmp.c\000"
 2542      2E2F6578 
 2542      742F6C77 
 2542      69702F73 
 2542      72632F63 
 2543              	.LASF3:
 2544 02bf 75696E74 		.ascii	"uint8_t\000"
 2544      385F7400 
 2545              	.LASF71:
 2546 02c7 5F70726F 		.ascii	"_proto\000"
 2546      746F00
 2547              	.LASF107:
 2548 02ce 69636D70 		.ascii	"icmphdr\000"
 2548      68647200 
 2549              	.LASF59:
 2550 02d6 69636D70 		.ascii	"icmp_te_type\000"
 2550      5F74655F 
 2550      74797065 
ARM GAS  /tmp/ccCK5uA5.s 			page 48


 2550      00
 2551              	.LASF41:
 2552 02e3 6E65746D 		.ascii	"netmask\000"
 2552      61736B00 
 2553              	.LASF12:
 2554 02eb 6C6F6E67 		.ascii	"long long int\000"
 2554      206C6F6E 
 2554      6720696E 
 2554      7400
 2555              	.LASF15:
 2556 02f9 75385F74 		.ascii	"u8_t\000"
 2556      00
 2557              	.LASF88:
 2558 02fe 75736564 		.ascii	"used\000"
 2558      00
 2559              	.LASF79:
 2560 0303 63686B65 		.ascii	"chkerr\000"
 2560      727200
 2561              	.LASF55:
 2562 030a 49434D50 		.ascii	"ICMP_DUR_PORT\000"
 2562      5F445552 
 2562      5F504F52 
 2562      5400
 2563              	.LASF115:
 2564 0318 69636D70 		.ascii	"icmp_send_response\000"
 2564      5F73656E 
 2564      645F7265 
 2564      73706F6E 
 2564      736500
 2565              	.LASF23:
 2566 032b 50425546 		.ascii	"PBUF_LINK\000"
 2566      5F4C494E 
 2566      4B00
 2567              	.LASF7:
 2568 0335 75696E74 		.ascii	"uint16_t\000"
 2568      31365F74 
 2568      00
 2569              	.LASF108:
 2570 033e 69706864 		.ascii	"iphdr_src\000"
 2570      725F7372 
 2570      6300
 2571              	.LASF67:
 2572 0348 5F765F68 		.ascii	"_v_hl_tos\000"
 2572      6C5F746F 
 2572      7300
 2573              	.LASF61:
 2574 0352 49434D50 		.ascii	"ICMP_TE_FRAG\000"
 2574      5F54455F 
 2574      46524147 
 2574      00
 2575              	.LASF19:
 2576 035f 7533325F 		.ascii	"u32_t\000"
 2576      7400
 2577              	.LASF6:
 2578 0365 73686F72 		.ascii	"short int\000"
 2578      7420696E 
 2578      7400
ARM GAS  /tmp/ccCK5uA5.s 			page 49


 2579              	.LASF98:
 2580 036f 69636D70 		.ascii	"icmp\000"
 2580      00
 2581              	.LASF9:
 2582 0374 6C6F6E67 		.ascii	"long int\000"
 2582      20696E74 
 2582      00
 2583              	.LASF82:
 2584 037d 72746572 		.ascii	"rterr\000"
 2584      7200
 2585              	.LASF87:
 2586 0383 61766169 		.ascii	"avail\000"
 2586      6C00
 2587              	.LASF93:
 2588 0389 6D626F78 		.ascii	"mbox\000"
 2588      00
 2589              	.LASF85:
 2590 038e 63616368 		.ascii	"cachehit\000"
 2590      65686974 
 2590      00
 2591              	.LASF66:
 2592 0397 69705F68 		.ascii	"ip_hdr\000"
 2592      647200
 2593              	.LASF60:
 2594 039e 49434D50 		.ascii	"ICMP_TE_TTL\000"
 2594      5F54455F 
 2594      54544C00 
 2595              	.LASF48:
 2596 03aa 6E616D65 		.ascii	"name\000"
 2596      00
 2597              	.LASF51:
 2598 03af 6E657469 		.ascii	"netif_linkoutput_fn\000"
 2598      665F6C69 
 2598      6E6B6F75 
 2598      74707574 
 2598      5F666E00 
 2599              	.LASF58:
 2600 03c3 69636D70 		.ascii	"icmp_dur_type\000"
 2600      5F647572 
 2600      5F747970 
 2600      6500
 2601              	.LASF99:
 2602 03d1 6D656D70 		.ascii	"memp\000"
 2602      00
 2603              	.LASF80:
 2604 03d6 6C656E65 		.ascii	"lenerr\000"
 2604      727200
 2605              	.LASF11:
 2606 03dd 6C6F6E67 		.ascii	"long unsigned int\000"
 2606      20756E73 
 2606      69676E65 
 2606      6420696E 
 2606      7400
 2607              	.LASF18:
 2608 03ef 7331365F 		.ascii	"s16_t\000"
 2608      7400
 2609              	.LASF83:
ARM GAS  /tmp/ccCK5uA5.s 			page 50


 2610 03f5 70726F74 		.ascii	"proterr\000"
 2610      65727200 
 2611              	.LASF62:
 2612 03fd 69636D70 		.ascii	"icmp_echo_hdr\000"
 2612      5F656368 
 2612      6F5F6864 
 2612      7200
 2613              	.LASF32:
 2614 040b 74797065 		.ascii	"type\000"
 2614      00
 2615              	.LASF91:
 2616 0410 73746174 		.ascii	"stats_sys\000"
 2616      735F7379 
 2616      7300
 2617              	.LASF4:
 2618 041a 756E7369 		.ascii	"unsigned char\000"
 2618      676E6564 
 2618      20636861 
 2618      7200
 2619              	.LASF81:
 2620 0428 6D656D65 		.ascii	"memerr\000"
 2620      727200
 2621              	.LASF39:
 2622 042f 69705F61 		.ascii	"ip_addr_p_t\000"
 2622      6464725F 
 2622      705F7400 
 2623              	.LASF54:
 2624 043b 49434D50 		.ascii	"ICMP_DUR_PROTO\000"
 2624      5F445552 
 2624      5F50524F 
 2624      544F00
 2625              	.LASF36:
 2626 044a 61646472 		.ascii	"addr\000"
 2626      00
 2627              	.LASF56:
 2628 044f 49434D50 		.ascii	"ICMP_DUR_FRAG\000"
 2628      5F445552 
 2628      5F465241 
 2628      4700
 2629              	.LASF78:
 2630 045d 64726F70 		.ascii	"drop\000"
 2630      00
 2631              	.LASF45:
 2632 0462 73746174 		.ascii	"state\000"
 2632      6500
 2633              	.LASF40:
 2634 0468 6E657469 		.ascii	"netif\000"
 2634      6600
 2635              	.LASF64:
 2636 046e 63686B73 		.ascii	"chksum\000"
 2636      756D00
 2637              	.LASF101:
 2638 0475 69706864 		.ascii	"iphdr\000"
 2638      7200
 2639              	.LASF77:
 2640 047b 72656376 		.ascii	"recv\000"
 2640      00
ARM GAS  /tmp/ccCK5uA5.s 			page 51


 2641              	.LASF1:
 2642 0480 7369676E 		.ascii	"signed char\000"
 2642      65642063 
 2642      68617200 
 2643              	.LASF8:
 2644 048c 73686F72 		.ascii	"short unsigned int\000"
 2644      7420756E 
 2644      7369676E 
 2644      65642069 
 2644      6E7400
 2645              	.LASF76:
 2646 049f 786D6974 		.ascii	"xmit\000"
 2646      00
 2647              	.LASF110:
 2648 04a4 63757272 		.ascii	"current_iphdr_dest\000"
 2648      656E745F 
 2648      69706864 
 2648      725F6465 
 2648      737400
 2649              	.LASF68:
 2650 04b7 5F6C656E 		.ascii	"_len\000"
 2650      00
 2651              	.LASF38:
 2652 04bc 69705F61 		.ascii	"ip_addr_t\000"
 2652      6464725F 
 2652      7400
 2653              	.LASF26:
 2654 04c6 50425546 		.ascii	"PBUF_ROM\000"
 2654      5F524F4D 
 2654      00
 2655              	.LASF73:
 2656 04cf 64657374 		.ascii	"dest\000"
 2656      00
 2657              	.LASF35:
 2658 04d4 69705F61 		.ascii	"ip_addr\000"
 2658      64647200 
 2659              		.ident	"GCC: (GNU Tools for ARM Embedded Processors) 4.6.2 20120613 (release) [ARM/embedded-4_6-br
ARM GAS  /tmp/ccCK5uA5.s 			page 52


DEFINED SYMBOLS
                            *ABS*:00000000 icmp.c
     /tmp/ccCK5uA5.s:19     .text.icmp_input:00000000 $t
     /tmp/ccCK5uA5.s:25     .text.icmp_input:00000000 icmp_input
     /tmp/ccCK5uA5.s:453    .text.icmp_dest_unreach:00000000 $t
     /tmp/ccCK5uA5.s:459    .text.icmp_dest_unreach:00000000 icmp_dest_unreach
     /tmp/ccCK5uA5.s:528    .text.icmp_send_response:00000000 icmp_send_response
     /tmp/ccCK5uA5.s:488    .text.icmp_time_exceeded:00000000 $t
     /tmp/ccCK5uA5.s:494    .text.icmp_time_exceeded:00000000 icmp_time_exceeded
     /tmp/ccCK5uA5.s:523    .text.icmp_send_response:00000000 $t
                     .debug_frame:00000010 $d

UNDEFINED SYMBOLS
lwip_stats
lwip_ntohs
pbuf_header
current_iphdr_dest
ip4_addr_isbroadcast
pbuf_free
inet_chksum_pbuf
port_halt
pbuf_alloc
pbuf_copy
current_iphdr_src
inet_chksum
ip_output_if
memcpy
ip_output
