ARM GAS  /tmp/ccCK5uA5.s 			page 1


   1              		.syntax unified
   2              		.cpu cortex-m3
   3              		.fpu softvfp
   4              		.eabi_attribute 20, 1
   5              		.eabi_attribute 21, 1
   6              		.eabi_attribute 23, 3
   7              		.eabi_attribute 24, 1
   8              		.eabi_attribute 25, 1
   9              		.eabi_attribute 26, 1
  10              		.eabi_attribute 30, 6
  11              		.eabi_attribute 34, 1
  12              		.eabi_attribute 18, 4
  13              		.thumb
  14              		.file	"icmp.c"
  15              		.text
  16              	.Ltext0:
  17              		.cfi_sections	.debug_frame
  18              		.section	.text.icmp_input,"ax",%progbits
  19              		.align	2
  20              		.p2align 4,,15
  21              		.global	icmp_input
  22              		.thumb
  23              		.thumb_func
  24              		.type	icmp_input, %function
  25              	icmp_input:
  26              	.LFB7:
  27              		.file 1 "../../ext/lwip/src/core/ipv4/icmp.c"
  28              		.loc 1 78 0
  29              		.cfi_startproc
  30              		@ args = 0, pretend = 0, frame = 32
  31              		@ frame_needed = 0, uses_anonymous_args = 0
  32 0000 00B5     		push	{lr}
  33              	.LCFI0:
  34              		.cfi_def_cfa_offset 4
  35              		.cfi_offset 14, -4
  36 0002 8DB0     		sub	sp, sp, #52
  37              	.LCFI1:
  38              		.cfi_def_cfa_offset 56
  39 0004 0590     		str	r0, [sp, #20]
  40 0006 0491     		str	r1, [sp, #16]
  41              		.loc 1 87 0
  42 0008 40F20003 		movw	r3, #:lower16:lwip_stats
  43 000c C0F20003 		movt	r3, #:upper16:lwip_stats
  44 0010 B3F86230 		ldrh	r3, [r3, #98]
  45 0014 03F10103 		add	r3, r3, #1
  46 0018 9AB2     		uxth	r2, r3
  47 001a 40F20003 		movw	r3, #:lower16:lwip_stats
  48 001e C0F20003 		movt	r3, #:upper16:lwip_stats
  49 0022 A3F86220 		strh	r2, [r3, #98]	@ movhi
  50              		.loc 1 91 0
  51 0026 059B     		ldr	r3, [sp, #20]
  52 0028 5B68     		ldr	r3, [r3, #4]
  53 002a 0B93     		str	r3, [sp, #44]
  54              		.loc 1 92 0
  55 002c 0B9B     		ldr	r3, [sp, #44]
  56 002e 1B88     		ldrh	r3, [r3, #0]	@ unaligned
  57 0030 9BB2     		uxth	r3, r3
ARM GAS  /tmp/ccCK5uA5.s 			page 2


  58 0032 1846     		mov	r0, r3
  59 0034 FFF7FEFF 		bl	lwip_ntohs
  60 0038 0346     		mov	r3, r0
  61 003a 4FEA1323 		lsr	r3, r3, #8
  62 003e 9BB2     		uxth	r3, r3
  63 0040 03F00F03 		and	r3, r3, #15
  64 0044 9BB2     		uxth	r3, r3
  65 0046 4FEA8303 		lsl	r3, r3, #2
  66 004a 9BB2     		uxth	r3, r3
  67 004c ADF82630 		strh	r3, [sp, #38]	@ movhi
  68              		.loc 1 93 0
  69 0050 BDF82630 		ldrh	r3, [sp, #38]
  70 0054 C3F10003 		rsb	r3, r3, #0
  71 0058 9BB2     		uxth	r3, r3
  72 005a 9BB2     		uxth	r3, r3
  73 005c 1BB2     		sxth	r3, r3
  74 005e 0598     		ldr	r0, [sp, #20]
  75 0060 1946     		mov	r1, r3
  76 0062 FFF7FEFF 		bl	pbuf_header
  77 0066 0346     		mov	r3, r0
  78 0068 002B     		cmp	r3, #0
  79 006a 40F05981 		bne	.L2
  80              		.loc 1 93 0 is_stmt 0 discriminator 1
  81 006e 059B     		ldr	r3, [sp, #20]
  82 0070 1B89     		ldrh	r3, [r3, #8]
  83 0072 032B     		cmp	r3, #3
  84 0074 40F25481 		bls	.L2
  85              		.loc 1 98 0 is_stmt 1
  86 0078 059B     		ldr	r3, [sp, #20]
  87 007a 5B68     		ldr	r3, [r3, #4]
  88 007c 1B78     		ldrb	r3, [r3, #0]
  89 007e 8DF82530 		strb	r3, [sp, #37]
  90              		.loc 1 102 0
  91 0082 9DF82530 		ldrb	r3, [sp, #37]	@ zero_extendqisi2
  92 0086 002B     		cmp	r3, #0
  93 0088 00F04481 		beq	.L26
  94 008c 082B     		cmp	r3, #8
  95 008e 40F02281 		bne	.L25
  96              	.L5:
  97              	.LBB2:
  98              		.loc 1 110 0
  99 0092 4FF00103 		mov	r3, #1
 100 0096 0A93     		str	r3, [sp, #40]
 101              		.loc 1 113 0
 102 0098 40F20003 		movw	r3, #:lower16:current_iphdr_dest
 103 009c C0F20003 		movt	r3, #:upper16:current_iphdr_dest
 104 00a0 1B68     		ldr	r3, [r3, #0]
 105 00a2 03F0F003 		and	r3, r3, #240
 106 00a6 E02B     		cmp	r3, #224
 107 00a8 02D1     		bne	.L7
 108              		.loc 1 114 0
 109 00aa 4FF00003 		mov	r3, #0
 110 00ae 0A93     		str	r3, [sp, #40]
 111              	.L7:
 112              		.loc 1 119 0
 113 00b0 40F20003 		movw	r3, #:lower16:current_iphdr_dest
 114 00b4 C0F20003 		movt	r3, #:upper16:current_iphdr_dest
ARM GAS  /tmp/ccCK5uA5.s 			page 3


 115 00b8 1B68     		ldr	r3, [r3, #0]
 116 00ba 1846     		mov	r0, r3
 117 00bc 0499     		ldr	r1, [sp, #16]
 118 00be FFF7FEFF 		bl	ip4_addr_isbroadcast
 119 00c2 0346     		mov	r3, r0
 120 00c4 002B     		cmp	r3, #0
 121 00c6 02D0     		beq	.L8
 122              		.loc 1 120 0
 123 00c8 4FF00003 		mov	r3, #0
 124 00cc 0A93     		str	r3, [sp, #40]
 125              	.L8:
 126              		.loc 1 124 0
 127 00ce 0A9B     		ldr	r3, [sp, #40]
 128 00d0 002B     		cmp	r3, #0
 129 00d2 12D1     		bne	.L9
 130              		.loc 1 126 0
 131 00d4 40F20003 		movw	r3, #:lower16:lwip_stats
 132 00d8 C0F20003 		movt	r3, #:upper16:lwip_stats
 133 00dc B3F87430 		ldrh	r3, [r3, #116]
 134 00e0 03F10103 		add	r3, r3, #1
 135 00e4 9AB2     		uxth	r2, r3
 136 00e6 40F20003 		movw	r3, #:lower16:lwip_stats
 137 00ea C0F20003 		movt	r3, #:upper16:lwip_stats
 138 00ee A3F87420 		strh	r2, [r3, #116]	@ movhi
 139              		.loc 1 127 0
 140 00f2 0598     		ldr	r0, [sp, #20]
 141 00f4 FFF7FEFF 		bl	pbuf_free
 142              		.loc 1 128 0
 143 00f8 39E1     		b	.L1
 144              	.L9:
 145              	.LBE2:
 146              		.loc 1 133 0
 147 00fa 059B     		ldr	r3, [sp, #20]
 148 00fc 1B89     		ldrh	r3, [r3, #8]
 149 00fe 072B     		cmp	r3, #7
 150 0100 40F20D81 		bls	.L27
 151              	.L11:
 152              		.loc 1 137 0
 153 0104 0598     		ldr	r0, [sp, #20]
 154 0106 FFF7FEFF 		bl	inet_chksum_pbuf
 155 010a 0346     		mov	r3, r0
 156 010c 002B     		cmp	r3, #0
 157 010e 12D0     		beq	.L12
 158              		.loc 1 139 0
 159 0110 0598     		ldr	r0, [sp, #20]
 160 0112 FFF7FEFF 		bl	pbuf_free
 161              		.loc 1 140 0
 162 0116 40F20003 		movw	r3, #:lower16:lwip_stats
 163 011a C0F20003 		movt	r3, #:upper16:lwip_stats
 164 011e B3F86830 		ldrh	r3, [r3, #104]
 165 0122 03F10103 		add	r3, r3, #1
 166 0126 9AB2     		uxth	r2, r3
 167 0128 40F20003 		movw	r3, #:lower16:lwip_stats
 168 012c C0F20003 		movt	r3, #:upper16:lwip_stats
 169 0130 A3F86820 		strh	r2, [r3, #104]	@ movhi
 170              		.loc 1 142 0
 171 0134 1BE1     		b	.L1
ARM GAS  /tmp/ccCK5uA5.s 			page 4


 172              	.L12:
 173              		.loc 1 145 0
 174 0136 0598     		ldr	r0, [sp, #20]
 175 0138 4FF02201 		mov	r1, #34
 176 013c FFF7FEFF 		bl	pbuf_header
 177 0140 0346     		mov	r3, r0
 178 0142 002B     		cmp	r3, #0
 179 0144 49D0     		beq	.L13
 180              	.LBB3:
 181              		.loc 1 151 0
 182 0146 BDF92630 		ldrsh	r3, [sp, #38]
 183 014a 0598     		ldr	r0, [sp, #20]
 184 014c 1946     		mov	r1, r3
 185 014e FFF7FEFF 		bl	pbuf_header
 186 0152 0346     		mov	r3, r0
 187 0154 002B     		cmp	r3, #0
 188 0156 02D0     		beq	.L14
 189              		.loc 1 152 0 discriminator 1
 190 0158 FFF7FEFF 		bl	port_halt
 191              		.loc 1 153 0 discriminator 1
 192 015c F4E0     		b	.L15
 193              	.L14:
 194              		.loc 1 156 0
 195 015e 059B     		ldr	r3, [sp, #20]
 196 0160 1B89     		ldrh	r3, [r3, #8]
 197 0162 4FF00200 		mov	r0, #2
 198 0166 1946     		mov	r1, r3
 199 0168 4FF00002 		mov	r2, #0
 200 016c FFF7FEFF 		bl	pbuf_alloc
 201 0170 0346     		mov	r3, r0
 202 0172 0893     		str	r3, [sp, #32]
 203              		.loc 1 157 0
 204 0174 089B     		ldr	r3, [sp, #32]
 205 0176 002B     		cmp	r3, #0
 206 0178 00F0E580 		beq	.L28
 207              	.L16:
 208              		.loc 1 161 0
 209 017c 089B     		ldr	r3, [sp, #32]
 210 017e 5B89     		ldrh	r3, [r3, #10]
 211 0180 1A46     		mov	r2, r3
 212 0182 BDF92630 		ldrsh	r3, [sp, #38]
 213 0186 03F10803 		add	r3, r3, #8
 214 018a 9A42     		cmp	r2, r3
 215 018c 01D2     		bcs	.L17
 216              		.loc 1 161 0 is_stmt 0 discriminator 1
 217 018e FFF7FEFF 		bl	port_halt
 218              	.L17:
 219              		.loc 1 164 0 is_stmt 1
 220 0192 0898     		ldr	r0, [sp, #32]
 221 0194 0599     		ldr	r1, [sp, #20]
 222 0196 FFF7FEFF 		bl	pbuf_copy
 223 019a 0346     		mov	r3, r0
 224 019c 002B     		cmp	r3, #0
 225 019e 02D0     		beq	.L18
 226              		.loc 1 165 0 discriminator 1
 227 01a0 FFF7FEFF 		bl	port_halt
 228              		.loc 1 166 0 discriminator 1
ARM GAS  /tmp/ccCK5uA5.s 			page 5


 229 01a4 D0E0     		b	.L15
 230              	.L18:
 231              		.loc 1 168 0
 232 01a6 089B     		ldr	r3, [sp, #32]
 233 01a8 5B68     		ldr	r3, [r3, #4]
 234 01aa 0B93     		str	r3, [sp, #44]
 235              		.loc 1 170 0
 236 01ac BDF82630 		ldrh	r3, [sp, #38]
 237 01b0 C3F10003 		rsb	r3, r3, #0
 238 01b4 9BB2     		uxth	r3, r3
 239 01b6 9BB2     		uxth	r3, r3
 240 01b8 1BB2     		sxth	r3, r3
 241 01ba 0898     		ldr	r0, [sp, #32]
 242 01bc 1946     		mov	r1, r3
 243 01be FFF7FEFF 		bl	pbuf_header
 244 01c2 0346     		mov	r3, r0
 245 01c4 002B     		cmp	r3, #0
 246 01c6 02D0     		beq	.L19
 247              		.loc 1 171 0 discriminator 1
 248 01c8 FFF7FEFF 		bl	port_halt
 249              		.loc 1 172 0 discriminator 1
 250 01cc BCE0     		b	.L15
 251              	.L19:
 252              		.loc 1 175 0
 253 01ce 0598     		ldr	r0, [sp, #20]
 254 01d0 FFF7FEFF 		bl	pbuf_free
 255              		.loc 1 177 0
 256 01d4 089B     		ldr	r3, [sp, #32]
 257 01d6 0593     		str	r3, [sp, #20]
 258 01d8 0AE0     		b	.L20
 259              	.L13:
 260              	.LBE3:
 261              		.loc 1 180 0
 262 01da 0598     		ldr	r0, [sp, #20]
 263 01dc 6FF02101 		mvn	r1, #33
 264 01e0 FFF7FEFF 		bl	pbuf_header
 265 01e4 0346     		mov	r3, r0
 266 01e6 002B     		cmp	r3, #0
 267 01e8 02D0     		beq	.L20
 268              		.loc 1 181 0 discriminator 1
 269 01ea FFF7FEFF 		bl	port_halt
 270              		.loc 1 182 0 discriminator 1
 271 01ee ABE0     		b	.L15
 272              	.L20:
 273              		.loc 1 189 0
 274 01f0 059B     		ldr	r3, [sp, #20]
 275 01f2 5B68     		ldr	r3, [r3, #4]
 276 01f4 0793     		str	r3, [sp, #28]
 277              		.loc 1 190 0
 278 01f6 40F20003 		movw	r3, #:lower16:current_iphdr_dest
 279 01fa C0F20003 		movt	r3, #:upper16:current_iphdr_dest
 280 01fe 1A68     		ldr	r2, [r3, #0]
 281 0200 0B9B     		ldr	r3, [sp, #44]
 282 0202 DA60     		str	r2, [r3, #12]	@ unaligned
 283              		.loc 1 191 0
 284 0204 40F20003 		movw	r3, #:lower16:current_iphdr_src
 285 0208 C0F20003 		movt	r3, #:upper16:current_iphdr_src
ARM GAS  /tmp/ccCK5uA5.s 			page 6


 286 020c 1A68     		ldr	r2, [r3, #0]
 287 020e 0B9B     		ldr	r3, [sp, #44]
 288 0210 1A61     		str	r2, [r3, #16]	@ unaligned
 289              		.loc 1 192 0
 290 0212 079B     		ldr	r3, [sp, #28]
 291 0214 4FF00002 		mov	r2, #0
 292 0218 1A70     		strb	r2, [r3, #0]
 293              		.loc 1 194 0
 294 021a 079B     		ldr	r3, [sp, #28]
 295 021c 5B88     		ldrh	r3, [r3, #2]	@ unaligned
 296 021e 9AB2     		uxth	r2, r3
 297 0220 4FF6F673 		movw	r3, #65526
 298 0224 9A42     		cmp	r2, r3
 299 0226 08D9     		bls	.L21
 300              		.loc 1 195 0
 301 0228 079B     		ldr	r3, [sp, #28]
 302 022a 5B88     		ldrh	r3, [r3, #2]	@ unaligned
 303 022c 9BB2     		uxth	r3, r3
 304 022e 03F10903 		add	r3, r3, #9
 305 0232 9AB2     		uxth	r2, r3
 306 0234 079B     		ldr	r3, [sp, #28]
 307 0236 5A80     		strh	r2, [r3, #2]	@ unaligned
 308 0238 07E0     		b	.L22
 309              	.L21:
 310              		.loc 1 197 0
 311 023a 079B     		ldr	r3, [sp, #28]
 312 023c 5B88     		ldrh	r3, [r3, #2]	@ unaligned
 313 023e 9BB2     		uxth	r3, r3
 314 0240 03F10803 		add	r3, r3, #8
 315 0244 9AB2     		uxth	r2, r3
 316 0246 079B     		ldr	r3, [sp, #28]
 317 0248 5A80     		strh	r2, [r3, #2]	@ unaligned
 318              	.L22:
 319              		.loc 1 201 0
 320 024a 0B9B     		ldr	r3, [sp, #44]
 321 024c 4FF0FF02 		mov	r2, #255
 322 0250 1A72     		strb	r2, [r3, #8]
 323              		.loc 1 202 0
 324 0252 0B9B     		ldr	r3, [sp, #44]
 325 0254 4FF00002 		mov	r2, #0
 326 0258 9A72     		strb	r2, [r3, #10]
 327 025a 4FF00002 		mov	r2, #0
 328 025e DA72     		strb	r2, [r3, #11]
 329              		.loc 1 204 0
 330 0260 0B98     		ldr	r0, [sp, #44]
 331 0262 4FF01401 		mov	r1, #20
 332 0266 FFF7FEFF 		bl	inet_chksum
 333 026a 0346     		mov	r3, r0
 334 026c 1A46     		mov	r2, r3
 335 026e 0B9B     		ldr	r3, [sp, #44]
 336 0270 5A81     		strh	r2, [r3, #10]	@ unaligned
 337              		.loc 1 207 0
 338 0272 40F20003 		movw	r3, #:lower16:lwip_stats
 339 0276 C0F20003 		movt	r3, #:upper16:lwip_stats
 340 027a B3F86030 		ldrh	r3, [r3, #96]
 341 027e 03F10103 		add	r3, r3, #1
 342 0282 9AB2     		uxth	r2, r3
ARM GAS  /tmp/ccCK5uA5.s 			page 7


 343 0284 40F20003 		movw	r3, #:lower16:lwip_stats
 344 0288 C0F20003 		movt	r3, #:upper16:lwip_stats
 345 028c A3F86020 		strh	r2, [r3, #96]	@ movhi
 346              		.loc 1 213 0
 347 0290 BDF92630 		ldrsh	r3, [sp, #38]
 348 0294 0598     		ldr	r0, [sp, #20]
 349 0296 1946     		mov	r1, r3
 350 0298 FFF7FEFF 		bl	pbuf_header
 351 029c 0346     		mov	r3, r0
 352 029e 002B     		cmp	r3, #0
 353 02a0 02D0     		beq	.L23
 354              		.loc 1 214 0 discriminator 1
 355 02a2 FFF7FEFF 		bl	port_halt
 356              		.loc 1 224 0 discriminator 1
 357 02a6 36E0     		b	.L6
 358              	.L23:
 359              	.LBB4:
 360              		.loc 1 218 0
 361 02a8 4FF00003 		mov	r3, #0
 362 02ac 0093     		str	r3, [sp, #0]
 363 02ae 4FF00103 		mov	r3, #1
 364 02b2 0193     		str	r3, [sp, #4]
 365 02b4 049B     		ldr	r3, [sp, #16]
 366 02b6 0293     		str	r3, [sp, #8]
 367 02b8 0598     		ldr	r0, [sp, #20]
 368 02ba 40F20001 		movw	r1, #:lower16:current_iphdr_dest
 369 02be C0F20001 		movt	r1, #:upper16:current_iphdr_dest
 370 02c2 4FF00002 		mov	r2, #0
 371 02c6 4FF0FF03 		mov	r3, #255
 372 02ca FFF7FEFF 		bl	ip_output_if
 373 02ce 0346     		mov	r3, r0
 374 02d0 8DF81B30 		strb	r3, [sp, #27]
 375              	.LBE4:
 376              		.loc 1 224 0
 377 02d4 1FE0     		b	.L6
 378              	.L25:
 379              		.loc 1 228 0
 380 02d6 40F20003 		movw	r3, #:lower16:lwip_stats
 381 02da C0F20003 		movt	r3, #:upper16:lwip_stats
 382 02de B3F87030 		ldrh	r3, [r3, #112]
 383 02e2 03F10103 		add	r3, r3, #1
 384 02e6 9AB2     		uxth	r2, r3
 385 02e8 40F20003 		movw	r3, #:lower16:lwip_stats
 386 02ec C0F20003 		movt	r3, #:upper16:lwip_stats
 387 02f0 A3F87020 		strh	r2, [r3, #112]	@ movhi
 388              		.loc 1 229 0
 389 02f4 40F20003 		movw	r3, #:lower16:lwip_stats
 390 02f8 C0F20003 		movt	r3, #:upper16:lwip_stats
 391 02fc B3F86630 		ldrh	r3, [r3, #102]
 392 0300 03F10103 		add	r3, r3, #1
 393 0304 9AB2     		uxth	r2, r3
 394 0306 40F20003 		movw	r3, #:lower16:lwip_stats
 395 030a C0F20003 		movt	r3, #:upper16:lwip_stats
 396 030e A3F86620 		strh	r2, [r3, #102]	@ movhi
 397 0312 00E0     		b	.L6
 398              	.L26:
 399              		.loc 1 106 0
ARM GAS  /tmp/ccCK5uA5.s 			page 8


 400 0314 00BF     		nop
 401              	.L6:
 402              		.loc 1 231 0
 403 0316 0598     		ldr	r0, [sp, #20]
 404 0318 FFF7FEFF 		bl	pbuf_free
 405              		.loc 1 232 0
 406 031c 27E0     		b	.L1
 407              	.L27:
 408              		.loc 1 135 0
 409 031e 00BF     		nop
 410              	.L2:
 411              		.loc 1 234 0
 412 0320 0598     		ldr	r0, [sp, #20]
 413 0322 FFF7FEFF 		bl	pbuf_free
 414              		.loc 1 235 0
 415 0326 40F20003 		movw	r3, #:lower16:lwip_stats
 416 032a C0F20003 		movt	r3, #:upper16:lwip_stats
 417 032e B3F86A30 		ldrh	r3, [r3, #106]
 418 0332 03F10103 		add	r3, r3, #1
 419 0336 9AB2     		uxth	r2, r3
 420 0338 40F20003 		movw	r3, #:lower16:lwip_stats
 421 033c C0F20003 		movt	r3, #:upper16:lwip_stats
 422 0340 A3F86A20 		strh	r2, [r3, #106]	@ movhi
 423              		.loc 1 237 0
 424 0344 13E0     		b	.L1
 425              	.L28:
 426              	.LBB5:
 427              		.loc 1 159 0
 428 0346 00BF     		nop
 429              	.L15:
 430              	.LBE5:
 431              		.loc 1 240 0
 432 0348 0598     		ldr	r0, [sp, #20]
 433 034a FFF7FEFF 		bl	pbuf_free
 434              		.loc 1 241 0
 435 034e 40F20003 		movw	r3, #:lower16:lwip_stats
 436 0352 C0F20003 		movt	r3, #:upper16:lwip_stats
 437 0356 B3F87430 		ldrh	r3, [r3, #116]
 438 035a 03F10103 		add	r3, r3, #1
 439 035e 9AB2     		uxth	r2, r3
 440 0360 40F20003 		movw	r3, #:lower16:lwip_stats
 441 0364 C0F20003 		movt	r3, #:upper16:lwip_stats
 442 0368 A3F87420 		strh	r2, [r3, #116]	@ movhi
 443              		.loc 1 243 0
 444 036c 00BF     		nop
 445              	.L1:
 446              		.loc 1 245 0
 447 036e 0DB0     		add	sp, sp, #52
 448 0370 00BD     		pop	{pc}
 449              		.cfi_endproc
 450              	.LFE7:
 451              		.size	icmp_input, .-icmp_input
 452 0372 00BFAFF3 		.section	.text.icmp_dest_unreach,"ax",%progbits
 452      0080AFF3 
 452      0080AFF3 
 452      0080
 453              		.align	2
ARM GAS  /tmp/ccCK5uA5.s 			page 9


 454              		.p2align 4,,15
 455              		.global	icmp_dest_unreach
 456              		.thumb
 457              		.thumb_func
 458              		.type	icmp_dest_unreach, %function
 459              	icmp_dest_unreach:
 460              	.LFB8:
 461              		.loc 1 258 0
 462              		.cfi_startproc
 463              		@ args = 0, pretend = 0, frame = 8
 464              		@ frame_needed = 0, uses_anonymous_args = 0
 465 0000 00B5     		push	{lr}
 466              	.LCFI2:
 467              		.cfi_def_cfa_offset 4
 468              		.cfi_offset 14, -4
 469 0002 83B0     		sub	sp, sp, #12
 470              	.LCFI3:
 471              		.cfi_def_cfa_offset 16
 472 0004 0190     		str	r0, [sp, #4]
 473 0006 0B46     		mov	r3, r1
 474 0008 8DF80330 		strb	r3, [sp, #3]
 475              		.loc 1 259 0
 476 000c 9DF80330 		ldrb	r3, [sp, #3]	@ zero_extendqisi2
 477 0010 0198     		ldr	r0, [sp, #4]
 478 0012 4FF00301 		mov	r1, #3
 479 0016 1A46     		mov	r2, r3
 480 0018 FFF7FEFF 		bl	icmp_send_response
 481              		.loc 1 260 0
 482 001c 03B0     		add	sp, sp, #12
 483 001e 00BD     		pop	{pc}
 484              		.cfi_endproc
 485              	.LFE8:
 486              		.size	icmp_dest_unreach, .-icmp_dest_unreach
 487              		.section	.text.icmp_time_exceeded,"ax",%progbits
 488              		.align	2
 489              		.p2align 4,,15
 490              		.global	icmp_time_exceeded
 491              		.thumb
 492              		.thumb_func
 493              		.type	icmp_time_exceeded, %function
 494              	icmp_time_exceeded:
 495              	.LFB9:
 496              		.loc 1 272 0
 497              		.cfi_startproc
 498              		@ args = 0, pretend = 0, frame = 8
 499              		@ frame_needed = 0, uses_anonymous_args = 0
 500 0000 00B5     		push	{lr}
 501              	.LCFI4:
 502              		.cfi_def_cfa_offset 4
 503              		.cfi_offset 14, -4
 504 0002 83B0     		sub	sp, sp, #12
 505              	.LCFI5:
 506              		.cfi_def_cfa_offset 16
 507 0004 0190     		str	r0, [sp, #4]
 508 0006 0B46     		mov	r3, r1
 509 0008 8DF80330 		strb	r3, [sp, #3]
 510              		.loc 1 273 0
ARM GAS  /tmp/ccCK5uA5.s 			page 10


 511 000c 9DF80330 		ldrb	r3, [sp, #3]	@ zero_extendqisi2
 512 0010 0198     		ldr	r0, [sp, #4]
 513 0012 4FF00B01 		mov	r1, #11
 514 0016 1A46     		mov	r2, r3
 515 0018 FFF7FEFF 		bl	icmp_send_response
 516              		.loc 1 274 0
 517 001c 03B0     		add	sp, sp, #12
 518 001e 00BD     		pop	{pc}
 519              		.cfi_endproc
 520              	.LFE9:
 521              		.size	icmp_time_exceeded, .-icmp_time_exceeded
 522              		.section	.text.icmp_send_response,"ax",%progbits
 523              		.align	2
 524              		.p2align 4,,15
 525              		.thumb
 526              		.thumb_func
 527              		.type	icmp_send_response, %function
 528              	icmp_send_response:
 529              	.LFB10:
 530              		.loc 1 288 0
 531              		.cfi_startproc
 532              		@ args = 0, pretend = 0, frame = 24
 533              		@ frame_needed = 0, uses_anonymous_args = 0
 534 0000 00B5     		push	{lr}
 535              	.LCFI6:
 536              		.cfi_def_cfa_offset 4
 537              		.cfi_offset 14, -4
 538 0002 89B0     		sub	sp, sp, #36
 539              	.LCFI7:
 540              		.cfi_def_cfa_offset 40
 541 0004 0390     		str	r0, [sp, #12]
 542 0006 1346     		mov	r3, r2
 543 0008 0A46     		mov	r2, r1
 544 000a 8DF80B20 		strb	r2, [sp, #11]
 545 000e 8DF80A30 		strb	r3, [sp, #10]
 546              		.loc 1 296 0
 547 0012 4FF00100 		mov	r0, #1
 548 0016 4FF02401 		mov	r1, #36
 549 001a 4FF00002 		mov	r2, #0
 550 001e FFF7FEFF 		bl	pbuf_alloc
 551 0022 0346     		mov	r3, r0
 552 0024 0793     		str	r3, [sp, #28]
 553              		.loc 1 298 0
 554 0026 079B     		ldr	r3, [sp, #28]
 555 0028 002B     		cmp	r3, #0
 556 002a 66D0     		beq	.L35
 557              	.L32:
 558              		.loc 1 302 0
 559 002c 079B     		ldr	r3, [sp, #28]
 560 002e 5B89     		ldrh	r3, [r3, #10]
 561 0030 232B     		cmp	r3, #35
 562 0032 01D8     		bhi	.L34
 563              		.loc 1 302 0 is_stmt 0 discriminator 1
 564 0034 FFF7FEFF 		bl	port_halt
 565              	.L34:
 566              		.loc 1 305 0 is_stmt 1
 567 0038 039B     		ldr	r3, [sp, #12]
ARM GAS  /tmp/ccCK5uA5.s 			page 11


 568 003a 5B68     		ldr	r3, [r3, #4]
 569 003c 0693     		str	r3, [sp, #24]
 570              		.loc 1 312 0
 571 003e 079B     		ldr	r3, [sp, #28]
 572 0040 5B68     		ldr	r3, [r3, #4]
 573 0042 0593     		str	r3, [sp, #20]
 574              		.loc 1 313 0
 575 0044 059B     		ldr	r3, [sp, #20]
 576 0046 9DF80B20 		ldrb	r2, [sp, #11]
 577 004a 1A70     		strb	r2, [r3, #0]
 578              		.loc 1 314 0
 579 004c 059B     		ldr	r3, [sp, #20]
 580 004e 9DF80A20 		ldrb	r2, [sp, #10]
 581 0052 5A70     		strb	r2, [r3, #1]
 582              		.loc 1 315 0
 583 0054 059B     		ldr	r3, [sp, #20]
 584 0056 4FF00002 		mov	r2, #0
 585 005a 1A71     		strb	r2, [r3, #4]
 586 005c 4FF00002 		mov	r2, #0
 587 0060 5A71     		strb	r2, [r3, #5]
 588              		.loc 1 316 0
 589 0062 059B     		ldr	r3, [sp, #20]
 590 0064 4FF00002 		mov	r2, #0
 591 0068 9A71     		strb	r2, [r3, #6]
 592 006a 4FF00002 		mov	r2, #0
 593 006e DA71     		strb	r2, [r3, #7]
 594              		.loc 1 319 0
 595 0070 079B     		ldr	r3, [sp, #28]
 596 0072 5B68     		ldr	r3, [r3, #4]
 597 0074 03F10802 		add	r2, r3, #8
 598 0078 039B     		ldr	r3, [sp, #12]
 599 007a 5B68     		ldr	r3, [r3, #4]
 600 007c 1146     		mov	r1, r2
 601 007e 1A46     		mov	r2, r3
 602 0080 4FF01C03 		mov	r3, #28
 603 0084 0846     		mov	r0, r1
 604 0086 1146     		mov	r1, r2
 605 0088 1A46     		mov	r2, r3
 606 008a FFF7FEFF 		bl	memcpy
 607              		.loc 1 323 0
 608 008e 059B     		ldr	r3, [sp, #20]
 609 0090 4FF00002 		mov	r2, #0
 610 0094 9A70     		strb	r2, [r3, #2]
 611 0096 4FF00002 		mov	r2, #0
 612 009a DA70     		strb	r2, [r3, #3]
 613              		.loc 1 324 0
 614 009c 079B     		ldr	r3, [sp, #28]
 615 009e 5B89     		ldrh	r3, [r3, #10]
 616 00a0 0598     		ldr	r0, [sp, #20]
 617 00a2 1946     		mov	r1, r3
 618 00a4 FFF7FEFF 		bl	inet_chksum
 619 00a8 0346     		mov	r3, r0
 620 00aa 1A46     		mov	r2, r3
 621 00ac 059B     		ldr	r3, [sp, #20]
 622 00ae 5A80     		strh	r2, [r3, #2]	@ unaligned
 623              		.loc 1 325 0
 624 00b0 40F20003 		movw	r3, #:lower16:lwip_stats
ARM GAS  /tmp/ccCK5uA5.s 			page 12


 625 00b4 C0F20003 		movt	r3, #:upper16:lwip_stats
 626 00b8 B3F86030 		ldrh	r3, [r3, #96]
 627 00bc 03F10103 		add	r3, r3, #1
 628 00c0 9AB2     		uxth	r2, r3
 629 00c2 40F20003 		movw	r3, #:lower16:lwip_stats
 630 00c6 C0F20003 		movt	r3, #:upper16:lwip_stats
 631 00ca A3F86020 		strh	r2, [r3, #96]	@ movhi
 632              		.loc 1 330 0
 633 00ce 069B     		ldr	r3, [sp, #24]
 634 00d0 DB68     		ldr	r3, [r3, #12]	@ unaligned
 635 00d2 0493     		str	r3, [sp, #16]
 636              		.loc 1 331 0
 637 00d4 04AB     		add	r3, sp, #16
 638 00d6 4FF00002 		mov	r2, #0
 639 00da 0092     		str	r2, [sp, #0]
 640 00dc 4FF00102 		mov	r2, #1
 641 00e0 0192     		str	r2, [sp, #4]
 642 00e2 0798     		ldr	r0, [sp, #28]
 643 00e4 4FF00001 		mov	r1, #0
 644 00e8 1A46     		mov	r2, r3
 645 00ea 4FF0FF03 		mov	r3, #255
 646 00ee FFF7FEFF 		bl	ip_output
 647              		.loc 1 332 0
 648 00f2 0798     		ldr	r0, [sp, #28]
 649 00f4 FFF7FEFF 		bl	pbuf_free
 650 00f8 00E0     		b	.L31
 651              	.L35:
 652              		.loc 1 300 0
 653 00fa 00BF     		nop
 654              	.L31:
 655              		.loc 1 333 0
 656 00fc 09B0     		add	sp, sp, #36
 657 00fe 00BD     		pop	{pc}
 658              		.cfi_endproc
 659              	.LFE10:
 660              		.size	icmp_send_response, .-icmp_send_response
 661              		.text
 662              	.Letext0:
 663              		.file 2 "/home/texzk/ChibiStudio/tools/GNU Tools ARM Embedded/4.6 2012q2/bin/../lib/gcc/arm-none-e
 664              		.file 3 "../../os/various/lwip_bindings/arch/cc.h"
 665              		.file 4 "../../ext/lwip/src/include/lwip/err.h"
 666              		.file 5 "../../ext/lwip/src/include/lwip/pbuf.h"
 667              		.file 6 "../../ext/lwip/src/include/ipv4/lwip/ip_addr.h"
 668              		.file 7 "../../ext/lwip/src/include/lwip/netif.h"
 669              		.file 8 "../../ext/lwip/src/include/ipv4/lwip/icmp.h"
 670              		.file 9 "../../ext/lwip/src/include/ipv4/lwip/ip.h"
 671              		.file 10 "../../ext/lwip/src/include/lwip/mem.h"
 672              		.file 11 "../../ext/lwip/src/include/lwip/stats.h"