ARM GAS  /tmp/ccxw3DHh.s 			page 1


   1              		.syntax unified
   2              		.cpu cortex-m3
   3              		.fpu softvfp
   4              		.eabi_attribute 20, 1
   5              		.eabi_attribute 21, 1
   6              		.eabi_attribute 23, 3
   7              		.eabi_attribute 24, 1
   8              		.eabi_attribute 25, 1
   9              		.eabi_attribute 26, 1
  10              		.eabi_attribute 30, 6
  11              		.eabi_attribute 34, 1
  12              		.eabi_attribute 18, 4
  13              		.thumb
  14              		.file	"ip.c"
  15              		.text
  16              	.Ltext0:
  17              		.cfi_sections	.debug_frame
  18              		.global	current_netif
  19              		.section	.bss.current_netif,"aw",%nobits
  20              		.align	2
  21              		.type	current_netif, %object
  22              		.size	current_netif, 4
  23              	current_netif:
  24 0000 00000000 		.space	4
  25              		.global	current_header
  26              		.section	.bss.current_header,"aw",%nobits
  27              		.align	2
  28              		.type	current_header, %object
  29              		.size	current_header, 4
  30              	current_header:
  31 0000 00000000 		.space	4
  32              		.global	current_iphdr_src
  33              		.section	.bss.current_iphdr_src,"aw",%nobits
  34              		.align	2
  35              		.type	current_iphdr_src, %object
  36              		.size	current_iphdr_src, 4
  37              	current_iphdr_src:
  38 0000 00000000 		.space	4
  39              		.global	current_iphdr_dest
  40              		.section	.bss.current_iphdr_dest,"aw",%nobits
  41              		.align	2
  42              		.type	current_iphdr_dest, %object
  43              		.size	current_iphdr_dest, 4
  44              	current_iphdr_dest:
  45 0000 00000000 		.space	4
  46              		.section	.bss.ip_id,"aw",%nobits
  47              		.align	1
  48              		.type	ip_id, %object
  49              		.size	ip_id, 2
  50              	ip_id:
  51 0000 0000     		.space	2
  52              		.section	.text.ip_route,"ax",%progbits
  53              		.align	2
  54              		.p2align 4,,15
  55              		.global	ip_route
  56              		.thumb
  57              		.thumb_func
ARM GAS  /tmp/ccxw3DHh.s 			page 2


  58              		.type	ip_route, %function
  59              	ip_route:
  60              	.LFB7:
  61              		.file 1 "../../ext/lwip/src/core/ipv4/ip.c"
  62              		.loc 1 125 0
  63              		.cfi_startproc
  64              		@ args = 0, pretend = 0, frame = 16
  65              		@ frame_needed = 0, uses_anonymous_args = 0
  66              		@ link register save eliminated.
  67 0000 84B0     		sub	sp, sp, #16
  68              	.LCFI0:
  69              		.cfi_def_cfa_offset 16
  70 0002 0190     		str	r0, [sp, #4]
  71              		.loc 1 129 0
  72 0004 40F20003 		movw	r3, #:lower16:netif_list
  73 0008 C0F20003 		movt	r3, #:upper16:netif_list
  74 000c 1B68     		ldr	r3, [r3, #0]
  75 000e 0393     		str	r3, [sp, #12]
  76 0010 16E0     		b	.L2
  77              	.L5:
  78              		.loc 1 131 0
  79 0012 039B     		ldr	r3, [sp, #12]
  80 0014 93F82930 		ldrb	r3, [r3, #41]	@ zero_extendqisi2
  81 0018 03F00103 		and	r3, r3, #1
  82 001c DBB2     		uxtb	r3, r3
  83 001e 002B     		cmp	r3, #0
  84 0020 0BD0     		beq	.L3
  85              		.loc 1 132 0
  86 0022 019B     		ldr	r3, [sp, #4]
  87 0024 1A68     		ldr	r2, [r3, #0]
  88 0026 039B     		ldr	r3, [sp, #12]
  89 0028 5B68     		ldr	r3, [r3, #4]
  90 002a 5A40     		eors	r2, r2, r3
  91 002c 039B     		ldr	r3, [sp, #12]
  92 002e 9B68     		ldr	r3, [r3, #8]
  93 0030 1340     		ands	r3, r3, r2
  94 0032 002B     		cmp	r3, #0
  95 0034 01D1     		bne	.L3
  96              		.loc 1 134 0
  97 0036 039B     		ldr	r3, [sp, #12]
  98 0038 2FE0     		b	.L4
  99              	.L3:
 100              		.loc 1 129 0
 101 003a 039B     		ldr	r3, [sp, #12]
 102 003c 1B68     		ldr	r3, [r3, #0]
 103 003e 0393     		str	r3, [sp, #12]
 104              	.L2:
 105              		.loc 1 129 0 is_stmt 0 discriminator 1
 106 0040 039B     		ldr	r3, [sp, #12]
 107 0042 002B     		cmp	r3, #0
 108 0044 E5D1     		bne	.L5
 109              		.loc 1 138 0 is_stmt 1
 110 0046 40F20003 		movw	r3, #:lower16:netif_default
 111 004a C0F20003 		movt	r3, #:upper16:netif_default
 112 004e 1B68     		ldr	r3, [r3, #0]
 113 0050 002B     		cmp	r3, #0
 114 0052 0BD0     		beq	.L6
ARM GAS  /tmp/ccxw3DHh.s 			page 3


 115              		.loc 1 138 0 is_stmt 0 discriminator 1
 116 0054 40F20003 		movw	r3, #:lower16:netif_default
 117 0058 C0F20003 		movt	r3, #:upper16:netif_default
 118 005c 1B68     		ldr	r3, [r3, #0]
 119 005e 93F82930 		ldrb	r3, [r3, #41]	@ zero_extendqisi2
 120 0062 03F00103 		and	r3, r3, #1
 121 0066 DBB2     		uxtb	r3, r3
 122 0068 002B     		cmp	r3, #0
 123 006a 11D1     		bne	.L7
 124              	.L6:
 125              		.loc 1 141 0 is_stmt 1
 126 006c 40F20003 		movw	r3, #:lower16:lwip_stats
 127 0070 C0F20003 		movt	r3, #:upper16:lwip_stats
 128 0074 B3F85630 		ldrh	r3, [r3, #86]
 129 0078 03F10103 		add	r3, r3, #1
 130 007c 9AB2     		uxth	r2, r3
 131 007e 40F20003 		movw	r3, #:lower16:lwip_stats
 132 0082 C0F20003 		movt	r3, #:upper16:lwip_stats
 133 0086 A3F85620 		strh	r2, [r3, #86]	@ movhi
 134              		.loc 1 143 0
 135 008a 4FF00003 		mov	r3, #0
 136 008e 04E0     		b	.L4
 137              	.L7:
 138              		.loc 1 146 0
 139 0090 40F20003 		movw	r3, #:lower16:netif_default
 140 0094 C0F20003 		movt	r3, #:upper16:netif_default
 141 0098 1B68     		ldr	r3, [r3, #0]
 142              	.L4:
 143              		.loc 1 147 0
 144 009a 1846     		mov	r0, r3
 145 009c 04B0     		add	sp, sp, #16
 146 009e 7047     		bx	lr
 147              		.cfi_endproc
 148              	.LFE7:
 149              		.size	ip_route, .-ip_route
 150              		.section	.text.ip_input,"ax",%progbits
 151              		.align	2
 152              		.p2align 4,,15
 153              		.global	ip_input
 154              		.thumb
 155              		.thumb_func
 156              		.type	ip_input, %function
 157              	ip_input:
 158              	.LFB8:
 159              		.loc 1 243 0
 160              		.cfi_startproc
 161              		@ args = 0, pretend = 0, frame = 24
 162              		@ frame_needed = 0, uses_anonymous_args = 0
 163 0000 00B5     		push	{lr}
 164              	.LCFI1:
 165              		.cfi_def_cfa_offset 4
 166              		.cfi_offset 14, -4
 167 0002 87B0     		sub	sp, sp, #28
 168              	.LCFI2:
 169              		.cfi_def_cfa_offset 32
 170 0004 0190     		str	r0, [sp, #4]
 171 0006 0091     		str	r1, [sp, #0]
ARM GAS  /tmp/ccxw3DHh.s 			page 4


 172              		.loc 1 252 0
 173 0008 40F20003 		movw	r3, #:lower16:lwip_stats
 174 000c C0F20003 		movt	r3, #:upper16:lwip_stats
 175 0010 B3F84A30 		ldrh	r3, [r3, #74]
 176 0014 03F10103 		add	r3, r3, #1
 177 0018 9AB2     		uxth	r2, r3
 178 001a 40F20003 		movw	r3, #:lower16:lwip_stats
 179 001e C0F20003 		movt	r3, #:upper16:lwip_stats
 180 0022 A3F84A20 		strh	r2, [r3, #74]	@ movhi
 181              		.loc 1 256 0
 182 0026 019B     		ldr	r3, [sp, #4]
 183 0028 5B68     		ldr	r3, [r3, #4]
 184 002a 0593     		str	r3, [sp, #20]
 185              		.loc 1 257 0
 186 002c 059B     		ldr	r3, [sp, #20]
 187 002e 1B88     		ldrh	r3, [r3, #0]	@ unaligned
 188 0030 9BB2     		uxth	r3, r3
 189 0032 1846     		mov	r0, r3
 190 0034 FFF7FEFF 		bl	lwip_ntohs
 191 0038 0346     		mov	r3, r0
 192 003a 4FEA1333 		lsr	r3, r3, #12
 193 003e 9BB2     		uxth	r3, r3
 194 0040 042B     		cmp	r3, #4
 195 0042 23D0     		beq	.L9
 196              		.loc 1 260 0
 197 0044 0198     		ldr	r0, [sp, #4]
 198 0046 FFF7FEFF 		bl	pbuf_free
 199              		.loc 1 261 0
 200 004a 40F20003 		movw	r3, #:lower16:lwip_stats
 201 004e C0F20003 		movt	r3, #:upper16:lwip_stats
 202 0052 B3F85C30 		ldrh	r3, [r3, #92]
 203 0056 03F10103 		add	r3, r3, #1
 204 005a 9AB2     		uxth	r2, r3
 205 005c 40F20003 		movw	r3, #:lower16:lwip_stats
 206 0060 C0F20003 		movt	r3, #:upper16:lwip_stats
 207 0064 A3F85C20 		strh	r2, [r3, #92]	@ movhi
 208              		.loc 1 262 0
 209 0068 40F20003 		movw	r3, #:lower16:lwip_stats
 210 006c C0F20003 		movt	r3, #:upper16:lwip_stats
 211 0070 B3F84E30 		ldrh	r3, [r3, #78]
 212 0074 03F10103 		add	r3, r3, #1
 213 0078 9AB2     		uxth	r2, r3
 214 007a 40F20003 		movw	r3, #:lower16:lwip_stats
 215 007e C0F20003 		movt	r3, #:upper16:lwip_stats
 216 0082 A3F84E20 		strh	r2, [r3, #78]	@ movhi
 217              		.loc 1 264 0
 218 0086 4FF00003 		mov	r3, #0
 219 008a A3E1     		b	.L10
 220              	.L9:
 221              		.loc 1 268 0
 222 008c 059B     		ldr	r3, [sp, #20]
 223 008e 1B88     		ldrh	r3, [r3, #0]	@ unaligned
 224 0090 9BB2     		uxth	r3, r3
 225 0092 1846     		mov	r0, r3
 226 0094 FFF7FEFF 		bl	lwip_ntohs
 227 0098 0346     		mov	r3, r0
 228 009a 4FEA1323 		lsr	r3, r3, #8
ARM GAS  /tmp/ccxw3DHh.s 			page 5


 229 009e 9BB2     		uxth	r3, r3
 230 00a0 03F00F03 		and	r3, r3, #15
 231 00a4 ADF80A30 		strh	r3, [sp, #10]	@ movhi
 232              		.loc 1 270 0
 233 00a8 BDF80A30 		ldrh	r3, [sp, #10]	@ movhi
 234 00ac 4FEA8303 		lsl	r3, r3, #2
 235 00b0 ADF80A30 		strh	r3, [sp, #10]	@ movhi
 236              		.loc 1 272 0
 237 00b4 059B     		ldr	r3, [sp, #20]
 238 00b6 5B88     		ldrh	r3, [r3, #2]	@ unaligned
 239 00b8 9BB2     		uxth	r3, r3
 240 00ba 1846     		mov	r0, r3
 241 00bc FFF7FEFF 		bl	lwip_ntohs
 242 00c0 0346     		mov	r3, r0
 243 00c2 ADF80830 		strh	r3, [sp, #8]	@ movhi
 244              		.loc 1 275 0
 245 00c6 019B     		ldr	r3, [sp, #4]
 246 00c8 5B89     		ldrh	r3, [r3, #10]
 247 00ca BDF80A20 		ldrh	r2, [sp, #10]
 248 00ce 9A42     		cmp	r2, r3
 249 00d0 05D8     		bhi	.L11
 250              		.loc 1 275 0 is_stmt 0 discriminator 1
 251 00d2 019B     		ldr	r3, [sp, #4]
 252 00d4 1B89     		ldrh	r3, [r3, #8]
 253 00d6 BDF80820 		ldrh	r2, [sp, #8]
 254 00da 9A42     		cmp	r2, r3
 255 00dc 23D9     		bls	.L12
 256              	.L11:
 257              		.loc 1 287 0 is_stmt 1
 258 00de 0198     		ldr	r0, [sp, #4]
 259 00e0 FFF7FEFF 		bl	pbuf_free
 260              		.loc 1 288 0
 261 00e4 40F20003 		movw	r3, #:lower16:lwip_stats
 262 00e8 C0F20003 		movt	r3, #:upper16:lwip_stats
 263 00ec B3F85230 		ldrh	r3, [r3, #82]
 264 00f0 03F10103 		add	r3, r3, #1
 265 00f4 9AB2     		uxth	r2, r3
 266 00f6 40F20003 		movw	r3, #:lower16:lwip_stats
 267 00fa C0F20003 		movt	r3, #:upper16:lwip_stats
 268 00fe A3F85220 		strh	r2, [r3, #82]	@ movhi
 269              		.loc 1 289 0
 270 0102 40F20003 		movw	r3, #:lower16:lwip_stats
 271 0106 C0F20003 		movt	r3, #:upper16:lwip_stats
 272 010a B3F84E30 		ldrh	r3, [r3, #78]
 273 010e 03F10103 		add	r3, r3, #1
 274 0112 9AB2     		uxth	r2, r3
 275 0114 40F20003 		movw	r3, #:lower16:lwip_stats
 276 0118 C0F20003 		movt	r3, #:upper16:lwip_stats
 277 011c A3F84E20 		strh	r2, [r3, #78]	@ movhi
 278              		.loc 1 291 0
 279 0120 4FF00003 		mov	r3, #0
 280 0124 56E1     		b	.L10
 281              	.L12:
 282              		.loc 1 296 0
 283 0126 BDF80A30 		ldrh	r3, [sp, #10]
 284 012a 0598     		ldr	r0, [sp, #20]
 285 012c 1946     		mov	r1, r3
ARM GAS  /tmp/ccxw3DHh.s 			page 6


 286 012e FFF7FEFF 		bl	inet_chksum
 287 0132 0346     		mov	r3, r0
 288 0134 002B     		cmp	r3, #0
 289 0136 23D0     		beq	.L13
 290              		.loc 1 301 0
 291 0138 0198     		ldr	r0, [sp, #4]
 292 013a FFF7FEFF 		bl	pbuf_free
 293              		.loc 1 302 0
 294 013e 40F20003 		movw	r3, #:lower16:lwip_stats
 295 0142 C0F20003 		movt	r3, #:upper16:lwip_stats
 296 0146 B3F85030 		ldrh	r3, [r3, #80]
 297 014a 03F10103 		add	r3, r3, #1
 298 014e 9AB2     		uxth	r2, r3
 299 0150 40F20003 		movw	r3, #:lower16:lwip_stats
 300 0154 C0F20003 		movt	r3, #:upper16:lwip_stats
 301 0158 A3F85020 		strh	r2, [r3, #80]	@ movhi
 302              		.loc 1 303 0
 303 015c 40F20003 		movw	r3, #:lower16:lwip_stats
 304 0160 C0F20003 		movt	r3, #:upper16:lwip_stats
 305 0164 B3F84E30 		ldrh	r3, [r3, #78]
 306 0168 03F10103 		add	r3, r3, #1
 307 016c 9AB2     		uxth	r2, r3
 308 016e 40F20003 		movw	r3, #:lower16:lwip_stats
 309 0172 C0F20003 		movt	r3, #:upper16:lwip_stats
 310 0176 A3F84E20 		strh	r2, [r3, #78]	@ movhi
 311              		.loc 1 305 0
 312 017a 4FF00003 		mov	r3, #0
 313 017e 29E1     		b	.L10
 314              	.L13:
 315              		.loc 1 311 0
 316 0180 BDF80830 		ldrh	r3, [sp, #8]
 317 0184 0198     		ldr	r0, [sp, #4]
 318 0186 1946     		mov	r1, r3
 319 0188 FFF7FEFF 		bl	pbuf_realloc
 320              		.loc 1 314 0
 321 018c 059B     		ldr	r3, [sp, #20]
 322 018e 1A69     		ldr	r2, [r3, #16]	@ unaligned
 323 0190 40F20003 		movw	r3, #:lower16:current_iphdr_dest
 324 0194 C0F20003 		movt	r3, #:upper16:current_iphdr_dest
 325 0198 1A60     		str	r2, [r3, #0]
 326              		.loc 1 315 0
 327 019a 059B     		ldr	r3, [sp, #20]
 328 019c DA68     		ldr	r2, [r3, #12]	@ unaligned
 329 019e 40F20003 		movw	r3, #:lower16:current_iphdr_src
 330 01a2 C0F20003 		movt	r3, #:upper16:current_iphdr_src
 331 01a6 1A60     		str	r2, [r3, #0]
 332              	.LBB2:
 333              		.loc 1 331 0
 334 01a8 4FF00103 		mov	r3, #1
 335 01ac 0393     		str	r3, [sp, #12]
 336              		.loc 1 332 0
 337 01ae 009B     		ldr	r3, [sp, #0]
 338 01b0 0493     		str	r3, [sp, #16]
 339              	.L19:
 340              		.loc 1 341 0
 341 01b2 049B     		ldr	r3, [sp, #16]
 342 01b4 93F82930 		ldrb	r3, [r3, #41]	@ zero_extendqisi2
ARM GAS  /tmp/ccxw3DHh.s 			page 7


 343 01b8 03F00103 		and	r3, r3, #1
 344 01bc DBB2     		uxtb	r3, r3
 345 01be 002B     		cmp	r3, #0
 346 01c0 1DD0     		beq	.L14
 347              		.loc 1 341 0 is_stmt 0 discriminator 1
 348 01c2 049B     		ldr	r3, [sp, #16]
 349 01c4 03F10403 		add	r3, r3, #4
 350 01c8 002B     		cmp	r3, #0
 351 01ca 18D0     		beq	.L14
 352 01cc 049B     		ldr	r3, [sp, #16]
 353 01ce 5B68     		ldr	r3, [r3, #4]
 354 01d0 002B     		cmp	r3, #0
 355 01d2 14D0     		beq	.L14
 356              		.loc 1 343 0 is_stmt 1
 357 01d4 40F20003 		movw	r3, #:lower16:current_iphdr_dest
 358 01d8 C0F20003 		movt	r3, #:upper16:current_iphdr_dest
 359 01dc 1A68     		ldr	r2, [r3, #0]
 360 01de 049B     		ldr	r3, [sp, #16]
 361 01e0 5B68     		ldr	r3, [r3, #4]
 362 01e2 9A42     		cmp	r2, r3
 363 01e4 25D0     		beq	.L15
 364              		.loc 1 345 0 discriminator 1
 365 01e6 40F20003 		movw	r3, #:lower16:current_iphdr_dest
 366 01ea C0F20003 		movt	r3, #:upper16:current_iphdr_dest
 367 01ee 1B68     		ldr	r3, [r3, #0]
 368 01f0 1846     		mov	r0, r3
 369 01f2 0499     		ldr	r1, [sp, #16]
 370 01f4 FFF7FEFF 		bl	ip4_addr_isbroadcast
 371 01f8 0346     		mov	r3, r0
 372              		.loc 1 343 0 discriminator 1
 373 01fa 002B     		cmp	r3, #0
 374 01fc 19D1     		bne	.L15
 375              	.L14:
 376              		.loc 1 363 0
 377 01fe 039B     		ldr	r3, [sp, #12]
 378 0200 002B     		cmp	r3, #0
 379 0202 09D0     		beq	.L16
 380              		.loc 1 364 0
 381 0204 4FF00003 		mov	r3, #0
 382 0208 0393     		str	r3, [sp, #12]
 383              		.loc 1 365 0
 384 020a 40F20003 		movw	r3, #:lower16:netif_list
 385 020e C0F20003 		movt	r3, #:upper16:netif_list
 386 0212 1B68     		ldr	r3, [r3, #0]
 387 0214 0493     		str	r3, [sp, #16]
 388 0216 02E0     		b	.L17
 389              	.L16:
 390              		.loc 1 367 0
 391 0218 049B     		ldr	r3, [sp, #16]
 392 021a 1B68     		ldr	r3, [r3, #0]
 393 021c 0493     		str	r3, [sp, #16]
 394              	.L17:
 395              		.loc 1 369 0
 396 021e 049A     		ldr	r2, [sp, #16]
 397 0220 009B     		ldr	r3, [sp, #0]
 398 0222 9A42     		cmp	r2, r3
 399 0224 02D1     		bne	.L18
ARM GAS  /tmp/ccxw3DHh.s 			page 8


 400              		.loc 1 370 0
 401 0226 049B     		ldr	r3, [sp, #16]
 402 0228 1B68     		ldr	r3, [r3, #0]
 403 022a 0493     		str	r3, [sp, #16]
 404              	.L18:
 405              		.loc 1 372 0
 406 022c 049B     		ldr	r3, [sp, #16]
 407 022e 002B     		cmp	r3, #0
 408 0230 BFD1     		bne	.L19
 409              	.L15:
 410              	.LBE2:
 411              		.loc 1 405 0
 412 0232 40F20003 		movw	r3, #:lower16:current_iphdr_src
 413 0236 C0F20003 		movt	r3, #:upper16:current_iphdr_src
 414 023a 1B68     		ldr	r3, [r3, #0]
 415 023c 1846     		mov	r0, r3
 416 023e 0099     		ldr	r1, [sp, #0]
 417 0240 FFF7FEFF 		bl	ip4_addr_isbroadcast
 418 0244 0346     		mov	r3, r0
 419 0246 002B     		cmp	r3, #0
 420 0248 08D1     		bne	.L20
 421              		.loc 1 406 0 discriminator 1
 422 024a 40F20003 		movw	r3, #:lower16:current_iphdr_src
 423 024e C0F20003 		movt	r3, #:upper16:current_iphdr_src
 424 0252 1B68     		ldr	r3, [r3, #0]
 425 0254 03F0F003 		and	r3, r3, #240
 426              		.loc 1 405 0 discriminator 1
 427 0258 E02B     		cmp	r3, #224
 428 025a 14D1     		bne	.L21
 429              	.L20:
 430              		.loc 1 410 0
 431 025c 0198     		ldr	r0, [sp, #4]
 432 025e FFF7FEFF 		bl	pbuf_free
 433              		.loc 1 411 0
 434 0262 40F20003 		movw	r3, #:lower16:lwip_stats
 435 0266 C0F20003 		movt	r3, #:upper16:lwip_stats
 436 026a B3F84E30 		ldrh	r3, [r3, #78]
 437 026e 03F10103 		add	r3, r3, #1
 438 0272 9AB2     		uxth	r2, r3
 439 0274 40F20003 		movw	r3, #:lower16:lwip_stats
 440 0278 C0F20003 		movt	r3, #:upper16:lwip_stats
 441 027c A3F84E20 		strh	r2, [r3, #78]	@ movhi
 442              		.loc 1 414 0
 443 0280 4FF00003 		mov	r3, #0
 444 0284 A6E0     		b	.L10
 445              	.L21:
 446              		.loc 1 419 0
 447 0286 049B     		ldr	r3, [sp, #16]
 448 0288 002B     		cmp	r3, #0
 449 028a 05D1     		bne	.L22
 450              		.loc 1 433 0
 451 028c 0198     		ldr	r0, [sp, #4]
 452 028e FFF7FEFF 		bl	pbuf_free
 453              		.loc 1 434 0
 454 0292 4FF00003 		mov	r3, #0
 455 0296 9DE0     		b	.L10
 456              	.L22:
ARM GAS  /tmp/ccxw3DHh.s 			page 9


 457              		.loc 1 437 0
 458 0298 059B     		ldr	r3, [sp, #20]
 459 029a DB88     		ldrh	r3, [r3, #6]	@ unaligned
 460 029c 9BB2     		uxth	r3, r3
 461 029e 1A46     		mov	r2, r3
 462 02a0 4FF63F73 		movw	r3, #65343
 463 02a4 1340     		ands	r3, r3, r2
 464 02a6 002B     		cmp	r3, #0
 465 02a8 0DD0     		beq	.L23
 466              		.loc 1 442 0
 467 02aa 0198     		ldr	r0, [sp, #4]
 468 02ac FFF7FEFF 		bl	ip_reass
 469 02b0 0346     		mov	r3, r0
 470 02b2 0193     		str	r3, [sp, #4]
 471              		.loc 1 444 0
 472 02b4 019B     		ldr	r3, [sp, #4]
 473 02b6 002B     		cmp	r3, #0
 474 02b8 02D1     		bne	.L24
 475              		.loc 1 445 0
 476 02ba 4FF00003 		mov	r3, #0
 477 02be 89E0     		b	.L10
 478              	.L24:
 479              		.loc 1 447 0
 480 02c0 019B     		ldr	r3, [sp, #4]
 481 02c2 5B68     		ldr	r3, [r3, #4]
 482 02c4 0593     		str	r3, [sp, #20]
 483              	.L23:
 484              		.loc 1 483 0
 485 02c6 40F20003 		movw	r3, #:lower16:current_netif
 486 02ca C0F20003 		movt	r3, #:upper16:current_netif
 487 02ce 009A     		ldr	r2, [sp, #0]
 488 02d0 1A60     		str	r2, [r3, #0]
 489              		.loc 1 484 0
 490 02d2 40F20003 		movw	r3, #:lower16:current_header
 491 02d6 C0F20003 		movt	r3, #:upper16:current_header
 492 02da 059A     		ldr	r2, [sp, #20]
 493 02dc 1A60     		str	r2, [r3, #0]
 494              		.loc 1 488 0
 495 02de 0198     		ldr	r0, [sp, #4]
 496 02e0 0099     		ldr	r1, [sp, #0]
 497 02e2 FFF7FEFF 		bl	raw_input
 498 02e6 0346     		mov	r3, r0
 499 02e8 002B     		cmp	r3, #0
 500 02ea 55D1     		bne	.L25
 501              		.loc 1 492 0
 502 02ec 059B     		ldr	r3, [sp, #20]
 503 02ee 5B7A     		ldrb	r3, [r3, #9]	@ zero_extendqisi2
 504 02f0 062B     		cmp	r3, #6
 505 02f2 09D0     		beq	.L28
 506 02f4 112B     		cmp	r3, #17
 507 02f6 02D0     		beq	.L29
 508 02f8 012B     		cmp	r3, #1
 509 02fa 0AD0     		beq	.L27
 510 02fc 0EE0     		b	.L31
 511              	.L29:
 512              		.loc 1 499 0
 513 02fe 0198     		ldr	r0, [sp, #4]
ARM GAS  /tmp/ccxw3DHh.s 			page 10


 514 0300 0099     		ldr	r1, [sp, #0]
 515 0302 FFF7FEFF 		bl	udp_input
 516              		.loc 1 500 0
 517 0306 47E0     		b	.L25
 518              	.L28:
 519              		.loc 1 505 0
 520 0308 0198     		ldr	r0, [sp, #4]
 521 030a 0099     		ldr	r1, [sp, #0]
 522 030c FFF7FEFF 		bl	tcp_input
 523              		.loc 1 506 0
 524 0310 42E0     		b	.L25
 525              	.L27:
 526              		.loc 1 511 0
 527 0312 0198     		ldr	r0, [sp, #4]
 528 0314 0099     		ldr	r1, [sp, #0]
 529 0316 FFF7FEFF 		bl	icmp_input
 530              		.loc 1 512 0
 531 031a 3DE0     		b	.L25
 532              	.L31:
 533              		.loc 1 522 0
 534 031c 40F20003 		movw	r3, #:lower16:current_iphdr_dest
 535 0320 C0F20003 		movt	r3, #:upper16:current_iphdr_dest
 536 0324 1B68     		ldr	r3, [r3, #0]
 537 0326 1846     		mov	r0, r3
 538 0328 0099     		ldr	r1, [sp, #0]
 539 032a FFF7FEFF 		bl	ip4_addr_isbroadcast
 540 032e 0346     		mov	r3, r0
 541 0330 002B     		cmp	r3, #0
 542 0332 10D1     		bne	.L30
 543              		.loc 1 523 0 discriminator 1
 544 0334 40F20003 		movw	r3, #:lower16:current_iphdr_dest
 545 0338 C0F20003 		movt	r3, #:upper16:current_iphdr_dest
 546 033c 1B68     		ldr	r3, [r3, #0]
 547 033e 03F0F003 		and	r3, r3, #240
 548              		.loc 1 522 0 discriminator 1
 549 0342 E02B     		cmp	r3, #224
 550 0344 07D0     		beq	.L30
 551              		.loc 1 524 0
 552 0346 019B     		ldr	r3, [sp, #4]
 553 0348 059A     		ldr	r2, [sp, #20]
 554 034a 5A60     		str	r2, [r3, #4]
 555              		.loc 1 525 0
 556 034c 0198     		ldr	r0, [sp, #4]
 557 034e 4FF00201 		mov	r1, #2
 558 0352 FFF7FEFF 		bl	icmp_dest_unreach
 559              	.L30:
 560              		.loc 1 528 0
 561 0356 0198     		ldr	r0, [sp, #4]
 562 0358 FFF7FEFF 		bl	pbuf_free
 563              		.loc 1 532 0
 564 035c 40F20003 		movw	r3, #:lower16:lwip_stats
 565 0360 C0F20003 		movt	r3, #:upper16:lwip_stats
 566 0364 B3F85830 		ldrh	r3, [r3, #88]
 567 0368 03F10103 		add	r3, r3, #1
 568 036c 9AB2     		uxth	r2, r3
 569 036e 40F20003 		movw	r3, #:lower16:lwip_stats
 570 0372 C0F20003 		movt	r3, #:upper16:lwip_stats
ARM GAS  /tmp/ccxw3DHh.s 			page 11


 571 0376 A3F85820 		strh	r2, [r3, #88]	@ movhi
 572              		.loc 1 533 0
 573 037a 40F20003 		movw	r3, #:lower16:lwip_stats
 574 037e C0F20003 		movt	r3, #:upper16:lwip_stats
 575 0382 B3F84E30 		ldrh	r3, [r3, #78]
 576 0386 03F10103 		add	r3, r3, #1
 577 038a 9AB2     		uxth	r2, r3
 578 038c 40F20003 		movw	r3, #:lower16:lwip_stats
 579 0390 C0F20003 		movt	r3, #:upper16:lwip_stats
 580 0394 A3F84E20 		strh	r2, [r3, #78]	@ movhi
 581              	.L25:
 582              		.loc 1 538 0
 583 0398 40F20003 		movw	r3, #:lower16:current_netif
 584 039c C0F20003 		movt	r3, #:upper16:current_netif
 585 03a0 4FF00002 		mov	r2, #0
 586 03a4 1A60     		str	r2, [r3, #0]
 587              		.loc 1 539 0
 588 03a6 40F20003 		movw	r3, #:lower16:current_header
 589 03aa C0F20003 		movt	r3, #:upper16:current_header
 590 03ae 4FF00002 		mov	r2, #0
 591 03b2 1A60     		str	r2, [r3, #0]
 592              		.loc 1 540 0
 593 03b4 40F20003 		movw	r3, #:lower16:current_iphdr_src
 594 03b8 C0F20003 		movt	r3, #:upper16:current_iphdr_src
 595 03bc 4FF00002 		mov	r2, #0
 596 03c0 1A60     		str	r2, [r3, #0]
 597              		.loc 1 541 0
 598 03c2 40F20003 		movw	r3, #:lower16:current_iphdr_dest
 599 03c6 C0F20003 		movt	r3, #:upper16:current_iphdr_dest
 600 03ca 4FF00002 		mov	r2, #0
 601 03ce 1A60     		str	r2, [r3, #0]
 602              		.loc 1 543 0
 603 03d0 4FF00003 		mov	r3, #0
 604              	.L10:
 605 03d4 5BB2     		sxtb	r3, r3
 606              		.loc 1 544 0
 607 03d6 1846     		mov	r0, r3
 608 03d8 07B0     		add	sp, sp, #28
 609 03da 00BD     		pop	{pc}
 610              		.cfi_endproc
 611              	.LFE8:
 612              		.size	ip_input, .-ip_input
 613 03dc AFF30080 		.section	.text.ip_output_if,"ax",%progbits
 614              		.align	2
 615              		.p2align 4,,15
 616              		.global	ip_output_if
 617              		.thumb
 618              		.thumb_func
 619              		.type	ip_output_if, %function
 620              	ip_output_if:
 621              	.LFB9:
 622              		.loc 1 575 0
 623              		.cfi_startproc
 624              		@ args = 12, pretend = 0, frame = 32
 625              		@ frame_needed = 0, uses_anonymous_args = 0
 626 0000 00B5     		push	{lr}
 627              	.LCFI3:
ARM GAS  /tmp/ccxw3DHh.s 			page 12


 628              		.cfi_def_cfa_offset 4
 629              		.cfi_offset 14, -4
 630 0002 89B0     		sub	sp, sp, #36
 631              	.LCFI4:
 632              		.cfi_def_cfa_offset 40
 633 0004 0390     		str	r0, [sp, #12]
 634 0006 0291     		str	r1, [sp, #8]
 635 0008 0192     		str	r2, [sp, #4]
 636 000a 8DF80330 		strb	r3, [sp, #3]
 637              		.loc 1 594 0
 638 000e 4FF00003 		mov	r3, #0
 639 0012 0793     		str	r3, [sp, #28]
 640              		.loc 1 599 0
 641 0014 039B     		ldr	r3, [sp, #12]
 642 0016 DB89     		ldrh	r3, [r3, #14]
 643 0018 012B     		cmp	r3, #1
 644 001a 01D0     		beq	.L33
 645              		.loc 1 599 0 is_stmt 0 discriminator 1
 646 001c FFF7FEFF 		bl	port_halt
 647              	.L33:
 648              		.loc 1 604 0 is_stmt 1
 649 0020 019B     		ldr	r3, [sp, #4]
 650 0022 002B     		cmp	r3, #0
 651 0024 00F0D980 		beq	.L34
 652              	.LBB3:
 653              		.loc 1 605 0
 654 0028 4FF01403 		mov	r3, #20
 655 002c ADF81A30 		strh	r3, [sp, #26]	@ movhi
 656              		.loc 1 635 0
 657 0030 0398     		ldr	r0, [sp, #12]
 658 0032 4FF01401 		mov	r1, #20
 659 0036 FFF7FEFF 		bl	pbuf_header
 660 003a 0346     		mov	r3, r0
 661 003c 002B     		cmp	r3, #0
 662 003e 11D0     		beq	.L35
 663              		.loc 1 638 0
 664 0040 40F20003 		movw	r3, #:lower16:lwip_stats
 665 0044 C0F20003 		movt	r3, #:upper16:lwip_stats
 666 0048 B3F85C30 		ldrh	r3, [r3, #92]
 667 004c 03F10103 		add	r3, r3, #1
 668 0050 9AB2     		uxth	r2, r3
 669 0052 40F20003 		movw	r3, #:lower16:lwip_stats
 670 0056 C0F20003 		movt	r3, #:upper16:lwip_stats
 671 005a A3F85C20 		strh	r2, [r3, #92]	@ movhi
 672              		.loc 1 640 0
 673 005e 4FF0FE03 		mov	r3, #254
 674 0062 E9E0     		b	.L36
 675              	.L35:
 676              		.loc 1 643 0
 677 0064 039B     		ldr	r3, [sp, #12]
 678 0066 5B68     		ldr	r3, [r3, #4]
 679 0068 0593     		str	r3, [sp, #20]
 680              		.loc 1 644 0
 681 006a 039B     		ldr	r3, [sp, #12]
 682 006c 5B89     		ldrh	r3, [r3, #10]
 683 006e 132B     		cmp	r3, #19
 684 0070 01D8     		bhi	.L37
ARM GAS  /tmp/ccxw3DHh.s 			page 13


 685              		.loc 1 644 0 is_stmt 0 discriminator 1
 686 0072 FFF7FEFF 		bl	port_halt
 687              	.L37:
 688              		.loc 1 647 0 is_stmt 1
 689 0076 059B     		ldr	r3, [sp, #20]
 690 0078 9DF80320 		ldrb	r2, [sp, #3]
 691 007c 1A72     		strb	r2, [r3, #8]
 692              		.loc 1 648 0
 693 007e 059B     		ldr	r3, [sp, #20]
 694 0080 9DF82C20 		ldrb	r2, [sp, #44]
 695 0084 5A72     		strb	r2, [r3, #9]
 696              		.loc 1 650 0
 697 0086 9DF82C30 		ldrb	r3, [sp, #44]	@ zero_extendqisi2
 698 008a 4FEA0322 		lsl	r2, r3, #8
 699 008e 9DF80330 		ldrb	r3, [sp, #3]	@ zero_extendqisi2
 700 0092 1343     		orrs	r3, r3, r2
 701 0094 079A     		ldr	r2, [sp, #28]
 702 0096 D318     		adds	r3, r2, r3
 703 0098 0793     		str	r3, [sp, #28]
 704              		.loc 1 654 0
 705 009a 019B     		ldr	r3, [sp, #4]
 706 009c 1A68     		ldr	r2, [r3, #0]
 707 009e 059B     		ldr	r3, [sp, #20]
 708 00a0 1A61     		str	r2, [r3, #16]	@ unaligned
 709              		.loc 1 656 0
 710 00a2 059B     		ldr	r3, [sp, #20]
 711 00a4 1B69     		ldr	r3, [r3, #16]	@ unaligned
 712 00a6 4FEA0343 		lsl	r3, r3, #16
 713 00aa 4FEA1343 		lsr	r3, r3, #16
 714 00ae 079A     		ldr	r2, [sp, #28]
 715 00b0 D318     		adds	r3, r2, r3
 716 00b2 0793     		str	r3, [sp, #28]
 717              		.loc 1 657 0
 718 00b4 059B     		ldr	r3, [sp, #20]
 719 00b6 1B69     		ldr	r3, [r3, #16]	@ unaligned
 720 00b8 4FEA1343 		lsr	r3, r3, #16
 721 00bc 079A     		ldr	r2, [sp, #28]
 722 00be D318     		adds	r3, r2, r3
 723 00c0 0793     		str	r3, [sp, #28]
 724              		.loc 1 660 0
 725 00c2 BDF81A30 		ldrh	r3, [sp, #26]
 726 00c6 4FEA9303 		lsr	r3, r3, #2
 727 00ca 9BB2     		uxth	r3, r3
 728 00cc 4FEA0323 		lsl	r3, r3, #8
 729 00d0 9BB2     		uxth	r3, r3
 730 00d2 43F48043 		orr	r3, r3, #16384
 731 00d6 9AB2     		uxth	r2, r3
 732 00d8 9DF82830 		ldrb	r3, [sp, #40]	@ zero_extendqisi2
 733 00dc 9BB2     		uxth	r3, r3
 734 00de 1343     		orrs	r3, r3, r2
 735 00e0 9BB2     		uxth	r3, r3
 736 00e2 9BB2     		uxth	r3, r3
 737 00e4 1846     		mov	r0, r3
 738 00e6 FFF7FEFF 		bl	lwip_htons
 739 00ea 0346     		mov	r3, r0
 740 00ec 1A46     		mov	r2, r3
 741 00ee 059B     		ldr	r3, [sp, #20]
ARM GAS  /tmp/ccxw3DHh.s 			page 14


 742 00f0 1A80     		strh	r2, [r3, #0]	@ unaligned
 743              		.loc 1 662 0
 744 00f2 059B     		ldr	r3, [sp, #20]
 745 00f4 1B88     		ldrh	r3, [r3, #0]	@ unaligned
 746 00f6 9BB2     		uxth	r3, r3
 747 00f8 079A     		ldr	r2, [sp, #28]
 748 00fa D318     		adds	r3, r2, r3
 749 00fc 0793     		str	r3, [sp, #28]
 750              		.loc 1 664 0
 751 00fe 039B     		ldr	r3, [sp, #12]
 752 0100 1B89     		ldrh	r3, [r3, #8]
 753 0102 1846     		mov	r0, r3
 754 0104 FFF7FEFF 		bl	lwip_htons
 755 0108 0346     		mov	r3, r0
 756 010a 1A46     		mov	r2, r3
 757 010c 059B     		ldr	r3, [sp, #20]
 758 010e 5A80     		strh	r2, [r3, #2]	@ unaligned
 759              		.loc 1 666 0
 760 0110 059B     		ldr	r3, [sp, #20]
 761 0112 5B88     		ldrh	r3, [r3, #2]	@ unaligned
 762 0114 9BB2     		uxth	r3, r3
 763 0116 079A     		ldr	r2, [sp, #28]
 764 0118 D318     		adds	r3, r2, r3
 765 011a 0793     		str	r3, [sp, #28]
 766              		.loc 1 668 0
 767 011c 059B     		ldr	r3, [sp, #20]
 768 011e 4FF00002 		mov	r2, #0
 769 0122 9A71     		strb	r2, [r3, #6]
 770 0124 4FF00002 		mov	r2, #0
 771 0128 DA71     		strb	r2, [r3, #7]
 772              		.loc 1 669 0
 773 012a 40F20003 		movw	r3, #:lower16:ip_id
 774 012e C0F20003 		movt	r3, #:upper16:ip_id
 775 0132 1B88     		ldrh	r3, [r3, #0]
 776 0134 1846     		mov	r0, r3
 777 0136 FFF7FEFF 		bl	lwip_htons
 778 013a 0346     		mov	r3, r0
 779 013c 1A46     		mov	r2, r3
 780 013e 059B     		ldr	r3, [sp, #20]
 781 0140 9A80     		strh	r2, [r3, #4]	@ unaligned
 782              		.loc 1 671 0
 783 0142 059B     		ldr	r3, [sp, #20]
 784 0144 9B88     		ldrh	r3, [r3, #4]	@ unaligned
 785 0146 9BB2     		uxth	r3, r3
 786 0148 079A     		ldr	r2, [sp, #28]
 787 014a D318     		adds	r3, r2, r3
 788 014c 0793     		str	r3, [sp, #28]
 789              		.loc 1 673 0
 790 014e 40F20003 		movw	r3, #:lower16:ip_id
 791 0152 C0F20003 		movt	r3, #:upper16:ip_id
 792 0156 1B88     		ldrh	r3, [r3, #0]
 793 0158 03F10103 		add	r3, r3, #1
 794 015c 9AB2     		uxth	r2, r3
 795 015e 40F20003 		movw	r3, #:lower16:ip_id
 796 0162 C0F20003 		movt	r3, #:upper16:ip_id
 797 0166 1A80     		strh	r2, [r3, #0]	@ movhi
 798              		.loc 1 675 0
ARM GAS  /tmp/ccxw3DHh.s 			page 15


 799 0168 029B     		ldr	r3, [sp, #8]
 800 016a 002B     		cmp	r3, #0
 801 016c 03D0     		beq	.L38
 802              		.loc 1 675 0 is_stmt 0 discriminator 1
 803 016e 029B     		ldr	r3, [sp, #8]
 804 0170 1B68     		ldr	r3, [r3, #0]
 805 0172 002B     		cmp	r3, #0
 806 0174 04D1     		bne	.L39
 807              	.L38:
 808              		.loc 1 676 0 is_stmt 1
 809 0176 0C9B     		ldr	r3, [sp, #48]
 810 0178 5A68     		ldr	r2, [r3, #4]
 811 017a 059B     		ldr	r3, [sp, #20]
 812 017c DA60     		str	r2, [r3, #12]	@ unaligned
 813 017e 03E0     		b	.L40
 814              	.L39:
 815              		.loc 1 679 0
 816 0180 029B     		ldr	r3, [sp, #8]
 817 0182 1A68     		ldr	r2, [r3, #0]
 818 0184 059B     		ldr	r3, [sp, #20]
 819 0186 DA60     		str	r2, [r3, #12]	@ unaligned
 820              	.L40:
 821              		.loc 1 683 0
 822 0188 059B     		ldr	r3, [sp, #20]
 823 018a DB68     		ldr	r3, [r3, #12]	@ unaligned
 824 018c 4FEA0343 		lsl	r3, r3, #16
 825 0190 4FEA1343 		lsr	r3, r3, #16
 826 0194 079A     		ldr	r2, [sp, #28]
 827 0196 D318     		adds	r3, r2, r3
 828 0198 0793     		str	r3, [sp, #28]
 829              		.loc 1 684 0
 830 019a 059B     		ldr	r3, [sp, #20]
 831 019c DB68     		ldr	r3, [r3, #12]	@ unaligned
 832 019e 4FEA1343 		lsr	r3, r3, #16
 833 01a2 079A     		ldr	r2, [sp, #28]
 834 01a4 D318     		adds	r3, r2, r3
 835 01a6 0793     		str	r3, [sp, #28]
 836              		.loc 1 685 0
 837 01a8 079B     		ldr	r3, [sp, #28]
 838 01aa 4FEA1342 		lsr	r2, r3, #16
 839 01ae 079B     		ldr	r3, [sp, #28]
 840 01b0 4FEA0343 		lsl	r3, r3, #16
 841 01b4 4FEA1343 		lsr	r3, r3, #16
 842 01b8 D318     		adds	r3, r2, r3
 843 01ba 0793     		str	r3, [sp, #28]
 844              		.loc 1 686 0
 845 01bc 079B     		ldr	r3, [sp, #28]
 846 01be 4FEA1343 		lsr	r3, r3, #16
 847 01c2 079A     		ldr	r2, [sp, #28]
 848 01c4 D318     		adds	r3, r2, r3
 849 01c6 0793     		str	r3, [sp, #28]
 850              		.loc 1 687 0
 851 01c8 079B     		ldr	r3, [sp, #28]
 852 01ca 6FEA0303 		mvn	r3, r3
 853 01ce 0793     		str	r3, [sp, #28]
 854              		.loc 1 688 0
 855 01d0 079B     		ldr	r3, [sp, #28]
ARM GAS  /tmp/ccxw3DHh.s 			page 16


 856 01d2 9AB2     		uxth	r2, r3
 857 01d4 059B     		ldr	r3, [sp, #20]
 858 01d6 5A81     		strh	r2, [r3, #10]	@ unaligned
 859 01d8 07E0     		b	.L41
 860              	.L34:
 861              	.LBE3:
 862              		.loc 1 697 0
 863 01da 039B     		ldr	r3, [sp, #12]
 864 01dc 5B68     		ldr	r3, [r3, #4]
 865 01de 0593     		str	r3, [sp, #20]
 866              		.loc 1 698 0
 867 01e0 059B     		ldr	r3, [sp, #20]
 868 01e2 1B69     		ldr	r3, [r3, #16]	@ unaligned
 869 01e4 0493     		str	r3, [sp, #16]
 870              		.loc 1 699 0
 871 01e6 04AB     		add	r3, sp, #16
 872 01e8 0193     		str	r3, [sp, #4]
 873              	.L41:
 874              		.loc 1 702 0
 875 01ea 40F20003 		movw	r3, #:lower16:lwip_stats
 876 01ee C0F20003 		movt	r3, #:upper16:lwip_stats
 877 01f2 B3F84830 		ldrh	r3, [r3, #72]
 878 01f6 03F10103 		add	r3, r3, #1
 879 01fa 9AB2     		uxth	r2, r3
 880 01fc 40F20003 		movw	r3, #:lower16:lwip_stats
 881 0200 C0F20003 		movt	r3, #:upper16:lwip_stats
 882 0204 A3F84820 		strh	r2, [r3, #72]	@ movhi
 883              		.loc 1 721 0
 884 0208 0C9B     		ldr	r3, [sp, #48]
 885 020a 1B8C     		ldrh	r3, [r3, #32]
 886 020c 002B     		cmp	r3, #0
 887 020e 0CD0     		beq	.L42
 888              		.loc 1 721 0 is_stmt 0 discriminator 1
 889 0210 039B     		ldr	r3, [sp, #12]
 890 0212 1A89     		ldrh	r2, [r3, #8]
 891 0214 0C9B     		ldr	r3, [sp, #48]
 892 0216 1B8C     		ldrh	r3, [r3, #32]
 893 0218 9A42     		cmp	r2, r3
 894 021a 06D9     		bls	.L42
 895              		.loc 1 722 0 is_stmt 1
 896 021c 0398     		ldr	r0, [sp, #12]
 897 021e 0C99     		ldr	r1, [sp, #48]
 898 0220 019A     		ldr	r2, [sp, #4]
 899 0222 FFF7FEFF 		bl	ip_frag
 900 0226 0346     		mov	r3, r0
 901 0228 06E0     		b	.L36
 902              	.L42:
 903              		.loc 1 727 0
 904 022a 0C9B     		ldr	r3, [sp, #48]
 905 022c 5B69     		ldr	r3, [r3, #20]
 906 022e 0C98     		ldr	r0, [sp, #48]
 907 0230 0399     		ldr	r1, [sp, #12]
 908 0232 019A     		ldr	r2, [sp, #4]
 909 0234 9847     		blx	r3
 910 0236 0346     		mov	r3, r0
 911              	.L36:
 912 0238 5BB2     		sxtb	r3, r3
ARM GAS  /tmp/ccxw3DHh.s 			page 17


 913              		.loc 1 728 0
 914 023a 1846     		mov	r0, r3
 915 023c 09B0     		add	sp, sp, #36
 916 023e 00BD     		pop	{pc}
 917              		.cfi_endproc
 918              	.LFE9:
 919              		.size	ip_output_if, .-ip_output_if
 920              		.section	.text.ip_output,"ax",%progbits
 921              		.align	2
 922              		.p2align 4,,15
 923              		.global	ip_output
 924              		.thumb
 925              		.thumb_func
 926              		.type	ip_output, %function
 927              	ip_output:
 928              	.LFB10:
 929              		.loc 1 750 0
 930              		.cfi_startproc
 931              		@ args = 8, pretend = 0, frame = 24
 932              		@ frame_needed = 0, uses_anonymous_args = 0
 933 0000 00B5     		push	{lr}
 934              	.LCFI5:
 935              		.cfi_def_cfa_offset 4
 936              		.cfi_offset 14, -4
 937 0002 8BB0     		sub	sp, sp, #44
 938              	.LCFI6:
 939              		.cfi_def_cfa_offset 48
 940 0004 0790     		str	r0, [sp, #28]
 941 0006 0691     		str	r1, [sp, #24]
 942 0008 0592     		str	r2, [sp, #20]
 943 000a 8DF81330 		strb	r3, [sp, #19]
 944              		.loc 1 755 0
 945 000e 079B     		ldr	r3, [sp, #28]
 946 0010 DB89     		ldrh	r3, [r3, #14]
 947 0012 012B     		cmp	r3, #1
 948 0014 01D0     		beq	.L44
 949              		.loc 1 755 0 is_stmt 0 discriminator 1
 950 0016 FFF7FEFF 		bl	port_halt
 951              	.L44:
 952              		.loc 1 757 0 is_stmt 1
 953 001a 0598     		ldr	r0, [sp, #20]
 954 001c FFF7FEFF 		bl	ip_route
 955 0020 0346     		mov	r3, r0
 956 0022 0993     		str	r3, [sp, #36]
 957 0024 099B     		ldr	r3, [sp, #36]
 958 0026 002B     		cmp	r3, #0
 959 0028 11D1     		bne	.L45
 960              		.loc 1 760 0
 961 002a 40F20003 		movw	r3, #:lower16:lwip_stats
 962 002e C0F20003 		movt	r3, #:upper16:lwip_stats
 963 0032 B3F85630 		ldrh	r3, [r3, #86]
 964 0036 03F10103 		add	r3, r3, #1
 965 003a 9AB2     		uxth	r2, r3
 966 003c 40F20003 		movw	r3, #:lower16:lwip_stats
 967 0040 C0F20003 		movt	r3, #:upper16:lwip_stats
 968 0044 A3F85620 		strh	r2, [r3, #86]	@ movhi
 969              		.loc 1 761 0
ARM GAS  /tmp/ccxw3DHh.s 			page 18


 970 0048 4FF0FC03 		mov	r3, #252
 971 004c 0FE0     		b	.L46
 972              	.L45:
 973              		.loc 1 764 0
 974 004e 9DF81330 		ldrb	r3, [sp, #19]	@ zero_extendqisi2
 975 0052 9DF83020 		ldrb	r2, [sp, #48]	@ zero_extendqisi2
 976 0056 0092     		str	r2, [sp, #0]
 977 0058 9DF83420 		ldrb	r2, [sp, #52]	@ zero_extendqisi2
 978 005c 0192     		str	r2, [sp, #4]
 979 005e 099A     		ldr	r2, [sp, #36]
 980 0060 0292     		str	r2, [sp, #8]
 981 0062 0798     		ldr	r0, [sp, #28]
 982 0064 0699     		ldr	r1, [sp, #24]
 983 0066 059A     		ldr	r2, [sp, #20]
 984 0068 FFF7FEFF 		bl	ip_output_if
 985 006c 0346     		mov	r3, r0
 986              	.L46:
 987 006e 5BB2     		sxtb	r3, r3
 988              		.loc 1 765 0
 989 0070 1846     		mov	r0, r3
 990 0072 0BB0     		add	sp, sp, #44
 991 0074 00BD     		pop	{pc}
 992              		.cfi_endproc
 993              	.LFE10:
 994              		.size	ip_output, .-ip_output
 995 0076 00BFAFF3 		.text
 995      0080AFF3 
 995      0080
 996              	.Letext0:
 997              		.file 2 "/home/texzk/ChibiStudio/tools/GNU Tools ARM Embedded/4.6 2012q2/bin/../lib/gcc/arm-none-e
 998              		.file 3 "../../os/various/lwip_bindings/arch/cc.h"
 999              		.file 4 "../../ext/lwip/src/include/lwip/err.h"
 1000              		.file 5 "../../ext/lwip/src/include/lwip/pbuf.h"
 1001              		.file 6 "../../ext/lwip/src/include/ipv4/lwip/ip_addr.h"
 1002              		.file 7 "../../ext/lwip/src/include/lwip/netif.h"
 1003              		.file 8 "../../ext/lwip/src/include/ipv4/lwip/ip.h"
 1004              		.file 9 "../../ext/lwip/src/include/lwip/mem.h"
 1005              		.file 10 "../../ext/lwip/src/include/lwip/stats.h"
 1006              		.file 11 "../../ext/lwip/src/include/ipv4/lwip/icmp.h"
 1007              		.file 12 "../../ext/lwip/src/include/lwip/memp.h"