ARM GAS  /tmp/ccBYd9Lr.s 			page 1


   1              		.syntax unified
   2              		.cpu cortex-m3
   3              		.fpu softvfp
   4              		.eabi_attribute 20, 1
   5              		.eabi_attribute 21, 1
   6              		.eabi_attribute 23, 3
   7              		.eabi_attribute 24, 1
   8              		.eabi_attribute 25, 1
   9              		.eabi_attribute 26, 1
  10              		.eabi_attribute 30, 6
  11              		.eabi_attribute 34, 1
  12              		.eabi_attribute 18, 4
  13              		.thumb
  14              		.file	"ip_addr.c"
  15              		.text
  16              	.Ltext0:
  17              		.cfi_sections	.debug_frame
  18              		.global	ip_addr_any
  19              		.section	.rodata.ip_addr_any,"a",%progbits
  20              		.align	2
  21              		.type	ip_addr_any, %object
  22              		.size	ip_addr_any, 4
  23              	ip_addr_any:
  24 0000 00000000 		.space	4
  25              		.global	ip_addr_broadcast
  26              		.section	.rodata.ip_addr_broadcast,"a",%progbits
  27              		.align	2
  28              		.type	ip_addr_broadcast, %object
  29              		.size	ip_addr_broadcast, 4
  30              	ip_addr_broadcast:
  31 0000 FFFFFFFF 		.word	-1
  32              		.section	.text.ip4_addr_isbroadcast,"ax",%progbits
  33              		.align	2
  34              		.p2align 4,,15
  35              		.global	ip4_addr_isbroadcast
  36              		.thumb
  37              		.thumb_func
  38              		.type	ip4_addr_isbroadcast, %function
  39              	ip4_addr_isbroadcast:
  40              	.LFB7:
  41              		.file 1 "../../ext/lwip/src/core/ipv4/ip_addr.c"
  42              		.loc 1 56 0
  43              		.cfi_startproc
  44              		@ args = 0, pretend = 0, frame = 16
  45              		@ frame_needed = 0, uses_anonymous_args = 0
  46              		@ link register save eliminated.
  47 0000 84B0     		sub	sp, sp, #16
  48              	.LCFI0:
  49              		.cfi_def_cfa_offset 16
  50 0002 0190     		str	r0, [sp, #4]
  51 0004 0091     		str	r1, [sp, #0]
  52              		.loc 1 58 0
  53 0006 019B     		ldr	r3, [sp, #4]
  54 0008 0393     		str	r3, [sp, #12]
  55              		.loc 1 61 0
  56 000a 019B     		ldr	r3, [sp, #4]
  57 000c B3F1FF3F 		cmp	r3, #-1
ARM GAS  /tmp/ccBYd9Lr.s 			page 2


  58 0010 02D0     		beq	.L2
  59              		.loc 1 61 0 is_stmt 0 discriminator 1
  60 0012 019B     		ldr	r3, [sp, #4]
  61 0014 002B     		cmp	r3, #0
  62 0016 02D1     		bne	.L3
  63              	.L2:
  64              		.loc 1 63 0 is_stmt 1
  65 0018 4FF00103 		mov	r3, #1
  66 001c 2BE0     		b	.L4
  67              	.L3:
  68              		.loc 1 65 0
  69 001e 009B     		ldr	r3, [sp, #0]
  70 0020 93F82930 		ldrb	r3, [r3, #41]	@ zero_extendqisi2
  71 0024 03F00203 		and	r3, r3, #2
  72 0028 002B     		cmp	r3, #0
  73 002a 02D1     		bne	.L5
  74              		.loc 1 68 0
  75 002c 4FF00003 		mov	r3, #0
  76 0030 21E0     		b	.L4
  77              	.L5:
  78              		.loc 1 70 0
  79 0032 009B     		ldr	r3, [sp, #0]
  80 0034 5A68     		ldr	r2, [r3, #4]
  81 0036 019B     		ldr	r3, [sp, #4]
  82 0038 9A42     		cmp	r2, r3
  83 003a 02D1     		bne	.L6
  84              		.loc 1 71 0
  85 003c 4FF00003 		mov	r3, #0
  86 0040 19E0     		b	.L4
  87              	.L6:
  88              		.loc 1 73 0
  89 0042 039A     		ldr	r2, [sp, #12]
  90 0044 009B     		ldr	r3, [sp, #0]
  91 0046 5B68     		ldr	r3, [r3, #4]
  92 0048 5A40     		eors	r2, r2, r3
  93 004a 009B     		ldr	r3, [sp, #0]
  94 004c 9B68     		ldr	r3, [r3, #8]
  95 004e 1340     		ands	r3, r3, r2
  96 0050 002B     		cmp	r3, #0
  97 0052 0ED1     		bne	.L7
  98              		.loc 1 75 0
  99 0054 009B     		ldr	r3, [sp, #0]
 100 0056 9B68     		ldr	r3, [r3, #8]
 101 0058 6FEA0302 		mvn	r2, r3
 102 005c 019B     		ldr	r3, [sp, #4]
 103 005e 1A40     		ands	r2, r2, r3
 104              		.loc 1 76 0
 105 0060 009B     		ldr	r3, [sp, #0]
 106 0062 9B68     		ldr	r3, [r3, #8]
 107 0064 6FEA0303 		mvn	r3, r3
 108              		.loc 1 75 0
 109 0068 9A42     		cmp	r2, r3
 110 006a 02D1     		bne	.L7
 111              		.loc 1 78 0
 112 006c 4FF00103 		mov	r3, #1
 113 0070 01E0     		b	.L4
 114              	.L7:
ARM GAS  /tmp/ccBYd9Lr.s 			page 3


 115              		.loc 1 80 0
 116 0072 4FF00003 		mov	r3, #0
 117              	.L4:
 118              		.loc 1 82 0
 119 0076 1846     		mov	r0, r3
 120 0078 04B0     		add	sp, sp, #16
 121 007a 7047     		bx	lr
 122              		.cfi_endproc
 123              	.LFE7:
 124              		.size	ip4_addr_isbroadcast, .-ip4_addr_isbroadcast
 125 007c AFF30080 		.section	.text.ip4_addr_netmask_valid,"ax",%progbits
 126              		.align	2
 127              		.p2align 4,,15
 128              		.global	ip4_addr_netmask_valid
 129              		.thumb
 130              		.thumb_func
 131              		.type	ip4_addr_netmask_valid, %function
 132              	ip4_addr_netmask_valid:
 133              	.LFB8:
 134              		.loc 1 91 0
 135              		.cfi_startproc
 136              		@ args = 0, pretend = 0, frame = 16
 137              		@ frame_needed = 0, uses_anonymous_args = 0
 138 0000 00B5     		push	{lr}
 139              	.LCFI1:
 140              		.cfi_def_cfa_offset 4
 141              		.cfi_offset 14, -4
 142 0002 85B0     		sub	sp, sp, #20
 143              	.LCFI2:
 144              		.cfi_def_cfa_offset 24
 145 0004 0190     		str	r0, [sp, #4]
 146              		.loc 1 93 0
 147 0006 0198     		ldr	r0, [sp, #4]
 148 0008 FFF7FEFF 		bl	lwip_htonl
 149 000c 0346     		mov	r3, r0
 150 000e 0293     		str	r3, [sp, #8]
 151              		.loc 1 96 0
 152 0010 4FF00043 		mov	r3, #-2147483648
 153 0014 0393     		str	r3, [sp, #12]
 154 0016 08E0     		b	.L9
 155              	.L12:
 156              		.loc 1 97 0
 157 0018 029A     		ldr	r2, [sp, #8]
 158 001a 039B     		ldr	r3, [sp, #12]
 159 001c 1340     		ands	r3, r3, r2
 160 001e 002B     		cmp	r3, #0
 161 0020 07D0     		beq	.L18
 162              	.L10:
 163              		.loc 1 96 0
 164 0022 039B     		ldr	r3, [sp, #12]
 165 0024 4FEA5303 		lsr	r3, r3, #1
 166 0028 0393     		str	r3, [sp, #12]
 167              	.L9:
 168              		.loc 1 96 0 is_stmt 0 discriminator 1
 169 002a 039B     		ldr	r3, [sp, #12]
 170 002c 002B     		cmp	r3, #0
 171 002e F3D1     		bne	.L12
ARM GAS  /tmp/ccBYd9Lr.s 			page 4


 172              		.loc 1 102 0 is_stmt 1
 173 0030 0DE0     		b	.L13
 174              	.L18:
 175              		.loc 1 98 0
 176 0032 00BF     		nop
 177              	.L17:
 178              		.loc 1 102 0
 179 0034 0BE0     		b	.L13
 180              	.L16:
 181              		.loc 1 103 0
 182 0036 029A     		ldr	r2, [sp, #8]
 183 0038 039B     		ldr	r3, [sp, #12]
 184 003a 1340     		ands	r3, r3, r2
 185 003c 002B     		cmp	r3, #0
 186 003e 02D0     		beq	.L14
 187              		.loc 1 105 0
 188 0040 4FF00003 		mov	r3, #0
 189 0044 08E0     		b	.L15
 190              	.L14:
 191              		.loc 1 102 0
 192 0046 039B     		ldr	r3, [sp, #12]
 193 0048 4FEA5303 		lsr	r3, r3, #1
 194 004c 0393     		str	r3, [sp, #12]
 195              	.L13:
 196              		.loc 1 102 0 is_stmt 0 discriminator 1
 197 004e 039B     		ldr	r3, [sp, #12]
 198 0050 002B     		cmp	r3, #0
 199 0052 F0D1     		bne	.L16
 200              		.loc 1 109 0 is_stmt 1
 201 0054 4FF00103 		mov	r3, #1
 202              	.L15:
 203              		.loc 1 110 0
 204 0058 1846     		mov	r0, r3
 205 005a 05B0     		add	sp, sp, #20
 206 005c 00BD     		pop	{pc}
 207              		.cfi_endproc
 208              	.LFE8:
 209              		.size	ip4_addr_netmask_valid, .-ip4_addr_netmask_valid
 210 005e 00BF     		.section	.text.ipaddr_addr,"ax",%progbits
 211              		.align	2
 212              		.p2align 4,,15
 213              		.global	ipaddr_addr
 214              		.thumb
 215              		.thumb_func
 216              		.type	ipaddr_addr, %function
 217              	ipaddr_addr:
 218              	.LFB9:
 219              		.loc 1 131 0
 220              		.cfi_startproc
 221              		@ args = 0, pretend = 0, frame = 16
 222              		@ frame_needed = 0, uses_anonymous_args = 0
 223 0000 00B5     		push	{lr}
 224              	.LCFI3:
 225              		.cfi_def_cfa_offset 4
 226              		.cfi_offset 14, -4
 227 0002 85B0     		sub	sp, sp, #20
 228              	.LCFI4:
ARM GAS  /tmp/ccBYd9Lr.s 			page 5


 229              		.cfi_def_cfa_offset 24
 230 0004 0190     		str	r0, [sp, #4]
 231              		.loc 1 134 0
 232 0006 03AB     		add	r3, sp, #12
 233 0008 0198     		ldr	r0, [sp, #4]
 234 000a 1946     		mov	r1, r3
 235 000c FFF7FEFF 		bl	ipaddr_aton
 236 0010 0346     		mov	r3, r0
 237 0012 002B     		cmp	r3, #0
 238 0014 01D0     		beq	.L20
 239              		.loc 1 135 0
 240 0016 039B     		ldr	r3, [sp, #12]
 241 0018 01E0     		b	.L21
 242              	.L20:
 243              		.loc 1 137 0
 244 001a 4FF0FF33 		mov	r3, #-1
 245              	.L21:
 246              		.loc 1 138 0
 247 001e 1846     		mov	r0, r3
 248 0020 05B0     		add	sp, sp, #20
 249 0022 00BD     		pop	{pc}
 250              		.cfi_endproc
 251              	.LFE9:
 252              		.size	ipaddr_addr, .-ipaddr_addr
 253 0024 AFF30080 		.section	.text.ipaddr_aton,"ax",%progbits
 253      AFF30080 
 253      AFF30080 
 254              		.align	2
 255              		.p2align 4,,15
 256              		.global	ipaddr_aton
 257              		.thumb
 258              		.thumb_func
 259              		.type	ipaddr_aton, %function
 260              	ipaddr_aton:
 261              	.LFB10:
 262              		.loc 1 153 0
 263              		.cfi_startproc
 264              		@ args = 0, pretend = 0, frame = 40
 265              		@ frame_needed = 0, uses_anonymous_args = 0
 266 0000 00B5     		push	{lr}
 267              	.LCFI5:
 268              		.cfi_def_cfa_offset 4
 269              		.cfi_offset 14, -4
 270 0002 8BB0     		sub	sp, sp, #44
 271              	.LCFI6:
 272              		.cfi_def_cfa_offset 48
 273 0004 0190     		str	r0, [sp, #4]
 274 0006 0091     		str	r1, [sp, #0]
 275              		.loc 1 158 0
 276 0008 03AB     		add	r3, sp, #12
 277 000a 0793     		str	r3, [sp, #28]
 278              		.loc 1 160 0
 279 000c 019B     		ldr	r3, [sp, #4]
 280 000e 1B78     		ldrb	r3, [r3, #0]
 281 0010 8DF82230 		strb	r3, [sp, #34]
 282              	.L39:
 283              		.loc 1 167 0
ARM GAS  /tmp/ccBYd9Lr.s 			page 6


 284 0014 9DF82230 		ldrb	r3, [sp, #34]	@ zero_extendqisi2
 285 0018 2F2B     		cmp	r3, #47
 286 001a 03D9     		bls	.L23
 287              		.loc 1 167 0 is_stmt 0 discriminator 1
 288 001c 9DF82230 		ldrb	r3, [sp, #34]	@ zero_extendqisi2
 289 0020 392B     		cmp	r3, #57
 290 0022 02D9     		bls	.L24
 291              	.L23:
 292              		.loc 1 168 0 is_stmt 1
 293 0024 4FF00003 		mov	r3, #0
 294 0028 1FE1     		b	.L25
 295              	.L24:
 296              		.loc 1 169 0
 297 002a 4FF00003 		mov	r3, #0
 298 002e 0993     		str	r3, [sp, #36]
 299              		.loc 1 170 0
 300 0030 4FF00A03 		mov	r3, #10
 301 0034 8DF82330 		strb	r3, [sp, #35]
 302              		.loc 1 171 0
 303 0038 9DF82230 		ldrb	r3, [sp, #34]	@ zero_extendqisi2
 304 003c 302B     		cmp	r3, #48
 305 003e 20D1     		bne	.L26
 306              		.loc 1 172 0
 307 0040 019B     		ldr	r3, [sp, #4]
 308 0042 03F10103 		add	r3, r3, #1
 309 0046 0193     		str	r3, [sp, #4]
 310 0048 019B     		ldr	r3, [sp, #4]
 311 004a 1B78     		ldrb	r3, [r3, #0]
 312 004c 8DF82230 		strb	r3, [sp, #34]
 313              		.loc 1 173 0
 314 0050 9DF82230 		ldrb	r3, [sp, #34]	@ zero_extendqisi2
 315 0054 782B     		cmp	r3, #120
 316 0056 03D0     		beq	.L27
 317              		.loc 1 173 0 is_stmt 0 discriminator 1
 318 0058 9DF82230 		ldrb	r3, [sp, #34]	@ zero_extendqisi2
 319 005c 582B     		cmp	r3, #88
 320 005e 0CD1     		bne	.L28
 321              	.L27:
 322              		.loc 1 174 0 is_stmt 1
 323 0060 4FF01003 		mov	r3, #16
 324 0064 8DF82330 		strb	r3, [sp, #35]
 325              		.loc 1 175 0
 326 0068 019B     		ldr	r3, [sp, #4]
 327 006a 03F10103 		add	r3, r3, #1
 328 006e 0193     		str	r3, [sp, #4]
 329 0070 019B     		ldr	r3, [sp, #4]
 330 0072 1B78     		ldrb	r3, [r3, #0]
 331 0074 8DF82230 		strb	r3, [sp, #34]
 332 0078 03E0     		b	.L26
 333              	.L28:
 334              		.loc 1 177 0
 335 007a 4FF00803 		mov	r3, #8
 336 007e 8DF82330 		strb	r3, [sp, #35]
 337              	.L26:
 338              		.loc 1 180 0
 339 0082 9DF82230 		ldrb	r3, [sp, #34]	@ zero_extendqisi2
 340 0086 2F2B     		cmp	r3, #47
ARM GAS  /tmp/ccBYd9Lr.s 			page 7


 341 0088 17D9     		bls	.L29
 342              		.loc 1 180 0 is_stmt 0 discriminator 1
 343 008a 9DF82230 		ldrb	r3, [sp, #34]	@ zero_extendqisi2
 344 008e 392B     		cmp	r3, #57
 345 0090 13D8     		bhi	.L29
 346              		.loc 1 181 0 is_stmt 1
 347 0092 9DF82330 		ldrb	r3, [sp, #35]	@ zero_extendqisi2
 348 0096 099A     		ldr	r2, [sp, #36]
 349 0098 02FB03F2 		mul	r2, r2, r3
 350 009c 9DF82230 		ldrb	r3, [sp, #34]	@ zero_extendqisi2
 351 00a0 D318     		adds	r3, r2, r3
 352 00a2 A3F13003 		sub	r3, r3, #48
 353 00a6 0993     		str	r3, [sp, #36]
 354              		.loc 1 182 0
 355 00a8 019B     		ldr	r3, [sp, #4]
 356 00aa 03F10103 		add	r3, r3, #1
 357 00ae 0193     		str	r3, [sp, #4]
 358 00b0 019B     		ldr	r3, [sp, #4]
 359 00b2 1B78     		ldrb	r3, [r3, #0]
 360 00b4 8DF82230 		strb	r3, [sp, #34]
 361              		.loc 1 188 0
 362 00b8 E3E7     		b	.L26
 363              	.L29:
 364              		.loc 1 183 0
 365 00ba 9DF82330 		ldrb	r3, [sp, #35]	@ zero_extendqisi2
 366 00be 102B     		cmp	r3, #16
 367 00c0 37D1     		bne	.L31
 368              		.loc 1 183 0 is_stmt 0 discriminator 1
 369 00c2 9DF82230 		ldrb	r3, [sp, #34]	@ zero_extendqisi2
 370 00c6 2F2B     		cmp	r3, #47
 371 00c8 03D9     		bls	.L32
 372 00ca 9DF82230 		ldrb	r3, [sp, #34]	@ zero_extendqisi2
 373 00ce 392B     		cmp	r3, #57
 374 00d0 0FD9     		bls	.L33
 375              	.L32:
 376              		.loc 1 183 0 discriminator 2
 377 00d2 9DF82230 		ldrb	r3, [sp, #34]	@ zero_extendqisi2
 378 00d6 602B     		cmp	r3, #96
 379 00d8 03D9     		bls	.L34
 380              		.loc 1 183 0 discriminator 1
 381 00da 9DF82230 		ldrb	r3, [sp, #34]	@ zero_extendqisi2
 382 00de 662B     		cmp	r3, #102
 383 00e0 07D9     		bls	.L33
 384              	.L34:
 385              		.loc 1 183 0 discriminator 2
 386 00e2 9DF82230 		ldrb	r3, [sp, #34]	@ zero_extendqisi2
 387 00e6 402B     		cmp	r3, #64
 388 00e8 23D9     		bls	.L31
 389              		.loc 1 183 0 discriminator 3
 390 00ea 9DF82230 		ldrb	r3, [sp, #34]	@ zero_extendqisi2
 391 00ee 462B     		cmp	r3, #70
 392 00f0 1FD8     		bhi	.L31
 393              	.L33:
 394              		.loc 1 184 0 is_stmt 1
 395 00f2 099B     		ldr	r3, [sp, #36]
 396 00f4 4FEA0312 		lsl	r2, r3, #4
 397 00f8 9DF82230 		ldrb	r3, [sp, #34]	@ zero_extendqisi2
ARM GAS  /tmp/ccBYd9Lr.s 			page 8


 398 00fc 03F10A01 		add	r1, r3, #10
 399 0100 9DF82230 		ldrb	r3, [sp, #34]	@ zero_extendqisi2
 400 0104 602B     		cmp	r3, #96
 401 0106 06D9     		bls	.L35
 402              		.loc 1 184 0 is_stmt 0 discriminator 1
 403 0108 9DF82230 		ldrb	r3, [sp, #34]	@ zero_extendqisi2
 404 010c 7A2B     		cmp	r3, #122
 405 010e 02D8     		bhi	.L35
 406 0110 4FF06103 		mov	r3, #97
 407 0114 01E0     		b	.L36
 408              	.L35:
 409              		.loc 1 184 0 discriminator 2
 410 0116 4FF04103 		mov	r3, #65
 411              	.L36:
 412              		.loc 1 184 0 discriminator 3
 413 011a CB1A     		subs	r3, r1, r3
 414 011c 1343     		orrs	r3, r3, r2
 415 011e 0993     		str	r3, [sp, #36]
 416              		.loc 1 185 0 is_stmt 1 discriminator 3
 417 0120 019B     		ldr	r3, [sp, #4]
 418 0122 03F10103 		add	r3, r3, #1
 419 0126 0193     		str	r3, [sp, #4]
 420 0128 019B     		ldr	r3, [sp, #4]
 421 012a 1B78     		ldrb	r3, [r3, #0]
 422 012c 8DF82230 		strb	r3, [sp, #34]
 423              		.loc 1 188 0 discriminator 3
 424 0130 A7E7     		b	.L26
 425              	.L31:
 426              		.loc 1 189 0
 427 0132 9DF82230 		ldrb	r3, [sp, #34]	@ zero_extendqisi2
 428 0136 2E2B     		cmp	r3, #46
 429 0138 18D1     		bne	.L54
 430              		.loc 1 196 0
 431 013a 03AB     		add	r3, sp, #12
 432 013c 03F10C03 		add	r3, r3, #12
 433 0140 079A     		ldr	r2, [sp, #28]
 434 0142 9A42     		cmp	r2, r3
 435 0144 02D3     		bcc	.L38
 436              		.loc 1 197 0
 437 0146 4FF00003 		mov	r3, #0
 438 014a 8EE0     		b	.L25
 439              	.L38:
 440              		.loc 1 199 0
 441 014c 079B     		ldr	r3, [sp, #28]
 442 014e 099A     		ldr	r2, [sp, #36]
 443 0150 1A60     		str	r2, [r3, #0]
 444 0152 079B     		ldr	r3, [sp, #28]
 445 0154 03F10403 		add	r3, r3, #4
 446 0158 0793     		str	r3, [sp, #28]
 447              		.loc 1 200 0
 448 015a 019B     		ldr	r3, [sp, #4]
 449 015c 03F10103 		add	r3, r3, #1
 450 0160 0193     		str	r3, [sp, #4]
 451 0162 019B     		ldr	r3, [sp, #4]
 452 0164 1B78     		ldrb	r3, [r3, #0]
 453 0166 8DF82230 		strb	r3, [sp, #34]
 454              		.loc 1 203 0
ARM GAS  /tmp/ccBYd9Lr.s 			page 9


 455 016a 53E7     		b	.L39
 456              	.L54:
 457              		.loc 1 202 0
 458 016c 00BF     		nop
 459              	.L53:
 460              		.loc 1 207 0
 461 016e 9DF82230 		ldrb	r3, [sp, #34]	@ zero_extendqisi2
 462 0172 002B     		cmp	r3, #0
 463 0174 1AD0     		beq	.L40
 464              		.loc 1 207 0 is_stmt 0 discriminator 1
 465 0176 9DF82230 		ldrb	r3, [sp, #34]	@ zero_extendqisi2
 466 017a 202B     		cmp	r3, #32
 467 017c 16D0     		beq	.L40
 468 017e 9DF82230 		ldrb	r3, [sp, #34]	@ zero_extendqisi2
 469 0182 0C2B     		cmp	r3, #12
 470 0184 12D0     		beq	.L40
 471 0186 9DF82230 		ldrb	r3, [sp, #34]	@ zero_extendqisi2
 472 018a 0A2B     		cmp	r3, #10
 473 018c 0ED0     		beq	.L40
 474              		.loc 1 207 0 discriminator 2
 475 018e 9DF82230 		ldrb	r3, [sp, #34]	@ zero_extendqisi2
 476 0192 0D2B     		cmp	r3, #13
 477 0194 0AD0     		beq	.L40
 478              		.loc 1 207 0 discriminator 3
 479 0196 9DF82230 		ldrb	r3, [sp, #34]	@ zero_extendqisi2
 480 019a 092B     		cmp	r3, #9
 481 019c 06D0     		beq	.L40
 482              		.loc 1 207 0 discriminator 4
 483 019e 9DF82230 		ldrb	r3, [sp, #34]	@ zero_extendqisi2
 484 01a2 0B2B     		cmp	r3, #11
 485 01a4 02D0     		beq	.L40
 486              		.loc 1 208 0 is_stmt 1
 487 01a6 4FF00003 		mov	r3, #0
 488 01aa 5EE0     		b	.L25
 489              	.L40:
 490              		.loc 1 214 0
 491 01ac 079A     		ldr	r2, [sp, #28]
 492 01ae 03AB     		add	r3, sp, #12
 493 01b0 D31A     		subs	r3, r2, r3
 494 01b2 4FEAA303 		asr	r3, r3, #2
 495 01b6 03F10103 		add	r3, r3, #1
 496 01ba 042B     		cmp	r3, #4
 497 01bc 46D8     		bhi	.L41
 498 01be 01A2     		adr	r2, .L47
 499 01c0 52F823F0 		ldr	pc, [r2, r3, lsl #2]
 500              		.align	2
 501              	.L47:
 502 01c4 D9010000 		.word	.L42+1
 503 01c8 53020000 		.word	.L55+1
 504 01cc DF010000 		.word	.L44+1
 505 01d0 FD010000 		.word	.L45+1
 506 01d4 23020000 		.word	.L46+1
 507              	.L42:
 508              		.loc 1 217 0
 509 01d8 4FF00003 		mov	r3, #0
 510 01dc 45E0     		b	.L25
 511              	.L44:
ARM GAS  /tmp/ccBYd9Lr.s 			page 10


 512              		.loc 1 223 0
 513 01de 099A     		ldr	r2, [sp, #36]
 514 01e0 6FF07F43 		mvn	r3, #-16777216
 515 01e4 9A42     		cmp	r2, r3
 516 01e6 02D9     		bls	.L49
 517              		.loc 1 224 0
 518 01e8 4FF00003 		mov	r3, #0
 519 01ec 3DE0     		b	.L25
 520              	.L49:
 521              		.loc 1 226 0
 522 01ee 039B     		ldr	r3, [sp, #12]
 523 01f0 4FEA0363 		lsl	r3, r3, #24
 524 01f4 099A     		ldr	r2, [sp, #36]
 525 01f6 1343     		orrs	r3, r3, r2
 526 01f8 0993     		str	r3, [sp, #36]
 527              		.loc 1 227 0
 528 01fa 2BE0     		b	.L48
 529              	.L45:
 530              		.loc 1 230 0
 531 01fc 099A     		ldr	r2, [sp, #36]
 532 01fe 4FF6FF73 		movw	r3, #65535
 533 0202 9A42     		cmp	r2, r3
 534 0204 02D9     		bls	.L50
 535              		.loc 1 231 0
 536 0206 4FF00003 		mov	r3, #0
 537 020a 2EE0     		b	.L25
 538              	.L50:
 539              		.loc 1 233 0
 540 020c 039B     		ldr	r3, [sp, #12]
 541 020e 4FEA0362 		lsl	r2, r3, #24
 542 0212 049B     		ldr	r3, [sp, #16]
 543 0214 4FEA0343 		lsl	r3, r3, #16
 544 0218 1343     		orrs	r3, r3, r2
 545 021a 099A     		ldr	r2, [sp, #36]
 546 021c 1343     		orrs	r3, r3, r2
 547 021e 0993     		str	r3, [sp, #36]
 548              		.loc 1 234 0
 549 0220 18E0     		b	.L48
 550              	.L46:
 551              		.loc 1 237 0
 552 0222 099B     		ldr	r3, [sp, #36]
 553 0224 FF2B     		cmp	r3, #255
 554 0226 02D9     		bls	.L51
 555              		.loc 1 238 0
 556 0228 4FF00003 		mov	r3, #0
 557 022c 1DE0     		b	.L25
 558              	.L51:
 559              		.loc 1 240 0
 560 022e 039B     		ldr	r3, [sp, #12]
 561 0230 4FEA0362 		lsl	r2, r3, #24
 562 0234 049B     		ldr	r3, [sp, #16]
 563 0236 4FEA0343 		lsl	r3, r3, #16
 564 023a 1A43     		orrs	r2, r2, r3
 565 023c 059B     		ldr	r3, [sp, #20]
 566 023e 4FEA0323 		lsl	r3, r3, #8
 567 0242 1343     		orrs	r3, r3, r2
 568 0244 099A     		ldr	r2, [sp, #36]
ARM GAS  /tmp/ccBYd9Lr.s 			page 11


 569 0246 1343     		orrs	r3, r3, r2
 570 0248 0993     		str	r3, [sp, #36]
 571              		.loc 1 241 0
 572 024a 03E0     		b	.L48
 573              	.L41:
 574              		.loc 1 243 0 discriminator 1
 575 024c FFF7FEFF 		bl	port_halt
 576              		.loc 1 244 0 discriminator 1
 577 0250 00E0     		b	.L48
 578              	.L55:
 579              		.loc 1 220 0
 580 0252 00BF     		nop
 581              	.L48:
 582              		.loc 1 246 0
 583 0254 009B     		ldr	r3, [sp, #0]
 584 0256 002B     		cmp	r3, #0
 585 0258 05D0     		beq	.L52
 586              		.loc 1 247 0
 587 025a 0998     		ldr	r0, [sp, #36]
 588 025c FFF7FEFF 		bl	lwip_htonl
 589 0260 0246     		mov	r2, r0
 590 0262 009B     		ldr	r3, [sp, #0]
 591 0264 1A60     		str	r2, [r3, #0]
 592              	.L52:
 593              		.loc 1 249 0
 594 0266 4FF00103 		mov	r3, #1
 595              	.L25:
 596              		.loc 1 250 0
 597 026a 1846     		mov	r0, r3
 598 026c 0BB0     		add	sp, sp, #44
 599 026e 00BD     		pop	{pc}
 600              		.cfi_endproc
 601              	.LFE10:
 602              		.size	ipaddr_aton, .-ipaddr_aton
 603              		.section	.text.ipaddr_ntoa,"ax",%progbits
 604              		.align	2
 605              		.p2align 4,,15
 606              		.global	ipaddr_ntoa
 607              		.thumb
 608              		.thumb_func
 609              		.type	ipaddr_ntoa, %function
 610              	ipaddr_ntoa:
 611              	.LFB11:
 612              		.loc 1 262 0
 613              		.cfi_startproc
 614              		@ args = 0, pretend = 0, frame = 8
 615              		@ frame_needed = 0, uses_anonymous_args = 0
 616 0000 00B5     		push	{lr}
 617              	.LCFI7:
 618              		.cfi_def_cfa_offset 4
 619              		.cfi_offset 14, -4
 620 0002 83B0     		sub	sp, sp, #12
 621              	.LCFI8:
 622              		.cfi_def_cfa_offset 16
 623 0004 0190     		str	r0, [sp, #4]
 624              		.loc 1 264 0
 625 0006 0198     		ldr	r0, [sp, #4]
ARM GAS  /tmp/ccBYd9Lr.s 			page 12


 626 0008 40F20001 		movw	r1, #:lower16:str.4924
 627 000c C0F20001 		movt	r1, #:upper16:str.4924
 628 0010 4FF01002 		mov	r2, #16
 629 0014 FFF7FEFF 		bl	ipaddr_ntoa_r
 630 0018 0346     		mov	r3, r0
 631              		.loc 1 265 0
 632 001a 1846     		mov	r0, r3
 633 001c 03B0     		add	sp, sp, #12
 634 001e 00BD     		pop	{pc}
 635              		.cfi_endproc
 636              	.LFE11:
 637              		.size	ipaddr_ntoa, .-ipaddr_ntoa
 638              		.section	.text.ipaddr_ntoa_r,"ax",%progbits
 639              		.align	2
 640              		.p2align 4,,15
 641              		.global	ipaddr_ntoa_r
 642              		.thumb
 643              		.thumb_func
 644              		.type	ipaddr_ntoa_r, %function
 645              	ipaddr_ntoa_r:
 646              	.LFB12:
 647              		.loc 1 277 0
 648              		.cfi_startproc
 649              		@ args = 0, pretend = 0, frame = 48
 650              		@ frame_needed = 0, uses_anonymous_args = 0
 651              		@ link register save eliminated.
 652 0000 8CB0     		sub	sp, sp, #48
 653              	.LCFI9:
 654              		.cfi_def_cfa_offset 48
 655 0002 0390     		str	r0, [sp, #12]
 656 0004 0291     		str	r1, [sp, #8]
 657 0006 0192     		str	r2, [sp, #4]
 658              		.loc 1 285 0
 659 0008 4FF00003 		mov	r3, #0
 660 000c 0893     		str	r3, [sp, #32]
 661              		.loc 1 287 0
 662 000e 039B     		ldr	r3, [sp, #12]
 663 0010 1B68     		ldr	r3, [r3, #0]
 664 0012 0693     		str	r3, [sp, #24]
 665              		.loc 1 289 0
 666 0014 029B     		ldr	r3, [sp, #8]
 667 0016 0B93     		str	r3, [sp, #44]
 668              		.loc 1 290 0
 669 0018 06AB     		add	r3, sp, #24
 670 001a 0A93     		str	r3, [sp, #40]
 671              		.loc 1 291 0
 672 001c 4FF00003 		mov	r3, #0
 673 0020 8DF82730 		strb	r3, [sp, #39]
 674 0024 86E0     		b	.L58
 675              	.L65:
 676              		.loc 1 292 0
 677 0026 4FF00003 		mov	r3, #0
 678 002a 8DF82630 		strb	r3, [sp, #38]
 679              	.L59:
 680              		.loc 1 294 0 discriminator 1
 681 002e 0A9B     		ldr	r3, [sp, #40]
 682 0030 1A78     		ldrb	r2, [r3, #0]	@ zero_extendqisi2
ARM GAS  /tmp/ccBYd9Lr.s 			page 13


 683 0032 4CF6CD43 		movw	r3, #52429
 684 0036 CCF6CC43 		movt	r3, 52428
 685 003a A3FB0213 		umull	r1, r3, r3, r2
 686 003e 4FEAD301 		lsr	r1, r3, #3
 687 0042 0B46     		mov	r3, r1
 688 0044 4FEA8303 		lsl	r3, r3, #2
 689 0048 5B18     		adds	r3, r3, r1
 690 004a 4FEA4303 		lsl	r3, r3, #1
 691 004e D31A     		subs	r3, r2, r3
 692 0050 8DF81F30 		strb	r3, [sp, #31]
 693              		.loc 1 295 0 discriminator 1
 694 0054 0A9B     		ldr	r3, [sp, #40]
 695 0056 1A78     		ldrb	r2, [r3, #0]	@ zero_extendqisi2
 696 0058 4CF6CD43 		movw	r3, #52429
 697 005c CCF6CC43 		movt	r3, 52428
 698 0060 A3FB0213 		umull	r1, r3, r3, r2
 699 0064 4FEAD303 		lsr	r3, r3, #3
 700 0068 DAB2     		uxtb	r2, r3
 701 006a 0A9B     		ldr	r3, [sp, #40]
 702 006c 1A70     		strb	r2, [r3, #0]
 703              		.loc 1 296 0 discriminator 1
 704 006e 9DF82630 		ldrb	r3, [sp, #38]	@ zero_extendqisi2
 705 0072 9DF81F20 		ldrb	r2, [sp, #31]
 706 0076 02F13002 		add	r2, r2, #48
 707 007a D2B2     		uxtb	r2, r2
 708 007c 0CA9     		add	r1, sp, #48
 709 007e CB18     		adds	r3, r1, r3
 710 0080 03F81C2C 		strb	r2, [r3, #-28]
 711 0084 9DF82630 		ldrb	r3, [sp, #38]
 712 0088 03F10103 		add	r3, r3, #1
 713 008c 8DF82630 		strb	r3, [sp, #38]
 714              		.loc 1 297 0 discriminator 1
 715 0090 0A9B     		ldr	r3, [sp, #40]
 716 0092 1B78     		ldrb	r3, [r3, #0]	@ zero_extendqisi2
 717 0094 002B     		cmp	r3, #0
 718 0096 CAD1     		bne	.L59
 719              		.loc 1 298 0
 720 0098 1BE0     		b	.L60
 721              	.L63:
 722              		.loc 1 299 0
 723 009a 089A     		ldr	r2, [sp, #32]
 724 009c 019B     		ldr	r3, [sp, #4]
 725 009e 9A42     		cmp	r2, r3
 726 00a0 B4BF     		ite	lt
 727 00a2 0023     		movlt	r3, #0
 728 00a4 0123     		movge	r3, #1
 729 00a6 DBB2     		uxtb	r3, r3
 730 00a8 089A     		ldr	r2, [sp, #32]
 731 00aa 02F10102 		add	r2, r2, #1
 732 00ae 0892     		str	r2, [sp, #32]
 733 00b0 002B     		cmp	r3, #0
 734 00b2 02D0     		beq	.L61
 735              		.loc 1 300 0
 736 00b4 4FF00003 		mov	r3, #0
 737 00b8 4AE0     		b	.L62
 738              	.L61:
 739              		.loc 1 302 0
ARM GAS  /tmp/ccBYd9Lr.s 			page 14


 740 00ba 9DF82630 		ldrb	r3, [sp, #38]	@ zero_extendqisi2
 741 00be 0CAA     		add	r2, sp, #48
 742 00c0 D318     		adds	r3, r2, r3
 743 00c2 13F81C2C 		ldrb	r2, [r3, #-28]	@ zero_extendqisi2
 744 00c6 0B9B     		ldr	r3, [sp, #44]
 745 00c8 1A70     		strb	r2, [r3, #0]
 746 00ca 0B9B     		ldr	r3, [sp, #44]
 747 00cc 03F10103 		add	r3, r3, #1
 748 00d0 0B93     		str	r3, [sp, #44]
 749              	.L60:
 750              		.loc 1 298 0 discriminator 1
 751 00d2 9DF82630 		ldrb	r3, [sp, #38]	@ zero_extendqisi2
 752 00d6 002B     		cmp	r3, #0
 753 00d8 0CBF     		ite	eq
 754 00da 0023     		moveq	r3, #0
 755 00dc 0123     		movne	r3, #1
 756 00de DBB2     		uxtb	r3, r3
 757 00e0 9DF82620 		ldrb	r2, [sp, #38]
 758 00e4 02F1FF32 		add	r2, r2, #-1
 759 00e8 8DF82620 		strb	r2, [sp, #38]
 760 00ec 002B     		cmp	r3, #0
 761 00ee D4D1     		bne	.L63
 762              		.loc 1 304 0
 763 00f0 089A     		ldr	r2, [sp, #32]
 764 00f2 019B     		ldr	r3, [sp, #4]
 765 00f4 9A42     		cmp	r2, r3
 766 00f6 B4BF     		ite	lt
 767 00f8 0023     		movlt	r3, #0
 768 00fa 0123     		movge	r3, #1
 769 00fc DBB2     		uxtb	r3, r3
 770 00fe 089A     		ldr	r2, [sp, #32]
 771 0100 02F10102 		add	r2, r2, #1
 772 0104 0892     		str	r2, [sp, #32]
 773 0106 002B     		cmp	r3, #0
 774 0108 02D0     		beq	.L64
 775              		.loc 1 305 0
 776 010a 4FF00003 		mov	r3, #0
 777 010e 1FE0     		b	.L62
 778              	.L64:
 779              		.loc 1 307 0
 780 0110 0B9B     		ldr	r3, [sp, #44]
 781 0112 4FF02E02 		mov	r2, #46
 782 0116 1A70     		strb	r2, [r3, #0]
 783 0118 0B9B     		ldr	r3, [sp, #44]
 784 011a 03F10103 		add	r3, r3, #1
 785 011e 0B93     		str	r3, [sp, #44]
 786              		.loc 1 308 0
 787 0120 0A9B     		ldr	r3, [sp, #40]
 788 0122 03F10103 		add	r3, r3, #1
 789 0126 0A93     		str	r3, [sp, #40]
 790              		.loc 1 291 0
 791 0128 9DF82730 		ldrb	r3, [sp, #39]
 792 012c 03F10103 		add	r3, r3, #1
 793 0130 8DF82730 		strb	r3, [sp, #39]
 794              	.L58:
 795              		.loc 1 291 0 is_stmt 0 discriminator 1
 796 0134 9DF82730 		ldrb	r3, [sp, #39]	@ zero_extendqisi2
ARM GAS  /tmp/ccBYd9Lr.s 			page 15


 797 0138 032B     		cmp	r3, #3
 798 013a 7FF674AF 		bls	.L65
 799              		.loc 1 310 0 is_stmt 1
 800 013e 0B9B     		ldr	r3, [sp, #44]
 801 0140 03F1FF33 		add	r3, r3, #-1
 802 0144 0B93     		str	r3, [sp, #44]
 803 0146 0B9B     		ldr	r3, [sp, #44]
 804 0148 4FF00002 		mov	r2, #0
 805 014c 1A70     		strb	r2, [r3, #0]
 806              		.loc 1 311 0
 807 014e 029B     		ldr	r3, [sp, #8]
 808              	.L62:
 809              		.loc 1 312 0
 810 0150 1846     		mov	r0, r3
 811 0152 0CB0     		add	sp, sp, #48
 812 0154 7047     		bx	lr
 813              		.cfi_endproc
 814              	.LFE12:
 815              		.size	ipaddr_ntoa_r, .-ipaddr_ntoa_r
 816 0156 00BFAFF3 		.section	.bss.str.4924,"aw",%nobits
 816      0080AFF3 
 816      0080
 817              		.align	2
 818              		.type	str.4924, %object
 819              		.size	str.4924, 16
 820              	str.4924:
 821 0000 00000000 		.space	16
 821      00000000 
 821      00000000 
 821      00000000 
 822              		.text
 823              	.Letext0:
 824              		.file 2 "/home/texzk/ChibiStudio/tools/GNU Tools ARM Embedded/4.6 2012q2/bin/../lib/gcc/arm-none-e
 825              		.file 3 "../../os/various/lwip_bindings/arch/cc.h"
 826              		.file 4 "../../ext/lwip/src/include/ipv4/lwip/ip_addr.h"
 827              		.file 5 "../../ext/lwip/src/include/lwip/err.h"
 828              		.file 6 "../../ext/lwip/src/include/lwip/pbuf.h"
 829              		.file 7 "../../ext/lwip/src/include/lwip/netif.h"