ARM GAS  /tmp/ccBYd9Lr.s 			page 1


   1              		.syntax unified
   2              		.cpu cortex-m3
   3              		.fpu softvfp
   4              		.eabi_attribute 20, 1
   5              		.eabi_attribute 21, 1
   6              		.eabi_attribute 23, 3
   7              		.eabi_attribute 24, 1
   8              		.eabi_attribute 25, 1
   9              		.eabi_attribute 26, 1
  10              		.eabi_attribute 30, 6
  11              		.eabi_attribute 34, 1
  12              		.eabi_attribute 18, 4
  13              		.thumb
  14              		.file	"ip_addr.c"
  15              		.text
  16              	.Ltext0:
  17              		.cfi_sections	.debug_frame
  18              		.global	ip_addr_any
  19              		.section	.rodata.ip_addr_any,"a",%progbits
  20              		.align	2
  21              		.type	ip_addr_any, %object
  22              		.size	ip_addr_any, 4
  23              	ip_addr_any:
  24 0000 00000000 		.space	4
  25              		.global	ip_addr_broadcast
  26              		.section	.rodata.ip_addr_broadcast,"a",%progbits
  27              		.align	2
  28              		.type	ip_addr_broadcast, %object
  29              		.size	ip_addr_broadcast, 4
  30              	ip_addr_broadcast:
  31 0000 FFFFFFFF 		.word	-1
  32              		.section	.text.ip4_addr_isbroadcast,"ax",%progbits
  33              		.align	2
  34              		.p2align 4,,15
  35              		.global	ip4_addr_isbroadcast
  36              		.thumb
  37              		.thumb_func
  38              		.type	ip4_addr_isbroadcast, %function
  39              	ip4_addr_isbroadcast:
  40              	.LFB7:
  41              		.file 1 "../../ext/lwip/src/core/ipv4/ip_addr.c"
  42              		.loc 1 56 0
  43              		.cfi_startproc
  44              		@ args = 0, pretend = 0, frame = 16
  45              		@ frame_needed = 0, uses_anonymous_args = 0
  46              		@ link register save eliminated.
  47 0000 84B0     		sub	sp, sp, #16
  48              	.LCFI0:
  49              		.cfi_def_cfa_offset 16
  50 0002 0190     		str	r0, [sp, #4]
  51 0004 0091     		str	r1, [sp, #0]
  52              		.loc 1 58 0
  53 0006 019B     		ldr	r3, [sp, #4]
  54 0008 0393     		str	r3, [sp, #12]
  55              		.loc 1 61 0
  56 000a 019B     		ldr	r3, [sp, #4]
  57 000c B3F1FF3F 		cmp	r3, #-1
ARM GAS  /tmp/ccBYd9Lr.s 			page 2


  58 0010 02D0     		beq	.L2
  59              		.loc 1 61 0 is_stmt 0 discriminator 1
  60 0012 019B     		ldr	r3, [sp, #4]
  61 0014 002B     		cmp	r3, #0
  62 0016 02D1     		bne	.L3
  63              	.L2:
  64              		.loc 1 63 0 is_stmt 1
  65 0018 4FF00103 		mov	r3, #1
  66 001c 2BE0     		b	.L4
  67              	.L3:
  68              		.loc 1 65 0
  69 001e 009B     		ldr	r3, [sp, #0]
  70 0020 93F82930 		ldrb	r3, [r3, #41]	@ zero_extendqisi2
  71 0024 03F00203 		and	r3, r3, #2
  72 0028 002B     		cmp	r3, #0
  73 002a 02D1     		bne	.L5
  74              		.loc 1 68 0
  75 002c 4FF00003 		mov	r3, #0
  76 0030 21E0     		b	.L4
  77              	.L5:
  78              		.loc 1 70 0
  79 0032 009B     		ldr	r3, [sp, #0]
  80 0034 5A68     		ldr	r2, [r3, #4]
  81 0036 019B     		ldr	r3, [sp, #4]
  82 0038 9A42     		cmp	r2, r3
  83 003a 02D1     		bne	.L6
  84              		.loc 1 71 0
  85 003c 4FF00003 		mov	r3, #0
  86 0040 19E0     		b	.L4
  87              	.L6:
  88              		.loc 1 73 0
  89 0042 039A     		ldr	r2, [sp, #12]
  90 0044 009B     		ldr	r3, [sp, #0]
  91 0046 5B68     		ldr	r3, [r3, #4]
  92 0048 5A40     		eors	r2, r2, r3
  93 004a 009B     		ldr	r3, [sp, #0]
  94 004c 9B68     		ldr	r3, [r3, #8]
  95 004e 1340     		ands	r3, r3, r2
  96 0050 002B     		cmp	r3, #0
  97 0052 0ED1     		bne	.L7
  98              		.loc 1 75 0
  99 0054 009B     		ldr	r3, [sp, #0]
 100 0056 9B68     		ldr	r3, [r3, #8]
 101 0058 6FEA0302 		mvn	r2, r3
 102 005c 019B     		ldr	r3, [sp, #4]
 103 005e 1A40     		ands	r2, r2, r3
 104              		.loc 1 76 0
 105 0060 009B     		ldr	r3, [sp, #0]
 106 0062 9B68     		ldr	r3, [r3, #8]
 107 0064 6FEA0303 		mvn	r3, r3
 108              		.loc 1 75 0
 109 0068 9A42     		cmp	r2, r3
 110 006a 02D1     		bne	.L7
 111              		.loc 1 78 0
 112 006c 4FF00103 		mov	r3, #1
 113 0070 01E0     		b	.L4
 114              	.L7:
ARM GAS  /tmp/ccBYd9Lr.s 			page 3


 115              		.loc 1 80 0
 116 0072 4FF00003 		mov	r3, #0
 117              	.L4:
 118              		.loc 1 82 0
 119 0076 1846     		mov	r0, r3
 120 0078 04B0     		add	sp, sp, #16
 121 007a 7047     		bx	lr
 122              		.cfi_endproc
 123              	.LFE7:
 124              		.size	ip4_addr_isbroadcast, .-ip4_addr_isbroadcast
 125 007c AFF30080 		.section	.text.ip4_addr_netmask_valid,"ax",%progbits
 126              		.align	2
 127              		.p2align 4,,15
 128              		.global	ip4_addr_netmask_valid
 129              		.thumb
 130              		.thumb_func
 131              		.type	ip4_addr_netmask_valid, %function
 132              	ip4_addr_netmask_valid:
 133              	.LFB8:
 134              		.loc 1 91 0
 135              		.cfi_startproc
 136              		@ args = 0, pretend = 0, frame = 16
 137              		@ frame_needed = 0, uses_anonymous_args = 0
 138 0000 00B5     		push	{lr}
 139              	.LCFI1:
 140              		.cfi_def_cfa_offset 4
 141              		.cfi_offset 14, -4
 142 0002 85B0     		sub	sp, sp, #20
 143              	.LCFI2:
 144              		.cfi_def_cfa_offset 24
 145 0004 0190     		str	r0, [sp, #4]
 146              		.loc 1 93 0
 147 0006 0198     		ldr	r0, [sp, #4]
 148 0008 FFF7FEFF 		bl	lwip_htonl
 149 000c 0346     		mov	r3, r0
 150 000e 0293     		str	r3, [sp, #8]
 151              		.loc 1 96 0
 152 0010 4FF00043 		mov	r3, #-2147483648
 153 0014 0393     		str	r3, [sp, #12]
 154 0016 08E0     		b	.L9
 155              	.L12:
 156              		.loc 1 97 0
 157 0018 029A     		ldr	r2, [sp, #8]
 158 001a 039B     		ldr	r3, [sp, #12]
 159 001c 1340     		ands	r3, r3, r2
 160 001e 002B     		cmp	r3, #0
 161 0020 07D0     		beq	.L18
 162              	.L10:
 163              		.loc 1 96 0
 164 0022 039B     		ldr	r3, [sp, #12]
 165 0024 4FEA5303 		lsr	r3, r3, #1
 166 0028 0393     		str	r3, [sp, #12]
 167              	.L9:
 168              		.loc 1 96 0 is_stmt 0 discriminator 1
 169 002a 039B     		ldr	r3, [sp, #12]
 170 002c 002B     		cmp	r3, #0
 171 002e F3D1     		bne	.L12
ARM GAS  /tmp/ccBYd9Lr.s 			page 4


 172              		.loc 1 102 0 is_stmt 1
 173 0030 0DE0     		b	.L13
 174              	.L18:
 175              		.loc 1 98 0
 176 0032 00BF     		nop
 177              	.L17:
 178              		.loc 1 102 0
 179 0034 0BE0     		b	.L13
 180              	.L16:
 181              		.loc 1 103 0
 182 0036 029A     		ldr	r2, [sp, #8]
 183 0038 039B     		ldr	r3, [sp, #12]
 184 003a 1340     		ands	r3, r3, r2
 185 003c 002B     		cmp	r3, #0
 186 003e 02D0     		beq	.L14
 187              		.loc 1 105 0
 188 0040 4FF00003 		mov	r3, #0
 189 0044 08E0     		b	.L15
 190              	.L14:
 191              		.loc 1 102 0
 192 0046 039B     		ldr	r3, [sp, #12]
 193 0048 4FEA5303 		lsr	r3, r3, #1
 194 004c 0393     		str	r3, [sp, #12]
 195              	.L13:
 196              		.loc 1 102 0 is_stmt 0 discriminator 1
 197 004e 039B     		ldr	r3, [sp, #12]
 198 0050 002B     		cmp	r3, #0
 199 0052 F0D1     		bne	.L16
 200              		.loc 1 109 0 is_stmt 1
 201 0054 4FF00103 		mov	r3, #1
 202              	.L15:
 203              		.loc 1 110 0
 204 0058 1846     		mov	r0, r3
 205 005a 05B0     		add	sp, sp, #20
 206 005c 00BD     		pop	{pc}
 207              		.cfi_endproc
 208              	.LFE8:
 209              		.size	ip4_addr_netmask_valid, .-ip4_addr_netmask_valid
 210 005e 00BF     		.section	.text.ipaddr_addr,"ax",%progbits
 211              		.align	2
 212              		.p2align 4,,15
 213              		.global	ipaddr_addr
 214              		.thumb
 215              		.thumb_func
 216              		.type	ipaddr_addr, %function
 217              	ipaddr_addr:
 218              	.LFB9:
 219              		.loc 1 131 0
 220              		.cfi_startproc
 221              		@ args = 0, pretend = 0, frame = 16
 222              		@ frame_needed = 0, uses_anonymous_args = 0
 223 0000 00B5     		push	{lr}
 224              	.LCFI3:
 225              		.cfi_def_cfa_offset 4
 226              		.cfi_offset 14, -4
 227 0002 85B0     		sub	sp, sp, #20
 228              	.LCFI4:
ARM GAS  /tmp/ccBYd9Lr.s 			page 5


 229              		.cfi_def_cfa_offset 24
 230 0004 0190     		str	r0, [sp, #4]
 231              		.loc 1 134 0
 232 0006 03AB     		add	r3, sp, #12
 233 0008 0198     		ldr	r0, [sp, #4]
 234 000a 1946     		mov	r1, r3
 235 000c FFF7FEFF 		bl	ipaddr_aton
 236 0010 0346     		mov	r3, r0
 237 0012 002B     		cmp	r3, #0
 238 0014 01D0     		beq	.L20
 239              		.loc 1 135 0
 240 0016 039B     		ldr	r3, [sp, #12]
 241 0018 01E0     		b	.L21
 242              	.L20:
 243              		.loc 1 137 0
 244 001a 4FF0FF33 		mov	r3, #-1
 245              	.L21:
 246              		.loc 1 138 0
 247 001e 1846     		mov	r0, r3
 248 0020 05B0     		add	sp, sp, #20
 249 0022 00BD     		pop	{pc}
 250              		.cfi_endproc
 251              	.LFE9:
 252              		.size	ipaddr_addr, .-ipaddr_addr
 253 0024 AFF30080 		.section	.text.ipaddr_aton,"ax",%progbits
 253      AFF30080 
 253      AFF30080 
 254              		.align	2
 255              		.p2align 4,,15
 256              		.global	ipaddr_aton
 257              		.thumb
 258              		.thumb_func
 259              		.type	ipaddr_aton, %function
 260              	ipaddr_aton:
 261              	.LFB10:
 262              		.loc 1 153 0
 263              		.cfi_startproc
 264              		@ args = 0, pretend = 0, frame = 40
 265              		@ frame_needed = 0, uses_anonymous_args = 0
 266 0000 00B5     		push	{lr}
 267              	.LCFI5:
 268              		.cfi_def_cfa_offset 4
 269              		.cfi_offset 14, -4
 270 0002 8BB0     		sub	sp, sp, #44
 271              	.LCFI6:
 272              		.cfi_def_cfa_offset 48
 273 0004 0190     		str	r0, [sp, #4]
 274 0006 0091     		str	r1, [sp, #0]
 275              		.loc 1 158 0
 276 0008 03AB     		add	r3, sp, #12
 277 000a 0793     		str	r3, [sp, #28]
 278              		.loc 1 160 0
 279 000c 019B     		ldr	r3, [sp, #4]
 280 000e 1B78     		ldrb	r3, [r3, #0]
 281 0010 8DF82230 		strb	r3, [sp, #34]
 282              	.L39:
 283              		.loc 1 167 0
ARM GAS  /tmp/ccBYd9Lr.s 			page 6


 284 0014 9DF82230 		ldrb	r3, [sp, #34]	@ zero_extendqisi2
 285 0018 2F2B     		cmp	r3, #47
 286 001a 03D9     		bls	.L23
 287              		.loc 1 167 0 is_stmt 0 discriminator 1
 288 001c 9DF82230 		ldrb	r3, [sp, #34]	@ zero_extendqisi2
 289 0020 392B     		cmp	r3, #57
 290 0022 02D9     		bls	.L24
 291              	.L23:
 292              		.loc 1 168 0 is_stmt 1
 293 0024 4FF00003 		mov	r3, #0
 294 0028 1FE1     		b	.L25
 295              	.L24:
 296              		.loc 1 169 0
 297 002a 4FF00003 		mov	r3, #0
 298 002e 0993     		str	r3, [sp, #36]
 299              		.loc 1 170 0
 300 0030 4FF00A03 		mov	r3, #10
 301 0034 8DF82330 		strb	r3, [sp, #35]
 302              		.loc 1 171 0
 303 0038 9DF82230 		ldrb	r3, [sp, #34]	@ zero_extendqisi2
 304 003c 302B     		cmp	r3, #48
 305 003e 20D1     		bne	.L26
 306              		.loc 1 172 0
 307 0040 019B     		ldr	r3, [sp, #4]
 308 0042 03F10103 		add	r3, r3, #1
 309 0046 0193     		str	r3, [sp, #4]
 310 0048 019B     		ldr	r3, [sp, #4]
 311 004a 1B78     		ldrb	r3, [r3, #0]
 312 004c 8DF82230 		strb	r3, [sp, #34]
 313              		.loc 1 173 0
 314 0050 9DF82230 		ldrb	r3, [sp, #34]	@ zero_extendqisi2
 315 0054 782B     		cmp	r3, #120
 316 0056 03D0     		beq	.L27
 317              		.loc 1 173 0 is_stmt 0 discriminator 1
 318 0058 9DF82230 		ldrb	r3, [sp, #34]	@ zero_extendqisi2
 319 005c 582B     		cmp	r3, #88
 320 005e 0CD1     		bne	.L28
 321              	.L27:
 322              		.loc 1 174 0 is_stmt 1
 323 0060 4FF01003 		mov	r3, #16
 324 0064 8DF82330 		strb	r3, [sp, #35]
 325              		.loc 1 175 0
 326 0068 019B     		ldr	r3, [sp, #4]
 327 006a 03F10103 		add	r3, r3, #1
 328 006e 0193     		str	r3, [sp, #4]
 329 0070 019B     		ldr	r3, [sp, #4]
 330 0072 1B78     		ldrb	r3, [r3, #0]
 331 0074 8DF82230 		strb	r3, [sp, #34]
 332 0078 03E0     		b	.L26
 333              	.L28:
 334              		.loc 1 177 0
 335 007a 4FF00803 		mov	r3, #8
 336 007e 8DF82330 		strb	r3, [sp, #35]
 337              	.L26:
 338              		.loc 1 180 0
 339 0082 9DF82230 		ldrb	r3, [sp, #34]	@ zero_extendqisi2
 340 0086 2F2B     		cmp	r3, #47
ARM GAS  /tmp/ccBYd9Lr.s 			page 7


 341 0088 17D9     		bls	.L29
 342              		.loc 1 180 0 is_stmt 0 discriminator 1
 343 008a 9DF82230 		ldrb	r3, [sp, #34]	@ zero_extendqisi2
 344 008e 392B     		cmp	r3, #57
 345 0090 13D8     		bhi	.L29
 346              		.loc 1 181 0 is_stmt 1
 347 0092 9DF82330 		ldrb	r3, [sp, #35]	@ zero_extendqisi2
 348 0096 099A     		ldr	r2, [sp, #36]
 349 0098 02FB03F2 		mul	r2, r2, r3
 350 009c 9DF82230 		ldrb	r3, [sp, #34]	@ zero_extendqisi2
 351 00a0 D318     		adds	r3, r2, r3
 352 00a2 A3F13003 		sub	r3, r3, #48
 353 00a6 0993     		str	r3, [sp, #36]
 354              		.loc 1 182 0
 355 00a8 019B     		ldr	r3, [sp, #4]
 356 00aa 03F10103 		add	r3, r3, #1
 357 00ae 0193     		str	r3, [sp, #4]
 358 00b0 019B     		ldr	r3, [sp, #4]
 359 00b2 1B78     		ldrb	r3, [r3, #0]
 360 00b4 8DF82230 		strb	r3, [sp, #34]
 361              		.loc 1 188 0
 362 00b8 E3E7     		b	.L26
 363              	.L29:
 364              		.loc 1 183 0
 365 00ba 9DF82330 		ldrb	r3, [sp, #35]	@ zero_extendqisi2
 366 00be 102B     		cmp	r3, #16
 367 00c0 37D1     		bne	.L31
 368              		.loc 1 183 0 is_stmt 0 discriminator 1
 369 00c2 9DF82230 		ldrb	r3, [sp, #34]	@ zero_extendqisi2
 370 00c6 2F2B     		cmp	r3, #47
 371 00c8 03D9     		bls	.L32
 372 00ca 9DF82230 		ldrb	r3, [sp, #34]	@ zero_extendqisi2
 373 00ce 392B     		cmp	r3, #57
 374 00d0 0FD9     		bls	.L33
 375              	.L32:
 376              		.loc 1 183 0 discriminator 2
 377 00d2 9DF82230 		ldrb	r3, [sp, #34]	@ zero_extendqisi2
 378 00d6 602B     		cmp	r3, #96
 379 00d8 03D9     		bls	.L34
 380              		.loc 1 183 0 discriminator 1
 381 00da 9DF82230 		ldrb	r3, [sp, #34]	@ zero_extendqisi2
 382 00de 662B     		cmp	r3, #102
 383 00e0 07D9     		bls	.L33
 384              	.L34:
 385              		.loc 1 183 0 discriminator 2
 386 00e2 9DF82230 		ldrb	r3, [sp, #34]	@ zero_extendqisi2
 387 00e6 402B     		cmp	r3, #64
 388 00e8 23D9     		bls	.L31
 389              		.loc 1 183 0 discriminator 3
 390 00ea 9DF82230 		ldrb	r3, [sp, #34]	@ zero_extendqisi2
 391 00ee 462B     		cmp	r3, #70
 392 00f0 1FD8     		bhi	.L31
 393              	.L33:
 394              		.loc 1 184 0 is_stmt 1
 395 00f2 099B     		ldr	r3, [sp, #36]
 396 00f4 4FEA0312 		lsl	r2, r3, #4
 397 00f8 9DF82230 		ldrb	r3, [sp, #34]	@ zero_extendqisi2
ARM GAS  /tmp/ccBYd9Lr.s 			page 8


 398 00fc 03F10A01 		add	r1, r3, #10
 399 0100 9DF82230 		ldrb	r3, [sp, #34]	@ zero_extendqisi2
 400 0104 602B     		cmp	r3, #96
 401 0106 06D9     		bls	.L35
 402              		.loc 1 184 0 is_stmt 0 discriminator 1
 403 0108 9DF82230 		ldrb	r3, [sp, #34]	@ zero_extendqisi2
 404 010c 7A2B     		cmp	r3, #122
 405 010e 02D8     		bhi	.L35
 406 0110 4FF06103 		mov	r3, #97
 407 0114 01E0     		b	.L36
 408              	.L35:
 409              		.loc 1 184 0 discriminator 2
 410 0116 4FF04103 		mov	r3, #65
 411              	.L36:
 412              		.loc 1 184 0 discriminator 3
 413 011a CB1A     		subs	r3, r1, r3
 414 011c 1343     		orrs	r3, r3, r2
 415 011e 0993     		str	r3, [sp, #36]
 416              		.loc 1 185 0 is_stmt 1 discriminator 3
 417 0120 019B     		ldr	r3, [sp, #4]
 418 0122 03F10103 		add	r3, r3, #1
 419 0126 0193     		str	r3, [sp, #4]
 420 0128 019B     		ldr	r3, [sp, #4]
 421 012a 1B78     		ldrb	r3, [r3, #0]
 422 012c 8DF82230 		strb	r3, [sp, #34]
 423              		.loc 1 188 0 discriminator 3
 424 0130 A7E7     		b	.L26
 425              	.L31:
 426              		.loc 1 189 0
 427 0132 9DF82230 		ldrb	r3, [sp, #34]	@ zero_extendqisi2
 428 0136 2E2B     		cmp	r3, #46
 429 0138 18D1     		bne	.L54
 430              		.loc 1 196 0
 431 013a 03AB     		add	r3, sp, #12
 432 013c 03F10C03 		add	r3, r3, #12
 433 0140 079A     		ldr	r2, [sp, #28]
 434 0142 9A42     		cmp	r2, r3
 435 0144 02D3     		bcc	.L38
 436              		.loc 1 197 0
 437 0146 4FF00003 		mov	r3, #0
 438 014a 8EE0     		b	.L25
 439              	.L38:
 440              		.loc 1 199 0
 441 014c 079B     		ldr	r3, [sp, #28]
 442 014e 099A     		ldr	r2, [sp, #36]
 443 0150 1A60     		str	r2, [r3, #0]
 444 0152 079B     		ldr	r3, [sp, #28]
 445 0154 03F10403 		add	r3, r3, #4
 446 0158 0793     		str	r3, [sp, #28]
 447              		.loc 1 200 0
 448 015a 019B     		ldr	r3, [sp, #4]
 449 015c 03F10103 		add	r3, r3, #1
 450 0160 0193     		str	r3, [sp, #4]
 451 0162 019B     		ldr	r3, [sp, #4]
 452 0164 1B78     		ldrb	r3, [r3, #0]
 453 0166 8DF82230 		strb	r3, [sp, #34]
 454              		.loc 1 203 0
ARM GAS  /tmp/ccBYd9Lr.s 			page 9


 455 016a 53E7     		b	.L39
 456              	.L54:
 457              		.loc 1 202 0
 458 016c 00BF     		nop
 459              	.L53:
 460              		.loc 1 207 0
 461 016e 9DF82230 		ldrb	r3, [sp, #34]	@ zero_extendqisi2
 462 0172 002B     		cmp	r3, #0
 463 0174 1AD0     		beq	.L40
 464              		.loc 1 207 0 is_stmt 0 discriminator 1
 465 0176 9DF82230 		ldrb	r3, [sp, #34]	@ zero_extendqisi2
 466 017a 202B     		cmp	r3, #32
 467 017c 16D0     		beq	.L40
 468 017e 9DF82230 		ldrb	r3, [sp, #34]	@ zero_extendqisi2
 469 0182 0C2B     		cmp	r3, #12
 470 0184 12D0     		beq	.L40
 471 0186 9DF82230 		ldrb	r3, [sp, #34]	@ zero_extendqisi2
 472 018a 0A2B     		cmp	r3, #10
 473 018c 0ED0     		beq	.L40
 474              		.loc 1 207 0 discriminator 2
 475 018e 9DF82230 		ldrb	r3, [sp, #34]	@ zero_extendqisi2
 476 0192 0D2B     		cmp	r3, #13
 477 0194 0AD0     		beq	.L40
 478              		.loc 1 207 0 discriminator 3
 479 0196 9DF82230 		ldrb	r3, [sp, #34]	@ zero_extendqisi2
 480 019a 092B     		cmp	r3, #9
 481 019c 06D0     		beq	.L40
 482              		.loc 1 207 0 discriminator 4
 483 019e 9DF82230 		ldrb	r3, [sp, #34]	@ zero_extendqisi2
 484 01a2 0B2B     		cmp	r3, #11
 485 01a4 02D0     		beq	.L40
 486              		.loc 1 208 0 is_stmt 1
 487 01a6 4FF00003 		mov	r3, #0
 488 01aa 5EE0     		b	.L25
 489              	.L40:
 490              		.loc 1 214 0
 491 01ac 079A     		ldr	r2, [sp, #28]
 492 01ae 03AB     		add	r3, sp, #12
 493 01b0 D31A     		subs	r3, r2, r3
 494 01b2 4FEAA303 		asr	r3, r3, #2
 495 01b6 03F10103 		add	r3, r3, #1
 496 01ba 042B     		cmp	r3, #4
 497 01bc 46D8     		bhi	.L41
 498 01be 01A2     		adr	r2, .L47
 499 01c0 52F823F0 		ldr	pc, [r2, r3, lsl #2]
 500              		.align	2
 501              	.L47:
 502 01c4 D9010000 		.word	.L42+1
 503 01c8 53020000 		.word	.L55+1
 504 01cc DF010000 		.word	.L44+1
 505 01d0 FD010000 		.word	.L45+1
 506 01d4 23020000 		.word	.L46+1
 507              	.L42:
 508              		.loc 1 217 0
 509 01d8 4FF00003 		mov	r3, #0
 510 01dc 45E0     		b	.L25
 511              	.L44:
ARM GAS  /tmp/ccBYd9Lr.s 			page 10


 512              		.loc 1 223 0
 513 01de 099A     		ldr	r2, [sp, #36]
 514 01e0 6FF07F43 		mvn	r3, #-16777216
 515 01e4 9A42     		cmp	r2, r3
 516 01e6 02D9     		bls	.L49
 517              		.loc 1 224 0
 518 01e8 4FF00003 		mov	r3, #0
 519 01ec 3DE0     		b	.L25
 520              	.L49:
 521              		.loc 1 226 0
 522 01ee 039B     		ldr	r3, [sp, #12]
 523 01f0 4FEA0363 		lsl	r3, r3, #24
 524 01f4 099A     		ldr	r2, [sp, #36]
 525 01f6 1343     		orrs	r3, r3, r2
 526 01f8 0993     		str	r3, [sp, #36]
 527              		.loc 1 227 0
 528 01fa 2BE0     		b	.L48
 529              	.L45:
 530              		.loc 1 230 0
 531 01fc 099A     		ldr	r2, [sp, #36]
 532 01fe 4FF6FF73 		movw	r3, #65535
 533 0202 9A42     		cmp	r2, r3
 534 0204 02D9     		bls	.L50
 535              		.loc 1 231 0
 536 0206 4FF00003 		mov	r3, #0
 537 020a 2EE0     		b	.L25
 538              	.L50:
 539              		.loc 1 233 0
 540 020c 039B     		ldr	r3, [sp, #12]
 541 020e 4FEA0362 		lsl	r2, r3, #24
 542 0212 049B     		ldr	r3, [sp, #16]
 543 0214 4FEA0343 		lsl	r3, r3, #16
 544 0218 1343     		orrs	r3, r3, r2
 545 021a 099A     		ldr	r2, [sp, #36]
 546 021c 1343     		orrs	r3, r3, r2
 547 021e 0993     		str	r3, [sp, #36]
 548              		.loc 1 234 0
 549 0220 18E0     		b	.L48
 550              	.L46:
 551              		.loc 1 237 0
 552 0222 099B     		ldr	r3, [sp, #36]
 553 0224 FF2B     		cmp	r3, #255
 554 0226 02D9     		bls	.L51
 555              		.loc 1 238 0
 556 0228 4FF00003 		mov	r3, #0
 557 022c 1DE0     		b	.L25
 558              	.L51:
 559              		.loc 1 240 0
 560 022e 039B     		ldr	r3, [sp, #12]
 561 0230 4FEA0362 		lsl	r2, r3, #24
 562 0234 049B     		ldr	r3, [sp, #16]
 563 0236 4FEA0343 		lsl	r3, r3, #16
 564 023a 1A43     		orrs	r2, r2, r3
 565 023c 059B     		ldr	r3, [sp, #20]
 566 023e 4FEA0323 		lsl	r3, r3, #8
 567 0242 1343     		orrs	r3, r3, r2
 568 0244 099A     		ldr	r2, [sp, #36]
ARM GAS  /tmp/ccBYd9Lr.s 			page 11


 569 0246 1343     		orrs	r3, r3, r2
 570 0248 0993     		str	r3, [sp, #36]
 571              		.loc 1 241 0
 572 024a 03E0     		b	.L48
 573              	.L41:
 574              		.loc 1 243 0 discriminator 1
 575 024c FFF7FEFF 		bl	port_halt
 576              		.loc 1 244 0 discriminator 1
 577 0250 00E0     		b	.L48
 578              	.L55:
 579              		.loc 1 220 0
 580 0252 00BF     		nop
 581              	.L48:
 582              		.loc 1 246 0
 583 0254 009B     		ldr	r3, [sp, #0]
 584 0256 002B     		cmp	r3, #0
 585 0258 05D0     		beq	.L52
 586              		.loc 1 247 0
 587 025a 0998     		ldr	r0, [sp, #36]
 588 025c FFF7FEFF 		bl	lwip_htonl
 589 0260 0246     		mov	r2, r0
 590 0262 009B     		ldr	r3, [sp, #0]
 591 0264 1A60     		str	r2, [r3, #0]
 592              	.L52:
 593              		.loc 1 249 0
 594 0266 4FF00103 		mov	r3, #1
 595              	.L25:
 596              		.loc 1 250 0
 597 026a 1846     		mov	r0, r3
 598 026c 0BB0     		add	sp, sp, #44
 599 026e 00BD     		pop	{pc}
 600              		.cfi_endproc
 601              	.LFE10:
 602              		.size	ipaddr_aton, .-ipaddr_aton
 603              		.section	.text.ipaddr_ntoa,"ax",%progbits
 604              		.align	2
 605              		.p2align 4,,15
 606              		.global	ipaddr_ntoa
 607              		.thumb
 608              		.thumb_func
 609              		.type	ipaddr_ntoa, %function
 610              	ipaddr_ntoa:
 611              	.LFB11:
 612              		.loc 1 262 0
 613              		.cfi_startproc
 614              		@ args = 0, pretend = 0, frame = 8
 615              		@ frame_needed = 0, uses_anonymous_args = 0
 616 0000 00B5     		push	{lr}
 617              	.LCFI7:
 618              		.cfi_def_cfa_offset 4
 619              		.cfi_offset 14, -4
 620 0002 83B0     		sub	sp, sp, #12
 621              	.LCFI8:
 622              		.cfi_def_cfa_offset 16
 623 0004 0190     		str	r0, [sp, #4]
 624              		.loc 1 264 0
 625 0006 0198     		ldr	r0, [sp, #4]
ARM GAS  /tmp/ccBYd9Lr.s 			page 12


 626 0008 40F20001 		movw	r1, #:lower16:str.4924
 627 000c C0F20001 		movt	r1, #:upper16:str.4924
 628 0010 4FF01002 		mov	r2, #16
 629 0014 FFF7FEFF 		bl	ipaddr_ntoa_r
 630 0018 0346     		mov	r3, r0
 631              		.loc 1 265 0
 632 001a 1846     		mov	r0, r3
 633 001c 03B0     		add	sp, sp, #12
 634 001e 00BD     		pop	{pc}
 635              		.cfi_endproc
 636              	.LFE11:
 637              		.size	ipaddr_ntoa, .-ipaddr_ntoa
 638              		.section	.text.ipaddr_ntoa_r,"ax",%progbits
 639              		.align	2
 640              		.p2align 4,,15
 641              		.global	ipaddr_ntoa_r
 642              		.thumb
 643              		.thumb_func
 644              		.type	ipaddr_ntoa_r, %function
 645              	ipaddr_ntoa_r:
 646              	.LFB12:
 647              		.loc 1 277 0
 648              		.cfi_startproc
 649              		@ args = 0, pretend = 0, frame = 48
 650              		@ frame_needed = 0, uses_anonymous_args = 0
 651              		@ link register save eliminated.
 652 0000 8CB0     		sub	sp, sp, #48
 653              	.LCFI9:
 654              		.cfi_def_cfa_offset 48
 655 0002 0390     		str	r0, [sp, #12]
 656 0004 0291     		str	r1, [sp, #8]
 657 0006 0192     		str	r2, [sp, #4]
 658              		.loc 1 285 0
 659 0008 4FF00003 		mov	r3, #0
 660 000c 0893     		str	r3, [sp, #32]
 661              		.loc 1 287 0
 662 000e 039B     		ldr	r3, [sp, #12]
 663 0010 1B68     		ldr	r3, [r3, #0]
 664 0012 0693     		str	r3, [sp, #24]
 665              		.loc 1 289 0
 666 0014 029B     		ldr	r3, [sp, #8]
 667 0016 0B93     		str	r3, [sp, #44]
 668              		.loc 1 290 0
 669 0018 06AB     		add	r3, sp, #24
 670 001a 0A93     		str	r3, [sp, #40]
 671              		.loc 1 291 0
 672 001c 4FF00003 		mov	r3, #0
 673 0020 8DF82730 		strb	r3, [sp, #39]
 674 0024 86E0     		b	.L58
 675              	.L65:
 676              		.loc 1 292 0
 677 0026 4FF00003 		mov	r3, #0
 678 002a 8DF82630 		strb	r3, [sp, #38]
 679              	.L59:
 680              		.loc 1 294 0 discriminator 1
 681 002e 0A9B     		ldr	r3, [sp, #40]
 682 0030 1A78     		ldrb	r2, [r3, #0]	@ zero_extendqisi2
ARM GAS  /tmp/ccBYd9Lr.s 			page 13


 683 0032 4CF6CD43 		movw	r3, #52429
 684 0036 CCF6CC43 		movt	r3, 52428
 685 003a A3FB0213 		umull	r1, r3, r3, r2
 686 003e 4FEAD301 		lsr	r1, r3, #3
 687 0042 0B46     		mov	r3, r1
 688 0044 4FEA8303 		lsl	r3, r3, #2
 689 0048 5B18     		adds	r3, r3, r1
 690 004a 4FEA4303 		lsl	r3, r3, #1
 691 004e D31A     		subs	r3, r2, r3
 692 0050 8DF81F30 		strb	r3, [sp, #31]
 693              		.loc 1 295 0 discriminator 1
 694 0054 0A9B     		ldr	r3, [sp, #40]
 695 0056 1A78     		ldrb	r2, [r3, #0]	@ zero_extendqisi2
 696 0058 4CF6CD43 		movw	r3, #52429
 697 005c CCF6CC43 		movt	r3, 52428
 698 0060 A3FB0213 		umull	r1, r3, r3, r2
 699 0064 4FEAD303 		lsr	r3, r3, #3
 700 0068 DAB2     		uxtb	r2, r3
 701 006a 0A9B     		ldr	r3, [sp, #40]
 702 006c 1A70     		strb	r2, [r3, #0]
 703              		.loc 1 296 0 discriminator 1
 704 006e 9DF82630 		ldrb	r3, [sp, #38]	@ zero_extendqisi2
 705 0072 9DF81F20 		ldrb	r2, [sp, #31]
 706 0076 02F13002 		add	r2, r2, #48
 707 007a D2B2     		uxtb	r2, r2
 708 007c 0CA9     		add	r1, sp, #48
 709 007e CB18     		adds	r3, r1, r3
 710 0080 03F81C2C 		strb	r2, [r3, #-28]
 711 0084 9DF82630 		ldrb	r3, [sp, #38]
 712 0088 03F10103 		add	r3, r3, #1
 713 008c 8DF82630 		strb	r3, [sp, #38]
 714              		.loc 1 297 0 discriminator 1
 715 0090 0A9B     		ldr	r3, [sp, #40]
 716 0092 1B78     		ldrb	r3, [r3, #0]	@ zero_extendqisi2
 717 0094 002B     		cmp	r3, #0
 718 0096 CAD1     		bne	.L59
 719              		.loc 1 298 0
 720 0098 1BE0     		b	.L60
 721              	.L63:
 722              		.loc 1 299 0
 723 009a 089A     		ldr	r2, [sp, #32]
 724 009c 019B     		ldr	r3, [sp, #4]
 725 009e 9A42     		cmp	r2, r3
 726 00a0 B4BF     		ite	lt
 727 00a2 0023     		movlt	r3, #0
 728 00a4 0123     		movge	r3, #1
 729 00a6 DBB2     		uxtb	r3, r3
 730 00a8 089A     		ldr	r2, [sp, #32]
 731 00aa 02F10102 		add	r2, r2, #1
 732 00ae 0892     		str	r2, [sp, #32]
 733 00b0 002B     		cmp	r3, #0
 734 00b2 02D0     		beq	.L61
 735              		.loc 1 300 0
 736 00b4 4FF00003 		mov	r3, #0
 737 00b8 4AE0     		b	.L62
 738              	.L61:
 739              		.loc 1 302 0
ARM GAS  /tmp/ccBYd9Lr.s 			page 14


 740 00ba 9DF82630 		ldrb	r3, [sp, #38]	@ zero_extendqisi2
 741 00be 0CAA     		add	r2, sp, #48
 742 00c0 D318     		adds	r3, r2, r3
 743 00c2 13F81C2C 		ldrb	r2, [r3, #-28]	@ zero_extendqisi2
 744 00c6 0B9B     		ldr	r3, [sp, #44]
 745 00c8 1A70     		strb	r2, [r3, #0]
 746 00ca 0B9B     		ldr	r3, [sp, #44]
 747 00cc 03F10103 		add	r3, r3, #1
 748 00d0 0B93     		str	r3, [sp, #44]
 749              	.L60:
 750              		.loc 1 298 0 discriminator 1
 751 00d2 9DF82630 		ldrb	r3, [sp, #38]	@ zero_extendqisi2
 752 00d6 002B     		cmp	r3, #0
 753 00d8 0CBF     		ite	eq
 754 00da 0023     		moveq	r3, #0
 755 00dc 0123     		movne	r3, #1
 756 00de DBB2     		uxtb	r3, r3
 757 00e0 9DF82620 		ldrb	r2, [sp, #38]
 758 00e4 02F1FF32 		add	r2, r2, #-1
 759 00e8 8DF82620 		strb	r2, [sp, #38]
 760 00ec 002B     		cmp	r3, #0
 761 00ee D4D1     		bne	.L63
 762              		.loc 1 304 0
 763 00f0 089A     		ldr	r2, [sp, #32]
 764 00f2 019B     		ldr	r3, [sp, #4]
 765 00f4 9A42     		cmp	r2, r3
 766 00f6 B4BF     		ite	lt
 767 00f8 0023     		movlt	r3, #0
 768 00fa 0123     		movge	r3, #1
 769 00fc DBB2     		uxtb	r3, r3
 770 00fe 089A     		ldr	r2, [sp, #32]
 771 0100 02F10102 		add	r2, r2, #1
 772 0104 0892     		str	r2, [sp, #32]
 773 0106 002B     		cmp	r3, #0
 774 0108 02D0     		beq	.L64
 775              		.loc 1 305 0
 776 010a 4FF00003 		mov	r3, #0
 777 010e 1FE0     		b	.L62
 778              	.L64:
 779              		.loc 1 307 0
 780 0110 0B9B     		ldr	r3, [sp, #44]
 781 0112 4FF02E02 		mov	r2, #46
 782 0116 1A70     		strb	r2, [r3, #0]
 783 0118 0B9B     		ldr	r3, [sp, #44]
 784 011a 03F10103 		add	r3, r3, #1
 785 011e 0B93     		str	r3, [sp, #44]
 786              		.loc 1 308 0
 787 0120 0A9B     		ldr	r3, [sp, #40]
 788 0122 03F10103 		add	r3, r3, #1
 789 0126 0A93     		str	r3, [sp, #40]
 790              		.loc 1 291 0
 791 0128 9DF82730 		ldrb	r3, [sp, #39]
 792 012c 03F10103 		add	r3, r3, #1
 793 0130 8DF82730 		strb	r3, [sp, #39]
 794              	.L58:
 795              		.loc 1 291 0 is_stmt 0 discriminator 1
 796 0134 9DF82730 		ldrb	r3, [sp, #39]	@ zero_extendqisi2
ARM GAS  /tmp/ccBYd9Lr.s 			page 15


 797 0138 032B     		cmp	r3, #3
 798 013a 7FF674AF 		bls	.L65
 799              		.loc 1 310 0 is_stmt 1
 800 013e 0B9B     		ldr	r3, [sp, #44]
 801 0140 03F1FF33 		add	r3, r3, #-1
 802 0144 0B93     		str	r3, [sp, #44]
 803 0146 0B9B     		ldr	r3, [sp, #44]
 804 0148 4FF00002 		mov	r2, #0
 805 014c 1A70     		strb	r2, [r3, #0]
 806              		.loc 1 311 0
 807 014e 029B     		ldr	r3, [sp, #8]
 808              	.L62:
 809              		.loc 1 312 0
 810 0150 1846     		mov	r0, r3
 811 0152 0CB0     		add	sp, sp, #48
 812 0154 7047     		bx	lr
 813              		.cfi_endproc
 814              	.LFE12:
 815              		.size	ipaddr_ntoa_r, .-ipaddr_ntoa_r
 816 0156 00BFAFF3 		.section	.bss.str.4924,"aw",%nobits
 816      0080AFF3 
 816      0080
 817              		.align	2
 818              		.type	str.4924, %object
 819              		.size	str.4924, 16
 820              	str.4924:
 821 0000 00000000 		.space	16
 821      00000000 
 821      00000000 
 821      00000000 
 822              		.text
 823              	.Letext0:
 824              		.file 2 "/home/texzk/ChibiStudio/tools/GNU Tools ARM Embedded/4.6 2012q2/bin/../lib/gcc/arm-none-e
 825              		.file 3 "../../os/various/lwip_bindings/arch/cc.h"
 826              		.file 4 "../../ext/lwip/src/include/ipv4/lwip/ip_addr.h"
 827              		.file 5 "../../ext/lwip/src/include/lwip/err.h"
 828              		.file 6 "../../ext/lwip/src/include/lwip/pbuf.h"
 829              		.file 7 "../../ext/lwip/src/include/lwip/netif.h"
 830              		.section	.debug_info,"",%progbits
 831              	.Ldebug_info0:
 832 0000 B0050000 		.4byte	0x5b0
 833 0004 0200     		.2byte	0x2
 834 0006 00000000 		.4byte	.Ldebug_abbrev0
 835 000a 04       		.byte	0x4
 836 000b 01       		.uleb128 0x1
 837 000c CF000000 		.4byte	.LASF55
 838 0010 01       		.byte	0x1
 839 0011 89010000 		.4byte	.LASF56
 840 0015 05000000 		.4byte	.LASF57
 841 0019 00000000 		.4byte	0
 842 001d 00000000 		.4byte	0
 843 0021 00000000 		.4byte	.Ldebug_ranges0+0
 844 0025 00000000 		.4byte	.Ldebug_line0
 845 0029 02       		.uleb128 0x2
 846 002a 04       		.byte	0x4
 847 002b 05       		.byte	0x5
 848 002c 696E7400 		.ascii	"int\000"
ARM GAS  /tmp/ccBYd9Lr.s 			page 16


 849 0030 03       		.uleb128 0x3
 850 0031 04       		.byte	0x4
 851 0032 07       		.byte	0x7
 852 0033 39010000 		.4byte	.LASF0
 853 0037 04       		.uleb128 0x4
 854 0038 8B020000 		.4byte	.LASF2
 855 003c 02       		.byte	0x2
 856 003d 29       		.byte	0x29
 857 003e 42000000 		.4byte	0x42
 858 0042 03       		.uleb128 0x3
 859 0043 01       		.byte	0x1
 860 0044 06       		.byte	0x6
 861 0045 90000000 		.4byte	.LASF1
 862 0049 04       		.uleb128 0x4
 863 004a 9F020000 		.4byte	.LASF3
 864 004e 02       		.byte	0x2
 865 004f 2A       		.byte	0x2a
 866 0050 54000000 		.4byte	0x54
 867 0054 03       		.uleb128 0x3
 868 0055 01       		.byte	0x1
 869 0056 08       		.byte	0x8
 870 0057 43020000 		.4byte	.LASF4
 871 005b 03       		.uleb128 0x3
 872 005c 02       		.byte	0x2
 873 005d 05       		.byte	0x5
 874 005e 51020000 		.4byte	.LASF5
 875 0062 04       		.uleb128 0x4
 876 0063 18010000 		.4byte	.LASF6
 877 0067 02       		.byte	0x2
 878 0068 36       		.byte	0x36
 879 0069 6D000000 		.4byte	0x6d
 880 006d 03       		.uleb128 0x3
 881 006e 02       		.byte	0x2
 882 006f 07       		.byte	0x7
 883 0070 76010000 		.4byte	.LASF7
 884 0074 03       		.uleb128 0x3
 885 0075 04       		.byte	0x4
 886 0076 05       		.byte	0x5
 887 0077 C6000000 		.4byte	.LASF8
 888 007b 04       		.uleb128 0x4
 889 007c 7D020000 		.4byte	.LASF9
 890 0080 02       		.byte	0x2
 891 0081 50       		.byte	0x50
 892 0082 86000000 		.4byte	0x86
 893 0086 03       		.uleb128 0x3
 894 0087 04       		.byte	0x4
 895 0088 07       		.byte	0x7
 896 0089 4D010000 		.4byte	.LASF10
 897 008d 03       		.uleb128 0x3
 898 008e 08       		.byte	0x8
 899 008f 05       		.byte	0x5
 900 0090 82000000 		.4byte	.LASF11
 901 0094 03       		.uleb128 0x3
 902 0095 08       		.byte	0x8
 903 0096 07       		.byte	0x7
 904 0097 61000000 		.4byte	.LASF12
 905 009b 05       		.uleb128 0x5
ARM GAS  /tmp/ccBYd9Lr.s 			page 17


 906 009c 04       		.byte	0x4
 907 009d 06       		.uleb128 0x6
 908 009e 04       		.byte	0x4
 909 009f A3000000 		.4byte	0xa3
 910 00a3 07       		.uleb128 0x7
 911 00a4 A8000000 		.4byte	0xa8
 912 00a8 03       		.uleb128 0x3
 913 00a9 01       		.byte	0x1
 914 00aa 08       		.byte	0x8
 915 00ab 86020000 		.4byte	.LASF13
 916 00af 04       		.uleb128 0x4
 917 00b0 E2010000 		.4byte	.LASF14
 918 00b4 03       		.byte	0x3
 919 00b5 3C       		.byte	0x3c
 920 00b6 49000000 		.4byte	0x49
 921 00ba 04       		.uleb128 0x4
 922 00bb 78020000 		.4byte	.LASF15
 923 00bf 03       		.byte	0x3
 924 00c0 3D       		.byte	0x3d
 925 00c1 37000000 		.4byte	0x37
 926 00c5 04       		.uleb128 0x4
 927 00c6 92020000 		.4byte	.LASF16
 928 00ca 03       		.byte	0x3
 929 00cb 3E       		.byte	0x3e
 930 00cc 62000000 		.4byte	0x62
 931 00d0 04       		.uleb128 0x4
 932 00d1 5F010000 		.4byte	.LASF17
 933 00d5 03       		.byte	0x3
 934 00d6 40       		.byte	0x40
 935 00d7 7B000000 		.4byte	0x7b
 936 00db 08       		.uleb128 0x8
 937 00dc 15020000 		.4byte	.LASF20
 938 00e0 04       		.byte	0x4
 939 00e1 04       		.byte	0x4
 940 00e2 2C       		.byte	0x2c
 941 00e3 F6000000 		.4byte	0xf6
 942 00e7 09       		.uleb128 0x9
 943 00e8 78000000 		.4byte	.LASF22
 944 00ec 04       		.byte	0x4
 945 00ed 2D       		.byte	0x2d
 946 00ee D0000000 		.4byte	0xd0
 947 00f2 02       		.byte	0x2
 948 00f3 23       		.byte	0x23
 949 00f4 00       		.uleb128 0
 950 00f5 00       		.byte	0
 951 00f6 04       		.uleb128 0x4
 952 00f7 D8010000 		.4byte	.LASF18
 953 00fb 04       		.byte	0x4
 954 00fc 40       		.byte	0x40
 955 00fd DB000000 		.4byte	0xdb
 956 0101 04       		.uleb128 0x4
 957 0102 CB010000 		.4byte	.LASF19
 958 0106 05       		.byte	0x5
 959 0107 2F       		.byte	0x2f
 960 0108 BA000000 		.4byte	0xba
 961 010c 08       		.uleb128 0x8
 962 010d 00000000 		.4byte	.LASF21
ARM GAS  /tmp/ccBYd9Lr.s 			page 18


 963 0111 10       		.byte	0x10
 964 0112 06       		.byte	0x6
 965 0113 49       		.byte	0x49
 966 0114 7B010000 		.4byte	0x17b
 967 0118 09       		.uleb128 0x9
 968 0119 7D000000 		.4byte	.LASF23
 969 011d 06       		.byte	0x6
 970 011e 4B       		.byte	0x4b
 971 011f 7B010000 		.4byte	0x17b
 972 0123 02       		.byte	0x2
 973 0124 23       		.byte	0x23
 974 0125 00       		.uleb128 0
 975 0126 09       		.uleb128 0x9
 976 0127 0D020000 		.4byte	.LASF24
 977 012b 06       		.byte	0x6
 978 012c 4E       		.byte	0x4e
 979 012d 9B000000 		.4byte	0x9b
 980 0131 02       		.byte	0x2
 981 0132 23       		.byte	0x23
 982 0133 04       		.uleb128 0x4
 983 0134 09       		.uleb128 0x9
 984 0135 B8000000 		.4byte	.LASF25
 985 0139 06       		.byte	0x6
 986 013a 57       		.byte	0x57
 987 013b C5000000 		.4byte	0xc5
 988 013f 02       		.byte	0x2
 989 0140 23       		.byte	0x23
 990 0141 08       		.uleb128 0x8
 991 0142 0A       		.uleb128 0xa
 992 0143 6C656E00 		.ascii	"len\000"
 993 0147 06       		.byte	0x6
 994 0148 5A       		.byte	0x5a
 995 0149 C5000000 		.4byte	0xc5
 996 014d 02       		.byte	0x2
 997 014e 23       		.byte	0x23
 998 014f 0A       		.uleb128 0xa
 999 0150 09       		.uleb128 0x9
 1000 0151 5C000000 		.4byte	.LASF26
 1001 0155 06       		.byte	0x6
 1002 0156 5D       		.byte	0x5d
 1003 0157 AF000000 		.4byte	0xaf
 1004 015b 02       		.byte	0x2
 1005 015c 23       		.byte	0x23
 1006 015d 0C       		.uleb128 0xc
 1007 015e 09       		.uleb128 0x9
 1008 015f A7020000 		.4byte	.LASF27
 1009 0163 06       		.byte	0x6
 1010 0164 60       		.byte	0x60
 1011 0165 AF000000 		.4byte	0xaf
 1012 0169 02       		.byte	0x2
 1013 016a 23       		.byte	0x23
 1014 016b 0D       		.uleb128 0xd
 1015 016c 0A       		.uleb128 0xa
 1016 016d 72656600 		.ascii	"ref\000"
 1017 0171 06       		.byte	0x6
 1018 0172 67       		.byte	0x67
 1019 0173 C5000000 		.4byte	0xc5
ARM GAS  /tmp/ccBYd9Lr.s 			page 19


 1020 0177 02       		.byte	0x2
 1021 0178 23       		.byte	0x23
 1022 0179 0E       		.uleb128 0xe
 1023 017a 00       		.byte	0
 1024 017b 06       		.uleb128 0x6
 1025 017c 04       		.byte	0x4
 1026 017d 0C010000 		.4byte	0x10c
 1027 0181 06       		.uleb128 0x6
 1028 0182 04       		.byte	0x4
 1029 0183 87010000 		.4byte	0x187
 1030 0187 08       		.uleb128 0x8
 1031 0188 07020000 		.4byte	.LASF28
 1032 018c 30       		.byte	0x30
 1033 018d 07       		.byte	0x7
 1034 018e 88       		.byte	0x88
 1035 018f 57020000 		.4byte	0x257
 1036 0193 09       		.uleb128 0x9
 1037 0194 7D000000 		.4byte	.LASF23
 1038 0198 07       		.byte	0x7
 1039 0199 8A       		.byte	0x8a
 1040 019a 81010000 		.4byte	0x181
 1041 019e 02       		.byte	0x2
 1042 019f 23       		.byte	0x23
 1043 01a0 00       		.uleb128 0
 1044 01a1 09       		.uleb128 0x9
 1045 01a2 15020000 		.4byte	.LASF20
 1046 01a6 07       		.byte	0x7
 1047 01a7 8D       		.byte	0x8d
 1048 01a8 F6000000 		.4byte	0xf6
 1049 01ac 02       		.byte	0x2
 1050 01ad 23       		.byte	0x23
 1051 01ae 04       		.uleb128 0x4
 1052 01af 09       		.uleb128 0x9
 1053 01b0 2C010000 		.4byte	.LASF29
 1054 01b4 07       		.byte	0x7
 1055 01b5 8E       		.byte	0x8e
 1056 01b6 F6000000 		.4byte	0xf6
 1057 01ba 02       		.byte	0x2
 1058 01bb 23       		.byte	0x23
 1059 01bc 08       		.uleb128 0x8
 1060 01bd 0A       		.uleb128 0xa
 1061 01be 677700   		.ascii	"gw\000"
 1062 01c1 07       		.byte	0x7
 1063 01c2 8F       		.byte	0x8f
 1064 01c3 F6000000 		.4byte	0xf6
 1065 01c7 02       		.byte	0x2
 1066 01c8 23       		.byte	0x23
 1067 01c9 0C       		.uleb128 0xc
 1068 01ca 09       		.uleb128 0x9
 1069 01cb 72020000 		.4byte	.LASF30
 1070 01cf 07       		.byte	0x7
 1071 01d0 93       		.byte	0x93
 1072 01d1 57020000 		.4byte	0x257
 1073 01d5 02       		.byte	0x2
 1074 01d6 23       		.byte	0x23
 1075 01d7 10       		.uleb128 0x10
 1076 01d8 09       		.uleb128 0x9
ARM GAS  /tmp/ccBYd9Lr.s 			page 20


 1077 01d9 D1010000 		.4byte	.LASF31
 1078 01dd 07       		.byte	0x7
 1079 01de 97       		.byte	0x97
 1080 01df 7D020000 		.4byte	0x27d
 1081 01e3 02       		.byte	0x2
 1082 01e4 23       		.byte	0x23
 1083 01e5 14       		.uleb128 0x14
 1084 01e6 09       		.uleb128 0x9
 1085 01e7 AD020000 		.4byte	.LASF32
 1086 01eb 07       		.byte	0x7
 1087 01ec 9B       		.byte	0x9b
 1088 01ed AE020000 		.4byte	0x2ae
 1089 01f1 02       		.byte	0x2
 1090 01f2 23       		.byte	0x23
 1091 01f3 18       		.uleb128 0x18
 1092 01f4 09       		.uleb128 0x9
 1093 01f5 C0000000 		.4byte	.LASF33
 1094 01f9 07       		.byte	0x7
 1095 01fa A8       		.byte	0xa8
 1096 01fb 9B000000 		.4byte	0x9b
 1097 01ff 02       		.byte	0x2
 1098 0200 23       		.byte	0x23
 1099 0201 1C       		.uleb128 0x1c
 1100 0202 0A       		.uleb128 0xa
 1101 0203 6D747500 		.ascii	"mtu\000"
 1102 0207 07       		.byte	0x7
 1103 0208 B6       		.byte	0xb6
 1104 0209 C5000000 		.4byte	0xc5
 1105 020d 02       		.byte	0x2
 1106 020e 23       		.byte	0x23
 1107 020f 20       		.uleb128 0x20
 1108 0210 09       		.uleb128 0x9
 1109 0211 21010000 		.4byte	.LASF34
 1110 0215 07       		.byte	0x7
 1111 0216 B8       		.byte	0xb8
 1112 0217 AF000000 		.4byte	0xaf
 1113 021b 02       		.byte	0x2
 1114 021c 23       		.byte	0x23
 1115 021d 22       		.uleb128 0x22
 1116 021e 09       		.uleb128 0x9
 1117 021f 9C000000 		.4byte	.LASF35
 1118 0223 07       		.byte	0x7
 1119 0224 BA       		.byte	0xba
 1120 0225 D4020000 		.4byte	0x2d4
 1121 0229 02       		.byte	0x2
 1122 022a 23       		.byte	0x23
 1123 022b 23       		.uleb128 0x23
 1124 022c 09       		.uleb128 0x9
 1125 022d A7020000 		.4byte	.LASF27
 1126 0231 07       		.byte	0x7
 1127 0232 BC       		.byte	0xbc
 1128 0233 AF000000 		.4byte	0xaf
 1129 0237 02       		.byte	0x2
 1130 0238 23       		.byte	0x23
 1131 0239 29       		.uleb128 0x29
 1132 023a 09       		.uleb128 0x9
 1133 023b 65010000 		.4byte	.LASF36
ARM GAS  /tmp/ccBYd9Lr.s 			page 21


 1134 023f 07       		.byte	0x7
 1135 0240 BE       		.byte	0xbe
 1136 0241 E4020000 		.4byte	0x2e4
 1137 0245 02       		.byte	0x2
 1138 0246 23       		.byte	0x23
 1139 0247 2A       		.uleb128 0x2a
 1140 0248 0A       		.uleb128 0xa
 1141 0249 6E756D00 		.ascii	"num\000"
 1142 024d 07       		.byte	0x7
 1143 024e C0       		.byte	0xc0
 1144 024f AF000000 		.4byte	0xaf
 1145 0253 02       		.byte	0x2
 1146 0254 23       		.byte	0x23
 1147 0255 2C       		.uleb128 0x2c
 1148 0256 00       		.byte	0
 1149 0257 04       		.uleb128 0x4
 1150 0258 2F020000 		.4byte	.LASF37
 1151 025c 07       		.byte	0x7
 1152 025d 6D       		.byte	0x6d
 1153 025e 62020000 		.4byte	0x262
 1154 0262 06       		.uleb128 0x6
 1155 0263 04       		.byte	0x4
 1156 0264 68020000 		.4byte	0x268
 1157 0268 0B       		.uleb128 0xb
 1158 0269 01       		.byte	0x1
 1159 026a 01010000 		.4byte	0x101
 1160 026e 7D020000 		.4byte	0x27d
 1161 0272 0C       		.uleb128 0xc
 1162 0273 7B010000 		.4byte	0x17b
 1163 0277 0C       		.uleb128 0xc
 1164 0278 81010000 		.4byte	0x181
 1165 027c 00       		.byte	0
 1166 027d 04       		.uleb128 0x4
 1167 027e 5B020000 		.4byte	.LASF38
 1168 0282 07       		.byte	0x7
 1169 0283 76       		.byte	0x76
 1170 0284 88020000 		.4byte	0x288
 1171 0288 06       		.uleb128 0x6
 1172 0289 04       		.byte	0x4
 1173 028a 8E020000 		.4byte	0x28e
 1174 028e 0B       		.uleb128 0xb
 1175 028f 01       		.byte	0x1
 1176 0290 01010000 		.4byte	0x101
 1177 0294 A8020000 		.4byte	0x2a8
 1178 0298 0C       		.uleb128 0xc
 1179 0299 81010000 		.4byte	0x181
 1180 029d 0C       		.uleb128 0xc
 1181 029e 7B010000 		.4byte	0x17b
 1182 02a2 0C       		.uleb128 0xc
 1183 02a3 A8020000 		.4byte	0x2a8
 1184 02a7 00       		.byte	0
 1185 02a8 06       		.uleb128 0x6
 1186 02a9 04       		.byte	0x4
 1187 02aa F6000000 		.4byte	0xf6
 1188 02ae 04       		.uleb128 0x4
 1189 02af E7010000 		.4byte	.LASF39
 1190 02b3 07       		.byte	0x7
ARM GAS  /tmp/ccBYd9Lr.s 			page 22


 1191 02b4 7E       		.byte	0x7e
 1192 02b5 B9020000 		.4byte	0x2b9
 1193 02b9 06       		.uleb128 0x6
 1194 02ba 04       		.byte	0x4
 1195 02bb BF020000 		.4byte	0x2bf
 1196 02bf 0B       		.uleb128 0xb
 1197 02c0 01       		.byte	0x1
 1198 02c1 01010000 		.4byte	0x101
 1199 02c5 D4020000 		.4byte	0x2d4
 1200 02c9 0C       		.uleb128 0xc
 1201 02ca 81010000 		.4byte	0x181
 1202 02ce 0C       		.uleb128 0xc
 1203 02cf 7B010000 		.4byte	0x17b
 1204 02d3 00       		.byte	0
 1205 02d4 0D       		.uleb128 0xd
 1206 02d5 AF000000 		.4byte	0xaf
 1207 02d9 E4020000 		.4byte	0x2e4
 1208 02dd 0E       		.uleb128 0xe
 1209 02de 30000000 		.4byte	0x30
 1210 02e2 05       		.byte	0x5
 1211 02e3 00       		.byte	0
 1212 02e4 0D       		.uleb128 0xd
 1213 02e5 A8000000 		.4byte	0xa8
 1214 02e9 F4020000 		.4byte	0x2f4
 1215 02ed 0E       		.uleb128 0xe
 1216 02ee 30000000 		.4byte	0x30
 1217 02f2 01       		.byte	0x1
 1218 02f3 00       		.byte	0
 1219 02f4 0F       		.uleb128 0xf
 1220 02f5 01       		.byte	0x1
 1221 02f6 A3000000 		.4byte	.LASF40
 1222 02fa 01       		.byte	0x1
 1223 02fb 37       		.byte	0x37
 1224 02fc 01       		.byte	0x1
 1225 02fd AF000000 		.4byte	0xaf
 1226 0301 00000000 		.4byte	.LFB7
 1227 0305 7C000000 		.4byte	.LFE7
 1228 0309 00000000 		.4byte	.LLST0
 1229 030d 3C030000 		.4byte	0x33c
 1230 0311 10       		.uleb128 0x10
 1231 0312 78000000 		.4byte	.LASF22
 1232 0316 01       		.byte	0x1
 1233 0317 37       		.byte	0x37
 1234 0318 D0000000 		.4byte	0xd0
 1235 031c 02       		.byte	0x2
 1236 031d 91       		.byte	0x91
 1237 031e 74       		.sleb128 -12
 1238 031f 10       		.uleb128 0x10
 1239 0320 07020000 		.4byte	.LASF28
 1240 0324 01       		.byte	0x1
 1241 0325 37       		.byte	0x37
 1242 0326 3C030000 		.4byte	0x33c
 1243 032a 02       		.byte	0x2
 1244 032b 91       		.byte	0x91
 1245 032c 70       		.sleb128 -16
 1246 032d 11       		.uleb128 0x11
 1247 032e 98020000 		.4byte	.LASF42
ARM GAS  /tmp/ccBYd9Lr.s 			page 23


 1248 0332 01       		.byte	0x1
 1249 0333 39       		.byte	0x39
 1250 0334 F6000000 		.4byte	0xf6
 1251 0338 02       		.byte	0x2
 1252 0339 91       		.byte	0x91
 1253 033a 7C       		.sleb128 -4
 1254 033b 00       		.byte	0
 1255 033c 06       		.uleb128 0x6
 1256 033d 04       		.byte	0x4
 1257 033e 42030000 		.4byte	0x342
 1258 0342 07       		.uleb128 0x7
 1259 0343 87010000 		.4byte	0x187
 1260 0347 0F       		.uleb128 0xf
 1261 0348 01       		.byte	0x1
 1262 0349 C4020000 		.4byte	.LASF41
 1263 034d 01       		.byte	0x1
 1264 034e 5A       		.byte	0x5a
 1265 034f 01       		.byte	0x1
 1266 0350 AF000000 		.4byte	0xaf
 1267 0354 00000000 		.4byte	.LFB8
 1268 0358 5E000000 		.4byte	.LFE8
 1269 035c 20000000 		.4byte	.LLST1
 1270 0360 8F030000 		.4byte	0x38f
 1271 0364 10       		.uleb128 0x10
 1272 0365 2C010000 		.4byte	.LASF29
 1273 0369 01       		.byte	0x1
 1274 036a 5A       		.byte	0x5a
 1275 036b D0000000 		.4byte	0xd0
 1276 036f 02       		.byte	0x2
 1277 0370 91       		.byte	0x91
 1278 0371 6C       		.sleb128 -20
 1279 0372 11       		.uleb128 0x11
 1280 0373 34010000 		.4byte	.LASF43
 1281 0377 01       		.byte	0x1
 1282 0378 5C       		.byte	0x5c
 1283 0379 D0000000 		.4byte	0xd0
 1284 037d 02       		.byte	0x2
 1285 037e 91       		.byte	0x91
 1286 037f 74       		.sleb128 -12
 1287 0380 11       		.uleb128 0x11
 1288 0381 B0010000 		.4byte	.LASF44
 1289 0385 01       		.byte	0x1
 1290 0386 5D       		.byte	0x5d
 1291 0387 D0000000 		.4byte	0xd0
 1292 038b 02       		.byte	0x2
 1293 038c 91       		.byte	0x91
 1294 038d 70       		.sleb128 -16
 1295 038e 00       		.byte	0
 1296 038f 0F       		.uleb128 0xf
 1297 0390 01       		.byte	0x1
 1298 0391 B8020000 		.4byte	.LASF45
 1299 0395 01       		.byte	0x1
 1300 0396 82       		.byte	0x82
 1301 0397 01       		.byte	0x1
 1302 0398 D0000000 		.4byte	0xd0
 1303 039c 00000000 		.4byte	.LFB9
 1304 03a0 24000000 		.4byte	.LFE9
ARM GAS  /tmp/ccBYd9Lr.s 			page 24


 1305 03a4 4C000000 		.4byte	.LLST2
 1306 03a8 C8030000 		.4byte	0x3c8
 1307 03ac 12       		.uleb128 0x12
 1308 03ad 637000   		.ascii	"cp\000"
 1309 03b0 01       		.byte	0x1
 1310 03b1 82       		.byte	0x82
 1311 03b2 9D000000 		.4byte	0x9d
 1312 03b6 02       		.byte	0x2
 1313 03b7 91       		.byte	0x91
 1314 03b8 6C       		.sleb128 -20
 1315 03b9 13       		.uleb128 0x13
 1316 03ba 76616C00 		.ascii	"val\000"
 1317 03be 01       		.byte	0x1
 1318 03bf 84       		.byte	0x84
 1319 03c0 F6000000 		.4byte	0xf6
 1320 03c4 02       		.byte	0x2
 1321 03c5 91       		.byte	0x91
 1322 03c6 74       		.sleb128 -12
 1323 03c7 00       		.byte	0
 1324 03c8 0F       		.uleb128 0xf
 1325 03c9 01       		.byte	0x1
 1326 03ca FB010000 		.4byte	.LASF46
 1327 03ce 01       		.byte	0x1
 1328 03cf 98       		.byte	0x98
 1329 03d0 01       		.byte	0x1
 1330 03d1 29000000 		.4byte	0x29
 1331 03d5 00000000 		.4byte	.LFB10
 1332 03d9 70020000 		.4byte	.LFE10
 1333 03dd 78000000 		.4byte	.LLST3
 1334 03e1 44040000 		.4byte	0x444
 1335 03e5 12       		.uleb128 0x12
 1336 03e6 637000   		.ascii	"cp\000"
 1337 03e9 01       		.byte	0x1
 1338 03ea 98       		.byte	0x98
 1339 03eb 9D000000 		.4byte	0x9d
 1340 03ef 02       		.byte	0x2
 1341 03f0 91       		.byte	0x91
 1342 03f1 54       		.sleb128 -44
 1343 03f2 10       		.uleb128 0x10
 1344 03f3 78000000 		.4byte	.LASF22
 1345 03f7 01       		.byte	0x1
 1346 03f8 98       		.byte	0x98
 1347 03f9 A8020000 		.4byte	0x2a8
 1348 03fd 02       		.byte	0x2
 1349 03fe 91       		.byte	0x91
 1350 03ff 50       		.sleb128 -48
 1351 0400 13       		.uleb128 0x13
 1352 0401 76616C00 		.ascii	"val\000"
 1353 0405 01       		.byte	0x1
 1354 0406 9A       		.byte	0x9a
 1355 0407 D0000000 		.4byte	0xd0
 1356 040b 02       		.byte	0x2
 1357 040c 91       		.byte	0x91
 1358 040d 74       		.sleb128 -12
 1359 040e 11       		.uleb128 0x11
 1360 040f 3E020000 		.4byte	.LASF47
 1361 0413 01       		.byte	0x1
ARM GAS  /tmp/ccBYd9Lr.s 			page 25


 1362 0414 9B       		.byte	0x9b
 1363 0415 AF000000 		.4byte	0xaf
 1364 0419 02       		.byte	0x2
 1365 041a 91       		.byte	0x91
 1366 041b 73       		.sleb128 -13
 1367 041c 13       		.uleb128 0x13
 1368 041d 6300     		.ascii	"c\000"
 1369 041f 01       		.byte	0x1
 1370 0420 9C       		.byte	0x9c
 1371 0421 A8000000 		.4byte	0xa8
 1372 0425 02       		.byte	0x2
 1373 0426 91       		.byte	0x91
 1374 0427 72       		.sleb128 -14
 1375 0428 11       		.uleb128 0x11
 1376 0429 4A000000 		.4byte	.LASF48
 1377 042d 01       		.byte	0x1
 1378 042e 9D       		.byte	0x9d
 1379 042f 44040000 		.4byte	0x444
 1380 0433 02       		.byte	0x2
 1381 0434 91       		.byte	0x91
 1382 0435 5C       		.sleb128 -36
 1383 0436 13       		.uleb128 0x13
 1384 0437 707000   		.ascii	"pp\000"
 1385 043a 01       		.byte	0x1
 1386 043b 9E       		.byte	0x9e
 1387 043c 54040000 		.4byte	0x454
 1388 0440 02       		.byte	0x2
 1389 0441 91       		.byte	0x91
 1390 0442 6C       		.sleb128 -20
 1391 0443 00       		.byte	0
 1392 0444 0D       		.uleb128 0xd
 1393 0445 D0000000 		.4byte	0xd0
 1394 0449 54040000 		.4byte	0x454
 1395 044d 0E       		.uleb128 0xe
 1396 044e 30000000 		.4byte	0x30
 1397 0452 03       		.byte	0x3
 1398 0453 00       		.byte	0
 1399 0454 06       		.uleb128 0x6
 1400 0455 04       		.byte	0x4
 1401 0456 D0000000 		.4byte	0xd0
 1402 045a 14       		.uleb128 0x14
 1403 045b 01       		.byte	0x1
 1404 045c 50000000 		.4byte	.LASF49
 1405 0460 01       		.byte	0x1
 1406 0461 0501     		.2byte	0x105
 1407 0463 01       		.byte	0x1
 1408 0464 9A040000 		.4byte	0x49a
 1409 0468 00000000 		.4byte	.LFB11
 1410 046c 20000000 		.4byte	.LFE11
 1411 0470 A4000000 		.4byte	.LLST4
 1412 0474 9A040000 		.4byte	0x49a
 1413 0478 15       		.uleb128 0x15
 1414 0479 78000000 		.4byte	.LASF22
 1415 047d 01       		.byte	0x1
 1416 047e 0501     		.2byte	0x105
 1417 0480 A0040000 		.4byte	0x4a0
 1418 0484 02       		.byte	0x2
ARM GAS  /tmp/ccBYd9Lr.s 			page 26


 1419 0485 91       		.byte	0x91
 1420 0486 74       		.sleb128 -12
 1421 0487 16       		.uleb128 0x16
 1422 0488 73747200 		.ascii	"str\000"
 1423 048c 01       		.byte	0x1
 1424 048d 0701     		.2byte	0x107
 1425 048f AB040000 		.4byte	0x4ab
 1426 0493 05       		.byte	0x5
 1427 0494 03       		.byte	0x3
 1428 0495 00000000 		.4byte	str.4924
 1429 0499 00       		.byte	0
 1430 049a 06       		.uleb128 0x6
 1431 049b 04       		.byte	0x4
 1432 049c A8000000 		.4byte	0xa8
 1433 04a0 06       		.uleb128 0x6
 1434 04a1 04       		.byte	0x4
 1435 04a2 A6040000 		.4byte	0x4a6
 1436 04a6 07       		.uleb128 0x7
 1437 04a7 F6000000 		.4byte	0xf6
 1438 04ab 0D       		.uleb128 0xd
 1439 04ac A8000000 		.4byte	0xa8
 1440 04b0 BB040000 		.4byte	0x4bb
 1441 04b4 0E       		.uleb128 0xe
 1442 04b5 30000000 		.4byte	0x30
 1443 04b9 0F       		.byte	0xf
 1444 04ba 00       		.byte	0
 1445 04bb 14       		.uleb128 0x14
 1446 04bc 01       		.byte	0x1
 1447 04bd BD010000 		.4byte	.LASF50
 1448 04c1 01       		.byte	0x1
 1449 04c2 1401     		.2byte	0x114
 1450 04c4 01       		.byte	0x1
 1451 04c5 9A040000 		.4byte	0x49a
 1452 04c9 00000000 		.4byte	.LFB12
 1453 04cd 56010000 		.4byte	.LFE12
 1454 04d1 D0000000 		.4byte	.LLST5
 1455 04d5 79050000 		.4byte	0x579
 1456 04d9 15       		.uleb128 0x15
 1457 04da 78000000 		.4byte	.LASF22
 1458 04de 01       		.byte	0x1
 1459 04df 1401     		.2byte	0x114
 1460 04e1 A0040000 		.4byte	0x4a0
 1461 04e5 02       		.byte	0x2
 1462 04e6 91       		.byte	0x91
 1463 04e7 5C       		.sleb128 -36
 1464 04e8 17       		.uleb128 0x17
 1465 04e9 62756600 		.ascii	"buf\000"
 1466 04ed 01       		.byte	0x1
 1467 04ee 1401     		.2byte	0x114
 1468 04f0 9A040000 		.4byte	0x49a
 1469 04f4 02       		.byte	0x2
 1470 04f5 91       		.byte	0x91
 1471 04f6 58       		.sleb128 -40
 1472 04f7 15       		.uleb128 0x15
 1473 04f8 6B020000 		.4byte	.LASF51
 1474 04fc 01       		.byte	0x1
 1475 04fd 1401     		.2byte	0x114
ARM GAS  /tmp/ccBYd9Lr.s 			page 27


 1476 04ff 29000000 		.4byte	0x29
 1477 0503 02       		.byte	0x2
 1478 0504 91       		.byte	0x91
 1479 0505 54       		.sleb128 -44
 1480 0506 18       		.uleb128 0x18
 1481 0507 46010000 		.4byte	.LASF52
 1482 050b 01       		.byte	0x1
 1483 050c 1601     		.2byte	0x116
 1484 050e D0000000 		.4byte	0xd0
 1485 0512 02       		.byte	0x2
 1486 0513 91       		.byte	0x91
 1487 0514 68       		.sleb128 -24
 1488 0515 16       		.uleb128 0x16
 1489 0516 696E7600 		.ascii	"inv\000"
 1490 051a 01       		.byte	0x1
 1491 051b 1701     		.2byte	0x117
 1492 051d 79050000 		.4byte	0x579
 1493 0521 02       		.byte	0x2
 1494 0522 91       		.byte	0x91
 1495 0523 64       		.sleb128 -28
 1496 0524 16       		.uleb128 0x16
 1497 0525 727000   		.ascii	"rp\000"
 1498 0528 01       		.byte	0x1
 1499 0529 1801     		.2byte	0x118
 1500 052b 9A040000 		.4byte	0x49a
 1501 052f 02       		.byte	0x2
 1502 0530 91       		.byte	0x91
 1503 0531 7C       		.sleb128 -4
 1504 0532 16       		.uleb128 0x16
 1505 0533 617000   		.ascii	"ap\000"
 1506 0536 01       		.byte	0x1
 1507 0537 1901     		.2byte	0x119
 1508 0539 89050000 		.4byte	0x589
 1509 053d 02       		.byte	0x2
 1510 053e 91       		.byte	0x91
 1511 053f 78       		.sleb128 -8
 1512 0540 16       		.uleb128 0x16
 1513 0541 72656D00 		.ascii	"rem\000"
 1514 0545 01       		.byte	0x1
 1515 0546 1A01     		.2byte	0x11a
 1516 0548 AF000000 		.4byte	0xaf
 1517 054c 02       		.byte	0x2
 1518 054d 91       		.byte	0x91
 1519 054e 6F       		.sleb128 -17
 1520 054f 16       		.uleb128 0x16
 1521 0550 6E00     		.ascii	"n\000"
 1522 0552 01       		.byte	0x1
 1523 0553 1B01     		.2byte	0x11b
 1524 0555 AF000000 		.4byte	0xaf
 1525 0559 02       		.byte	0x2
 1526 055a 91       		.byte	0x91
 1527 055b 77       		.sleb128 -9
 1528 055c 16       		.uleb128 0x16
 1529 055d 6900     		.ascii	"i\000"
 1530 055f 01       		.byte	0x1
 1531 0560 1C01     		.2byte	0x11c
 1532 0562 AF000000 		.4byte	0xaf
ARM GAS  /tmp/ccBYd9Lr.s 			page 28


 1533 0566 02       		.byte	0x2
 1534 0567 91       		.byte	0x91
 1535 0568 76       		.sleb128 -10
 1536 0569 16       		.uleb128 0x16
 1537 056a 6C656E00 		.ascii	"len\000"
 1538 056e 01       		.byte	0x1
 1539 056f 1D01     		.2byte	0x11d
 1540 0571 29000000 		.4byte	0x29
 1541 0575 02       		.byte	0x2
 1542 0576 91       		.byte	0x91
 1543 0577 70       		.sleb128 -16
 1544 0578 00       		.byte	0
 1545 0579 0D       		.uleb128 0xd
 1546 057a A8000000 		.4byte	0xa8
 1547 057e 89050000 		.4byte	0x589
 1548 0582 0E       		.uleb128 0xe
 1549 0583 30000000 		.4byte	0x30
 1550 0587 02       		.byte	0x2
 1551 0588 00       		.byte	0
 1552 0589 06       		.uleb128 0x6
 1553 058a 04       		.byte	0x4
 1554 058b AF000000 		.4byte	0xaf
 1555 058f 19       		.uleb128 0x19
 1556 0590 6A010000 		.4byte	.LASF53
 1557 0594 01       		.byte	0x1
 1558 0595 2C       		.byte	0x2c
 1559 0596 A6040000 		.4byte	0x4a6
 1560 059a 01       		.byte	0x1
 1561 059b 05       		.byte	0x5
 1562 059c 03       		.byte	0x3
 1563 059d 00000000 		.4byte	ip_addr_any
 1564 05a1 19       		.uleb128 0x19
 1565 05a2 1D020000 		.4byte	.LASF54
 1566 05a6 01       		.byte	0x1
 1567 05a7 2D       		.byte	0x2d
 1568 05a8 A6040000 		.4byte	0x4a6
 1569 05ac 01       		.byte	0x1
 1570 05ad 05       		.byte	0x5
 1571 05ae 03       		.byte	0x3
 1572 05af 00000000 		.4byte	ip_addr_broadcast
 1573 05b3 00       		.byte	0
 1574              		.section	.debug_abbrev,"",%progbits
 1575              	.Ldebug_abbrev0:
 1576 0000 01       		.uleb128 0x1
 1577 0001 11       		.uleb128 0x11
 1578 0002 01       		.byte	0x1
 1579 0003 25       		.uleb128 0x25
 1580 0004 0E       		.uleb128 0xe
 1581 0005 13       		.uleb128 0x13
 1582 0006 0B       		.uleb128 0xb
 1583 0007 03       		.uleb128 0x3
 1584 0008 0E       		.uleb128 0xe
 1585 0009 1B       		.uleb128 0x1b
 1586 000a 0E       		.uleb128 0xe
 1587 000b 11       		.uleb128 0x11
 1588 000c 01       		.uleb128 0x1
 1589 000d 52       		.uleb128 0x52
ARM GAS  /tmp/ccBYd9Lr.s 			page 29


 1590 000e 01       		.uleb128 0x1
 1591 000f 55       		.uleb128 0x55
 1592 0010 06       		.uleb128 0x6
 1593 0011 10       		.uleb128 0x10
 1594 0012 06       		.uleb128 0x6
 1595 0013 00       		.byte	0
 1596 0014 00       		.byte	0
 1597 0015 02       		.uleb128 0x2
 1598 0016 24       		.uleb128 0x24
 1599 0017 00       		.byte	0
 1600 0018 0B       		.uleb128 0xb
 1601 0019 0B       		.uleb128 0xb
 1602 001a 3E       		.uleb128 0x3e
 1603 001b 0B       		.uleb128 0xb
 1604 001c 03       		.uleb128 0x3
 1605 001d 08       		.uleb128 0x8
 1606 001e 00       		.byte	0
 1607 001f 00       		.byte	0
 1608 0020 03       		.uleb128 0x3
 1609 0021 24       		.uleb128 0x24
 1610 0022 00       		.byte	0
 1611 0023 0B       		.uleb128 0xb
 1612 0024 0B       		.uleb128 0xb
 1613 0025 3E       		.uleb128 0x3e
 1614 0026 0B       		.uleb128 0xb
 1615 0027 03       		.uleb128 0x3
 1616 0028 0E       		.uleb128 0xe
 1617 0029 00       		.byte	0
 1618 002a 00       		.byte	0
 1619 002b 04       		.uleb128 0x4
 1620 002c 16       		.uleb128 0x16
 1621 002d 00       		.byte	0
 1622 002e 03       		.uleb128 0x3
 1623 002f 0E       		.uleb128 0xe
 1624 0030 3A       		.uleb128 0x3a
 1625 0031 0B       		.uleb128 0xb
 1626 0032 3B       		.uleb128 0x3b
 1627 0033 0B       		.uleb128 0xb
 1628 0034 49       		.uleb128 0x49
 1629 0035 13       		.uleb128 0x13
 1630 0036 00       		.byte	0
 1631 0037 00       		.byte	0
 1632 0038 05       		.uleb128 0x5
 1633 0039 0F       		.uleb128 0xf
 1634 003a 00       		.byte	0
 1635 003b 0B       		.uleb128 0xb
 1636 003c 0B       		.uleb128 0xb
 1637 003d 00       		.byte	0
 1638 003e 00       		.byte	0
 1639 003f 06       		.uleb128 0x6
 1640 0040 0F       		.uleb128 0xf
 1641 0041 00       		.byte	0
 1642 0042 0B       		.uleb128 0xb
 1643 0043 0B       		.uleb128 0xb
 1644 0044 49       		.uleb128 0x49
 1645 0045 13       		.uleb128 0x13
 1646 0046 00       		.byte	0
ARM GAS  /tmp/ccBYd9Lr.s 			page 30


 1647 0047 00       		.byte	0
 1648 0048 07       		.uleb128 0x7
 1649 0049 26       		.uleb128 0x26
 1650 004a 00       		.byte	0
 1651 004b 49       		.uleb128 0x49
 1652 004c 13       		.uleb128 0x13
 1653 004d 00       		.byte	0
 1654 004e 00       		.byte	0
 1655 004f 08       		.uleb128 0x8
 1656 0050 13       		.uleb128 0x13
 1657 0051 01       		.byte	0x1
 1658 0052 03       		.uleb128 0x3
 1659 0053 0E       		.uleb128 0xe
 1660 0054 0B       		.uleb128 0xb
 1661 0055 0B       		.uleb128 0xb
 1662 0056 3A       		.uleb128 0x3a
 1663 0057 0B       		.uleb128 0xb
 1664 0058 3B       		.uleb128 0x3b
 1665 0059 0B       		.uleb128 0xb
 1666 005a 01       		.uleb128 0x1
 1667 005b 13       		.uleb128 0x13
 1668 005c 00       		.byte	0
 1669 005d 00       		.byte	0
 1670 005e 09       		.uleb128 0x9
 1671 005f 0D       		.uleb128 0xd
 1672 0060 00       		.byte	0
 1673 0061 03       		.uleb128 0x3
 1674 0062 0E       		.uleb128 0xe
 1675 0063 3A       		.uleb128 0x3a
 1676 0064 0B       		.uleb128 0xb
 1677 0065 3B       		.uleb128 0x3b
 1678 0066 0B       		.uleb128 0xb
 1679 0067 49       		.uleb128 0x49
 1680 0068 13       		.uleb128 0x13
 1681 0069 38       		.uleb128 0x38
 1682 006a 0A       		.uleb128 0xa
 1683 006b 00       		.byte	0
 1684 006c 00       		.byte	0
 1685 006d 0A       		.uleb128 0xa
 1686 006e 0D       		.uleb128 0xd
 1687 006f 00       		.byte	0
 1688 0070 03       		.uleb128 0x3
 1689 0071 08       		.uleb128 0x8
 1690 0072 3A       		.uleb128 0x3a
 1691 0073 0B       		.uleb128 0xb
 1692 0074 3B       		.uleb128 0x3b
 1693 0075 0B       		.uleb128 0xb
 1694 0076 49       		.uleb128 0x49
 1695 0077 13       		.uleb128 0x13
 1696 0078 38       		.uleb128 0x38
 1697 0079 0A       		.uleb128 0xa
 1698 007a 00       		.byte	0
 1699 007b 00       		.byte	0
 1700 007c 0B       		.uleb128 0xb
 1701 007d 15       		.uleb128 0x15
 1702 007e 01       		.byte	0x1
 1703 007f 27       		.uleb128 0x27
ARM GAS  /tmp/ccBYd9Lr.s 			page 31


 1704 0080 0C       		.uleb128 0xc
 1705 0081 49       		.uleb128 0x49
 1706 0082 13       		.uleb128 0x13
 1707 0083 01       		.uleb128 0x1
 1708 0084 13       		.uleb128 0x13
 1709 0085 00       		.byte	0
 1710 0086 00       		.byte	0
 1711 0087 0C       		.uleb128 0xc
 1712 0088 05       		.uleb128 0x5
 1713 0089 00       		.byte	0
 1714 008a 49       		.uleb128 0x49
 1715 008b 13       		.uleb128 0x13
 1716 008c 00       		.byte	0
 1717 008d 00       		.byte	0
 1718 008e 0D       		.uleb128 0xd
 1719 008f 01       		.uleb128 0x1
 1720 0090 01       		.byte	0x1
 1721 0091 49       		.uleb128 0x49
 1722 0092 13       		.uleb128 0x13
 1723 0093 01       		.uleb128 0x1
 1724 0094 13       		.uleb128 0x13
 1725 0095 00       		.byte	0
 1726 0096 00       		.byte	0
 1727 0097 0E       		.uleb128 0xe
 1728 0098 21       		.uleb128 0x21
 1729 0099 00       		.byte	0
 1730 009a 49       		.uleb128 0x49
 1731 009b 13       		.uleb128 0x13
 1732 009c 2F       		.uleb128 0x2f
 1733 009d 0B       		.uleb128 0xb
 1734 009e 00       		.byte	0
 1735 009f 00       		.byte	0
 1736 00a0 0F       		.uleb128 0xf
 1737 00a1 2E       		.uleb128 0x2e
 1738 00a2 01       		.byte	0x1
 1739 00a3 3F       		.uleb128 0x3f
 1740 00a4 0C       		.uleb128 0xc
 1741 00a5 03       		.uleb128 0x3
 1742 00a6 0E       		.uleb128 0xe
 1743 00a7 3A       		.uleb128 0x3a
 1744 00a8 0B       		.uleb128 0xb
 1745 00a9 3B       		.uleb128 0x3b
 1746 00aa 0B       		.uleb128 0xb
 1747 00ab 27       		.uleb128 0x27
 1748 00ac 0C       		.uleb128 0xc
 1749 00ad 49       		.uleb128 0x49
 1750 00ae 13       		.uleb128 0x13
 1751 00af 11       		.uleb128 0x11
 1752 00b0 01       		.uleb128 0x1
 1753 00b1 12       		.uleb128 0x12
 1754 00b2 01       		.uleb128 0x1
 1755 00b3 40       		.uleb128 0x40
 1756 00b4 06       		.uleb128 0x6
 1757 00b5 01       		.uleb128 0x1
 1758 00b6 13       		.uleb128 0x13
 1759 00b7 00       		.byte	0
 1760 00b8 00       		.byte	0
ARM GAS  /tmp/ccBYd9Lr.s 			page 32


 1761 00b9 10       		.uleb128 0x10
 1762 00ba 05       		.uleb128 0x5
 1763 00bb 00       		.byte	0
 1764 00bc 03       		.uleb128 0x3
 1765 00bd 0E       		.uleb128 0xe
 1766 00be 3A       		.uleb128 0x3a
 1767 00bf 0B       		.uleb128 0xb
 1768 00c0 3B       		.uleb128 0x3b
 1769 00c1 0B       		.uleb128 0xb
 1770 00c2 49       		.uleb128 0x49
 1771 00c3 13       		.uleb128 0x13
 1772 00c4 02       		.uleb128 0x2
 1773 00c5 0A       		.uleb128 0xa
 1774 00c6 00       		.byte	0
 1775 00c7 00       		.byte	0
 1776 00c8 11       		.uleb128 0x11
 1777 00c9 34       		.uleb128 0x34
 1778 00ca 00       		.byte	0
 1779 00cb 03       		.uleb128 0x3
 1780 00cc 0E       		.uleb128 0xe
 1781 00cd 3A       		.uleb128 0x3a
 1782 00ce 0B       		.uleb128 0xb
 1783 00cf 3B       		.uleb128 0x3b
 1784 00d0 0B       		.uleb128 0xb
 1785 00d1 49       		.uleb128 0x49
 1786 00d2 13       		.uleb128 0x13
 1787 00d3 02       		.uleb128 0x2
 1788 00d4 0A       		.uleb128 0xa
 1789 00d5 00       		.byte	0
 1790 00d6 00       		.byte	0
 1791 00d7 12       		.uleb128 0x12
 1792 00d8 05       		.uleb128 0x5
 1793 00d9 00       		.byte	0
 1794 00da 03       		.uleb128 0x3
 1795 00db 08       		.uleb128 0x8
 1796 00dc 3A       		.uleb128 0x3a
 1797 00dd 0B       		.uleb128 0xb
 1798 00de 3B       		.uleb128 0x3b
 1799 00df 0B       		.uleb128 0xb
 1800 00e0 49       		.uleb128 0x49
 1801 00e1 13       		.uleb128 0x13
 1802 00e2 02       		.uleb128 0x2
 1803 00e3 0A       		.uleb128 0xa
 1804 00e4 00       		.byte	0
 1805 00e5 00       		.byte	0
 1806 00e6 13       		.uleb128 0x13
 1807 00e7 34       		.uleb128 0x34
 1808 00e8 00       		.byte	0
 1809 00e9 03       		.uleb128 0x3
 1810 00ea 08       		.uleb128 0x8
 1811 00eb 3A       		.uleb128 0x3a
 1812 00ec 0B       		.uleb128 0xb
 1813 00ed 3B       		.uleb128 0x3b
 1814 00ee 0B       		.uleb128 0xb
 1815 00ef 49       		.uleb128 0x49
 1816 00f0 13       		.uleb128 0x13
 1817 00f1 02       		.uleb128 0x2
ARM GAS  /tmp/ccBYd9Lr.s 			page 33


 1818 00f2 0A       		.uleb128 0xa
 1819 00f3 00       		.byte	0
 1820 00f4 00       		.byte	0
 1821 00f5 14       		.uleb128 0x14
 1822 00f6 2E       		.uleb128 0x2e
 1823 00f7 01       		.byte	0x1
 1824 00f8 3F       		.uleb128 0x3f
 1825 00f9 0C       		.uleb128 0xc
 1826 00fa 03       		.uleb128 0x3
 1827 00fb 0E       		.uleb128 0xe
 1828 00fc 3A       		.uleb128 0x3a
 1829 00fd 0B       		.uleb128 0xb
 1830 00fe 3B       		.uleb128 0x3b
 1831 00ff 05       		.uleb128 0x5
 1832 0100 27       		.uleb128 0x27
 1833 0101 0C       		.uleb128 0xc
 1834 0102 49       		.uleb128 0x49
 1835 0103 13       		.uleb128 0x13
 1836 0104 11       		.uleb128 0x11
 1837 0105 01       		.uleb128 0x1
 1838 0106 12       		.uleb128 0x12
 1839 0107 01       		.uleb128 0x1
 1840 0108 40       		.uleb128 0x40
 1841 0109 06       		.uleb128 0x6
 1842 010a 01       		.uleb128 0x1
 1843 010b 13       		.uleb128 0x13
 1844 010c 00       		.byte	0
 1845 010d 00       		.byte	0
 1846 010e 15       		.uleb128 0x15
 1847 010f 05       		.uleb128 0x5
 1848 0110 00       		.byte	0
 1849 0111 03       		.uleb128 0x3
 1850 0112 0E       		.uleb128 0xe
 1851 0113 3A       		.uleb128 0x3a
 1852 0114 0B       		.uleb128 0xb
 1853 0115 3B       		.uleb128 0x3b
 1854 0116 05       		.uleb128 0x5
 1855 0117 49       		.uleb128 0x49
 1856 0118 13       		.uleb128 0x13
 1857 0119 02       		.uleb128 0x2
 1858 011a 0A       		.uleb128 0xa
 1859 011b 00       		.byte	0
 1860 011c 00       		.byte	0
 1861 011d 16       		.uleb128 0x16
 1862 011e 34       		.uleb128 0x34
 1863 011f 00       		.byte	0
 1864 0120 03       		.uleb128 0x3
 1865 0121 08       		.uleb128 0x8
 1866 0122 3A       		.uleb128 0x3a
 1867 0123 0B       		.uleb128 0xb
 1868 0124 3B       		.uleb128 0x3b
 1869 0125 05       		.uleb128 0x5
 1870 0126 49       		.uleb128 0x49
 1871 0127 13       		.uleb128 0x13
 1872 0128 02       		.uleb128 0x2
 1873 0129 0A       		.uleb128 0xa
 1874 012a 00       		.byte	0
ARM GAS  /tmp/ccBYd9Lr.s 			page 34


 1875 012b 00       		.byte	0
 1876 012c 17       		.uleb128 0x17
 1877 012d 05       		.uleb128 0x5
 1878 012e 00       		.byte	0
 1879 012f 03       		.uleb128 0x3
 1880 0130 08       		.uleb128 0x8
 1881 0131 3A       		.uleb128 0x3a
 1882 0132 0B       		.uleb128 0xb
 1883 0133 3B       		.uleb128 0x3b
 1884 0134 05       		.uleb128 0x5
 1885 0135 49       		.uleb128 0x49
 1886 0136 13       		.uleb128 0x13
 1887 0137 02       		.uleb128 0x2
 1888 0138 0A       		.uleb128 0xa
 1889 0139 00       		.byte	0
 1890 013a 00       		.byte	0
 1891 013b 18       		.uleb128 0x18
 1892 013c 34       		.uleb128 0x34
 1893 013d 00       		.byte	0
 1894 013e 03       		.uleb128 0x3
 1895 013f 0E       		.uleb128 0xe
 1896 0140 3A       		.uleb128 0x3a
 1897 0141 0B       		.uleb128 0xb
 1898 0142 3B       		.uleb128 0x3b
 1899 0143 05       		.uleb128 0x5
 1900 0144 49       		.uleb128 0x49
 1901 0145 13       		.uleb128 0x13
 1902 0146 02       		.uleb128 0x2
 1903 0147 0A       		.uleb128 0xa
 1904 0148 00       		.byte	0
 1905 0149 00       		.byte	0
 1906 014a 19       		.uleb128 0x19
 1907 014b 34       		.uleb128 0x34
 1908 014c 00       		.byte	0
 1909 014d 03       		.uleb128 0x3
 1910 014e 0E       		.uleb128 0xe
 1911 014f 3A       		.uleb128 0x3a
 1912 0150 0B       		.uleb128 0xb
 1913 0151 3B       		.uleb128 0x3b
 1914 0152 0B       		.uleb128 0xb
 1915 0153 49       		.uleb128 0x49
 1916 0154 13       		.uleb128 0x13
 1917 0155 3F       		.uleb128 0x3f
 1918 0156 0C       		.uleb128 0xc
 1919 0157 02       		.uleb128 0x2
 1920 0158 0A       		.uleb128 0xa
 1921 0159 00       		.byte	0
 1922 015a 00       		.byte	0
 1923 015b 00       		.byte	0
 1924              		.section	.debug_loc,"",%progbits
 1925              	.Ldebug_loc0:
 1926              	.LLST0:
 1927 0000 00000000 		.4byte	.LFB7
 1928 0004 02000000 		.4byte	.LCFI0
 1929 0008 0200     		.2byte	0x2
 1930 000a 7D       		.byte	0x7d
 1931 000b 00       		.sleb128 0
ARM GAS  /tmp/ccBYd9Lr.s 			page 35


 1932 000c 02000000 		.4byte	.LCFI0
 1933 0010 7C000000 		.4byte	.LFE7
 1934 0014 0200     		.2byte	0x2
 1935 0016 7D       		.byte	0x7d
 1936 0017 10       		.sleb128 16
 1937 0018 00000000 		.4byte	0
 1938 001c 00000000 		.4byte	0
 1939              	.LLST1:
 1940 0020 00000000 		.4byte	.LFB8
 1941 0024 02000000 		.4byte	.LCFI1
 1942 0028 0200     		.2byte	0x2
 1943 002a 7D       		.byte	0x7d
 1944 002b 00       		.sleb128 0
 1945 002c 02000000 		.4byte	.LCFI1
 1946 0030 04000000 		.4byte	.LCFI2
 1947 0034 0200     		.2byte	0x2
 1948 0036 7D       		.byte	0x7d
 1949 0037 04       		.sleb128 4
 1950 0038 04000000 		.4byte	.LCFI2
 1951 003c 5E000000 		.4byte	.LFE8
 1952 0040 0200     		.2byte	0x2
 1953 0042 7D       		.byte	0x7d
 1954 0043 18       		.sleb128 24
 1955 0044 00000000 		.4byte	0
 1956 0048 00000000 		.4byte	0
 1957              	.LLST2:
 1958 004c 00000000 		.4byte	.LFB9
 1959 0050 02000000 		.4byte	.LCFI3
 1960 0054 0200     		.2byte	0x2
 1961 0056 7D       		.byte	0x7d
 1962 0057 00       		.sleb128 0
 1963 0058 02000000 		.4byte	.LCFI3
 1964 005c 04000000 		.4byte	.LCFI4
 1965 0060 0200     		.2byte	0x2
 1966 0062 7D       		.byte	0x7d
 1967 0063 04       		.sleb128 4
 1968 0064 04000000 		.4byte	.LCFI4
 1969 0068 24000000 		.4byte	.LFE9
 1970 006c 0200     		.2byte	0x2
 1971 006e 7D       		.byte	0x7d
 1972 006f 18       		.sleb128 24
 1973 0070 00000000 		.4byte	0
 1974 0074 00000000 		.4byte	0
 1975              	.LLST3:
 1976 0078 00000000 		.4byte	.LFB10
 1977 007c 02000000 		.4byte	.LCFI5
 1978 0080 0200     		.2byte	0x2
 1979 0082 7D       		.byte	0x7d
 1980 0083 00       		.sleb128 0
 1981 0084 02000000 		.4byte	.LCFI5
 1982 0088 04000000 		.4byte	.LCFI6
 1983 008c 0200     		.2byte	0x2
 1984 008e 7D       		.byte	0x7d
 1985 008f 04       		.sleb128 4
 1986 0090 04000000 		.4byte	.LCFI6
 1987 0094 70020000 		.4byte	.LFE10
 1988 0098 0200     		.2byte	0x2
ARM GAS  /tmp/ccBYd9Lr.s 			page 36


 1989 009a 7D       		.byte	0x7d
 1990 009b 30       		.sleb128 48
 1991 009c 00000000 		.4byte	0
 1992 00a0 00000000 		.4byte	0
 1993              	.LLST4:
 1994 00a4 00000000 		.4byte	.LFB11
 1995 00a8 02000000 		.4byte	.LCFI7
 1996 00ac 0200     		.2byte	0x2
 1997 00ae 7D       		.byte	0x7d
 1998 00af 00       		.sleb128 0
 1999 00b0 02000000 		.4byte	.LCFI7
 2000 00b4 04000000 		.4byte	.LCFI8
 2001 00b8 0200     		.2byte	0x2
 2002 00ba 7D       		.byte	0x7d
 2003 00bb 04       		.sleb128 4
 2004 00bc 04000000 		.4byte	.LCFI8
 2005 00c0 20000000 		.4byte	.LFE11
 2006 00c4 0200     		.2byte	0x2
 2007 00c6 7D       		.byte	0x7d
 2008 00c7 10       		.sleb128 16
 2009 00c8 00000000 		.4byte	0
 2010 00cc 00000000 		.4byte	0
 2011              	.LLST5:
 2012 00d0 00000000 		.4byte	.LFB12
 2013 00d4 02000000 		.4byte	.LCFI9
 2014 00d8 0200     		.2byte	0x2
 2015 00da 7D       		.byte	0x7d
 2016 00db 00       		.sleb128 0
 2017 00dc 02000000 		.4byte	.LCFI9
 2018 00e0 56010000 		.4byte	.LFE12
 2019 00e4 0200     		.2byte	0x2
 2020 00e6 7D       		.byte	0x7d
 2021 00e7 30       		.sleb128 48
 2022 00e8 00000000 		.4byte	0
 2023 00ec 00000000 		.4byte	0
 2024              		.section	.debug_aranges,"",%progbits
 2025 0000 44000000 		.4byte	0x44
 2026 0004 0200     		.2byte	0x2
 2027 0006 00000000 		.4byte	.Ldebug_info0
 2028 000a 04       		.byte	0x4
 2029 000b 00       		.byte	0
 2030 000c 0000     		.2byte	0
 2031 000e 0000     		.2byte	0
 2032 0010 00000000 		.4byte	.LFB7
 2033 0014 7C000000 		.4byte	.LFE7-.LFB7
 2034 0018 00000000 		.4byte	.LFB8
 2035 001c 5E000000 		.4byte	.LFE8-.LFB8
 2036 0020 00000000 		.4byte	.LFB9
 2037 0024 24000000 		.4byte	.LFE9-.LFB9
 2038 0028 00000000 		.4byte	.LFB10
 2039 002c 70020000 		.4byte	.LFE10-.LFB10
 2040 0030 00000000 		.4byte	.LFB11
 2041 0034 20000000 		.4byte	.LFE11-.LFB11
 2042 0038 00000000 		.4byte	.LFB12
 2043 003c 56010000 		.4byte	.LFE12-.LFB12
 2044 0040 00000000 		.4byte	0
 2045 0044 00000000 		.4byte	0
ARM GAS  /tmp/ccBYd9Lr.s 			page 37


 2046              		.section	.debug_ranges,"",%progbits
 2047              	.Ldebug_ranges0:
 2048 0000 00000000 		.4byte	.LFB7
 2049 0004 7C000000 		.4byte	.LFE7
 2050 0008 00000000 		.4byte	.LFB8
 2051 000c 5E000000 		.4byte	.LFE8
 2052 0010 00000000 		.4byte	.LFB9
 2053 0014 24000000 		.4byte	.LFE9
 2054 0018 00000000 		.4byte	.LFB10
 2055 001c 70020000 		.4byte	.LFE10
 2056 0020 00000000 		.4byte	.LFB11
 2057 0024 20000000 		.4byte	.LFE11
 2058 0028 00000000 		.4byte	.LFB12
 2059 002c 56010000 		.4byte	.LFE12
 2060 0030 00000000 		.4byte	0
 2061 0034 00000000 		.4byte	0
 2062              		.section	.debug_line,"",%progbits
 2063              	.Ldebug_line0:
 2064 0000 DA020000 		.section	.debug_str,"MS",%progbits,1
 2064      02006A01 
 2064      00000201 
 2064      FB0E0D00 
 2064      01010101 
 2065              	.LASF21:
 2066 0000 70627566 		.ascii	"pbuf\000"
 2066      00
 2067              	.LASF57:
 2068 0005 2F686F6D 		.ascii	"/home/texzk/ChibiStudio/chibios/demos/ARMCM3-STM32F"
 2068      652F7465 
 2068      787A6B2F 
 2068      43686962 
 2068      69537475 
 2069 0038 3230372D 		.ascii	"207-STM3220G-LWIP\000"
 2069      53544D33 
 2069      32323047 
 2069      2D4C5749 
 2069      5000
 2070              	.LASF48:
 2071 004a 70617274 		.ascii	"parts\000"
 2071      7300
 2072              	.LASF49:
 2073 0050 69706164 		.ascii	"ipaddr_ntoa\000"
 2073      64725F6E 
 2073      746F6100 
 2074              	.LASF26:
 2075 005c 74797065 		.ascii	"type\000"
 2075      00
 2076              	.LASF12:
 2077 0061 6C6F6E67 		.ascii	"long long unsigned int\000"
 2077      206C6F6E 
 2077      6720756E 
 2077      7369676E 
 2077      65642069 
 2078              	.LASF22:
 2079 0078 61646472 		.ascii	"addr\000"
 2079      00
 2080              	.LASF23:
ARM GAS  /tmp/ccBYd9Lr.s 			page 38


 2081 007d 6E657874 		.ascii	"next\000"
 2081      00
 2082              	.LASF11:
 2083 0082 6C6F6E67 		.ascii	"long long int\000"
 2083      206C6F6E 
 2083      6720696E 
 2083      7400
 2084              	.LASF1:
 2085 0090 7369676E 		.ascii	"signed char\000"
 2085      65642063 
 2085      68617200 
 2086              	.LASF35:
 2087 009c 68776164 		.ascii	"hwaddr\000"
 2087      647200
 2088              	.LASF40:
 2089 00a3 6970345F 		.ascii	"ip4_addr_isbroadcast\000"
 2089      61646472 
 2089      5F697362 
 2089      726F6164 
 2089      63617374 
 2090              	.LASF25:
 2091 00b8 746F745F 		.ascii	"tot_len\000"
 2091      6C656E00 
 2092              	.LASF33:
 2093 00c0 73746174 		.ascii	"state\000"
 2093      6500
 2094              	.LASF8:
 2095 00c6 6C6F6E67 		.ascii	"long int\000"
 2095      20696E74 
 2095      00
 2096              	.LASF55:
 2097 00cf 474E5520 		.ascii	"GNU C 4.6.2 20120613 (release) [ARM/embedded-4_6-br"
 2097      4320342E 
 2097      362E3220 
 2097      32303132 
 2097      30363133 
 2098 0102 616E6368 		.ascii	"anch revision 188521]\000"
 2098      20726576 
 2098      6973696F 
 2098      6E203138 
 2098      38353231 
 2099              	.LASF6:
 2100 0118 75696E74 		.ascii	"uint16_t\000"
 2100      31365F74 
 2100      00
 2101              	.LASF34:
 2102 0121 68776164 		.ascii	"hwaddr_len\000"
 2102      64725F6C 
 2102      656E00
 2103              	.LASF29:
 2104 012c 6E65746D 		.ascii	"netmask\000"
 2104      61736B00 
 2105              	.LASF43:
 2106 0134 6D61736B 		.ascii	"mask\000"
 2106      00
 2107              	.LASF0:
 2108 0139 756E7369 		.ascii	"unsigned int\000"
ARM GAS  /tmp/ccBYd9Lr.s 			page 39


 2108      676E6564 
 2108      20696E74 
 2108      00
 2109              	.LASF52:
 2110 0146 735F6164 		.ascii	"s_addr\000"
 2110      647200
 2111              	.LASF10:
 2112 014d 6C6F6E67 		.ascii	"long unsigned int\000"
 2112      20756E73 
 2112      69676E65 
 2112      6420696E 
 2112      7400
 2113              	.LASF17:
 2114 015f 7533325F 		.ascii	"u32_t\000"
 2114      7400
 2115              	.LASF36:
 2116 0165 6E616D65 		.ascii	"name\000"
 2116      00
 2117              	.LASF53:
 2118 016a 69705F61 		.ascii	"ip_addr_any\000"
 2118      6464725F 
 2118      616E7900 
 2119              	.LASF7:
 2120 0176 73686F72 		.ascii	"short unsigned int\000"
 2120      7420756E 
 2120      7369676E 
 2120      65642069 
 2120      6E7400
 2121              	.LASF56:
 2122 0189 2E2E2F2E 		.ascii	"../../ext/lwip/src/core/ipv4/ip_addr.c\000"
 2122      2E2F6578 
 2122      742F6C77 
 2122      69702F73 
 2122      72632F63 
 2123              	.LASF44:
 2124 01b0 6E6D5F68 		.ascii	"nm_hostorder\000"
 2124      6F73746F 
 2124      72646572 
 2124      00
 2125              	.LASF50:
 2126 01bd 69706164 		.ascii	"ipaddr_ntoa_r\000"
 2126      64725F6E 
 2126      746F615F 
 2126      7200
 2127              	.LASF19:
 2128 01cb 6572725F 		.ascii	"err_t\000"
 2128      7400
 2129              	.LASF31:
 2130 01d1 6F757470 		.ascii	"output\000"
 2130      757400
 2131              	.LASF18:
 2132 01d8 69705F61 		.ascii	"ip_addr_t\000"
 2132      6464725F 
 2132      7400
 2133              	.LASF14:
 2134 01e2 75385F74 		.ascii	"u8_t\000"
 2134      00
ARM GAS  /tmp/ccBYd9Lr.s 			page 40


 2135              	.LASF39:
 2136 01e7 6E657469 		.ascii	"netif_linkoutput_fn\000"
 2136      665F6C69 
 2136      6E6B6F75 
 2136      74707574 
 2136      5F666E00 
 2137              	.LASF46:
 2138 01fb 69706164 		.ascii	"ipaddr_aton\000"
 2138      64725F61 
 2138      746F6E00 
 2139              	.LASF28:
 2140 0207 6E657469 		.ascii	"netif\000"
 2140      6600
 2141              	.LASF24:
 2142 020d 7061796C 		.ascii	"payload\000"
 2142      6F616400 
 2143              	.LASF20:
 2144 0215 69705F61 		.ascii	"ip_addr\000"
 2144      64647200 
 2145              	.LASF54:
 2146 021d 69705F61 		.ascii	"ip_addr_broadcast\000"
 2146      6464725F 
 2146      62726F61 
 2146      64636173 
 2146      7400
 2147              	.LASF37:
 2148 022f 6E657469 		.ascii	"netif_input_fn\000"
 2148      665F696E 
 2148      7075745F 
 2148      666E00
 2149              	.LASF47:
 2150 023e 62617365 		.ascii	"base\000"
 2150      00
 2151              	.LASF4:
 2152 0243 756E7369 		.ascii	"unsigned char\000"
 2152      676E6564 
 2152      20636861 
 2152      7200
 2153              	.LASF5:
 2154 0251 73686F72 		.ascii	"short int\000"
 2154      7420696E 
 2154      7400
 2155              	.LASF38:
 2156 025b 6E657469 		.ascii	"netif_output_fn\000"
 2156      665F6F75 
 2156      74707574 
 2156      5F666E00 
 2157              	.LASF51:
 2158 026b 6275666C 		.ascii	"buflen\000"
 2158      656E00
 2159              	.LASF30:
 2160 0272 696E7075 		.ascii	"input\000"
 2160      7400
 2161              	.LASF15:
 2162 0278 73385F74 		.ascii	"s8_t\000"
 2162      00
 2163              	.LASF9:
ARM GAS  /tmp/ccBYd9Lr.s 			page 41


 2164 027d 75696E74 		.ascii	"uint32_t\000"
 2164      33325F74 
 2164      00
 2165              	.LASF13:
 2166 0286 63686172 		.ascii	"char\000"
 2166      00
 2167              	.LASF2:
 2168 028b 696E7438 		.ascii	"int8_t\000"
 2168      5F7400
 2169              	.LASF16:
 2170 0292 7531365F 		.ascii	"u16_t\000"
 2170      7400
 2171              	.LASF42:
 2172 0298 69706164 		.ascii	"ipaddr\000"
 2172      647200
 2173              	.LASF3:
 2174 029f 75696E74 		.ascii	"uint8_t\000"
 2174      385F7400 
 2175              	.LASF27:
 2176 02a7 666C6167 		.ascii	"flags\000"
 2176      7300
 2177              	.LASF32:
 2178 02ad 6C696E6B 		.ascii	"linkoutput\000"
 2178      6F757470 
 2178      757400
 2179              	.LASF45:
 2180 02b8 69706164 		.ascii	"ipaddr_addr\000"
 2180      64725F61 
 2180      64647200 
 2181              	.LASF41:
 2182 02c4 6970345F 		.ascii	"ip4_addr_netmask_valid\000"
 2182      61646472 
 2182      5F6E6574 
 2182      6D61736B 
 2182      5F76616C 
 2183              		.ident	"GCC: (GNU Tools for ARM Embedded Processors) 4.6.2 20120613 (release) [ARM/embedded-4_6-br
ARM GAS  /tmp/ccBYd9Lr.s 			page 42


DEFINED SYMBOLS
                            *ABS*:00000000 ip_addr.c
     /tmp/ccBYd9Lr.s:23     .rodata.ip_addr_any:00000000 ip_addr_any
     /tmp/ccBYd9Lr.s:20     .rodata.ip_addr_any:00000000 $d
     /tmp/ccBYd9Lr.s:30     .rodata.ip_addr_broadcast:00000000 ip_addr_broadcast
     /tmp/ccBYd9Lr.s:27     .rodata.ip_addr_broadcast:00000000 $d
     /tmp/ccBYd9Lr.s:33     .text.ip4_addr_isbroadcast:00000000 $t
     /tmp/ccBYd9Lr.s:39     .text.ip4_addr_isbroadcast:00000000 ip4_addr_isbroadcast
     /tmp/ccBYd9Lr.s:126    .text.ip4_addr_netmask_valid:00000000 $t
     /tmp/ccBYd9Lr.s:132    .text.ip4_addr_netmask_valid:00000000 ip4_addr_netmask_valid
     /tmp/ccBYd9Lr.s:211    .text.ipaddr_addr:00000000 $t
     /tmp/ccBYd9Lr.s:217    .text.ipaddr_addr:00000000 ipaddr_addr
     /tmp/ccBYd9Lr.s:260    .text.ipaddr_aton:00000000 ipaddr_aton
     /tmp/ccBYd9Lr.s:254    .text.ipaddr_aton:00000000 $t
     /tmp/ccBYd9Lr.s:502    .text.ipaddr_aton:000001c4 $d
     /tmp/ccBYd9Lr.s:509    .text.ipaddr_aton:000001d8 $t
     /tmp/ccBYd9Lr.s:604    .text.ipaddr_ntoa:00000000 $t
     /tmp/ccBYd9Lr.s:610    .text.ipaddr_ntoa:00000000 ipaddr_ntoa
     /tmp/ccBYd9Lr.s:820    .bss.str.4924:00000000 str.4924
     /tmp/ccBYd9Lr.s:645    .text.ipaddr_ntoa_r:00000000 ipaddr_ntoa_r
     /tmp/ccBYd9Lr.s:639    .text.ipaddr_ntoa_r:00000000 $t
     /tmp/ccBYd9Lr.s:817    .bss.str.4924:00000000 $d
                     .debug_frame:00000010 $d

UNDEFINED SYMBOLS
lwip_htonl
port_halt
