ARM GAS  /tmp/ccRYQxIv.s 			page 1


   1              		.syntax unified
   2              		.cpu cortex-m3
   3              		.fpu softvfp
   4              		.eabi_attribute 20, 1
   5              		.eabi_attribute 21, 1
   6              		.eabi_attribute 23, 3
   7              		.eabi_attribute 24, 1
   8              		.eabi_attribute 25, 1
   9              		.eabi_attribute 26, 1
  10              		.eabi_attribute 30, 6
  11              		.eabi_attribute 34, 1
  12              		.eabi_attribute 18, 4
  13              		.thumb
  14              		.file	"ip_frag.c"
  15              		.text
  16              	.Ltext0:
  17              		.cfi_sections	.debug_frame
  18              		.section	.bss.reassdatagrams,"aw",%nobits
  19              		.align	2
  20              		.type	reassdatagrams, %object
  21              		.size	reassdatagrams, 4
  22              	reassdatagrams:
  23 0000 00000000 		.space	4
  24              		.section	.bss.ip_reass_pbufcount,"aw",%nobits
  25              		.align	1
  26              		.type	ip_reass_pbufcount, %object
  27              		.size	ip_reass_pbufcount, 2
  28              	ip_reass_pbufcount:
  29 0000 0000     		.space	2
  30              		.section	.text.ip_reass_tmr,"ax",%progbits
  31              		.align	2
  32              		.p2align 4,,15
  33              		.global	ip_reass_tmr
  34              		.thumb
  35              		.thumb_func
  36              		.type	ip_reass_tmr, %function
  37              	ip_reass_tmr:
  38              	.LFB7:
  39              		.file 1 "../../ext/lwip/src/core/ipv4/ip_frag.c"
  40              		.loc 1 123 0
  41              		.cfi_startproc
  42              		@ args = 0, pretend = 0, frame = 16
  43              		@ frame_needed = 0, uses_anonymous_args = 0
  44 0000 00B5     		push	{lr}
  45              	.LCFI0:
  46              		.cfi_def_cfa_offset 4
  47              		.cfi_offset 14, -4
  48 0002 85B0     		sub	sp, sp, #20
  49              	.LCFI1:
  50              		.cfi_def_cfa_offset 24
  51              		.loc 1 124 0
  52 0004 4FF00003 		mov	r3, #0
  53 0008 0293     		str	r3, [sp, #8]
  54              		.loc 1 126 0
  55 000a 40F20003 		movw	r3, #:lower16:reassdatagrams
  56 000e C0F20003 		movt	r3, #:upper16:reassdatagrams
  57 0012 1B68     		ldr	r3, [r3, #0]
ARM GAS  /tmp/ccRYQxIv.s 			page 2


  58 0014 0393     		str	r3, [sp, #12]
  59              		.loc 1 127 0
  60 0016 19E0     		b	.L2
  61              	.L4:
  62              		.loc 1 130 0
  63 0018 039B     		ldr	r3, [sp, #12]
  64 001a DB7F     		ldrb	r3, [r3, #31]	@ zero_extendqisi2
  65 001c 002B     		cmp	r3, #0
  66 001e 0CD0     		beq	.L3
  67              		.loc 1 131 0
  68 0020 039B     		ldr	r3, [sp, #12]
  69 0022 DB7F     		ldrb	r3, [r3, #31]	@ zero_extendqisi2
  70 0024 03F1FF33 		add	r3, r3, #-1
  71 0028 DAB2     		uxtb	r2, r3
  72 002a 039B     		ldr	r3, [sp, #12]
  73 002c DA77     		strb	r2, [r3, #31]
  74              		.loc 1 133 0
  75 002e 039B     		ldr	r3, [sp, #12]
  76 0030 0293     		str	r3, [sp, #8]
  77              		.loc 1 134 0
  78 0032 039B     		ldr	r3, [sp, #12]
  79 0034 1B68     		ldr	r3, [r3, #0]
  80 0036 0393     		str	r3, [sp, #12]
  81 0038 08E0     		b	.L2
  82              	.L3:
  83              	.LBB2:
  84              		.loc 1 139 0
  85 003a 039B     		ldr	r3, [sp, #12]
  86 003c 0193     		str	r3, [sp, #4]
  87              		.loc 1 141 0
  88 003e 039B     		ldr	r3, [sp, #12]
  89 0040 1B68     		ldr	r3, [r3, #0]
  90 0042 0393     		str	r3, [sp, #12]
  91              		.loc 1 143 0
  92 0044 0198     		ldr	r0, [sp, #4]
  93 0046 0299     		ldr	r1, [sp, #8]
  94 0048 FFF7FEFF 		bl	ip_reass_free_complete_datagram
  95              	.L2:
  96              	.LBE2:
  97              		.loc 1 127 0 discriminator 1
  98 004c 039B     		ldr	r3, [sp, #12]
  99 004e 002B     		cmp	r3, #0
 100 0050 E2D1     		bne	.L4
 101              		.loc 1 146 0
 102 0052 05B0     		add	sp, sp, #20
 103 0054 00BD     		pop	{pc}
 104              		.cfi_endproc
 105              	.LFE7:
 106              		.size	ip_reass_tmr, .-ip_reass_tmr
 107 0056 00BFAFF3 		.section	.text.ip_reass_free_complete_datagram,"ax",%progbits
 107      0080AFF3 
 107      0080
 108              		.align	2
 109              		.p2align 4,,15
 110              		.thumb
 111              		.thumb_func
 112              		.type	ip_reass_free_complete_datagram, %function
ARM GAS  /tmp/ccRYQxIv.s 			page 3


 113              	ip_reass_free_complete_datagram:
 114              	.LFB8:
 115              		.loc 1 159 0
 116              		.cfi_startproc
 117              		@ args = 0, pretend = 0, frame = 32
 118              		@ frame_needed = 0, uses_anonymous_args = 0
 119 0000 00B5     		push	{lr}
 120              	.LCFI2:
 121              		.cfi_def_cfa_offset 4
 122              		.cfi_offset 14, -4
 123 0002 89B0     		sub	sp, sp, #36
 124              	.LCFI3:
 125              		.cfi_def_cfa_offset 40
 126 0004 0190     		str	r0, [sp, #4]
 127 0006 0091     		str	r1, [sp, #0]
 128              		.loc 1 160 0
 129 0008 4FF00003 		mov	r3, #0
 130 000c ADF81E30 		strh	r3, [sp, #30]	@ movhi
 131              		.loc 1 165 0
 132 0010 009A     		ldr	r2, [sp, #0]
 133 0012 019B     		ldr	r3, [sp, #4]
 134 0014 9A42     		cmp	r2, r3
 135 0016 01D1     		bne	.L6
 136              		.loc 1 165 0 is_stmt 0 discriminator 1
 137 0018 FFF7FEFF 		bl	port_halt
 138              	.L6:
 139              		.loc 1 166 0 is_stmt 1
 140 001c 009B     		ldr	r3, [sp, #0]
 141 001e 002B     		cmp	r3, #0
 142 0020 06D0     		beq	.L7
 143              		.loc 1 167 0
 144 0022 009B     		ldr	r3, [sp, #0]
 145 0024 1A68     		ldr	r2, [r3, #0]
 146 0026 019B     		ldr	r3, [sp, #4]
 147 0028 9A42     		cmp	r2, r3
 148 002a 01D0     		beq	.L7
 149              		.loc 1 167 0 is_stmt 0 discriminator 1
 150 002c FFF7FEFF 		bl	port_halt
 151              	.L7:
 152              		.loc 1 172 0 is_stmt 1
 153 0030 019B     		ldr	r3, [sp, #4]
 154 0032 5B68     		ldr	r3, [r3, #4]
 155 0034 5B68     		ldr	r3, [r3, #4]
 156 0036 0593     		str	r3, [sp, #20]
 157              		.loc 1 173 0
 158 0038 059B     		ldr	r3, [sp, #20]
 159 003a 9B88     		ldrh	r3, [r3, #4]	@ unaligned
 160 003c 9BB2     		uxth	r3, r3
 161 003e 002B     		cmp	r3, #0
 162 0040 35D1     		bne	.L8
 163              		.loc 1 176 0
 164 0042 019B     		ldr	r3, [sp, #4]
 165 0044 5B68     		ldr	r3, [r3, #4]
 166 0046 0693     		str	r3, [sp, #24]
 167              		.loc 1 177 0
 168 0048 059B     		ldr	r3, [sp, #20]
 169 004a 1A68     		ldr	r2, [r3, #0]	@ unaligned
ARM GAS  /tmp/ccRYQxIv.s 			page 4


 170 004c 019B     		ldr	r3, [sp, #4]
 171 004e 5A60     		str	r2, [r3, #4]
 172              		.loc 1 179 0
 173 0050 069B     		ldr	r3, [sp, #24]
 174 0052 5A68     		ldr	r2, [r3, #4]
 175 0054 019B     		ldr	r3, [sp, #4]
 176 0056 03F10803 		add	r3, r3, #8
 177 005a 1146     		mov	r1, r2
 178 005c 1A46     		mov	r2, r3
 179 005e 4FF01403 		mov	r3, #20
 180 0062 0846     		mov	r0, r1
 181 0064 1146     		mov	r1, r2
 182 0066 1A46     		mov	r2, r3
 183 0068 FFF7FEFF 		bl	memcpy
 184              		.loc 1 180 0
 185 006c 0698     		ldr	r0, [sp, #24]
 186 006e 4FF00101 		mov	r1, #1
 187 0072 FFF7FEFF 		bl	icmp_time_exceeded
 188              		.loc 1 181 0
 189 0076 0698     		ldr	r0, [sp, #24]
 190 0078 FFF7FEFF 		bl	pbuf_clen
 191 007c 0346     		mov	r3, r0
 192 007e 8DF81330 		strb	r3, [sp, #19]
 193              		.loc 1 182 0
 194 0082 BDF81E20 		ldrh	r2, [sp, #30]
 195 0086 9DF81330 		ldrb	r3, [sp, #19]	@ zero_extendqisi2
 196 008a D218     		adds	r2, r2, r3
 197 008c 4FF6FF73 		movw	r3, #65535
 198 0090 9A42     		cmp	r2, r3
 199 0092 01DD     		ble	.L9
 200              		.loc 1 182 0 is_stmt 0 discriminator 1
 201 0094 FFF7FEFF 		bl	port_halt
 202              	.L9:
 203              		.loc 1 183 0 is_stmt 1
 204 0098 9DF81330 		ldrb	r3, [sp, #19]	@ zero_extendqisi2
 205 009c 9AB2     		uxth	r2, r3
 206 009e BDF81E30 		ldrh	r3, [sp, #30]	@ movhi
 207 00a2 D318     		adds	r3, r2, r3
 208 00a4 ADF81E30 		strh	r3, [sp, #30]	@ movhi
 209              		.loc 1 184 0
 210 00a8 0698     		ldr	r0, [sp, #24]
 211 00aa FFF7FEFF 		bl	pbuf_free
 212              	.L8:
 213              		.loc 1 190 0
 214 00ae 019B     		ldr	r3, [sp, #4]
 215 00b0 5B68     		ldr	r3, [r3, #4]
 216 00b2 0693     		str	r3, [sp, #24]
 217              		.loc 1 191 0
 218 00b4 23E0     		b	.L10
 219              	.L12:
 220              	.LBB3:
 221              		.loc 1 193 0
 222 00b6 069B     		ldr	r3, [sp, #24]
 223 00b8 5B68     		ldr	r3, [r3, #4]
 224 00ba 0593     		str	r3, [sp, #20]
 225              		.loc 1 194 0
 226 00bc 069B     		ldr	r3, [sp, #24]
ARM GAS  /tmp/ccRYQxIv.s 			page 5


 227 00be 0393     		str	r3, [sp, #12]
 228              		.loc 1 196 0
 229 00c0 059B     		ldr	r3, [sp, #20]
 230 00c2 1B68     		ldr	r3, [r3, #0]	@ unaligned
 231 00c4 0693     		str	r3, [sp, #24]
 232              		.loc 1 197 0
 233 00c6 0398     		ldr	r0, [sp, #12]
 234 00c8 FFF7FEFF 		bl	pbuf_clen
 235 00cc 0346     		mov	r3, r0
 236 00ce 8DF81330 		strb	r3, [sp, #19]
 237              		.loc 1 198 0
 238 00d2 BDF81E20 		ldrh	r2, [sp, #30]
 239 00d6 9DF81330 		ldrb	r3, [sp, #19]	@ zero_extendqisi2
 240 00da D218     		adds	r2, r2, r3
 241 00dc 4FF6FF73 		movw	r3, #65535
 242 00e0 9A42     		cmp	r2, r3
 243 00e2 01DD     		ble	.L11
 244              		.loc 1 198 0 is_stmt 0 discriminator 1
 245 00e4 FFF7FEFF 		bl	port_halt
 246              	.L11:
 247              		.loc 1 199 0 is_stmt 1
 248 00e8 9DF81330 		ldrb	r3, [sp, #19]	@ zero_extendqisi2
 249 00ec 9AB2     		uxth	r2, r3
 250 00ee BDF81E30 		ldrh	r3, [sp, #30]	@ movhi
 251 00f2 D318     		adds	r3, r2, r3
 252 00f4 ADF81E30 		strh	r3, [sp, #30]	@ movhi
 253              		.loc 1 200 0
 254 00f8 0398     		ldr	r0, [sp, #12]
 255 00fa FFF7FEFF 		bl	pbuf_free
 256              	.L10:
 257              	.LBE3:
 258              		.loc 1 191 0 discriminator 1
 259 00fe 069B     		ldr	r3, [sp, #24]
 260 0100 002B     		cmp	r3, #0
 261 0102 D8D1     		bne	.L12
 262              		.loc 1 203 0
 263 0104 0198     		ldr	r0, [sp, #4]
 264 0106 0099     		ldr	r1, [sp, #0]
 265 0108 FFF7FEFF 		bl	ip_reass_dequeue_datagram
 266              		.loc 1 204 0
 267 010c 40F20003 		movw	r3, #:lower16:ip_reass_pbufcount
 268 0110 C0F20003 		movt	r3, #:upper16:ip_reass_pbufcount
 269 0114 1B88     		ldrh	r3, [r3, #0]
 270 0116 BDF81E20 		ldrh	r2, [sp, #30]
 271 011a 9A42     		cmp	r2, r3
 272 011c 01D9     		bls	.L13
 273              		.loc 1 204 0 is_stmt 0 discriminator 1
 274 011e FFF7FEFF 		bl	port_halt
 275              	.L13:
 276              		.loc 1 205 0 is_stmt 1
 277 0122 40F20003 		movw	r3, #:lower16:ip_reass_pbufcount
 278 0126 C0F20003 		movt	r3, #:upper16:ip_reass_pbufcount
 279 012a 1A88     		ldrh	r2, [r3, #0]
 280 012c BDF81E30 		ldrh	r3, [sp, #30]	@ movhi
 281 0130 D31A     		subs	r3, r2, r3
 282 0132 9AB2     		uxth	r2, r3
 283 0134 40F20003 		movw	r3, #:lower16:ip_reass_pbufcount
ARM GAS  /tmp/ccRYQxIv.s 			page 6


 284 0138 C0F20003 		movt	r3, #:upper16:ip_reass_pbufcount
 285 013c 1A80     		strh	r2, [r3, #0]	@ movhi
 286              		.loc 1 207 0
 287 013e BDF81E30 		ldrh	r3, [sp, #30]
 288              		.loc 1 208 0
 289 0142 1846     		mov	r0, r3
 290 0144 09B0     		add	sp, sp, #36
 291 0146 00BD     		pop	{pc}
 292              		.cfi_endproc
 293              	.LFE8:
 294              		.size	ip_reass_free_complete_datagram, .-ip_reass_free_complete_datagram
 295 0148 AFF30080 		.section	.text.ip_reass_remove_oldest_datagram,"ax",%progbits
 295      AFF30080 
 296              		.align	2
 297              		.p2align 4,,15
 298              		.thumb
 299              		.thumb_func
 300              		.type	ip_reass_remove_oldest_datagram, %function
 301              	ip_reass_remove_oldest_datagram:
 302              	.LFB9:
 303              		.loc 1 222 0
 304              		.cfi_startproc
 305              		@ args = 0, pretend = 0, frame = 32
 306              		@ frame_needed = 0, uses_anonymous_args = 0
 307 0000 00B5     		push	{lr}
 308              	.LCFI4:
 309              		.cfi_def_cfa_offset 4
 310              		.cfi_offset 14, -4
 311 0002 89B0     		sub	sp, sp, #36
 312              	.LCFI5:
 313              		.cfi_def_cfa_offset 40
 314 0004 0190     		str	r0, [sp, #4]
 315 0006 0091     		str	r1, [sp, #0]
 316              		.loc 1 227 0
 317 0008 4FF00003 		mov	r3, #0
 318 000c 0493     		str	r3, [sp, #16]
 319              	.L23:
 320              		.loc 1 233 0
 321 000e 4FF00003 		mov	r3, #0
 322 0012 0693     		str	r3, [sp, #24]
 323              		.loc 1 234 0
 324 0014 4FF00003 		mov	r3, #0
 325 0018 0593     		str	r3, [sp, #20]
 326              		.loc 1 235 0
 327 001a 4FF00003 		mov	r3, #0
 328 001e 0393     		str	r3, [sp, #12]
 329              		.loc 1 236 0
 330 0020 40F20003 		movw	r3, #:lower16:reassdatagrams
 331 0024 C0F20003 		movt	r3, #:upper16:reassdatagrams
 332 0028 1B68     		ldr	r3, [r3, #0]
 333 002a 0793     		str	r3, [sp, #28]
 334              		.loc 1 237 0
 335 002c 2DE0     		b	.L15
 336              	.L20:
 337              		.loc 1 238 0
 338 002e 079B     		ldr	r3, [sp, #28]
 339 0030 5A69     		ldr	r2, [r3, #20]
ARM GAS  /tmp/ccRYQxIv.s 			page 7


 340 0032 019B     		ldr	r3, [sp, #4]
 341 0034 DB68     		ldr	r3, [r3, #12]	@ unaligned
 342 0036 9A42     		cmp	r2, r3
 343 0038 0CD1     		bne	.L16
 344              		.loc 1 238 0 is_stmt 0 discriminator 1
 345 003a 079B     		ldr	r3, [sp, #28]
 346 003c 9A69     		ldr	r2, [r3, #24]
 347 003e 019B     		ldr	r3, [sp, #4]
 348 0040 1B69     		ldr	r3, [r3, #16]	@ unaligned
 349 0042 9A42     		cmp	r2, r3
 350 0044 06D1     		bne	.L16
 351 0046 079B     		ldr	r3, [sp, #28]
 352 0048 9A89     		ldrh	r2, [r3, #12]
 353 004a 019B     		ldr	r3, [sp, #4]
 354 004c 9B88     		ldrh	r3, [r3, #4]	@ unaligned
 355 004e 9BB2     		uxth	r3, r3
 356 0050 9A42     		cmp	r2, r3
 357 0052 11D0     		beq	.L17
 358              	.L16:
 359              		.loc 1 240 0 is_stmt 1
 360 0054 039B     		ldr	r3, [sp, #12]
 361 0056 03F10103 		add	r3, r3, #1
 362 005a 0393     		str	r3, [sp, #12]
 363              		.loc 1 241 0
 364 005c 069B     		ldr	r3, [sp, #24]
 365 005e 002B     		cmp	r3, #0
 366 0060 02D1     		bne	.L18
 367              		.loc 1 242 0
 368 0062 079B     		ldr	r3, [sp, #28]
 369 0064 0693     		str	r3, [sp, #24]
 370 0066 07E0     		b	.L17
 371              	.L18:
 372              		.loc 1 243 0
 373 0068 079B     		ldr	r3, [sp, #28]
 374 006a DA7F     		ldrb	r2, [r3, #31]	@ zero_extendqisi2
 375 006c 069B     		ldr	r3, [sp, #24]
 376 006e DB7F     		ldrb	r3, [r3, #31]	@ zero_extendqisi2
 377 0070 9A42     		cmp	r2, r3
 378 0072 01D8     		bhi	.L17
 379              		.loc 1 245 0
 380 0074 079B     		ldr	r3, [sp, #28]
 381 0076 0693     		str	r3, [sp, #24]
 382              	.L17:
 383              		.loc 1 248 0
 384 0078 079B     		ldr	r3, [sp, #28]
 385 007a 1B68     		ldr	r3, [r3, #0]
 386 007c 002B     		cmp	r3, #0
 387 007e 01D0     		beq	.L19
 388              		.loc 1 249 0
 389 0080 079B     		ldr	r3, [sp, #28]
 390 0082 0593     		str	r3, [sp, #20]
 391              	.L19:
 392              		.loc 1 251 0
 393 0084 079B     		ldr	r3, [sp, #28]
 394 0086 1B68     		ldr	r3, [r3, #0]
 395 0088 0793     		str	r3, [sp, #28]
 396              	.L15:
ARM GAS  /tmp/ccRYQxIv.s 			page 8


 397              		.loc 1 237 0 discriminator 1
 398 008a 079B     		ldr	r3, [sp, #28]
 399 008c 002B     		cmp	r3, #0
 400 008e CED1     		bne	.L20
 401              		.loc 1 253 0
 402 0090 069B     		ldr	r3, [sp, #24]
 403 0092 002B     		cmp	r3, #0
 404 0094 09D0     		beq	.L21
 405              		.loc 1 254 0
 406 0096 0698     		ldr	r0, [sp, #24]
 407 0098 0599     		ldr	r1, [sp, #20]
 408 009a FFF7FEFF 		bl	ip_reass_free_complete_datagram
 409 009e 0346     		mov	r3, r0
 410 00a0 0293     		str	r3, [sp, #8]
 411              		.loc 1 255 0
 412 00a2 049A     		ldr	r2, [sp, #16]
 413 00a4 029B     		ldr	r3, [sp, #8]
 414 00a6 D318     		adds	r3, r2, r3
 415 00a8 0493     		str	r3, [sp, #16]
 416              	.L21:
 417              		.loc 1 257 0
 418 00aa 049A     		ldr	r2, [sp, #16]
 419 00ac 009B     		ldr	r3, [sp, #0]
 420 00ae 9A42     		cmp	r2, r3
 421 00b0 02DA     		bge	.L22
 422              		.loc 1 257 0 is_stmt 0 discriminator 1
 423 00b2 039B     		ldr	r3, [sp, #12]
 424 00b4 012B     		cmp	r3, #1
 425 00b6 AADC     		bgt	.L23
 426              	.L22:
 427              		.loc 1 258 0 is_stmt 1
 428 00b8 049B     		ldr	r3, [sp, #16]
 429              		.loc 1 259 0
 430 00ba 1846     		mov	r0, r3
 431 00bc 09B0     		add	sp, sp, #36
 432 00be 00BD     		pop	{pc}
 433              		.cfi_endproc
 434              	.LFE9:
 435              		.size	ip_reass_remove_oldest_datagram, .-ip_reass_remove_oldest_datagram
 436              		.section	.text.ip_reass_enqueue_new_datagram,"ax",%progbits
 437              		.align	2
 438              		.p2align 4,,15
 439              		.thumb
 440              		.thumb_func
 441              		.type	ip_reass_enqueue_new_datagram, %function
 442              	ip_reass_enqueue_new_datagram:
 443              	.LFB10:
 444              		.loc 1 270 0
 445              		.cfi_startproc
 446              		@ args = 0, pretend = 0, frame = 16
 447              		@ frame_needed = 0, uses_anonymous_args = 0
 448 0000 00B5     		push	{lr}
 449              	.LCFI6:
 450              		.cfi_def_cfa_offset 4
 451              		.cfi_offset 14, -4
 452 0002 85B0     		sub	sp, sp, #20
 453              	.LCFI7:
ARM GAS  /tmp/ccRYQxIv.s 			page 9


 454              		.cfi_def_cfa_offset 24
 455 0004 0190     		str	r0, [sp, #4]
 456 0006 0091     		str	r1, [sp, #0]
 457              		.loc 1 273 0
 458 0008 4FF00500 		mov	r0, #5
 459 000c FFF7FEFF 		bl	memp_malloc
 460 0010 0346     		mov	r3, r0
 461 0012 0393     		str	r3, [sp, #12]
 462              		.loc 1 274 0
 463 0014 039B     		ldr	r3, [sp, #12]
 464 0016 002B     		cmp	r3, #0
 465 0018 20D1     		bne	.L25
 466              		.loc 1 276 0
 467 001a 0198     		ldr	r0, [sp, #4]
 468 001c 0099     		ldr	r1, [sp, #0]
 469 001e FFF7FEFF 		bl	ip_reass_remove_oldest_datagram
 470 0022 0246     		mov	r2, r0
 471 0024 009B     		ldr	r3, [sp, #0]
 472 0026 9A42     		cmp	r2, r3
 473 0028 05DB     		blt	.L26
 474              		.loc 1 277 0
 475 002a 4FF00500 		mov	r0, #5
 476 002e FFF7FEFF 		bl	memp_malloc
 477 0032 0346     		mov	r3, r0
 478 0034 0393     		str	r3, [sp, #12]
 479              	.L26:
 480              		.loc 1 279 0
 481 0036 039B     		ldr	r3, [sp, #12]
 482 0038 002B     		cmp	r3, #0
 483 003a 0FD1     		bne	.L25
 484              		.loc 1 282 0
 485 003c 40F20003 		movw	r3, #:lower16:lwip_stats
 486 0040 C0F20003 		movt	r3, #:upper16:lwip_stats
 487 0044 9B8F     		ldrh	r3, [r3, #60]
 488 0046 03F10103 		add	r3, r3, #1
 489 004a 9AB2     		uxth	r2, r3
 490 004c 40F20003 		movw	r3, #:lower16:lwip_stats
 491 0050 C0F20003 		movt	r3, #:upper16:lwip_stats
 492 0054 9A87     		strh	r2, [r3, #60]	@ movhi
 493              		.loc 1 284 0
 494 0056 4FF00003 		mov	r3, #0
 495 005a 28E0     		b	.L27
 496              	.L25:
 497              		.loc 1 287 0
 498 005c 039B     		ldr	r3, [sp, #12]
 499 005e 1A46     		mov	r2, r3
 500 0060 4FF02003 		mov	r3, #32
 501 0064 1046     		mov	r0, r2
 502 0066 4FF00001 		mov	r1, #0
 503 006a 1A46     		mov	r2, r3
 504 006c FFF7FEFF 		bl	memset
 505              		.loc 1 288 0
 506 0070 039B     		ldr	r3, [sp, #12]
 507 0072 4FF00302 		mov	r2, #3
 508 0076 DA77     		strb	r2, [r3, #31]
 509              		.loc 1 291 0
 510 0078 40F20003 		movw	r3, #:lower16:reassdatagrams
ARM GAS  /tmp/ccRYQxIv.s 			page 10


 511 007c C0F20003 		movt	r3, #:upper16:reassdatagrams
 512 0080 1A68     		ldr	r2, [r3, #0]
 513 0082 039B     		ldr	r3, [sp, #12]
 514 0084 1A60     		str	r2, [r3, #0]
 515              		.loc 1 292 0
 516 0086 40F20003 		movw	r3, #:lower16:reassdatagrams
 517 008a C0F20003 		movt	r3, #:upper16:reassdatagrams
 518 008e 039A     		ldr	r2, [sp, #12]
 519 0090 1A60     		str	r2, [r3, #0]
 520              		.loc 1 295 0
 521 0092 039B     		ldr	r3, [sp, #12]
 522 0094 03F10802 		add	r2, r3, #8
 523 0098 019B     		ldr	r3, [sp, #4]
 524 009a 1146     		mov	r1, r2
 525 009c 1A46     		mov	r2, r3
 526 009e 4FF01403 		mov	r3, #20
 527 00a2 0846     		mov	r0, r1
 528 00a4 1146     		mov	r1, r2
 529 00a6 1A46     		mov	r2, r3
 530 00a8 FFF7FEFF 		bl	memcpy
 531              		.loc 1 296 0
 532 00ac 039B     		ldr	r3, [sp, #12]
 533              	.L27:
 534              		.loc 1 297 0
 535 00ae 1846     		mov	r0, r3
 536 00b0 05B0     		add	sp, sp, #20
 537 00b2 00BD     		pop	{pc}
 538              		.cfi_endproc
 539              	.LFE10:
 540              		.size	ip_reass_enqueue_new_datagram, .-ip_reass_enqueue_new_datagram
 541 00b4 AFF30080 		.section	.text.ip_reass_dequeue_datagram,"ax",%progbits
 541      AFF30080 
 541      AFF30080 
 542              		.align	2
 543              		.p2align 4,,15
 544              		.thumb
 545              		.thumb_func
 546              		.type	ip_reass_dequeue_datagram, %function
 547              	ip_reass_dequeue_datagram:
 548              	.LFB11:
 549              		.loc 1 305 0
 550              		.cfi_startproc
 551              		@ args = 0, pretend = 0, frame = 8
 552              		@ frame_needed = 0, uses_anonymous_args = 0
 553 0000 00B5     		push	{lr}
 554              	.LCFI8:
 555              		.cfi_def_cfa_offset 4
 556              		.cfi_offset 14, -4
 557 0002 83B0     		sub	sp, sp, #12
 558              	.LCFI9:
 559              		.cfi_def_cfa_offset 16
 560 0004 0190     		str	r0, [sp, #4]
 561 0006 0091     		str	r1, [sp, #0]
 562              		.loc 1 308 0
 563 0008 40F20003 		movw	r3, #:lower16:reassdatagrams
 564 000c C0F20003 		movt	r3, #:upper16:reassdatagrams
 565 0010 1A68     		ldr	r2, [r3, #0]
ARM GAS  /tmp/ccRYQxIv.s 			page 11


 566 0012 019B     		ldr	r3, [sp, #4]
 567 0014 9A42     		cmp	r2, r3
 568 0016 07D1     		bne	.L29
 569              		.loc 1 310 0
 570 0018 019B     		ldr	r3, [sp, #4]
 571 001a 1A68     		ldr	r2, [r3, #0]
 572 001c 40F20003 		movw	r3, #:lower16:reassdatagrams
 573 0020 C0F20003 		movt	r3, #:upper16:reassdatagrams
 574 0024 1A60     		str	r2, [r3, #0]
 575 0026 08E0     		b	.L30
 576              	.L29:
 577              		.loc 1 313 0
 578 0028 009B     		ldr	r3, [sp, #0]
 579 002a 002B     		cmp	r3, #0
 580 002c 01D1     		bne	.L31
 581              		.loc 1 313 0 is_stmt 0 discriminator 1
 582 002e FFF7FEFF 		bl	port_halt
 583              	.L31:
 584              		.loc 1 314 0 is_stmt 1
 585 0032 019B     		ldr	r3, [sp, #4]
 586 0034 1A68     		ldr	r2, [r3, #0]
 587 0036 009B     		ldr	r3, [sp, #0]
 588 0038 1A60     		str	r2, [r3, #0]
 589              	.L30:
 590              		.loc 1 318 0
 591 003a 4FF00500 		mov	r0, #5
 592 003e 0199     		ldr	r1, [sp, #4]
 593 0040 FFF7FEFF 		bl	memp_free
 594              		.loc 1 319 0
 595 0044 03B0     		add	sp, sp, #12
 596 0046 00BD     		pop	{pc}
 597              		.cfi_endproc
 598              	.LFE11:
 599              		.size	ip_reass_dequeue_datagram, .-ip_reass_dequeue_datagram
 600 0048 AFF30080 		.section	.text.ip_reass_chain_frag_into_datagram_and_validate,"ax",%progbits
 600      AFF30080 
 601              		.align	2
 602              		.p2align 4,,15
 603              		.thumb
 604              		.thumb_func
 605              		.type	ip_reass_chain_frag_into_datagram_and_validate, %function
 606              	ip_reass_chain_frag_into_datagram_and_validate:
 607              	.LFB12:
 608              		.loc 1 332 0
 609              		.cfi_startproc
 610              		@ args = 0, pretend = 0, frame = 40
 611              		@ frame_needed = 0, uses_anonymous_args = 0
 612 0000 10B5     		push	{r4, lr}
 613              	.LCFI10:
 614              		.cfi_def_cfa_offset 8
 615              		.cfi_offset 14, -4
 616              		.cfi_offset 4, -8
 617 0002 8AB0     		sub	sp, sp, #40
 618              	.LCFI11:
 619              		.cfi_def_cfa_offset 48
 620 0004 0190     		str	r0, [sp, #4]
 621 0006 0091     		str	r1, [sp, #0]
ARM GAS  /tmp/ccRYQxIv.s 			page 12


 622              		.loc 1 333 0
 623 0008 4FF00003 		mov	r3, #0
 624 000c 0893     		str	r3, [sp, #32]
 625              		.loc 1 337 0
 626 000e 4FF00103 		mov	r3, #1
 627 0012 0693     		str	r3, [sp, #24]
 628              		.loc 1 340 0
 629 0014 009B     		ldr	r3, [sp, #0]
 630 0016 5B68     		ldr	r3, [r3, #4]
 631 0018 0593     		str	r3, [sp, #20]
 632              		.loc 1 341 0
 633 001a 059B     		ldr	r3, [sp, #20]
 634 001c 5B88     		ldrh	r3, [r3, #2]	@ unaligned
 635 001e 9BB2     		uxth	r3, r3
 636 0020 1846     		mov	r0, r3
 637 0022 FFF7FEFF 		bl	lwip_ntohs
 638 0026 0346     		mov	r3, r0
 639 0028 1C46     		mov	r4, r3
 640 002a 059B     		ldr	r3, [sp, #20]
 641 002c 1B88     		ldrh	r3, [r3, #0]	@ unaligned
 642 002e 9BB2     		uxth	r3, r3
 643 0030 1846     		mov	r0, r3
 644 0032 FFF7FEFF 		bl	lwip_ntohs
 645 0036 0346     		mov	r3, r0
 646 0038 4FEA1323 		lsr	r3, r3, #8
 647 003c 9BB2     		uxth	r3, r3
 648 003e 03F00F03 		and	r3, r3, #15
 649 0042 9BB2     		uxth	r3, r3
 650 0044 1A46     		mov	r2, r3	@ movhi
 651 0046 4FEA8232 		lsl	r2, r2, #14
 652 004a D31A     		subs	r3, r2, r3
 653 004c 4FEA8303 		lsl	r3, r3, #2
 654 0050 9BB2     		uxth	r3, r3
 655 0052 E318     		adds	r3, r4, r3
 656 0054 ADF81230 		strh	r3, [sp, #18]	@ movhi
 657              		.loc 1 342 0
 658 0058 059B     		ldr	r3, [sp, #20]
 659 005a DB88     		ldrh	r3, [r3, #6]	@ unaligned
 660 005c 9BB2     		uxth	r3, r3
 661 005e 1846     		mov	r0, r3
 662 0060 FFF7FEFF 		bl	lwip_ntohs
 663 0064 0346     		mov	r3, r0
 664 0066 4FEAC343 		lsl	r3, r3, #19
 665 006a 4FEAD343 		lsr	r3, r3, #19
 666 006e 9BB2     		uxth	r3, r3
 667 0070 4FEAC303 		lsl	r3, r3, #3
 668 0074 ADF81030 		strh	r3, [sp, #16]	@ movhi
 669              		.loc 1 349 0
 670 0078 009B     		ldr	r3, [sp, #0]
 671 007a 5B68     		ldr	r3, [r3, #4]
 672 007c 0993     		str	r3, [sp, #36]
 673              		.loc 1 350 0
 674 007e 099B     		ldr	r3, [sp, #36]
 675 0080 4FF00002 		mov	r2, #0
 676 0084 1A70     		strb	r2, [r3, #0]
 677 0086 4FF00002 		mov	r2, #0
 678 008a 5A70     		strb	r2, [r3, #1]
ARM GAS  /tmp/ccRYQxIv.s 			page 13


 679 008c 4FF00002 		mov	r2, #0
 680 0090 9A70     		strb	r2, [r3, #2]
 681 0092 4FF00002 		mov	r2, #0
 682 0096 DA70     		strb	r2, [r3, #3]
 683              		.loc 1 351 0
 684 0098 099B     		ldr	r3, [sp, #36]
 685 009a BDF81020 		ldrh	r2, [sp, #16]	@ movhi
 686 009e 9A80     		strh	r2, [r3, #4]	@ unaligned
 687              		.loc 1 352 0
 688 00a0 BDF81020 		ldrh	r2, [sp, #16]	@ movhi
 689 00a4 BDF81230 		ldrh	r3, [sp, #18]	@ movhi
 690 00a8 D318     		adds	r3, r2, r3
 691 00aa 9AB2     		uxth	r2, r3
 692 00ac 099B     		ldr	r3, [sp, #36]
 693 00ae DA80     		strh	r2, [r3, #6]	@ unaligned
 694              		.loc 1 356 0
 695 00b0 019B     		ldr	r3, [sp, #4]
 696 00b2 5B68     		ldr	r3, [r3, #4]
 697 00b4 0793     		str	r3, [sp, #28]
 698 00b6 4FE0     		b	.L33
 699              	.L42:
 700              		.loc 1 357 0
 701 00b8 079B     		ldr	r3, [sp, #28]
 702 00ba 5B68     		ldr	r3, [r3, #4]
 703 00bc 0393     		str	r3, [sp, #12]
 704              		.loc 1 358 0
 705 00be 099B     		ldr	r3, [sp, #36]
 706 00c0 9B88     		ldrh	r3, [r3, #4]	@ unaligned
 707 00c2 9AB2     		uxth	r2, r3
 708 00c4 039B     		ldr	r3, [sp, #12]
 709 00c6 9B88     		ldrh	r3, [r3, #4]	@ unaligned
 710 00c8 9BB2     		uxth	r3, r3
 711 00ca 9A42     		cmp	r2, r3
 712 00cc 1FD2     		bcs	.L34
 713              		.loc 1 360 0
 714 00ce 099B     		ldr	r3, [sp, #36]
 715 00d0 079A     		ldr	r2, [sp, #28]
 716 00d2 1A60     		str	r2, [r3, #0]	@ unaligned
 717              		.loc 1 361 0
 718 00d4 089B     		ldr	r3, [sp, #32]
 719 00d6 002B     		cmp	r3, #0
 720 00d8 15D0     		beq	.L35
 721              		.loc 1 364 0
 722 00da 099B     		ldr	r3, [sp, #36]
 723 00dc 9B88     		ldrh	r3, [r3, #4]	@ unaligned
 724 00de 9AB2     		uxth	r2, r3
 725 00e0 089B     		ldr	r3, [sp, #32]
 726 00e2 DB88     		ldrh	r3, [r3, #6]	@ unaligned
 727 00e4 9BB2     		uxth	r3, r3
 728 00e6 9A42     		cmp	r2, r3
 729 00e8 C0F0BB80 		bcc	.L36
 730              		.loc 1 364 0 is_stmt 0 discriminator 1
 731 00ec 099B     		ldr	r3, [sp, #36]
 732 00ee DB88     		ldrh	r3, [r3, #6]	@ unaligned
 733 00f0 9AB2     		uxth	r2, r3
 734 00f2 039B     		ldr	r3, [sp, #12]
 735 00f4 9B88     		ldrh	r3, [r3, #4]	@ unaligned
ARM GAS  /tmp/ccRYQxIv.s 			page 14


 736 00f6 9BB2     		uxth	r3, r3
 737 00f8 9A42     		cmp	r2, r3
 738 00fa 00F2B280 		bhi	.L36
 739              		.loc 1 369 0 is_stmt 1
 740 00fe 089B     		ldr	r3, [sp, #32]
 741 0100 009A     		ldr	r2, [sp, #0]
 742 0102 1A60     		str	r2, [r3, #0]	@ unaligned
 743              		.loc 1 374 0
 744 0104 2BE0     		b	.L38
 745              	.L35:
 746              		.loc 1 372 0
 747 0106 019B     		ldr	r3, [sp, #4]
 748 0108 009A     		ldr	r2, [sp, #0]
 749 010a 5A60     		str	r2, [r3, #4]
 750              		.loc 1 374 0
 751 010c 27E0     		b	.L38
 752              	.L34:
 753              		.loc 1 375 0
 754 010e 099B     		ldr	r3, [sp, #36]
 755 0110 9B88     		ldrh	r3, [r3, #4]	@ unaligned
 756 0112 9AB2     		uxth	r2, r3
 757 0114 039B     		ldr	r3, [sp, #12]
 758 0116 9B88     		ldrh	r3, [r3, #4]	@ unaligned
 759 0118 9BB2     		uxth	r3, r3
 760 011a 9A42     		cmp	r2, r3
 761 011c 00F09E80 		beq	.L58
 762              	.L39:
 763              		.loc 1 379 0
 764 0120 099B     		ldr	r3, [sp, #36]
 765 0122 9B88     		ldrh	r3, [r3, #4]	@ unaligned
 766 0124 9AB2     		uxth	r2, r3
 767 0126 039B     		ldr	r3, [sp, #12]
 768 0128 DB88     		ldrh	r3, [r3, #6]	@ unaligned
 769 012a 9BB2     		uxth	r3, r3
 770 012c 9A42     		cmp	r2, r3
 771 012e C0F09780 		bcc	.L59
 772              	.L40:
 773              		.loc 1 385 0
 774 0132 089B     		ldr	r3, [sp, #32]
 775 0134 002B     		cmp	r3, #0
 776 0136 0AD0     		beq	.L41
 777              		.loc 1 386 0
 778 0138 089B     		ldr	r3, [sp, #32]
 779 013a DB88     		ldrh	r3, [r3, #6]	@ unaligned
 780 013c 9AB2     		uxth	r2, r3
 781 013e 039B     		ldr	r3, [sp, #12]
 782 0140 9B88     		ldrh	r3, [r3, #4]	@ unaligned
 783 0142 9BB2     		uxth	r3, r3
 784 0144 9A42     		cmp	r2, r3
 785 0146 02D0     		beq	.L41
 786              		.loc 1 389 0
 787 0148 4FF00003 		mov	r3, #0
 788 014c 0693     		str	r3, [sp, #24]
 789              	.L41:
 790              		.loc 1 393 0
 791 014e 039B     		ldr	r3, [sp, #12]
 792 0150 1B68     		ldr	r3, [r3, #0]	@ unaligned
ARM GAS  /tmp/ccRYQxIv.s 			page 15


 793 0152 0793     		str	r3, [sp, #28]
 794              		.loc 1 394 0
 795 0154 039B     		ldr	r3, [sp, #12]
 796 0156 0893     		str	r3, [sp, #32]
 797              	.L33:
 798              		.loc 1 356 0 discriminator 1
 799 0158 079B     		ldr	r3, [sp, #28]
 800 015a 002B     		cmp	r3, #0
 801 015c ACD1     		bne	.L42
 802              	.L38:
 803              		.loc 1 398 0
 804 015e 079B     		ldr	r3, [sp, #28]
 805 0160 002B     		cmp	r3, #0
 806 0162 24D1     		bne	.L43
 807              		.loc 1 399 0
 808 0164 089B     		ldr	r3, [sp, #32]
 809 0166 002B     		cmp	r3, #0
 810 0168 18D0     		beq	.L44
 811              		.loc 1 403 0
 812 016a 089B     		ldr	r3, [sp, #32]
 813 016c DB88     		ldrh	r3, [r3, #6]	@ unaligned
 814 016e 9AB2     		uxth	r2, r3
 815 0170 099B     		ldr	r3, [sp, #36]
 816 0172 9B88     		ldrh	r3, [r3, #4]	@ unaligned
 817 0174 9BB2     		uxth	r3, r3
 818 0176 9A42     		cmp	r2, r3
 819 0178 01D9     		bls	.L45
 820              		.loc 1 403 0 is_stmt 0 discriminator 1
 821 017a FFF7FEFF 		bl	port_halt
 822              	.L45:
 823              		.loc 1 405 0 is_stmt 1
 824 017e 089B     		ldr	r3, [sp, #32]
 825 0180 009A     		ldr	r2, [sp, #0]
 826 0182 1A60     		str	r2, [r3, #0]	@ unaligned
 827              		.loc 1 406 0
 828 0184 089B     		ldr	r3, [sp, #32]
 829 0186 DB88     		ldrh	r3, [r3, #6]	@ unaligned
 830 0188 9AB2     		uxth	r2, r3
 831 018a 099B     		ldr	r3, [sp, #36]
 832 018c 9B88     		ldrh	r3, [r3, #4]	@ unaligned
 833 018e 9BB2     		uxth	r3, r3
 834 0190 9A42     		cmp	r2, r3
 835 0192 0CD0     		beq	.L43
 836              		.loc 1 407 0
 837 0194 4FF00003 		mov	r3, #0
 838 0198 0693     		str	r3, [sp, #24]
 839 019a 08E0     		b	.L43
 840              	.L44:
 841              		.loc 1 411 0
 842 019c 019B     		ldr	r3, [sp, #4]
 843 019e 5B68     		ldr	r3, [r3, #4]
 844 01a0 002B     		cmp	r3, #0
 845 01a2 01D0     		beq	.L46
 846              		.loc 1 411 0 is_stmt 0 discriminator 1
 847 01a4 FFF7FEFF 		bl	port_halt
 848              	.L46:
 849              		.loc 1 415 0 is_stmt 1
ARM GAS  /tmp/ccRYQxIv.s 			page 16


 850 01a8 019B     		ldr	r3, [sp, #4]
 851 01aa 009A     		ldr	r2, [sp, #0]
 852 01ac 5A60     		str	r2, [r3, #4]
 853              	.L43:
 854              		.loc 1 421 0
 855 01ae 019B     		ldr	r3, [sp, #4]
 856 01b0 9B7F     		ldrb	r3, [r3, #30]	@ zero_extendqisi2
 857 01b2 03F00103 		and	r3, r3, #1
 858 01b6 DBB2     		uxtb	r3, r3
 859 01b8 002B     		cmp	r3, #0
 860 01ba 4CD0     		beq	.L47
 861              		.loc 1 423 0
 862 01bc 069B     		ldr	r3, [sp, #24]
 863 01be 002B     		cmp	r3, #0
 864 01c0 47D0     		beq	.L48
 865              		.loc 1 426 0
 866 01c2 019B     		ldr	r3, [sp, #4]
 867 01c4 5B68     		ldr	r3, [r3, #4]
 868 01c6 5B68     		ldr	r3, [r3, #4]
 869 01c8 9B88     		ldrh	r3, [r3, #4]	@ unaligned
 870 01ca 9BB2     		uxth	r3, r3
 871 01cc 002B     		cmp	r3, #0
 872 01ce 03D0     		beq	.L49
 873              		.loc 1 427 0
 874 01d0 4FF00003 		mov	r3, #0
 875 01d4 0693     		str	r3, [sp, #24]
 876 01d6 3CE0     		b	.L48
 877              	.L49:
 878              		.loc 1 430 0
 879 01d8 099B     		ldr	r3, [sp, #36]
 880 01da 0893     		str	r3, [sp, #32]
 881              		.loc 1 431 0
 882 01dc 099B     		ldr	r3, [sp, #36]
 883 01de 1B68     		ldr	r3, [r3, #0]	@ unaligned
 884 01e0 0793     		str	r3, [sp, #28]
 885              		.loc 1 432 0
 886 01e2 13E0     		b	.L50
 887              	.L53:
 888              		.loc 1 433 0
 889 01e4 079B     		ldr	r3, [sp, #28]
 890 01e6 5B68     		ldr	r3, [r3, #4]
 891 01e8 0993     		str	r3, [sp, #36]
 892              		.loc 1 434 0
 893 01ea 089B     		ldr	r3, [sp, #32]
 894 01ec DB88     		ldrh	r3, [r3, #6]	@ unaligned
 895 01ee 9AB2     		uxth	r2, r3
 896 01f0 099B     		ldr	r3, [sp, #36]
 897 01f2 9B88     		ldrh	r3, [r3, #4]	@ unaligned
 898 01f4 9BB2     		uxth	r3, r3
 899 01f6 9A42     		cmp	r2, r3
 900 01f8 03D0     		beq	.L51
 901              		.loc 1 435 0
 902 01fa 4FF00003 		mov	r3, #0
 903 01fe 0693     		str	r3, [sp, #24]
 904              		.loc 1 436 0
 905 0200 07E0     		b	.L52
 906              	.L51:
ARM GAS  /tmp/ccRYQxIv.s 			page 17


 907              		.loc 1 438 0
 908 0202 099B     		ldr	r3, [sp, #36]
 909 0204 0893     		str	r3, [sp, #32]
 910              		.loc 1 439 0
 911 0206 099B     		ldr	r3, [sp, #36]
 912 0208 1B68     		ldr	r3, [r3, #0]	@ unaligned
 913 020a 0793     		str	r3, [sp, #28]
 914              	.L50:
 915              		.loc 1 432 0 discriminator 1
 916 020c 079B     		ldr	r3, [sp, #28]
 917 020e 002B     		cmp	r3, #0
 918 0210 E8D1     		bne	.L53
 919              	.L52:
 920              		.loc 1 443 0
 921 0212 069B     		ldr	r3, [sp, #24]
 922 0214 002B     		cmp	r3, #0
 923 0216 1CD0     		beq	.L48
 924              		.loc 1 444 0
 925 0218 019B     		ldr	r3, [sp, #4]
 926 021a 5B68     		ldr	r3, [r3, #4]
 927 021c 002B     		cmp	r3, #0
 928 021e 01D1     		bne	.L54
 929              		.loc 1 444 0 is_stmt 0 discriminator 1
 930 0220 FFF7FEFF 		bl	port_halt
 931              	.L54:
 932              		.loc 1 445 0 is_stmt 1
 933 0224 019B     		ldr	r3, [sp, #4]
 934 0226 5B68     		ldr	r3, [r3, #4]
 935 0228 5A68     		ldr	r2, [r3, #4]
 936 022a 099B     		ldr	r3, [sp, #36]
 937 022c 9A42     		cmp	r2, r3
 938 022e 01D1     		bne	.L55
 939              		.loc 1 445 0 is_stmt 0 discriminator 1
 940 0230 FFF7FEFF 		bl	port_halt
 941              	.L55:
 942              		.loc 1 447 0 is_stmt 1
 943 0234 099B     		ldr	r3, [sp, #36]
 944 0236 1B68     		ldr	r3, [r3, #0]	@ unaligned
 945 0238 002B     		cmp	r3, #0
 946 023a 01D0     		beq	.L56
 947              		.loc 1 447 0 is_stmt 0 discriminator 1
 948 023c FFF7FEFF 		bl	port_halt
 949              	.L56:
 950              		.loc 1 449 0 is_stmt 1
 951 0240 099B     		ldr	r3, [sp, #36]
 952 0242 DB88     		ldrh	r3, [r3, #6]	@ unaligned
 953 0244 9AB2     		uxth	r2, r3
 954 0246 019B     		ldr	r3, [sp, #4]
 955 0248 9B8B     		ldrh	r3, [r3, #28]
 956 024a 9A42     		cmp	r2, r3
 957 024c 01D0     		beq	.L48
 958              		.loc 1 449 0 is_stmt 0 discriminator 1
 959 024e FFF7FEFF 		bl	port_halt
 960              	.L48:
 961              		.loc 1 457 0 is_stmt 1
 962 0252 069B     		ldr	r3, [sp, #24]
 963 0254 1AE0     		b	.L57
ARM GAS  /tmp/ccRYQxIv.s 			page 18


 964              	.L47:
 965              		.loc 1 460 0
 966 0256 4FF00003 		mov	r3, #0
 967 025a 17E0     		b	.L57
 968              	.L58:
 969              		.loc 1 377 0
 970 025c 00BF     		nop
 971 025e 00E0     		b	.L36
 972              	.L59:
 973              		.loc 1 381 0
 974 0260 00BF     		nop
 975              	.L36:
 976              		.loc 1 463 0
 977 0262 40F20003 		movw	r3, #:lower16:ip_reass_pbufcount
 978 0266 C0F20003 		movt	r3, #:upper16:ip_reass_pbufcount
 979 026a 1C88     		ldrh	r4, [r3, #0]
 980 026c 0098     		ldr	r0, [sp, #0]
 981 026e FFF7FEFF 		bl	pbuf_clen
 982 0272 0346     		mov	r3, r0
 983 0274 E31A     		subs	r3, r4, r3
 984 0276 9AB2     		uxth	r2, r3
 985 0278 40F20003 		movw	r3, #:lower16:ip_reass_pbufcount
 986 027c C0F20003 		movt	r3, #:upper16:ip_reass_pbufcount
 987 0280 1A80     		strh	r2, [r3, #0]	@ movhi
 988              		.loc 1 464 0
 989 0282 0098     		ldr	r0, [sp, #0]
 990 0284 FFF7FEFF 		bl	pbuf_free
 991              		.loc 1 465 0
 992 0288 4FF00003 		mov	r3, #0
 993              	.L57:
 994              		.loc 1 467 0
 995 028c 1846     		mov	r0, r3
 996 028e 0AB0     		add	sp, sp, #40
 997 0290 10BD     		pop	{r4, pc}
 998              		.cfi_endproc
 999              	.LFE12:
 1000              		.size	ip_reass_chain_frag_into_datagram_and_validate, .-ip_reass_chain_frag_into_datagram_and_vali
 1001 0292 00BFAFF3 		.section	.text.ip_reass,"ax",%progbits
 1001      0080AFF3 
 1001      0080AFF3 
 1001      0080
 1002              		.align	2
 1003              		.p2align 4,,15
 1004              		.global	ip_reass
 1005              		.thumb
 1006              		.thumb_func
 1007              		.type	ip_reass, %function
 1008              	ip_reass:
 1009              	.LFB13:
 1010              		.loc 1 477 0
 1011              		.cfi_startproc
 1012              		@ args = 0, pretend = 0, frame = 40
 1013              		@ frame_needed = 0, uses_anonymous_args = 0
 1014 0000 10B5     		push	{r4, lr}
 1015              	.LCFI12:
 1016              		.cfi_def_cfa_offset 8
 1017              		.cfi_offset 14, -4
ARM GAS  /tmp/ccRYQxIv.s 			page 19


 1018              		.cfi_offset 4, -8
 1019 0002 8AB0     		sub	sp, sp, #40
 1020              	.LCFI13:
 1021              		.cfi_def_cfa_offset 48
 1022 0004 0190     		str	r0, [sp, #4]
 1023              		.loc 1 484 0
 1024 0006 4FF00003 		mov	r3, #0
 1025 000a 0793     		str	r3, [sp, #28]
 1026              		.loc 1 486 0
 1027 000c 40F20003 		movw	r3, #:lower16:lwip_stats
 1028 0010 C0F20003 		movt	r3, #:upper16:lwip_stats
 1029 0014 5B8E     		ldrh	r3, [r3, #50]
 1030 0016 03F10103 		add	r3, r3, #1
 1031 001a 9AB2     		uxth	r2, r3
 1032 001c 40F20003 		movw	r3, #:lower16:lwip_stats
 1033 0020 C0F20003 		movt	r3, #:upper16:lwip_stats
 1034 0024 5A86     		strh	r2, [r3, #50]	@ movhi
 1035              		.loc 1 489 0
 1036 0026 019B     		ldr	r3, [sp, #4]
 1037 0028 5B68     		ldr	r3, [r3, #4]
 1038 002a 0693     		str	r3, [sp, #24]
 1039              		.loc 1 491 0
 1040 002c 069B     		ldr	r3, [sp, #24]
 1041 002e 1B88     		ldrh	r3, [r3, #0]	@ unaligned
 1042 0030 9BB2     		uxth	r3, r3
 1043 0032 1846     		mov	r0, r3
 1044 0034 FFF7FEFF 		bl	lwip_ntohs
 1045 0038 0346     		mov	r3, r0
 1046 003a 4FEA1323 		lsr	r3, r3, #8
 1047 003e 9BB2     		uxth	r3, r3
 1048 0040 03F00F03 		and	r3, r3, #15
 1049 0044 4FEA8303 		lsl	r3, r3, #2
 1050 0048 142B     		cmp	r3, #20
 1051 004a 0FD0     		beq	.L61
 1052              		.loc 1 493 0
 1053 004c 40F20003 		movw	r3, #:lower16:lwip_stats
 1054 0050 C0F20003 		movt	r3, #:upper16:lwip_stats
 1055 0054 B3F84430 		ldrh	r3, [r3, #68]
 1056 0058 03F10103 		add	r3, r3, #1
 1057 005c 9AB2     		uxth	r2, r3
 1058 005e 40F20003 		movw	r3, #:lower16:lwip_stats
 1059 0062 C0F20003 		movt	r3, #:upper16:lwip_stats
 1060 0066 A3F84420 		strh	r2, [r3, #68]	@ movhi
 1061              		.loc 1 494 0
 1062 006a 60E1     		b	.L62
 1063              	.L61:
 1064              		.loc 1 497 0
 1065 006c 069B     		ldr	r3, [sp, #24]
 1066 006e DB88     		ldrh	r3, [r3, #6]	@ unaligned
 1067 0070 9BB2     		uxth	r3, r3
 1068 0072 1846     		mov	r0, r3
 1069 0074 FFF7FEFF 		bl	lwip_ntohs
 1070 0078 0346     		mov	r3, r0
 1071 007a 4FEAC343 		lsl	r3, r3, #19
 1072 007e 4FEAD343 		lsr	r3, r3, #19
 1073 0082 9BB2     		uxth	r3, r3
 1074 0084 4FEAC303 		lsl	r3, r3, #3
ARM GAS  /tmp/ccRYQxIv.s 			page 20


 1075 0088 ADF81630 		strh	r3, [sp, #22]	@ movhi
 1076              		.loc 1 498 0
 1077 008c 069B     		ldr	r3, [sp, #24]
 1078 008e 5B88     		ldrh	r3, [r3, #2]	@ unaligned
 1079 0090 9BB2     		uxth	r3, r3
 1080 0092 1846     		mov	r0, r3
 1081 0094 FFF7FEFF 		bl	lwip_ntohs
 1082 0098 0346     		mov	r3, r0
 1083 009a 1C46     		mov	r4, r3
 1084 009c 069B     		ldr	r3, [sp, #24]
 1085 009e 1B88     		ldrh	r3, [r3, #0]	@ unaligned
 1086 00a0 9BB2     		uxth	r3, r3
 1087 00a2 1846     		mov	r0, r3
 1088 00a4 FFF7FEFF 		bl	lwip_ntohs
 1089 00a8 0346     		mov	r3, r0
 1090 00aa 4FEA1323 		lsr	r3, r3, #8
 1091 00ae 9BB2     		uxth	r3, r3
 1092 00b0 03F00F03 		and	r3, r3, #15
 1093 00b4 9BB2     		uxth	r3, r3
 1094 00b6 1A46     		mov	r2, r3	@ movhi
 1095 00b8 4FEA8232 		lsl	r2, r2, #14
 1096 00bc D31A     		subs	r3, r2, r3
 1097 00be 4FEA8303 		lsl	r3, r3, #2
 1098 00c2 9BB2     		uxth	r3, r3
 1099 00c4 E318     		adds	r3, r4, r3
 1100 00c6 ADF81430 		strh	r3, [sp, #20]	@ movhi
 1101              		.loc 1 501 0
 1102 00ca 0198     		ldr	r0, [sp, #4]
 1103 00cc FFF7FEFF 		bl	pbuf_clen
 1104 00d0 0346     		mov	r3, r0
 1105 00d2 8DF81330 		strb	r3, [sp, #19]
 1106              		.loc 1 502 0
 1107 00d6 40F20003 		movw	r3, #:lower16:ip_reass_pbufcount
 1108 00da C0F20003 		movt	r3, #:upper16:ip_reass_pbufcount
 1109 00de 1B88     		ldrh	r3, [r3, #0]
 1110 00e0 1A46     		mov	r2, r3
 1111 00e2 9DF81330 		ldrb	r3, [sp, #19]	@ zero_extendqisi2
 1112 00e6 D318     		adds	r3, r2, r3
 1113 00e8 0A2B     		cmp	r3, #10
 1114 00ea 21DD     		ble	.L63
 1115              		.loc 1 504 0
 1116 00ec 9DF81330 		ldrb	r3, [sp, #19]	@ zero_extendqisi2
 1117 00f0 0698     		ldr	r0, [sp, #24]
 1118 00f2 1946     		mov	r1, r3
 1119 00f4 FFF7FEFF 		bl	ip_reass_remove_oldest_datagram
 1120 00f8 0346     		mov	r3, r0
 1121 00fa 002B     		cmp	r3, #0
 1122 00fc 0AD0     		beq	.L64
 1123              		.loc 1 505 0 discriminator 1
 1124 00fe 40F20003 		movw	r3, #:lower16:ip_reass_pbufcount
 1125 0102 C0F20003 		movt	r3, #:upper16:ip_reass_pbufcount
 1126 0106 1B88     		ldrh	r3, [r3, #0]
 1127 0108 1A46     		mov	r2, r3
 1128 010a 9DF81330 		ldrb	r3, [sp, #19]	@ zero_extendqisi2
 1129 010e D318     		adds	r3, r2, r3
 1130              		.loc 1 504 0 discriminator 1
 1131 0110 0A2B     		cmp	r3, #10
ARM GAS  /tmp/ccRYQxIv.s 			page 21


 1132 0112 0DDD     		ble	.L63
 1133              	.L64:
 1134              		.loc 1 511 0
 1135 0114 40F20003 		movw	r3, #:lower16:lwip_stats
 1136 0118 C0F20003 		movt	r3, #:upper16:lwip_stats
 1137 011c 9B8F     		ldrh	r3, [r3, #60]
 1138 011e 03F10103 		add	r3, r3, #1
 1139 0122 9AB2     		uxth	r2, r3
 1140 0124 40F20003 		movw	r3, #:lower16:lwip_stats
 1141 0128 C0F20003 		movt	r3, #:upper16:lwip_stats
 1142 012c 9A87     		strh	r2, [r3, #60]	@ movhi
 1143              		.loc 1 514 0
 1144 012e FEE0     		b	.L62
 1145              	.L63:
 1146              		.loc 1 520 0
 1147 0130 40F20003 		movw	r3, #:lower16:reassdatagrams
 1148 0134 C0F20003 		movt	r3, #:upper16:reassdatagrams
 1149 0138 1B68     		ldr	r3, [r3, #0]
 1150 013a 0893     		str	r3, [sp, #32]
 1151 013c 27E0     		b	.L65
 1152              	.L68:
 1153              		.loc 1 524 0
 1154 013e 089B     		ldr	r3, [sp, #32]
 1155 0140 5A69     		ldr	r2, [r3, #20]
 1156 0142 069B     		ldr	r3, [sp, #24]
 1157 0144 DB68     		ldr	r3, [r3, #12]	@ unaligned
 1158 0146 9A42     		cmp	r2, r3
 1159 0148 1CD1     		bne	.L66
 1160              		.loc 1 524 0 is_stmt 0 discriminator 1
 1161 014a 089B     		ldr	r3, [sp, #32]
 1162 014c 9A69     		ldr	r2, [r3, #24]
 1163 014e 069B     		ldr	r3, [sp, #24]
 1164 0150 1B69     		ldr	r3, [r3, #16]	@ unaligned
 1165 0152 9A42     		cmp	r2, r3
 1166 0154 16D1     		bne	.L66
 1167 0156 089B     		ldr	r3, [sp, #32]
 1168 0158 9A89     		ldrh	r2, [r3, #12]
 1169 015a 069B     		ldr	r3, [sp, #24]
 1170 015c 9B88     		ldrh	r3, [r3, #4]	@ unaligned
 1171 015e 9BB2     		uxth	r3, r3
 1172 0160 9A42     		cmp	r2, r3
 1173 0162 0FD1     		bne	.L66
 1174              		.loc 1 527 0 is_stmt 1
 1175 0164 40F20003 		movw	r3, #:lower16:lwip_stats
 1176 0168 C0F20003 		movt	r3, #:upper16:lwip_stats
 1177 016c B3F84630 		ldrh	r3, [r3, #70]
 1178 0170 03F10103 		add	r3, r3, #1
 1179 0174 9AB2     		uxth	r2, r3
 1180 0176 40F20003 		movw	r3, #:lower16:lwip_stats
 1181 017a C0F20003 		movt	r3, #:upper16:lwip_stats
 1182 017e A3F84620 		strh	r2, [r3, #70]	@ movhi
 1183              		.loc 1 528 0
 1184 0182 07E0     		b	.L67
 1185              	.L66:
 1186              		.loc 1 530 0
 1187 0184 089B     		ldr	r3, [sp, #32]
 1188 0186 0793     		str	r3, [sp, #28]
ARM GAS  /tmp/ccRYQxIv.s 			page 22


 1189              		.loc 1 520 0
 1190 0188 089B     		ldr	r3, [sp, #32]
 1191 018a 1B68     		ldr	r3, [r3, #0]
 1192 018c 0893     		str	r3, [sp, #32]
 1193              	.L65:
 1194              		.loc 1 520 0 is_stmt 0 discriminator 1
 1195 018e 089B     		ldr	r3, [sp, #32]
 1196 0190 002B     		cmp	r3, #0
 1197 0192 D4D1     		bne	.L68
 1198              	.L67:
 1199              		.loc 1 533 0 is_stmt 1
 1200 0194 089B     		ldr	r3, [sp, #32]
 1201 0196 002B     		cmp	r3, #0
 1202 0198 0BD1     		bne	.L69
 1203              		.loc 1 535 0
 1204 019a 9DF81330 		ldrb	r3, [sp, #19]	@ zero_extendqisi2
 1205 019e 0698     		ldr	r0, [sp, #24]
 1206 01a0 1946     		mov	r1, r3
 1207 01a2 FFF7FEFF 		bl	ip_reass_enqueue_new_datagram
 1208 01a6 0346     		mov	r3, r0
 1209 01a8 0893     		str	r3, [sp, #32]
 1210              		.loc 1 537 0
 1211 01aa 089B     		ldr	r3, [sp, #32]
 1212 01ac 002B     		cmp	r3, #0
 1213 01ae 26D1     		bne	.L70
 1214              		.loc 1 538 0
 1215 01b0 BDE0     		b	.L62
 1216              	.L69:
 1217              		.loc 1 541 0
 1218 01b2 069B     		ldr	r3, [sp, #24]
 1219 01b4 DB88     		ldrh	r3, [r3, #6]	@ unaligned
 1220 01b6 9BB2     		uxth	r3, r3
 1221 01b8 1846     		mov	r0, r3
 1222 01ba FFF7FEFF 		bl	lwip_ntohs
 1223 01be 0346     		mov	r3, r0
 1224 01c0 4FEAC343 		lsl	r3, r3, #19
 1225 01c4 4FEAD343 		lsr	r3, r3, #19
 1226 01c8 002B     		cmp	r3, #0
 1227 01ca 18D1     		bne	.L70
 1228              		.loc 1 542 0 discriminator 1
 1229 01cc 089B     		ldr	r3, [sp, #32]
 1230 01ce DB89     		ldrh	r3, [r3, #14]
 1231 01d0 1846     		mov	r0, r3
 1232 01d2 FFF7FEFF 		bl	lwip_ntohs
 1233 01d6 0346     		mov	r3, r0
 1234 01d8 4FEAC343 		lsl	r3, r3, #19
 1235 01dc 4FEAD343 		lsr	r3, r3, #19
 1236              		.loc 1 541 0 discriminator 1
 1237 01e0 002B     		cmp	r3, #0
 1238 01e2 0CD0     		beq	.L70
 1239              		.loc 1 547 0
 1240 01e4 089B     		ldr	r3, [sp, #32]
 1241 01e6 03F10802 		add	r2, r3, #8
 1242 01ea 069B     		ldr	r3, [sp, #24]
 1243 01ec 1146     		mov	r1, r2
 1244 01ee 1A46     		mov	r2, r3
 1245 01f0 4FF01403 		mov	r3, #20
ARM GAS  /tmp/ccRYQxIv.s 			page 23


 1246 01f4 0846     		mov	r0, r1
 1247 01f6 1146     		mov	r1, r2
 1248 01f8 1A46     		mov	r2, r3
 1249 01fa FFF7FEFF 		bl	memcpy
 1250              	.L70:
 1251              		.loc 1 552 0
 1252 01fe 9DF81330 		ldrb	r3, [sp, #19]	@ zero_extendqisi2
 1253 0202 9AB2     		uxth	r2, r3
 1254 0204 40F20003 		movw	r3, #:lower16:ip_reass_pbufcount
 1255 0208 C0F20003 		movt	r3, #:upper16:ip_reass_pbufcount
 1256 020c 1B88     		ldrh	r3, [r3, #0]
 1257 020e D318     		adds	r3, r2, r3
 1258 0210 9AB2     		uxth	r2, r3
 1259 0212 40F20003 		movw	r3, #:lower16:ip_reass_pbufcount
 1260 0216 C0F20003 		movt	r3, #:upper16:ip_reass_pbufcount
 1261 021a 1A80     		strh	r2, [r3, #0]	@ movhi
 1262              		.loc 1 558 0
 1263 021c 069B     		ldr	r3, [sp, #24]
 1264 021e DB88     		ldrh	r3, [r3, #6]	@ unaligned
 1265 0220 9BB2     		uxth	r3, r3
 1266 0222 03F02003 		and	r3, r3, #32
 1267 0226 002B     		cmp	r3, #0
 1268 0228 0ED1     		bne	.L71
 1269              		.loc 1 559 0
 1270 022a 089B     		ldr	r3, [sp, #32]
 1271 022c 9B7F     		ldrb	r3, [r3, #30]	@ zero_extendqisi2
 1272 022e 43F00103 		orr	r3, r3, #1
 1273 0232 DAB2     		uxtb	r2, r3
 1274 0234 089B     		ldr	r3, [sp, #32]
 1275 0236 9A77     		strb	r2, [r3, #30]
 1276              		.loc 1 560 0
 1277 0238 BDF81620 		ldrh	r2, [sp, #22]	@ movhi
 1278 023c BDF81430 		ldrh	r3, [sp, #20]	@ movhi
 1279 0240 D318     		adds	r3, r2, r3
 1280 0242 9AB2     		uxth	r2, r3
 1281 0244 089B     		ldr	r3, [sp, #32]
 1282 0246 9A83     		strh	r2, [r3, #28]	@ movhi
 1283              	.L71:
 1284              		.loc 1 567 0
 1285 0248 0898     		ldr	r0, [sp, #32]
 1286 024a 0199     		ldr	r1, [sp, #4]
 1287 024c FFF7FEFF 		bl	ip_reass_chain_frag_into_datagram_and_validate
 1288 0250 0346     		mov	r3, r0
 1289 0252 002B     		cmp	r3, #0
 1290 0254 68D0     		beq	.L72
 1291              		.loc 1 570 0
 1292 0256 089B     		ldr	r3, [sp, #32]
 1293 0258 9B8B     		ldrh	r3, [r3, #28]
 1294 025a 03F11403 		add	r3, r3, #20
 1295 025e 9AB2     		uxth	r2, r3
 1296 0260 089B     		ldr	r3, [sp, #32]
 1297 0262 9A83     		strh	r2, [r3, #28]	@ movhi
 1298              		.loc 1 573 0
 1299 0264 089B     		ldr	r3, [sp, #32]
 1300 0266 5B68     		ldr	r3, [r3, #4]
 1301 0268 5B68     		ldr	r3, [r3, #4]
 1302 026a 1B68     		ldr	r3, [r3, #0]	@ unaligned
ARM GAS  /tmp/ccRYQxIv.s 			page 24


 1303 026c 0993     		str	r3, [sp, #36]
 1304              		.loc 1 576 0
 1305 026e 089B     		ldr	r3, [sp, #32]
 1306 0270 5B68     		ldr	r3, [r3, #4]
 1307 0272 5B68     		ldr	r3, [r3, #4]
 1308 0274 0693     		str	r3, [sp, #24]
 1309              		.loc 1 577 0
 1310 0276 089B     		ldr	r3, [sp, #32]
 1311 0278 03F10803 		add	r3, r3, #8
 1312 027c 069A     		ldr	r2, [sp, #24]
 1313 027e 1146     		mov	r1, r2
 1314 0280 1A46     		mov	r2, r3
 1315 0282 4FF01403 		mov	r3, #20
 1316 0286 0846     		mov	r0, r1
 1317 0288 1146     		mov	r1, r2
 1318 028a 1A46     		mov	r2, r3
 1319 028c FFF7FEFF 		bl	memcpy
 1320              		.loc 1 578 0
 1321 0290 089B     		ldr	r3, [sp, #32]
 1322 0292 9B8B     		ldrh	r3, [r3, #28]
 1323 0294 1846     		mov	r0, r3
 1324 0296 FFF7FEFF 		bl	lwip_htons
 1325 029a 0346     		mov	r3, r0
 1326 029c 1A46     		mov	r2, r3
 1327 029e 069B     		ldr	r3, [sp, #24]
 1328 02a0 5A80     		strh	r2, [r3, #2]	@ unaligned
 1329              		.loc 1 579 0
 1330 02a2 069B     		ldr	r3, [sp, #24]
 1331 02a4 4FF00002 		mov	r2, #0
 1332 02a8 9A71     		strb	r2, [r3, #6]
 1333 02aa 4FF00002 		mov	r2, #0
 1334 02ae DA71     		strb	r2, [r3, #7]
 1335              		.loc 1 580 0
 1336 02b0 069B     		ldr	r3, [sp, #24]
 1337 02b2 4FF00002 		mov	r2, #0
 1338 02b6 9A72     		strb	r2, [r3, #10]
 1339 02b8 4FF00002 		mov	r2, #0
 1340 02bc DA72     		strb	r2, [r3, #11]
 1341              		.loc 1 582 0
 1342 02be 0698     		ldr	r0, [sp, #24]
 1343 02c0 4FF01401 		mov	r1, #20
 1344 02c4 FFF7FEFF 		bl	inet_chksum
 1345 02c8 0346     		mov	r3, r0
 1346 02ca 1A46     		mov	r2, r3
 1347 02cc 069B     		ldr	r3, [sp, #24]
 1348 02ce 5A81     		strh	r2, [r3, #10]	@ unaligned
 1349              		.loc 1 584 0
 1350 02d0 089B     		ldr	r3, [sp, #32]
 1351 02d2 5B68     		ldr	r3, [r3, #4]
 1352 02d4 0193     		str	r3, [sp, #4]
 1353              		.loc 1 587 0
 1354 02d6 0EE0     		b	.L73
 1355              	.L74:
 1356              		.loc 1 588 0
 1357 02d8 099B     		ldr	r3, [sp, #36]
 1358 02da 5B68     		ldr	r3, [r3, #4]
 1359 02dc 0393     		str	r3, [sp, #12]
ARM GAS  /tmp/ccRYQxIv.s 			page 25


 1360              		.loc 1 591 0
 1361 02de 0998     		ldr	r0, [sp, #36]
 1362 02e0 6FF01301 		mvn	r1, #19
 1363 02e4 FFF7FEFF 		bl	pbuf_header
 1364              		.loc 1 592 0
 1365 02e8 0198     		ldr	r0, [sp, #4]
 1366 02ea 0999     		ldr	r1, [sp, #36]
 1367 02ec FFF7FEFF 		bl	pbuf_cat
 1368              		.loc 1 593 0
 1369 02f0 039B     		ldr	r3, [sp, #12]
 1370 02f2 1B68     		ldr	r3, [r3, #0]	@ unaligned
 1371 02f4 0993     		str	r3, [sp, #36]
 1372              	.L73:
 1373              		.loc 1 587 0 discriminator 1
 1374 02f6 099B     		ldr	r3, [sp, #36]
 1375 02f8 002B     		cmp	r3, #0
 1376 02fa EDD1     		bne	.L74
 1377              		.loc 1 596 0
 1378 02fc 0898     		ldr	r0, [sp, #32]
 1379 02fe 0799     		ldr	r1, [sp, #28]
 1380 0300 FFF7FEFF 		bl	ip_reass_dequeue_datagram
 1381              		.loc 1 599 0
 1382 0304 40F20003 		movw	r3, #:lower16:ip_reass_pbufcount
 1383 0308 C0F20003 		movt	r3, #:upper16:ip_reass_pbufcount
 1384 030c 1C88     		ldrh	r4, [r3, #0]
 1385 030e 0198     		ldr	r0, [sp, #4]
 1386 0310 FFF7FEFF 		bl	pbuf_clen
 1387 0314 0346     		mov	r3, r0
 1388 0316 E31A     		subs	r3, r4, r3
 1389 0318 9AB2     		uxth	r2, r3
 1390 031a 40F20003 		movw	r3, #:lower16:ip_reass_pbufcount
 1391 031e C0F20003 		movt	r3, #:upper16:ip_reass_pbufcount
 1392 0322 1A80     		strh	r2, [r3, #0]	@ movhi
 1393              		.loc 1 602 0
 1394 0324 019B     		ldr	r3, [sp, #4]
 1395 0326 14E0     		b	.L75
 1396              	.L72:
 1397              		.loc 1 606 0
 1398 0328 4FF00003 		mov	r3, #0
 1399 032c 11E0     		b	.L75
 1400              	.L62:
 1401              		.loc 1 610 0
 1402 032e 40F20003 		movw	r3, #:lower16:lwip_stats
 1403 0332 C0F20003 		movt	r3, #:upper16:lwip_stats
 1404 0336 DB8E     		ldrh	r3, [r3, #54]
 1405 0338 03F10103 		add	r3, r3, #1
 1406 033c 9AB2     		uxth	r2, r3
 1407 033e 40F20003 		movw	r3, #:lower16:lwip_stats
 1408 0342 C0F20003 		movt	r3, #:upper16:lwip_stats
 1409 0346 DA86     		strh	r2, [r3, #54]	@ movhi
 1410              		.loc 1 611 0
 1411 0348 0198     		ldr	r0, [sp, #4]
 1412 034a FFF7FEFF 		bl	pbuf_free
 1413              		.loc 1 612 0
 1414 034e 4FF00003 		mov	r3, #0
 1415              	.L75:
 1416              		.loc 1 613 0
ARM GAS  /tmp/ccRYQxIv.s 			page 26


 1417 0352 1846     		mov	r0, r3
 1418 0354 0AB0     		add	sp, sp, #40
 1419 0356 10BD     		pop	{r4, pc}
 1420              		.cfi_endproc
 1421              	.LFE13:
 1422              		.size	ip_reass, .-ip_reass
 1423 0358 AFF30080 		.section	.text.ip_frag_alloc_pbuf_custom_ref,"ax",%progbits
 1423      AFF30080 
 1424              		.align	2
 1425              		.p2align 4,,15
 1426              		.thumb
 1427              		.thumb_func
 1428              		.type	ip_frag_alloc_pbuf_custom_ref, %function
 1429              	ip_frag_alloc_pbuf_custom_ref:
 1430              	.LFB14:
 1431              		.loc 1 625 0
 1432              		.cfi_startproc
 1433              		@ args = 0, pretend = 0, frame = 0
 1434              		@ frame_needed = 0, uses_anonymous_args = 0
 1435 0000 08B5     		push	{r3, lr}
 1436              	.LCFI14:
 1437              		.cfi_def_cfa_offset 8
 1438              		.cfi_offset 14, -4
 1439              		.cfi_offset 3, -8
 1440              		.loc 1 626 0
 1441 0002 4FF00600 		mov	r0, #6
 1442 0006 FFF7FEFF 		bl	memp_malloc
 1443 000a 0346     		mov	r3, r0
 1444              		.loc 1 627 0
 1445 000c 1846     		mov	r0, r3
 1446 000e 08BD     		pop	{r3, pc}
 1447              		.cfi_endproc
 1448              	.LFE14:
 1449              		.size	ip_frag_alloc_pbuf_custom_ref, .-ip_frag_alloc_pbuf_custom_ref
 1450              		.section	.text.ip_frag_free_pbuf_custom_ref,"ax",%progbits
 1451              		.align	2
 1452              		.p2align 4,,15
 1453              		.thumb
 1454              		.thumb_func
 1455              		.type	ip_frag_free_pbuf_custom_ref, %function
 1456              	ip_frag_free_pbuf_custom_ref:
 1457              	.LFB15:
 1458              		.loc 1 632 0
 1459              		.cfi_startproc
 1460              		@ args = 0, pretend = 0, frame = 8
 1461              		@ frame_needed = 0, uses_anonymous_args = 0
 1462 0000 00B5     		push	{lr}
 1463              	.LCFI15:
 1464              		.cfi_def_cfa_offset 4
 1465              		.cfi_offset 14, -4
 1466 0002 83B0     		sub	sp, sp, #12
 1467              	.LCFI16:
 1468              		.cfi_def_cfa_offset 16
 1469 0004 0190     		str	r0, [sp, #4]
 1470              		.loc 1 633 0
 1471 0006 019B     		ldr	r3, [sp, #4]
 1472 0008 002B     		cmp	r3, #0
ARM GAS  /tmp/ccRYQxIv.s 			page 27


 1473 000a 01D1     		bne	.L78
 1474              		.loc 1 633 0 is_stmt 0 discriminator 1
 1475 000c FFF7FEFF 		bl	port_halt
 1476              	.L78:
 1477              		.loc 1 634 0 is_stmt 1
 1478 0010 4FF00600 		mov	r0, #6
 1479 0014 0199     		ldr	r1, [sp, #4]
 1480 0016 FFF7FEFF 		bl	memp_free
 1481              		.loc 1 635 0
 1482 001a 03B0     		add	sp, sp, #12
 1483 001c 00BD     		pop	{pc}
 1484              		.cfi_endproc
 1485              	.LFE15:
 1486              		.size	ip_frag_free_pbuf_custom_ref, .-ip_frag_free_pbuf_custom_ref
 1487 001e 00BF     		.section	.text.ipfrag_free_pbuf_custom,"ax",%progbits
 1488              		.align	2
 1489              		.p2align 4,,15
 1490              		.thumb
 1491              		.thumb_func
 1492              		.type	ipfrag_free_pbuf_custom, %function
 1493              	ipfrag_free_pbuf_custom:
 1494              	.LFB16:
 1495              		.loc 1 641 0
 1496              		.cfi_startproc
 1497              		@ args = 0, pretend = 0, frame = 16
 1498              		@ frame_needed = 0, uses_anonymous_args = 0
 1499 0000 00B5     		push	{lr}
 1500              	.LCFI17:
 1501              		.cfi_def_cfa_offset 4
 1502              		.cfi_offset 14, -4
 1503 0002 85B0     		sub	sp, sp, #20
 1504              	.LCFI18:
 1505              		.cfi_def_cfa_offset 24
 1506 0004 0190     		str	r0, [sp, #4]
 1507              		.loc 1 642 0
 1508 0006 019B     		ldr	r3, [sp, #4]
 1509 0008 0393     		str	r3, [sp, #12]
 1510              		.loc 1 643 0
 1511 000a 039B     		ldr	r3, [sp, #12]
 1512 000c 002B     		cmp	r3, #0
 1513 000e 01D1     		bne	.L80
 1514              		.loc 1 643 0 is_stmt 0 discriminator 1
 1515 0010 FFF7FEFF 		bl	port_halt
 1516              	.L80:
 1517              		.loc 1 644 0 is_stmt 1
 1518 0014 039A     		ldr	r2, [sp, #12]
 1519 0016 019B     		ldr	r3, [sp, #4]
 1520 0018 9A42     		cmp	r2, r3
 1521 001a 01D0     		beq	.L81
 1522              		.loc 1 644 0 is_stmt 0 discriminator 1
 1523 001c FFF7FEFF 		bl	port_halt
 1524              	.L81:
 1525              		.loc 1 645 0 is_stmt 1
 1526 0020 039B     		ldr	r3, [sp, #12]
 1527 0022 5B69     		ldr	r3, [r3, #20]
 1528 0024 002B     		cmp	r3, #0
 1529 0026 04D0     		beq	.L82
ARM GAS  /tmp/ccRYQxIv.s 			page 28


 1530              		.loc 1 646 0
 1531 0028 039B     		ldr	r3, [sp, #12]
 1532 002a 5B69     		ldr	r3, [r3, #20]
 1533 002c 1846     		mov	r0, r3
 1534 002e FFF7FEFF 		bl	pbuf_free
 1535              	.L82:
 1536              		.loc 1 648 0
 1537 0032 0398     		ldr	r0, [sp, #12]
 1538 0034 FFF7FEFF 		bl	ip_frag_free_pbuf_custom_ref
 1539              		.loc 1 649 0
 1540 0038 05B0     		add	sp, sp, #20
 1541 003a 00BD     		pop	{pc}
 1542              		.cfi_endproc
 1543              	.LFE16:
 1544              		.size	ipfrag_free_pbuf_custom, .-ipfrag_free_pbuf_custom
 1545 003c AFF30080 		.section	.text.ip_frag,"ax",%progbits
 1546              		.align	2
 1547              		.p2align 4,,15
 1548              		.global	ip_frag
 1549              		.thumb
 1550              		.thumb_func
 1551              		.type	ip_frag, %function
 1552              	ip_frag:
 1553              	.LFB17:
 1554              		.loc 1 668 0
 1555              		.cfi_startproc
 1556              		@ args = 0, pretend = 0, frame = 64
 1557              		@ frame_needed = 0, uses_anonymous_args = 0
 1558 0000 00B5     		push	{lr}
 1559              	.LCFI19:
 1560              		.cfi_def_cfa_offset 4
 1561              		.cfi_offset 14, -4
 1562 0002 93B0     		sub	sp, sp, #76
 1563              	.LCFI20:
 1564              		.cfi_def_cfa_offset 80
 1565 0004 0590     		str	r0, [sp, #20]
 1566 0006 0491     		str	r1, [sp, #16]
 1567 0008 0392     		str	r2, [sp, #12]
 1568              		.loc 1 681 0
 1569 000a 049B     		ldr	r3, [sp, #16]
 1570 000c 1B8C     		ldrh	r3, [r3, #32]	@ movhi
 1571 000e ADF83A30 		strh	r3, [sp, #58]	@ movhi
 1572              		.loc 1 684 0
 1573 0012 4FF01403 		mov	r3, #20
 1574 0016 ADF84230 		strh	r3, [sp, #66]	@ movhi
 1575              		.loc 1 687 0
 1576 001a 4FF00003 		mov	r3, #0
 1577 001e ADF83E30 		strh	r3, [sp, #62]	@ movhi
 1578              		.loc 1 709 0
 1579 0022 059B     		ldr	r3, [sp, #20]
 1580 0024 5B68     		ldr	r3, [r3, #4]
 1581 0026 0D93     		str	r3, [sp, #52]
 1582              		.loc 1 710 0
 1583 0028 0D9B     		ldr	r3, [sp, #52]
 1584 002a 0C93     		str	r3, [sp, #48]
 1585              		.loc 1 714 0
 1586 002c 0C9B     		ldr	r3, [sp, #48]
ARM GAS  /tmp/ccRYQxIv.s 			page 29


 1587 002e DB88     		ldrh	r3, [r3, #6]	@ unaligned
 1588 0030 9BB2     		uxth	r3, r3
 1589 0032 1846     		mov	r0, r3
 1590 0034 FFF7FEFF 		bl	lwip_ntohs
 1591 0038 0346     		mov	r3, r0
 1592 003a ADF84030 		strh	r3, [sp, #64]	@ movhi
 1593              		.loc 1 715 0
 1594 003e BDF84030 		ldrh	r3, [sp, #64]	@ movhi
 1595 0042 4FEAC343 		lsl	r3, r3, #19
 1596 0046 4FEAD343 		lsr	r3, r3, #19
 1597 004a ADF84430 		strh	r3, [sp, #68]	@ movhi
 1598              		.loc 1 716 0
 1599 004e BDF84030 		ldrh	r3, [sp, #64]	@ movhi
 1600 0052 03F40053 		and	r3, r3, #8192
 1601 0056 ADF82E30 		strh	r3, [sp, #46]	@ movhi
 1602              		.loc 1 718 0
 1603 005a 059B     		ldr	r3, [sp, #20]
 1604 005c 1B89     		ldrh	r3, [r3, #8]
 1605 005e A3F11403 		sub	r3, r3, #20
 1606 0062 ADF84630 		strh	r3, [sp, #70]	@ movhi
 1607              		.loc 1 720 0
 1608 0066 BDF83A30 		ldrh	r3, [sp, #58]
 1609 006a A3F11403 		sub	r3, r3, #20
 1610 006e 002B     		cmp	r3, #0
 1611 0070 01DA     		bge	.L84
 1612 0072 03F10703 		add	r3, r3, #7
 1613              	.L84:
 1614 0076 4FEAE303 		asr	r3, r3, #3
 1615 007a ADF82C30 		strh	r3, [sp, #44]	@ movhi
 1616              		.loc 1 722 0
 1617 007e 13E1     		b	.L85
 1618              	.L97:
 1619              		.loc 1 723 0
 1620 0080 BDF84620 		ldrh	r2, [sp, #70]
 1621 0084 BDF83A30 		ldrh	r3, [sp, #58]
 1622 0088 A3F11403 		sub	r3, r3, #20
 1623 008c 9A42     		cmp	r2, r3
 1624 008e CCBF     		ite	gt
 1625 0090 0023     		movgt	r3, #0
 1626 0092 0123     		movle	r3, #1
 1627 0094 ADF82A30 		strh	r3, [sp, #42]	@ movhi
 1628              		.loc 1 726 0
 1629 0098 BDF84430 		ldrh	r3, [sp, #68]	@ movhi
 1630 009c 4FEAC343 		lsl	r3, r3, #19
 1631 00a0 4FEAD343 		lsr	r3, r3, #19
 1632 00a4 9AB2     		uxth	r2, r3
 1633 00a6 BDF82E30 		ldrh	r3, [sp, #46]	@ movhi
 1634 00aa 1343     		orrs	r3, r3, r2
 1635 00ac ADF84030 		strh	r3, [sp, #64]	@ movhi
 1636              		.loc 1 727 0
 1637 00b0 BDF82A30 		ldrh	r3, [sp, #42]
 1638 00b4 002B     		cmp	r3, #0
 1639 00b6 05D1     		bne	.L86
 1640              		.loc 1 728 0
 1641 00b8 BDF84030 		ldrh	r3, [sp, #64]	@ movhi
 1642 00bc 43F40053 		orr	r3, r3, #8192
 1643 00c0 ADF84030 		strh	r3, [sp, #64]	@ movhi
ARM GAS  /tmp/ccRYQxIv.s 			page 30


 1644              	.L86:
 1645              		.loc 1 732 0
 1646 00c4 BDF82A30 		ldrh	r3, [sp, #42]
 1647 00c8 002B     		cmp	r3, #0
 1648 00ca 05D1     		bne	.L87
 1649              		.loc 1 732 0 is_stmt 0 discriminator 1
 1650 00cc BDF82C30 		ldrh	r3, [sp, #44]	@ movhi
 1651 00d0 4FEAC303 		lsl	r3, r3, #3
 1652 00d4 9BB2     		uxth	r3, r3
 1653 00d6 01E0     		b	.L88
 1654              	.L87:
 1655              		.loc 1 732 0 discriminator 2
 1656 00d8 BDF84630 		ldrh	r3, [sp, #70]
 1657              	.L88:
 1658              		.loc 1 732 0 discriminator 3
 1659 00dc ADF82830 		strh	r3, [sp, #40]	@ movhi
 1660              		.loc 1 759 0 is_stmt 1 discriminator 3
 1661 00e0 4FF00200 		mov	r0, #2
 1662 00e4 4FF01401 		mov	r1, #20
 1663 00e8 4FF00002 		mov	r2, #0
 1664 00ec FFF7FEFF 		bl	pbuf_alloc
 1665 00f0 0346     		mov	r3, r0
 1666 00f2 0993     		str	r3, [sp, #36]
 1667              		.loc 1 760 0 discriminator 3
 1668 00f4 099B     		ldr	r3, [sp, #36]
 1669 00f6 002B     		cmp	r3, #0
 1670 00f8 02D1     		bne	.L89
 1671              		.loc 1 761 0
 1672 00fa 4FF0FF03 		mov	r3, #255
 1673 00fe DAE0     		b	.L90
 1674              	.L89:
 1675              		.loc 1 763 0
 1676 0100 059B     		ldr	r3, [sp, #20]
 1677 0102 5B89     		ldrh	r3, [r3, #10]
 1678 0104 132B     		cmp	r3, #19
 1679 0106 01D8     		bhi	.L91
 1680              		.loc 1 763 0 is_stmt 0 discriminator 1
 1681 0108 FFF7FEFF 		bl	port_halt
 1682              	.L91:
 1683              		.loc 1 765 0 is_stmt 1
 1684 010c 099B     		ldr	r3, [sp, #36]
 1685 010e 5A68     		ldr	r2, [r3, #4]
 1686 0110 0D9B     		ldr	r3, [sp, #52]
 1687 0112 1146     		mov	r1, r2
 1688 0114 1A46     		mov	r2, r3
 1689 0116 4FF01403 		mov	r3, #20
 1690 011a 0846     		mov	r0, r1
 1691 011c 1146     		mov	r1, r2
 1692 011e 1A46     		mov	r2, r3
 1693 0120 FFF7FEFF 		bl	memcpy
 1694              		.loc 1 766 0
 1695 0124 099B     		ldr	r3, [sp, #36]
 1696 0126 5B68     		ldr	r3, [r3, #4]
 1697 0128 0C93     		str	r3, [sp, #48]
 1698              		.loc 1 769 0
 1699 012a 059B     		ldr	r3, [sp, #20]
 1700 012c 5A68     		ldr	r2, [r3, #4]
ARM GAS  /tmp/ccRYQxIv.s 			page 31


 1701 012e BDF84230 		ldrh	r3, [sp, #66]
 1702 0132 D218     		adds	r2, r2, r3
 1703 0134 059B     		ldr	r3, [sp, #20]
 1704 0136 5A60     		str	r2, [r3, #4]
 1705              		.loc 1 770 0
 1706 0138 059B     		ldr	r3, [sp, #20]
 1707 013a 5A89     		ldrh	r2, [r3, #10]
 1708 013c BDF84230 		ldrh	r3, [sp, #66]	@ movhi
 1709 0140 D31A     		subs	r3, r2, r3
 1710 0142 9AB2     		uxth	r2, r3
 1711 0144 059B     		ldr	r3, [sp, #20]
 1712 0146 5A81     		strh	r2, [r3, #10]	@ movhi
 1713              		.loc 1 772 0
 1714 0148 BDF82830 		ldrh	r3, [sp, #40]	@ movhi
 1715 014c ADF83C30 		strh	r3, [sp, #60]	@ movhi
 1716              		.loc 1 773 0
 1717 0150 59E0     		b	.L92
 1718              	.L96:
 1719              	.LBB4:
 1720              		.loc 1 775 0
 1721 0152 059B     		ldr	r3, [sp, #20]
 1722 0154 5A89     		ldrh	r2, [r3, #10]
 1723 0156 BDF83C30 		ldrh	r3, [sp, #60]
 1724 015a 9A42     		cmp	r2, r3
 1725 015c 38BF     		it	cc
 1726 015e 1346     		movcc	r3, r2
 1727 0160 ADF83E30 		strh	r3, [sp, #62]	@ movhi
 1728              		.loc 1 777 0
 1729 0164 BDF83E30 		ldrh	r3, [sp, #62]
 1730 0168 002B     		cmp	r3, #0
 1731 016a 03D1     		bne	.L93
 1732              		.loc 1 778 0
 1733 016c 059B     		ldr	r3, [sp, #20]
 1734 016e 1B68     		ldr	r3, [r3, #0]
 1735 0170 0593     		str	r3, [sp, #20]
 1736              		.loc 1 779 0
 1737 0172 48E0     		b	.L92
 1738              	.L93:
 1739              		.loc 1 781 0
 1740 0174 FFF7FEFF 		bl	ip_frag_alloc_pbuf_custom_ref
 1741 0178 0346     		mov	r3, r0
 1742 017a 0893     		str	r3, [sp, #32]
 1743              		.loc 1 782 0
 1744 017c 089B     		ldr	r3, [sp, #32]
 1745 017e 002B     		cmp	r3, #0
 1746 0180 05D1     		bne	.L94
 1747              		.loc 1 783 0
 1748 0182 0998     		ldr	r0, [sp, #36]
 1749 0184 FFF7FEFF 		bl	pbuf_free
 1750              		.loc 1 784 0
 1751 0188 4FF0FF03 		mov	r3, #255
 1752 018c 93E0     		b	.L90
 1753              	.L94:
 1754              		.loc 1 787 0
 1755 018e 089B     		ldr	r3, [sp, #32]
 1756 0190 059A     		ldr	r2, [sp, #20]
 1757 0192 5168     		ldr	r1, [r2, #4]
ARM GAS  /tmp/ccRYQxIv.s 			page 32


 1758 0194 BDF83E20 		ldrh	r2, [sp, #62]
 1759 0198 0091     		str	r1, [sp, #0]
 1760 019a BDF83E10 		ldrh	r1, [sp, #62]
 1761 019e 0191     		str	r1, [sp, #4]
 1762 01a0 4FF00300 		mov	r0, #3
 1763 01a4 1146     		mov	r1, r2
 1764 01a6 4FF00202 		mov	r2, #2
 1765 01aa FFF7FEFF 		bl	pbuf_alloced_custom
 1766 01ae 0346     		mov	r3, r0
 1767 01b0 0793     		str	r3, [sp, #28]
 1768              		.loc 1 788 0
 1769 01b2 079B     		ldr	r3, [sp, #28]
 1770 01b4 002B     		cmp	r3, #0
 1771 01b6 08D1     		bne	.L95
 1772              		.loc 1 789 0
 1773 01b8 0898     		ldr	r0, [sp, #32]
 1774 01ba FFF7FEFF 		bl	ip_frag_free_pbuf_custom_ref
 1775              		.loc 1 790 0
 1776 01be 0998     		ldr	r0, [sp, #36]
 1777 01c0 FFF7FEFF 		bl	pbuf_free
 1778              		.loc 1 791 0
 1779 01c4 4FF0FF03 		mov	r3, #255
 1780 01c8 75E0     		b	.L90
 1781              	.L95:
 1782              		.loc 1 793 0
 1783 01ca 0598     		ldr	r0, [sp, #20]
 1784 01cc FFF7FEFF 		bl	pbuf_ref
 1785              		.loc 1 794 0
 1786 01d0 089B     		ldr	r3, [sp, #32]
 1787 01d2 059A     		ldr	r2, [sp, #20]
 1788 01d4 5A61     		str	r2, [r3, #20]
 1789              		.loc 1 795 0
 1790 01d6 089A     		ldr	r2, [sp, #32]
 1791 01d8 40F20003 		movw	r3, #:lower16:ipfrag_free_pbuf_custom
 1792 01dc C0F20003 		movt	r3, #:upper16:ipfrag_free_pbuf_custom
 1793 01e0 1361     		str	r3, [r2, #16]
 1794              		.loc 1 800 0
 1795 01e2 0998     		ldr	r0, [sp, #36]
 1796 01e4 0799     		ldr	r1, [sp, #28]
 1797 01e6 FFF7FEFF 		bl	pbuf_cat
 1798              		.loc 1 801 0
 1799 01ea BDF83C20 		ldrh	r2, [sp, #60]	@ movhi
 1800 01ee BDF83E30 		ldrh	r3, [sp, #62]	@ movhi
 1801 01f2 D31A     		subs	r3, r2, r3
 1802 01f4 ADF83C30 		strh	r3, [sp, #60]	@ movhi
 1803              		.loc 1 802 0
 1804 01f8 BDF83C30 		ldrh	r3, [sp, #60]
 1805 01fc 002B     		cmp	r3, #0
 1806 01fe 02D0     		beq	.L92
 1807              		.loc 1 803 0
 1808 0200 059B     		ldr	r3, [sp, #20]
 1809 0202 1B68     		ldr	r3, [r3, #0]
 1810 0204 0593     		str	r3, [sp, #20]
 1811              	.L92:
 1812              	.LBE4:
 1813              		.loc 1 773 0 discriminator 1
 1814 0206 BDF83C30 		ldrh	r3, [sp, #60]
ARM GAS  /tmp/ccRYQxIv.s 			page 33


 1815 020a 002B     		cmp	r3, #0
 1816 020c A1D1     		bne	.L96
 1817              		.loc 1 806 0
 1818 020e BDF83E30 		ldrh	r3, [sp, #62]	@ movhi
 1819 0212 ADF84230 		strh	r3, [sp, #66]	@ movhi
 1820              		.loc 1 811 0
 1821 0216 BDF84030 		ldrh	r3, [sp, #64]
 1822 021a 1846     		mov	r0, r3
 1823 021c FFF7FEFF 		bl	lwip_htons
 1824 0220 0346     		mov	r3, r0
 1825 0222 1A46     		mov	r2, r3
 1826 0224 0C9B     		ldr	r3, [sp, #48]
 1827 0226 DA80     		strh	r2, [r3, #6]	@ unaligned
 1828              		.loc 1 812 0
 1829 0228 BDF82830 		ldrh	r3, [sp, #40]	@ movhi
 1830 022c 03F11403 		add	r3, r3, #20
 1831 0230 9BB2     		uxth	r3, r3
 1832 0232 1846     		mov	r0, r3
 1833 0234 FFF7FEFF 		bl	lwip_htons
 1834 0238 0346     		mov	r3, r0
 1835 023a 1A46     		mov	r2, r3
 1836 023c 0C9B     		ldr	r3, [sp, #48]
 1837 023e 5A80     		strh	r2, [r3, #2]	@ unaligned
 1838              		.loc 1 813 0
 1839 0240 0C9B     		ldr	r3, [sp, #48]
 1840 0242 4FF00002 		mov	r2, #0
 1841 0246 9A72     		strb	r2, [r3, #10]
 1842 0248 4FF00002 		mov	r2, #0
 1843 024c DA72     		strb	r2, [r3, #11]
 1844              		.loc 1 814 0
 1845 024e 0C98     		ldr	r0, [sp, #48]
 1846 0250 4FF01401 		mov	r1, #20
 1847 0254 FFF7FEFF 		bl	inet_chksum
 1848 0258 0346     		mov	r3, r0
 1849 025a 1A46     		mov	r2, r3
 1850 025c 0C9B     		ldr	r3, [sp, #48]
 1851 025e 5A81     		strh	r2, [r3, #10]	@ unaligned
 1852              		.loc 1 842 0
 1853 0260 049B     		ldr	r3, [sp, #16]
 1854 0262 5B69     		ldr	r3, [r3, #20]
 1855 0264 0498     		ldr	r0, [sp, #16]
 1856 0266 0999     		ldr	r1, [sp, #36]
 1857 0268 039A     		ldr	r2, [sp, #12]
 1858 026a 9847     		blx	r3
 1859              		.loc 1 843 0
 1860 026c 40F20003 		movw	r3, #:lower16:lwip_stats
 1861 0270 C0F20003 		movt	r3, #:upper16:lwip_stats
 1862 0274 1B8E     		ldrh	r3, [r3, #48]
 1863 0276 03F10103 		add	r3, r3, #1
 1864 027a 9AB2     		uxth	r2, r3
 1865 027c 40F20003 		movw	r3, #:lower16:lwip_stats
 1866 0280 C0F20003 		movt	r3, #:upper16:lwip_stats
 1867 0284 1A86     		strh	r2, [r3, #48]	@ movhi
 1868              		.loc 1 852 0
 1869 0286 0998     		ldr	r0, [sp, #36]
 1870 0288 FFF7FEFF 		bl	pbuf_free
 1871              		.loc 1 854 0
ARM GAS  /tmp/ccRYQxIv.s 			page 34


 1872 028c BDF84620 		ldrh	r2, [sp, #70]	@ movhi
 1873 0290 BDF82830 		ldrh	r3, [sp, #40]	@ movhi
 1874 0294 D31A     		subs	r3, r2, r3
 1875 0296 ADF84630 		strh	r3, [sp, #70]	@ movhi
 1876              		.loc 1 855 0
 1877 029a BDF84420 		ldrh	r2, [sp, #68]	@ movhi
 1878 029e BDF82C30 		ldrh	r3, [sp, #44]	@ movhi
 1879 02a2 D318     		adds	r3, r2, r3
 1880 02a4 ADF84430 		strh	r3, [sp, #68]	@ movhi
 1881              	.L85:
 1882              		.loc 1 722 0 discriminator 1
 1883 02a8 BDF84630 		ldrh	r3, [sp, #70]
 1884 02ac 002B     		cmp	r3, #0
 1885 02ae 7FF4E7AE 		bne	.L97
 1886              		.loc 1 861 0
 1887 02b2 4FF00003 		mov	r3, #0
 1888              	.L90:
 1889 02b6 5BB2     		sxtb	r3, r3
 1890              		.loc 1 862 0
 1891 02b8 1846     		mov	r0, r3
 1892 02ba 13B0     		add	sp, sp, #76
 1893 02bc 00BD     		pop	{pc}
 1894              		.cfi_endproc
 1895              	.LFE17:
 1896              		.size	ip_frag, .-ip_frag
 1897 02be 00BF     		.text
 1898              	.Letext0:
 1899              		.file 2 "/home/texzk/ChibiStudio/tools/GNU Tools ARM Embedded/4.6 2012q2/bin/../lib/gcc/arm-none-e
 1900              		.file 3 "../../os/various/lwip_bindings/arch/cc.h"
 1901              		.file 4 "../../ext/lwip/src/include/lwip/err.h"
 1902              		.file 5 "../../ext/lwip/src/include/lwip/pbuf.h"
 1903              		.file 6 "../../ext/lwip/src/include/ipv4/lwip/ip_addr.h"
 1904              		.file 7 "../../ext/lwip/src/include/lwip/netif.h"
 1905              		.file 8 "../../ext/lwip/src/include/ipv4/lwip/ip.h"
 1906              		.file 9 "../../ext/lwip/src/include/ipv4/lwip/ip_frag.h"
 1907              		.file 10 "../../ext/lwip/src/include/lwip/mem.h"
 1908              		.file 11 "../../ext/lwip/src/include/lwip/memp.h"
 1909              		.file 12 "../../ext/lwip/src/include/lwip/stats.h"
 1910              		.file 13 "../../ext/lwip/src/include/ipv4/lwip/icmp.h"
 1911              		.section	.debug_info,"",%progbits
 1912              	.Ldebug_info0:
 1913 0000 E20C0000 		.4byte	0xce2
 1914 0004 0200     		.2byte	0x2
 1915 0006 00000000 		.4byte	.Ldebug_abbrev0
 1916 000a 04       		.byte	0x4
 1917 000b 01       		.uleb128 0x1
 1918 000c 2C030000 		.4byte	.LASF150
 1919 0010 01       		.byte	0x1
 1920 0011 98060000 		.4byte	.LASF151
 1921 0015 CD010000 		.4byte	.LASF152
 1922 0019 00000000 		.4byte	0
 1923 001d 00000000 		.4byte	0
 1924 0021 00000000 		.4byte	.Ldebug_ranges0+0
 1925 0025 00000000 		.4byte	.Ldebug_line0
 1926 0029 02       		.uleb128 0x2
 1927 002a 04       		.byte	0x4
 1928 002b 05       		.byte	0x5
ARM GAS  /tmp/ccRYQxIv.s 			page 35


 1929 002c 696E7400 		.ascii	"int\000"
 1930 0030 03       		.uleb128 0x3
 1931 0031 04       		.byte	0x4
 1932 0032 07       		.byte	0x7
 1933 0033 83000000 		.4byte	.LASF0
 1934 0037 04       		.uleb128 0x4
 1935 0038 45010000 		.4byte	.LASF2
 1936 003c 02       		.byte	0x2
 1937 003d 29       		.byte	0x29
 1938 003e 42000000 		.4byte	0x42
 1939 0042 03       		.uleb128 0x3
 1940 0043 01       		.byte	0x1
 1941 0044 06       		.byte	0x6
 1942 0045 D5060000 		.4byte	.LASF1
 1943 0049 04       		.uleb128 0x4
 1944 004a 7C030000 		.4byte	.LASF3
 1945 004e 02       		.byte	0x2
 1946 004f 2A       		.byte	0x2a
 1947 0050 54000000 		.4byte	0x54
 1948 0054 03       		.uleb128 0x3
 1949 0055 01       		.byte	0x1
 1950 0056 08       		.byte	0x8
 1951 0057 0C060000 		.4byte	.LASF4
 1952 005b 03       		.uleb128 0x3
 1953 005c 02       		.byte	0x2
 1954 005d 05       		.byte	0x5
 1955 005e 87040000 		.4byte	.LASF5
 1956 0062 04       		.uleb128 0x4
 1957 0063 43040000 		.4byte	.LASF6
 1958 0067 02       		.byte	0x2
 1959 0068 36       		.byte	0x36
 1960 0069 6D000000 		.4byte	0x6d
 1961 006d 03       		.uleb128 0x3
 1962 006e 02       		.byte	0x2
 1963 006f 07       		.byte	0x7
 1964 0070 E1060000 		.4byte	.LASF7
 1965 0074 03       		.uleb128 0x3
 1966 0075 04       		.byte	0x4
 1967 0076 05       		.byte	0x5
 1968 0077 96040000 		.4byte	.LASF8
 1969 007b 04       		.uleb128 0x4
 1970 007c 3C010000 		.4byte	.LASF9
 1971 0080 02       		.byte	0x2
 1972 0081 50       		.byte	0x50
 1973 0082 86000000 		.4byte	0x86
 1974 0086 03       		.uleb128 0x3
 1975 0087 04       		.byte	0x4
 1976 0088 07       		.byte	0x7
 1977 0089 D6050000 		.4byte	.LASF10
 1978 008d 03       		.uleb128 0x3
 1979 008e 08       		.byte	0x8
 1980 008f 05       		.byte	0x5
 1981 0090 AC030000 		.4byte	.LASF11
 1982 0094 03       		.uleb128 0x3
 1983 0095 08       		.byte	0x8
 1984 0096 07       		.byte	0x7
 1985 0097 9A010000 		.4byte	.LASF12
ARM GAS  /tmp/ccRYQxIv.s 			page 36


 1986 009b 05       		.uleb128 0x5
 1987 009c 04       		.byte	0x4
 1988 009d 03       		.uleb128 0x3
 1989 009e 01       		.byte	0x1
 1990 009f 08       		.byte	0x8
 1991 00a0 DB020000 		.4byte	.LASF13
 1992 00a4 04       		.uleb128 0x4
 1993 00a5 DB030000 		.4byte	.LASF14
 1994 00a9 03       		.byte	0x3
 1995 00aa 3C       		.byte	0x3c
 1996 00ab 49000000 		.4byte	0x49
 1997 00af 04       		.uleb128 0x4
 1998 00b0 AC020000 		.4byte	.LASF15
 1999 00b4 03       		.byte	0x3
 2000 00b5 3D       		.byte	0x3d
 2001 00b6 37000000 		.4byte	0x37
 2002 00ba 04       		.uleb128 0x4
 2003 00bb B6000000 		.4byte	.LASF16
 2004 00bf 03       		.byte	0x3
 2005 00c0 3E       		.byte	0x3e
 2006 00c1 62000000 		.4byte	0x62
 2007 00c5 04       		.uleb128 0x4
 2008 00c6 81040000 		.4byte	.LASF17
 2009 00ca 03       		.byte	0x3
 2010 00cb 40       		.byte	0x40
 2011 00cc 7B000000 		.4byte	0x7b
 2012 00d0 04       		.uleb128 0x4
 2013 00d1 A0000000 		.4byte	.LASF18
 2014 00d5 04       		.byte	0x4
 2015 00d6 2F       		.byte	0x2f
 2016 00d7 AF000000 		.4byte	0xaf
 2017 00db 06       		.uleb128 0x6
 2018 00dc 01       		.byte	0x1
 2019 00dd 05       		.byte	0x5
 2020 00de 32       		.byte	0x32
 2021 00df FC000000 		.4byte	0xfc
 2022 00e3 07       		.uleb128 0x7
 2023 00e4 10010000 		.4byte	.LASF19
 2024 00e8 00       		.sleb128 0
 2025 00e9 07       		.uleb128 0x7
 2026 00ea 78020000 		.4byte	.LASF20
 2027 00ee 01       		.sleb128 1
 2028 00ef 07       		.uleb128 0x7
 2029 00f0 2F040000 		.4byte	.LASF21
 2030 00f4 02       		.sleb128 2
 2031 00f5 07       		.uleb128 0x7
 2032 00f6 54000000 		.4byte	.LASF22
 2033 00fa 03       		.sleb128 3
 2034 00fb 00       		.byte	0
 2035 00fc 06       		.uleb128 0x6
 2036 00fd 01       		.byte	0x1
 2037 00fe 05       		.byte	0x5
 2038 00ff 39       		.byte	0x39
 2039 0100 1D010000 		.4byte	0x11d
 2040 0104 07       		.uleb128 0x7
 2041 0105 43000000 		.4byte	.LASF23
 2042 0109 00       		.sleb128 0
ARM GAS  /tmp/ccRYQxIv.s 			page 37


 2043 010a 07       		.uleb128 0x7
 2044 010b 08070000 		.4byte	.LASF24
 2045 010f 01       		.sleb128 1
 2046 0110 07       		.uleb128 0x7
 2047 0111 4F020000 		.4byte	.LASF25
 2048 0115 02       		.sleb128 2
 2049 0116 07       		.uleb128 0x7
 2050 0117 99020000 		.4byte	.LASF26
 2051 011b 03       		.sleb128 3
 2052 011c 00       		.byte	0
 2053 011d 08       		.uleb128 0x8
 2054 011e 94020000 		.4byte	.LASF33
 2055 0122 10       		.byte	0x10
 2056 0123 05       		.byte	0x5
 2057 0124 49       		.byte	0x49
 2058 0125 8C010000 		.4byte	0x18c
 2059 0129 09       		.uleb128 0x9
 2060 012a 90000000 		.4byte	.LASF27
 2061 012e 05       		.byte	0x5
 2062 012f 4B       		.byte	0x4b
 2063 0130 8C010000 		.4byte	0x18c
 2064 0134 02       		.byte	0x2
 2065 0135 23       		.byte	0x23
 2066 0136 00       		.uleb128 0
 2067 0137 09       		.uleb128 0x9
 2068 0138 70020000 		.4byte	.LASF28
 2069 013c 05       		.byte	0x5
 2070 013d 4E       		.byte	0x4e
 2071 013e 9B000000 		.4byte	0x9b
 2072 0142 02       		.byte	0x2
 2073 0143 23       		.byte	0x23
 2074 0144 04       		.uleb128 0x4
 2075 0145 09       		.uleb128 0x9
 2076 0146 5F020000 		.4byte	.LASF29
 2077 014a 05       		.byte	0x5
 2078 014b 57       		.byte	0x57
 2079 014c BA000000 		.4byte	0xba
 2080 0150 02       		.byte	0x2
 2081 0151 23       		.byte	0x23
 2082 0152 08       		.uleb128 0x8
 2083 0153 0A       		.uleb128 0xa
 2084 0154 6C656E00 		.ascii	"len\000"
 2085 0158 05       		.byte	0x5
 2086 0159 5A       		.byte	0x5a
 2087 015a BA000000 		.4byte	0xba
 2088 015e 02       		.byte	0x2
 2089 015f 23       		.byte	0x23
 2090 0160 0A       		.uleb128 0xa
 2091 0161 09       		.uleb128 0x9
 2092 0162 FD050000 		.4byte	.LASF30
 2093 0166 05       		.byte	0x5
 2094 0167 5D       		.byte	0x5d
 2095 0168 A4000000 		.4byte	0xa4
 2096 016c 02       		.byte	0x2
 2097 016d 23       		.byte	0x23
 2098 016e 0C       		.uleb128 0xc
 2099 016f 09       		.uleb128 0x9
ARM GAS  /tmp/ccRYQxIv.s 			page 38


 2100 0170 5D000000 		.4byte	.LASF31
 2101 0174 05       		.byte	0x5
 2102 0175 60       		.byte	0x60
 2103 0176 A4000000 		.4byte	0xa4
 2104 017a 02       		.byte	0x2
 2105 017b 23       		.byte	0x23
 2106 017c 0D       		.uleb128 0xd
 2107 017d 0A       		.uleb128 0xa
 2108 017e 72656600 		.ascii	"ref\000"
 2109 0182 05       		.byte	0x5
 2110 0183 67       		.byte	0x67
 2111 0184 BA000000 		.4byte	0xba
 2112 0188 02       		.byte	0x2
 2113 0189 23       		.byte	0x23
 2114 018a 0E       		.uleb128 0xe
 2115 018b 00       		.byte	0
 2116 018c 0B       		.uleb128 0xb
 2117 018d 04       		.byte	0x4
 2118 018e 1D010000 		.4byte	0x11d
 2119 0192 04       		.uleb128 0x4
 2120 0193 9F040000 		.4byte	.LASF32
 2121 0197 05       		.byte	0x5
 2122 0198 6C       		.byte	0x6c
 2123 0199 9D010000 		.4byte	0x19d
 2124 019d 0B       		.uleb128 0xb
 2125 019e 04       		.byte	0x4
 2126 019f A3010000 		.4byte	0x1a3
 2127 01a3 0C       		.uleb128 0xc
 2128 01a4 01       		.byte	0x1
 2129 01a5 AF010000 		.4byte	0x1af
 2130 01a9 0D       		.uleb128 0xd
 2131 01aa 8C010000 		.4byte	0x18c
 2132 01ae 00       		.byte	0
 2133 01af 08       		.uleb128 0x8
 2134 01b0 C1000000 		.4byte	.LASF34
 2135 01b4 14       		.byte	0x14
 2136 01b5 05       		.byte	0x5
 2137 01b6 6F       		.byte	0x6f
 2138 01b7 D8010000 		.4byte	0x1d8
 2139 01bb 09       		.uleb128 0x9
 2140 01bc 94020000 		.4byte	.LASF33
 2141 01c0 05       		.byte	0x5
 2142 01c1 71       		.byte	0x71
 2143 01c2 1D010000 		.4byte	0x11d
 2144 01c6 02       		.byte	0x2
 2145 01c7 23       		.byte	0x23
 2146 01c8 00       		.uleb128 0
 2147 01c9 09       		.uleb128 0x9
 2148 01ca 4C040000 		.4byte	.LASF35
 2149 01ce 05       		.byte	0x5
 2150 01cf 73       		.byte	0x73
 2151 01d0 92010000 		.4byte	0x192
 2152 01d4 02       		.byte	0x2
 2153 01d5 23       		.byte	0x23
 2154 01d6 10       		.uleb128 0x10
 2155 01d7 00       		.byte	0
 2156 01d8 08       		.uleb128 0x8
ARM GAS  /tmp/ccRYQxIv.s 			page 39


 2157 01d9 3D070000 		.4byte	.LASF36
 2158 01dd 04       		.byte	0x4
 2159 01de 06       		.byte	0x6
 2160 01df 2C       		.byte	0x2c
 2161 01e0 F3010000 		.4byte	0x1f3
 2162 01e4 09       		.uleb128 0x9
 2163 01e5 59060000 		.4byte	.LASF37
 2164 01e9 06       		.byte	0x6
 2165 01ea 2D       		.byte	0x2d
 2166 01eb C5000000 		.4byte	0xc5
 2167 01ef 02       		.byte	0x2
 2168 01f0 23       		.byte	0x23
 2169 01f1 00       		.uleb128 0
 2170 01f2 00       		.byte	0
 2171 01f3 08       		.uleb128 0x8
 2172 01f4 F7020000 		.4byte	.LASF38
 2173 01f8 04       		.byte	0x4
 2174 01f9 06       		.byte	0x6
 2175 01fa 36       		.byte	0x36
 2176 01fb 0E020000 		.4byte	0x20e
 2177 01ff 09       		.uleb128 0x9
 2178 0200 59060000 		.4byte	.LASF37
 2179 0204 06       		.byte	0x6
 2180 0205 37       		.byte	0x37
 2181 0206 C5000000 		.4byte	0xc5
 2182 020a 02       		.byte	0x2
 2183 020b 23       		.byte	0x23
 2184 020c 00       		.uleb128 0
 2185 020d 00       		.byte	0
 2186 020e 04       		.uleb128 0x4
 2187 020f FE060000 		.4byte	.LASF39
 2188 0213 06       		.byte	0x6
 2189 0214 40       		.byte	0x40
 2190 0215 D8010000 		.4byte	0x1d8
 2191 0219 04       		.uleb128 0x4
 2192 021a 2E060000 		.4byte	.LASF40
 2193 021e 06       		.byte	0x6
 2194 021f 41       		.byte	0x41
 2195 0220 F3010000 		.4byte	0x1f3
 2196 0224 0B       		.uleb128 0xb
 2197 0225 04       		.byte	0x4
 2198 0226 2A020000 		.4byte	0x22a
 2199 022a 08       		.uleb128 0x8
 2200 022b 92060000 		.4byte	.LASF41
 2201 022f 30       		.byte	0x30
 2202 0230 07       		.byte	0x7
 2203 0231 88       		.byte	0x88
 2204 0232 FA020000 		.4byte	0x2fa
 2205 0236 09       		.uleb128 0x9
 2206 0237 90000000 		.4byte	.LASF27
 2207 023b 07       		.byte	0x7
 2208 023c 8A       		.byte	0x8a
 2209 023d 24020000 		.4byte	0x224
 2210 0241 02       		.byte	0x2
 2211 0242 23       		.byte	0x23
 2212 0243 00       		.uleb128 0
 2213 0244 09       		.uleb128 0x9
ARM GAS  /tmp/ccRYQxIv.s 			page 40


 2214 0245 3D070000 		.4byte	.LASF36
 2215 0249 07       		.byte	0x7
 2216 024a 8D       		.byte	0x8d
 2217 024b 0E020000 		.4byte	0x20e
 2218 024f 02       		.byte	0x2
 2219 0250 23       		.byte	0x23
 2220 0251 04       		.uleb128 0x4
 2221 0252 09       		.uleb128 0x9
 2222 0253 A4030000 		.4byte	.LASF42
 2223 0257 07       		.byte	0x7
 2224 0258 8E       		.byte	0x8e
 2225 0259 0E020000 		.4byte	0x20e
 2226 025d 02       		.byte	0x2
 2227 025e 23       		.byte	0x23
 2228 025f 08       		.uleb128 0x8
 2229 0260 0A       		.uleb128 0xa
 2230 0261 677700   		.ascii	"gw\000"
 2231 0264 07       		.byte	0x7
 2232 0265 8F       		.byte	0x8f
 2233 0266 0E020000 		.4byte	0x20e
 2234 026a 02       		.byte	0x2
 2235 026b 23       		.byte	0x23
 2236 026c 0C       		.uleb128 0xc
 2237 026d 09       		.uleb128 0x9
 2238 026e 3D000000 		.4byte	.LASF43
 2239 0272 07       		.byte	0x7
 2240 0273 93       		.byte	0x93
 2241 0274 FA020000 		.4byte	0x2fa
 2242 0278 02       		.byte	0x2
 2243 0279 23       		.byte	0x23
 2244 027a 10       		.uleb128 0x10
 2245 027b 09       		.uleb128 0x9
 2246 027c 8D020000 		.4byte	.LASF44
 2247 0280 07       		.byte	0x7
 2248 0281 97       		.byte	0x97
 2249 0282 20030000 		.4byte	0x320
 2250 0286 02       		.byte	0x2
 2251 0287 23       		.byte	0x23
 2252 0288 14       		.uleb128 0x14
 2253 0289 09       		.uleb128 0x9
 2254 028a A6000000 		.4byte	.LASF45
 2255 028e 07       		.byte	0x7
 2256 028f 9B       		.byte	0x9b
 2257 0290 51030000 		.4byte	0x351
 2258 0294 02       		.byte	0x2
 2259 0295 23       		.byte	0x23
 2260 0296 18       		.uleb128 0x18
 2261 0297 09       		.uleb128 0x9
 2262 0298 63060000 		.4byte	.LASF46
 2263 029c 07       		.byte	0x7
 2264 029d A8       		.byte	0xa8
 2265 029e 9B000000 		.4byte	0x9b
 2266 02a2 02       		.byte	0x2
 2267 02a3 23       		.byte	0x23
 2268 02a4 1C       		.uleb128 0x1c
 2269 02a5 0A       		.uleb128 0xa
 2270 02a6 6D747500 		.ascii	"mtu\000"
ARM GAS  /tmp/ccRYQxIv.s 			page 41


 2271 02aa 07       		.byte	0x7
 2272 02ab B6       		.byte	0xb6
 2273 02ac BA000000 		.4byte	0xba
 2274 02b0 02       		.byte	0x2
 2275 02b1 23       		.byte	0x23
 2276 02b2 20       		.uleb128 0x20
 2277 02b3 09       		.uleb128 0x9
 2278 02b4 27020000 		.4byte	.LASF47
 2279 02b8 07       		.byte	0x7
 2280 02b9 B8       		.byte	0xb8
 2281 02ba A4000000 		.4byte	0xa4
 2282 02be 02       		.byte	0x2
 2283 02bf 23       		.byte	0x23
 2284 02c0 22       		.uleb128 0x22
 2285 02c1 09       		.uleb128 0x9
 2286 02c2 8C010000 		.4byte	.LASF48
 2287 02c6 07       		.byte	0x7
 2288 02c7 BA       		.byte	0xba
 2289 02c8 77030000 		.4byte	0x377
 2290 02cc 02       		.byte	0x2
 2291 02cd 23       		.byte	0x23
 2292 02ce 23       		.uleb128 0x23
 2293 02cf 09       		.uleb128 0x9
 2294 02d0 5D000000 		.4byte	.LASF31
 2295 02d4 07       		.byte	0x7
 2296 02d5 BC       		.byte	0xbc
 2297 02d6 A4000000 		.4byte	0xa4
 2298 02da 02       		.byte	0x2
 2299 02db 23       		.byte	0x23
 2300 02dc 29       		.uleb128 0x29
 2301 02dd 09       		.uleb128 0x9
 2302 02de 3D050000 		.4byte	.LASF49
 2303 02e2 07       		.byte	0x7
 2304 02e3 BE       		.byte	0xbe
 2305 02e4 87030000 		.4byte	0x387
 2306 02e8 02       		.byte	0x2
 2307 02e9 23       		.byte	0x23
 2308 02ea 2A       		.uleb128 0x2a
 2309 02eb 0A       		.uleb128 0xa
 2310 02ec 6E756D00 		.ascii	"num\000"
 2311 02f0 07       		.byte	0x7
 2312 02f1 C0       		.byte	0xc0
 2313 02f2 A4000000 		.4byte	0xa4
 2314 02f6 02       		.byte	0x2
 2315 02f7 23       		.byte	0x23
 2316 02f8 2C       		.uleb128 0x2c
 2317 02f9 00       		.byte	0
 2318 02fa 04       		.uleb128 0x4
 2319 02fb 2D010000 		.4byte	.LASF50
 2320 02ff 07       		.byte	0x7
 2321 0300 6D       		.byte	0x6d
 2322 0301 05030000 		.4byte	0x305
 2323 0305 0B       		.uleb128 0xb
 2324 0306 04       		.byte	0x4
 2325 0307 0B030000 		.4byte	0x30b
 2326 030b 0E       		.uleb128 0xe
 2327 030c 01       		.byte	0x1
ARM GAS  /tmp/ccRYQxIv.s 			page 42


 2328 030d D0000000 		.4byte	0xd0
 2329 0311 20030000 		.4byte	0x320
 2330 0315 0D       		.uleb128 0xd
 2331 0316 8C010000 		.4byte	0x18c
 2332 031a 0D       		.uleb128 0xd
 2333 031b 24020000 		.4byte	0x224
 2334 031f 00       		.byte	0
 2335 0320 04       		.uleb128 0x4
 2336 0321 DC000000 		.4byte	.LASF51
 2337 0325 07       		.byte	0x7
 2338 0326 76       		.byte	0x76
 2339 0327 2B030000 		.4byte	0x32b
 2340 032b 0B       		.uleb128 0xb
 2341 032c 04       		.byte	0x4
 2342 032d 31030000 		.4byte	0x331
 2343 0331 0E       		.uleb128 0xe
 2344 0332 01       		.byte	0x1
 2345 0333 D0000000 		.4byte	0xd0
 2346 0337 4B030000 		.4byte	0x34b
 2347 033b 0D       		.uleb128 0xd
 2348 033c 24020000 		.4byte	0x224
 2349 0340 0D       		.uleb128 0xd
 2350 0341 8C010000 		.4byte	0x18c
 2351 0345 0D       		.uleb128 0xd
 2352 0346 4B030000 		.4byte	0x34b
 2353 034a 00       		.byte	0
 2354 034b 0B       		.uleb128 0xb
 2355 034c 04       		.byte	0x4
 2356 034d 0E020000 		.4byte	0x20e
 2357 0351 04       		.uleb128 0x4
 2358 0352 77050000 		.4byte	.LASF52
 2359 0356 07       		.byte	0x7
 2360 0357 7E       		.byte	0x7e
 2361 0358 5C030000 		.4byte	0x35c
 2362 035c 0B       		.uleb128 0xb
 2363 035d 04       		.byte	0x4
 2364 035e 62030000 		.4byte	0x362
 2365 0362 0E       		.uleb128 0xe
 2366 0363 01       		.byte	0x1
 2367 0364 D0000000 		.4byte	0xd0
 2368 0368 77030000 		.4byte	0x377
 2369 036c 0D       		.uleb128 0xd
 2370 036d 24020000 		.4byte	0x224
 2371 0371 0D       		.uleb128 0xd
 2372 0372 8C010000 		.4byte	0x18c
 2373 0376 00       		.byte	0
 2374 0377 0F       		.uleb128 0xf
 2375 0378 A4000000 		.4byte	0xa4
 2376 037c 87030000 		.4byte	0x387
 2377 0380 10       		.uleb128 0x10
 2378 0381 30000000 		.4byte	0x30
 2379 0385 05       		.byte	0x5
 2380 0386 00       		.byte	0
 2381 0387 0F       		.uleb128 0xf
 2382 0388 9D000000 		.4byte	0x9d
 2383 038c 97030000 		.4byte	0x397
 2384 0390 10       		.uleb128 0x10
ARM GAS  /tmp/ccRYQxIv.s 			page 43


 2385 0391 30000000 		.4byte	0x30
 2386 0395 01       		.byte	0x1
 2387 0396 00       		.byte	0
 2388 0397 08       		.uleb128 0x8
 2389 0398 2A050000 		.4byte	.LASF53
 2390 039c 14       		.byte	0x14
 2391 039d 08       		.byte	0x8
 2392 039e 74       		.byte	0x74
 2393 039f 22040000 		.4byte	0x422
 2394 03a3 09       		.uleb128 0x9
 2395 03a4 6A040000 		.4byte	.LASF54
 2396 03a8 08       		.byte	0x8
 2397 03a9 76       		.byte	0x76
 2398 03aa BA000000 		.4byte	0xba
 2399 03ae 02       		.byte	0x2
 2400 03af 23       		.byte	0x23
 2401 03b0 00       		.uleb128 0
 2402 03b1 09       		.uleb128 0x9
 2403 03b2 F9060000 		.4byte	.LASF55
 2404 03b6 08       		.byte	0x8
 2405 03b7 78       		.byte	0x78
 2406 03b8 BA000000 		.4byte	0xba
 2407 03bc 02       		.byte	0x2
 2408 03bd 23       		.byte	0x23
 2409 03be 02       		.uleb128 0x2
 2410 03bf 0A       		.uleb128 0xa
 2411 03c0 5F696400 		.ascii	"_id\000"
 2412 03c4 08       		.byte	0x8
 2413 03c5 7A       		.byte	0x7a
 2414 03c6 BA000000 		.4byte	0xba
 2415 03ca 02       		.byte	0x2
 2416 03cb 23       		.byte	0x23
 2417 03cc 04       		.uleb128 0x4
 2418 03cd 09       		.uleb128 0x9
 2419 03ce 32020000 		.4byte	.LASF56
 2420 03d2 08       		.byte	0x8
 2421 03d3 7C       		.byte	0x7c
 2422 03d4 BA000000 		.4byte	0xba
 2423 03d8 02       		.byte	0x2
 2424 03d9 23       		.byte	0x23
 2425 03da 06       		.uleb128 0x6
 2426 03db 09       		.uleb128 0x9
 2427 03dc BC000000 		.4byte	.LASF57
 2428 03e0 08       		.byte	0x8
 2429 03e1 82       		.byte	0x82
 2430 03e2 A4000000 		.4byte	0xa4
 2431 03e6 02       		.byte	0x2
 2432 03e7 23       		.byte	0x23
 2433 03e8 08       		.uleb128 0x8
 2434 03e9 09       		.uleb128 0x9
 2435 03ea 84030000 		.4byte	.LASF58
 2436 03ee 08       		.byte	0x8
 2437 03ef 84       		.byte	0x84
 2438 03f0 A4000000 		.4byte	0xa4
 2439 03f4 02       		.byte	0x2
 2440 03f5 23       		.byte	0x23
 2441 03f6 09       		.uleb128 0x9
ARM GAS  /tmp/ccRYQxIv.s 			page 44


 2442 03f7 09       		.uleb128 0x9
 2443 03f8 1F020000 		.4byte	.LASF59
 2444 03fc 08       		.byte	0x8
 2445 03fd 86       		.byte	0x86
 2446 03fe BA000000 		.4byte	0xba
 2447 0402 02       		.byte	0x2
 2448 0403 23       		.byte	0x23
 2449 0404 0A       		.uleb128 0xa
 2450 0405 0A       		.uleb128 0xa
 2451 0406 73726300 		.ascii	"src\000"
 2452 040a 08       		.byte	0x8
 2453 040b 88       		.byte	0x88
 2454 040c 19020000 		.4byte	0x219
 2455 0410 02       		.byte	0x2
 2456 0411 23       		.byte	0x23
 2457 0412 0C       		.uleb128 0xc
 2458 0413 09       		.uleb128 0x9
 2459 0414 17070000 		.4byte	.LASF60
 2460 0418 08       		.byte	0x8
 2461 0419 89       		.byte	0x89
 2462 041a 19020000 		.4byte	0x219
 2463 041e 02       		.byte	0x2
 2464 041f 23       		.byte	0x23
 2465 0420 10       		.uleb128 0x10
 2466 0421 00       		.byte	0
 2467 0422 08       		.uleb128 0x8
 2468 0423 30070000 		.4byte	.LASF61
 2469 0427 20       		.byte	0x20
 2470 0428 09       		.byte	0x9
 2471 0429 36       		.byte	0x36
 2472 042a 81040000 		.4byte	0x481
 2473 042e 09       		.uleb128 0x9
 2474 042f 90000000 		.4byte	.LASF27
 2475 0433 09       		.byte	0x9
 2476 0434 37       		.byte	0x37
 2477 0435 81040000 		.4byte	0x481
 2478 0439 02       		.byte	0x2
 2479 043a 23       		.byte	0x23
 2480 043b 00       		.uleb128 0
 2481 043c 0A       		.uleb128 0xa
 2482 043d 7000     		.ascii	"p\000"
 2483 043f 09       		.byte	0x9
 2484 0440 38       		.byte	0x38
 2485 0441 8C010000 		.4byte	0x18c
 2486 0445 02       		.byte	0x2
 2487 0446 23       		.byte	0x23
 2488 0447 04       		.uleb128 0x4
 2489 0448 09       		.uleb128 0x9
 2490 0449 CA060000 		.4byte	.LASF62
 2491 044d 09       		.byte	0x9
 2492 044e 39       		.byte	0x39
 2493 044f 97030000 		.4byte	0x397
 2494 0453 02       		.byte	0x2
 2495 0454 23       		.byte	0x23
 2496 0455 08       		.uleb128 0x8
 2497 0456 09       		.uleb128 0x9
 2498 0457 43060000 		.4byte	.LASF63
ARM GAS  /tmp/ccRYQxIv.s 			page 45


 2499 045b 09       		.byte	0x9
 2500 045c 3A       		.byte	0x3a
 2501 045d BA000000 		.4byte	0xba
 2502 0461 02       		.byte	0x2
 2503 0462 23       		.byte	0x23
 2504 0463 1C       		.uleb128 0x1c
 2505 0464 09       		.uleb128 0x9
 2506 0465 5D000000 		.4byte	.LASF31
 2507 0469 09       		.byte	0x9
 2508 046a 3B       		.byte	0x3b
 2509 046b A4000000 		.4byte	0xa4
 2510 046f 02       		.byte	0x2
 2511 0470 23       		.byte	0x23
 2512 0471 1E       		.uleb128 0x1e
 2513 0472 09       		.uleb128 0x9
 2514 0473 11070000 		.4byte	.LASF64
 2515 0477 09       		.byte	0x9
 2516 0478 3C       		.byte	0x3c
 2517 0479 A4000000 		.4byte	0xa4
 2518 047d 02       		.byte	0x2
 2519 047e 23       		.byte	0x23
 2520 047f 1F       		.uleb128 0x1f
 2521 0480 00       		.byte	0
 2522 0481 0B       		.uleb128 0xb
 2523 0482 04       		.byte	0x4
 2524 0483 22040000 		.4byte	0x422
 2525 0487 08       		.uleb128 0x8
 2526 0488 B1010000 		.4byte	.LASF65
 2527 048c 18       		.byte	0x18
 2528 048d 09       		.byte	0x9
 2529 048e 49       		.byte	0x49
 2530 048f AF040000 		.4byte	0x4af
 2531 0493 0A       		.uleb128 0xa
 2532 0494 706300   		.ascii	"pc\000"
 2533 0497 09       		.byte	0x9
 2534 0498 4B       		.byte	0x4b
 2535 0499 AF010000 		.4byte	0x1af
 2536 049d 02       		.byte	0x2
 2537 049e 23       		.byte	0x23
 2538 049f 00       		.uleb128 0
 2539 04a0 09       		.uleb128 0x9
 2540 04a1 61040000 		.4byte	.LASF66
 2541 04a5 09       		.byte	0x9
 2542 04a6 4D       		.byte	0x4d
 2543 04a7 8C010000 		.4byte	0x18c
 2544 04ab 02       		.byte	0x2
 2545 04ac 23       		.byte	0x23
 2546 04ad 14       		.uleb128 0x14
 2547 04ae 00       		.byte	0
 2548 04af 04       		.uleb128 0x4
 2549 04b0 E0020000 		.4byte	.LASF67
 2550 04b4 0A       		.byte	0xa
 2551 04b5 4B       		.byte	0x4b
 2552 04b6 BA000000 		.4byte	0xba
 2553 04ba 06       		.uleb128 0x6
 2554 04bb 01       		.byte	0x1
 2555 04bc 0B       		.byte	0xb
ARM GAS  /tmp/ccRYQxIv.s 			page 46


 2556 04bd 2B       		.byte	0x2b
 2557 04be 1D050000 		.4byte	0x51d
 2558 04c2 07       		.uleb128 0x7
 2559 04c3 B8050000 		.4byte	.LASF68
 2560 04c7 00       		.sleb128 0
 2561 04c8 07       		.uleb128 0x7
 2562 04c9 D8040000 		.4byte	.LASF69
 2563 04cd 01       		.sleb128 1
 2564 04ce 07       		.uleb128 0x7
 2565 04cf C9030000 		.4byte	.LASF70
 2566 04d3 02       		.sleb128 2
 2567 04d4 07       		.uleb128 0x7
 2568 04d5 29000000 		.4byte	.LASF71
 2569 04d9 03       		.sleb128 3
 2570 04da 07       		.uleb128 0x7
 2571 04db 21060000 		.4byte	.LASF72
 2572 04df 04       		.sleb128 4
 2573 04e0 07       		.uleb128 0x7
 2574 04e1 19040000 		.4byte	.LASF73
 2575 04e5 05       		.sleb128 5
 2576 04e6 07       		.uleb128 0x7
 2577 04e7 8B050000 		.4byte	.LASF74
 2578 04eb 06       		.sleb128 6
 2579 04ec 07       		.uleb128 0x7
 2580 04ed 98030000 		.4byte	.LASF75
 2581 04f1 07       		.sleb128 7
 2582 04f2 07       		.uleb128 0x7
 2583 04f3 C4020000 		.4byte	.LASF76
 2584 04f7 08       		.sleb128 8
 2585 04f8 07       		.uleb128 0x7
 2586 04f9 4C010000 		.4byte	.LASF77
 2587 04fd 09       		.sleb128 9
 2588 04fe 07       		.uleb128 0x7
 2589 04ff 3A020000 		.4byte	.LASF78
 2590 0503 0A       		.sleb128 10
 2591 0504 07       		.uleb128 0x7
 2592 0505 BF040000 		.4byte	.LASF79
 2593 0509 0B       		.sleb128 11
 2594 050a 07       		.uleb128 0x7
 2595 050b D1020000 		.4byte	.LASF80
 2596 050f 0C       		.sleb128 12
 2597 0510 07       		.uleb128 0x7
 2598 0511 EC000000 		.4byte	.LASF81
 2599 0515 0D       		.sleb128 13
 2600 0516 07       		.uleb128 0x7
 2601 0517 A3020000 		.4byte	.LASF82
 2602 051b 0E       		.sleb128 14
 2603 051c 00       		.byte	0
 2604 051d 08       		.uleb128 0x8
 2605 051e EB020000 		.4byte	.LASF83
 2606 0522 18       		.byte	0x18
 2607 0523 0C       		.byte	0xc
 2608 0524 3A       		.byte	0x3a
 2609 0525 D1050000 		.4byte	0x5d1
 2610 0529 09       		.uleb128 0x9
 2611 052a F4060000 		.4byte	.LASF84
 2612 052e 0C       		.byte	0xc
ARM GAS  /tmp/ccRYQxIv.s 			page 47


 2613 052f 3B       		.byte	0x3b
 2614 0530 BA000000 		.4byte	0xba
 2615 0534 02       		.byte	0x2
 2616 0535 23       		.byte	0x23
 2617 0536 00       		.uleb128 0
 2618 0537 09       		.uleb128 0x9
 2619 0538 D0060000 		.4byte	.LASF85
 2620 053c 0C       		.byte	0xc
 2621 053d 3C       		.byte	0x3c
 2622 053e BA000000 		.4byte	0xba
 2623 0542 02       		.byte	0x2
 2624 0543 23       		.byte	0x23
 2625 0544 02       		.uleb128 0x2
 2626 0545 0A       		.uleb128 0xa
 2627 0546 667700   		.ascii	"fw\000"
 2628 0549 0C       		.byte	0xc
 2629 054a 3D       		.byte	0x3d
 2630 054b BA000000 		.4byte	0xba
 2631 054f 02       		.byte	0x2
 2632 0550 23       		.byte	0x23
 2633 0551 04       		.uleb128 0x4
 2634 0552 09       		.uleb128 0x9
 2635 0553 5E060000 		.4byte	.LASF86
 2636 0557 0C       		.byte	0xc
 2637 0558 3E       		.byte	0x3e
 2638 0559 BA000000 		.4byte	0xba
 2639 055d 02       		.byte	0x2
 2640 055e 23       		.byte	0x23
 2641 055f 06       		.uleb128 0x6
 2642 0560 09       		.uleb128 0x9
 2643 0561 12040000 		.4byte	.LASF87
 2644 0565 0C       		.byte	0xc
 2645 0566 3F       		.byte	0x3f
 2646 0567 BA000000 		.4byte	0xba
 2647 056b 02       		.byte	0x2
 2648 056c 23       		.byte	0x23
 2649 056d 08       		.uleb128 0x8
 2650 056e 09       		.uleb128 0x9
 2651 056f CF050000 		.4byte	.LASF88
 2652 0573 0C       		.byte	0xc
 2653 0574 40       		.byte	0x40
 2654 0575 BA000000 		.4byte	0xba
 2655 0579 02       		.byte	0x2
 2656 057a 23       		.byte	0x23
 2657 057b 0A       		.uleb128 0xa
 2658 057c 09       		.uleb128 0x9
 2659 057d 1A060000 		.4byte	.LASF89
 2660 0581 0C       		.byte	0xc
 2661 0582 41       		.byte	0x41
 2662 0583 BA000000 		.4byte	0xba
 2663 0587 02       		.byte	0x2
 2664 0588 23       		.byte	0x23
 2665 0589 0C       		.uleb128 0xc
 2666 058a 09       		.uleb128 0x9
 2667 058b B3040000 		.4byte	.LASF90
 2668 058f 0C       		.byte	0xc
 2669 0590 42       		.byte	0x42
ARM GAS  /tmp/ccRYQxIv.s 			page 48


 2670 0591 BA000000 		.4byte	0xba
 2671 0595 02       		.byte	0x2
 2672 0596 23       		.byte	0x23
 2673 0597 0E       		.uleb128 0xe
 2674 0598 09       		.uleb128 0x9
 2675 0599 E8050000 		.4byte	.LASF91
 2676 059d 0C       		.byte	0xc
 2677 059e 43       		.byte	0x43
 2678 059f BA000000 		.4byte	0xba
 2679 05a3 02       		.byte	0x2
 2680 05a4 23       		.byte	0x23
 2681 05a5 10       		.uleb128 0x10
 2682 05a6 09       		.uleb128 0x9
 2683 05a7 5F010000 		.4byte	.LASF92
 2684 05ab 0C       		.byte	0xc
 2685 05ac 44       		.byte	0x44
 2686 05ad BA000000 		.4byte	0xba
 2687 05b1 02       		.byte	0x2
 2688 05b2 23       		.byte	0x23
 2689 05b3 12       		.uleb128 0x12
 2690 05b4 0A       		.uleb128 0xa
 2691 05b5 65727200 		.ascii	"err\000"
 2692 05b9 0C       		.byte	0xc
 2693 05ba 45       		.byte	0x45
 2694 05bb BA000000 		.4byte	0xba
 2695 05bf 02       		.byte	0x2
 2696 05c0 23       		.byte	0x23
 2697 05c1 14       		.uleb128 0x14
 2698 05c2 09       		.uleb128 0x9
 2699 05c3 1C050000 		.4byte	.LASF93
 2700 05c7 0C       		.byte	0xc
 2701 05c8 46       		.byte	0x46
 2702 05c9 BA000000 		.4byte	0xba
 2703 05cd 02       		.byte	0x2
 2704 05ce 23       		.byte	0x23
 2705 05cf 16       		.uleb128 0x16
 2706 05d0 00       		.byte	0
 2707 05d1 08       		.uleb128 0x8
 2708 05d2 D2000000 		.4byte	.LASF94
 2709 05d6 0A       		.byte	0xa
 2710 05d7 0C       		.byte	0xc
 2711 05d8 5A       		.byte	0x5a
 2712 05d9 24060000 		.4byte	0x624
 2713 05dd 09       		.uleb128 0x9
 2714 05de B9040000 		.4byte	.LASF95
 2715 05e2 0C       		.byte	0xc
 2716 05e3 5E       		.byte	0x5e
 2717 05e4 AF040000 		.4byte	0x4af
 2718 05e8 02       		.byte	0x2
 2719 05e9 23       		.byte	0x23
 2720 05ea 00       		.uleb128 0
 2721 05eb 09       		.uleb128 0x9
 2722 05ec 0D040000 		.4byte	.LASF96
 2723 05f0 0C       		.byte	0xc
 2724 05f1 5F       		.byte	0x5f
 2725 05f2 AF040000 		.4byte	0x4af
 2726 05f6 02       		.byte	0x2
ARM GAS  /tmp/ccRYQxIv.s 			page 49


 2727 05f7 23       		.byte	0x23
 2728 05f8 02       		.uleb128 0x2
 2729 05f9 0A       		.uleb128 0xa
 2730 05fa 6D617800 		.ascii	"max\000"
 2731 05fe 0C       		.byte	0xc
 2732 05ff 60       		.byte	0x60
 2733 0600 AF040000 		.4byte	0x4af
 2734 0604 02       		.byte	0x2
 2735 0605 23       		.byte	0x23
 2736 0606 04       		.uleb128 0x4
 2737 0607 0A       		.uleb128 0xa
 2738 0608 65727200 		.ascii	"err\000"
 2739 060c 0C       		.byte	0xc
 2740 060d 61       		.byte	0x61
 2741 060e BA000000 		.4byte	0xba
 2742 0612 02       		.byte	0x2
 2743 0613 23       		.byte	0x23
 2744 0614 06       		.uleb128 0x6
 2745 0615 09       		.uleb128 0x9
 2746 0616 84010000 		.4byte	.LASF97
 2747 061a 0C       		.byte	0xc
 2748 061b 62       		.byte	0x62
 2749 061c BA000000 		.4byte	0xba
 2750 0620 02       		.byte	0x2
 2751 0621 23       		.byte	0x23
 2752 0622 08       		.uleb128 0x8
 2753 0623 00       		.byte	0
 2754 0624 08       		.uleb128 0x8
 2755 0625 1F010000 		.4byte	.LASF98
 2756 0629 06       		.byte	0x6
 2757 062a 0C       		.byte	0xc
 2758 062b 65       		.byte	0x65
 2759 062c 5B060000 		.4byte	0x65b
 2760 0630 09       		.uleb128 0x9
 2761 0631 0D040000 		.4byte	.LASF96
 2762 0635 0C       		.byte	0xc
 2763 0636 66       		.byte	0x66
 2764 0637 BA000000 		.4byte	0xba
 2765 063b 02       		.byte	0x2
 2766 063c 23       		.byte	0x23
 2767 063d 00       		.uleb128 0
 2768 063e 0A       		.uleb128 0xa
 2769 063f 6D617800 		.ascii	"max\000"
 2770 0643 0C       		.byte	0xc
 2771 0644 67       		.byte	0x67
 2772 0645 BA000000 		.4byte	0xba
 2773 0649 02       		.byte	0x2
 2774 064a 23       		.byte	0x23
 2775 064b 02       		.uleb128 0x2
 2776 064c 0A       		.uleb128 0xa
 2777 064d 65727200 		.ascii	"err\000"
 2778 0651 0C       		.byte	0xc
 2779 0652 68       		.byte	0x68
 2780 0653 BA000000 		.4byte	0xba
 2781 0657 02       		.byte	0x2
 2782 0658 23       		.byte	0x23
 2783 0659 04       		.uleb128 0x4
ARM GAS  /tmp/ccRYQxIv.s 			page 50


 2784 065a 00       		.byte	0
 2785 065b 08       		.uleb128 0x8
 2786 065c 02060000 		.4byte	.LASF99
 2787 0660 12       		.byte	0x12
 2788 0661 0C       		.byte	0xc
 2789 0662 6B       		.byte	0x6b
 2790 0663 92060000 		.4byte	0x692
 2791 0667 0A       		.uleb128 0xa
 2792 0668 73656D00 		.ascii	"sem\000"
 2793 066c 0C       		.byte	0xc
 2794 066d 6C       		.byte	0x6c
 2795 066e 24060000 		.4byte	0x624
 2796 0672 02       		.byte	0x2
 2797 0673 23       		.byte	0x23
 2798 0674 00       		.uleb128 0
 2799 0675 09       		.uleb128 0x9
 2800 0676 66010000 		.4byte	.LASF100
 2801 067a 0C       		.byte	0xc
 2802 067b 6D       		.byte	0x6d
 2803 067c 24060000 		.4byte	0x624
 2804 0680 02       		.byte	0x2
 2805 0681 23       		.byte	0x23
 2806 0682 06       		.uleb128 0x6
 2807 0683 09       		.uleb128 0x9
 2808 0684 FD040000 		.4byte	.LASF101
 2809 0688 0C       		.byte	0xc
 2810 0689 6E       		.byte	0x6e
 2811 068a 24060000 		.4byte	0x624
 2812 068e 02       		.byte	0x2
 2813 068f 23       		.byte	0x23
 2814 0690 0C       		.uleb128 0xc
 2815 0691 00       		.byte	0
 2816 0692 11       		.uleb128 0x11
 2817 0693 58020000 		.4byte	.LASF102
 2818 0697 5001     		.2byte	0x150
 2819 0699 0C       		.byte	0xc
 2820 069a 71       		.byte	0x71
 2821 069b 2F070000 		.4byte	0x72f
 2822 069f 09       		.uleb128 0x9
 2823 06a0 CD000000 		.4byte	.LASF103
 2824 06a4 0C       		.byte	0xc
 2825 06a5 73       		.byte	0x73
 2826 06a6 1D050000 		.4byte	0x51d
 2827 06aa 02       		.byte	0x2
 2828 06ab 23       		.byte	0x23
 2829 06ac 00       		.uleb128 0
 2830 06ad 09       		.uleb128 0x9
 2831 06ae 93010000 		.4byte	.LASF104
 2832 06b2 0C       		.byte	0xc
 2833 06b3 76       		.byte	0x76
 2834 06b4 1D050000 		.4byte	0x51d
 2835 06b8 02       		.byte	0x2
 2836 06b9 23       		.byte	0x23
 2837 06ba 18       		.uleb128 0x18
 2838 06bb 09       		.uleb128 0x9
 2839 06bc 7C010000 		.4byte	.LASF105
 2840 06c0 0C       		.byte	0xc
ARM GAS  /tmp/ccRYQxIv.s 			page 51


 2841 06c1 79       		.byte	0x79
 2842 06c2 1D050000 		.4byte	0x51d
 2843 06c6 02       		.byte	0x2
 2844 06c7 23       		.byte	0x23
 2845 06c8 30       		.uleb128 0x30
 2846 06c9 0A       		.uleb128 0xa
 2847 06ca 697000   		.ascii	"ip\000"
 2848 06cd 0C       		.byte	0xc
 2849 06ce 7C       		.byte	0x7c
 2850 06cf 1D050000 		.4byte	0x51d
 2851 06d3 02       		.byte	0x2
 2852 06d4 23       		.byte	0x23
 2853 06d5 48       		.uleb128 0x48
 2854 06d6 09       		.uleb128 0x9
 2855 06d7 91040000 		.4byte	.LASF106
 2856 06db 0C       		.byte	0xc
 2857 06dc 7F       		.byte	0x7f
 2858 06dd 1D050000 		.4byte	0x51d
 2859 06e1 02       		.byte	0x2
 2860 06e2 23       		.byte	0x23
 2861 06e3 60       		.uleb128 0x60
 2862 06e4 0A       		.uleb128 0xa
 2863 06e5 75647000 		.ascii	"udp\000"
 2864 06e9 0C       		.byte	0xc
 2865 06ea 85       		.byte	0x85
 2866 06eb 1D050000 		.4byte	0x51d
 2867 06ef 02       		.byte	0x2
 2868 06f0 23       		.byte	0x23
 2869 06f1 78       		.uleb128 0x78
 2870 06f2 0A       		.uleb128 0xa
 2871 06f3 74637000 		.ascii	"tcp\000"
 2872 06f7 0C       		.byte	0xc
 2873 06f8 88       		.byte	0x88
 2874 06f9 1D050000 		.4byte	0x51d
 2875 06fd 03       		.byte	0x3
 2876 06fe 23       		.byte	0x23
 2877 06ff 9001     		.uleb128 0x90
 2878 0701 0A       		.uleb128 0xa
 2879 0702 6D656D00 		.ascii	"mem\000"
 2880 0706 0C       		.byte	0xc
 2881 0707 8B       		.byte	0x8b
 2882 0708 D1050000 		.4byte	0x5d1
 2883 070c 03       		.byte	0x3
 2884 070d 23       		.byte	0x23
 2885 070e A801     		.uleb128 0xa8
 2886 0710 09       		.uleb128 0x9
 2887 0711 D6030000 		.4byte	.LASF107
 2888 0715 0C       		.byte	0xc
 2889 0716 8E       		.byte	0x8e
 2890 0717 2F070000 		.4byte	0x72f
 2891 071b 03       		.byte	0x3
 2892 071c 23       		.byte	0x23
 2893 071d B201     		.uleb128 0xb2
 2894 071f 0A       		.uleb128 0xa
 2895 0720 73797300 		.ascii	"sys\000"
 2896 0724 0C       		.byte	0xc
 2897 0725 91       		.byte	0x91
ARM GAS  /tmp/ccRYQxIv.s 			page 52


 2898 0726 5B060000 		.4byte	0x65b
 2899 072a 03       		.byte	0x3
 2900 072b 23       		.byte	0x23
 2901 072c BE02     		.uleb128 0x13e
 2902 072e 00       		.byte	0
 2903 072f 0F       		.uleb128 0xf
 2904 0730 D1050000 		.4byte	0x5d1
 2905 0734 3F070000 		.4byte	0x73f
 2906 0738 10       		.uleb128 0x10
 2907 0739 30000000 		.4byte	0x30
 2908 073d 0D       		.byte	0xd
 2909 073e 00       		.byte	0
 2910 073f 12       		.uleb128 0x12
 2911 0740 8B030000 		.4byte	.LASF153
 2912 0744 01       		.byte	0x1
 2913 0745 0D       		.byte	0xd
 2914 0746 41       		.byte	0x41
 2915 0747 58070000 		.4byte	0x758
 2916 074b 07       		.uleb128 0x7
 2917 074c 31050000 		.4byte	.LASF108
 2918 0750 00       		.sleb128 0
 2919 0751 07       		.uleb128 0x7
 2920 0752 74040000 		.4byte	.LASF109
 2921 0756 01       		.sleb128 1
 2922 0757 00       		.byte	0
 2923 0758 08       		.uleb128 0x8
 2924 0759 6C010000 		.4byte	.LASF110
 2925 075d 08       		.byte	0x8
 2926 075e 01       		.byte	0x1
 2927 075f 5C       		.byte	0x5c
 2928 0760 8F070000 		.4byte	0x78f
 2929 0764 09       		.uleb128 0x9
 2930 0765 39040000 		.4byte	.LASF111
 2931 0769 01       		.byte	0x1
 2932 076a 5D       		.byte	0x5d
 2933 076b 8C010000 		.4byte	0x18c
 2934 076f 02       		.byte	0x2
 2935 0770 23       		.byte	0x23
 2936 0771 00       		.uleb128 0
 2937 0772 09       		.uleb128 0x9
 2938 0773 42050000 		.4byte	.LASF112
 2939 0777 01       		.byte	0x1
 2940 0778 5E       		.byte	0x5e
 2941 0779 BA000000 		.4byte	0xba
 2942 077d 02       		.byte	0x2
 2943 077e 23       		.byte	0x23
 2944 077f 04       		.uleb128 0x4
 2945 0780 0A       		.uleb128 0xa
 2946 0781 656E6400 		.ascii	"end\000"
 2947 0785 01       		.byte	0x1
 2948 0786 5F       		.byte	0x5f
 2949 0787 BA000000 		.4byte	0xba
 2950 078b 02       		.byte	0x2
 2951 078c 23       		.byte	0x23
 2952 078d 06       		.uleb128 0x6
 2953 078e 00       		.byte	0
 2954 078f 13       		.uleb128 0x13
ARM GAS  /tmp/ccRYQxIv.s 			page 53


 2955 0790 01       		.byte	0x1
 2956 0791 80020000 		.4byte	.LASF154
 2957 0795 01       		.byte	0x1
 2958 0796 7A       		.byte	0x7a
 2959 0797 01       		.byte	0x1
 2960 0798 00000000 		.4byte	.LFB7
 2961 079c 56000000 		.4byte	.LFE7
 2962 07a0 00000000 		.4byte	.LLST0
 2963 07a4 DB070000 		.4byte	0x7db
 2964 07a8 14       		.uleb128 0x14
 2965 07a9 7200     		.ascii	"r\000"
 2966 07ab 01       		.byte	0x1
 2967 07ac 7C       		.byte	0x7c
 2968 07ad 81040000 		.4byte	0x481
 2969 07b1 02       		.byte	0x2
 2970 07b2 91       		.byte	0x91
 2971 07b3 74       		.sleb128 -12
 2972 07b4 15       		.uleb128 0x15
 2973 07b5 B1000000 		.4byte	.LASF113
 2974 07b9 01       		.byte	0x1
 2975 07ba 7C       		.byte	0x7c
 2976 07bb 81040000 		.4byte	0x481
 2977 07bf 02       		.byte	0x2
 2978 07c0 91       		.byte	0x91
 2979 07c1 70       		.sleb128 -16
 2980 07c2 16       		.uleb128 0x16
 2981 07c3 3A000000 		.4byte	.LBB2
 2982 07c7 4C000000 		.4byte	.LBE2
 2983 07cb 14       		.uleb128 0x14
 2984 07cc 746D7000 		.ascii	"tmp\000"
 2985 07d0 01       		.byte	0x1
 2986 07d1 89       		.byte	0x89
 2987 07d2 81040000 		.4byte	0x481
 2988 07d6 02       		.byte	0x2
 2989 07d7 91       		.byte	0x91
 2990 07d8 6C       		.sleb128 -20
 2991 07d9 00       		.byte	0
 2992 07da 00       		.byte	0
 2993 07db 17       		.uleb128 0x17
 2994 07dc 0C030000 		.4byte	.LASF118
 2995 07e0 01       		.byte	0x1
 2996 07e1 9E       		.byte	0x9e
 2997 07e2 01       		.byte	0x1
 2998 07e3 29000000 		.4byte	0x29
 2999 07e7 00000000 		.4byte	.LFB8
 3000 07eb 48010000 		.4byte	.LFE8
 3001 07ef 2C000000 		.4byte	.LLST1
 3002 07f3 62080000 		.4byte	0x862
 3003 07f7 18       		.uleb128 0x18
 3004 07f8 69707200 		.ascii	"ipr\000"
 3005 07fc 01       		.byte	0x1
 3006 07fd 9E       		.byte	0x9e
 3007 07fe 81040000 		.4byte	0x481
 3008 0802 02       		.byte	0x2
 3009 0803 91       		.byte	0x91
 3010 0804 5C       		.sleb128 -36
 3011 0805 19       		.uleb128 0x19
ARM GAS  /tmp/ccRYQxIv.s 			page 54


 3012 0806 B1000000 		.4byte	.LASF113
 3013 080a 01       		.byte	0x1
 3014 080b 9E       		.byte	0x9e
 3015 080c 81040000 		.4byte	0x481
 3016 0810 02       		.byte	0x2
 3017 0811 91       		.byte	0x91
 3018 0812 58       		.sleb128 -40
 3019 0813 15       		.uleb128 0x15
 3020 0814 69060000 		.4byte	.LASF114
 3021 0818 01       		.byte	0x1
 3022 0819 A0       		.byte	0xa0
 3023 081a BA000000 		.4byte	0xba
 3024 081e 02       		.byte	0x2
 3025 081f 91       		.byte	0x91
 3026 0820 76       		.sleb128 -10
 3027 0821 15       		.uleb128 0x15
 3028 0822 C8010000 		.4byte	.LASF115
 3029 0826 01       		.byte	0x1
 3030 0827 A1       		.byte	0xa1
 3031 0828 A4000000 		.4byte	0xa4
 3032 082c 02       		.byte	0x2
 3033 082d 91       		.byte	0x91
 3034 082e 6B       		.sleb128 -21
 3035 082f 14       		.uleb128 0x14
 3036 0830 7000     		.ascii	"p\000"
 3037 0832 01       		.byte	0x1
 3038 0833 A2       		.byte	0xa2
 3039 0834 8C010000 		.4byte	0x18c
 3040 0838 02       		.byte	0x2
 3041 0839 91       		.byte	0x91
 3042 083a 70       		.sleb128 -16
 3043 083b 15       		.uleb128 0x15
 3044 083c FB000000 		.4byte	.LASF116
 3045 0840 01       		.byte	0x1
 3046 0841 A3       		.byte	0xa3
 3047 0842 62080000 		.4byte	0x862
 3048 0846 02       		.byte	0x2
 3049 0847 91       		.byte	0x91
 3050 0848 6C       		.sleb128 -20
 3051 0849 16       		.uleb128 0x16
 3052 084a B6000000 		.4byte	.LBB3
 3053 084e FE000000 		.4byte	.LBE3
 3054 0852 15       		.uleb128 0x15
 3055 0853 0B010000 		.4byte	.LASF117
 3056 0857 01       		.byte	0x1
 3057 0858 C0       		.byte	0xc0
 3058 0859 8C010000 		.4byte	0x18c
 3059 085d 02       		.byte	0x2
 3060 085e 91       		.byte	0x91
 3061 085f 64       		.sleb128 -28
 3062 0860 00       		.byte	0
 3063 0861 00       		.byte	0
 3064 0862 0B       		.uleb128 0xb
 3065 0863 04       		.byte	0x4
 3066 0864 58070000 		.4byte	0x758
 3067 0868 17       		.uleb128 0x17
 3068 0869 63000000 		.4byte	.LASF119
ARM GAS  /tmp/ccRYQxIv.s 			page 55


 3069 086d 01       		.byte	0x1
 3070 086e DD       		.byte	0xdd
 3071 086f 01       		.byte	0x1
 3072 0870 29000000 		.4byte	0x29
 3073 0874 00000000 		.4byte	.LFB9
 3074 0878 C0000000 		.4byte	.LFE9
 3075 087c 58000000 		.4byte	.LLST2
 3076 0880 F3080000 		.4byte	0x8f3
 3077 0884 19       		.uleb128 0x19
 3078 0885 4C000000 		.4byte	.LASF120
 3079 0889 01       		.byte	0x1
 3080 088a DD       		.byte	0xdd
 3081 088b F3080000 		.4byte	0x8f3
 3082 088f 02       		.byte	0x2
 3083 0890 91       		.byte	0x91
 3084 0891 5C       		.sleb128 -36
 3085 0892 19       		.uleb128 0x19
 3086 0893 12020000 		.4byte	.LASF121
 3087 0897 01       		.byte	0x1
 3088 0898 DD       		.byte	0xdd
 3089 0899 29000000 		.4byte	0x29
 3090 089d 02       		.byte	0x2
 3091 089e 91       		.byte	0x91
 3092 089f 58       		.sleb128 -40
 3093 08a0 14       		.uleb128 0x14
 3094 08a1 7200     		.ascii	"r\000"
 3095 08a3 01       		.byte	0x1
 3096 08a4 E2       		.byte	0xe2
 3097 08a5 81040000 		.4byte	0x481
 3098 08a9 02       		.byte	0x2
 3099 08aa 91       		.byte	0x91
 3100 08ab 74       		.sleb128 -12
 3101 08ac 15       		.uleb128 0x15
 3102 08ad 75030000 		.4byte	.LASF122
 3103 08b1 01       		.byte	0x1
 3104 08b2 E2       		.byte	0xe2
 3105 08b3 81040000 		.4byte	0x481
 3106 08b7 02       		.byte	0x2
 3107 08b8 91       		.byte	0x91
 3108 08b9 70       		.sleb128 -16
 3109 08ba 15       		.uleb128 0x15
 3110 08bb B1000000 		.4byte	.LASF113
 3111 08bf 01       		.byte	0x1
 3112 08c0 E2       		.byte	0xe2
 3113 08c1 81040000 		.4byte	0x481
 3114 08c5 02       		.byte	0x2
 3115 08c6 91       		.byte	0x91
 3116 08c7 6C       		.sleb128 -20
 3117 08c8 15       		.uleb128 0x15
 3118 08c9 69060000 		.4byte	.LASF114
 3119 08cd 01       		.byte	0x1
 3120 08ce E3       		.byte	0xe3
 3121 08cf 29000000 		.4byte	0x29
 3122 08d3 02       		.byte	0x2
 3123 08d4 91       		.byte	0x91
 3124 08d5 68       		.sleb128 -24
 3125 08d6 15       		.uleb128 0x15
ARM GAS  /tmp/ccRYQxIv.s 			page 56


 3126 08d7 1C070000 		.4byte	.LASF123
 3127 08db 01       		.byte	0x1
 3128 08dc E3       		.byte	0xe3
 3129 08dd 29000000 		.4byte	0x29
 3130 08e1 02       		.byte	0x2
 3131 08e2 91       		.byte	0x91
 3132 08e3 60       		.sleb128 -32
 3133 08e4 15       		.uleb128 0x15
 3134 08e5 0A000000 		.4byte	.LASF124
 3135 08e9 01       		.byte	0x1
 3136 08ea E4       		.byte	0xe4
 3137 08eb 29000000 		.4byte	0x29
 3138 08ef 02       		.byte	0x2
 3139 08f0 91       		.byte	0x91
 3140 08f1 64       		.sleb128 -28
 3141 08f2 00       		.byte	0
 3142 08f3 0B       		.uleb128 0xb
 3143 08f4 04       		.byte	0x4
 3144 08f5 97030000 		.4byte	0x397
 3145 08f9 1A       		.uleb128 0x1a
 3146 08fa E0030000 		.4byte	.LASF125
 3147 08fe 01       		.byte	0x1
 3148 08ff 0D01     		.2byte	0x10d
 3149 0901 01       		.byte	0x1
 3150 0902 81040000 		.4byte	0x481
 3151 0906 00000000 		.4byte	.LFB10
 3152 090a B4000000 		.4byte	.LFE10
 3153 090e 84000000 		.4byte	.LLST3
 3154 0912 44090000 		.4byte	0x944
 3155 0916 1B       		.uleb128 0x1b
 3156 0917 4C000000 		.4byte	.LASF120
 3157 091b 01       		.byte	0x1
 3158 091c 0D01     		.2byte	0x10d
 3159 091e F3080000 		.4byte	0x8f3
 3160 0922 02       		.byte	0x2
 3161 0923 91       		.byte	0x91
 3162 0924 6C       		.sleb128 -20
 3163 0925 1B       		.uleb128 0x1b
 3164 0926 C8010000 		.4byte	.LASF115
 3165 092a 01       		.byte	0x1
 3166 092b 0D01     		.2byte	0x10d
 3167 092d 29000000 		.4byte	0x29
 3168 0931 02       		.byte	0x2
 3169 0932 91       		.byte	0x91
 3170 0933 68       		.sleb128 -24
 3171 0934 1C       		.uleb128 0x1c
 3172 0935 69707200 		.ascii	"ipr\000"
 3173 0939 01       		.byte	0x1
 3174 093a 0F01     		.2byte	0x10f
 3175 093c 81040000 		.4byte	0x481
 3176 0940 02       		.byte	0x2
 3177 0941 91       		.byte	0x91
 3178 0942 74       		.sleb128 -12
 3179 0943 00       		.byte	0
 3180 0944 1D       		.uleb128 0x1d
 3181 0945 02050000 		.4byte	.LASF135
 3182 0949 01       		.byte	0x1
ARM GAS  /tmp/ccRYQxIv.s 			page 57


 3183 094a 3001     		.2byte	0x130
 3184 094c 01       		.byte	0x1
 3185 094d 00000000 		.4byte	.LFB11
 3186 0951 48000000 		.4byte	.LFE11
 3187 0955 B0000000 		.4byte	.LLST4
 3188 0959 7C090000 		.4byte	0x97c
 3189 095d 1E       		.uleb128 0x1e
 3190 095e 69707200 		.ascii	"ipr\000"
 3191 0962 01       		.byte	0x1
 3192 0963 3001     		.2byte	0x130
 3193 0965 81040000 		.4byte	0x481
 3194 0969 02       		.byte	0x2
 3195 096a 91       		.byte	0x91
 3196 096b 74       		.sleb128 -12
 3197 096c 1B       		.uleb128 0x1b
 3198 096d B1000000 		.4byte	.LASF113
 3199 0971 01       		.byte	0x1
 3200 0972 3001     		.2byte	0x130
 3201 0974 81040000 		.4byte	0x481
 3202 0978 02       		.byte	0x2
 3203 0979 91       		.byte	0x91
 3204 097a 70       		.sleb128 -16
 3205 097b 00       		.byte	0
 3206 097c 1A       		.uleb128 0x1a
 3207 097d 48050000 		.4byte	.LASF126
 3208 0981 01       		.byte	0x1
 3209 0982 4B01     		.2byte	0x14b
 3210 0984 01       		.byte	0x1
 3211 0985 29000000 		.4byte	0x29
 3212 0989 00000000 		.4byte	.LFB12
 3213 098d 92020000 		.4byte	.LFE12
 3214 0991 DC000000 		.4byte	.LLST5
 3215 0995 3A0A0000 		.4byte	0xa3a
 3216 0999 1E       		.uleb128 0x1e
 3217 099a 69707200 		.ascii	"ipr\000"
 3218 099e 01       		.byte	0x1
 3219 099f 4B01     		.2byte	0x14b
 3220 09a1 81040000 		.4byte	0x481
 3221 09a5 02       		.byte	0x2
 3222 09a6 91       		.byte	0x91
 3223 09a7 54       		.sleb128 -44
 3224 09a8 1B       		.uleb128 0x1b
 3225 09a9 06030000 		.4byte	.LASF127
 3226 09ad 01       		.byte	0x1
 3227 09ae 4B01     		.2byte	0x14b
 3228 09b0 8C010000 		.4byte	0x18c
 3229 09b4 02       		.byte	0x2
 3230 09b5 91       		.byte	0x91
 3231 09b6 50       		.sleb128 -48
 3232 09b7 1F       		.uleb128 0x1f
 3233 09b8 FB000000 		.4byte	.LASF116
 3234 09bc 01       		.byte	0x1
 3235 09bd 4D01     		.2byte	0x14d
 3236 09bf 62080000 		.4byte	0x862
 3237 09c3 02       		.byte	0x2
 3238 09c4 91       		.byte	0x91
 3239 09c5 74       		.sleb128 -12
ARM GAS  /tmp/ccRYQxIv.s 			page 58


 3240 09c6 1F       		.uleb128 0x1f
 3241 09c7 50060000 		.4byte	.LASF128
 3242 09cb 01       		.byte	0x1
 3243 09cc 4D01     		.2byte	0x14d
 3244 09ce 62080000 		.4byte	0x862
 3245 09d2 02       		.byte	0x2
 3246 09d3 91       		.byte	0x91
 3247 09d4 5C       		.sleb128 -36
 3248 09d5 1F       		.uleb128 0x1f
 3249 09d6 C5050000 		.4byte	.LASF129
 3250 09da 01       		.byte	0x1
 3251 09db 4D01     		.2byte	0x14d
 3252 09dd 62080000 		.4byte	0x862
 3253 09e1 02       		.byte	0x2
 3254 09e2 91       		.byte	0x91
 3255 09e3 70       		.sleb128 -16
 3256 09e4 1C       		.uleb128 0x1c
 3257 09e5 7100     		.ascii	"q\000"
 3258 09e7 01       		.byte	0x1
 3259 09e8 4E01     		.2byte	0x14e
 3260 09ea 8C010000 		.4byte	0x18c
 3261 09ee 02       		.byte	0x2
 3262 09ef 91       		.byte	0x91
 3263 09f0 6C       		.sleb128 -20
 3264 09f1 1F       		.uleb128 0x1f
 3265 09f2 C1010000 		.4byte	.LASF130
 3266 09f6 01       		.byte	0x1
 3267 09f7 4F01     		.2byte	0x14f
 3268 09f9 BA000000 		.4byte	0xba
 3269 09fd 02       		.byte	0x2
 3270 09fe 91       		.byte	0x91
 3271 09ff 60       		.sleb128 -32
 3272 0a00 1C       		.uleb128 0x1c
 3273 0a01 6C656E00 		.ascii	"len\000"
 3274 0a05 01       		.byte	0x1
 3275 0a06 4F01     		.2byte	0x14f
 3276 0a08 BA000000 		.4byte	0xba
 3277 0a0c 02       		.byte	0x2
 3278 0a0d 91       		.byte	0x91
 3279 0a0e 62       		.sleb128 -30
 3280 0a0f 1F       		.uleb128 0x1f
 3281 0a10 4C000000 		.4byte	.LASF120
 3282 0a14 01       		.byte	0x1
 3283 0a15 5001     		.2byte	0x150
 3284 0a17 F3080000 		.4byte	0x8f3
 3285 0a1b 02       		.byte	0x2
 3286 0a1c 91       		.byte	0x91
 3287 0a1d 64       		.sleb128 -28
 3288 0a1e 1F       		.uleb128 0x1f
 3289 0a1f C3030000 		.4byte	.LASF131
 3290 0a23 01       		.byte	0x1
 3291 0a24 5101     		.2byte	0x151
 3292 0a26 29000000 		.4byte	0x29
 3293 0a2a 02       		.byte	0x2
 3294 0a2b 91       		.byte	0x91
 3295 0a2c 68       		.sleb128 -24
 3296 0a2d 20       		.uleb128 0x20
ARM GAS  /tmp/ccRYQxIv.s 			page 59


 3297 0a2e 67020000 		.4byte	.LASF133
 3298 0a32 01       		.byte	0x1
 3299 0a33 CE01     		.2byte	0x1ce
 3300 0a35 62020000 		.4byte	.L36
 3301 0a39 00       		.byte	0
 3302 0a3a 21       		.uleb128 0x21
 3303 0a3b 01       		.byte	0x1
 3304 0a3c BA030000 		.4byte	.LASF138
 3305 0a40 01       		.byte	0x1
 3306 0a41 DC01     		.2byte	0x1dc
 3307 0a43 01       		.byte	0x1
 3308 0a44 8C010000 		.4byte	0x18c
 3309 0a48 00000000 		.4byte	.LFB13
 3310 0a4c 58030000 		.4byte	.LFE13
 3311 0a50 08010000 		.4byte	.LLST6
 3312 0a54 E80A0000 		.4byte	0xae8
 3313 0a58 1E       		.uleb128 0x1e
 3314 0a59 7000     		.ascii	"p\000"
 3315 0a5b 01       		.byte	0x1
 3316 0a5c DC01     		.2byte	0x1dc
 3317 0a5e 8C010000 		.4byte	0x18c
 3318 0a62 02       		.byte	0x2
 3319 0a63 91       		.byte	0x91
 3320 0a64 54       		.sleb128 -44
 3321 0a65 1C       		.uleb128 0x1c
 3322 0a66 7200     		.ascii	"r\000"
 3323 0a68 01       		.byte	0x1
 3324 0a69 DE01     		.2byte	0x1de
 3325 0a6b 8C010000 		.4byte	0x18c
 3326 0a6f 02       		.byte	0x2
 3327 0a70 91       		.byte	0x91
 3328 0a71 74       		.sleb128 -12
 3329 0a72 1F       		.uleb128 0x1f
 3330 0a73 4C000000 		.4byte	.LASF120
 3331 0a77 01       		.byte	0x1
 3332 0a78 DF01     		.2byte	0x1df
 3333 0a7a F3080000 		.4byte	0x8f3
 3334 0a7e 02       		.byte	0x2
 3335 0a7f 91       		.byte	0x91
 3336 0a80 68       		.sleb128 -24
 3337 0a81 1C       		.uleb128 0x1c
 3338 0a82 69707200 		.ascii	"ipr\000"
 3339 0a86 01       		.byte	0x1
 3340 0a87 E001     		.2byte	0x1e0
 3341 0a89 81040000 		.4byte	0x481
 3342 0a8d 02       		.byte	0x2
 3343 0a8e 91       		.byte	0x91
 3344 0a8f 70       		.sleb128 -16
 3345 0a90 1F       		.uleb128 0x1f
 3346 0a91 FB000000 		.4byte	.LASF116
 3347 0a95 01       		.byte	0x1
 3348 0a96 E101     		.2byte	0x1e1
 3349 0a98 62080000 		.4byte	0x862
 3350 0a9c 02       		.byte	0x2
 3351 0a9d 91       		.byte	0x91
 3352 0a9e 5C       		.sleb128 -36
 3353 0a9f 1F       		.uleb128 0x1f
ARM GAS  /tmp/ccRYQxIv.s 			page 60


 3354 0aa0 C1010000 		.4byte	.LASF130
 3355 0aa4 01       		.byte	0x1
 3356 0aa5 E201     		.2byte	0x1e2
 3357 0aa7 BA000000 		.4byte	0xba
 3358 0aab 02       		.byte	0x2
 3359 0aac 91       		.byte	0x91
 3360 0aad 66       		.sleb128 -26
 3361 0aae 1C       		.uleb128 0x1c
 3362 0aaf 6C656E00 		.ascii	"len\000"
 3363 0ab3 01       		.byte	0x1
 3364 0ab4 E201     		.2byte	0x1e2
 3365 0ab6 BA000000 		.4byte	0xba
 3366 0aba 02       		.byte	0x2
 3367 0abb 91       		.byte	0x91
 3368 0abc 64       		.sleb128 -28
 3369 0abd 1F       		.uleb128 0x1f
 3370 0abe C8010000 		.4byte	.LASF115
 3371 0ac2 01       		.byte	0x1
 3372 0ac3 E301     		.2byte	0x1e3
 3373 0ac5 A4000000 		.4byte	0xa4
 3374 0ac9 02       		.byte	0x2
 3375 0aca 91       		.byte	0x91
 3376 0acb 63       		.sleb128 -29
 3377 0acc 1F       		.uleb128 0x1f
 3378 0acd 3A060000 		.4byte	.LASF132
 3379 0ad1 01       		.byte	0x1
 3380 0ad2 E401     		.2byte	0x1e4
 3381 0ad4 81040000 		.4byte	0x481
 3382 0ad8 02       		.byte	0x2
 3383 0ad9 91       		.byte	0x91
 3384 0ada 6C       		.sleb128 -20
 3385 0adb 20       		.uleb128 0x20
 3386 0adc 95000000 		.4byte	.LASF134
 3387 0ae0 01       		.byte	0x1
 3388 0ae1 6002     		.2byte	0x260
 3389 0ae3 2E030000 		.4byte	.L62
 3390 0ae7 00       		.byte	0
 3391 0ae8 22       		.uleb128 0x22
 3392 0ae9 9A050000 		.4byte	.LASF155
 3393 0aed 01       		.byte	0x1
 3394 0aee 7002     		.2byte	0x270
 3395 0af0 01       		.byte	0x1
 3396 0af1 010B0000 		.4byte	0xb01
 3397 0af5 00000000 		.4byte	.LFB14
 3398 0af9 10000000 		.4byte	.LFE14
 3399 0afd 34010000 		.4byte	.LLST7
 3400 0b01 0B       		.uleb128 0xb
 3401 0b02 04       		.byte	0x4
 3402 0b03 87040000 		.4byte	0x487
 3403 0b07 1D       		.uleb128 0x1d
 3404 0b08 75060000 		.4byte	.LASF136
 3405 0b0c 01       		.byte	0x1
 3406 0b0d 7702     		.2byte	0x277
 3407 0b0f 01       		.byte	0x1
 3408 0b10 00000000 		.4byte	.LFB15
 3409 0b14 1E000000 		.4byte	.LFE15
 3410 0b18 54010000 		.4byte	.LLST8
ARM GAS  /tmp/ccRYQxIv.s 			page 61


 3411 0b1c 2E0B0000 		.4byte	0xb2e
 3412 0b20 1E       		.uleb128 0x1e
 3413 0b21 7000     		.ascii	"p\000"
 3414 0b23 01       		.byte	0x1
 3415 0b24 7702     		.2byte	0x277
 3416 0b26 010B0000 		.4byte	0xb01
 3417 0b2a 02       		.byte	0x2
 3418 0b2b 91       		.byte	0x91
 3419 0b2c 74       		.sleb128 -12
 3420 0b2d 00       		.byte	0
 3421 0b2e 1D       		.uleb128 0x1d
 3422 0b2f E5040000 		.4byte	.LASF137
 3423 0b33 01       		.byte	0x1
 3424 0b34 8002     		.2byte	0x280
 3425 0b36 01       		.byte	0x1
 3426 0b37 00000000 		.4byte	.LFB16
 3427 0b3b 3C000000 		.4byte	.LFE16
 3428 0b3f 80010000 		.4byte	.LLST9
 3429 0b43 640B0000 		.4byte	0xb64
 3430 0b47 1E       		.uleb128 0x1e
 3431 0b48 7000     		.ascii	"p\000"
 3432 0b4a 01       		.byte	0x1
 3433 0b4b 8002     		.2byte	0x280
 3434 0b4d 8C010000 		.4byte	0x18c
 3435 0b51 02       		.byte	0x2
 3436 0b52 91       		.byte	0x91
 3437 0b53 6C       		.sleb128 -20
 3438 0b54 1C       		.uleb128 0x1c
 3439 0b55 70637200 		.ascii	"pcr\000"
 3440 0b59 01       		.byte	0x1
 3441 0b5a 8202     		.2byte	0x282
 3442 0b5c 010B0000 		.4byte	0xb01
 3443 0b60 02       		.byte	0x2
 3444 0b61 91       		.byte	0x91
 3445 0b62 74       		.sleb128 -12
 3446 0b63 00       		.byte	0
 3447 0b64 21       		.uleb128 0x21
 3448 0b65 01       		.byte	0x1
 3449 0b66 7C010000 		.4byte	.LASF105
 3450 0b6a 01       		.byte	0x1
 3451 0b6b 9B02     		.2byte	0x29b
 3452 0b6d 01       		.byte	0x1
 3453 0b6e D0000000 		.4byte	0xd0
 3454 0b72 00000000 		.4byte	.LFB17
 3455 0b76 BE020000 		.4byte	.LFE17
 3456 0b7a AC010000 		.4byte	.LLST10
 3457 0b7e A90C0000 		.4byte	0xca9
 3458 0b82 1E       		.uleb128 0x1e
 3459 0b83 7000     		.ascii	"p\000"
 3460 0b85 01       		.byte	0x1
 3461 0b86 9B02     		.2byte	0x29b
 3462 0b88 8C010000 		.4byte	0x18c
 3463 0b8c 02       		.byte	0x2
 3464 0b8d 91       		.byte	0x91
 3465 0b8e 44       		.sleb128 -60
 3466 0b8f 1B       		.uleb128 0x1b
 3467 0b90 92060000 		.4byte	.LASF41
ARM GAS  /tmp/ccRYQxIv.s 			page 62


 3468 0b94 01       		.byte	0x1
 3469 0b95 9B02     		.2byte	0x29b
 3470 0b97 24020000 		.4byte	0x224
 3471 0b9b 02       		.byte	0x2
 3472 0b9c 91       		.byte	0x91
 3473 0b9d 40       		.sleb128 -64
 3474 0b9e 1B       		.uleb128 0x1b
 3475 0b9f 17070000 		.4byte	.LASF60
 3476 0ba3 01       		.byte	0x1
 3477 0ba4 9B02     		.2byte	0x29b
 3478 0ba6 4B030000 		.4byte	0x34b
 3479 0baa 03       		.byte	0x3
 3480 0bab 91       		.byte	0x91
 3481 0bac BC7F     		.sleb128 -68
 3482 0bae 1F       		.uleb128 0x1f
 3483 0baf 28040000 		.4byte	.LASF139
 3484 0bb3 01       		.byte	0x1
 3485 0bb4 9D02     		.2byte	0x29d
 3486 0bb6 8C010000 		.4byte	0x18c
 3487 0bba 02       		.byte	0x2
 3488 0bbb 91       		.byte	0x91
 3489 0bbc 54       		.sleb128 -44
 3490 0bbd 1F       		.uleb128 0x1f
 3491 0bbe D0040000 		.4byte	.LASF140
 3492 0bc2 01       		.byte	0x1
 3493 0bc3 A202     		.2byte	0x2a2
 3494 0bc5 8C010000 		.4byte	0x18c
 3495 0bc9 02       		.byte	0x2
 3496 0bca 91       		.byte	0x91
 3497 0bcb 4C       		.sleb128 -52
 3498 0bcc 1F       		.uleb128 0x1f
 3499 0bcd 1A000000 		.4byte	.LASF141
 3500 0bd1 01       		.byte	0x1
 3501 0bd2 A402     		.2byte	0x2a4
 3502 0bd4 F3080000 		.4byte	0x8f3
 3503 0bd8 02       		.byte	0x2
 3504 0bd9 91       		.byte	0x91
 3505 0bda 64       		.sleb128 -28
 3506 0bdb 1F       		.uleb128 0x1f
 3507 0bdc CA060000 		.4byte	.LASF62
 3508 0be0 01       		.byte	0x1
 3509 0be1 A602     		.2byte	0x2a6
 3510 0be3 F3080000 		.4byte	0x8f3
 3511 0be7 02       		.byte	0x2
 3512 0be8 91       		.byte	0x91
 3513 0be9 60       		.sleb128 -32
 3514 0bea 1C       		.uleb128 0x1c
 3515 0beb 6E666200 		.ascii	"nfb\000"
 3516 0bef 01       		.byte	0x1
 3517 0bf0 A702     		.2byte	0x2a7
 3518 0bf2 BA000000 		.4byte	0xba
 3519 0bf6 02       		.byte	0x2
 3520 0bf7 91       		.byte	0x91
 3521 0bf8 5C       		.sleb128 -36
 3522 0bf9 1F       		.uleb128 0x1f
 3523 0bfa 25050000 		.4byte	.LASF142
 3524 0bfe 01       		.byte	0x1
ARM GAS  /tmp/ccRYQxIv.s 			page 63


 3525 0bff A802     		.2byte	0x2a8
 3526 0c01 BA000000 		.4byte	0xba
 3527 0c05 02       		.byte	0x2
 3528 0c06 91       		.byte	0x91
 3529 0c07 76       		.sleb128 -10
 3530 0c08 1C       		.uleb128 0x1c
 3531 0c09 636F7000 		.ascii	"cop\000"
 3532 0c0d 01       		.byte	0x1
 3533 0c0e A802     		.2byte	0x2a8
 3534 0c10 BA000000 		.4byte	0xba
 3535 0c14 02       		.byte	0x2
 3536 0c15 91       		.byte	0x91
 3537 0c16 58       		.sleb128 -40
 3538 0c17 1C       		.uleb128 0x1c
 3539 0c18 6D747500 		.ascii	"mtu\000"
 3540 0c1c 01       		.byte	0x1
 3541 0c1d A902     		.2byte	0x2a9
 3542 0c1f BA000000 		.4byte	0xba
 3543 0c23 02       		.byte	0x2
 3544 0c24 91       		.byte	0x91
 3545 0c25 6A       		.sleb128 -22
 3546 0c26 1C       		.uleb128 0x1c
 3547 0c27 6F666F00 		.ascii	"ofo\000"
 3548 0c2b 01       		.byte	0x1
 3549 0c2c AA02     		.2byte	0x2aa
 3550 0c2e BA000000 		.4byte	0xba
 3551 0c32 02       		.byte	0x2
 3552 0c33 91       		.byte	0x91
 3553 0c34 74       		.sleb128 -12
 3554 0c35 1C       		.uleb128 0x1c
 3555 0c36 6F6D6600 		.ascii	"omf\000"
 3556 0c3a 01       		.byte	0x1
 3557 0c3b AA02     		.2byte	0x2aa
 3558 0c3d BA000000 		.4byte	0xba
 3559 0c41 02       		.byte	0x2
 3560 0c42 91       		.byte	0x91
 3561 0c43 5E       		.sleb128 -34
 3562 0c44 1F       		.uleb128 0x1f
 3563 0c45 05000000 		.4byte	.LASF143
 3564 0c49 01       		.byte	0x1
 3565 0c4a AB02     		.2byte	0x2ab
 3566 0c4c BA000000 		.4byte	0xba
 3567 0c50 02       		.byte	0x2
 3568 0c51 91       		.byte	0x91
 3569 0c52 5A       		.sleb128 -38
 3570 0c53 1F       		.uleb128 0x1f
 3571 0c54 00000000 		.4byte	.LASF144
 3572 0c58 01       		.byte	0x1
 3573 0c59 AC02     		.2byte	0x2ac
 3574 0c5b BA000000 		.4byte	0xba
 3575 0c5f 02       		.byte	0x2
 3576 0c60 91       		.byte	0x91
 3577 0c61 72       		.sleb128 -14
 3578 0c62 1C       		.uleb128 0x1c
 3579 0c63 746D7000 		.ascii	"tmp\000"
 3580 0c67 01       		.byte	0x1
 3581 0c68 AD02     		.2byte	0x2ad
ARM GAS  /tmp/ccRYQxIv.s 			page 64


 3582 0c6a BA000000 		.4byte	0xba
 3583 0c6e 02       		.byte	0x2
 3584 0c6f 91       		.byte	0x91
 3585 0c70 70       		.sleb128 -16
 3586 0c71 1F       		.uleb128 0x1f
 3587 0c72 BF060000 		.4byte	.LASF145
 3588 0c76 01       		.byte	0x1
 3589 0c77 AF02     		.2byte	0x2af
 3590 0c79 BA000000 		.4byte	0xba
 3591 0c7d 02       		.byte	0x2
 3592 0c7e 91       		.byte	0x91
 3593 0c7f 6E       		.sleb128 -18
 3594 0c80 1F       		.uleb128 0x1f
 3595 0c81 F0050000 		.4byte	.LASF146
 3596 0c85 01       		.byte	0x1
 3597 0c86 B002     		.2byte	0x2b0
 3598 0c88 BA000000 		.4byte	0xba
 3599 0c8c 02       		.byte	0x2
 3600 0c8d 91       		.byte	0x91
 3601 0c8e 6C       		.sleb128 -20
 3602 0c8f 16       		.uleb128 0x16
 3603 0c90 52010000 		.4byte	.LBB4
 3604 0c94 06020000 		.4byte	.LBE4
 3605 0c98 1C       		.uleb128 0x1c
 3606 0c99 70637200 		.ascii	"pcr\000"
 3607 0c9d 01       		.byte	0x1
 3608 0c9e 0603     		.2byte	0x306
 3609 0ca0 010B0000 		.4byte	0xb01
 3610 0ca4 02       		.byte	0x2
 3611 0ca5 91       		.byte	0x91
 3612 0ca6 50       		.sleb128 -48
 3613 0ca7 00       		.byte	0
 3614 0ca8 00       		.byte	0
 3615 0ca9 23       		.uleb128 0x23
 3616 0caa 00010000 		.4byte	.LASF149
 3617 0cae 0C       		.byte	0xc
 3618 0caf 95       		.byte	0x95
 3619 0cb0 92060000 		.4byte	0x692
 3620 0cb4 01       		.byte	0x1
 3621 0cb5 01       		.byte	0x1
 3622 0cb6 15       		.uleb128 0x15
 3623 0cb7 FE030000 		.4byte	.LASF147
 3624 0cbb 01       		.byte	0x1
 3625 0cbc 6C       		.byte	0x6c
 3626 0cbd 81040000 		.4byte	0x481
 3627 0cc1 05       		.byte	0x5
 3628 0cc2 03       		.byte	0x3
 3629 0cc3 00000000 		.4byte	reassdatagrams
 3630 0cc7 15       		.uleb128 0x15
 3631 0cc8 B1020000 		.4byte	.LASF148
 3632 0ccc 01       		.byte	0x1
 3633 0ccd 6D       		.byte	0x6d
 3634 0cce BA000000 		.4byte	0xba
 3635 0cd2 05       		.byte	0x5
 3636 0cd3 03       		.byte	0x3
 3637 0cd4 00000000 		.4byte	ip_reass_pbufcount
 3638 0cd8 23       		.uleb128 0x23
ARM GAS  /tmp/ccRYQxIv.s 			page 65


 3639 0cd9 00010000 		.4byte	.LASF149
 3640 0cdd 0C       		.byte	0xc
 3641 0cde 95       		.byte	0x95
 3642 0cdf 92060000 		.4byte	0x692
 3643 0ce3 01       		.byte	0x1
 3644 0ce4 01       		.byte	0x1
 3645 0ce5 00       		.byte	0
 3646              		.section	.debug_abbrev,"",%progbits
 3647              	.Ldebug_abbrev0:
 3648 0000 01       		.uleb128 0x1
 3649 0001 11       		.uleb128 0x11
 3650 0002 01       		.byte	0x1
 3651 0003 25       		.uleb128 0x25
 3652 0004 0E       		.uleb128 0xe
 3653 0005 13       		.uleb128 0x13
 3654 0006 0B       		.uleb128 0xb
 3655 0007 03       		.uleb128 0x3
 3656 0008 0E       		.uleb128 0xe
 3657 0009 1B       		.uleb128 0x1b
 3658 000a 0E       		.uleb128 0xe
 3659 000b 11       		.uleb128 0x11
 3660 000c 01       		.uleb128 0x1
 3661 000d 52       		.uleb128 0x52
 3662 000e 01       		.uleb128 0x1
 3663 000f 55       		.uleb128 0x55
 3664 0010 06       		.uleb128 0x6
 3665 0011 10       		.uleb128 0x10
 3666 0012 06       		.uleb128 0x6
 3667 0013 00       		.byte	0
 3668 0014 00       		.byte	0
 3669 0015 02       		.uleb128 0x2
 3670 0016 24       		.uleb128 0x24
 3671 0017 00       		.byte	0
 3672 0018 0B       		.uleb128 0xb
 3673 0019 0B       		.uleb128 0xb
 3674 001a 3E       		.uleb128 0x3e
 3675 001b 0B       		.uleb128 0xb
 3676 001c 03       		.uleb128 0x3
 3677 001d 08       		.uleb128 0x8
 3678 001e 00       		.byte	0
 3679 001f 00       		.byte	0
 3680 0020 03       		.uleb128 0x3
 3681 0021 24       		.uleb128 0x24
 3682 0022 00       		.byte	0
 3683 0023 0B       		.uleb128 0xb
 3684 0024 0B       		.uleb128 0xb
 3685 0025 3E       		.uleb128 0x3e
 3686 0026 0B       		.uleb128 0xb
 3687 0027 03       		.uleb128 0x3
 3688 0028 0E       		.uleb128 0xe
 3689 0029 00       		.byte	0
 3690 002a 00       		.byte	0
 3691 002b 04       		.uleb128 0x4
 3692 002c 16       		.uleb128 0x16
 3693 002d 00       		.byte	0
 3694 002e 03       		.uleb128 0x3
 3695 002f 0E       		.uleb128 0xe
ARM GAS  /tmp/ccRYQxIv.s 			page 66


 3696 0030 3A       		.uleb128 0x3a
 3697 0031 0B       		.uleb128 0xb
 3698 0032 3B       		.uleb128 0x3b
 3699 0033 0B       		.uleb128 0xb
 3700 0034 49       		.uleb128 0x49
 3701 0035 13       		.uleb128 0x13
 3702 0036 00       		.byte	0
 3703 0037 00       		.byte	0
 3704 0038 05       		.uleb128 0x5
 3705 0039 0F       		.uleb128 0xf
 3706 003a 00       		.byte	0
 3707 003b 0B       		.uleb128 0xb
 3708 003c 0B       		.uleb128 0xb
 3709 003d 00       		.byte	0
 3710 003e 00       		.byte	0
 3711 003f 06       		.uleb128 0x6
 3712 0040 04       		.uleb128 0x4
 3713 0041 01       		.byte	0x1
 3714 0042 0B       		.uleb128 0xb
 3715 0043 0B       		.uleb128 0xb
 3716 0044 3A       		.uleb128 0x3a
 3717 0045 0B       		.uleb128 0xb
 3718 0046 3B       		.uleb128 0x3b
 3719 0047 0B       		.uleb128 0xb
 3720 0048 01       		.uleb128 0x1
 3721 0049 13       		.uleb128 0x13
 3722 004a 00       		.byte	0
 3723 004b 00       		.byte	0
 3724 004c 07       		.uleb128 0x7
 3725 004d 28       		.uleb128 0x28
 3726 004e 00       		.byte	0
 3727 004f 03       		.uleb128 0x3
 3728 0050 0E       		.uleb128 0xe
 3729 0051 1C       		.uleb128 0x1c
 3730 0052 0D       		.uleb128 0xd
 3731 0053 00       		.byte	0
 3732 0054 00       		.byte	0
 3733 0055 08       		.uleb128 0x8
 3734 0056 13       		.uleb128 0x13
 3735 0057 01       		.byte	0x1
 3736 0058 03       		.uleb128 0x3
 3737 0059 0E       		.uleb128 0xe
 3738 005a 0B       		.uleb128 0xb
 3739 005b 0B       		.uleb128 0xb
 3740 005c 3A       		.uleb128 0x3a
 3741 005d 0B       		.uleb128 0xb
 3742 005e 3B       		.uleb128 0x3b
 3743 005f 0B       		.uleb128 0xb
 3744 0060 01       		.uleb128 0x1
 3745 0061 13       		.uleb128 0x13
 3746 0062 00       		.byte	0
 3747 0063 00       		.byte	0
 3748 0064 09       		.uleb128 0x9
 3749 0065 0D       		.uleb128 0xd
 3750 0066 00       		.byte	0
 3751 0067 03       		.uleb128 0x3
 3752 0068 0E       		.uleb128 0xe
ARM GAS  /tmp/ccRYQxIv.s 			page 67


 3753 0069 3A       		.uleb128 0x3a
 3754 006a 0B       		.uleb128 0xb
 3755 006b 3B       		.uleb128 0x3b
 3756 006c 0B       		.uleb128 0xb
 3757 006d 49       		.uleb128 0x49
 3758 006e 13       		.uleb128 0x13
 3759 006f 38       		.uleb128 0x38
 3760 0070 0A       		.uleb128 0xa
 3761 0071 00       		.byte	0
 3762 0072 00       		.byte	0
 3763 0073 0A       		.uleb128 0xa
 3764 0074 0D       		.uleb128 0xd
 3765 0075 00       		.byte	0
 3766 0076 03       		.uleb128 0x3
 3767 0077 08       		.uleb128 0x8
 3768 0078 3A       		.uleb128 0x3a
 3769 0079 0B       		.uleb128 0xb
 3770 007a 3B       		.uleb128 0x3b
 3771 007b 0B       		.uleb128 0xb
 3772 007c 49       		.uleb128 0x49
 3773 007d 13       		.uleb128 0x13
 3774 007e 38       		.uleb128 0x38
 3775 007f 0A       		.uleb128 0xa
 3776 0080 00       		.byte	0
 3777 0081 00       		.byte	0
 3778 0082 0B       		.uleb128 0xb
 3779 0083 0F       		.uleb128 0xf
 3780 0084 00       		.byte	0
 3781 0085 0B       		.uleb128 0xb
 3782 0086 0B       		.uleb128 0xb
 3783 0087 49       		.uleb128 0x49
 3784 0088 13       		.uleb128 0x13
 3785 0089 00       		.byte	0
 3786 008a 00       		.byte	0
 3787 008b 0C       		.uleb128 0xc
 3788 008c 15       		.uleb128 0x15
 3789 008d 01       		.byte	0x1
 3790 008e 27       		.uleb128 0x27
 3791 008f 0C       		.uleb128 0xc
 3792 0090 01       		.uleb128 0x1
 3793 0091 13       		.uleb128 0x13
 3794 0092 00       		.byte	0
 3795 0093 00       		.byte	0
 3796 0094 0D       		.uleb128 0xd
 3797 0095 05       		.uleb128 0x5
 3798 0096 00       		.byte	0
 3799 0097 49       		.uleb128 0x49
 3800 0098 13       		.uleb128 0x13
 3801 0099 00       		.byte	0
 3802 009a 00       		.byte	0
 3803 009b 0E       		.uleb128 0xe
 3804 009c 15       		.uleb128 0x15
 3805 009d 01       		.byte	0x1
 3806 009e 27       		.uleb128 0x27
 3807 009f 0C       		.uleb128 0xc
 3808 00a0 49       		.uleb128 0x49
 3809 00a1 13       		.uleb128 0x13
ARM GAS  /tmp/ccRYQxIv.s 			page 68


 3810 00a2 01       		.uleb128 0x1
 3811 00a3 13       		.uleb128 0x13
 3812 00a4 00       		.byte	0
 3813 00a5 00       		.byte	0
 3814 00a6 0F       		.uleb128 0xf
 3815 00a7 01       		.uleb128 0x1
 3816 00a8 01       		.byte	0x1
 3817 00a9 49       		.uleb128 0x49
 3818 00aa 13       		.uleb128 0x13
 3819 00ab 01       		.uleb128 0x1
 3820 00ac 13       		.uleb128 0x13
 3821 00ad 00       		.byte	0
 3822 00ae 00       		.byte	0
 3823 00af 10       		.uleb128 0x10
 3824 00b0 21       		.uleb128 0x21
 3825 00b1 00       		.byte	0
 3826 00b2 49       		.uleb128 0x49
 3827 00b3 13       		.uleb128 0x13
 3828 00b4 2F       		.uleb128 0x2f
 3829 00b5 0B       		.uleb128 0xb
 3830 00b6 00       		.byte	0
 3831 00b7 00       		.byte	0
 3832 00b8 11       		.uleb128 0x11
 3833 00b9 13       		.uleb128 0x13
 3834 00ba 01       		.byte	0x1
 3835 00bb 03       		.uleb128 0x3
 3836 00bc 0E       		.uleb128 0xe
 3837 00bd 0B       		.uleb128 0xb
 3838 00be 05       		.uleb128 0x5
 3839 00bf 3A       		.uleb128 0x3a
 3840 00c0 0B       		.uleb128 0xb
 3841 00c1 3B       		.uleb128 0x3b
 3842 00c2 0B       		.uleb128 0xb
 3843 00c3 01       		.uleb128 0x1
 3844 00c4 13       		.uleb128 0x13
 3845 00c5 00       		.byte	0
 3846 00c6 00       		.byte	0
 3847 00c7 12       		.uleb128 0x12
 3848 00c8 04       		.uleb128 0x4
 3849 00c9 01       		.byte	0x1
 3850 00ca 03       		.uleb128 0x3
 3851 00cb 0E       		.uleb128 0xe
 3852 00cc 0B       		.uleb128 0xb
 3853 00cd 0B       		.uleb128 0xb
 3854 00ce 3A       		.uleb128 0x3a
 3855 00cf 0B       		.uleb128 0xb
 3856 00d0 3B       		.uleb128 0x3b
 3857 00d1 0B       		.uleb128 0xb
 3858 00d2 01       		.uleb128 0x1
 3859 00d3 13       		.uleb128 0x13
 3860 00d4 00       		.byte	0
 3861 00d5 00       		.byte	0
 3862 00d6 13       		.uleb128 0x13
 3863 00d7 2E       		.uleb128 0x2e
 3864 00d8 01       		.byte	0x1
 3865 00d9 3F       		.uleb128 0x3f
 3866 00da 0C       		.uleb128 0xc
ARM GAS  /tmp/ccRYQxIv.s 			page 69


 3867 00db 03       		.uleb128 0x3
 3868 00dc 0E       		.uleb128 0xe
 3869 00dd 3A       		.uleb128 0x3a
 3870 00de 0B       		.uleb128 0xb
 3871 00df 3B       		.uleb128 0x3b
 3872 00e0 0B       		.uleb128 0xb
 3873 00e1 27       		.uleb128 0x27
 3874 00e2 0C       		.uleb128 0xc
 3875 00e3 11       		.uleb128 0x11
 3876 00e4 01       		.uleb128 0x1
 3877 00e5 12       		.uleb128 0x12
 3878 00e6 01       		.uleb128 0x1
 3879 00e7 40       		.uleb128 0x40
 3880 00e8 06       		.uleb128 0x6
 3881 00e9 01       		.uleb128 0x1
 3882 00ea 13       		.uleb128 0x13
 3883 00eb 00       		.byte	0
 3884 00ec 00       		.byte	0
 3885 00ed 14       		.uleb128 0x14
 3886 00ee 34       		.uleb128 0x34
 3887 00ef 00       		.byte	0
 3888 00f0 03       		.uleb128 0x3
 3889 00f1 08       		.uleb128 0x8
 3890 00f2 3A       		.uleb128 0x3a
 3891 00f3 0B       		.uleb128 0xb
 3892 00f4 3B       		.uleb128 0x3b
 3893 00f5 0B       		.uleb128 0xb
 3894 00f6 49       		.uleb128 0x49
 3895 00f7 13       		.uleb128 0x13
 3896 00f8 02       		.uleb128 0x2
 3897 00f9 0A       		.uleb128 0xa
 3898 00fa 00       		.byte	0
 3899 00fb 00       		.byte	0
 3900 00fc 15       		.uleb128 0x15
 3901 00fd 34       		.uleb128 0x34
 3902 00fe 00       		.byte	0
 3903 00ff 03       		.uleb128 0x3
 3904 0100 0E       		.uleb128 0xe
 3905 0101 3A       		.uleb128 0x3a
 3906 0102 0B       		.uleb128 0xb
 3907 0103 3B       		.uleb128 0x3b
 3908 0104 0B       		.uleb128 0xb
 3909 0105 49       		.uleb128 0x49
 3910 0106 13       		.uleb128 0x13
 3911 0107 02       		.uleb128 0x2
 3912 0108 0A       		.uleb128 0xa
 3913 0109 00       		.byte	0
 3914 010a 00       		.byte	0
 3915 010b 16       		.uleb128 0x16
 3916 010c 0B       		.uleb128 0xb
 3917 010d 01       		.byte	0x1
 3918 010e 11       		.uleb128 0x11
 3919 010f 01       		.uleb128 0x1
 3920 0110 12       		.uleb128 0x12
 3921 0111 01       		.uleb128 0x1
 3922 0112 00       		.byte	0
 3923 0113 00       		.byte	0
ARM GAS  /tmp/ccRYQxIv.s 			page 70


 3924 0114 17       		.uleb128 0x17
 3925 0115 2E       		.uleb128 0x2e
 3926 0116 01       		.byte	0x1
 3927 0117 03       		.uleb128 0x3
 3928 0118 0E       		.uleb128 0xe
 3929 0119 3A       		.uleb128 0x3a
 3930 011a 0B       		.uleb128 0xb
 3931 011b 3B       		.uleb128 0x3b
 3932 011c 0B       		.uleb128 0xb
 3933 011d 27       		.uleb128 0x27
 3934 011e 0C       		.uleb128 0xc
 3935 011f 49       		.uleb128 0x49
 3936 0120 13       		.uleb128 0x13
 3937 0121 11       		.uleb128 0x11
 3938 0122 01       		.uleb128 0x1
 3939 0123 12       		.uleb128 0x12
 3940 0124 01       		.uleb128 0x1
 3941 0125 40       		.uleb128 0x40
 3942 0126 06       		.uleb128 0x6
 3943 0127 01       		.uleb128 0x1
 3944 0128 13       		.uleb128 0x13
 3945 0129 00       		.byte	0
 3946 012a 00       		.byte	0
 3947 012b 18       		.uleb128 0x18
 3948 012c 05       		.uleb128 0x5
 3949 012d 00       		.byte	0
 3950 012e 03       		.uleb128 0x3
 3951 012f 08       		.uleb128 0x8
 3952 0130 3A       		.uleb128 0x3a
 3953 0131 0B       		.uleb128 0xb
 3954 0132 3B       		.uleb128 0x3b
 3955 0133 0B       		.uleb128 0xb
 3956 0134 49       		.uleb128 0x49
 3957 0135 13       		.uleb128 0x13
 3958 0136 02       		.uleb128 0x2
 3959 0137 0A       		.uleb128 0xa
 3960 0138 00       		.byte	0
 3961 0139 00       		.byte	0
 3962 013a 19       		.uleb128 0x19
 3963 013b 05       		.uleb128 0x5
 3964 013c 00       		.byte	0
 3965 013d 03       		.uleb128 0x3
 3966 013e 0E       		.uleb128 0xe
 3967 013f 3A       		.uleb128 0x3a
 3968 0140 0B       		.uleb128 0xb
 3969 0141 3B       		.uleb128 0x3b
 3970 0142 0B       		.uleb128 0xb
 3971 0143 49       		.uleb128 0x49
 3972 0144 13       		.uleb128 0x13
 3973 0145 02       		.uleb128 0x2
 3974 0146 0A       		.uleb128 0xa
 3975 0147 00       		.byte	0
 3976 0148 00       		.byte	0
 3977 0149 1A       		.uleb128 0x1a
 3978 014a 2E       		.uleb128 0x2e
 3979 014b 01       		.byte	0x1
 3980 014c 03       		.uleb128 0x3
ARM GAS  /tmp/ccRYQxIv.s 			page 71


 3981 014d 0E       		.uleb128 0xe
 3982 014e 3A       		.uleb128 0x3a
 3983 014f 0B       		.uleb128 0xb
 3984 0150 3B       		.uleb128 0x3b
 3985 0151 05       		.uleb128 0x5
 3986 0152 27       		.uleb128 0x27
 3987 0153 0C       		.uleb128 0xc
 3988 0154 49       		.uleb128 0x49
 3989 0155 13       		.uleb128 0x13
 3990 0156 11       		.uleb128 0x11
 3991 0157 01       		.uleb128 0x1
 3992 0158 12       		.uleb128 0x12
 3993 0159 01       		.uleb128 0x1
 3994 015a 40       		.uleb128 0x40
 3995 015b 06       		.uleb128 0x6
 3996 015c 01       		.uleb128 0x1
 3997 015d 13       		.uleb128 0x13
 3998 015e 00       		.byte	0
 3999 015f 00       		.byte	0
 4000 0160 1B       		.uleb128 0x1b
 4001 0161 05       		.uleb128 0x5
 4002 0162 00       		.byte	0
 4003 0163 03       		.uleb128 0x3
 4004 0164 0E       		.uleb128 0xe
 4005 0165 3A       		.uleb128 0x3a
 4006 0166 0B       		.uleb128 0xb
 4007 0167 3B       		.uleb128 0x3b
 4008 0168 05       		.uleb128 0x5
 4009 0169 49       		.uleb128 0x49
 4010 016a 13       		.uleb128 0x13
 4011 016b 02       		.uleb128 0x2
 4012 016c 0A       		.uleb128 0xa
 4013 016d 00       		.byte	0
 4014 016e 00       		.byte	0
 4015 016f 1C       		.uleb128 0x1c
 4016 0170 34       		.uleb128 0x34
 4017 0171 00       		.byte	0
 4018 0172 03       		.uleb128 0x3
 4019 0173 08       		.uleb128 0x8
 4020 0174 3A       		.uleb128 0x3a
 4021 0175 0B       		.uleb128 0xb
 4022 0176 3B       		.uleb128 0x3b
 4023 0177 05       		.uleb128 0x5
 4024 0178 49       		.uleb128 0x49
 4025 0179 13       		.uleb128 0x13
 4026 017a 02       		.uleb128 0x2
 4027 017b 0A       		.uleb128 0xa
 4028 017c 00       		.byte	0
 4029 017d 00       		.byte	0
 4030 017e 1D       		.uleb128 0x1d
 4031 017f 2E       		.uleb128 0x2e
 4032 0180 01       		.byte	0x1
 4033 0181 03       		.uleb128 0x3
 4034 0182 0E       		.uleb128 0xe
 4035 0183 3A       		.uleb128 0x3a
 4036 0184 0B       		.uleb128 0xb
 4037 0185 3B       		.uleb128 0x3b
ARM GAS  /tmp/ccRYQxIv.s 			page 72


 4038 0186 05       		.uleb128 0x5
 4039 0187 27       		.uleb128 0x27
 4040 0188 0C       		.uleb128 0xc
 4041 0189 11       		.uleb128 0x11
 4042 018a 01       		.uleb128 0x1
 4043 018b 12       		.uleb128 0x12
 4044 018c 01       		.uleb128 0x1
 4045 018d 40       		.uleb128 0x40
 4046 018e 06       		.uleb128 0x6
 4047 018f 01       		.uleb128 0x1
 4048 0190 13       		.uleb128 0x13
 4049 0191 00       		.byte	0
 4050 0192 00       		.byte	0
 4051 0193 1E       		.uleb128 0x1e
 4052 0194 05       		.uleb128 0x5
 4053 0195 00       		.byte	0
 4054 0196 03       		.uleb128 0x3
 4055 0197 08       		.uleb128 0x8
 4056 0198 3A       		.uleb128 0x3a
 4057 0199 0B       		.uleb128 0xb
 4058 019a 3B       		.uleb128 0x3b
 4059 019b 05       		.uleb128 0x5
 4060 019c 49       		.uleb128 0x49
 4061 019d 13       		.uleb128 0x13
 4062 019e 02       		.uleb128 0x2
 4063 019f 0A       		.uleb128 0xa
 4064 01a0 00       		.byte	0
 4065 01a1 00       		.byte	0
 4066 01a2 1F       		.uleb128 0x1f
 4067 01a3 34       		.uleb128 0x34
 4068 01a4 00       		.byte	0
 4069 01a5 03       		.uleb128 0x3
 4070 01a6 0E       		.uleb128 0xe
 4071 01a7 3A       		.uleb128 0x3a
 4072 01a8 0B       		.uleb128 0xb
 4073 01a9 3B       		.uleb128 0x3b
 4074 01aa 05       		.uleb128 0x5
 4075 01ab 49       		.uleb128 0x49
 4076 01ac 13       		.uleb128 0x13
 4077 01ad 02       		.uleb128 0x2
 4078 01ae 0A       		.uleb128 0xa
 4079 01af 00       		.byte	0
 4080 01b0 00       		.byte	0
 4081 01b1 20       		.uleb128 0x20
 4082 01b2 0A       		.uleb128 0xa
 4083 01b3 00       		.byte	0
 4084 01b4 03       		.uleb128 0x3
 4085 01b5 0E       		.uleb128 0xe
 4086 01b6 3A       		.uleb128 0x3a
 4087 01b7 0B       		.uleb128 0xb
 4088 01b8 3B       		.uleb128 0x3b
 4089 01b9 05       		.uleb128 0x5
 4090 01ba 11       		.uleb128 0x11
 4091 01bb 01       		.uleb128 0x1
 4092 01bc 00       		.byte	0
 4093 01bd 00       		.byte	0
 4094 01be 21       		.uleb128 0x21
ARM GAS  /tmp/ccRYQxIv.s 			page 73


 4095 01bf 2E       		.uleb128 0x2e
 4096 01c0 01       		.byte	0x1
 4097 01c1 3F       		.uleb128 0x3f
 4098 01c2 0C       		.uleb128 0xc
 4099 01c3 03       		.uleb128 0x3
 4100 01c4 0E       		.uleb128 0xe
 4101 01c5 3A       		.uleb128 0x3a
 4102 01c6 0B       		.uleb128 0xb
 4103 01c7 3B       		.uleb128 0x3b
 4104 01c8 05       		.uleb128 0x5
 4105 01c9 27       		.uleb128 0x27
 4106 01ca 0C       		.uleb128 0xc
 4107 01cb 49       		.uleb128 0x49
 4108 01cc 13       		.uleb128 0x13
 4109 01cd 11       		.uleb128 0x11
 4110 01ce 01       		.uleb128 0x1
 4111 01cf 12       		.uleb128 0x12
 4112 01d0 01       		.uleb128 0x1
 4113 01d1 40       		.uleb128 0x40
 4114 01d2 06       		.uleb128 0x6
 4115 01d3 01       		.uleb128 0x1
 4116 01d4 13       		.uleb128 0x13
 4117 01d5 00       		.byte	0
 4118 01d6 00       		.byte	0
 4119 01d7 22       		.uleb128 0x22
 4120 01d8 2E       		.uleb128 0x2e
 4121 01d9 00       		.byte	0
 4122 01da 03       		.uleb128 0x3
 4123 01db 0E       		.uleb128 0xe
 4124 01dc 3A       		.uleb128 0x3a
 4125 01dd 0B       		.uleb128 0xb
 4126 01de 3B       		.uleb128 0x3b
 4127 01df 05       		.uleb128 0x5
 4128 01e0 27       		.uleb128 0x27
 4129 01e1 0C       		.uleb128 0xc
 4130 01e2 49       		.uleb128 0x49
 4131 01e3 13       		.uleb128 0x13
 4132 01e4 11       		.uleb128 0x11
 4133 01e5 01       		.uleb128 0x1
 4134 01e6 12       		.uleb128 0x12
 4135 01e7 01       		.uleb128 0x1
 4136 01e8 40       		.uleb128 0x40
 4137 01e9 06       		.uleb128 0x6
 4138 01ea 00       		.byte	0
 4139 01eb 00       		.byte	0
 4140 01ec 23       		.uleb128 0x23
 4141 01ed 34       		.uleb128 0x34
 4142 01ee 00       		.byte	0
 4143 01ef 03       		.uleb128 0x3
 4144 01f0 0E       		.uleb128 0xe
 4145 01f1 3A       		.uleb128 0x3a
 4146 01f2 0B       		.uleb128 0xb
 4147 01f3 3B       		.uleb128 0x3b
 4148 01f4 0B       		.uleb128 0xb
 4149 01f5 49       		.uleb128 0x49
 4150 01f6 13       		.uleb128 0x13
 4151 01f7 3F       		.uleb128 0x3f
ARM GAS  /tmp/ccRYQxIv.s 			page 74


 4152 01f8 0C       		.uleb128 0xc
 4153 01f9 3C       		.uleb128 0x3c
 4154 01fa 0C       		.uleb128 0xc
 4155 01fb 00       		.byte	0
 4156 01fc 00       		.byte	0
 4157 01fd 00       		.byte	0
 4158              		.section	.debug_loc,"",%progbits
 4159              	.Ldebug_loc0:
 4160              	.LLST0:
 4161 0000 00000000 		.4byte	.LFB7
 4162 0004 02000000 		.4byte	.LCFI0
 4163 0008 0200     		.2byte	0x2
 4164 000a 7D       		.byte	0x7d
 4165 000b 00       		.sleb128 0
 4166 000c 02000000 		.4byte	.LCFI0
 4167 0010 04000000 		.4byte	.LCFI1
 4168 0014 0200     		.2byte	0x2
 4169 0016 7D       		.byte	0x7d
 4170 0017 04       		.sleb128 4
 4171 0018 04000000 		.4byte	.LCFI1
 4172 001c 56000000 		.4byte	.LFE7
 4173 0020 0200     		.2byte	0x2
 4174 0022 7D       		.byte	0x7d
 4175 0023 18       		.sleb128 24
 4176 0024 00000000 		.4byte	0
 4177 0028 00000000 		.4byte	0
 4178              	.LLST1:
 4179 002c 00000000 		.4byte	.LFB8
 4180 0030 02000000 		.4byte	.LCFI2
 4181 0034 0200     		.2byte	0x2
 4182 0036 7D       		.byte	0x7d
 4183 0037 00       		.sleb128 0
 4184 0038 02000000 		.4byte	.LCFI2
 4185 003c 04000000 		.4byte	.LCFI3
 4186 0040 0200     		.2byte	0x2
 4187 0042 7D       		.byte	0x7d
 4188 0043 04       		.sleb128 4
 4189 0044 04000000 		.4byte	.LCFI3
 4190 0048 48010000 		.4byte	.LFE8
 4191 004c 0200     		.2byte	0x2
 4192 004e 7D       		.byte	0x7d
 4193 004f 28       		.sleb128 40
 4194 0050 00000000 		.4byte	0
 4195 0054 00000000 		.4byte	0
 4196              	.LLST2:
 4197 0058 00000000 		.4byte	.LFB9
 4198 005c 02000000 		.4byte	.LCFI4
 4199 0060 0200     		.2byte	0x2
 4200 0062 7D       		.byte	0x7d
 4201 0063 00       		.sleb128 0
 4202 0064 02000000 		.4byte	.LCFI4
 4203 0068 04000000 		.4byte	.LCFI5
 4204 006c 0200     		.2byte	0x2
 4205 006e 7D       		.byte	0x7d
 4206 006f 04       		.sleb128 4
 4207 0070 04000000 		.4byte	.LCFI5
 4208 0074 C0000000 		.4byte	.LFE9
ARM GAS  /tmp/ccRYQxIv.s 			page 75


 4209 0078 0200     		.2byte	0x2
 4210 007a 7D       		.byte	0x7d
 4211 007b 28       		.sleb128 40
 4212 007c 00000000 		.4byte	0
 4213 0080 00000000 		.4byte	0
 4214              	.LLST3:
 4215 0084 00000000 		.4byte	.LFB10
 4216 0088 02000000 		.4byte	.LCFI6
 4217 008c 0200     		.2byte	0x2
 4218 008e 7D       		.byte	0x7d
 4219 008f 00       		.sleb128 0
 4220 0090 02000000 		.4byte	.LCFI6
 4221 0094 04000000 		.4byte	.LCFI7
 4222 0098 0200     		.2byte	0x2
 4223 009a 7D       		.byte	0x7d
 4224 009b 04       		.sleb128 4
 4225 009c 04000000 		.4byte	.LCFI7
 4226 00a0 B4000000 		.4byte	.LFE10
 4227 00a4 0200     		.2byte	0x2
 4228 00a6 7D       		.byte	0x7d
 4229 00a7 18       		.sleb128 24
 4230 00a8 00000000 		.4byte	0
 4231 00ac 00000000 		.4byte	0
 4232              	.LLST4:
 4233 00b0 00000000 		.4byte	.LFB11
 4234 00b4 02000000 		.4byte	.LCFI8
 4235 00b8 0200     		.2byte	0x2
 4236 00ba 7D       		.byte	0x7d
 4237 00bb 00       		.sleb128 0
 4238 00bc 02000000 		.4byte	.LCFI8
 4239 00c0 04000000 		.4byte	.LCFI9
 4240 00c4 0200     		.2byte	0x2
 4241 00c6 7D       		.byte	0x7d
 4242 00c7 04       		.sleb128 4
 4243 00c8 04000000 		.4byte	.LCFI9
 4244 00cc 48000000 		.4byte	.LFE11
 4245 00d0 0200     		.2byte	0x2
 4246 00d2 7D       		.byte	0x7d
 4247 00d3 10       		.sleb128 16
 4248 00d4 00000000 		.4byte	0
 4249 00d8 00000000 		.4byte	0
 4250              	.LLST5:
 4251 00dc 00000000 		.4byte	.LFB12
 4252 00e0 02000000 		.4byte	.LCFI10
 4253 00e4 0200     		.2byte	0x2
 4254 00e6 7D       		.byte	0x7d
 4255 00e7 00       		.sleb128 0
 4256 00e8 02000000 		.4byte	.LCFI10
 4257 00ec 04000000 		.4byte	.LCFI11
 4258 00f0 0200     		.2byte	0x2
 4259 00f2 7D       		.byte	0x7d
 4260 00f3 08       		.sleb128 8
 4261 00f4 04000000 		.4byte	.LCFI11
 4262 00f8 92020000 		.4byte	.LFE12
 4263 00fc 0200     		.2byte	0x2
 4264 00fe 7D       		.byte	0x7d
 4265 00ff 30       		.sleb128 48
ARM GAS  /tmp/ccRYQxIv.s 			page 76


 4266 0100 00000000 		.4byte	0
 4267 0104 00000000 		.4byte	0
 4268              	.LLST6:
 4269 0108 00000000 		.4byte	.LFB13
 4270 010c 02000000 		.4byte	.LCFI12
 4271 0110 0200     		.2byte	0x2
 4272 0112 7D       		.byte	0x7d
 4273 0113 00       		.sleb128 0
 4274 0114 02000000 		.4byte	.LCFI12
 4275 0118 04000000 		.4byte	.LCFI13
 4276 011c 0200     		.2byte	0x2
 4277 011e 7D       		.byte	0x7d
 4278 011f 08       		.sleb128 8
 4279 0120 04000000 		.4byte	.LCFI13
 4280 0124 58030000 		.4byte	.LFE13
 4281 0128 0200     		.2byte	0x2
 4282 012a 7D       		.byte	0x7d
 4283 012b 30       		.sleb128 48
 4284 012c 00000000 		.4byte	0
 4285 0130 00000000 		.4byte	0
 4286              	.LLST7:
 4287 0134 00000000 		.4byte	.LFB14
 4288 0138 02000000 		.4byte	.LCFI14
 4289 013c 0200     		.2byte	0x2
 4290 013e 7D       		.byte	0x7d
 4291 013f 00       		.sleb128 0
 4292 0140 02000000 		.4byte	.LCFI14
 4293 0144 10000000 		.4byte	.LFE14
 4294 0148 0200     		.2byte	0x2
 4295 014a 7D       		.byte	0x7d
 4296 014b 08       		.sleb128 8
 4297 014c 00000000 		.4byte	0
 4298 0150 00000000 		.4byte	0
 4299              	.LLST8:
 4300 0154 00000000 		.4byte	.LFB15
 4301 0158 02000000 		.4byte	.LCFI15
 4302 015c 0200     		.2byte	0x2
 4303 015e 7D       		.byte	0x7d
 4304 015f 00       		.sleb128 0
 4305 0160 02000000 		.4byte	.LCFI15
 4306 0164 04000000 		.4byte	.LCFI16
 4307 0168 0200     		.2byte	0x2
 4308 016a 7D       		.byte	0x7d
 4309 016b 04       		.sleb128 4
 4310 016c 04000000 		.4byte	.LCFI16
 4311 0170 1E000000 		.4byte	.LFE15
 4312 0174 0200     		.2byte	0x2
 4313 0176 7D       		.byte	0x7d
 4314 0177 10       		.sleb128 16
 4315 0178 00000000 		.4byte	0
 4316 017c 00000000 		.4byte	0
 4317              	.LLST9:
 4318 0180 00000000 		.4byte	.LFB16
 4319 0184 02000000 		.4byte	.LCFI17
 4320 0188 0200     		.2byte	0x2
 4321 018a 7D       		.byte	0x7d
 4322 018b 00       		.sleb128 0
ARM GAS  /tmp/ccRYQxIv.s 			page 77


 4323 018c 02000000 		.4byte	.LCFI17
 4324 0190 04000000 		.4byte	.LCFI18
 4325 0194 0200     		.2byte	0x2
 4326 0196 7D       		.byte	0x7d
 4327 0197 04       		.sleb128 4
 4328 0198 04000000 		.4byte	.LCFI18
 4329 019c 3C000000 		.4byte	.LFE16
 4330 01a0 0200     		.2byte	0x2
 4331 01a2 7D       		.byte	0x7d
 4332 01a3 18       		.sleb128 24
 4333 01a4 00000000 		.4byte	0
 4334 01a8 00000000 		.4byte	0
 4335              	.LLST10:
 4336 01ac 00000000 		.4byte	.LFB17
 4337 01b0 02000000 		.4byte	.LCFI19
 4338 01b4 0200     		.2byte	0x2
 4339 01b6 7D       		.byte	0x7d
 4340 01b7 00       		.sleb128 0
 4341 01b8 02000000 		.4byte	.LCFI19
 4342 01bc 04000000 		.4byte	.LCFI20
 4343 01c0 0200     		.2byte	0x2
 4344 01c2 7D       		.byte	0x7d
 4345 01c3 04       		.sleb128 4
 4346 01c4 04000000 		.4byte	.LCFI20
 4347 01c8 BE020000 		.4byte	.LFE17
 4348 01cc 0300     		.2byte	0x3
 4349 01ce 7D       		.byte	0x7d
 4350 01cf D000     		.sleb128 80
 4351 01d1 00000000 		.4byte	0
 4352 01d5 00000000 		.4byte	0
 4353              		.section	.debug_aranges,"",%progbits
 4354 0000 6C000000 		.4byte	0x6c
 4355 0004 0200     		.2byte	0x2
 4356 0006 00000000 		.4byte	.Ldebug_info0
 4357 000a 04       		.byte	0x4
 4358 000b 00       		.byte	0
 4359 000c 0000     		.2byte	0
 4360 000e 0000     		.2byte	0
 4361 0010 00000000 		.4byte	.LFB7
 4362 0014 56000000 		.4byte	.LFE7-.LFB7
 4363 0018 00000000 		.4byte	.LFB8
 4364 001c 48010000 		.4byte	.LFE8-.LFB8
 4365 0020 00000000 		.4byte	.LFB9
 4366 0024 C0000000 		.4byte	.LFE9-.LFB9
 4367 0028 00000000 		.4byte	.LFB10
 4368 002c B4000000 		.4byte	.LFE10-.LFB10
 4369 0030 00000000 		.4byte	.LFB11
 4370 0034 48000000 		.4byte	.LFE11-.LFB11
 4371 0038 00000000 		.4byte	.LFB12
 4372 003c 92020000 		.4byte	.LFE12-.LFB12
 4373 0040 00000000 		.4byte	.LFB13
 4374 0044 58030000 		.4byte	.LFE13-.LFB13
 4375 0048 00000000 		.4byte	.LFB14
 4376 004c 10000000 		.4byte	.LFE14-.LFB14
 4377 0050 00000000 		.4byte	.LFB15
 4378 0054 1E000000 		.4byte	.LFE15-.LFB15
 4379 0058 00000000 		.4byte	.LFB16
ARM GAS  /tmp/ccRYQxIv.s 			page 78


 4380 005c 3C000000 		.4byte	.LFE16-.LFB16
 4381 0060 00000000 		.4byte	.LFB17
 4382 0064 BE020000 		.4byte	.LFE17-.LFB17
 4383 0068 00000000 		.4byte	0
 4384 006c 00000000 		.4byte	0
 4385              		.section	.debug_ranges,"",%progbits
 4386              	.Ldebug_ranges0:
 4387 0000 00000000 		.4byte	.LFB7
 4388 0004 56000000 		.4byte	.LFE7
 4389 0008 00000000 		.4byte	.LFB8
 4390 000c 48010000 		.4byte	.LFE8
 4391 0010 00000000 		.4byte	.LFB9
 4392 0014 C0000000 		.4byte	.LFE9
 4393 0018 00000000 		.4byte	.LFB10
 4394 001c B4000000 		.4byte	.LFE10
 4395 0020 00000000 		.4byte	.LFB11
 4396 0024 48000000 		.4byte	.LFE11
 4397 0028 00000000 		.4byte	.LFB12
 4398 002c 92020000 		.4byte	.LFE12
 4399 0030 00000000 		.4byte	.LFB13
 4400 0034 58030000 		.4byte	.LFE13
 4401 0038 00000000 		.4byte	.LFB14
 4402 003c 10000000 		.4byte	.LFE14
 4403 0040 00000000 		.4byte	.LFB15
 4404 0044 1E000000 		.4byte	.LFE15
 4405 0048 00000000 		.4byte	.LFB16
 4406 004c 3C000000 		.4byte	.LFE16
 4407 0050 00000000 		.4byte	.LFB17
 4408 0054 BE020000 		.4byte	.LFE17
 4409 0058 00000000 		.4byte	0
 4410 005c 00000000 		.4byte	0
 4411              		.section	.debug_line,"",%progbits
 4412              	.Ldebug_line0:
 4413 0000 84040000 		.section	.debug_str,"MS",%progbits,1
 4413      0200A701 
 4413      00000201 
 4413      FB0E0D00 
 4413      01010101 
 4414              	.LASF144:
 4415 0000 706F6666 		.ascii	"poff\000"
 4415      00
 4416              	.LASF143:
 4417 0005 6C617374 		.ascii	"last\000"
 4417      00
 4418              	.LASF124:
 4419 000a 6F746865 		.ascii	"other_datagrams\000"
 4419      725F6461 
 4419      74616772 
 4419      616D7300 
 4420              	.LASF141:
 4421 001a 6F726967 		.ascii	"original_iphdr\000"
 4421      696E616C 
 4421      5F697068 
 4421      647200
 4422              	.LASF71:
 4423 0029 4D454D50 		.ascii	"MEMP_TCP_PCB_LISTEN\000"
 4423      5F544350 
ARM GAS  /tmp/ccRYQxIv.s 			page 79


 4423      5F504342 
 4423      5F4C4953 
 4423      54454E00 
 4424              	.LASF43:
 4425 003d 696E7075 		.ascii	"input\000"
 4425      7400
 4426              	.LASF23:
 4427 0043 50425546 		.ascii	"PBUF_RAM\000"
 4427      5F52414D 
 4427      00
 4428              	.LASF120:
 4429 004c 66726167 		.ascii	"fraghdr\000"
 4429      68647200 
 4430              	.LASF22:
 4431 0054 50425546 		.ascii	"PBUF_RAW\000"
 4431      5F524157 
 4431      00
 4432              	.LASF31:
 4433 005d 666C6167 		.ascii	"flags\000"
 4433      7300
 4434              	.LASF119:
 4435 0063 69705F72 		.ascii	"ip_reass_remove_oldest_datagram\000"
 4435      65617373 
 4435      5F72656D 
 4435      6F76655F 
 4435      6F6C6465 
 4436              	.LASF0:
 4437 0083 756E7369 		.ascii	"unsigned int\000"
 4437      676E6564 
 4437      20696E74 
 4437      00
 4438              	.LASF27:
 4439 0090 6E657874 		.ascii	"next\000"
 4439      00
 4440              	.LASF134:
 4441 0095 6E756C6C 		.ascii	"nullreturn\000"
 4441      72657475 
 4441      726E00
 4442              	.LASF18:
 4443 00a0 6572725F 		.ascii	"err_t\000"
 4443      7400
 4444              	.LASF45:
 4445 00a6 6C696E6B 		.ascii	"linkoutput\000"
 4445      6F757470 
 4445      757400
 4446              	.LASF113:
 4447 00b1 70726576 		.ascii	"prev\000"
 4447      00
 4448              	.LASF16:
 4449 00b6 7531365F 		.ascii	"u16_t\000"
 4449      7400
 4450              	.LASF57:
 4451 00bc 5F74746C 		.ascii	"_ttl\000"
 4451      00
 4452              	.LASF34:
 4453 00c1 70627566 		.ascii	"pbuf_custom\000"
 4453      5F637573 
ARM GAS  /tmp/ccRYQxIv.s 			page 80


 4453      746F6D00 
 4454              	.LASF103:
 4455 00cd 6C696E6B 		.ascii	"link\000"
 4455      00
 4456              	.LASF94:
 4457 00d2 73746174 		.ascii	"stats_mem\000"
 4457      735F6D65 
 4457      6D00
 4458              	.LASF51:
 4459 00dc 6E657469 		.ascii	"netif_output_fn\000"
 4459      665F6F75 
 4459      74707574 
 4459      5F666E00 
 4460              	.LASF81:
 4461 00ec 4D454D50 		.ascii	"MEMP_PBUF_POOL\000"
 4461      5F504255 
 4461      465F504F 
 4461      4F4C00
 4462              	.LASF116:
 4463 00fb 69707268 		.ascii	"iprh\000"
 4463      00
 4464              	.LASF149:
 4465 0100 6C776970 		.ascii	"lwip_stats\000"
 4465      5F737461 
 4465      747300
 4466              	.LASF117:
 4467 010b 70637572 		.ascii	"pcur\000"
 4467      00
 4468              	.LASF19:
 4469 0110 50425546 		.ascii	"PBUF_TRANSPORT\000"
 4469      5F545241 
 4469      4E53504F 
 4469      525400
 4470              	.LASF98:
 4471 011f 73746174 		.ascii	"stats_syselem\000"
 4471      735F7379 
 4471      73656C65 
 4471      6D00
 4472              	.LASF50:
 4473 012d 6E657469 		.ascii	"netif_input_fn\000"
 4473      665F696E 
 4473      7075745F 
 4473      666E00
 4474              	.LASF9:
 4475 013c 75696E74 		.ascii	"uint32_t\000"
 4475      33325F74 
 4475      00
 4476              	.LASF2:
 4477 0145 696E7438 		.ascii	"int8_t\000"
 4477      5F7400
 4478              	.LASF77:
 4479 014c 4D454D50 		.ascii	"MEMP_TCPIP_MSG_API\000"
 4479      5F544350 
 4479      49505F4D 
 4479      53475F41 
 4479      504900
 4480              	.LASF92:
ARM GAS  /tmp/ccRYQxIv.s 			page 81


 4481 015f 6F707465 		.ascii	"opterr\000"
 4481      727200
 4482              	.LASF100:
 4483 0166 6D757465 		.ascii	"mutex\000"
 4483      7800
 4484              	.LASF110:
 4485 016c 69705F72 		.ascii	"ip_reass_helper\000"
 4485      65617373 
 4485      5F68656C 
 4485      70657200 
 4486              	.LASF105:
 4487 017c 69705F66 		.ascii	"ip_frag\000"
 4487      72616700 
 4488              	.LASF97:
 4489 0184 696C6C65 		.ascii	"illegal\000"
 4489      67616C00 
 4490              	.LASF48:
 4491 018c 68776164 		.ascii	"hwaddr\000"
 4491      647200
 4492              	.LASF104:
 4493 0193 65746861 		.ascii	"etharp\000"
 4493      727000
 4494              	.LASF12:
 4495 019a 6C6F6E67 		.ascii	"long long unsigned int\000"
 4495      206C6F6E 
 4495      6720756E 
 4495      7369676E 
 4495      65642069 
 4496              	.LASF65:
 4497 01b1 70627566 		.ascii	"pbuf_custom_ref\000"
 4497      5F637573 
 4497      746F6D5F 
 4497      72656600 
 4498              	.LASF130:
 4499 01c1 6F666673 		.ascii	"offset\000"
 4499      657400
 4500              	.LASF115:
 4501 01c8 636C656E 		.ascii	"clen\000"
 4501      00
 4502              	.LASF152:
 4503 01cd 2F686F6D 		.ascii	"/home/texzk/ChibiStudio/chibios/demos/ARMCM3-STM32F"
 4503      652F7465 
 4503      787A6B2F 
 4503      43686962 
 4503      69537475 
 4504 0200 3230372D 		.ascii	"207-STM3220G-LWIP\000"
 4504      53544D33 
 4504      32323047 
 4504      2D4C5749 
 4504      5000
 4505              	.LASF121:
 4506 0212 70627566 		.ascii	"pbufs_needed\000"
 4506      735F6E65 
 4506      65646564 
 4506      00
 4507              	.LASF59:
 4508 021f 5F63686B 		.ascii	"_chksum\000"
ARM GAS  /tmp/ccRYQxIv.s 			page 82


 4508      73756D00 
 4509              	.LASF47:
 4510 0227 68776164 		.ascii	"hwaddr_len\000"
 4510      64725F6C 
 4510      656E00
 4511              	.LASF56:
 4512 0232 5F6F6666 		.ascii	"_offset\000"
 4512      73657400 
 4513              	.LASF78:
 4514 023a 4D454D50 		.ascii	"MEMP_TCPIP_MSG_INPKT\000"
 4514      5F544350 
 4514      49505F4D 
 4514      53475F49 
 4514      4E504B54 
 4515              	.LASF25:
 4516 024f 50425546 		.ascii	"PBUF_REF\000"
 4516      5F524546 
 4516      00
 4517              	.LASF102:
 4518 0258 73746174 		.ascii	"stats_\000"
 4518      735F00
 4519              	.LASF29:
 4520 025f 746F745F 		.ascii	"tot_len\000"
 4520      6C656E00 
 4521              	.LASF133:
 4522 0267 66726565 		.ascii	"freepbuf\000"
 4522      70627566 
 4522      00
 4523              	.LASF28:
 4524 0270 7061796C 		.ascii	"payload\000"
 4524      6F616400 
 4525              	.LASF20:
 4526 0278 50425546 		.ascii	"PBUF_IP\000"
 4526      5F495000 
 4527              	.LASF154:
 4528 0280 69705F72 		.ascii	"ip_reass_tmr\000"
 4528      65617373 
 4528      5F746D72 
 4528      00
 4529              	.LASF44:
 4530 028d 6F757470 		.ascii	"output\000"
 4530      757400
 4531              	.LASF33:
 4532 0294 70627566 		.ascii	"pbuf\000"
 4532      00
 4533              	.LASF26:
 4534 0299 50425546 		.ascii	"PBUF_POOL\000"
 4534      5F504F4F 
 4534      4C00
 4535              	.LASF82:
 4536 02a3 4D454D50 		.ascii	"MEMP_MAX\000"
 4536      5F4D4158 
 4536      00
 4537              	.LASF15:
 4538 02ac 73385F74 		.ascii	"s8_t\000"
 4538      00
 4539              	.LASF148:
ARM GAS  /tmp/ccRYQxIv.s 			page 83


 4540 02b1 69705F72 		.ascii	"ip_reass_pbufcount\000"
 4540      65617373 
 4540      5F706275 
 4540      66636F75 
 4540      6E7400
 4541              	.LASF76:
 4542 02c4 4D454D50 		.ascii	"MEMP_NETCONN\000"
 4542      5F4E4554 
 4542      434F4E4E 
 4542      00
 4543              	.LASF80:
 4544 02d1 4D454D50 		.ascii	"MEMP_PBUF\000"
 4544      5F504255 
 4544      4600
 4545              	.LASF13:
 4546 02db 63686172 		.ascii	"char\000"
 4546      00
 4547              	.LASF67:
 4548 02e0 6D656D5F 		.ascii	"mem_size_t\000"
 4548      73697A65 
 4548      5F7400
 4549              	.LASF83:
 4550 02eb 73746174 		.ascii	"stats_proto\000"
 4550      735F7072 
 4550      6F746F00 
 4551              	.LASF38:
 4552 02f7 69705F61 		.ascii	"ip_addr_packed\000"
 4552      6464725F 
 4552      7061636B 
 4552      656400
 4553              	.LASF127:
 4554 0306 6E65775F 		.ascii	"new_p\000"
 4554      7000
 4555              	.LASF118:
 4556 030c 69705F72 		.ascii	"ip_reass_free_complete_datagram\000"
 4556      65617373 
 4556      5F667265 
 4556      655F636F 
 4556      6D706C65 
 4557              	.LASF150:
 4558 032c 474E5520 		.ascii	"GNU C 4.6.2 20120613 (release) [ARM/embedded-4_6-br"
 4558      4320342E 
 4558      362E3220 
 4558      32303132 
 4558      30363133 
 4559 035f 616E6368 		.ascii	"anch revision 188521]\000"
 4559      20726576 
 4559      6973696F 
 4559      6E203138 
 4559      38353231 
 4560              	.LASF122:
 4561 0375 6F6C6465 		.ascii	"oldest\000"
 4561      737400
 4562              	.LASF3:
 4563 037c 75696E74 		.ascii	"uint8_t\000"
 4563      385F7400 
 4564              	.LASF58:
ARM GAS  /tmp/ccRYQxIv.s 			page 84


 4565 0384 5F70726F 		.ascii	"_proto\000"
 4565      746F00
 4566              	.LASF153:
 4567 038b 69636D70 		.ascii	"icmp_te_type\000"
 4567      5F74655F 
 4567      74797065 
 4567      00
 4568              	.LASF75:
 4569 0398 4D454D50 		.ascii	"MEMP_NETBUF\000"
 4569      5F4E4554 
 4569      42554600 
 4570              	.LASF42:
 4571 03a4 6E65746D 		.ascii	"netmask\000"
 4571      61736B00 
 4572              	.LASF11:
 4573 03ac 6C6F6E67 		.ascii	"long long int\000"
 4573      206C6F6E 
 4573      6720696E 
 4573      7400
 4574              	.LASF138:
 4575 03ba 69705F72 		.ascii	"ip_reass\000"
 4575      65617373 
 4575      00
 4576              	.LASF131:
 4577 03c3 76616C69 		.ascii	"valid\000"
 4577      6400
 4578              	.LASF70:
 4579 03c9 4D454D50 		.ascii	"MEMP_TCP_PCB\000"
 4579      5F544350 
 4579      5F504342 
 4579      00
 4580              	.LASF107:
 4581 03d6 6D656D70 		.ascii	"memp\000"
 4581      00
 4582              	.LASF14:
 4583 03db 75385F74 		.ascii	"u8_t\000"
 4583      00
 4584              	.LASF125:
 4585 03e0 69705F72 		.ascii	"ip_reass_enqueue_new_datagram\000"
 4585      65617373 
 4585      5F656E71 
 4585      75657565 
 4585      5F6E6577 
 4586              	.LASF147:
 4587 03fe 72656173 		.ascii	"reassdatagrams\000"
 4587      73646174 
 4587      61677261 
 4587      6D7300
 4588              	.LASF96:
 4589 040d 75736564 		.ascii	"used\000"
 4589      00
 4590              	.LASF87:
 4591 0412 63686B65 		.ascii	"chkerr\000"
 4591      727200
 4592              	.LASF73:
 4593 0419 4D454D50 		.ascii	"MEMP_REASSDATA\000"
 4593      5F524541 
ARM GAS  /tmp/ccRYQxIv.s 			page 85


 4593      53534441 
 4593      544100
 4594              	.LASF139:
 4595 0428 72616D62 		.ascii	"rambuf\000"
 4595      756600
 4596              	.LASF21:
 4597 042f 50425546 		.ascii	"PBUF_LINK\000"
 4597      5F4C494E 
 4597      4B00
 4598              	.LASF111:
 4599 0439 6E657874 		.ascii	"next_pbuf\000"
 4599      5F706275 
 4599      6600
 4600              	.LASF6:
 4601 0443 75696E74 		.ascii	"uint16_t\000"
 4601      31365F74 
 4601      00
 4602              	.LASF35:
 4603 044c 63757374 		.ascii	"custom_free_function\000"
 4603      6F6D5F66 
 4603      7265655F 
 4603      66756E63 
 4603      74696F6E 
 4604              	.LASF66:
 4605 0461 6F726967 		.ascii	"original\000"
 4605      696E616C 
 4605      00
 4606              	.LASF54:
 4607 046a 5F765F68 		.ascii	"_v_hl_tos\000"
 4607      6C5F746F 
 4607      7300
 4608              	.LASF109:
 4609 0474 49434D50 		.ascii	"ICMP_TE_FRAG\000"
 4609      5F54455F 
 4609      46524147 
 4609      00
 4610              	.LASF17:
 4611 0481 7533325F 		.ascii	"u32_t\000"
 4611      7400
 4612              	.LASF5:
 4613 0487 73686F72 		.ascii	"short int\000"
 4613      7420696E 
 4613      7400
 4614              	.LASF106:
 4615 0491 69636D70 		.ascii	"icmp\000"
 4615      00
 4616              	.LASF8:
 4617 0496 6C6F6E67 		.ascii	"long int\000"
 4617      20696E74 
 4617      00
 4618              	.LASF32:
 4619 049f 70627566 		.ascii	"pbuf_free_custom_fn\000"
 4619      5F667265 
 4619      655F6375 
 4619      73746F6D 
 4619      5F666E00 
 4620              	.LASF90:
ARM GAS  /tmp/ccRYQxIv.s 			page 86


 4621 04b3 72746572 		.ascii	"rterr\000"
 4621      7200
 4622              	.LASF95:
 4623 04b9 61766169 		.ascii	"avail\000"
 4623      6C00
 4624              	.LASF79:
 4625 04bf 4D454D50 		.ascii	"MEMP_SYS_TIMEOUT\000"
 4625      5F535953 
 4625      5F54494D 
 4625      454F5554 
 4625      00
 4626              	.LASF140:
 4627 04d0 6E657770 		.ascii	"newpbuf\000"
 4627      62756600 
 4628              	.LASF69:
 4629 04d8 4D454D50 		.ascii	"MEMP_UDP_PCB\000"
 4629      5F554450 
 4629      5F504342 
 4629      00
 4630              	.LASF137:
 4631 04e5 69706672 		.ascii	"ipfrag_free_pbuf_custom\000"
 4631      61675F66 
 4631      7265655F 
 4631      70627566 
 4631      5F637573 
 4632              	.LASF101:
 4633 04fd 6D626F78 		.ascii	"mbox\000"
 4633      00
 4634              	.LASF135:
 4635 0502 69705F72 		.ascii	"ip_reass_dequeue_datagram\000"
 4635      65617373 
 4635      5F646571 
 4635      75657565 
 4635      5F646174 
 4636              	.LASF93:
 4637 051c 63616368 		.ascii	"cachehit\000"
 4637      65686974 
 4637      00
 4638              	.LASF142:
 4639 0525 6C656674 		.ascii	"left\000"
 4639      00
 4640              	.LASF53:
 4641 052a 69705F68 		.ascii	"ip_hdr\000"
 4641      647200
 4642              	.LASF108:
 4643 0531 49434D50 		.ascii	"ICMP_TE_TTL\000"
 4643      5F54455F 
 4643      54544C00 
 4644              	.LASF49:
 4645 053d 6E616D65 		.ascii	"name\000"
 4645      00
 4646              	.LASF112:
 4647 0542 73746172 		.ascii	"start\000"
 4647      7400
 4648              	.LASF126:
 4649 0548 69705F72 		.ascii	"ip_reass_chain_frag_into_datagram_and_validate\000"
 4649      65617373 
ARM GAS  /tmp/ccRYQxIv.s 			page 87


 4649      5F636861 
 4649      696E5F66 
 4649      7261675F 
 4650              	.LASF52:
 4651 0577 6E657469 		.ascii	"netif_linkoutput_fn\000"
 4651      665F6C69 
 4651      6E6B6F75 
 4651      74707574 
 4651      5F666E00 
 4652              	.LASF74:
 4653 058b 4D454D50 		.ascii	"MEMP_FRAG_PBUF\000"
 4653      5F465241 
 4653      475F5042 
 4653      554600
 4654              	.LASF155:
 4655 059a 69705F66 		.ascii	"ip_frag_alloc_pbuf_custom_ref\000"
 4655      7261675F 
 4655      616C6C6F 
 4655      635F7062 
 4655      75665F63 
 4656              	.LASF68:
 4657 05b8 4D454D50 		.ascii	"MEMP_RAW_PCB\000"
 4657      5F524157 
 4657      5F504342 
 4657      00
 4658              	.LASF129:
 4659 05c5 69707268 		.ascii	"iprh_prev\000"
 4659      5F707265 
 4659      7600
 4660              	.LASF88:
 4661 05cf 6C656E65 		.ascii	"lenerr\000"
 4661      727200
 4662              	.LASF10:
 4663 05d6 6C6F6E67 		.ascii	"long unsigned int\000"
 4663      20756E73 
 4663      69676E65 
 4663      6420696E 
 4663      7400
 4664              	.LASF91:
 4665 05e8 70726F74 		.ascii	"proterr\000"
 4665      65727200 
 4666              	.LASF146:
 4667 05f0 6C656674 		.ascii	"left_to_copy\000"
 4667      5F746F5F 
 4667      636F7079 
 4667      00
 4668              	.LASF30:
 4669 05fd 74797065 		.ascii	"type\000"
 4669      00
 4670              	.LASF99:
 4671 0602 73746174 		.ascii	"stats_sys\000"
 4671      735F7379 
 4671      7300
 4672              	.LASF4:
 4673 060c 756E7369 		.ascii	"unsigned char\000"
 4673      676E6564 
 4673      20636861 
ARM GAS  /tmp/ccRYQxIv.s 			page 88


 4673      7200
 4674              	.LASF89:
 4675 061a 6D656D65 		.ascii	"memerr\000"
 4675      727200
 4676              	.LASF72:
 4677 0621 4D454D50 		.ascii	"MEMP_TCP_SEG\000"
 4677      5F544350 
 4677      5F534547 
 4677      00
 4678              	.LASF40:
 4679 062e 69705F61 		.ascii	"ip_addr_p_t\000"
 4679      6464725F 
 4679      705F7400 
 4680              	.LASF132:
 4681 063a 6970725F 		.ascii	"ipr_prev\000"
 4681      70726576 
 4681      00
 4682              	.LASF63:
 4683 0643 64617461 		.ascii	"datagram_len\000"
 4683      6772616D 
 4683      5F6C656E 
 4683      00
 4684              	.LASF128:
 4685 0650 69707268 		.ascii	"iprh_tmp\000"
 4685      5F746D70 
 4685      00
 4686              	.LASF37:
 4687 0659 61646472 		.ascii	"addr\000"
 4687      00
 4688              	.LASF86:
 4689 065e 64726F70 		.ascii	"drop\000"
 4689      00
 4690              	.LASF46:
 4691 0663 73746174 		.ascii	"state\000"
 4691      6500
 4692              	.LASF114:
 4693 0669 70627566 		.ascii	"pbufs_freed\000"
 4693      735F6672 
 4693      65656400 
 4694              	.LASF136:
 4695 0675 69705F66 		.ascii	"ip_frag_free_pbuf_custom_ref\000"
 4695      7261675F 
 4695      66726565 
 4695      5F706275 
 4695      665F6375 
 4696              	.LASF41:
 4697 0692 6E657469 		.ascii	"netif\000"
 4697      6600
 4698              	.LASF151:
 4699 0698 2E2E2F2E 		.ascii	"../../ext/lwip/src/core/ipv4/ip_frag.c\000"
 4699      2E2F6578 
 4699      742F6C77 
 4699      69702F73 
 4699      72632F63 
 4700              	.LASF145:
 4701 06bf 6E657770 		.ascii	"newpbuflen\000"
 4701      6275666C 
ARM GAS  /tmp/ccRYQxIv.s 			page 89


 4701      656E00
 4702              	.LASF62:
 4703 06ca 69706864 		.ascii	"iphdr\000"
 4703      7200
 4704              	.LASF85:
 4705 06d0 72656376 		.ascii	"recv\000"
 4705      00
 4706              	.LASF1:
 4707 06d5 7369676E 		.ascii	"signed char\000"
 4707      65642063 
 4707      68617200 
 4708              	.LASF7:
 4709 06e1 73686F72 		.ascii	"short unsigned int\000"
 4709      7420756E 
 4709      7369676E 
 4709      65642069 
 4709      6E7400
 4710              	.LASF84:
 4711 06f4 786D6974 		.ascii	"xmit\000"
 4711      00
 4712              	.LASF55:
 4713 06f9 5F6C656E 		.ascii	"_len\000"
 4713      00
 4714              	.LASF39:
 4715 06fe 69705F61 		.ascii	"ip_addr_t\000"
 4715      6464725F 
 4715      7400
 4716              	.LASF24:
 4717 0708 50425546 		.ascii	"PBUF_ROM\000"
 4717      5F524F4D 
 4717      00
 4718              	.LASF64:
 4719 0711 74696D65 		.ascii	"timer\000"
 4719      7200
 4720              	.LASF60:
 4721 0717 64657374 		.ascii	"dest\000"
 4721      00
 4722              	.LASF123:
 4723 071c 70627566 		.ascii	"pbufs_freed_current\000"
 4723      735F6672 
 4723      6565645F 
 4723      63757272 
 4723      656E7400 
 4724              	.LASF61:
 4725 0730 69705F72 		.ascii	"ip_reassdata\000"
 4725      65617373 
 4725      64617461 
 4725      00
 4726              	.LASF36:
 4727 073d 69705F61 		.ascii	"ip_addr\000"
 4727      64647200 
 4728              		.ident	"GCC: (GNU Tools for ARM Embedded Processors) 4.6.2 20120613 (release) [ARM/embedded-4_6-br
ARM GAS  /tmp/ccRYQxIv.s 			page 90


DEFINED SYMBOLS
                            *ABS*:00000000 ip_frag.c
     /tmp/ccRYQxIv.s:19     .bss.reassdatagrams:00000000 $d
     /tmp/ccRYQxIv.s:22     .bss.reassdatagrams:00000000 reassdatagrams
     /tmp/ccRYQxIv.s:25     .bss.ip_reass_pbufcount:00000000 $d
     /tmp/ccRYQxIv.s:28     .bss.ip_reass_pbufcount:00000000 ip_reass_pbufcount
     /tmp/ccRYQxIv.s:31     .text.ip_reass_tmr:00000000 $t
     /tmp/ccRYQxIv.s:37     .text.ip_reass_tmr:00000000 ip_reass_tmr
     /tmp/ccRYQxIv.s:113    .text.ip_reass_free_complete_datagram:00000000 ip_reass_free_complete_datagram
     /tmp/ccRYQxIv.s:108    .text.ip_reass_free_complete_datagram:00000000 $t
     /tmp/ccRYQxIv.s:547    .text.ip_reass_dequeue_datagram:00000000 ip_reass_dequeue_datagram
     /tmp/ccRYQxIv.s:296    .text.ip_reass_remove_oldest_datagram:00000000 $t
     /tmp/ccRYQxIv.s:301    .text.ip_reass_remove_oldest_datagram:00000000 ip_reass_remove_oldest_datagram
     /tmp/ccRYQxIv.s:437    .text.ip_reass_enqueue_new_datagram:00000000 $t
     /tmp/ccRYQxIv.s:442    .text.ip_reass_enqueue_new_datagram:00000000 ip_reass_enqueue_new_datagram
     /tmp/ccRYQxIv.s:542    .text.ip_reass_dequeue_datagram:00000000 $t
     /tmp/ccRYQxIv.s:601    .text.ip_reass_chain_frag_into_datagram_and_validate:00000000 $t
     /tmp/ccRYQxIv.s:606    .text.ip_reass_chain_frag_into_datagram_and_validate:00000000 ip_reass_chain_frag_into_datagram_and_validate
     /tmp/ccRYQxIv.s:1002   .text.ip_reass:00000000 $t
     /tmp/ccRYQxIv.s:1008   .text.ip_reass:00000000 ip_reass
     /tmp/ccRYQxIv.s:1424   .text.ip_frag_alloc_pbuf_custom_ref:00000000 $t
     /tmp/ccRYQxIv.s:1429   .text.ip_frag_alloc_pbuf_custom_ref:00000000 ip_frag_alloc_pbuf_custom_ref
     /tmp/ccRYQxIv.s:1451   .text.ip_frag_free_pbuf_custom_ref:00000000 $t
     /tmp/ccRYQxIv.s:1456   .text.ip_frag_free_pbuf_custom_ref:00000000 ip_frag_free_pbuf_custom_ref
     /tmp/ccRYQxIv.s:1488   .text.ipfrag_free_pbuf_custom:00000000 $t
     /tmp/ccRYQxIv.s:1493   .text.ipfrag_free_pbuf_custom:00000000 ipfrag_free_pbuf_custom
     /tmp/ccRYQxIv.s:1546   .text.ip_frag:00000000 $t
     /tmp/ccRYQxIv.s:1552   .text.ip_frag:00000000 ip_frag
                     .debug_frame:00000010 $d

UNDEFINED SYMBOLS
port_halt
memcpy
icmp_time_exceeded
pbuf_clen
pbuf_free
memp_malloc
lwip_stats
memset
memp_free
lwip_ntohs
lwip_htons
inet_chksum
pbuf_header
pbuf_cat
pbuf_alloc
pbuf_alloced_custom
pbuf_ref
