ARM GAS  /tmp/ccRYQxIv.s 			page 1


   1              		.syntax unified
   2              		.cpu cortex-m3
   3              		.fpu softvfp
   4              		.eabi_attribute 20, 1
   5              		.eabi_attribute 21, 1
   6              		.eabi_attribute 23, 3
   7              		.eabi_attribute 24, 1
   8              		.eabi_attribute 25, 1
   9              		.eabi_attribute 26, 1
  10              		.eabi_attribute 30, 6
  11              		.eabi_attribute 34, 1
  12              		.eabi_attribute 18, 4
  13              		.thumb
  14              		.file	"ip_frag.c"
  15              		.text
  16              	.Ltext0:
  17              		.cfi_sections	.debug_frame
  18              		.section	.bss.reassdatagrams,"aw",%nobits
  19              		.align	2
  20              		.type	reassdatagrams, %object
  21              		.size	reassdatagrams, 4
  22              	reassdatagrams:
  23 0000 00000000 		.space	4
  24              		.section	.bss.ip_reass_pbufcount,"aw",%nobits
  25              		.align	1
  26              		.type	ip_reass_pbufcount, %object
  27              		.size	ip_reass_pbufcount, 2
  28              	ip_reass_pbufcount:
  29 0000 0000     		.space	2
  30              		.section	.text.ip_reass_tmr,"ax",%progbits
  31              		.align	2
  32              		.p2align 4,,15
  33              		.global	ip_reass_tmr
  34              		.thumb
  35              		.thumb_func
  36              		.type	ip_reass_tmr, %function
  37              	ip_reass_tmr:
  38              	.LFB7:
  39              		.file 1 "../../ext/lwip/src/core/ipv4/ip_frag.c"
  40              		.loc 1 123 0
  41              		.cfi_startproc
  42              		@ args = 0, pretend = 0, frame = 16
  43              		@ frame_needed = 0, uses_anonymous_args = 0
  44 0000 00B5     		push	{lr}
  45              	.LCFI0:
  46              		.cfi_def_cfa_offset 4
  47              		.cfi_offset 14, -4
  48 0002 85B0     		sub	sp, sp, #20
  49              	.LCFI1:
  50              		.cfi_def_cfa_offset 24
  51              		.loc 1 124 0
  52 0004 4FF00003 		mov	r3, #0
  53 0008 0293     		str	r3, [sp, #8]
  54              		.loc 1 126 0
  55 000a 40F20003 		movw	r3, #:lower16:reassdatagrams
  56 000e C0F20003 		movt	r3, #:upper16:reassdatagrams
  57 0012 1B68     		ldr	r3, [r3, #0]
ARM GAS  /tmp/ccRYQxIv.s 			page 2


  58 0014 0393     		str	r3, [sp, #12]
  59              		.loc 1 127 0
  60 0016 19E0     		b	.L2
  61              	.L4:
  62              		.loc 1 130 0
  63 0018 039B     		ldr	r3, [sp, #12]
  64 001a DB7F     		ldrb	r3, [r3, #31]	@ zero_extendqisi2
  65 001c 002B     		cmp	r3, #0
  66 001e 0CD0     		beq	.L3
  67              		.loc 1 131 0
  68 0020 039B     		ldr	r3, [sp, #12]
  69 0022 DB7F     		ldrb	r3, [r3, #31]	@ zero_extendqisi2
  70 0024 03F1FF33 		add	r3, r3, #-1
  71 0028 DAB2     		uxtb	r2, r3
  72 002a 039B     		ldr	r3, [sp, #12]
  73 002c DA77     		strb	r2, [r3, #31]
  74              		.loc 1 133 0
  75 002e 039B     		ldr	r3, [sp, #12]
  76 0030 0293     		str	r3, [sp, #8]
  77              		.loc 1 134 0
  78 0032 039B     		ldr	r3, [sp, #12]
  79 0034 1B68     		ldr	r3, [r3, #0]
  80 0036 0393     		str	r3, [sp, #12]
  81 0038 08E0     		b	.L2
  82              	.L3:
  83              	.LBB2:
  84              		.loc 1 139 0
  85 003a 039B     		ldr	r3, [sp, #12]
  86 003c 0193     		str	r3, [sp, #4]
  87              		.loc 1 141 0
  88 003e 039B     		ldr	r3, [sp, #12]
  89 0040 1B68     		ldr	r3, [r3, #0]
  90 0042 0393     		str	r3, [sp, #12]
  91              		.loc 1 143 0
  92 0044 0198     		ldr	r0, [sp, #4]
  93 0046 0299     		ldr	r1, [sp, #8]
  94 0048 FFF7FEFF 		bl	ip_reass_free_complete_datagram
  95              	.L2:
  96              	.LBE2:
  97              		.loc 1 127 0 discriminator 1
  98 004c 039B     		ldr	r3, [sp, #12]
  99 004e 002B     		cmp	r3, #0
 100 0050 E2D1     		bne	.L4
 101              		.loc 1 146 0
 102 0052 05B0     		add	sp, sp, #20
 103 0054 00BD     		pop	{pc}
 104              		.cfi_endproc
 105              	.LFE7:
 106              		.size	ip_reass_tmr, .-ip_reass_tmr
 107 0056 00BFAFF3 		.section	.text.ip_reass_free_complete_datagram,"ax",%progbits
 107      0080AFF3 
 107      0080
 108              		.align	2
 109              		.p2align 4,,15
 110              		.thumb
 111              		.thumb_func
 112              		.type	ip_reass_free_complete_datagram, %function
ARM GAS  /tmp/ccRYQxIv.s 			page 3


 113              	ip_reass_free_complete_datagram:
 114              	.LFB8:
 115              		.loc 1 159 0
 116              		.cfi_startproc
 117              		@ args = 0, pretend = 0, frame = 32
 118              		@ frame_needed = 0, uses_anonymous_args = 0
 119 0000 00B5     		push	{lr}
 120              	.LCFI2:
 121              		.cfi_def_cfa_offset 4
 122              		.cfi_offset 14, -4
 123 0002 89B0     		sub	sp, sp, #36
 124              	.LCFI3:
 125              		.cfi_def_cfa_offset 40
 126 0004 0190     		str	r0, [sp, #4]
 127 0006 0091     		str	r1, [sp, #0]
 128              		.loc 1 160 0
 129 0008 4FF00003 		mov	r3, #0
 130 000c ADF81E30 		strh	r3, [sp, #30]	@ movhi
 131              		.loc 1 165 0
 132 0010 009A     		ldr	r2, [sp, #0]
 133 0012 019B     		ldr	r3, [sp, #4]
 134 0014 9A42     		cmp	r2, r3
 135 0016 01D1     		bne	.L6
 136              		.loc 1 165 0 is_stmt 0 discriminator 1
 137 0018 FFF7FEFF 		bl	port_halt
 138              	.L6:
 139              		.loc 1 166 0 is_stmt 1
 140 001c 009B     		ldr	r3, [sp, #0]
 141 001e 002B     		cmp	r3, #0
 142 0020 06D0     		beq	.L7
 143              		.loc 1 167 0
 144 0022 009B     		ldr	r3, [sp, #0]
 145 0024 1A68     		ldr	r2, [r3, #0]
 146 0026 019B     		ldr	r3, [sp, #4]
 147 0028 9A42     		cmp	r2, r3
 148 002a 01D0     		beq	.L7
 149              		.loc 1 167 0 is_stmt 0 discriminator 1
 150 002c FFF7FEFF 		bl	port_halt
 151              	.L7:
 152              		.loc 1 172 0 is_stmt 1
 153 0030 019B     		ldr	r3, [sp, #4]
 154 0032 5B68     		ldr	r3, [r3, #4]
 155 0034 5B68     		ldr	r3, [r3, #4]
 156 0036 0593     		str	r3, [sp, #20]
 157              		.loc 1 173 0
 158 0038 059B     		ldr	r3, [sp, #20]
 159 003a 9B88     		ldrh	r3, [r3, #4]	@ unaligned
 160 003c 9BB2     		uxth	r3, r3
 161 003e 002B     		cmp	r3, #0
 162 0040 35D1     		bne	.L8
 163              		.loc 1 176 0
 164 0042 019B     		ldr	r3, [sp, #4]
 165 0044 5B68     		ldr	r3, [r3, #4]
 166 0046 0693     		str	r3, [sp, #24]
 167              		.loc 1 177 0
 168 0048 059B     		ldr	r3, [sp, #20]
 169 004a 1A68     		ldr	r2, [r3, #0]	@ unaligned
ARM GAS  /tmp/ccRYQxIv.s 			page 4


 170 004c 019B     		ldr	r3, [sp, #4]
 171 004e 5A60     		str	r2, [r3, #4]
 172              		.loc 1 179 0
 173 0050 069B     		ldr	r3, [sp, #24]
 174 0052 5A68     		ldr	r2, [r3, #4]
 175 0054 019B     		ldr	r3, [sp, #4]
 176 0056 03F10803 		add	r3, r3, #8
 177 005a 1146     		mov	r1, r2
 178 005c 1A46     		mov	r2, r3
 179 005e 4FF01403 		mov	r3, #20
 180 0062 0846     		mov	r0, r1
 181 0064 1146     		mov	r1, r2
 182 0066 1A46     		mov	r2, r3
 183 0068 FFF7FEFF 		bl	memcpy
 184              		.loc 1 180 0
 185 006c 0698     		ldr	r0, [sp, #24]
 186 006e 4FF00101 		mov	r1, #1
 187 0072 FFF7FEFF 		bl	icmp_time_exceeded
 188              		.loc 1 181 0
 189 0076 0698     		ldr	r0, [sp, #24]
 190 0078 FFF7FEFF 		bl	pbuf_clen
 191 007c 0346     		mov	r3, r0
 192 007e 8DF81330 		strb	r3, [sp, #19]
 193              		.loc 1 182 0
 194 0082 BDF81E20 		ldrh	r2, [sp, #30]
 195 0086 9DF81330 		ldrb	r3, [sp, #19]	@ zero_extendqisi2
 196 008a D218     		adds	r2, r2, r3
 197 008c 4FF6FF73 		movw	r3, #65535
 198 0090 9A42     		cmp	r2, r3
 199 0092 01DD     		ble	.L9
 200              		.loc 1 182 0 is_stmt 0 discriminator 1
 201 0094 FFF7FEFF 		bl	port_halt
 202              	.L9:
 203              		.loc 1 183 0 is_stmt 1
 204 0098 9DF81330 		ldrb	r3, [sp, #19]	@ zero_extendqisi2
 205 009c 9AB2     		uxth	r2, r3
 206 009e BDF81E30 		ldrh	r3, [sp, #30]	@ movhi
 207 00a2 D318     		adds	r3, r2, r3
 208 00a4 ADF81E30 		strh	r3, [sp, #30]	@ movhi
 209              		.loc 1 184 0
 210 00a8 0698     		ldr	r0, [sp, #24]
 211 00aa FFF7FEFF 		bl	pbuf_free
 212              	.L8:
 213              		.loc 1 190 0
 214 00ae 019B     		ldr	r3, [sp, #4]
 215 00b0 5B68     		ldr	r3, [r3, #4]
 216 00b2 0693     		str	r3, [sp, #24]
 217              		.loc 1 191 0
 218 00b4 23E0     		b	.L10
 219              	.L12:
 220              	.LBB3:
 221              		.loc 1 193 0
 222 00b6 069B     		ldr	r3, [sp, #24]
 223 00b8 5B68     		ldr	r3, [r3, #4]
 224 00ba 0593     		str	r3, [sp, #20]
 225              		.loc 1 194 0
 226 00bc 069B     		ldr	r3, [sp, #24]
ARM GAS  /tmp/ccRYQxIv.s 			page 5


 227 00be 0393     		str	r3, [sp, #12]
 228              		.loc 1 196 0
 229 00c0 059B     		ldr	r3, [sp, #20]
 230 00c2 1B68     		ldr	r3, [r3, #0]	@ unaligned
 231 00c4 0693     		str	r3, [sp, #24]
 232              		.loc 1 197 0
 233 00c6 0398     		ldr	r0, [sp, #12]
 234 00c8 FFF7FEFF 		bl	pbuf_clen
 235 00cc 0346     		mov	r3, r0
 236 00ce 8DF81330 		strb	r3, [sp, #19]
 237              		.loc 1 198 0
 238 00d2 BDF81E20 		ldrh	r2, [sp, #30]
 239 00d6 9DF81330 		ldrb	r3, [sp, #19]	@ zero_extendqisi2
 240 00da D218     		adds	r2, r2, r3
 241 00dc 4FF6FF73 		movw	r3, #65535
 242 00e0 9A42     		cmp	r2, r3
 243 00e2 01DD     		ble	.L11
 244              		.loc 1 198 0 is_stmt 0 discriminator 1
 245 00e4 FFF7FEFF 		bl	port_halt
 246              	.L11:
 247              		.loc 1 199 0 is_stmt 1
 248 00e8 9DF81330 		ldrb	r3, [sp, #19]	@ zero_extendqisi2
 249 00ec 9AB2     		uxth	r2, r3
 250 00ee BDF81E30 		ldrh	r3, [sp, #30]	@ movhi
 251 00f2 D318     		adds	r3, r2, r3
 252 00f4 ADF81E30 		strh	r3, [sp, #30]	@ movhi
 253              		.loc 1 200 0
 254 00f8 0398     		ldr	r0, [sp, #12]
 255 00fa FFF7FEFF 		bl	pbuf_free
 256              	.L10:
 257              	.LBE3:
 258              		.loc 1 191 0 discriminator 1
 259 00fe 069B     		ldr	r3, [sp, #24]
 260 0100 002B     		cmp	r3, #0
 261 0102 D8D1     		bne	.L12
 262              		.loc 1 203 0
 263 0104 0198     		ldr	r0, [sp, #4]
 264 0106 0099     		ldr	r1, [sp, #0]
 265 0108 FFF7FEFF 		bl	ip_reass_dequeue_datagram
 266              		.loc 1 204 0
 267 010c 40F20003 		movw	r3, #:lower16:ip_reass_pbufcount
 268 0110 C0F20003 		movt	r3, #:upper16:ip_reass_pbufcount
 269 0114 1B88     		ldrh	r3, [r3, #0]
 270 0116 BDF81E20 		ldrh	r2, [sp, #30]
 271 011a 9A42     		cmp	r2, r3
 272 011c 01D9     		bls	.L13
 273              		.loc 1 204 0 is_stmt 0 discriminator 1
 274 011e FFF7FEFF 		bl	port_halt
 275              	.L13:
 276              		.loc 1 205 0 is_stmt 1
 277 0122 40F20003 		movw	r3, #:lower16:ip_reass_pbufcount
 278 0126 C0F20003 		movt	r3, #:upper16:ip_reass_pbufcount
 279 012a 1A88     		ldrh	r2, [r3, #0]
 280 012c BDF81E30 		ldrh	r3, [sp, #30]	@ movhi
 281 0130 D31A     		subs	r3, r2, r3
 282 0132 9AB2     		uxth	r2, r3
 283 0134 40F20003 		movw	r3, #:lower16:ip_reass_pbufcount
ARM GAS  /tmp/ccRYQxIv.s 			page 6


 284 0138 C0F20003 		movt	r3, #:upper16:ip_reass_pbufcount
 285 013c 1A80     		strh	r2, [r3, #0]	@ movhi
 286              		.loc 1 207 0
 287 013e BDF81E30 		ldrh	r3, [sp, #30]
 288              		.loc 1 208 0
 289 0142 1846     		mov	r0, r3
 290 0144 09B0     		add	sp, sp, #36
 291 0146 00BD     		pop	{pc}
 292              		.cfi_endproc
 293              	.LFE8:
 294              		.size	ip_reass_free_complete_datagram, .-ip_reass_free_complete_datagram
 295 0148 AFF30080 		.section	.text.ip_reass_remove_oldest_datagram,"ax",%progbits
 295      AFF30080 
 296              		.align	2
 297              		.p2align 4,,15
 298              		.thumb
 299              		.thumb_func
 300              		.type	ip_reass_remove_oldest_datagram, %function
 301              	ip_reass_remove_oldest_datagram:
 302              	.LFB9:
 303              		.loc 1 222 0
 304              		.cfi_startproc
 305              		@ args = 0, pretend = 0, frame = 32
 306              		@ frame_needed = 0, uses_anonymous_args = 0
 307 0000 00B5     		push	{lr}
 308              	.LCFI4:
 309              		.cfi_def_cfa_offset 4
 310              		.cfi_offset 14, -4
 311 0002 89B0     		sub	sp, sp, #36
 312              	.LCFI5:
 313              		.cfi_def_cfa_offset 40
 314 0004 0190     		str	r0, [sp, #4]
 315 0006 0091     		str	r1, [sp, #0]
 316              		.loc 1 227 0
 317 0008 4FF00003 		mov	r3, #0
 318 000c 0493     		str	r3, [sp, #16]
 319              	.L23:
 320              		.loc 1 233 0
 321 000e 4FF00003 		mov	r3, #0
 322 0012 0693     		str	r3, [sp, #24]
 323              		.loc 1 234 0
 324 0014 4FF00003 		mov	r3, #0
 325 0018 0593     		str	r3, [sp, #20]
 326              		.loc 1 235 0
 327 001a 4FF00003 		mov	r3, #0
 328 001e 0393     		str	r3, [sp, #12]
 329              		.loc 1 236 0
 330 0020 40F20003 		movw	r3, #:lower16:reassdatagrams
 331 0024 C0F20003 		movt	r3, #:upper16:reassdatagrams
 332 0028 1B68     		ldr	r3, [r3, #0]
 333 002a 0793     		str	r3, [sp, #28]
 334              		.loc 1 237 0
 335 002c 2DE0     		b	.L15
 336              	.L20:
 337              		.loc 1 238 0
 338 002e 079B     		ldr	r3, [sp, #28]
 339 0030 5A69     		ldr	r2, [r3, #20]
ARM GAS  /tmp/ccRYQxIv.s 			page 7


 340 0032 019B     		ldr	r3, [sp, #4]
 341 0034 DB68     		ldr	r3, [r3, #12]	@ unaligned
 342 0036 9A42     		cmp	r2, r3
 343 0038 0CD1     		bne	.L16
 344              		.loc 1 238 0 is_stmt 0 discriminator 1
 345 003a 079B     		ldr	r3, [sp, #28]
 346 003c 9A69     		ldr	r2, [r3, #24]
 347 003e 019B     		ldr	r3, [sp, #4]
 348 0040 1B69     		ldr	r3, [r3, #16]	@ unaligned
 349 0042 9A42     		cmp	r2, r3
 350 0044 06D1     		bne	.L16
 351 0046 079B     		ldr	r3, [sp, #28]
 352 0048 9A89     		ldrh	r2, [r3, #12]
 353 004a 019B     		ldr	r3, [sp, #4]
 354 004c 9B88     		ldrh	r3, [r3, #4]	@ unaligned
 355 004e 9BB2     		uxth	r3, r3
 356 0050 9A42     		cmp	r2, r3
 357 0052 11D0     		beq	.L17
 358              	.L16:
 359              		.loc 1 240 0 is_stmt 1
 360 0054 039B     		ldr	r3, [sp, #12]
 361 0056 03F10103 		add	r3, r3, #1
 362 005a 0393     		str	r3, [sp, #12]
 363              		.loc 1 241 0
 364 005c 069B     		ldr	r3, [sp, #24]
 365 005e 002B     		cmp	r3, #0
 366 0060 02D1     		bne	.L18
 367              		.loc 1 242 0
 368 0062 079B     		ldr	r3, [sp, #28]
 369 0064 0693     		str	r3, [sp, #24]
 370 0066 07E0     		b	.L17
 371              	.L18:
 372              		.loc 1 243 0
 373 0068 079B     		ldr	r3, [sp, #28]
 374 006a DA7F     		ldrb	r2, [r3, #31]	@ zero_extendqisi2
 375 006c 069B     		ldr	r3, [sp, #24]
 376 006e DB7F     		ldrb	r3, [r3, #31]	@ zero_extendqisi2
 377 0070 9A42     		cmp	r2, r3
 378 0072 01D8     		bhi	.L17
 379              		.loc 1 245 0
 380 0074 079B     		ldr	r3, [sp, #28]
 381 0076 0693     		str	r3, [sp, #24]
 382              	.L17:
 383              		.loc 1 248 0
 384 0078 079B     		ldr	r3, [sp, #28]
 385 007a 1B68     		ldr	r3, [r3, #0]
 386 007c 002B     		cmp	r3, #0
 387 007e 01D0     		beq	.L19
 388              		.loc 1 249 0
 389 0080 079B     		ldr	r3, [sp, #28]
 390 0082 0593     		str	r3, [sp, #20]
 391              	.L19:
 392              		.loc 1 251 0
 393 0084 079B     		ldr	r3, [sp, #28]
 394 0086 1B68     		ldr	r3, [r3, #0]
 395 0088 0793     		str	r3, [sp, #28]
 396              	.L15:
ARM GAS  /tmp/ccRYQxIv.s 			page 8


 397              		.loc 1 237 0 discriminator 1
 398 008a 079B     		ldr	r3, [sp, #28]
 399 008c 002B     		cmp	r3, #0
 400 008e CED1     		bne	.L20
 401              		.loc 1 253 0
 402 0090 069B     		ldr	r3, [sp, #24]
 403 0092 002B     		cmp	r3, #0
 404 0094 09D0     		beq	.L21
 405              		.loc 1 254 0
 406 0096 0698     		ldr	r0, [sp, #24]
 407 0098 0599     		ldr	r1, [sp, #20]
 408 009a FFF7FEFF 		bl	ip_reass_free_complete_datagram
 409 009e 0346     		mov	r3, r0
 410 00a0 0293     		str	r3, [sp, #8]
 411              		.loc 1 255 0
 412 00a2 049A     		ldr	r2, [sp, #16]
 413 00a4 029B     		ldr	r3, [sp, #8]
 414 00a6 D318     		adds	r3, r2, r3
 415 00a8 0493     		str	r3, [sp, #16]
 416              	.L21:
 417              		.loc 1 257 0
 418 00aa 049A     		ldr	r2, [sp, #16]
 419 00ac 009B     		ldr	r3, [sp, #0]
 420 00ae 9A42     		cmp	r2, r3
 421 00b0 02DA     		bge	.L22
 422              		.loc 1 257 0 is_stmt 0 discriminator 1
 423 00b2 039B     		ldr	r3, [sp, #12]
 424 00b4 012B     		cmp	r3, #1
 425 00b6 AADC     		bgt	.L23
 426              	.L22:
 427              		.loc 1 258 0 is_stmt 1
 428 00b8 049B     		ldr	r3, [sp, #16]
 429              		.loc 1 259 0
 430 00ba 1846     		mov	r0, r3
 431 00bc 09B0     		add	sp, sp, #36
 432 00be 00BD     		pop	{pc}
 433              		.cfi_endproc
 434              	.LFE9:
 435              		.size	ip_reass_remove_oldest_datagram, .-ip_reass_remove_oldest_datagram
 436              		.section	.text.ip_reass_enqueue_new_datagram,"ax",%progbits
 437              		.align	2
 438              		.p2align 4,,15
 439              		.thumb
 440              		.thumb_func
 441              		.type	ip_reass_enqueue_new_datagram, %function
 442              	ip_reass_enqueue_new_datagram:
 443              	.LFB10:
 444              		.loc 1 270 0
 445              		.cfi_startproc
 446              		@ args = 0, pretend = 0, frame = 16
 447              		@ frame_needed = 0, uses_anonymous_args = 0
 448 0000 00B5     		push	{lr}
 449              	.LCFI6:
 450              		.cfi_def_cfa_offset 4
 451              		.cfi_offset 14, -4
 452 0002 85B0     		sub	sp, sp, #20
 453              	.LCFI7:
ARM GAS  /tmp/ccRYQxIv.s 			page 9


 454              		.cfi_def_cfa_offset 24
 455 0004 0190     		str	r0, [sp, #4]
 456 0006 0091     		str	r1, [sp, #0]
 457              		.loc 1 273 0
 458 0008 4FF00500 		mov	r0, #5
 459 000c FFF7FEFF 		bl	memp_malloc
 460 0010 0346     		mov	r3, r0
 461 0012 0393     		str	r3, [sp, #12]
 462              		.loc 1 274 0
 463 0014 039B     		ldr	r3, [sp, #12]
 464 0016 002B     		cmp	r3, #0
 465 0018 20D1     		bne	.L25
 466              		.loc 1 276 0
 467 001a 0198     		ldr	r0, [sp, #4]
 468 001c 0099     		ldr	r1, [sp, #0]
 469 001e FFF7FEFF 		bl	ip_reass_remove_oldest_datagram
 470 0022 0246     		mov	r2, r0
 471 0024 009B     		ldr	r3, [sp, #0]
 472 0026 9A42     		cmp	r2, r3
 473 0028 05DB     		blt	.L26
 474              		.loc 1 277 0
 475 002a 4FF00500 		mov	r0, #5
 476 002e FFF7FEFF 		bl	memp_malloc
 477 0032 0346     		mov	r3, r0
 478 0034 0393     		str	r3, [sp, #12]
 479              	.L26:
 480              		.loc 1 279 0
 481 0036 039B     		ldr	r3, [sp, #12]
 482 0038 002B     		cmp	r3, #0
 483 003a 0FD1     		bne	.L25
 484              		.loc 1 282 0
 485 003c 40F20003 		movw	r3, #:lower16:lwip_stats
 486 0040 C0F20003 		movt	r3, #:upper16:lwip_stats
 487 0044 9B8F     		ldrh	r3, [r3, #60]
 488 0046 03F10103 		add	r3, r3, #1
 489 004a 9AB2     		uxth	r2, r3
 490 004c 40F20003 		movw	r3, #:lower16:lwip_stats
 491 0050 C0F20003 		movt	r3, #:upper16:lwip_stats
 492 0054 9A87     		strh	r2, [r3, #60]	@ movhi
 493              		.loc 1 284 0
 494 0056 4FF00003 		mov	r3, #0
 495 005a 28E0     		b	.L27
 496              	.L25:
 497              		.loc 1 287 0
 498 005c 039B     		ldr	r3, [sp, #12]
 499 005e 1A46     		mov	r2, r3
 500 0060 4FF02003 		mov	r3, #32
 501 0064 1046     		mov	r0, r2
 502 0066 4FF00001 		mov	r1, #0
 503 006a 1A46     		mov	r2, r3
 504 006c FFF7FEFF 		bl	memset
 505              		.loc 1 288 0
 506 0070 039B     		ldr	r3, [sp, #12]
 507 0072 4FF00302 		mov	r2, #3
 508 0076 DA77     		strb	r2, [r3, #31]
 509              		.loc 1 291 0
 510 0078 40F20003 		movw	r3, #:lower16:reassdatagrams
ARM GAS  /tmp/ccRYQxIv.s 			page 10


 511 007c C0F20003 		movt	r3, #:upper16:reassdatagrams
 512 0080 1A68     		ldr	r2, [r3, #0]
 513 0082 039B     		ldr	r3, [sp, #12]
 514 0084 1A60     		str	r2, [r3, #0]
 515              		.loc 1 292 0
 516 0086 40F20003 		movw	r3, #:lower16:reassdatagrams
 517 008a C0F20003 		movt	r3, #:upper16:reassdatagrams
 518 008e 039A     		ldr	r2, [sp, #12]
 519 0090 1A60     		str	r2, [r3, #0]
 520              		.loc 1 295 0
 521 0092 039B     		ldr	r3, [sp, #12]
 522 0094 03F10802 		add	r2, r3, #8
 523 0098 019B     		ldr	r3, [sp, #4]
 524 009a 1146     		mov	r1, r2
 525 009c 1A46     		mov	r2, r3
 526 009e 4FF01403 		mov	r3, #20
 527 00a2 0846     		mov	r0, r1
 528 00a4 1146     		mov	r1, r2
 529 00a6 1A46     		mov	r2, r3
 530 00a8 FFF7FEFF 		bl	memcpy
 531              		.loc 1 296 0
 532 00ac 039B     		ldr	r3, [sp, #12]
 533              	.L27:
 534              		.loc 1 297 0
 535 00ae 1846     		mov	r0, r3
 536 00b0 05B0     		add	sp, sp, #20
 537 00b2 00BD     		pop	{pc}
 538              		.cfi_endproc
 539              	.LFE10:
 540              		.size	ip_reass_enqueue_new_datagram, .-ip_reass_enqueue_new_datagram
 541 00b4 AFF30080 		.section	.text.ip_reass_dequeue_datagram,"ax",%progbits
 541      AFF30080 
 541      AFF30080 
 542              		.align	2
 543              		.p2align 4,,15
 544              		.thumb
 545              		.thumb_func
 546              		.type	ip_reass_dequeue_datagram, %function
 547              	ip_reass_dequeue_datagram:
 548              	.LFB11:
 549              		.loc 1 305 0
 550              		.cfi_startproc
 551              		@ args = 0, pretend = 0, frame = 8
 552              		@ frame_needed = 0, uses_anonymous_args = 0
 553 0000 00B5     		push	{lr}
 554              	.LCFI8:
 555              		.cfi_def_cfa_offset 4
 556              		.cfi_offset 14, -4
 557 0002 83B0     		sub	sp, sp, #12
 558              	.LCFI9:
 559              		.cfi_def_cfa_offset 16
 560 0004 0190     		str	r0, [sp, #4]
 561 0006 0091     		str	r1, [sp, #0]
 562              		.loc 1 308 0
 563 0008 40F20003 		movw	r3, #:lower16:reassdatagrams
 564 000c C0F20003 		movt	r3, #:upper16:reassdatagrams
 565 0010 1A68     		ldr	r2, [r3, #0]
ARM GAS  /tmp/ccRYQxIv.s 			page 11


 566 0012 019B     		ldr	r3, [sp, #4]
 567 0014 9A42     		cmp	r2, r3
 568 0016 07D1     		bne	.L29
 569              		.loc 1 310 0
 570 0018 019B     		ldr	r3, [sp, #4]
 571 001a 1A68     		ldr	r2, [r3, #0]
 572 001c 40F20003 		movw	r3, #:lower16:reassdatagrams
 573 0020 C0F20003 		movt	r3, #:upper16:reassdatagrams
 574 0024 1A60     		str	r2, [r3, #0]
 575 0026 08E0     		b	.L30
 576              	.L29:
 577              		.loc 1 313 0
 578 0028 009B     		ldr	r3, [sp, #0]
 579 002a 002B     		cmp	r3, #0
 580 002c 01D1     		bne	.L31
 581              		.loc 1 313 0 is_stmt 0 discriminator 1
 582 002e FFF7FEFF 		bl	port_halt
 583              	.L31:
 584              		.loc 1 314 0 is_stmt 1
 585 0032 019B     		ldr	r3, [sp, #4]
 586 0034 1A68     		ldr	r2, [r3, #0]
 587 0036 009B     		ldr	r3, [sp, #0]
 588 0038 1A60     		str	r2, [r3, #0]
 589              	.L30:
 590              		.loc 1 318 0
 591 003a 4FF00500 		mov	r0, #5
 592 003e 0199     		ldr	r1, [sp, #4]
 593 0040 FFF7FEFF 		bl	memp_free
 594              		.loc 1 319 0
 595 0044 03B0     		add	sp, sp, #12
 596 0046 00BD     		pop	{pc}
 597              		.cfi_endproc
 598              	.LFE11:
 599              		.size	ip_reass_dequeue_datagram, .-ip_reass_dequeue_datagram
 600 0048 AFF30080 		.section	.text.ip_reass_chain_frag_into_datagram_and_validate,"ax",%progbits
 600      AFF30080 
 601              		.align	2
 602              		.p2align 4,,15
 603              		.thumb
 604              		.thumb_func
 605              		.type	ip_reass_chain_frag_into_datagram_and_validate, %function
 606              	ip_reass_chain_frag_into_datagram_and_validate:
 607              	.LFB12:
 608              		.loc 1 332 0
 609              		.cfi_startproc
 610              		@ args = 0, pretend = 0, frame = 40
 611              		@ frame_needed = 0, uses_anonymous_args = 0
 612 0000 10B5     		push	{r4, lr}
 613              	.LCFI10:
 614              		.cfi_def_cfa_offset 8
 615              		.cfi_offset 14, -4
 616              		.cfi_offset 4, -8
 617 0002 8AB0     		sub	sp, sp, #40
 618              	.LCFI11:
 619              		.cfi_def_cfa_offset 48
 620 0004 0190     		str	r0, [sp, #4]
 621 0006 0091     		str	r1, [sp, #0]
ARM GAS  /tmp/ccRYQxIv.s 			page 12


 622              		.loc 1 333 0
 623 0008 4FF00003 		mov	r3, #0
 624 000c 0893     		str	r3, [sp, #32]
 625              		.loc 1 337 0
 626 000e 4FF00103 		mov	r3, #1
 627 0012 0693     		str	r3, [sp, #24]
 628              		.loc 1 340 0
 629 0014 009B     		ldr	r3, [sp, #0]
 630 0016 5B68     		ldr	r3, [r3, #4]
 631 0018 0593     		str	r3, [sp, #20]
 632              		.loc 1 341 0
 633 001a 059B     		ldr	r3, [sp, #20]
 634 001c 5B88     		ldrh	r3, [r3, #2]	@ unaligned
 635 001e 9BB2     		uxth	r3, r3
 636 0020 1846     		mov	r0, r3
 637 0022 FFF7FEFF 		bl	lwip_ntohs
 638 0026 0346     		mov	r3, r0
 639 0028 1C46     		mov	r4, r3
 640 002a 059B     		ldr	r3, [sp, #20]
 641 002c 1B88     		ldrh	r3, [r3, #0]	@ unaligned
 642 002e 9BB2     		uxth	r3, r3
 643 0030 1846     		mov	r0, r3
 644 0032 FFF7FEFF 		bl	lwip_ntohs
 645 0036 0346     		mov	r3, r0
 646 0038 4FEA1323 		lsr	r3, r3, #8
 647 003c 9BB2     		uxth	r3, r3
 648 003e 03F00F03 		and	r3, r3, #15
 649 0042 9BB2     		uxth	r3, r3
 650 0044 1A46     		mov	r2, r3	@ movhi
 651 0046 4FEA8232 		lsl	r2, r2, #14
 652 004a D31A     		subs	r3, r2, r3
 653 004c 4FEA8303 		lsl	r3, r3, #2
 654 0050 9BB2     		uxth	r3, r3
 655 0052 E318     		adds	r3, r4, r3
 656 0054 ADF81230 		strh	r3, [sp, #18]	@ movhi
 657              		.loc 1 342 0
 658 0058 059B     		ldr	r3, [sp, #20]
 659 005a DB88     		ldrh	r3, [r3, #6]	@ unaligned
 660 005c 9BB2     		uxth	r3, r3
 661 005e 1846     		mov	r0, r3
 662 0060 FFF7FEFF 		bl	lwip_ntohs
 663 0064 0346     		mov	r3, r0
 664 0066 4FEAC343 		lsl	r3, r3, #19
 665 006a 4FEAD343 		lsr	r3, r3, #19
 666 006e 9BB2     		uxth	r3, r3
 667 0070 4FEAC303 		lsl	r3, r3, #3
 668 0074 ADF81030 		strh	r3, [sp, #16]	@ movhi
 669              		.loc 1 349 0
 670 0078 009B     		ldr	r3, [sp, #0]
 671 007a 5B68     		ldr	r3, [r3, #4]
 672 007c 0993     		str	r3, [sp, #36]
 673              		.loc 1 350 0
 674 007e 099B     		ldr	r3, [sp, #36]
 675 0080 4FF00002 		mov	r2, #0
 676 0084 1A70     		strb	r2, [r3, #0]
 677 0086 4FF00002 		mov	r2, #0
 678 008a 5A70     		strb	r2, [r3, #1]
ARM GAS  /tmp/ccRYQxIv.s 			page 13


 679 008c 4FF00002 		mov	r2, #0
 680 0090 9A70     		strb	r2, [r3, #2]
 681 0092 4FF00002 		mov	r2, #0
 682 0096 DA70     		strb	r2, [r3, #3]
 683              		.loc 1 351 0
 684 0098 099B     		ldr	r3, [sp, #36]
 685 009a BDF81020 		ldrh	r2, [sp, #16]	@ movhi
 686 009e 9A80     		strh	r2, [r3, #4]	@ unaligned
 687              		.loc 1 352 0
 688 00a0 BDF81020 		ldrh	r2, [sp, #16]	@ movhi
 689 00a4 BDF81230 		ldrh	r3, [sp, #18]	@ movhi
 690 00a8 D318     		adds	r3, r2, r3
 691 00aa 9AB2     		uxth	r2, r3
 692 00ac 099B     		ldr	r3, [sp, #36]
 693 00ae DA80     		strh	r2, [r3, #6]	@ unaligned
 694              		.loc 1 356 0
 695 00b0 019B     		ldr	r3, [sp, #4]
 696 00b2 5B68     		ldr	r3, [r3, #4]
 697 00b4 0793     		str	r3, [sp, #28]
 698 00b6 4FE0     		b	.L33
 699              	.L42:
 700              		.loc 1 357 0
 701 00b8 079B     		ldr	r3, [sp, #28]
 702 00ba 5B68     		ldr	r3, [r3, #4]
 703 00bc 0393     		str	r3, [sp, #12]
 704              		.loc 1 358 0
 705 00be 099B     		ldr	r3, [sp, #36]
 706 00c0 9B88     		ldrh	r3, [r3, #4]	@ unaligned
 707 00c2 9AB2     		uxth	r2, r3
 708 00c4 039B     		ldr	r3, [sp, #12]
 709 00c6 9B88     		ldrh	r3, [r3, #4]	@ unaligned
 710 00c8 9BB2     		uxth	r3, r3
 711 00ca 9A42     		cmp	r2, r3
 712 00cc 1FD2     		bcs	.L34
 713              		.loc 1 360 0
 714 00ce 099B     		ldr	r3, [sp, #36]
 715 00d0 079A     		ldr	r2, [sp, #28]
 716 00d2 1A60     		str	r2, [r3, #0]	@ unaligned
 717              		.loc 1 361 0
 718 00d4 089B     		ldr	r3, [sp, #32]
 719 00d6 002B     		cmp	r3, #0
 720 00d8 15D0     		beq	.L35
 721              		.loc 1 364 0
 722 00da 099B     		ldr	r3, [sp, #36]
 723 00dc 9B88     		ldrh	r3, [r3, #4]	@ unaligned
 724 00de 9AB2     		uxth	r2, r3
 725 00e0 089B     		ldr	r3, [sp, #32]
 726 00e2 DB88     		ldrh	r3, [r3, #6]	@ unaligned
 727 00e4 9BB2     		uxth	r3, r3
 728 00e6 9A42     		cmp	r2, r3
 729 00e8 C0F0BB80 		bcc	.L36
 730              		.loc 1 364 0 is_stmt 0 discriminator 1
 731 00ec 099B     		ldr	r3, [sp, #36]
 732 00ee DB88     		ldrh	r3, [r3, #6]	@ unaligned
 733 00f0 9AB2     		uxth	r2, r3
 734 00f2 039B     		ldr	r3, [sp, #12]
 735 00f4 9B88     		ldrh	r3, [r3, #4]	@ unaligned
ARM GAS  /tmp/ccRYQxIv.s 			page 14


 736 00f6 9BB2     		uxth	r3, r3
 737 00f8 9A42     		cmp	r2, r3
 738 00fa 00F2B280 		bhi	.L36
 739              		.loc 1 369 0 is_stmt 1
 740 00fe 089B     		ldr	r3, [sp, #32]
 741 0100 009A     		ldr	r2, [sp, #0]
 742 0102 1A60     		str	r2, [r3, #0]	@ unaligned
 743              		.loc 1 374 0
 744 0104 2BE0     		b	.L38
 745              	.L35:
 746              		.loc 1 372 0
 747 0106 019B     		ldr	r3, [sp, #4]
 748 0108 009A     		ldr	r2, [sp, #0]
 749 010a 5A60     		str	r2, [r3, #4]
 750              		.loc 1 374 0
 751 010c 27E0     		b	.L38
 752              	.L34:
 753              		.loc 1 375 0
 754 010e 099B     		ldr	r3, [sp, #36]
 755 0110 9B88     		ldrh	r3, [r3, #4]	@ unaligned
 756 0112 9AB2     		uxth	r2, r3
 757 0114 039B     		ldr	r3, [sp, #12]
 758 0116 9B88     		ldrh	r3, [r3, #4]	@ unaligned
 759 0118 9BB2     		uxth	r3, r3
 760 011a 9A42     		cmp	r2, r3
 761 011c 00F09E80 		beq	.L58
 762              	.L39:
 763              		.loc 1 379 0
 764 0120 099B     		ldr	r3, [sp, #36]
 765 0122 9B88     		ldrh	r3, [r3, #4]	@ unaligned
 766 0124 9AB2     		uxth	r2, r3
 767 0126 039B     		ldr	r3, [sp, #12]
 768 0128 DB88     		ldrh	r3, [r3, #6]	@ unaligned
 769 012a 9BB2     		uxth	r3, r3
 770 012c 9A42     		cmp	r2, r3
 771 012e C0F09780 		bcc	.L59
 772              	.L40:
 773              		.loc 1 385 0
 774 0132 089B     		ldr	r3, [sp, #32]
 775 0134 002B     		cmp	r3, #0
 776 0136 0AD0     		beq	.L41
 777              		.loc 1 386 0
 778 0138 089B     		ldr	r3, [sp, #32]
 779 013a DB88     		ldrh	r3, [r3, #6]	@ unaligned
 780 013c 9AB2     		uxth	r2, r3
 781 013e 039B     		ldr	r3, [sp, #12]
 782 0140 9B88     		ldrh	r3, [r3, #4]	@ unaligned
 783 0142 9BB2     		uxth	r3, r3
 784 0144 9A42     		cmp	r2, r3
 785 0146 02D0     		beq	.L41
 786              		.loc 1 389 0
 787 0148 4FF00003 		mov	r3, #0
 788 014c 0693     		str	r3, [sp, #24]
 789              	.L41:
 790              		.loc 1 393 0
 791 014e 039B     		ldr	r3, [sp, #12]
 792 0150 1B68     		ldr	r3, [r3, #0]	@ unaligned
ARM GAS  /tmp/ccRYQxIv.s 			page 15


 793 0152 0793     		str	r3, [sp, #28]
 794              		.loc 1 394 0
 795 0154 039B     		ldr	r3, [sp, #12]
 796 0156 0893     		str	r3, [sp, #32]
 797              	.L33:
 798              		.loc 1 356 0 discriminator 1
 799 0158 079B     		ldr	r3, [sp, #28]
 800 015a 002B     		cmp	r3, #0
 801 015c ACD1     		bne	.L42
 802              	.L38:
 803              		.loc 1 398 0
 804 015e 079B     		ldr	r3, [sp, #28]
 805 0160 002B     		cmp	r3, #0
 806 0162 24D1     		bne	.L43
 807              		.loc 1 399 0
 808 0164 089B     		ldr	r3, [sp, #32]
 809 0166 002B     		cmp	r3, #0
 810 0168 18D0     		beq	.L44
 811              		.loc 1 403 0
 812 016a 089B     		ldr	r3, [sp, #32]
 813 016c DB88     		ldrh	r3, [r3, #6]	@ unaligned
 814 016e 9AB2     		uxth	r2, r3
 815 0170 099B     		ldr	r3, [sp, #36]
 816 0172 9B88     		ldrh	r3, [r3, #4]	@ unaligned
 817 0174 9BB2     		uxth	r3, r3
 818 0176 9A42     		cmp	r2, r3
 819 0178 01D9     		bls	.L45
 820              		.loc 1 403 0 is_stmt 0 discriminator 1
 821 017a FFF7FEFF 		bl	port_halt
 822              	.L45:
 823              		.loc 1 405 0 is_stmt 1
 824 017e 089B     		ldr	r3, [sp, #32]
 825 0180 009A     		ldr	r2, [sp, #0]
 826 0182 1A60     		str	r2, [r3, #0]	@ unaligned
 827              		.loc 1 406 0
 828 0184 089B     		ldr	r3, [sp, #32]
 829 0186 DB88     		ldrh	r3, [r3, #6]	@ unaligned
 830 0188 9AB2     		uxth	r2, r3
 831 018a 099B     		ldr	r3, [sp, #36]
 832 018c 9B88     		ldrh	r3, [r3, #4]	@ unaligned
 833 018e 9BB2     		uxth	r3, r3
 834 0190 9A42     		cmp	r2, r3
 835 0192 0CD0     		beq	.L43
 836              		.loc 1 407 0
 837 0194 4FF00003 		mov	r3, #0
 838 0198 0693     		str	r3, [sp, #24]
 839 019a 08E0     		b	.L43
 840              	.L44:
 841              		.loc 1 411 0
 842 019c 019B     		ldr	r3, [sp, #4]
 843 019e 5B68     		ldr	r3, [r3, #4]
 844 01a0 002B     		cmp	r3, #0
 845 01a2 01D0     		beq	.L46
 846              		.loc 1 411 0 is_stmt 0 discriminator 1
 847 01a4 FFF7FEFF 		bl	port_halt
 848              	.L46:
 849              		.loc 1 415 0 is_stmt 1
ARM GAS  /tmp/ccRYQxIv.s 			page 16


 850 01a8 019B     		ldr	r3, [sp, #4]
 851 01aa 009A     		ldr	r2, [sp, #0]
 852 01ac 5A60     		str	r2, [r3, #4]
 853              	.L43:
 854              		.loc 1 421 0
 855 01ae 019B     		ldr	r3, [sp, #4]
 856 01b0 9B7F     		ldrb	r3, [r3, #30]	@ zero_extendqisi2
 857 01b2 03F00103 		and	r3, r3, #1
 858 01b6 DBB2     		uxtb	r3, r3
 859 01b8 002B     		cmp	r3, #0
 860 01ba 4CD0     		beq	.L47
 861              		.loc 1 423 0
 862 01bc 069B     		ldr	r3, [sp, #24]
 863 01be 002B     		cmp	r3, #0
 864 01c0 47D0     		beq	.L48
 865              		.loc 1 426 0
 866 01c2 019B     		ldr	r3, [sp, #4]
 867 01c4 5B68     		ldr	r3, [r3, #4]
 868 01c6 5B68     		ldr	r3, [r3, #4]
 869 01c8 9B88     		ldrh	r3, [r3, #4]	@ unaligned
 870 01ca 9BB2     		uxth	r3, r3
 871 01cc 002B     		cmp	r3, #0
 872 01ce 03D0     		beq	.L49
 873              		.loc 1 427 0
 874 01d0 4FF00003 		mov	r3, #0
 875 01d4 0693     		str	r3, [sp, #24]
 876 01d6 3CE0     		b	.L48
 877              	.L49:
 878              		.loc 1 430 0
 879 01d8 099B     		ldr	r3, [sp, #36]
 880 01da 0893     		str	r3, [sp, #32]
 881              		.loc 1 431 0
 882 01dc 099B     		ldr	r3, [sp, #36]
 883 01de 1B68     		ldr	r3, [r3, #0]	@ unaligned
 884 01e0 0793     		str	r3, [sp, #28]
 885              		.loc 1 432 0
 886 01e2 13E0     		b	.L50
 887              	.L53:
 888              		.loc 1 433 0
 889 01e4 079B     		ldr	r3, [sp, #28]
 890 01e6 5B68     		ldr	r3, [r3, #4]
 891 01e8 0993     		str	r3, [sp, #36]
 892              		.loc 1 434 0
 893 01ea 089B     		ldr	r3, [sp, #32]
 894 01ec DB88     		ldrh	r3, [r3, #6]	@ unaligned
 895 01ee 9AB2     		uxth	r2, r3
 896 01f0 099B     		ldr	r3, [sp, #36]
 897 01f2 9B88     		ldrh	r3, [r3, #4]	@ unaligned
 898 01f4 9BB2     		uxth	r3, r3
 899 01f6 9A42     		cmp	r2, r3
 900 01f8 03D0     		beq	.L51
 901              		.loc 1 435 0
 902 01fa 4FF00003 		mov	r3, #0
 903 01fe 0693     		str	r3, [sp, #24]
 904              		.loc 1 436 0
 905 0200 07E0     		b	.L52
 906              	.L51:
ARM GAS  /tmp/ccRYQxIv.s 			page 17


 907              		.loc 1 438 0
 908 0202 099B     		ldr	r3, [sp, #36]
 909 0204 0893     		str	r3, [sp, #32]
 910              		.loc 1 439 0
 911 0206 099B     		ldr	r3, [sp, #36]
 912 0208 1B68     		ldr	r3, [r3, #0]	@ unaligned
 913 020a 0793     		str	r3, [sp, #28]
 914              	.L50:
 915              		.loc 1 432 0 discriminator 1
 916 020c 079B     		ldr	r3, [sp, #28]
 917 020e 002B     		cmp	r3, #0
 918 0210 E8D1     		bne	.L53
 919              	.L52:
 920              		.loc 1 443 0
 921 0212 069B     		ldr	r3, [sp, #24]
 922 0214 002B     		cmp	r3, #0
 923 0216 1CD0     		beq	.L48
 924              		.loc 1 444 0
 925 0218 019B     		ldr	r3, [sp, #4]
 926 021a 5B68     		ldr	r3, [r3, #4]
 927 021c 002B     		cmp	r3, #0
 928 021e 01D1     		bne	.L54
 929              		.loc 1 444 0 is_stmt 0 discriminator 1
 930 0220 FFF7FEFF 		bl	port_halt
 931              	.L54:
 932              		.loc 1 445 0 is_stmt 1
 933 0224 019B     		ldr	r3, [sp, #4]
 934 0226 5B68     		ldr	r3, [r3, #4]
 935 0228 5A68     		ldr	r2, [r3, #4]
 936 022a 099B     		ldr	r3, [sp, #36]
 937 022c 9A42     		cmp	r2, r3
 938 022e 01D1     		bne	.L55
 939              		.loc 1 445 0 is_stmt 0 discriminator 1
 940 0230 FFF7FEFF 		bl	port_halt
 941              	.L55:
 942              		.loc 1 447 0 is_stmt 1
 943 0234 099B     		ldr	r3, [sp, #36]
 944 0236 1B68     		ldr	r3, [r3, #0]	@ unaligned
 945 0238 002B     		cmp	r3, #0
 946 023a 01D0     		beq	.L56
 947              		.loc 1 447 0 is_stmt 0 discriminator 1
 948 023c FFF7FEFF 		bl	port_halt
 949              	.L56:
 950              		.loc 1 449 0 is_stmt 1
 951 0240 099B     		ldr	r3, [sp, #36]
 952 0242 DB88     		ldrh	r3, [r3, #6]	@ unaligned
 953 0244 9AB2     		uxth	r2, r3
 954 0246 019B     		ldr	r3, [sp, #4]
 955 0248 9B8B     		ldrh	r3, [r3, #28]
 956 024a 9A42     		cmp	r2, r3
 957 024c 01D0     		beq	.L48
 958              		.loc 1 449 0 is_stmt 0 discriminator 1
 959 024e FFF7FEFF 		bl	port_halt
 960              	.L48:
 961              		.loc 1 457 0 is_stmt 1
 962 0252 069B     		ldr	r3, [sp, #24]
 963 0254 1AE0     		b	.L57
ARM GAS  /tmp/ccRYQxIv.s 			page 18


 964              	.L47:
 965              		.loc 1 460 0
 966 0256 4FF00003 		mov	r3, #0
 967 025a 17E0     		b	.L57
 968              	.L58:
 969              		.loc 1 377 0
 970 025c 00BF     		nop
 971 025e 00E0     		b	.L36
 972              	.L59:
 973              		.loc 1 381 0
 974 0260 00BF     		nop
 975              	.L36:
 976              		.loc 1 463 0
 977 0262 40F20003 		movw	r3, #:lower16:ip_reass_pbufcount
 978 0266 C0F20003 		movt	r3, #:upper16:ip_reass_pbufcount
 979 026a 1C88     		ldrh	r4, [r3, #0]
 980 026c 0098     		ldr	r0, [sp, #0]
 981 026e FFF7FEFF 		bl	pbuf_clen
 982 0272 0346     		mov	r3, r0
 983 0274 E31A     		subs	r3, r4, r3
 984 0276 9AB2     		uxth	r2, r3
 985 0278 40F20003 		movw	r3, #:lower16:ip_reass_pbufcount
 986 027c C0F20003 		movt	r3, #:upper16:ip_reass_pbufcount
 987 0280 1A80     		strh	r2, [r3, #0]	@ movhi
 988              		.loc 1 464 0
 989 0282 0098     		ldr	r0, [sp, #0]
 990 0284 FFF7FEFF 		bl	pbuf_free
 991              		.loc 1 465 0
 992 0288 4FF00003 		mov	r3, #0
 993              	.L57:
 994              		.loc 1 467 0
 995 028c 1846     		mov	r0, r3
 996 028e 0AB0     		add	sp, sp, #40
 997 0290 10BD     		pop	{r4, pc}
 998              		.cfi_endproc
 999              	.LFE12:
 1000              		.size	ip_reass_chain_frag_into_datagram_and_validate, .-ip_reass_chain_frag_into_datagram_and_vali
 1001 0292 00BFAFF3 		.section	.text.ip_reass,"ax",%progbits
 1001      0080AFF3 
 1001      0080AFF3 
 1001      0080
 1002              		.align	2
 1003              		.p2align 4,,15
 1004              		.global	ip_reass
 1005              		.thumb
 1006              		.thumb_func
 1007              		.type	ip_reass, %function
 1008              	ip_reass:
 1009              	.LFB13:
 1010              		.loc 1 477 0
 1011              		.cfi_startproc
 1012              		@ args = 0, pretend = 0, frame = 40
 1013              		@ frame_needed = 0, uses_anonymous_args = 0
 1014 0000 10B5     		push	{r4, lr}
 1015              	.LCFI12:
 1016              		.cfi_def_cfa_offset 8
 1017              		.cfi_offset 14, -4
ARM GAS  /tmp/ccRYQxIv.s 			page 19


 1018              		.cfi_offset 4, -8
 1019 0002 8AB0     		sub	sp, sp, #40
 1020              	.LCFI13:
 1021              		.cfi_def_cfa_offset 48
 1022 0004 0190     		str	r0, [sp, #4]
 1023              		.loc 1 484 0
 1024 0006 4FF00003 		mov	r3, #0
 1025 000a 0793     		str	r3, [sp, #28]
 1026              		.loc 1 486 0
 1027 000c 40F20003 		movw	r3, #:lower16:lwip_stats
 1028 0010 C0F20003 		movt	r3, #:upper16:lwip_stats
 1029 0014 5B8E     		ldrh	r3, [r3, #50]
 1030 0016 03F10103 		add	r3, r3, #1
 1031 001a 9AB2     		uxth	r2, r3
 1032 001c 40F20003 		movw	r3, #:lower16:lwip_stats
 1033 0020 C0F20003 		movt	r3, #:upper16:lwip_stats
 1034 0024 5A86     		strh	r2, [r3, #50]	@ movhi
 1035              		.loc 1 489 0
 1036 0026 019B     		ldr	r3, [sp, #4]
 1037 0028 5B68     		ldr	r3, [r3, #4]
 1038 002a 0693     		str	r3, [sp, #24]
 1039              		.loc 1 491 0
 1040 002c 069B     		ldr	r3, [sp, #24]
 1041 002e 1B88     		ldrh	r3, [r3, #0]	@ unaligned
 1042 0030 9BB2     		uxth	r3, r3
 1043 0032 1846     		mov	r0, r3
 1044 0034 FFF7FEFF 		bl	lwip_ntohs
 1045 0038 0346     		mov	r3, r0
 1046 003a 4FEA1323 		lsr	r3, r3, #8
 1047 003e 9BB2     		uxth	r3, r3
 1048 0040 03F00F03 		and	r3, r3, #15
 1049 0044 4FEA8303 		lsl	r3, r3, #2
 1050 0048 142B     		cmp	r3, #20
 1051 004a 0FD0     		beq	.L61
 1052              		.loc 1 493 0
 1053 004c 40F20003 		movw	r3, #:lower16:lwip_stats
 1054 0050 C0F20003 		movt	r3, #:upper16:lwip_stats
 1055 0054 B3F84430 		ldrh	r3, [r3, #68]
 1056 0058 03F10103 		add	r3, r3, #1
 1057 005c 9AB2     		uxth	r2, r3
 1058 005e 40F20003 		movw	r3, #:lower16:lwip_stats
 1059 0062 C0F20003 		movt	r3, #:upper16:lwip_stats
 1060 0066 A3F84420 		strh	r2, [r3, #68]	@ movhi
 1061              		.loc 1 494 0
 1062 006a 60E1     		b	.L62
 1063              	.L61:
 1064              		.loc 1 497 0
 1065 006c 069B     		ldr	r3, [sp, #24]
 1066 006e DB88     		ldrh	r3, [r3, #6]	@ unaligned
 1067 0070 9BB2     		uxth	r3, r3
 1068 0072 1846     		mov	r0, r3
 1069 0074 FFF7FEFF 		bl	lwip_ntohs
 1070 0078 0346     		mov	r3, r0
 1071 007a 4FEAC343 		lsl	r3, r3, #19
 1072 007e 4FEAD343 		lsr	r3, r3, #19
 1073 0082 9BB2     		uxth	r3, r3
 1074 0084 4FEAC303 		lsl	r3, r3, #3
ARM GAS  /tmp/ccRYQxIv.s 			page 20


 1075 0088 ADF81630 		strh	r3, [sp, #22]	@ movhi
 1076              		.loc 1 498 0
 1077 008c 069B     		ldr	r3, [sp, #24]
 1078 008e 5B88     		ldrh	r3, [r3, #2]	@ unaligned
 1079 0090 9BB2     		uxth	r3, r3
 1080 0092 1846     		mov	r0, r3
 1081 0094 FFF7FEFF 		bl	lwip_ntohs
 1082 0098 0346     		mov	r3, r0
 1083 009a 1C46     		mov	r4, r3
 1084 009c 069B     		ldr	r3, [sp, #24]
 1085 009e 1B88     		ldrh	r3, [r3, #0]	@ unaligned
 1086 00a0 9BB2     		uxth	r3, r3
 1087 00a2 1846     		mov	r0, r3
 1088 00a4 FFF7FEFF 		bl	lwip_ntohs
 1089 00a8 0346     		mov	r3, r0
 1090 00aa 4FEA1323 		lsr	r3, r3, #8
 1091 00ae 9BB2     		uxth	r3, r3
 1092 00b0 03F00F03 		and	r3, r3, #15
 1093 00b4 9BB2     		uxth	r3, r3
 1094 00b6 1A46     		mov	r2, r3	@ movhi
 1095 00b8 4FEA8232 		lsl	r2, r2, #14
 1096 00bc D31A     		subs	r3, r2, r3
 1097 00be 4FEA8303 		lsl	r3, r3, #2
 1098 00c2 9BB2     		uxth	r3, r3
 1099 00c4 E318     		adds	r3, r4, r3
 1100 00c6 ADF81430 		strh	r3, [sp, #20]	@ movhi
 1101              		.loc 1 501 0
 1102 00ca 0198     		ldr	r0, [sp, #4]
 1103 00cc FFF7FEFF 		bl	pbuf_clen
 1104 00d0 0346     		mov	r3, r0
 1105 00d2 8DF81330 		strb	r3, [sp, #19]
 1106              		.loc 1 502 0
 1107 00d6 40F20003 		movw	r3, #:lower16:ip_reass_pbufcount
 1108 00da C0F20003 		movt	r3, #:upper16:ip_reass_pbufcount
 1109 00de 1B88     		ldrh	r3, [r3, #0]
 1110 00e0 1A46     		mov	r2, r3
 1111 00e2 9DF81330 		ldrb	r3, [sp, #19]	@ zero_extendqisi2
 1112 00e6 D318     		adds	r3, r2, r3
 1113 00e8 0A2B     		cmp	r3, #10
 1114 00ea 21DD     		ble	.L63
 1115              		.loc 1 504 0
 1116 00ec 9DF81330 		ldrb	r3, [sp, #19]	@ zero_extendqisi2
 1117 00f0 0698     		ldr	r0, [sp, #24]
 1118 00f2 1946     		mov	r1, r3
 1119 00f4 FFF7FEFF 		bl	ip_reass_remove_oldest_datagram
 1120 00f8 0346     		mov	r3, r0
 1121 00fa 002B     		cmp	r3, #0
 1122 00fc 0AD0     		beq	.L64
 1123              		.loc 1 505 0 discriminator 1
 1124 00fe 40F20003 		movw	r3, #:lower16:ip_reass_pbufcount
 1125 0102 C0F20003 		movt	r3, #:upper16:ip_reass_pbufcount
 1126 0106 1B88     		ldrh	r3, [r3, #0]
 1127 0108 1A46     		mov	r2, r3
 1128 010a 9DF81330 		ldrb	r3, [sp, #19]	@ zero_extendqisi2
 1129 010e D318     		adds	r3, r2, r3
 1130              		.loc 1 504 0 discriminator 1
 1131 0110 0A2B     		cmp	r3, #10
ARM GAS  /tmp/ccRYQxIv.s 			page 21


 1132 0112 0DDD     		ble	.L63
 1133              	.L64:
 1134              		.loc 1 511 0
 1135 0114 40F20003 		movw	r3, #:lower16:lwip_stats
 1136 0118 C0F20003 		movt	r3, #:upper16:lwip_stats
 1137 011c 9B8F     		ldrh	r3, [r3, #60]
 1138 011e 03F10103 		add	r3, r3, #1
 1139 0122 9AB2     		uxth	r2, r3
 1140 0124 40F20003 		movw	r3, #:lower16:lwip_stats
 1141 0128 C0F20003 		movt	r3, #:upper16:lwip_stats
 1142 012c 9A87     		strh	r2, [r3, #60]	@ movhi
 1143              		.loc 1 514 0
 1144 012e FEE0     		b	.L62
 1145              	.L63:
 1146              		.loc 1 520 0
 1147 0130 40F20003 		movw	r3, #:lower16:reassdatagrams
 1148 0134 C0F20003 		movt	r3, #:upper16:reassdatagrams
 1149 0138 1B68     		ldr	r3, [r3, #0]
 1150 013a 0893     		str	r3, [sp, #32]
 1151 013c 27E0     		b	.L65
 1152              	.L68:
 1153              		.loc 1 524 0
 1154 013e 089B     		ldr	r3, [sp, #32]
 1155 0140 5A69     		ldr	r2, [r3, #20]
 1156 0142 069B     		ldr	r3, [sp, #24]
 1157 0144 DB68     		ldr	r3, [r3, #12]	@ unaligned
 1158 0146 9A42     		cmp	r2, r3
 1159 0148 1CD1     		bne	.L66
 1160              		.loc 1 524 0 is_stmt 0 discriminator 1
 1161 014a 089B     		ldr	r3, [sp, #32]
 1162 014c 9A69     		ldr	r2, [r3, #24]
 1163 014e 069B     		ldr	r3, [sp, #24]
 1164 0150 1B69     		ldr	r3, [r3, #16]	@ unaligned
 1165 0152 9A42     		cmp	r2, r3
 1166 0154 16D1     		bne	.L66
 1167 0156 089B     		ldr	r3, [sp, #32]
 1168 0158 9A89     		ldrh	r2, [r3, #12]
 1169 015a 069B     		ldr	r3, [sp, #24]
 1170 015c 9B88     		ldrh	r3, [r3, #4]	@ unaligned
 1171 015e 9BB2     		uxth	r3, r3
 1172 0160 9A42     		cmp	r2, r3
 1173 0162 0FD1     		bne	.L66
 1174              		.loc 1 527 0 is_stmt 1
 1175 0164 40F20003 		movw	r3, #:lower16:lwip_stats
 1176 0168 C0F20003 		movt	r3, #:upper16:lwip_stats
 1177 016c B3F84630 		ldrh	r3, [r3, #70]
 1178 0170 03F10103 		add	r3, r3, #1
 1179 0174 9AB2     		uxth	r2, r3
 1180 0176 40F20003 		movw	r3, #:lower16:lwip_stats
 1181 017a C0F20003 		movt	r3, #:upper16:lwip_stats
 1182 017e A3F84620 		strh	r2, [r3, #70]	@ movhi
 1183              		.loc 1 528 0
 1184 0182 07E0     		b	.L67
 1185              	.L66:
 1186              		.loc 1 530 0
 1187 0184 089B     		ldr	r3, [sp, #32]
 1188 0186 0793     		str	r3, [sp, #28]
ARM GAS  /tmp/ccRYQxIv.s 			page 22


 1189              		.loc 1 520 0
 1190 0188 089B     		ldr	r3, [sp, #32]
 1191 018a 1B68     		ldr	r3, [r3, #0]
 1192 018c 0893     		str	r3, [sp, #32]
 1193              	.L65:
 1194              		.loc 1 520 0 is_stmt 0 discriminator 1
 1195 018e 089B     		ldr	r3, [sp, #32]
 1196 0190 002B     		cmp	r3, #0
 1197 0192 D4D1     		bne	.L68
 1198              	.L67:
 1199              		.loc 1 533 0 is_stmt 1
 1200 0194 089B     		ldr	r3, [sp, #32]
 1201 0196 002B     		cmp	r3, #0
 1202 0198 0BD1     		bne	.L69
 1203              		.loc 1 535 0
 1204 019a 9DF81330 		ldrb	r3, [sp, #19]	@ zero_extendqisi2
 1205 019e 0698     		ldr	r0, [sp, #24]
 1206 01a0 1946     		mov	r1, r3
 1207 01a2 FFF7FEFF 		bl	ip_reass_enqueue_new_datagram
 1208 01a6 0346     		mov	r3, r0
 1209 01a8 0893     		str	r3, [sp, #32]
 1210              		.loc 1 537 0
 1211 01aa 089B     		ldr	r3, [sp, #32]
 1212 01ac 002B     		cmp	r3, #0
 1213 01ae 26D1     		bne	.L70
 1214              		.loc 1 538 0
 1215 01b0 BDE0     		b	.L62
 1216              	.L69:
 1217              		.loc 1 541 0
 1218 01b2 069B     		ldr	r3, [sp, #24]
 1219 01b4 DB88     		ldrh	r3, [r3, #6]	@ unaligned
 1220 01b6 9BB2     		uxth	r3, r3
 1221 01b8 1846     		mov	r0, r3
 1222 01ba FFF7FEFF 		bl	lwip_ntohs
 1223 01be 0346     		mov	r3, r0
 1224 01c0 4FEAC343 		lsl	r3, r3, #19
 1225 01c4 4FEAD343 		lsr	r3, r3, #19
 1226 01c8 002B     		cmp	r3, #0
 1227 01ca 18D1     		bne	.L70
 1228              		.loc 1 542 0 discriminator 1
 1229 01cc 089B     		ldr	r3, [sp, #32]
 1230 01ce DB89     		ldrh	r3, [r3, #14]
 1231 01d0 1846     		mov	r0, r3
 1232 01d2 FFF7FEFF 		bl	lwip_ntohs
 1233 01d6 0346     		mov	r3, r0
 1234 01d8 4FEAC343 		lsl	r3, r3, #19
 1235 01dc 4FEAD343 		lsr	r3, r3, #19
 1236              		.loc 1 541 0 discriminator 1
 1237 01e0 002B     		cmp	r3, #0
 1238 01e2 0CD0     		beq	.L70
 1239              		.loc 1 547 0
 1240 01e4 089B     		ldr	r3, [sp, #32]
 1241 01e6 03F10802 		add	r2, r3, #8
 1242 01ea 069B     		ldr	r3, [sp, #24]
 1243 01ec 1146     		mov	r1, r2
 1244 01ee 1A46     		mov	r2, r3
 1245 01f0 4FF01403 		mov	r3, #20
ARM GAS  /tmp/ccRYQxIv.s 			page 23


 1246 01f4 0846     		mov	r0, r1
 1247 01f6 1146     		mov	r1, r2
 1248 01f8 1A46     		mov	r2, r3
 1249 01fa FFF7FEFF 		bl	memcpy
 1250              	.L70:
 1251              		.loc 1 552 0
 1252 01fe 9DF81330 		ldrb	r3, [sp, #19]	@ zero_extendqisi2
 1253 0202 9AB2     		uxth	r2, r3
 1254 0204 40F20003 		movw	r3, #:lower16:ip_reass_pbufcount
 1255 0208 C0F20003 		movt	r3, #:upper16:ip_reass_pbufcount
 1256 020c 1B88     		ldrh	r3, [r3, #0]
 1257 020e D318     		adds	r3, r2, r3
 1258 0210 9AB2     		uxth	r2, r3
 1259 0212 40F20003 		movw	r3, #:lower16:ip_reass_pbufcount
 1260 0216 C0F20003 		movt	r3, #:upper16:ip_reass_pbufcount
 1261 021a 1A80     		strh	r2, [r3, #0]	@ movhi
 1262              		.loc 1 558 0
 1263 021c 069B     		ldr	r3, [sp, #24]
 1264 021e DB88     		ldrh	r3, [r3, #6]	@ unaligned
 1265 0220 9BB2     		uxth	r3, r3
 1266 0222 03F02003 		and	r3, r3, #32
 1267 0226 002B     		cmp	r3, #0
 1268 0228 0ED1     		bne	.L71
 1269              		.loc 1 559 0
 1270 022a 089B     		ldr	r3, [sp, #32]
 1271 022c 9B7F     		ldrb	r3, [r3, #30]	@ zero_extendqisi2
 1272 022e 43F00103 		orr	r3, r3, #1
 1273 0232 DAB2     		uxtb	r2, r3
 1274 0234 089B     		ldr	r3, [sp, #32]
 1275 0236 9A77     		strb	r2, [r3, #30]
 1276              		.loc 1 560 0
 1277 0238 BDF81620 		ldrh	r2, [sp, #22]	@ movhi
 1278 023c BDF81430 		ldrh	r3, [sp, #20]	@ movhi
 1279 0240 D318     		adds	r3, r2, r3
 1280 0242 9AB2     		uxth	r2, r3
 1281 0244 089B     		ldr	r3, [sp, #32]
 1282 0246 9A83     		strh	r2, [r3, #28]	@ movhi
 1283              	.L71:
 1284              		.loc 1 567 0
 1285 0248 0898     		ldr	r0, [sp, #32]
 1286 024a 0199     		ldr	r1, [sp, #4]
 1287 024c FFF7FEFF 		bl	ip_reass_chain_frag_into_datagram_and_validate
 1288 0250 0346     		mov	r3, r0
 1289 0252 002B     		cmp	r3, #0
 1290 0254 68D0     		beq	.L72
 1291              		.loc 1 570 0
 1292 0256 089B     		ldr	r3, [sp, #32]
 1293 0258 9B8B     		ldrh	r3, [r3, #28]
 1294 025a 03F11403 		add	r3, r3, #20
 1295 025e 9AB2     		uxth	r2, r3
 1296 0260 089B     		ldr	r3, [sp, #32]
 1297 0262 9A83     		strh	r2, [r3, #28]	@ movhi
 1298              		.loc 1 573 0
 1299 0264 089B     		ldr	r3, [sp, #32]
 1300 0266 5B68     		ldr	r3, [r3, #4]
 1301 0268 5B68     		ldr	r3, [r3, #4]
 1302 026a 1B68     		ldr	r3, [r3, #0]	@ unaligned
ARM GAS  /tmp/ccRYQxIv.s 			page 24


 1303 026c 0993     		str	r3, [sp, #36]
 1304              		.loc 1 576 0
 1305 026e 089B     		ldr	r3, [sp, #32]
 1306 0270 5B68     		ldr	r3, [r3, #4]
 1307 0272 5B68     		ldr	r3, [r3, #4]
 1308 0274 0693     		str	r3, [sp, #24]
 1309              		.loc 1 577 0
 1310 0276 089B     		ldr	r3, [sp, #32]
 1311 0278 03F10803 		add	r3, r3, #8
 1312 027c 069A     		ldr	r2, [sp, #24]
 1313 027e 1146     		mov	r1, r2
 1314 0280 1A46     		mov	r2, r3
 1315 0282 4FF01403 		mov	r3, #20
 1316 0286 0846     		mov	r0, r1
 1317 0288 1146     		mov	r1, r2
 1318 028a 1A46     		mov	r2, r3
 1319 028c FFF7FEFF 		bl	memcpy
 1320              		.loc 1 578 0
 1321 0290 089B     		ldr	r3, [sp, #32]
 1322 0292 9B8B     		ldrh	r3, [r3, #28]
 1323 0294 1846     		mov	r0, r3
 1324 0296 FFF7FEFF 		bl	lwip_htons
 1325 029a 0346     		mov	r3, r0
 1326 029c 1A46     		mov	r2, r3
 1327 029e 069B     		ldr	r3, [sp, #24]
 1328 02a0 5A80     		strh	r2, [r3, #2]	@ unaligned
 1329              		.loc 1 579 0
 1330 02a2 069B     		ldr	r3, [sp, #24]
 1331 02a4 4FF00002 		mov	r2, #0
 1332 02a8 9A71     		strb	r2, [r3, #6]
 1333 02aa 4FF00002 		mov	r2, #0
 1334 02ae DA71     		strb	r2, [r3, #7]
 1335              		.loc 1 580 0
 1336 02b0 069B     		ldr	r3, [sp, #24]
 1337 02b2 4FF00002 		mov	r2, #0
 1338 02b6 9A72     		strb	r2, [r3, #10]
 1339 02b8 4FF00002 		mov	r2, #0
 1340 02bc DA72     		strb	r2, [r3, #11]
 1341              		.loc 1 582 0
 1342 02be 0698     		ldr	r0, [sp, #24]
 1343 02c0 4FF01401 		mov	r1, #20
 1344 02c4 FFF7FEFF 		bl	inet_chksum
 1345 02c8 0346     		mov	r3, r0
 1346 02ca 1A46     		mov	r2, r3
 1347 02cc 069B     		ldr	r3, [sp, #24]
 1348 02ce 5A81     		strh	r2, [r3, #10]	@ unaligned
 1349              		.loc 1 584 0
 1350 02d0 089B     		ldr	r3, [sp, #32]
 1351 02d2 5B68     		ldr	r3, [r3, #4]
 1352 02d4 0193     		str	r3, [sp, #4]
 1353              		.loc 1 587 0
 1354 02d6 0EE0     		b	.L73
 1355              	.L74:
 1356              		.loc 1 588 0
 1357 02d8 099B     		ldr	r3, [sp, #36]
 1358 02da 5B68     		ldr	r3, [r3, #4]
 1359 02dc 0393     		str	r3, [sp, #12]
ARM GAS  /tmp/ccRYQxIv.s 			page 25


 1360              		.loc 1 591 0
 1361 02de 0998     		ldr	r0, [sp, #36]
 1362 02e0 6FF01301 		mvn	r1, #19
 1363 02e4 FFF7FEFF 		bl	pbuf_header
 1364              		.loc 1 592 0
 1365 02e8 0198     		ldr	r0, [sp, #4]
 1366 02ea 0999     		ldr	r1, [sp, #36]
 1367 02ec FFF7FEFF 		bl	pbuf_cat
 1368              		.loc 1 593 0
 1369 02f0 039B     		ldr	r3, [sp, #12]
 1370 02f2 1B68     		ldr	r3, [r3, #0]	@ unaligned
 1371 02f4 0993     		str	r3, [sp, #36]
 1372              	.L73:
 1373              		.loc 1 587 0 discriminator 1
 1374 02f6 099B     		ldr	r3, [sp, #36]
 1375 02f8 002B     		cmp	r3, #0
 1376 02fa EDD1     		bne	.L74
 1377              		.loc 1 596 0
 1378 02fc 0898     		ldr	r0, [sp, #32]
 1379 02fe 0799     		ldr	r1, [sp, #28]
 1380 0300 FFF7FEFF 		bl	ip_reass_dequeue_datagram
 1381              		.loc 1 599 0
 1382 0304 40F20003 		movw	r3, #:lower16:ip_reass_pbufcount
 1383 0308 C0F20003 		movt	r3, #:upper16:ip_reass_pbufcount
 1384 030c 1C88     		ldrh	r4, [r3, #0]
 1385 030e 0198     		ldr	r0, [sp, #4]
 1386 0310 FFF7FEFF 		bl	pbuf_clen
 1387 0314 0346     		mov	r3, r0
 1388 0316 E31A     		subs	r3, r4, r3
 1389 0318 9AB2     		uxth	r2, r3
 1390 031a 40F20003 		movw	r3, #:lower16:ip_reass_pbufcount
 1391 031e C0F20003 		movt	r3, #:upper16:ip_reass_pbufcount
 1392 0322 1A80     		strh	r2, [r3, #0]	@ movhi
 1393              		.loc 1 602 0
 1394 0324 019B     		ldr	r3, [sp, #4]
 1395 0326 14E0     		b	.L75
 1396              	.L72:
 1397              		.loc 1 606 0
 1398 0328 4FF00003 		mov	r3, #0
 1399 032c 11E0     		b	.L75
 1400              	.L62:
 1401              		.loc 1 610 0
 1402 032e 40F20003 		movw	r3, #:lower16:lwip_stats
 1403 0332 C0F20003 		movt	r3, #:upper16:lwip_stats
 1404 0336 DB8E     		ldrh	r3, [r3, #54]
 1405 0338 03F10103 		add	r3, r3, #1
 1406 033c 9AB2     		uxth	r2, r3
 1407 033e 40F20003 		movw	r3, #:lower16:lwip_stats
 1408 0342 C0F20003 		movt	r3, #:upper16:lwip_stats
 1409 0346 DA86     		strh	r2, [r3, #54]	@ movhi
 1410              		.loc 1 611 0
 1411 0348 0198     		ldr	r0, [sp, #4]
 1412 034a FFF7FEFF 		bl	pbuf_free
 1413              		.loc 1 612 0
 1414 034e 4FF00003 		mov	r3, #0
 1415              	.L75:
 1416              		.loc 1 613 0
ARM GAS  /tmp/ccRYQxIv.s 			page 26


 1417 0352 1846     		mov	r0, r3
 1418 0354 0AB0     		add	sp, sp, #40
 1419 0356 10BD     		pop	{r4, pc}
 1420              		.cfi_endproc
 1421              	.LFE13:
 1422              		.size	ip_reass, .-ip_reass
 1423 0358 AFF30080 		.section	.text.ip_frag_alloc_pbuf_custom_ref,"ax",%progbits
 1423      AFF30080 
 1424              		.align	2
 1425              		.p2align 4,,15
 1426              		.thumb
 1427              		.thumb_func
 1428              		.type	ip_frag_alloc_pbuf_custom_ref, %function
 1429              	ip_frag_alloc_pbuf_custom_ref:
 1430              	.LFB14:
 1431              		.loc 1 625 0
 1432              		.cfi_startproc
 1433              		@ args = 0, pretend = 0, frame = 0
 1434              		@ frame_needed = 0, uses_anonymous_args = 0
 1435 0000 08B5     		push	{r3, lr}
 1436              	.LCFI14:
 1437              		.cfi_def_cfa_offset 8
 1438              		.cfi_offset 14, -4
 1439              		.cfi_offset 3, -8
 1440              		.loc 1 626 0
 1441 0002 4FF00600 		mov	r0, #6
 1442 0006 FFF7FEFF 		bl	memp_malloc
 1443 000a 0346     		mov	r3, r0
 1444              		.loc 1 627 0
 1445 000c 1846     		mov	r0, r3
 1446 000e 08BD     		pop	{r3, pc}
 1447              		.cfi_endproc
 1448              	.LFE14:
 1449              		.size	ip_frag_alloc_pbuf_custom_ref, .-ip_frag_alloc_pbuf_custom_ref
 1450              		.section	.text.ip_frag_free_pbuf_custom_ref,"ax",%progbits
 1451              		.align	2
 1452              		.p2align 4,,15
 1453              		.thumb
 1454              		.thumb_func
 1455              		.type	ip_frag_free_pbuf_custom_ref, %function
 1456              	ip_frag_free_pbuf_custom_ref:
 1457              	.LFB15:
 1458              		.loc 1 632 0
 1459              		.cfi_startproc
 1460              		@ args = 0, pretend = 0, frame = 8
 1461              		@ frame_needed = 0, uses_anonymous_args = 0
 1462 0000 00B5     		push	{lr}
 1463              	.LCFI15:
 1464              		.cfi_def_cfa_offset 4
 1465              		.cfi_offset 14, -4
 1466 0002 83B0     		sub	sp, sp, #12
 1467              	.LCFI16:
 1468              		.cfi_def_cfa_offset 16
 1469 0004 0190     		str	r0, [sp, #4]
 1470              		.loc 1 633 0
 1471 0006 019B     		ldr	r3, [sp, #4]
 1472 0008 002B     		cmp	r3, #0
ARM GAS  /tmp/ccRYQxIv.s 			page 27


 1473 000a 01D1     		bne	.L78
 1474              		.loc 1 633 0 is_stmt 0 discriminator 1
 1475 000c FFF7FEFF 		bl	port_halt
 1476              	.L78:
 1477              		.loc 1 634 0 is_stmt 1
 1478 0010 4FF00600 		mov	r0, #6
 1479 0014 0199     		ldr	r1, [sp, #4]
 1480 0016 FFF7FEFF 		bl	memp_free
 1481              		.loc 1 635 0
 1482 001a 03B0     		add	sp, sp, #12
 1483 001c 00BD     		pop	{pc}
 1484              		.cfi_endproc
 1485              	.LFE15:
 1486              		.size	ip_frag_free_pbuf_custom_ref, .-ip_frag_free_pbuf_custom_ref
 1487 001e 00BF     		.section	.text.ipfrag_free_pbuf_custom,"ax",%progbits
 1488              		.align	2
 1489              		.p2align 4,,15
 1490              		.thumb
 1491              		.thumb_func
 1492              		.type	ipfrag_free_pbuf_custom, %function
 1493              	ipfrag_free_pbuf_custom:
 1494              	.LFB16:
 1495              		.loc 1 641 0
 1496              		.cfi_startproc
 1497              		@ args = 0, pretend = 0, frame = 16
 1498              		@ frame_needed = 0, uses_anonymous_args = 0
 1499 0000 00B5     		push	{lr}
 1500              	.LCFI17:
 1501              		.cfi_def_cfa_offset 4
 1502              		.cfi_offset 14, -4
 1503 0002 85B0     		sub	sp, sp, #20
 1504              	.LCFI18:
 1505              		.cfi_def_cfa_offset 24
 1506 0004 0190     		str	r0, [sp, #4]
 1507              		.loc 1 642 0
 1508 0006 019B     		ldr	r3, [sp, #4]
 1509 0008 0393     		str	r3, [sp, #12]
 1510              		.loc 1 643 0
 1511 000a 039B     		ldr	r3, [sp, #12]
 1512 000c 002B     		cmp	r3, #0
 1513 000e 01D1     		bne	.L80
 1514              		.loc 1 643 0 is_stmt 0 discriminator 1
 1515 0010 FFF7FEFF 		bl	port_halt
 1516              	.L80:
 1517              		.loc 1 644 0 is_stmt 1
 1518 0014 039A     		ldr	r2, [sp, #12]
 1519 0016 019B     		ldr	r3, [sp, #4]
 1520 0018 9A42     		cmp	r2, r3
 1521 001a 01D0     		beq	.L81
 1522              		.loc 1 644 0 is_stmt 0 discriminator 1
 1523 001c FFF7FEFF 		bl	port_halt
 1524              	.L81:
 1525              		.loc 1 645 0 is_stmt 1
 1526 0020 039B     		ldr	r3, [sp, #12]
 1527 0022 5B69     		ldr	r3, [r3, #20]
 1528 0024 002B     		cmp	r3, #0
 1529 0026 04D0     		beq	.L82
ARM GAS  /tmp/ccRYQxIv.s 			page 28


 1530              		.loc 1 646 0
 1531 0028 039B     		ldr	r3, [sp, #12]
 1532 002a 5B69     		ldr	r3, [r3, #20]
 1533 002c 1846     		mov	r0, r3
 1534 002e FFF7FEFF 		bl	pbuf_free
 1535              	.L82:
 1536              		.loc 1 648 0
 1537 0032 0398     		ldr	r0, [sp, #12]
 1538 0034 FFF7FEFF 		bl	ip_frag_free_pbuf_custom_ref
 1539              		.loc 1 649 0
 1540 0038 05B0     		add	sp, sp, #20
 1541 003a 00BD     		pop	{pc}
 1542              		.cfi_endproc
 1543              	.LFE16:
 1544              		.size	ipfrag_free_pbuf_custom, .-ipfrag_free_pbuf_custom
 1545 003c AFF30080 		.section	.text.ip_frag,"ax",%progbits
 1546              		.align	2
 1547              		.p2align 4,,15
 1548              		.global	ip_frag
 1549              		.thumb
 1550              		.thumb_func
 1551              		.type	ip_frag, %function
 1552              	ip_frag:
 1553              	.LFB17:
 1554              		.loc 1 668 0
 1555              		.cfi_startproc
 1556              		@ args = 0, pretend = 0, frame = 64
 1557              		@ frame_needed = 0, uses_anonymous_args = 0
 1558 0000 00B5     		push	{lr}
 1559              	.LCFI19:
 1560              		.cfi_def_cfa_offset 4
 1561              		.cfi_offset 14, -4
 1562 0002 93B0     		sub	sp, sp, #76
 1563              	.LCFI20:
 1564              		.cfi_def_cfa_offset 80
 1565 0004 0590     		str	r0, [sp, #20]
 1566 0006 0491     		str	r1, [sp, #16]
 1567 0008 0392     		str	r2, [sp, #12]
 1568              		.loc 1 681 0
 1569 000a 049B     		ldr	r3, [sp, #16]
 1570 000c 1B8C     		ldrh	r3, [r3, #32]	@ movhi
 1571 000e ADF83A30 		strh	r3, [sp, #58]	@ movhi
 1572              		.loc 1 684 0
 1573 0012 4FF01403 		mov	r3, #20
 1574 0016 ADF84230 		strh	r3, [sp, #66]	@ movhi
 1575              		.loc 1 687 0
 1576 001a 4FF00003 		mov	r3, #0
 1577 001e ADF83E30 		strh	r3, [sp, #62]	@ movhi
 1578              		.loc 1 709 0
 1579 0022 059B     		ldr	r3, [sp, #20]
 1580 0024 5B68     		ldr	r3, [r3, #4]
 1581 0026 0D93     		str	r3, [sp, #52]
 1582              		.loc 1 710 0
 1583 0028 0D9B     		ldr	r3, [sp, #52]
 1584 002a 0C93     		str	r3, [sp, #48]
 1585              		.loc 1 714 0
 1586 002c 0C9B     		ldr	r3, [sp, #48]
ARM GAS  /tmp/ccRYQxIv.s 			page 29


 1587 002e DB88     		ldrh	r3, [r3, #6]	@ unaligned
 1588 0030 9BB2     		uxth	r3, r3
 1589 0032 1846     		mov	r0, r3
 1590 0034 FFF7FEFF 		bl	lwip_ntohs
 1591 0038 0346     		mov	r3, r0
 1592 003a ADF84030 		strh	r3, [sp, #64]	@ movhi
 1593              		.loc 1 715 0
 1594 003e BDF84030 		ldrh	r3, [sp, #64]	@ movhi
 1595 0042 4FEAC343 		lsl	r3, r3, #19
 1596 0046 4FEAD343 		lsr	r3, r3, #19
 1597 004a ADF84430 		strh	r3, [sp, #68]	@ movhi
 1598              		.loc 1 716 0
 1599 004e BDF84030 		ldrh	r3, [sp, #64]	@ movhi
 1600 0052 03F40053 		and	r3, r3, #8192
 1601 0056 ADF82E30 		strh	r3, [sp, #46]	@ movhi
 1602              		.loc 1 718 0
 1603 005a 059B     		ldr	r3, [sp, #20]
 1604 005c 1B89     		ldrh	r3, [r3, #8]
 1605 005e A3F11403 		sub	r3, r3, #20
 1606 0062 ADF84630 		strh	r3, [sp, #70]	@ movhi
 1607              		.loc 1 720 0
 1608 0066 BDF83A30 		ldrh	r3, [sp, #58]
 1609 006a A3F11403 		sub	r3, r3, #20
 1610 006e 002B     		cmp	r3, #0
 1611 0070 01DA     		bge	.L84
 1612 0072 03F10703 		add	r3, r3, #7
 1613              	.L84:
 1614 0076 4FEAE303 		asr	r3, r3, #3
 1615 007a ADF82C30 		strh	r3, [sp, #44]	@ movhi
 1616              		.loc 1 722 0
 1617 007e 13E1     		b	.L85
 1618              	.L97:
 1619              		.loc 1 723 0
 1620 0080 BDF84620 		ldrh	r2, [sp, #70]
 1621 0084 BDF83A30 		ldrh	r3, [sp, #58]
 1622 0088 A3F11403 		sub	r3, r3, #20
 1623 008c 9A42     		cmp	r2, r3
 1624 008e CCBF     		ite	gt
 1625 0090 0023     		movgt	r3, #0
 1626 0092 0123     		movle	r3, #1
 1627 0094 ADF82A30 		strh	r3, [sp, #42]	@ movhi
 1628              		.loc 1 726 0
 1629 0098 BDF84430 		ldrh	r3, [sp, #68]	@ movhi
 1630 009c 4FEAC343 		lsl	r3, r3, #19
 1631 00a0 4FEAD343 		lsr	r3, r3, #19
 1632 00a4 9AB2     		uxth	r2, r3
 1633 00a6 BDF82E30 		ldrh	r3, [sp, #46]	@ movhi
 1634 00aa 1343     		orrs	r3, r3, r2
 1635 00ac ADF84030 		strh	r3, [sp, #64]	@ movhi
 1636              		.loc 1 727 0
 1637 00b0 BDF82A30 		ldrh	r3, [sp, #42]
 1638 00b4 002B     		cmp	r3, #0
 1639 00b6 05D1     		bne	.L86
 1640              		.loc 1 728 0
 1641 00b8 BDF84030 		ldrh	r3, [sp, #64]	@ movhi
 1642 00bc 43F40053 		orr	r3, r3, #8192
 1643 00c0 ADF84030 		strh	r3, [sp, #64]	@ movhi
ARM GAS  /tmp/ccRYQxIv.s 			page 30


 1644              	.L86:
 1645              		.loc 1 732 0
 1646 00c4 BDF82A30 		ldrh	r3, [sp, #42]
 1647 00c8 002B     		cmp	r3, #0
 1648 00ca 05D1     		bne	.L87
 1649              		.loc 1 732 0 is_stmt 0 discriminator 1
 1650 00cc BDF82C30 		ldrh	r3, [sp, #44]	@ movhi
 1651 00d0 4FEAC303 		lsl	r3, r3, #3
 1652 00d4 9BB2     		uxth	r3, r3
 1653 00d6 01E0     		b	.L88
 1654              	.L87:
 1655              		.loc 1 732 0 discriminator 2
 1656 00d8 BDF84630 		ldrh	r3, [sp, #70]
 1657              	.L88:
 1658              		.loc 1 732 0 discriminator 3
 1659 00dc ADF82830 		strh	r3, [sp, #40]	@ movhi
 1660              		.loc 1 759 0 is_stmt 1 discriminator 3
 1661 00e0 4FF00200 		mov	r0, #2
 1662 00e4 4FF01401 		mov	r1, #20
 1663 00e8 4FF00002 		mov	r2, #0
 1664 00ec FFF7FEFF 		bl	pbuf_alloc
 1665 00f0 0346     		mov	r3, r0
 1666 00f2 0993     		str	r3, [sp, #36]
 1667              		.loc 1 760 0 discriminator 3
 1668 00f4 099B     		ldr	r3, [sp, #36]
 1669 00f6 002B     		cmp	r3, #0
 1670 00f8 02D1     		bne	.L89
 1671              		.loc 1 761 0
 1672 00fa 4FF0FF03 		mov	r3, #255
 1673 00fe DAE0     		b	.L90
 1674              	.L89:
 1675              		.loc 1 763 0
 1676 0100 059B     		ldr	r3, [sp, #20]
 1677 0102 5B89     		ldrh	r3, [r3, #10]
 1678 0104 132B     		cmp	r3, #19
 1679 0106 01D8     		bhi	.L91
 1680              		.loc 1 763 0 is_stmt 0 discriminator 1
 1681 0108 FFF7FEFF 		bl	port_halt
 1682              	.L91:
 1683              		.loc 1 765 0 is_stmt 1
 1684 010c 099B     		ldr	r3, [sp, #36]
 1685 010e 5A68     		ldr	r2, [r3, #4]
 1686 0110 0D9B     		ldr	r3, [sp, #52]
 1687 0112 1146     		mov	r1, r2
 1688 0114 1A46     		mov	r2, r3
 1689 0116 4FF01403 		mov	r3, #20
 1690 011a 0846     		mov	r0, r1
 1691 011c 1146     		mov	r1, r2
 1692 011e 1A46     		mov	r2, r3
 1693 0120 FFF7FEFF 		bl	memcpy
 1694              		.loc 1 766 0
 1695 0124 099B     		ldr	r3, [sp, #36]
 1696 0126 5B68     		ldr	r3, [r3, #4]
 1697 0128 0C93     		str	r3, [sp, #48]
 1698              		.loc 1 769 0
 1699 012a 059B     		ldr	r3, [sp, #20]
 1700 012c 5A68     		ldr	r2, [r3, #4]
ARM GAS  /tmp/ccRYQxIv.s 			page 31


 1701 012e BDF84230 		ldrh	r3, [sp, #66]
 1702 0132 D218     		adds	r2, r2, r3
 1703 0134 059B     		ldr	r3, [sp, #20]
 1704 0136 5A60     		str	r2, [r3, #4]
 1705              		.loc 1 770 0
 1706 0138 059B     		ldr	r3, [sp, #20]
 1707 013a 5A89     		ldrh	r2, [r3, #10]
 1708 013c BDF84230 		ldrh	r3, [sp, #66]	@ movhi
 1709 0140 D31A     		subs	r3, r2, r3
 1710 0142 9AB2     		uxth	r2, r3
 1711 0144 059B     		ldr	r3, [sp, #20]
 1712 0146 5A81     		strh	r2, [r3, #10]	@ movhi
 1713              		.loc 1 772 0
 1714 0148 BDF82830 		ldrh	r3, [sp, #40]	@ movhi
 1715 014c ADF83C30 		strh	r3, [sp, #60]	@ movhi
 1716              		.loc 1 773 0
 1717 0150 59E0     		b	.L92
 1718              	.L96:
 1719              	.LBB4:
 1720              		.loc 1 775 0
 1721 0152 059B     		ldr	r3, [sp, #20]
 1722 0154 5A89     		ldrh	r2, [r3, #10]
 1723 0156 BDF83C30 		ldrh	r3, [sp, #60]
 1724 015a 9A42     		cmp	r2, r3
 1725 015c 38BF     		it	cc
 1726 015e 1346     		movcc	r3, r2
 1727 0160 ADF83E30 		strh	r3, [sp, #62]	@ movhi
 1728              		.loc 1 777 0
 1729 0164 BDF83E30 		ldrh	r3, [sp, #62]
 1730 0168 002B     		cmp	r3, #0
 1731 016a 03D1     		bne	.L93
 1732              		.loc 1 778 0
 1733 016c 059B     		ldr	r3, [sp, #20]
 1734 016e 1B68     		ldr	r3, [r3, #0]
 1735 0170 0593     		str	r3, [sp, #20]
 1736              		.loc 1 779 0
 1737 0172 48E0     		b	.L92
 1738              	.L93:
 1739              		.loc 1 781 0
 1740 0174 FFF7FEFF 		bl	ip_frag_alloc_pbuf_custom_ref
 1741 0178 0346     		mov	r3, r0
 1742 017a 0893     		str	r3, [sp, #32]
 1743              		.loc 1 782 0
 1744 017c 089B     		ldr	r3, [sp, #32]
 1745 017e 002B     		cmp	r3, #0
 1746 0180 05D1     		bne	.L94
 1747              		.loc 1 783 0
 1748 0182 0998     		ldr	r0, [sp, #36]
 1749 0184 FFF7FEFF 		bl	pbuf_free
 1750              		.loc 1 784 0
 1751 0188 4FF0FF03 		mov	r3, #255
 1752 018c 93E0     		b	.L90
 1753              	.L94:
 1754              		.loc 1 787 0
 1755 018e 089B     		ldr	r3, [sp, #32]
 1756 0190 059A     		ldr	r2, [sp, #20]
 1757 0192 5168     		ldr	r1, [r2, #4]
ARM GAS  /tmp/ccRYQxIv.s 			page 32


 1758 0194 BDF83E20 		ldrh	r2, [sp, #62]
 1759 0198 0091     		str	r1, [sp, #0]
 1760 019a BDF83E10 		ldrh	r1, [sp, #62]
 1761 019e 0191     		str	r1, [sp, #4]
 1762 01a0 4FF00300 		mov	r0, #3
 1763 01a4 1146     		mov	r1, r2
 1764 01a6 4FF00202 		mov	r2, #2
 1765 01aa FFF7FEFF 		bl	pbuf_alloced_custom
 1766 01ae 0346     		mov	r3, r0
 1767 01b0 0793     		str	r3, [sp, #28]
 1768              		.loc 1 788 0
 1769 01b2 079B     		ldr	r3, [sp, #28]
 1770 01b4 002B     		cmp	r3, #0
 1771 01b6 08D1     		bne	.L95
 1772              		.loc 1 789 0
 1773 01b8 0898     		ldr	r0, [sp, #32]
 1774 01ba FFF7FEFF 		bl	ip_frag_free_pbuf_custom_ref
 1775              		.loc 1 790 0
 1776 01be 0998     		ldr	r0, [sp, #36]
 1777 01c0 FFF7FEFF 		bl	pbuf_free
 1778              		.loc 1 791 0
 1779 01c4 4FF0FF03 		mov	r3, #255
 1780 01c8 75E0     		b	.L90
 1781              	.L95:
 1782              		.loc 1 793 0
 1783 01ca 0598     		ldr	r0, [sp, #20]
 1784 01cc FFF7FEFF 		bl	pbuf_ref
 1785              		.loc 1 794 0
 1786 01d0 089B     		ldr	r3, [sp, #32]
 1787 01d2 059A     		ldr	r2, [sp, #20]
 1788 01d4 5A61     		str	r2, [r3, #20]
 1789              		.loc 1 795 0
 1790 01d6 089A     		ldr	r2, [sp, #32]
 1791 01d8 40F20003 		movw	r3, #:lower16:ipfrag_free_pbuf_custom
 1792 01dc C0F20003 		movt	r3, #:upper16:ipfrag_free_pbuf_custom
 1793 01e0 1361     		str	r3, [r2, #16]
 1794              		.loc 1 800 0
 1795 01e2 0998     		ldr	r0, [sp, #36]
 1796 01e4 0799     		ldr	r1, [sp, #28]
 1797 01e6 FFF7FEFF 		bl	pbuf_cat
 1798              		.loc 1 801 0
 1799 01ea BDF83C20 		ldrh	r2, [sp, #60]	@ movhi
 1800 01ee BDF83E30 		ldrh	r3, [sp, #62]	@ movhi
 1801 01f2 D31A     		subs	r3, r2, r3
 1802 01f4 ADF83C30 		strh	r3, [sp, #60]	@ movhi
 1803              		.loc 1 802 0
 1804 01f8 BDF83C30 		ldrh	r3, [sp, #60]
 1805 01fc 002B     		cmp	r3, #0
 1806 01fe 02D0     		beq	.L92
 1807              		.loc 1 803 0
 1808 0200 059B     		ldr	r3, [sp, #20]
 1809 0202 1B68     		ldr	r3, [r3, #0]
 1810 0204 0593     		str	r3, [sp, #20]
 1811              	.L92:
 1812              	.LBE4:
 1813              		.loc 1 773 0 discriminator 1
 1814 0206 BDF83C30 		ldrh	r3, [sp, #60]
ARM GAS  /tmp/ccRYQxIv.s 			page 33


 1815 020a 002B     		cmp	r3, #0
 1816 020c A1D1     		bne	.L96
 1817              		.loc 1 806 0
 1818 020e BDF83E30 		ldrh	r3, [sp, #62]	@ movhi
 1819 0212 ADF84230 		strh	r3, [sp, #66]	@ movhi
 1820              		.loc 1 811 0
 1821 0216 BDF84030 		ldrh	r3, [sp, #64]
 1822 021a 1846     		mov	r0, r3
 1823 021c FFF7FEFF 		bl	lwip_htons
 1824 0220 0346     		mov	r3, r0
 1825 0222 1A46     		mov	r2, r3
 1826 0224 0C9B     		ldr	r3, [sp, #48]
 1827 0226 DA80     		strh	r2, [r3, #6]	@ unaligned
 1828              		.loc 1 812 0
 1829 0228 BDF82830 		ldrh	r3, [sp, #40]	@ movhi
 1830 022c 03F11403 		add	r3, r3, #20
 1831 0230 9BB2     		uxth	r3, r3
 1832 0232 1846     		mov	r0, r3
 1833 0234 FFF7FEFF 		bl	lwip_htons
 1834 0238 0346     		mov	r3, r0
 1835 023a 1A46     		mov	r2, r3
 1836 023c 0C9B     		ldr	r3, [sp, #48]
 1837 023e 5A80     		strh	r2, [r3, #2]	@ unaligned
 1838              		.loc 1 813 0
 1839 0240 0C9B     		ldr	r3, [sp, #48]
 1840 0242 4FF00002 		mov	r2, #0
 1841 0246 9A72     		strb	r2, [r3, #10]
 1842 0248 4FF00002 		mov	r2, #0
 1843 024c DA72     		strb	r2, [r3, #11]
 1844              		.loc 1 814 0
 1845 024e 0C98     		ldr	r0, [sp, #48]
 1846 0250 4FF01401 		mov	r1, #20
 1847 0254 FFF7FEFF 		bl	inet_chksum
 1848 0258 0346     		mov	r3, r0
 1849 025a 1A46     		mov	r2, r3
 1850 025c 0C9B     		ldr	r3, [sp, #48]
 1851 025e 5A81     		strh	r2, [r3, #10]	@ unaligned
 1852              		.loc 1 842 0
 1853 0260 049B     		ldr	r3, [sp, #16]
 1854 0262 5B69     		ldr	r3, [r3, #20]
 1855 0264 0498     		ldr	r0, [sp, #16]
 1856 0266 0999     		ldr	r1, [sp, #36]
 1857 0268 039A     		ldr	r2, [sp, #12]
 1858 026a 9847     		blx	r3
 1859              		.loc 1 843 0
 1860 026c 40F20003 		movw	r3, #:lower16:lwip_stats
 1861 0270 C0F20003 		movt	r3, #:upper16:lwip_stats
 1862 0274 1B8E     		ldrh	r3, [r3, #48]
 1863 0276 03F10103 		add	r3, r3, #1
 1864 027a 9AB2     		uxth	r2, r3
 1865 027c 40F20003 		movw	r3, #:lower16:lwip_stats
 1866 0280 C0F20003 		movt	r3, #:upper16:lwip_stats
 1867 0284 1A86     		strh	r2, [r3, #48]	@ movhi
 1868              		.loc 1 852 0
 1869 0286 0998     		ldr	r0, [sp, #36]
 1870 0288 FFF7FEFF 		bl	pbuf_free
 1871              		.loc 1 854 0
ARM GAS  /tmp/ccRYQxIv.s 			page 34


 1872 028c BDF84620 		ldrh	r2, [sp, #70]	@ movhi
 1873 0290 BDF82830 		ldrh	r3, [sp, #40]	@ movhi
 1874 0294 D31A     		subs	r3, r2, r3
 1875 0296 ADF84630 		strh	r3, [sp, #70]	@ movhi
 1876              		.loc 1 855 0
 1877 029a BDF84420 		ldrh	r2, [sp, #68]	@ movhi
 1878 029e BDF82C30 		ldrh	r3, [sp, #44]	@ movhi
 1879 02a2 D318     		adds	r3, r2, r3
 1880 02a4 ADF84430 		strh	r3, [sp, #68]	@ movhi
 1881              	.L85:
 1882              		.loc 1 722 0 discriminator 1
 1883 02a8 BDF84630 		ldrh	r3, [sp, #70]
 1884 02ac 002B     		cmp	r3, #0
 1885 02ae 7FF4E7AE 		bne	.L97
 1886              		.loc 1 861 0
 1887 02b2 4FF00003 		mov	r3, #0
 1888              	.L90:
 1889 02b6 5BB2     		sxtb	r3, r3
 1890              		.loc 1 862 0
 1891 02b8 1846     		mov	r0, r3
 1892 02ba 13B0     		add	sp, sp, #76
 1893 02bc 00BD     		pop	{pc}
 1894              		.cfi_endproc
 1895              	.LFE17:
 1896              		.size	ip_frag, .-ip_frag
 1897 02be 00BF     		.text
 1898              	.Letext0:
 1899              		.file 2 "/home/texzk/ChibiStudio/tools/GNU Tools ARM Embedded/4.6 2012q2/bin/../lib/gcc/arm-none-e
 1900              		.file 3 "../../os/various/lwip_bindings/arch/cc.h"
 1901              		.file 4 "../../ext/lwip/src/include/lwip/err.h"
 1902              		.file 5 "../../ext/lwip/src/include/lwip/pbuf.h"
 1903              		.file 6 "../../ext/lwip/src/include/ipv4/lwip/ip_addr.h"
 1904              		.file 7 "../../ext/lwip/src/include/lwip/netif.h"
 1905              		.file 8 "../../ext/lwip/src/include/ipv4/lwip/ip.h"
 1906              		.file 9 "../../ext/lwip/src/include/ipv4/lwip/ip_frag.h"
 1907              		.file 10 "../../ext/lwip/src/include/lwip/mem.h"
 1908              		.file 11 "../../ext/lwip/src/include/lwip/memp.h"
 1909              		.file 12 "../../ext/lwip/src/include/lwip/stats.h"
 1910              		.file 13 "../../ext/lwip/src/include/ipv4/lwip/icmp.h"