ARM GAS  /tmp/cc2D4mTg.s 			page 1


   1              		.syntax unified
   2              		.cpu cortex-m3
   3              		.fpu softvfp
   4              		.eabi_attribute 20, 1
   5              		.eabi_attribute 21, 1
   6              		.eabi_attribute 23, 3
   7              		.eabi_attribute 24, 1
   8              		.eabi_attribute 25, 1
   9              		.eabi_attribute 26, 1
  10              		.eabi_attribute 30, 6
  11              		.eabi_attribute 34, 1
  12              		.eabi_attribute 18, 4
  13              		.thumb
  14              		.file	"mac.c"
  15              		.text
  16              	.Ltext0:
  17              		.cfi_sections	.debug_frame
  18              		.section	.text.macInit,"ax",%progbits
  19              		.align	2
  20              		.p2align 4,,15
  21              		.global	macInit
  22              		.thumb
  23              		.thumb_func
  24              		.type	macInit, %function
  25              	macInit:
  26              	.LFB63:
  27              		.file 1 "../../os/hal/src/mac.c"
  28              		.loc 1 65 0
  29              		.cfi_startproc
  30              		@ args = 0, pretend = 0, frame = 0
  31              		@ frame_needed = 0, uses_anonymous_args = 0
  32 0000 08B5     		push	{r3, lr}
  33              	.LCFI0:
  34              		.cfi_def_cfa_offset 8
  35              		.cfi_offset 14, -4
  36              		.cfi_offset 3, -8
  37              		.loc 1 67 0
  38 0002 FFF7FEFF 		bl	mac_lld_init
  39              		.loc 1 68 0
  40 0006 08BD     		pop	{r3, pc}
  41              		.cfi_endproc
  42              	.LFE63:
  43              		.size	macInit, .-macInit
  44 0008 AFF30080 		.section	.text.macObjectInit,"ax",%progbits
  44      AFF30080 
  45              		.align	2
  46              		.p2align 4,,15
  47              		.global	macObjectInit
  48              		.thumb
  49              		.thumb_func
  50              		.type	macObjectInit, %function
  51              	macObjectInit:
  52              	.LFB64:
  53              		.loc 1 77 0
  54              		.cfi_startproc
  55              		@ args = 0, pretend = 0, frame = 8
  56              		@ frame_needed = 0, uses_anonymous_args = 0
ARM GAS  /tmp/cc2D4mTg.s 			page 2


  57 0000 00B5     		push	{lr}
  58              	.LCFI1:
  59              		.cfi_def_cfa_offset 4
  60              		.cfi_offset 14, -4
  61 0002 83B0     		sub	sp, sp, #12
  62              	.LCFI2:
  63              		.cfi_def_cfa_offset 16
  64 0004 0190     		str	r0, [sp, #4]
  65              		.loc 1 79 0
  66 0006 019B     		ldr	r3, [sp, #4]
  67 0008 4FF00102 		mov	r2, #1
  68 000c 1A70     		strb	r2, [r3, #0]
  69              		.loc 1 80 0
  70 000e 019B     		ldr	r3, [sp, #4]
  71 0010 4FF00002 		mov	r2, #0
  72 0014 5A60     		str	r2, [r3, #4]
  73              		.loc 1 81 0
  74 0016 019B     		ldr	r3, [sp, #4]
  75 0018 03F10803 		add	r3, r3, #8
  76 001c 1846     		mov	r0, r3
  77 001e 4FF00001 		mov	r1, #0
  78 0022 FFF7FEFF 		bl	chSemInit
  79              		.loc 1 82 0
  80 0026 019B     		ldr	r3, [sp, #4]
  81 0028 03F11403 		add	r3, r3, #20
  82 002c 1846     		mov	r0, r3
  83 002e 4FF00001 		mov	r1, #0
  84 0032 FFF7FEFF 		bl	chSemInit
  85              		.loc 1 84 0
  86 0036 019B     		ldr	r3, [sp, #4]
  87 0038 03F12002 		add	r2, r3, #32
  88 003c 019B     		ldr	r3, [sp, #4]
  89 003e 1A62     		str	r2, [r3, #32]
  90              		.loc 1 86 0
  91 0040 03B0     		add	sp, sp, #12
  92 0042 00BD     		pop	{pc}
  93              		.cfi_endproc
  94              	.LFE64:
  95              		.size	macObjectInit, .-macObjectInit
  96 0044 AFF30080 		.section	.rodata
  96      AFF30080 
  96      AFF30080 
  97              		.align	2
  98              	.LC0:
  99 0000 226D6163 		.ascii	"\"macStart\"()\000"
  99      53746172 
  99      74222829 
  99      00
 100 000d 000000   		.align	2
 101              	.LC1:
 102 0010 6D616353 		.ascii	"macStart(), #1\000"
 102      74617274 
 102      28292C20 
 102      233100
 103              		.section	.text.macStart,"ax",%progbits
 104              		.align	2
 105              		.p2align 4,,15
ARM GAS  /tmp/cc2D4mTg.s 			page 3


 106              		.global	macStart
 107              		.thumb
 108              		.thumb_func
 109              		.type	macStart, %function
 110              	macStart:
 111              	.LFB65:
 112              		.loc 1 96 0
 113              		.cfi_startproc
 114              		@ args = 0, pretend = 0, frame = 8
 115              		@ frame_needed = 0, uses_anonymous_args = 0
 116 0000 00B5     		push	{lr}
 117              	.LCFI3:
 118              		.cfi_def_cfa_offset 4
 119              		.cfi_offset 14, -4
 120 0002 83B0     		sub	sp, sp, #12
 121              	.LCFI4:
 122              		.cfi_def_cfa_offset 16
 123 0004 0190     		str	r0, [sp, #4]
 124 0006 0091     		str	r1, [sp, #0]
 125              		.loc 1 98 0
 126 0008 019B     		ldr	r3, [sp, #4]
 127 000a 002B     		cmp	r3, #0
 128 000c 02D0     		beq	.L4
 129              		.loc 1 98 0 is_stmt 0 discriminator 2
 130 000e 009B     		ldr	r3, [sp, #0]
 131 0010 002B     		cmp	r3, #0
 132 0012 05D1     		bne	.L5
 133              	.L4:
 134              		.loc 1 98 0 discriminator 1
 135 0014 40F20000 		movw	r0, #:lower16:.LC0
 136 0018 C0F20000 		movt	r0, #:upper16:.LC0
 137 001c FFF7FEFF 		bl	chDbgPanic
 138              	.L5:
 139              	.LBB2:
 140              		.loc 1 100 0 is_stmt 1
 141 0020 4FF02003 		mov	r3, #32
 142              	@ 100 "../../os/hal/src/mac.c" 1
 143 0024 83F31188 		msr     BASEPRI, r3
 144              	@ 0 "" 2
 145              		.thumb
 146              	.LBE2:
 147 0028 FFF7FEFF 		bl	dbg_check_lock
 148              		.loc 1 101 0
 149 002c 019B     		ldr	r3, [sp, #4]
 150 002e 1B78     		ldrb	r3, [r3, #0]	@ zero_extendqisi2
 151 0030 012B     		cmp	r3, #1
 152 0032 05D0     		beq	.L6
 153              		.loc 1 101 0 is_stmt 0 discriminator 1
 154 0034 40F20000 		movw	r0, #:lower16:.LC1
 155 0038 C0F20000 		movt	r0, #:upper16:.LC1
 156 003c FFF7FEFF 		bl	chDbgPanic
 157              	.L6:
 158              		.loc 1 103 0 is_stmt 1
 159 0040 019B     		ldr	r3, [sp, #4]
 160 0042 009A     		ldr	r2, [sp, #0]
 161 0044 5A60     		str	r2, [r3, #4]
 162              		.loc 1 104 0
ARM GAS  /tmp/cc2D4mTg.s 			page 4


 163 0046 0198     		ldr	r0, [sp, #4]
 164 0048 FFF7FEFF 		bl	mac_lld_start
 165              		.loc 1 105 0
 166 004c 019B     		ldr	r3, [sp, #4]
 167 004e 4FF00202 		mov	r2, #2
 168 0052 1A70     		strb	r2, [r3, #0]
 169              		.loc 1 106 0
 170 0054 FFF7FEFF 		bl	dbg_check_unlock
 171              	.LBB3:
 172 0058 4FF00003 		mov	r3, #0
 173              	@ 106 "../../os/hal/src/mac.c" 1
 174 005c 83F31188 		msr     BASEPRI, r3
 175              	@ 0 "" 2
 176              		.thumb
 177              	.LBE3:
 178              		.loc 1 107 0
 179 0060 03B0     		add	sp, sp, #12
 180 0062 00BD     		pop	{pc}
 181              		.cfi_endproc
 182              	.LFE65:
 183              		.size	macStart, .-macStart
 184 0064 AFF30080 		.section	.rodata
 184      AFF30080 
 184      AFF30080 
 185 001f 00       		.align	2
 186              	.LC2:
 187 0020 226D6163 		.ascii	"\"macStop\"()\000"
 187      53746F70 
 187      22282900 
 188              		.align	2
 189              	.LC3:
 190 002c 6D616353 		.ascii	"macStop(), #1\000"
 190      746F7028 
 190      292C2023 
 190      3100
 191              		.section	.text.macStop,"ax",%progbits
 192              		.align	2
 193              		.p2align 4,,15
 194              		.global	macStop
 195              		.thumb
 196              		.thumb_func
 197              		.type	macStop, %function
 198              	macStop:
 199              	.LFB66:
 200              		.loc 1 116 0
 201              		.cfi_startproc
 202              		@ args = 0, pretend = 0, frame = 8
 203              		@ frame_needed = 0, uses_anonymous_args = 0
 204 0000 00B5     		push	{lr}
 205              	.LCFI5:
 206              		.cfi_def_cfa_offset 4
 207              		.cfi_offset 14, -4
 208 0002 83B0     		sub	sp, sp, #12
 209              	.LCFI6:
 210              		.cfi_def_cfa_offset 16
 211 0004 0190     		str	r0, [sp, #4]
 212              		.loc 1 118 0
ARM GAS  /tmp/cc2D4mTg.s 			page 5


 213 0006 019B     		ldr	r3, [sp, #4]
 214 0008 002B     		cmp	r3, #0
 215 000a 05D1     		bne	.L8
 216              		.loc 1 118 0 is_stmt 0 discriminator 1
 217 000c 40F20000 		movw	r0, #:lower16:.LC2
 218 0010 C0F20000 		movt	r0, #:upper16:.LC2
 219 0014 FFF7FEFF 		bl	chDbgPanic
 220              	.L8:
 221              	.LBB4:
 222              		.loc 1 120 0 is_stmt 1
 223 0018 4FF02003 		mov	r3, #32
 224              	@ 120 "../../os/hal/src/mac.c" 1
 225 001c 83F31188 		msr     BASEPRI, r3
 226              	@ 0 "" 2
 227              		.thumb
 228              	.LBE4:
 229 0020 FFF7FEFF 		bl	dbg_check_lock
 230              		.loc 1 121 0
 231 0024 019B     		ldr	r3, [sp, #4]
 232 0026 1B78     		ldrb	r3, [r3, #0]	@ zero_extendqisi2
 233 0028 012B     		cmp	r3, #1
 234 002a 09D0     		beq	.L9
 235              		.loc 1 121 0 is_stmt 0 discriminator 1
 236 002c 019B     		ldr	r3, [sp, #4]
 237 002e 1B78     		ldrb	r3, [r3, #0]	@ zero_extendqisi2
 238 0030 022B     		cmp	r3, #2
 239 0032 05D0     		beq	.L9
 240              		.loc 1 121 0 discriminator 2
 241 0034 40F20000 		movw	r0, #:lower16:.LC3
 242 0038 C0F20000 		movt	r0, #:upper16:.LC3
 243 003c FFF7FEFF 		bl	chDbgPanic
 244              	.L9:
 245              		.loc 1 123 0 is_stmt 1
 246 0040 0198     		ldr	r0, [sp, #4]
 247 0042 FFF7FEFF 		bl	mac_lld_stop
 248              		.loc 1 124 0
 249 0046 019B     		ldr	r3, [sp, #4]
 250 0048 4FF00102 		mov	r2, #1
 251 004c 1A70     		strb	r2, [r3, #0]
 252              		.loc 1 125 0
 253 004e FFF7FEFF 		bl	dbg_check_unlock
 254              	.LBB5:
 255 0052 4FF00003 		mov	r3, #0
 256              	@ 125 "../../os/hal/src/mac.c" 1
 257 0056 83F31188 		msr     BASEPRI, r3
 258              	@ 0 "" 2
 259              		.thumb
 260              	.LBE5:
 261              		.loc 1 126 0
 262 005a 03B0     		add	sp, sp, #12
 263 005c 00BD     		pop	{pc}
 264              		.cfi_endproc
 265              	.LFE66:
 266              		.size	macStop, .-macStop
 267 005e 00BF     		.section	.rodata
 268 003a 0000     		.align	2
 269              	.LC4:
ARM GAS  /tmp/cc2D4mTg.s 			page 6


 270 003c 226D6163 		.ascii	"\"macWaitTransmitDescriptor\"()\000"
 270      57616974 
 270      5472616E 
 270      736D6974 
 270      44657363 
 271 005a 0000     		.align	2
 272              	.LC5:
 273 005c 6D616357 		.ascii	"macWaitTransmitDescriptor(), #1\000"
 273      61697454 
 273      72616E73 
 273      6D697444 
 273      65736372 
 274              		.section	.text.macWaitTransmitDescriptor,"ax",%progbits
 275              		.align	2
 276              		.p2align 4,,15
 277              		.global	macWaitTransmitDescriptor
 278              		.thumb
 279              		.thumb_func
 280              		.type	macWaitTransmitDescriptor, %function
 281              	macWaitTransmitDescriptor:
 282              	.LFB67:
 283              		.loc 1 149 0
 284              		.cfi_startproc
 285              		@ args = 0, pretend = 0, frame = 24
 286              		@ frame_needed = 0, uses_anonymous_args = 0
 287 0000 00B5     		push	{lr}
 288              	.LCFI7:
 289              		.cfi_def_cfa_offset 4
 290              		.cfi_offset 14, -4
 291 0002 87B0     		sub	sp, sp, #28
 292              	.LCFI8:
 293              		.cfi_def_cfa_offset 32
 294 0004 0390     		str	r0, [sp, #12]
 295 0006 0291     		str	r1, [sp, #8]
 296 0008 0192     		str	r2, [sp, #4]
 297              		.loc 1 152 0
 298 000a 039B     		ldr	r3, [sp, #12]
 299 000c 002B     		cmp	r3, #0
 300 000e 02D0     		beq	.L11
 301              		.loc 1 152 0 is_stmt 0 discriminator 2
 302 0010 029B     		ldr	r3, [sp, #8]
 303 0012 002B     		cmp	r3, #0
 304 0014 05D1     		bne	.L12
 305              	.L11:
 306              		.loc 1 152 0 discriminator 1
 307 0016 40F20000 		movw	r0, #:lower16:.LC4
 308 001a C0F20000 		movt	r0, #:upper16:.LC4
 309 001e FFF7FEFF 		bl	chDbgPanic
 310              	.L12:
 311              		.loc 1 153 0 is_stmt 1
 312 0022 039B     		ldr	r3, [sp, #12]
 313 0024 1B78     		ldrb	r3, [r3, #0]	@ zero_extendqisi2
 314 0026 022B     		cmp	r3, #2
 315 0028 3AD0     		beq	.L14
 316              		.loc 1 153 0 is_stmt 0 discriminator 1
 317 002a 40F20000 		movw	r0, #:lower16:.LC5
 318 002e C0F20000 		movt	r0, #:upper16:.LC5
ARM GAS  /tmp/cc2D4mTg.s 			page 7


 319 0032 FFF7FEFF 		bl	chDbgPanic
 320              		.loc 1 156 0 is_stmt 1 discriminator 1
 321 0036 33E0     		b	.L14
 322              	.L18:
 323              	.LBB6:
 324              	.LBB7:
 325              		.loc 1 158 0
 326 0038 4FF02003 		mov	r3, #32
 327              	@ 158 "../../os/hal/src/mac.c" 1
 328 003c 83F31188 		msr     BASEPRI, r3
 329              	@ 0 "" 2
 330              		.thumb
 331              	.LBE7:
 332 0040 FFF7FEFF 		bl	dbg_check_lock
 333              		.loc 1 159 0
 334 0044 40F20003 		movw	r3, #:lower16:vtlist
 335 0048 C0F20003 		movt	r3, #:upper16:vtlist
 336 004c DB68     		ldr	r3, [r3, #12]
 337 004e 0493     		str	r3, [sp, #16]
 338              		.loc 1 160 0
 339 0050 039B     		ldr	r3, [sp, #12]
 340 0052 03F10803 		add	r3, r3, #8
 341 0056 1846     		mov	r0, r3
 342 0058 0199     		ldr	r1, [sp, #4]
 343 005a FFF7FEFF 		bl	chSemWaitTimeoutS
 344 005e 0346     		mov	r3, r0
 345 0060 0593     		str	r3, [sp, #20]
 346 0062 059B     		ldr	r3, [sp, #20]
 347 0064 B3F1FF3F 		cmp	r3, #-1
 348 0068 06D1     		bne	.L15
 349              		.loc 1 161 0
 350 006a FFF7FEFF 		bl	dbg_check_unlock
 351              	.LBB8:
 352 006e 4FF00003 		mov	r3, #0
 353              	@ 161 "../../os/hal/src/mac.c" 1
 354 0072 83F31188 		msr     BASEPRI, r3
 355              	@ 0 "" 2
 356              		.thumb
 357              	.LBE8:
 358              		.loc 1 162 0
 359 0076 1FE0     		b	.L16
 360              	.L15:
 361              		.loc 1 164 0
 362 0078 019B     		ldr	r3, [sp, #4]
 363 007a B3F1FF3F 		cmp	r3, #-1
 364 007e 09D0     		beq	.L17
 365              		.loc 1 165 0
 366 0080 40F20003 		movw	r3, #:lower16:vtlist
 367 0084 C0F20003 		movt	r3, #:upper16:vtlist
 368 0088 DB68     		ldr	r3, [r3, #12]
 369 008a 049A     		ldr	r2, [sp, #16]
 370 008c D31A     		subs	r3, r2, r3
 371 008e 019A     		ldr	r2, [sp, #4]
 372 0090 D318     		adds	r3, r2, r3
 373 0092 0193     		str	r3, [sp, #4]
 374              	.L17:
 375              		.loc 1 166 0
ARM GAS  /tmp/cc2D4mTg.s 			page 8


 376 0094 FFF7FEFF 		bl	dbg_check_unlock
 377              	.LBB9:
 378 0098 4FF00003 		mov	r3, #0
 379              	@ 166 "../../os/hal/src/mac.c" 1
 380 009c 83F31188 		msr     BASEPRI, r3
 381              	@ 0 "" 2
 382              		.thumb
 383              	.L14:
 384              	.LBE9:
 385              	.LBE6:
 386              		.loc 1 156 0 discriminator 1
 387 00a0 0398     		ldr	r0, [sp, #12]
 388 00a2 0299     		ldr	r1, [sp, #8]
 389 00a4 FFF7FEFF 		bl	mac_lld_get_transmit_descriptor
 390 00a8 0346     		mov	r3, r0
 391 00aa 0593     		str	r3, [sp, #20]
 392 00ac 059B     		ldr	r3, [sp, #20]
 393 00ae 002B     		cmp	r3, #0
 394 00b0 02D0     		beq	.L16
 395              		.loc 1 156 0 is_stmt 0 discriminator 2
 396 00b2 019B     		ldr	r3, [sp, #4]
 397 00b4 002B     		cmp	r3, #0
 398 00b6 BFD1     		bne	.L18
 399              	.L16:
 400              		.loc 1 168 0 is_stmt 1
 401 00b8 059B     		ldr	r3, [sp, #20]
 402              		.loc 1 169 0
 403 00ba 1846     		mov	r0, r3
 404 00bc 07B0     		add	sp, sp, #28
 405 00be 00BD     		pop	{pc}
 406              		.cfi_endproc
 407              	.LFE67:
 408              		.size	macWaitTransmitDescriptor, .-macWaitTransmitDescriptor
 409              		.section	.rodata
 410              		.align	2
 411              	.LC6:
 412 007c 226D6163 		.ascii	"\"macReleaseTransmitDescriptor\"()\000"
 412      52656C65 
 412      61736554 
 412      72616E73 
 412      6D697444 
 413              		.section	.text.macReleaseTransmitDescriptor,"ax",%progbits
 414              		.align	2
 415              		.p2align 4,,15
 416              		.global	macReleaseTransmitDescriptor
 417              		.thumb
 418              		.thumb_func
 419              		.type	macReleaseTransmitDescriptor, %function
 420              	macReleaseTransmitDescriptor:
 421              	.LFB68:
 422              		.loc 1 179 0
 423              		.cfi_startproc
 424              		@ args = 0, pretend = 0, frame = 8
 425              		@ frame_needed = 0, uses_anonymous_args = 0
 426 0000 00B5     		push	{lr}
 427              	.LCFI9:
 428              		.cfi_def_cfa_offset 4
ARM GAS  /tmp/cc2D4mTg.s 			page 9


 429              		.cfi_offset 14, -4
 430 0002 83B0     		sub	sp, sp, #12
 431              	.LCFI10:
 432              		.cfi_def_cfa_offset 16
 433 0004 0190     		str	r0, [sp, #4]
 434              		.loc 1 181 0
 435 0006 019B     		ldr	r3, [sp, #4]
 436 0008 002B     		cmp	r3, #0
 437 000a 05D1     		bne	.L20
 438              		.loc 1 181 0 is_stmt 0 discriminator 1
 439 000c 40F20000 		movw	r0, #:lower16:.LC6
 440 0010 C0F20000 		movt	r0, #:upper16:.LC6
 441 0014 FFF7FEFF 		bl	chDbgPanic
 442              	.L20:
 443              		.loc 1 183 0 is_stmt 1
 444 0018 0198     		ldr	r0, [sp, #4]
 445 001a FFF7FEFF 		bl	mac_lld_release_transmit_descriptor
 446              		.loc 1 184 0
 447 001e 03B0     		add	sp, sp, #12
 448 0020 00BD     		pop	{pc}
 449              		.cfi_endproc
 450              	.LFE68:
 451              		.size	macReleaseTransmitDescriptor, .-macReleaseTransmitDescriptor
 452 0022 00BFAFF3 		.section	.rodata
 452      0080AFF3 
 452      0080AFF3 
 452      0080
 453 009d 000000   		.align	2
 454              	.LC7:
 455 00a0 226D6163 		.ascii	"\"macWaitReceiveDescriptor\"()\000"
 455      57616974 
 455      52656365 
 455      69766544 
 455      65736372 
 456 00bd 000000   		.align	2
 457              	.LC8:
 458 00c0 6D616357 		.ascii	"macWaitReceiveDescriptor(), #1\000"
 458      61697452 
 458      65636569 
 458      76654465 
 458      73637269 
 459              		.section	.text.macWaitReceiveDescriptor,"ax",%progbits
 460              		.align	2
 461              		.p2align 4,,15
 462              		.global	macWaitReceiveDescriptor
 463              		.thumb
 464              		.thumb_func
 465              		.type	macWaitReceiveDescriptor, %function
 466              	macWaitReceiveDescriptor:
 467              	.LFB69:
 468              		.loc 1 207 0
 469              		.cfi_startproc
 470              		@ args = 0, pretend = 0, frame = 24
 471              		@ frame_needed = 0, uses_anonymous_args = 0
 472 0000 00B5     		push	{lr}
 473              	.LCFI11:
 474              		.cfi_def_cfa_offset 4
ARM GAS  /tmp/cc2D4mTg.s 			page 10


 475              		.cfi_offset 14, -4
 476 0002 87B0     		sub	sp, sp, #28
 477              	.LCFI12:
 478              		.cfi_def_cfa_offset 32
 479 0004 0390     		str	r0, [sp, #12]
 480 0006 0291     		str	r1, [sp, #8]
 481 0008 0192     		str	r2, [sp, #4]
 482              		.loc 1 210 0
 483 000a 039B     		ldr	r3, [sp, #12]
 484 000c 002B     		cmp	r3, #0
 485 000e 02D0     		beq	.L22
 486              		.loc 1 210 0 is_stmt 0 discriminator 2
 487 0010 029B     		ldr	r3, [sp, #8]
 488 0012 002B     		cmp	r3, #0
 489 0014 05D1     		bne	.L23
 490              	.L22:
 491              		.loc 1 210 0 discriminator 1
 492 0016 40F20000 		movw	r0, #:lower16:.LC7
 493 001a C0F20000 		movt	r0, #:upper16:.LC7
 494 001e FFF7FEFF 		bl	chDbgPanic
 495              	.L23:
 496              		.loc 1 211 0 is_stmt 1
 497 0022 039B     		ldr	r3, [sp, #12]
 498 0024 1B78     		ldrb	r3, [r3, #0]	@ zero_extendqisi2
 499 0026 022B     		cmp	r3, #2
 500 0028 3AD0     		beq	.L25
 501              		.loc 1 211 0 is_stmt 0 discriminator 1
 502 002a 40F20000 		movw	r0, #:lower16:.LC8
 503 002e C0F20000 		movt	r0, #:upper16:.LC8
 504 0032 FFF7FEFF 		bl	chDbgPanic
 505              		.loc 1 214 0 is_stmt 1 discriminator 1
 506 0036 33E0     		b	.L25
 507              	.L29:
 508              	.LBB10:
 509              	.LBB11:
 510              		.loc 1 216 0
 511 0038 4FF02003 		mov	r3, #32
 512              	@ 216 "../../os/hal/src/mac.c" 1
 513 003c 83F31188 		msr     BASEPRI, r3
 514              	@ 0 "" 2
 515              		.thumb
 516              	.LBE11:
 517 0040 FFF7FEFF 		bl	dbg_check_lock
 518              		.loc 1 217 0
 519 0044 40F20003 		movw	r3, #:lower16:vtlist
 520 0048 C0F20003 		movt	r3, #:upper16:vtlist
 521 004c DB68     		ldr	r3, [r3, #12]
 522 004e 0493     		str	r3, [sp, #16]
 523              		.loc 1 218 0
 524 0050 039B     		ldr	r3, [sp, #12]
 525 0052 03F11403 		add	r3, r3, #20
 526 0056 1846     		mov	r0, r3
 527 0058 0199     		ldr	r1, [sp, #4]
 528 005a FFF7FEFF 		bl	chSemWaitTimeoutS
 529 005e 0346     		mov	r3, r0
 530 0060 0593     		str	r3, [sp, #20]
 531 0062 059B     		ldr	r3, [sp, #20]
ARM GAS  /tmp/cc2D4mTg.s 			page 11


 532 0064 B3F1FF3F 		cmp	r3, #-1
 533 0068 06D1     		bne	.L26
 534              		.loc 1 219 0
 535 006a FFF7FEFF 		bl	dbg_check_unlock
 536              	.LBB12:
 537 006e 4FF00003 		mov	r3, #0
 538              	@ 219 "../../os/hal/src/mac.c" 1
 539 0072 83F31188 		msr     BASEPRI, r3
 540              	@ 0 "" 2
 541              		.thumb
 542              	.LBE12:
 543              		.loc 1 220 0
 544 0076 1FE0     		b	.L27
 545              	.L26:
 546              		.loc 1 222 0
 547 0078 019B     		ldr	r3, [sp, #4]
 548 007a B3F1FF3F 		cmp	r3, #-1
 549 007e 09D0     		beq	.L28
 550              		.loc 1 223 0
 551 0080 40F20003 		movw	r3, #:lower16:vtlist
 552 0084 C0F20003 		movt	r3, #:upper16:vtlist
 553 0088 DB68     		ldr	r3, [r3, #12]
 554 008a 049A     		ldr	r2, [sp, #16]
 555 008c D31A     		subs	r3, r2, r3
 556 008e 019A     		ldr	r2, [sp, #4]
 557 0090 D318     		adds	r3, r2, r3
 558 0092 0193     		str	r3, [sp, #4]
 559              	.L28:
 560              		.loc 1 224 0
 561 0094 FFF7FEFF 		bl	dbg_check_unlock
 562              	.LBB13:
 563 0098 4FF00003 		mov	r3, #0
 564              	@ 224 "../../os/hal/src/mac.c" 1
 565 009c 83F31188 		msr     BASEPRI, r3
 566              	@ 0 "" 2
 567              		.thumb
 568              	.L25:
 569              	.LBE13:
 570              	.LBE10:
 571              		.loc 1 214 0 discriminator 1
 572 00a0 0398     		ldr	r0, [sp, #12]
 573 00a2 0299     		ldr	r1, [sp, #8]
 574 00a4 FFF7FEFF 		bl	mac_lld_get_receive_descriptor
 575 00a8 0346     		mov	r3, r0
 576 00aa 0593     		str	r3, [sp, #20]
 577 00ac 059B     		ldr	r3, [sp, #20]
 578 00ae 002B     		cmp	r3, #0
 579 00b0 02D0     		beq	.L27
 580              		.loc 1 214 0 is_stmt 0 discriminator 2
 581 00b2 019B     		ldr	r3, [sp, #4]
 582 00b4 002B     		cmp	r3, #0
 583 00b6 BFD1     		bne	.L29
 584              	.L27:
 585              		.loc 1 226 0 is_stmt 1
 586 00b8 059B     		ldr	r3, [sp, #20]
 587              		.loc 1 227 0
 588 00ba 1846     		mov	r0, r3
ARM GAS  /tmp/cc2D4mTg.s 			page 12


 589 00bc 07B0     		add	sp, sp, #28
 590 00be 00BD     		pop	{pc}
 591              		.cfi_endproc
 592              	.LFE69:
 593              		.size	macWaitReceiveDescriptor, .-macWaitReceiveDescriptor
 594              		.section	.rodata
 595 00df 00       		.align	2
 596              	.LC9:
 597 00e0 226D6163 		.ascii	"\"macReleaseReceiveDescriptor\"()\000"
 597      52656C65 
 597      61736552 
 597      65636569 
 597      76654465 
 598              		.section	.text.macReleaseReceiveDescriptor,"ax",%progbits
 599              		.align	2
 600              		.p2align 4,,15
 601              		.global	macReleaseReceiveDescriptor
 602              		.thumb
 603              		.thumb_func
 604              		.type	macReleaseReceiveDescriptor, %function
 605              	macReleaseReceiveDescriptor:
 606              	.LFB70:
 607              		.loc 1 238 0
 608              		.cfi_startproc
 609              		@ args = 0, pretend = 0, frame = 8
 610              		@ frame_needed = 0, uses_anonymous_args = 0
 611 0000 00B5     		push	{lr}
 612              	.LCFI13:
 613              		.cfi_def_cfa_offset 4
 614              		.cfi_offset 14, -4
 615 0002 83B0     		sub	sp, sp, #12
 616              	.LCFI14:
 617              		.cfi_def_cfa_offset 16
 618 0004 0190     		str	r0, [sp, #4]
 619              		.loc 1 240 0
 620 0006 019B     		ldr	r3, [sp, #4]
 621 0008 002B     		cmp	r3, #0
 622 000a 05D1     		bne	.L31
 623              		.loc 1 240 0 is_stmt 0 discriminator 1
 624 000c 40F20000 		movw	r0, #:lower16:.LC9
 625 0010 C0F20000 		movt	r0, #:upper16:.LC9
 626 0014 FFF7FEFF 		bl	chDbgPanic
 627              	.L31:
 628              		.loc 1 242 0 is_stmt 1
 629 0018 0198     		ldr	r0, [sp, #4]
 630 001a FFF7FEFF 		bl	mac_lld_release_receive_descriptor
 631              		.loc 1 243 0
 632 001e 03B0     		add	sp, sp, #12
 633 0020 00BD     		pop	{pc}
 634              		.cfi_endproc
 635              	.LFE70:
 636              		.size	macReleaseReceiveDescriptor, .-macReleaseReceiveDescriptor
 637 0022 00BFAFF3 		.section	.rodata
 637      0080AFF3 
 637      0080AFF3 
 637      0080
 638              		.align	2
ARM GAS  /tmp/cc2D4mTg.s 			page 13


 639              	.LC10:
 640 0100 226D6163 		.ascii	"\"macPollLinkStatus\"()\000"
 640      506F6C6C 
 640      4C696E6B 
 640      53746174 
 640      75732228 
 641 0116 0000     		.align	2
 642              	.LC11:
 643 0118 6D616350 		.ascii	"macPollLinkStatus(), #1\000"
 643      6F6C6C4C 
 643      696E6B53 
 643      74617475 
 643      7328292C 
 644              		.section	.text.macPollLinkStatus,"ax",%progbits
 645              		.align	2
 646              		.p2align 4,,15
 647              		.global	macPollLinkStatus
 648              		.thumb
 649              		.thumb_func
 650              		.type	macPollLinkStatus, %function
 651              	macPollLinkStatus:
 652              	.LFB71:
 653              		.loc 1 255 0
 654              		.cfi_startproc
 655              		@ args = 0, pretend = 0, frame = 8
 656              		@ frame_needed = 0, uses_anonymous_args = 0
 657 0000 00B5     		push	{lr}
 658              	.LCFI15:
 659              		.cfi_def_cfa_offset 4
 660              		.cfi_offset 14, -4
 661 0002 83B0     		sub	sp, sp, #12
 662              	.LCFI16:
 663              		.cfi_def_cfa_offset 16
 664 0004 0190     		str	r0, [sp, #4]
 665              		.loc 1 257 0
 666 0006 019B     		ldr	r3, [sp, #4]
 667 0008 002B     		cmp	r3, #0
 668 000a 05D1     		bne	.L33
 669              		.loc 1 257 0 is_stmt 0 discriminator 1
 670 000c 40F20000 		movw	r0, #:lower16:.LC10
 671 0010 C0F20000 		movt	r0, #:upper16:.LC10
 672 0014 FFF7FEFF 		bl	chDbgPanic
 673              	.L33:
 674              		.loc 1 258 0 is_stmt 1
 675 0018 019B     		ldr	r3, [sp, #4]
 676 001a 1B78     		ldrb	r3, [r3, #0]	@ zero_extendqisi2
 677 001c 022B     		cmp	r3, #2
 678 001e 05D0     		beq	.L34
 679              		.loc 1 258 0 is_stmt 0 discriminator 1
 680 0020 40F20000 		movw	r0, #:lower16:.LC11
 681 0024 C0F20000 		movt	r0, #:upper16:.LC11
 682 0028 FFF7FEFF 		bl	chDbgPanic
 683              	.L34:
 684              		.loc 1 261 0 is_stmt 1
 685 002c 0198     		ldr	r0, [sp, #4]
 686 002e FFF7FEFF 		bl	mac_lld_poll_link_status
 687 0032 0346     		mov	r3, r0
ARM GAS  /tmp/cc2D4mTg.s 			page 14


 688              		.loc 1 262 0
 689 0034 1846     		mov	r0, r3
 690 0036 03B0     		add	sp, sp, #12
 691 0038 00BD     		pop	{pc}
 692              		.cfi_endproc
 693              	.LFE71:
 694              		.size	macPollLinkStatus, .-macPollLinkStatus
 695 003a 00BFAFF3 		.text
 695      0080
 696              	.Letext0:
 697              		.file 2 "/home/texzk/ChibiStudio/tools/GNU Tools ARM Embedded/4.6 2012q2/bin/../lib/gcc/arm-none-e
 698              		.file 3 "/home/texzk/ChibiStudio/tools/GNU Tools ARM Embedded/4.6 2012q2/bin/../lib/gcc/arm-none-e
 699              		.file 4 "../../os/ports/GCC/ARMCMx/chtypes.h"
 700              		.file 5 "../../os/kernel/include/chlists.h"
 701              		.file 6 "../../os/kernel/include/chthreads.h"
 702              		.file 7 "../../os/ports/GCC/ARMCMx/chcore_v7m.h"
 703              		.file 8 "../../os/kernel/include/chvt.h"
 704              		.file 9 "../../os/kernel/include/chsem.h"
 705              		.file 10 "../../os/kernel/include/chmtx.h"
 706              		.file 11 "../../os/kernel/include/chevents.h"
 707              		.file 12 "../../os/hal/include/mac.h"
 708              		.file 13 "../../os/hal/platforms/STM32/mac_lld.h"
 709              		.file 14 "../../os/ports/common/ARMCMx/CMSIS/include/core_cm3.h"
 710              		.section	.debug_info,"",%progbits
 711              	.Ldebug_info0:
 712 0000 DE0A0000 		.4byte	0xade
 713 0004 0200     		.2byte	0x2
 714 0006 00000000 		.4byte	.Ldebug_abbrev0
 715 000a 04       		.byte	0x4
 716 000b 01       		.uleb128 0x1
 717 000c 6B010000 		.4byte	.LASF121
 718 0010 01       		.byte	0x1
 719 0011 41030000 		.4byte	.LASF122
 720 0015 17000000 		.4byte	.LASF123
 721 0019 00000000 		.4byte	0
 722 001d 00000000 		.4byte	0
 723 0021 00000000 		.4byte	.Ldebug_ranges0+0
 724 0025 00000000 		.4byte	.Ldebug_line0
 725 0029 02       		.uleb128 0x2
 726 002a 04       		.byte	0x4
 727 002b 05       		.byte	0x5
 728 002c 696E7400 		.ascii	"int\000"
 729 0030 03       		.uleb128 0x3
 730 0031 00000000 		.4byte	.LASF2
 731 0035 02       		.byte	0x2
 732 0036 D4       		.byte	0xd4
 733 0037 3B000000 		.4byte	0x3b
 734 003b 04       		.uleb128 0x4
 735 003c 04       		.byte	0x4
 736 003d 07       		.byte	0x7
 737 003e 11020000 		.4byte	.LASF0
 738 0042 04       		.uleb128 0x4
 739 0043 01       		.byte	0x1
 740 0044 06       		.byte	0x6
 741 0045 10010000 		.4byte	.LASF1
 742 0049 03       		.uleb128 0x3
 743 004a 1B050000 		.4byte	.LASF3
ARM GAS  /tmp/cc2D4mTg.s 			page 15


 744 004e 03       		.byte	0x3
 745 004f 2A       		.byte	0x2a
 746 0050 54000000 		.4byte	0x54
 747 0054 04       		.uleb128 0x4
 748 0055 01       		.byte	0x1
 749 0056 08       		.byte	0x8
 750 0057 CB030000 		.4byte	.LASF4
 751 005b 04       		.uleb128 0x4
 752 005c 02       		.byte	0x2
 753 005d 05       		.byte	0x5
 754 005e F5030000 		.4byte	.LASF5
 755 0062 04       		.uleb128 0x4
 756 0063 02       		.byte	0x2
 757 0064 07       		.byte	0x7
 758 0065 7E020000 		.4byte	.LASF6
 759 0069 03       		.uleb128 0x3
 760 006a C3030000 		.4byte	.LASF7
 761 006e 03       		.byte	0x3
 762 006f 4F       		.byte	0x4f
 763 0070 74000000 		.4byte	0x74
 764 0074 04       		.uleb128 0x4
 765 0075 04       		.byte	0x4
 766 0076 05       		.byte	0x5
 767 0077 62010000 		.4byte	.LASF8
 768 007b 03       		.uleb128 0x3
 769 007c 4D040000 		.4byte	.LASF9
 770 0080 03       		.byte	0x3
 771 0081 50       		.byte	0x50
 772 0082 86000000 		.4byte	0x86
 773 0086 04       		.uleb128 0x4
 774 0087 04       		.byte	0x4
 775 0088 07       		.byte	0x7
 776 0089 61040000 		.4byte	.LASF10
 777 008d 04       		.uleb128 0x4
 778 008e 08       		.byte	0x8
 779 008f 05       		.byte	0x5
 780 0090 02010000 		.4byte	.LASF11
 781 0094 03       		.uleb128 0x3
 782 0095 5C000000 		.4byte	.LASF12
 783 0099 03       		.byte	0x3
 784 009a 78       		.byte	0x78
 785 009b 9F000000 		.4byte	0x9f
 786 009f 04       		.uleb128 0x4
 787 00a0 08       		.byte	0x8
 788 00a1 07       		.byte	0x7
 789 00a2 A2000000 		.4byte	.LASF13
 790 00a6 03       		.uleb128 0x3
 791 00a7 24010000 		.4byte	.LASF14
 792 00ab 04       		.byte	0x4
 793 00ac 27       		.byte	0x27
 794 00ad 69000000 		.4byte	0x69
 795 00b1 03       		.uleb128 0x3
 796 00b2 B6020000 		.4byte	.LASF15
 797 00b6 04       		.byte	0x4
 798 00b7 28       		.byte	0x28
 799 00b8 49000000 		.4byte	0x49
 800 00bc 03       		.uleb128 0x3
ARM GAS  /tmp/cc2D4mTg.s 			page 16


 801 00bd B4010000 		.4byte	.LASF16
 802 00c1 04       		.byte	0x4
 803 00c2 29       		.byte	0x29
 804 00c3 49000000 		.4byte	0x49
 805 00c7 03       		.uleb128 0x3
 806 00c8 86030000 		.4byte	.LASF17
 807 00cc 04       		.byte	0x4
 808 00cd 2A       		.byte	0x2a
 809 00ce 49000000 		.4byte	0x49
 810 00d2 03       		.uleb128 0x3
 811 00d3 4D010000 		.4byte	.LASF18
 812 00d7 04       		.byte	0x4
 813 00d8 2B       		.byte	0x2b
 814 00d9 49000000 		.4byte	0x49
 815 00dd 03       		.uleb128 0x3
 816 00de BB030000 		.4byte	.LASF19
 817 00e2 04       		.byte	0x4
 818 00e3 2C       		.byte	0x2c
 819 00e4 7B000000 		.4byte	0x7b
 820 00e8 03       		.uleb128 0x3
 821 00e9 9C020000 		.4byte	.LASF20
 822 00ed 04       		.byte	0x4
 823 00ee 2D       		.byte	0x2d
 824 00ef 69000000 		.4byte	0x69
 825 00f3 03       		.uleb128 0x3
 826 00f4 D0020000 		.4byte	.LASF21
 827 00f8 04       		.byte	0x4
 828 00f9 2F       		.byte	0x2f
 829 00fa 7B000000 		.4byte	0x7b
 830 00fe 03       		.uleb128 0x3
 831 00ff 86040000 		.4byte	.LASF22
 832 0103 04       		.byte	0x4
 833 0104 30       		.byte	0x30
 834 0105 7B000000 		.4byte	0x7b
 835 0109 03       		.uleb128 0x3
 836 010a 00020000 		.4byte	.LASF23
 837 010e 04       		.byte	0x4
 838 010f 31       		.byte	0x31
 839 0110 69000000 		.4byte	0x69
 840 0114 03       		.uleb128 0x3
 841 0115 2D040000 		.4byte	.LASF24
 842 0119 05       		.byte	0x5
 843 011a 23       		.byte	0x23
 844 011b 1F010000 		.4byte	0x11f
 845 011f 05       		.uleb128 0x5
 846 0120 2D040000 		.4byte	.LASF24
 847 0124 4C       		.byte	0x4c
 848 0125 06       		.byte	0x6
 849 0126 57       		.byte	0x57
 850 0127 52020000 		.4byte	0x252
 851 012b 06       		.uleb128 0x6
 852 012c 18040000 		.4byte	.LASF25
 853 0130 06       		.byte	0x6
 854 0131 58       		.byte	0x58
 855 0132 77020000 		.4byte	0x277
 856 0136 02       		.byte	0x2
 857 0137 23       		.byte	0x23
ARM GAS  /tmp/cc2D4mTg.s 			page 17


 858 0138 00       		.uleb128 0
 859 0139 06       		.uleb128 0x6
 860 013a A2030000 		.4byte	.LASF26
 861 013e 06       		.byte	0x6
 862 013f 5A       		.byte	0x5a
 863 0140 77020000 		.4byte	0x277
 864 0144 02       		.byte	0x2
 865 0145 23       		.byte	0x23
 866 0146 04       		.uleb128 0x4
 867 0147 06       		.uleb128 0x6
 868 0148 E5000000 		.4byte	.LASF27
 869 014c 06       		.byte	0x6
 870 014d 5C       		.byte	0x5c
 871 014e DD000000 		.4byte	0xdd
 872 0152 02       		.byte	0x2
 873 0153 23       		.byte	0x23
 874 0154 08       		.uleb128 0x8
 875 0155 06       		.uleb128 0x6
 876 0156 73030000 		.4byte	.LASF28
 877 015a 06       		.byte	0x6
 878 015b 5D       		.byte	0x5d
 879 015c 50030000 		.4byte	0x350
 880 0160 02       		.byte	0x2
 881 0161 23       		.byte	0x23
 882 0162 0C       		.uleb128 0xc
 883 0163 06       		.uleb128 0x6
 884 0164 CB010000 		.4byte	.LASF29
 885 0168 06       		.byte	0x6
 886 0169 5F       		.byte	0x5f
 887 016a 77020000 		.4byte	0x277
 888 016e 02       		.byte	0x2
 889 016f 23       		.byte	0x23
 890 0170 10       		.uleb128 0x10
 891 0171 06       		.uleb128 0x6
 892 0172 5E030000 		.4byte	.LASF30
 893 0176 06       		.byte	0x6
 894 0177 60       		.byte	0x60
 895 0178 77020000 		.4byte	0x277
 896 017c 02       		.byte	0x2
 897 017d 23       		.byte	0x23
 898 017e 14       		.uleb128 0x14
 899 017f 06       		.uleb128 0x6
 900 0180 40050000 		.4byte	.LASF31
 901 0184 06       		.byte	0x6
 902 0185 67       		.byte	0x67
 903 0186 69050000 		.4byte	0x569
 904 018a 02       		.byte	0x2
 905 018b 23       		.byte	0x23
 906 018c 18       		.uleb128 0x18
 907 018d 06       		.uleb128 0x6
 908 018e 06020000 		.4byte	.LASF32
 909 0192 06       		.byte	0x6
 910 0193 6D       		.byte	0x6d
 911 0194 7B050000 		.4byte	0x57b
 912 0198 02       		.byte	0x2
 913 0199 23       		.byte	0x23
 914 019a 1C       		.uleb128 0x1c
ARM GAS  /tmp/cc2D4mTg.s 			page 18


 915 019b 06       		.uleb128 0x6
 916 019c FF030000 		.4byte	.LASF33
 917 01a0 06       		.byte	0x6
 918 01a1 72       		.byte	0x72
 919 01a2 BC000000 		.4byte	0xbc
 920 01a6 02       		.byte	0x2
 921 01a7 23       		.byte	0x23
 922 01a8 20       		.uleb128 0x20
 923 01a9 06       		.uleb128 0x6
 924 01aa 1F040000 		.4byte	.LASF34
 925 01ae 06       		.byte	0x6
 926 01af 76       		.byte	0x76
 927 01b0 B1000000 		.4byte	0xb1
 928 01b4 02       		.byte	0x2
 929 01b5 23       		.byte	0x23
 930 01b6 21       		.uleb128 0x21
 931 01b7 06       		.uleb128 0x6
 932 01b8 BD010000 		.4byte	.LASF35
 933 01bc 06       		.byte	0x6
 934 01bd 7B       		.byte	0x7b
 935 01be C7000000 		.4byte	0xc7
 936 01c2 02       		.byte	0x2
 937 01c3 23       		.byte	0x23
 938 01c4 22       		.uleb128 0x22
 939 01c5 06       		.uleb128 0x6
 940 01c6 07040000 		.4byte	.LASF36
 941 01ca 06       		.byte	0x6
 942 01cb 81       		.byte	0x81
 943 01cc D2000000 		.4byte	0xd2
 944 01d0 02       		.byte	0x2
 945 01d1 23       		.byte	0x23
 946 01d2 23       		.uleb128 0x23
 947 01d3 06       		.uleb128 0x6
 948 01d4 C4010000 		.4byte	.LASF37
 949 01d8 06       		.byte	0x6
 950 01d9 88       		.byte	0x88
 951 01da 3A040000 		.4byte	0x43a
 952 01de 02       		.byte	0x2
 953 01df 23       		.byte	0x23
 954 01e0 24       		.uleb128 0x24
 955 01e1 07       		.uleb128 0x7
 956 01e2 705F7500 		.ascii	"p_u\000"
 957 01e6 06       		.byte	0x6
 958 01e7 AD       		.byte	0xad
 959 01e8 34050000 		.4byte	0x534
 960 01ec 02       		.byte	0x2
 961 01ed 23       		.byte	0x23
 962 01ee 28       		.uleb128 0x28
 963 01ef 06       		.uleb128 0x6
 964 01f0 37030000 		.4byte	.LASF38
 965 01f4 06       		.byte	0x6
 966 01f5 B2       		.byte	0xb2
 967 01f6 9F020000 		.4byte	0x29f
 968 01fa 02       		.byte	0x2
 969 01fb 23       		.byte	0x23
 970 01fc 2C       		.uleb128 0x2c
 971 01fd 06       		.uleb128 0x6
ARM GAS  /tmp/cc2D4mTg.s 			page 19


 972 01fe 43020000 		.4byte	.LASF39
 973 0202 06       		.byte	0x6
 974 0203 B8       		.byte	0xb8
 975 0204 7D020000 		.4byte	0x27d
 976 0208 02       		.byte	0x2
 977 0209 23       		.byte	0x23
 978 020a 30       		.uleb128 0x30
 979 020b 06       		.uleb128 0x6
 980 020c 47050000 		.4byte	.LASF40
 981 0210 06       		.byte	0x6
 982 0211 BC       		.byte	0xbc
 983 0212 E8000000 		.4byte	0xe8
 984 0216 02       		.byte	0x2
 985 0217 23       		.byte	0x23
 986 0218 38       		.uleb128 0x38
 987 0219 06       		.uleb128 0x6
 988 021a 42040000 		.4byte	.LASF41
 989 021e 06       		.byte	0x6
 990 021f C2       		.byte	0xc2
 991 0220 F3000000 		.4byte	0xf3
 992 0224 02       		.byte	0x2
 993 0225 23       		.byte	0x23
 994 0226 3C       		.uleb128 0x3c
 995 0227 06       		.uleb128 0x6
 996 0228 EB030000 		.4byte	.LASF42
 997 022c 06       		.byte	0x6
 998 022d C9       		.byte	0xc9
 999 022e 81050000 		.4byte	0x581
 1000 0232 02       		.byte	0x2
 1001 0233 23       		.byte	0x23
 1002 0234 40       		.uleb128 0x40
 1003 0235 06       		.uleb128 0x6
 1004 0236 90040000 		.4byte	.LASF43
 1005 023a 06       		.byte	0x6
 1006 023b CD       		.byte	0xcd
 1007 023c DD000000 		.4byte	0xdd
 1008 0240 02       		.byte	0x2
 1009 0241 23       		.byte	0x23
 1010 0242 44       		.uleb128 0x44
 1011 0243 06       		.uleb128 0x6
 1012 0244 1C010000 		.4byte	.LASF44
 1013 0248 06       		.byte	0x6
 1014 0249 D3       		.byte	0xd3
 1015 024a B5020000 		.4byte	0x2b5
 1016 024e 02       		.byte	0x2
 1017 024f 23       		.byte	0x23
 1018 0250 48       		.uleb128 0x48
 1019 0251 00       		.byte	0
 1020 0252 08       		.uleb128 0x8
 1021 0253 08       		.byte	0x8
 1022 0254 05       		.byte	0x5
 1023 0255 5A       		.byte	0x5a
 1024 0256 77020000 		.4byte	0x277
 1025 025a 06       		.uleb128 0x6
 1026 025b 18040000 		.4byte	.LASF25
 1027 025f 05       		.byte	0x5
 1028 0260 5B       		.byte	0x5b
ARM GAS  /tmp/cc2D4mTg.s 			page 20


 1029 0261 77020000 		.4byte	0x277
 1030 0265 02       		.byte	0x2
 1031 0266 23       		.byte	0x23
 1032 0267 00       		.uleb128 0
 1033 0268 06       		.uleb128 0x6
 1034 0269 A2030000 		.4byte	.LASF26
 1035 026d 05       		.byte	0x5
 1036 026e 5D       		.byte	0x5d
 1037 026f 77020000 		.4byte	0x277
 1038 0273 02       		.byte	0x2
 1039 0274 23       		.byte	0x23
 1040 0275 04       		.uleb128 0x4
 1041 0276 00       		.byte	0
 1042 0277 09       		.uleb128 0x9
 1043 0278 04       		.byte	0x4
 1044 0279 14010000 		.4byte	0x114
 1045 027d 03       		.uleb128 0x3
 1046 027e 66030000 		.4byte	.LASF45
 1047 0282 05       		.byte	0x5
 1048 0283 5F       		.byte	0x5f
 1049 0284 52020000 		.4byte	0x252
 1050 0288 08       		.uleb128 0x8
 1051 0289 04       		.byte	0x4
 1052 028a 05       		.byte	0x5
 1053 028b 64       		.byte	0x64
 1054 028c 9F020000 		.4byte	0x29f
 1055 0290 06       		.uleb128 0x6
 1056 0291 18040000 		.4byte	.LASF25
 1057 0295 05       		.byte	0x5
 1058 0296 66       		.byte	0x66
 1059 0297 77020000 		.4byte	0x277
 1060 029b 02       		.byte	0x2
 1061 029c 23       		.byte	0x23
 1062 029d 00       		.uleb128 0
 1063 029e 00       		.byte	0
 1064 029f 03       		.uleb128 0x3
 1065 02a0 C4020000 		.4byte	.LASF46
 1066 02a4 05       		.byte	0x5
 1067 02a5 69       		.byte	0x69
 1068 02a6 88020000 		.4byte	0x288
 1069 02aa 03       		.uleb128 0x3
 1070 02ab E3010000 		.4byte	.LASF47
 1071 02af 07       		.byte	0x7
 1072 02b0 DE       		.byte	0xde
 1073 02b1 B5020000 		.4byte	0x2b5
 1074 02b5 0A       		.uleb128 0xa
 1075 02b6 04       		.byte	0x4
 1076 02b7 03       		.uleb128 0x3
 1077 02b8 F6020000 		.4byte	.LASF48
 1078 02bc 07       		.byte	0x7
 1079 02bd E4       		.byte	0xe4
 1080 02be 94000000 		.4byte	0x94
 1081 02c2 0B       		.uleb128 0xb
 1082 02c3 B3040000 		.4byte	.LASF49
 1083 02c7 24       		.byte	0x24
 1084 02c8 07       		.byte	0x7
 1085 02c9 0501     		.2byte	0x105
ARM GAS  /tmp/cc2D4mTg.s 			page 21


 1086 02cb 50030000 		.4byte	0x350
 1087 02cf 0C       		.uleb128 0xc
 1088 02d0 723400   		.ascii	"r4\000"
 1089 02d3 07       		.byte	0x7
 1090 02d4 1801     		.2byte	0x118
 1091 02d6 AA020000 		.4byte	0x2aa
 1092 02da 02       		.byte	0x2
 1093 02db 23       		.byte	0x23
 1094 02dc 00       		.uleb128 0
 1095 02dd 0C       		.uleb128 0xc
 1096 02de 723500   		.ascii	"r5\000"
 1097 02e1 07       		.byte	0x7
 1098 02e2 1901     		.2byte	0x119
 1099 02e4 AA020000 		.4byte	0x2aa
 1100 02e8 02       		.byte	0x2
 1101 02e9 23       		.byte	0x23
 1102 02ea 04       		.uleb128 0x4
 1103 02eb 0C       		.uleb128 0xc
 1104 02ec 723600   		.ascii	"r6\000"
 1105 02ef 07       		.byte	0x7
 1106 02f0 1A01     		.2byte	0x11a
 1107 02f2 AA020000 		.4byte	0x2aa
 1108 02f6 02       		.byte	0x2
 1109 02f7 23       		.byte	0x23
 1110 02f8 08       		.uleb128 0x8
 1111 02f9 0C       		.uleb128 0xc
 1112 02fa 723700   		.ascii	"r7\000"
 1113 02fd 07       		.byte	0x7
 1114 02fe 1B01     		.2byte	0x11b
 1115 0300 AA020000 		.4byte	0x2aa
 1116 0304 02       		.byte	0x2
 1117 0305 23       		.byte	0x23
 1118 0306 0C       		.uleb128 0xc
 1119 0307 0C       		.uleb128 0xc
 1120 0308 723800   		.ascii	"r8\000"
 1121 030b 07       		.byte	0x7
 1122 030c 1C01     		.2byte	0x11c
 1123 030e AA020000 		.4byte	0x2aa
 1124 0312 02       		.byte	0x2
 1125 0313 23       		.byte	0x23
 1126 0314 10       		.uleb128 0x10
 1127 0315 0C       		.uleb128 0xc
 1128 0316 723900   		.ascii	"r9\000"
 1129 0319 07       		.byte	0x7
 1130 031a 1D01     		.2byte	0x11d
 1131 031c AA020000 		.4byte	0x2aa
 1132 0320 02       		.byte	0x2
 1133 0321 23       		.byte	0x23
 1134 0322 14       		.uleb128 0x14
 1135 0323 0C       		.uleb128 0xc
 1136 0324 72313000 		.ascii	"r10\000"
 1137 0328 07       		.byte	0x7
 1138 0329 1E01     		.2byte	0x11e
 1139 032b AA020000 		.4byte	0x2aa
 1140 032f 02       		.byte	0x2
 1141 0330 23       		.byte	0x23
 1142 0331 18       		.uleb128 0x18
ARM GAS  /tmp/cc2D4mTg.s 			page 22


 1143 0332 0C       		.uleb128 0xc
 1144 0333 72313100 		.ascii	"r11\000"
 1145 0337 07       		.byte	0x7
 1146 0338 1F01     		.2byte	0x11f
 1147 033a AA020000 		.4byte	0x2aa
 1148 033e 02       		.byte	0x2
 1149 033f 23       		.byte	0x23
 1150 0340 1C       		.uleb128 0x1c
 1151 0341 0C       		.uleb128 0xc
 1152 0342 6C7200   		.ascii	"lr\000"
 1153 0345 07       		.byte	0x7
 1154 0346 2001     		.2byte	0x120
 1155 0348 AA020000 		.4byte	0x2aa
 1156 034c 02       		.byte	0x2
 1157 034d 23       		.byte	0x23
 1158 034e 20       		.uleb128 0x20
 1159 034f 00       		.byte	0
 1160 0350 0B       		.uleb128 0xb
 1161 0351 AB040000 		.4byte	.LASF50
 1162 0355 04       		.byte	0x4
 1163 0356 07       		.byte	0x7
 1164 0357 2A01     		.2byte	0x12a
 1165 0359 6D030000 		.4byte	0x36d
 1166 035d 0C       		.uleb128 0xc
 1167 035e 72313300 		.ascii	"r13\000"
 1168 0362 07       		.byte	0x7
 1169 0363 2B01     		.2byte	0x12b
 1170 0365 6D030000 		.4byte	0x36d
 1171 0369 02       		.byte	0x2
 1172 036a 23       		.byte	0x23
 1173 036b 00       		.uleb128 0
 1174 036c 00       		.byte	0
 1175 036d 09       		.uleb128 0x9
 1176 036e 04       		.byte	0x4
 1177 036f C2020000 		.4byte	0x2c2
 1178 0373 0D       		.uleb128 0xd
 1179 0374 7B000000 		.4byte	0x7b
 1180 0378 03       		.uleb128 0x3
 1181 0379 9B040000 		.4byte	.LASF51
 1182 037d 08       		.byte	0x8
 1183 037e 4E       		.byte	0x4e
 1184 037f 83030000 		.4byte	0x383
 1185 0383 09       		.uleb128 0x9
 1186 0384 04       		.byte	0x4
 1187 0385 89030000 		.4byte	0x389
 1188 0389 0E       		.uleb128 0xe
 1189 038a 01       		.byte	0x1
 1190 038b 95030000 		.4byte	0x395
 1191 038f 0F       		.uleb128 0xf
 1192 0390 B5020000 		.4byte	0x2b5
 1193 0394 00       		.byte	0
 1194 0395 03       		.uleb128 0x3
 1195 0396 66020000 		.4byte	.LASF52
 1196 039a 08       		.byte	0x8
 1197 039b 53       		.byte	0x53
 1198 039c A0030000 		.4byte	0x3a0
 1199 03a0 05       		.uleb128 0x5
ARM GAS  /tmp/cc2D4mTg.s 			page 23


 1200 03a1 66020000 		.4byte	.LASF52
 1201 03a5 14       		.byte	0x14
 1202 03a6 08       		.byte	0x8
 1203 03a7 5A       		.byte	0x5a
 1204 03a8 F3030000 		.4byte	0x3f3
 1205 03ac 06       		.uleb128 0x6
 1206 03ad 1E020000 		.4byte	.LASF53
 1207 03b1 08       		.byte	0x8
 1208 03b2 5B       		.byte	0x5b
 1209 03b3 F3030000 		.4byte	0x3f3
 1210 03b7 02       		.byte	0x2
 1211 03b8 23       		.byte	0x23
 1212 03b9 00       		.uleb128 0
 1213 03ba 06       		.uleb128 0x6
 1214 03bb EC010000 		.4byte	.LASF54
 1215 03bf 08       		.byte	0x8
 1216 03c0 5D       		.byte	0x5d
 1217 03c1 F3030000 		.4byte	0x3f3
 1218 03c5 02       		.byte	0x2
 1219 03c6 23       		.byte	0x23
 1220 03c7 04       		.uleb128 0x4
 1221 03c8 06       		.uleb128 0x6
 1222 03c9 2F030000 		.4byte	.LASF55
 1223 03cd 08       		.byte	0x8
 1224 03ce 5F       		.byte	0x5f
 1225 03cf FE000000 		.4byte	0xfe
 1226 03d3 02       		.byte	0x2
 1227 03d4 23       		.byte	0x23
 1228 03d5 08       		.uleb128 0x8
 1229 03d6 06       		.uleb128 0x6
 1230 03d7 5C050000 		.4byte	.LASF56
 1231 03db 08       		.byte	0x8
 1232 03dc 60       		.byte	0x60
 1233 03dd 78030000 		.4byte	0x378
 1234 03e1 02       		.byte	0x2
 1235 03e2 23       		.byte	0x23
 1236 03e3 0C       		.uleb128 0xc
 1237 03e4 06       		.uleb128 0x6
 1238 03e5 BA040000 		.4byte	.LASF57
 1239 03e9 08       		.byte	0x8
 1240 03ea 62       		.byte	0x62
 1241 03eb B5020000 		.4byte	0x2b5
 1242 03ef 02       		.byte	0x2
 1243 03f0 23       		.byte	0x23
 1244 03f1 10       		.uleb128 0x10
 1245 03f2 00       		.byte	0
 1246 03f3 09       		.uleb128 0x9
 1247 03f4 04       		.byte	0x4
 1248 03f5 95030000 		.4byte	0x395
 1249 03f9 08       		.uleb128 0x8
 1250 03fa 10       		.byte	0x10
 1251 03fb 08       		.byte	0x8
 1252 03fc 6C       		.byte	0x6c
 1253 03fd 3A040000 		.4byte	0x43a
 1254 0401 06       		.uleb128 0x6
 1255 0402 1E020000 		.4byte	.LASF53
 1256 0406 08       		.byte	0x8
ARM GAS  /tmp/cc2D4mTg.s 			page 24


 1257 0407 6D       		.byte	0x6d
 1258 0408 F3030000 		.4byte	0x3f3
 1259 040c 02       		.byte	0x2
 1260 040d 23       		.byte	0x23
 1261 040e 00       		.uleb128 0
 1262 040f 06       		.uleb128 0x6
 1263 0410 EC010000 		.4byte	.LASF54
 1264 0414 08       		.byte	0x8
 1265 0415 6F       		.byte	0x6f
 1266 0416 F3030000 		.4byte	0x3f3
 1267 041a 02       		.byte	0x2
 1268 041b 23       		.byte	0x23
 1269 041c 04       		.uleb128 0x4
 1270 041d 06       		.uleb128 0x6
 1271 041e 2F030000 		.4byte	.LASF55
 1272 0422 08       		.byte	0x8
 1273 0423 71       		.byte	0x71
 1274 0424 FE000000 		.4byte	0xfe
 1275 0428 02       		.byte	0x2
 1276 0429 23       		.byte	0x23
 1277 042a 08       		.uleb128 0x8
 1278 042b 06       		.uleb128 0x6
 1279 042c 56040000 		.4byte	.LASF58
 1280 0430 08       		.byte	0x8
 1281 0431 72       		.byte	0x72
 1282 0432 3A040000 		.4byte	0x43a
 1283 0436 02       		.byte	0x2
 1284 0437 23       		.byte	0x23
 1285 0438 0C       		.uleb128 0xc
 1286 0439 00       		.byte	0
 1287 043a 0D       		.uleb128 0xd
 1288 043b FE000000 		.4byte	0xfe
 1289 043f 03       		.uleb128 0x3
 1290 0440 4D050000 		.4byte	.LASF59
 1291 0444 08       		.byte	0x8
 1292 0445 73       		.byte	0x73
 1293 0446 F9030000 		.4byte	0x3f9
 1294 044a 05       		.uleb128 0x5
 1295 044b C1040000 		.4byte	.LASF60
 1296 044f 0C       		.byte	0xc
 1297 0450 09       		.byte	0x9
 1298 0451 25       		.byte	0x25
 1299 0452 73040000 		.4byte	0x473
 1300 0456 06       		.uleb128 0x6
 1301 0457 D3010000 		.4byte	.LASF61
 1302 045b 09       		.byte	0x9
 1303 045c 26       		.byte	0x26
 1304 045d 7D020000 		.4byte	0x27d
 1305 0461 02       		.byte	0x2
 1306 0462 23       		.byte	0x23
 1307 0463 00       		.uleb128 0
 1308 0464 06       		.uleb128 0x6
 1309 0465 73020000 		.4byte	.LASF62
 1310 0469 09       		.byte	0x9
 1311 046a 28       		.byte	0x28
 1312 046b 09010000 		.4byte	0x109
 1313 046f 02       		.byte	0x2
ARM GAS  /tmp/cc2D4mTg.s 			page 25


 1314 0470 23       		.byte	0x23
 1315 0471 08       		.uleb128 0x8
 1316 0472 00       		.byte	0
 1317 0473 03       		.uleb128 0x3
 1318 0474 C1040000 		.4byte	.LASF60
 1319 0478 09       		.byte	0x9
 1320 0479 29       		.byte	0x29
 1321 047a 4A040000 		.4byte	0x44a
 1322 047e 05       		.uleb128 0x5
 1323 047f 58030000 		.4byte	.LASF63
 1324 0483 10       		.byte	0x10
 1325 0484 0A       		.byte	0xa
 1326 0485 25       		.byte	0x25
 1327 0486 B5040000 		.4byte	0x4b5
 1328 048a 06       		.uleb128 0x6
 1329 048b 2B010000 		.4byte	.LASF64
 1330 048f 0A       		.byte	0xa
 1331 0490 26       		.byte	0x26
 1332 0491 7D020000 		.4byte	0x27d
 1333 0495 02       		.byte	0x2
 1334 0496 23       		.byte	0x23
 1335 0497 00       		.uleb128 0
 1336 0498 06       		.uleb128 0x6
 1337 0499 54050000 		.4byte	.LASF65
 1338 049d 0A       		.byte	0xa
 1339 049e 28       		.byte	0x28
 1340 049f 77020000 		.4byte	0x277
 1341 04a3 02       		.byte	0x2
 1342 04a4 23       		.byte	0x23
 1343 04a5 08       		.uleb128 0x8
 1344 04a6 06       		.uleb128 0x6
 1345 04a7 7F040000 		.4byte	.LASF66
 1346 04ab 0A       		.byte	0xa
 1347 04ac 2A       		.byte	0x2a
 1348 04ad B5040000 		.4byte	0x4b5
 1349 04b1 02       		.byte	0x2
 1350 04b2 23       		.byte	0x23
 1351 04b3 0C       		.uleb128 0xc
 1352 04b4 00       		.byte	0
 1353 04b5 09       		.uleb128 0x9
 1354 04b6 04       		.byte	0x4
 1355 04b7 7E040000 		.4byte	0x47e
 1356 04bb 03       		.uleb128 0x3
 1357 04bc 58030000 		.4byte	.LASF63
 1358 04c0 0A       		.byte	0xa
 1359 04c1 2C       		.byte	0x2c
 1360 04c2 7E040000 		.4byte	0x47e
 1361 04c6 03       		.uleb128 0x3
 1362 04c7 2B050000 		.4byte	.LASF67
 1363 04cb 0B       		.byte	0xb
 1364 04cc 22       		.byte	0x22
 1365 04cd D1040000 		.4byte	0x4d1
 1366 04d1 05       		.uleb128 0x5
 1367 04d2 2B050000 		.4byte	.LASF67
 1368 04d6 0C       		.byte	0xc
 1369 04d7 0B       		.byte	0xb
 1370 04d8 27       		.byte	0x27
ARM GAS  /tmp/cc2D4mTg.s 			page 26


 1371 04d9 08050000 		.4byte	0x508
 1372 04dd 06       		.uleb128 0x6
 1373 04de AE020000 		.4byte	.LASF68
 1374 04e2 0B       		.byte	0xb
 1375 04e3 28       		.byte	0x28
 1376 04e4 08050000 		.4byte	0x508
 1377 04e8 02       		.byte	0x2
 1378 04e9 23       		.byte	0x23
 1379 04ea 00       		.uleb128 0
 1380 04eb 06       		.uleb128 0x6
 1381 04ec D9030000 		.4byte	.LASF69
 1382 04f0 0B       		.byte	0xb
 1383 04f1 2B       		.byte	0x2b
 1384 04f2 77020000 		.4byte	0x277
 1385 04f6 02       		.byte	0x2
 1386 04f7 23       		.byte	0x23
 1387 04f8 04       		.uleb128 0x4
 1388 04f9 06       		.uleb128 0x6
 1389 04fa 7E030000 		.4byte	.LASF70
 1390 04fe 0B       		.byte	0xb
 1391 04ff 2D       		.byte	0x2d
 1392 0500 F3000000 		.4byte	0xf3
 1393 0504 02       		.byte	0x2
 1394 0505 23       		.byte	0x23
 1395 0506 08       		.uleb128 0x8
 1396 0507 00       		.byte	0
 1397 0508 09       		.uleb128 0x9
 1398 0509 04       		.byte	0x4
 1399 050a C6040000 		.4byte	0x4c6
 1400 050e 05       		.uleb128 0x5
 1401 050f F4010000 		.4byte	.LASF71
 1402 0513 04       		.byte	0x4
 1403 0514 0B       		.byte	0xb
 1404 0515 35       		.byte	0x35
 1405 0516 29050000 		.4byte	0x529
 1406 051a 06       		.uleb128 0x6
 1407 051b EF040000 		.4byte	.LASF72
 1408 051f 0B       		.byte	0xb
 1409 0520 36       		.byte	0x36
 1410 0521 08050000 		.4byte	0x508
 1411 0525 02       		.byte	0x2
 1412 0526 23       		.byte	0x23
 1413 0527 00       		.uleb128 0
 1414 0528 00       		.byte	0
 1415 0529 03       		.uleb128 0x3
 1416 052a F4010000 		.4byte	.LASF71
 1417 052e 0B       		.byte	0xb
 1418 052f 39       		.byte	0x39
 1419 0530 0E050000 		.4byte	0x50e
 1420 0534 10       		.uleb128 0x10
 1421 0535 04       		.byte	0x4
 1422 0536 06       		.byte	0x6
 1423 0537 8F       		.byte	0x8f
 1424 0538 69050000 		.4byte	0x569
 1425 053c 11       		.uleb128 0x11
 1426 053d 07000000 		.4byte	.LASF73
 1427 0541 06       		.byte	0x6
ARM GAS  /tmp/cc2D4mTg.s 			page 27


 1428 0542 96       		.byte	0x96
 1429 0543 E8000000 		.4byte	0xe8
 1430 0547 11       		.uleb128 0x11
 1431 0548 C1000000 		.4byte	.LASF74
 1432 054c 06       		.byte	0x6
 1433 054d 9D       		.byte	0x9d
 1434 054e E8000000 		.4byte	0xe8
 1435 0552 11       		.uleb128 0x11
 1436 0553 39050000 		.4byte	.LASF75
 1437 0557 06       		.byte	0x6
 1438 0558 A4       		.byte	0xa4
 1439 0559 B5020000 		.4byte	0x2b5
 1440 055d 11       		.uleb128 0x11
 1441 055e 11040000 		.4byte	.LASF76
 1442 0562 06       		.byte	0x6
 1443 0563 AB       		.byte	0xab
 1444 0564 F3000000 		.4byte	0xf3
 1445 0568 00       		.byte	0
 1446 0569 09       		.uleb128 0x9
 1447 056a 04       		.byte	0x4
 1448 056b 6F050000 		.4byte	0x56f
 1449 056f 12       		.uleb128 0x12
 1450 0570 74050000 		.4byte	0x574
 1451 0574 04       		.uleb128 0x4
 1452 0575 01       		.byte	0x1
 1453 0576 08       		.byte	0x8
 1454 0577 73040000 		.4byte	.LASF77
 1455 057b 09       		.uleb128 0x9
 1456 057c 04       		.byte	0x4
 1457 057d B7020000 		.4byte	0x2b7
 1458 0581 09       		.uleb128 0x9
 1459 0582 04       		.byte	0x4
 1460 0583 BB040000 		.4byte	0x4bb
 1461 0587 09       		.uleb128 0x9
 1462 0588 04       		.byte	0x4
 1463 0589 49000000 		.4byte	0x49
 1464 058d 0D       		.uleb128 0xd
 1465 058e 69000000 		.4byte	0x69
 1466 0592 13       		.uleb128 0x13
 1467 0593 01       		.byte	0x1
 1468 0594 0C       		.byte	0xc
 1469 0595 48       		.byte	0x48
 1470 0596 AD050000 		.4byte	0x5ad
 1471 059a 14       		.uleb128 0x14
 1472 059b 91020000 		.4byte	.LASF78
 1473 059f 00       		.sleb128 0
 1474 05a0 14       		.uleb128 0x14
 1475 05a1 99030000 		.4byte	.LASF79
 1476 05a5 01       		.sleb128 1
 1477 05a6 14       		.uleb128 0x14
 1478 05a7 8E030000 		.4byte	.LASF80
 1479 05ab 02       		.sleb128 2
 1480 05ac 00       		.byte	0
 1481 05ad 03       		.uleb128 0x3
 1482 05ae 38020000 		.4byte	.LASF81
 1483 05b2 0C       		.byte	0xc
 1484 05b3 4C       		.byte	0x4c
ARM GAS  /tmp/cc2D4mTg.s 			page 28


 1485 05b4 92050000 		.4byte	0x592
 1486 05b8 03       		.uleb128 0x3
 1487 05b9 6B000000 		.4byte	.LASF82
 1488 05bd 0C       		.byte	0xc
 1489 05be 51       		.byte	0x51
 1490 05bf C3050000 		.4byte	0x5c3
 1491 05c3 05       		.uleb128 0x5
 1492 05c4 6B000000 		.4byte	.LASF82
 1493 05c8 34       		.byte	0x34
 1494 05c9 0D       		.byte	0xd
 1495 05ca E4       		.byte	0xe4
 1496 05cb 51060000 		.4byte	0x651
 1497 05cf 06       		.uleb128 0x6
 1498 05d0 5C010000 		.4byte	.LASF83
 1499 05d4 0D       		.byte	0xd
 1500 05d5 E8       		.byte	0xe8
 1501 05d6 AD050000 		.4byte	0x5ad
 1502 05da 02       		.byte	0x2
 1503 05db 23       		.byte	0x23
 1504 05dc 00       		.uleb128 0
 1505 05dd 06       		.uleb128 0x6
 1506 05de 78040000 		.4byte	.LASF84
 1507 05e2 0D       		.byte	0xd
 1508 05e3 EC       		.byte	0xec
 1509 05e4 0B070000 		.4byte	0x70b
 1510 05e8 02       		.byte	0x2
 1511 05e9 23       		.byte	0x23
 1512 05ea 04       		.uleb128 0x4
 1513 05eb 06       		.uleb128 0x6
 1514 05ec E5030000 		.4byte	.LASF85
 1515 05f0 0D       		.byte	0xd
 1516 05f1 F0       		.byte	0xf0
 1517 05f2 73040000 		.4byte	0x473
 1518 05f6 02       		.byte	0x2
 1519 05f7 23       		.byte	0x23
 1520 05f8 08       		.uleb128 0x8
 1521 05f9 06       		.uleb128 0x6
 1522 05fa D2000000 		.4byte	.LASF86
 1523 05fe 0D       		.byte	0xd
 1524 05ff F4       		.byte	0xf4
 1525 0600 73040000 		.4byte	0x473
 1526 0604 02       		.byte	0x2
 1527 0605 23       		.byte	0x23
 1528 0606 14       		.uleb128 0x14
 1529 0607 06       		.uleb128 0x6
 1530 0608 CA000000 		.4byte	.LASF87
 1531 060c 0D       		.byte	0xd
 1532 060d F9       		.byte	0xf9
 1533 060e 29050000 		.4byte	0x529
 1534 0612 02       		.byte	0x2
 1535 0613 23       		.byte	0x23
 1536 0614 20       		.uleb128 0x20
 1537 0615 06       		.uleb128 0x6
 1538 0616 B9000000 		.4byte	.LASF88
 1539 061a 0D       		.byte	0xd
 1540 061b FF       		.byte	0xff
 1541 061c A6000000 		.4byte	0xa6
ARM GAS  /tmp/cc2D4mTg.s 			page 29


 1542 0620 02       		.byte	0x2
 1543 0621 23       		.byte	0x23
 1544 0622 24       		.uleb128 0x24
 1545 0623 15       		.uleb128 0x15
 1546 0624 23050000 		.4byte	.LASF89
 1547 0628 0D       		.byte	0xd
 1548 0629 0301     		.2byte	0x103
 1549 062b 7B000000 		.4byte	0x7b
 1550 062f 02       		.byte	0x2
 1551 0630 23       		.byte	0x23
 1552 0631 28       		.uleb128 0x28
 1553 0632 15       		.uleb128 0x15
 1554 0633 BE020000 		.4byte	.LASF90
 1555 0637 0D       		.byte	0xd
 1556 0638 0701     		.2byte	0x107
 1557 063a 16070000 		.4byte	0x716
 1558 063e 02       		.byte	0x2
 1559 063f 23       		.byte	0x23
 1560 0640 2C       		.uleb128 0x2c
 1561 0641 15       		.uleb128 0x15
 1562 0642 27040000 		.4byte	.LASF91
 1563 0646 0D       		.byte	0xd
 1564 0647 0B01     		.2byte	0x10b
 1565 0649 1C070000 		.4byte	0x71c
 1566 064d 02       		.byte	0x2
 1567 064e 23       		.byte	0x23
 1568 064f 30       		.uleb128 0x30
 1569 0650 00       		.byte	0
 1570 0651 08       		.uleb128 0x8
 1571 0652 10       		.byte	0x10
 1572 0653 0D       		.byte	0xd
 1573 0654 C5       		.byte	0xc5
 1574 0655 92060000 		.4byte	0x692
 1575 0659 06       		.uleb128 0x6
 1576 065a 4E020000 		.4byte	.LASF92
 1577 065e 0D       		.byte	0xd
 1578 065f C6       		.byte	0xc6
 1579 0660 73030000 		.4byte	0x373
 1580 0664 02       		.byte	0x2
 1581 0665 23       		.byte	0x23
 1582 0666 00       		.uleb128 0
 1583 0667 06       		.uleb128 0x6
 1584 0668 54020000 		.4byte	.LASF93
 1585 066c 0D       		.byte	0xd
 1586 066d C7       		.byte	0xc7
 1587 066e 73030000 		.4byte	0x373
 1588 0672 02       		.byte	0x2
 1589 0673 23       		.byte	0x23
 1590 0674 04       		.uleb128 0x4
 1591 0675 06       		.uleb128 0x6
 1592 0676 5A020000 		.4byte	.LASF94
 1593 067a 0D       		.byte	0xd
 1594 067b C8       		.byte	0xc8
 1595 067c 73030000 		.4byte	0x373
 1596 0680 02       		.byte	0x2
 1597 0681 23       		.byte	0x23
 1598 0682 08       		.uleb128 0x8
ARM GAS  /tmp/cc2D4mTg.s 			page 30


 1599 0683 06       		.uleb128 0x6
 1600 0684 60020000 		.4byte	.LASF95
 1601 0688 0D       		.byte	0xd
 1602 0689 C9       		.byte	0xc9
 1603 068a 73030000 		.4byte	0x373
 1604 068e 02       		.byte	0x2
 1605 068f 23       		.byte	0x23
 1606 0690 0C       		.uleb128 0xc
 1607 0691 00       		.byte	0
 1608 0692 03       		.uleb128 0x3
 1609 0693 F7040000 		.4byte	.LASF96
 1610 0697 0D       		.byte	0xd
 1611 0698 CA       		.byte	0xca
 1612 0699 51060000 		.4byte	0x651
 1613 069d 08       		.uleb128 0x8
 1614 069e 10       		.byte	0x10
 1615 069f 0D       		.byte	0xd
 1616 06a0 CF       		.byte	0xcf
 1617 06a1 DE060000 		.4byte	0x6de
 1618 06a5 06       		.uleb128 0x6
 1619 06a6 A9030000 		.4byte	.LASF97
 1620 06aa 0D       		.byte	0xd
 1621 06ab D0       		.byte	0xd0
 1622 06ac 73030000 		.4byte	0x373
 1623 06b0 02       		.byte	0x2
 1624 06b1 23       		.byte	0x23
 1625 06b2 00       		.uleb128 0
 1626 06b3 06       		.uleb128 0x6
 1627 06b4 AF030000 		.4byte	.LASF98
 1628 06b8 0D       		.byte	0xd
 1629 06b9 D1       		.byte	0xd1
 1630 06ba 73030000 		.4byte	0x373
 1631 06be 02       		.byte	0x2
 1632 06bf 23       		.byte	0x23
 1633 06c0 04       		.uleb128 0x4
 1634 06c1 06       		.uleb128 0x6
 1635 06c2 B5030000 		.4byte	.LASF99
 1636 06c6 0D       		.byte	0xd
 1637 06c7 D2       		.byte	0xd2
 1638 06c8 73030000 		.4byte	0x373
 1639 06cc 02       		.byte	0x2
 1640 06cd 23       		.byte	0x23
 1641 06ce 08       		.uleb128 0x8
 1642 06cf 06       		.uleb128 0x6
 1643 06d0 65000000 		.4byte	.LASF100
 1644 06d4 0D       		.byte	0xd
 1645 06d5 D3       		.byte	0xd3
 1646 06d6 73030000 		.4byte	0x373
 1647 06da 02       		.byte	0x2
 1648 06db 23       		.byte	0x23
 1649 06dc 0C       		.uleb128 0xc
 1650 06dd 00       		.byte	0
 1651 06de 03       		.uleb128 0x3
 1652 06df 33010000 		.4byte	.LASF101
 1653 06e3 0D       		.byte	0xd
 1654 06e4 D4       		.byte	0xd4
 1655 06e5 9D060000 		.4byte	0x69d
ARM GAS  /tmp/cc2D4mTg.s 			page 31


 1656 06e9 08       		.uleb128 0x8
 1657 06ea 04       		.byte	0x4
 1658 06eb 0D       		.byte	0xd
 1659 06ec D9       		.byte	0xd9
 1660 06ed 00070000 		.4byte	0x700
 1661 06f1 06       		.uleb128 0x6
 1662 06f2 A2020000 		.4byte	.LASF102
 1663 06f6 0D       		.byte	0xd
 1664 06f7 DD       		.byte	0xdd
 1665 06f8 87050000 		.4byte	0x587
 1666 06fc 02       		.byte	0x2
 1667 06fd 23       		.byte	0x23
 1668 06fe 00       		.uleb128 0
 1669 06ff 00       		.byte	0
 1670 0700 03       		.uleb128 0x3
 1671 0701 11050000 		.4byte	.LASF103
 1672 0705 0D       		.byte	0xd
 1673 0706 DF       		.byte	0xdf
 1674 0707 E9060000 		.4byte	0x6e9
 1675 070b 09       		.uleb128 0x9
 1676 070c 04       		.byte	0x4
 1677 070d 11070000 		.4byte	0x711
 1678 0711 12       		.uleb128 0x12
 1679 0712 00070000 		.4byte	0x700
 1680 0716 09       		.uleb128 0x9
 1681 0717 04       		.byte	0x4
 1682 0718 92060000 		.4byte	0x692
 1683 071c 09       		.uleb128 0x9
 1684 071d 04       		.byte	0x4
 1685 071e DE060000 		.4byte	0x6de
 1686 0722 16       		.uleb128 0x16
 1687 0723 0C       		.byte	0xc
 1688 0724 0D       		.byte	0xd
 1689 0725 1101     		.2byte	0x111
 1690 0727 59070000 		.4byte	0x759
 1691 072b 15       		.uleb128 0x15
 1692 072c A4040000 		.4byte	.LASF104
 1693 0730 0D       		.byte	0xd
 1694 0731 1501     		.2byte	0x115
 1695 0733 30000000 		.4byte	0x30
 1696 0737 02       		.byte	0x2
 1697 0738 23       		.byte	0x23
 1698 0739 00       		.uleb128 0
 1699 073a 15       		.uleb128 0x15
 1700 073b 79020000 		.4byte	.LASF105
 1701 073f 0D       		.byte	0xd
 1702 0740 1901     		.2byte	0x119
 1703 0742 30000000 		.4byte	0x30
 1704 0746 02       		.byte	0x2
 1705 0747 23       		.byte	0x23
 1706 0748 04       		.uleb128 0x4
 1707 0749 15       		.uleb128 0x15
 1708 074a 0E000000 		.4byte	.LASF106
 1709 074e 0D       		.byte	0xd
 1710 074f 1E01     		.2byte	0x11e
 1711 0751 1C070000 		.4byte	0x71c
 1712 0755 02       		.byte	0x2
ARM GAS  /tmp/cc2D4mTg.s 			page 32


 1713 0756 23       		.byte	0x23
 1714 0757 08       		.uleb128 0x8
 1715 0758 00       		.byte	0
 1716 0759 17       		.uleb128 0x17
 1717 075a EC000000 		.4byte	.LASF107
 1718 075e 0D       		.byte	0xd
 1719 075f 1F01     		.2byte	0x11f
 1720 0761 22070000 		.4byte	0x722
 1721 0765 16       		.uleb128 0x16
 1722 0766 0C       		.byte	0xc
 1723 0767 0D       		.byte	0xd
 1724 0768 2401     		.2byte	0x124
 1725 076a 9C070000 		.4byte	0x79c
 1726 076e 15       		.uleb128 0x15
 1727 076f A4040000 		.4byte	.LASF104
 1728 0773 0D       		.byte	0xd
 1729 0774 2801     		.2byte	0x128
 1730 0776 30000000 		.4byte	0x30
 1731 077a 02       		.byte	0x2
 1732 077b 23       		.byte	0x23
 1733 077c 00       		.uleb128 0
 1734 077d 15       		.uleb128 0x15
 1735 077e 79020000 		.4byte	.LASF105
 1736 0782 0D       		.byte	0xd
 1737 0783 2C01     		.2byte	0x12c
 1738 0785 30000000 		.4byte	0x30
 1739 0789 02       		.byte	0x2
 1740 078a 23       		.byte	0x23
 1741 078b 04       		.uleb128 0x4
 1742 078c 15       		.uleb128 0x15
 1743 078d 0E000000 		.4byte	.LASF106
 1744 0791 0D       		.byte	0xd
 1745 0792 3101     		.2byte	0x131
 1746 0794 16070000 		.4byte	0x716
 1747 0798 02       		.byte	0x2
 1748 0799 23       		.byte	0x23
 1749 079a 08       		.uleb128 0x8
 1750 079b 00       		.byte	0
 1751 079c 17       		.uleb128 0x17
 1752 079d 01030000 		.4byte	.LASF108
 1753 07a1 0D       		.byte	0xd
 1754 07a2 3201     		.2byte	0x132
 1755 07a4 65070000 		.4byte	0x765
 1756 07a8 18       		.uleb128 0x18
 1757 07a9 01       		.byte	0x1
 1758 07aa DB010000 		.4byte	.LASF124
 1759 07ae 01       		.byte	0x1
 1760 07af 41       		.byte	0x41
 1761 07b0 01       		.byte	0x1
 1762 07b1 00000000 		.4byte	.LFB63
 1763 07b5 08000000 		.4byte	.LFE63
 1764 07b9 00000000 		.4byte	.LLST0
 1765 07bd 19       		.uleb128 0x19
 1766 07be 01       		.byte	0x1
 1767 07bf 34040000 		.4byte	.LASF109
 1768 07c3 01       		.byte	0x1
 1769 07c4 4D       		.byte	0x4d
ARM GAS  /tmp/cc2D4mTg.s 			page 33


 1770 07c5 01       		.byte	0x1
 1771 07c6 00000000 		.4byte	.LFB64
 1772 07ca 44000000 		.4byte	.LFE64
 1773 07ce 20000000 		.4byte	.LLST1
 1774 07d2 E5070000 		.4byte	0x7e5
 1775 07d6 1A       		.uleb128 0x1a
 1776 07d7 57010000 		.4byte	.LASF111
 1777 07db 01       		.byte	0x1
 1778 07dc 4D       		.byte	0x4d
 1779 07dd E5070000 		.4byte	0x7e5
 1780 07e1 02       		.byte	0x2
 1781 07e2 91       		.byte	0x91
 1782 07e3 74       		.sleb128 -12
 1783 07e4 00       		.byte	0
 1784 07e5 09       		.uleb128 0x9
 1785 07e6 04       		.byte	0x4
 1786 07e7 B8050000 		.4byte	0x5b8
 1787 07eb 19       		.uleb128 0x19
 1788 07ec 01       		.byte	0x1
 1789 07ed 75000000 		.4byte	.LASF110
 1790 07f1 01       		.byte	0x1
 1791 07f2 60       		.byte	0x60
 1792 07f3 01       		.byte	0x1
 1793 07f4 00000000 		.4byte	.LFB65
 1794 07f8 64000000 		.4byte	.LFE65
 1795 07fc 4C000000 		.4byte	.LLST2
 1796 0800 53080000 		.4byte	0x853
 1797 0804 1A       		.uleb128 0x1a
 1798 0805 57010000 		.4byte	.LASF111
 1799 0809 01       		.byte	0x1
 1800 080a 60       		.byte	0x60
 1801 080b E5070000 		.4byte	0x7e5
 1802 080f 02       		.byte	0x2
 1803 0810 91       		.byte	0x91
 1804 0811 74       		.sleb128 -12
 1805 0812 1A       		.uleb128 0x1a
 1806 0813 78040000 		.4byte	.LASF84
 1807 0817 01       		.byte	0x1
 1808 0818 60       		.byte	0x60
 1809 0819 0B070000 		.4byte	0x70b
 1810 081d 02       		.byte	0x2
 1811 081e 91       		.byte	0x91
 1812 081f 70       		.sleb128 -16
 1813 0820 1B       		.uleb128 0x1b
 1814 0821 20000000 		.4byte	.LBB2
 1815 0825 28000000 		.4byte	.LBE2
 1816 0829 3B080000 		.4byte	0x83b
 1817 082d 1C       		.uleb128 0x1c
 1818 082e 746D7000 		.ascii	"tmp\000"
 1819 0832 01       		.byte	0x1
 1820 0833 64       		.byte	0x64
 1821 0834 7B000000 		.4byte	0x7b
 1822 0838 01       		.byte	0x1
 1823 0839 53       		.byte	0x53
 1824 083a 00       		.byte	0
 1825 083b 1D       		.uleb128 0x1d
 1826 083c 58000000 		.4byte	.LBB3
ARM GAS  /tmp/cc2D4mTg.s 			page 34


 1827 0840 60000000 		.4byte	.LBE3
 1828 0844 1C       		.uleb128 0x1c
 1829 0845 746D7000 		.ascii	"tmp\000"
 1830 0849 01       		.byte	0x1
 1831 084a 6A       		.byte	0x6a
 1832 084b 7B000000 		.4byte	0x7b
 1833 084f 01       		.byte	0x1
 1834 0850 53       		.byte	0x53
 1835 0851 00       		.byte	0
 1836 0852 00       		.byte	0
 1837 0853 19       		.uleb128 0x19
 1838 0854 01       		.byte	0x1
 1839 0855 E7040000 		.4byte	.LASF112
 1840 0859 01       		.byte	0x1
 1841 085a 74       		.byte	0x74
 1842 085b 01       		.byte	0x1
 1843 085c 00000000 		.4byte	.LFB66
 1844 0860 5E000000 		.4byte	.LFE66
 1845 0864 78000000 		.4byte	.LLST3
 1846 0868 AD080000 		.4byte	0x8ad
 1847 086c 1A       		.uleb128 0x1a
 1848 086d 57010000 		.4byte	.LASF111
 1849 0871 01       		.byte	0x1
 1850 0872 74       		.byte	0x74
 1851 0873 E5070000 		.4byte	0x7e5
 1852 0877 02       		.byte	0x2
 1853 0878 91       		.byte	0x91
 1854 0879 74       		.sleb128 -12
 1855 087a 1B       		.uleb128 0x1b
 1856 087b 18000000 		.4byte	.LBB4
 1857 087f 20000000 		.4byte	.LBE4
 1858 0883 95080000 		.4byte	0x895
 1859 0887 1C       		.uleb128 0x1c
 1860 0888 746D7000 		.ascii	"tmp\000"
 1861 088c 01       		.byte	0x1
 1862 088d 78       		.byte	0x78
 1863 088e 7B000000 		.4byte	0x7b
 1864 0892 01       		.byte	0x1
 1865 0893 53       		.byte	0x53
 1866 0894 00       		.byte	0
 1867 0895 1D       		.uleb128 0x1d
 1868 0896 52000000 		.4byte	.LBB5
 1869 089a 5A000000 		.4byte	.LBE5
 1870 089e 1C       		.uleb128 0x1c
 1871 089f 746D7000 		.ascii	"tmp\000"
 1872 08a3 01       		.byte	0x1
 1873 08a4 7D       		.byte	0x7d
 1874 08a5 7B000000 		.4byte	0x7b
 1875 08a9 01       		.byte	0x1
 1876 08aa 53       		.byte	0x53
 1877 08ab 00       		.byte	0
 1878 08ac 00       		.byte	0
 1879 08ad 1E       		.uleb128 0x1e
 1880 08ae 01       		.byte	0x1
 1881 08af DC020000 		.4byte	.LASF115
 1882 08b3 01       		.byte	0x1
 1883 08b4 93       		.byte	0x93
ARM GAS  /tmp/cc2D4mTg.s 			page 35


 1884 08b5 01       		.byte	0x1
 1885 08b6 E8000000 		.4byte	0xe8
 1886 08ba 00000000 		.4byte	.LFB67
 1887 08be C0000000 		.4byte	.LFE67
 1888 08c2 A4000000 		.4byte	.LLST4
 1889 08c6 68090000 		.4byte	0x968
 1890 08ca 1A       		.uleb128 0x1a
 1891 08cb 57010000 		.4byte	.LASF111
 1892 08cf 01       		.byte	0x1
 1893 08d0 93       		.byte	0x93
 1894 08d1 E5070000 		.4byte	0x7e5
 1895 08d5 02       		.byte	0x2
 1896 08d6 91       		.byte	0x91
 1897 08d7 6C       		.sleb128 -20
 1898 08d8 1F       		.uleb128 0x1f
 1899 08d9 74647000 		.ascii	"tdp\000"
 1900 08dd 01       		.byte	0x1
 1901 08de 94       		.byte	0x94
 1902 08df 68090000 		.4byte	0x968
 1903 08e3 02       		.byte	0x2
 1904 08e4 91       		.byte	0x91
 1905 08e5 68       		.sleb128 -24
 1906 08e6 1A       		.uleb128 0x1a
 1907 08e7 79030000 		.4byte	.LASF113
 1908 08eb 01       		.byte	0x1
 1909 08ec 95       		.byte	0x95
 1910 08ed FE000000 		.4byte	0xfe
 1911 08f1 02       		.byte	0x2
 1912 08f2 91       		.byte	0x91
 1913 08f3 64       		.sleb128 -28
 1914 08f4 1C       		.uleb128 0x1c
 1915 08f5 6D736700 		.ascii	"msg\000"
 1916 08f9 01       		.byte	0x1
 1917 08fa 96       		.byte	0x96
 1918 08fb E8000000 		.4byte	0xe8
 1919 08ff 02       		.byte	0x2
 1920 0900 91       		.byte	0x91
 1921 0901 74       		.sleb128 -12
 1922 0902 1D       		.uleb128 0x1d
 1923 0903 38000000 		.4byte	.LBB6
 1924 0907 A0000000 		.4byte	.LBE6
 1925 090b 1C       		.uleb128 0x1c
 1926 090c 6E6F7700 		.ascii	"now\000"
 1927 0910 01       		.byte	0x1
 1928 0911 9F       		.byte	0x9f
 1929 0912 FE000000 		.4byte	0xfe
 1930 0916 02       		.byte	0x2
 1931 0917 91       		.byte	0x91
 1932 0918 70       		.sleb128 -16
 1933 0919 1B       		.uleb128 0x1b
 1934 091a 38000000 		.4byte	.LBB7
 1935 091e 40000000 		.4byte	.LBE7
 1936 0922 34090000 		.4byte	0x934
 1937 0926 1C       		.uleb128 0x1c
 1938 0927 746D7000 		.ascii	"tmp\000"
 1939 092b 01       		.byte	0x1
 1940 092c 9E       		.byte	0x9e
ARM GAS  /tmp/cc2D4mTg.s 			page 36


 1941 092d 7B000000 		.4byte	0x7b
 1942 0931 01       		.byte	0x1
 1943 0932 53       		.byte	0x53
 1944 0933 00       		.byte	0
 1945 0934 1B       		.uleb128 0x1b
 1946 0935 6E000000 		.4byte	.LBB8
 1947 0939 76000000 		.4byte	.LBE8
 1948 093d 4F090000 		.4byte	0x94f
 1949 0941 1C       		.uleb128 0x1c
 1950 0942 746D7000 		.ascii	"tmp\000"
 1951 0946 01       		.byte	0x1
 1952 0947 A1       		.byte	0xa1
 1953 0948 7B000000 		.4byte	0x7b
 1954 094c 01       		.byte	0x1
 1955 094d 53       		.byte	0x53
 1956 094e 00       		.byte	0
 1957 094f 1D       		.uleb128 0x1d
 1958 0950 98000000 		.4byte	.LBB9
 1959 0954 A0000000 		.4byte	.LBE9
 1960 0958 1C       		.uleb128 0x1c
 1961 0959 746D7000 		.ascii	"tmp\000"
 1962 095d 01       		.byte	0x1
 1963 095e A6       		.byte	0xa6
 1964 095f 7B000000 		.4byte	0x7b
 1965 0963 01       		.byte	0x1
 1966 0964 53       		.byte	0x53
 1967 0965 00       		.byte	0
 1968 0966 00       		.byte	0
 1969 0967 00       		.byte	0
 1970 0968 09       		.uleb128 0x9
 1971 0969 04       		.byte	0x4
 1972 096a 59070000 		.4byte	0x759
 1973 096e 19       		.uleb128 0x19
 1974 096f 01       		.byte	0x1
 1975 0970 7E000000 		.4byte	.LASF114
 1976 0974 01       		.byte	0x1
 1977 0975 B3       		.byte	0xb3
 1978 0976 01       		.byte	0x1
 1979 0977 00000000 		.4byte	.LFB68
 1980 097b 22000000 		.4byte	.LFE68
 1981 097f D0000000 		.4byte	.LLST5
 1982 0983 96090000 		.4byte	0x996
 1983 0987 1F       		.uleb128 0x1f
 1984 0988 74647000 		.ascii	"tdp\000"
 1985 098c 01       		.byte	0x1
 1986 098d B3       		.byte	0xb3
 1987 098e 68090000 		.4byte	0x968
 1988 0992 02       		.byte	0x2
 1989 0993 91       		.byte	0x91
 1990 0994 74       		.sleb128 -12
 1991 0995 00       		.byte	0
 1992 0996 1E       		.uleb128 0x1e
 1993 0997 01       		.byte	0x1
 1994 0998 16030000 		.4byte	.LASF116
 1995 099c 01       		.byte	0x1
 1996 099d CD       		.byte	0xcd
 1997 099e 01       		.byte	0x1
ARM GAS  /tmp/cc2D4mTg.s 			page 37


 1998 099f E8000000 		.4byte	0xe8
 1999 09a3 00000000 		.4byte	.LFB69
 2000 09a7 C0000000 		.4byte	.LFE69
 2001 09ab FC000000 		.4byte	.LLST6
 2002 09af 510A0000 		.4byte	0xa51
 2003 09b3 1A       		.uleb128 0x1a
 2004 09b4 57010000 		.4byte	.LASF111
 2005 09b8 01       		.byte	0x1
 2006 09b9 CD       		.byte	0xcd
 2007 09ba E5070000 		.4byte	0x7e5
 2008 09be 02       		.byte	0x2
 2009 09bf 91       		.byte	0x91
 2010 09c0 6C       		.sleb128 -20
 2011 09c1 1F       		.uleb128 0x1f
 2012 09c2 72647000 		.ascii	"rdp\000"
 2013 09c6 01       		.byte	0x1
 2014 09c7 CE       		.byte	0xce
 2015 09c8 510A0000 		.4byte	0xa51
 2016 09cc 02       		.byte	0x2
 2017 09cd 91       		.byte	0x91
 2018 09ce 68       		.sleb128 -24
 2019 09cf 1A       		.uleb128 0x1a
 2020 09d0 79030000 		.4byte	.LASF113
 2021 09d4 01       		.byte	0x1
 2022 09d5 CF       		.byte	0xcf
 2023 09d6 FE000000 		.4byte	0xfe
 2024 09da 02       		.byte	0x2
 2025 09db 91       		.byte	0x91
 2026 09dc 64       		.sleb128 -28
 2027 09dd 1C       		.uleb128 0x1c
 2028 09de 6D736700 		.ascii	"msg\000"
 2029 09e2 01       		.byte	0x1
 2030 09e3 D0       		.byte	0xd0
 2031 09e4 E8000000 		.4byte	0xe8
 2032 09e8 02       		.byte	0x2
 2033 09e9 91       		.byte	0x91
 2034 09ea 74       		.sleb128 -12
 2035 09eb 1D       		.uleb128 0x1d
 2036 09ec 38000000 		.4byte	.LBB10
 2037 09f0 A0000000 		.4byte	.LBE10
 2038 09f4 1C       		.uleb128 0x1c
 2039 09f5 6E6F7700 		.ascii	"now\000"
 2040 09f9 01       		.byte	0x1
 2041 09fa D9       		.byte	0xd9
 2042 09fb FE000000 		.4byte	0xfe
 2043 09ff 02       		.byte	0x2
 2044 0a00 91       		.byte	0x91
 2045 0a01 70       		.sleb128 -16
 2046 0a02 1B       		.uleb128 0x1b
 2047 0a03 38000000 		.4byte	.LBB11
 2048 0a07 40000000 		.4byte	.LBE11
 2049 0a0b 1D0A0000 		.4byte	0xa1d
 2050 0a0f 1C       		.uleb128 0x1c
 2051 0a10 746D7000 		.ascii	"tmp\000"
 2052 0a14 01       		.byte	0x1
 2053 0a15 D8       		.byte	0xd8
 2054 0a16 7B000000 		.4byte	0x7b
ARM GAS  /tmp/cc2D4mTg.s 			page 38


 2055 0a1a 01       		.byte	0x1
 2056 0a1b 53       		.byte	0x53
 2057 0a1c 00       		.byte	0
 2058 0a1d 1B       		.uleb128 0x1b
 2059 0a1e 6E000000 		.4byte	.LBB12
 2060 0a22 76000000 		.4byte	.LBE12
 2061 0a26 380A0000 		.4byte	0xa38
 2062 0a2a 1C       		.uleb128 0x1c
 2063 0a2b 746D7000 		.ascii	"tmp\000"
 2064 0a2f 01       		.byte	0x1
 2065 0a30 DB       		.byte	0xdb
 2066 0a31 7B000000 		.4byte	0x7b
 2067 0a35 01       		.byte	0x1
 2068 0a36 53       		.byte	0x53
 2069 0a37 00       		.byte	0
 2070 0a38 1D       		.uleb128 0x1d
 2071 0a39 98000000 		.4byte	.LBB13
 2072 0a3d A0000000 		.4byte	.LBE13
 2073 0a41 1C       		.uleb128 0x1c
 2074 0a42 746D7000 		.ascii	"tmp\000"
 2075 0a46 01       		.byte	0x1
 2076 0a47 E0       		.byte	0xe0
 2077 0a48 7B000000 		.4byte	0x7b
 2078 0a4c 01       		.byte	0x1
 2079 0a4d 53       		.byte	0x53
 2080 0a4e 00       		.byte	0
 2081 0a4f 00       		.byte	0
 2082 0a50 00       		.byte	0
 2083 0a51 09       		.uleb128 0x9
 2084 0a52 04       		.byte	0x4
 2085 0a53 9C070000 		.4byte	0x79c
 2086 0a57 19       		.uleb128 0x19
 2087 0a58 01       		.byte	0x1
 2088 0a59 CB040000 		.4byte	.LASF117
 2089 0a5d 01       		.byte	0x1
 2090 0a5e EE       		.byte	0xee
 2091 0a5f 01       		.byte	0x1
 2092 0a60 00000000 		.4byte	.LFB70
 2093 0a64 22000000 		.4byte	.LFE70
 2094 0a68 28010000 		.4byte	.LLST7
 2095 0a6c 7F0A0000 		.4byte	0xa7f
 2096 0a70 1F       		.uleb128 0x1f
 2097 0a71 72647000 		.ascii	"rdp\000"
 2098 0a75 01       		.byte	0x1
 2099 0a76 EE       		.byte	0xee
 2100 0a77 510A0000 		.4byte	0xa51
 2101 0a7b 02       		.byte	0x2
 2102 0a7c 91       		.byte	0x91
 2103 0a7d 74       		.sleb128 -12
 2104 0a7e 00       		.byte	0
 2105 0a7f 1E       		.uleb128 0x1e
 2106 0a80 01       		.byte	0x1
 2107 0a81 26020000 		.4byte	.LASF118
 2108 0a85 01       		.byte	0x1
 2109 0a86 FF       		.byte	0xff
 2110 0a87 01       		.byte	0x1
 2111 0a88 A6000000 		.4byte	0xa6
ARM GAS  /tmp/cc2D4mTg.s 			page 39


 2112 0a8c 00000000 		.4byte	.LFB71
 2113 0a90 3A000000 		.4byte	.LFE71
 2114 0a94 54010000 		.4byte	.LLST8
 2115 0a98 AB0A0000 		.4byte	0xaab
 2116 0a9c 1A       		.uleb128 0x1a
 2117 0a9d 57010000 		.4byte	.LASF111
 2118 0aa1 01       		.byte	0x1
 2119 0aa2 FF       		.byte	0xff
 2120 0aa3 E5070000 		.4byte	0x7e5
 2121 0aa7 02       		.byte	0x2
 2122 0aa8 91       		.byte	0x91
 2123 0aa9 74       		.sleb128 -12
 2124 0aaa 00       		.byte	0
 2125 0aab 20       		.uleb128 0x20
 2126 0aac 9B000000 		.4byte	.LASF119
 2127 0ab0 08       		.byte	0x8
 2128 0ab1 D1       		.byte	0xd1
 2129 0ab2 3F040000 		.4byte	0x43f
 2130 0ab6 01       		.byte	0x1
 2131 0ab7 01       		.byte	0x1
 2132 0ab8 21       		.uleb128 0x21
 2133 0ab9 D8000000 		.4byte	.LASF120
 2134 0abd 0E       		.byte	0xe
 2135 0abe 0706     		.2byte	0x607
 2136 0ac0 8D050000 		.4byte	0x58d
 2137 0ac4 01       		.byte	0x1
 2138 0ac5 01       		.byte	0x1
 2139 0ac6 20       		.uleb128 0x20
 2140 0ac7 9B000000 		.4byte	.LASF119
 2141 0acb 08       		.byte	0x8
 2142 0acc D1       		.byte	0xd1
 2143 0acd 3F040000 		.4byte	0x43f
 2144 0ad1 01       		.byte	0x1
 2145 0ad2 01       		.byte	0x1
 2146 0ad3 21       		.uleb128 0x21
 2147 0ad4 D8000000 		.4byte	.LASF120
 2148 0ad8 0E       		.byte	0xe
 2149 0ad9 0706     		.2byte	0x607
 2150 0adb 8D050000 		.4byte	0x58d
 2151 0adf 01       		.byte	0x1
 2152 0ae0 01       		.byte	0x1
 2153 0ae1 00       		.byte	0
 2154              		.section	.debug_abbrev,"",%progbits
 2155              	.Ldebug_abbrev0:
 2156 0000 01       		.uleb128 0x1
 2157 0001 11       		.uleb128 0x11
 2158 0002 01       		.byte	0x1
 2159 0003 25       		.uleb128 0x25
 2160 0004 0E       		.uleb128 0xe
 2161 0005 13       		.uleb128 0x13
 2162 0006 0B       		.uleb128 0xb
 2163 0007 03       		.uleb128 0x3
 2164 0008 0E       		.uleb128 0xe
 2165 0009 1B       		.uleb128 0x1b
 2166 000a 0E       		.uleb128 0xe
 2167 000b 11       		.uleb128 0x11
 2168 000c 01       		.uleb128 0x1
ARM GAS  /tmp/cc2D4mTg.s 			page 40


 2169 000d 52       		.uleb128 0x52
 2170 000e 01       		.uleb128 0x1
 2171 000f 55       		.uleb128 0x55
 2172 0010 06       		.uleb128 0x6
 2173 0011 10       		.uleb128 0x10
 2174 0012 06       		.uleb128 0x6
 2175 0013 00       		.byte	0
 2176 0014 00       		.byte	0
 2177 0015 02       		.uleb128 0x2
 2178 0016 24       		.uleb128 0x24
 2179 0017 00       		.byte	0
 2180 0018 0B       		.uleb128 0xb
 2181 0019 0B       		.uleb128 0xb
 2182 001a 3E       		.uleb128 0x3e
 2183 001b 0B       		.uleb128 0xb
 2184 001c 03       		.uleb128 0x3
 2185 001d 08       		.uleb128 0x8
 2186 001e 00       		.byte	0
 2187 001f 00       		.byte	0
 2188 0020 03       		.uleb128 0x3
 2189 0021 16       		.uleb128 0x16
 2190 0022 00       		.byte	0
 2191 0023 03       		.uleb128 0x3
 2192 0024 0E       		.uleb128 0xe
 2193 0025 3A       		.uleb128 0x3a
 2194 0026 0B       		.uleb128 0xb
 2195 0027 3B       		.uleb128 0x3b
 2196 0028 0B       		.uleb128 0xb
 2197 0029 49       		.uleb128 0x49
 2198 002a 13       		.uleb128 0x13
 2199 002b 00       		.byte	0
 2200 002c 00       		.byte	0
 2201 002d 04       		.uleb128 0x4
 2202 002e 24       		.uleb128 0x24
 2203 002f 00       		.byte	0
 2204 0030 0B       		.uleb128 0xb
 2205 0031 0B       		.uleb128 0xb
 2206 0032 3E       		.uleb128 0x3e
 2207 0033 0B       		.uleb128 0xb
 2208 0034 03       		.uleb128 0x3
 2209 0035 0E       		.uleb128 0xe
 2210 0036 00       		.byte	0
 2211 0037 00       		.byte	0
 2212 0038 05       		.uleb128 0x5
 2213 0039 13       		.uleb128 0x13
 2214 003a 01       		.byte	0x1
 2215 003b 03       		.uleb128 0x3
 2216 003c 0E       		.uleb128 0xe
 2217 003d 0B       		.uleb128 0xb
 2218 003e 0B       		.uleb128 0xb
 2219 003f 3A       		.uleb128 0x3a
 2220 0040 0B       		.uleb128 0xb
 2221 0041 3B       		.uleb128 0x3b
 2222 0042 0B       		.uleb128 0xb
 2223 0043 01       		.uleb128 0x1
 2224 0044 13       		.uleb128 0x13
 2225 0045 00       		.byte	0
ARM GAS  /tmp/cc2D4mTg.s 			page 41


 2226 0046 00       		.byte	0
 2227 0047 06       		.uleb128 0x6
 2228 0048 0D       		.uleb128 0xd
 2229 0049 00       		.byte	0
 2230 004a 03       		.uleb128 0x3
 2231 004b 0E       		.uleb128 0xe
 2232 004c 3A       		.uleb128 0x3a
 2233 004d 0B       		.uleb128 0xb
 2234 004e 3B       		.uleb128 0x3b
 2235 004f 0B       		.uleb128 0xb
 2236 0050 49       		.uleb128 0x49
 2237 0051 13       		.uleb128 0x13
 2238 0052 38       		.uleb128 0x38
 2239 0053 0A       		.uleb128 0xa
 2240 0054 00       		.byte	0
 2241 0055 00       		.byte	0
 2242 0056 07       		.uleb128 0x7
 2243 0057 0D       		.uleb128 0xd
 2244 0058 00       		.byte	0
 2245 0059 03       		.uleb128 0x3
 2246 005a 08       		.uleb128 0x8
 2247 005b 3A       		.uleb128 0x3a
 2248 005c 0B       		.uleb128 0xb
 2249 005d 3B       		.uleb128 0x3b
 2250 005e 0B       		.uleb128 0xb
 2251 005f 49       		.uleb128 0x49
 2252 0060 13       		.uleb128 0x13
 2253 0061 38       		.uleb128 0x38
 2254 0062 0A       		.uleb128 0xa
 2255 0063 00       		.byte	0
 2256 0064 00       		.byte	0
 2257 0065 08       		.uleb128 0x8
 2258 0066 13       		.uleb128 0x13
 2259 0067 01       		.byte	0x1
 2260 0068 0B       		.uleb128 0xb
 2261 0069 0B       		.uleb128 0xb
 2262 006a 3A       		.uleb128 0x3a
 2263 006b 0B       		.uleb128 0xb
 2264 006c 3B       		.uleb128 0x3b
 2265 006d 0B       		.uleb128 0xb
 2266 006e 01       		.uleb128 0x1
 2267 006f 13       		.uleb128 0x13
 2268 0070 00       		.byte	0
 2269 0071 00       		.byte	0
 2270 0072 09       		.uleb128 0x9
 2271 0073 0F       		.uleb128 0xf
 2272 0074 00       		.byte	0
 2273 0075 0B       		.uleb128 0xb
 2274 0076 0B       		.uleb128 0xb
 2275 0077 49       		.uleb128 0x49
 2276 0078 13       		.uleb128 0x13
 2277 0079 00       		.byte	0
 2278 007a 00       		.byte	0
 2279 007b 0A       		.uleb128 0xa
 2280 007c 0F       		.uleb128 0xf
 2281 007d 00       		.byte	0
 2282 007e 0B       		.uleb128 0xb
ARM GAS  /tmp/cc2D4mTg.s 			page 42


 2283 007f 0B       		.uleb128 0xb
 2284 0080 00       		.byte	0
 2285 0081 00       		.byte	0
 2286 0082 0B       		.uleb128 0xb
 2287 0083 13       		.uleb128 0x13
 2288 0084 01       		.byte	0x1
 2289 0085 03       		.uleb128 0x3
 2290 0086 0E       		.uleb128 0xe
 2291 0087 0B       		.uleb128 0xb
 2292 0088 0B       		.uleb128 0xb
 2293 0089 3A       		.uleb128 0x3a
 2294 008a 0B       		.uleb128 0xb
 2295 008b 3B       		.uleb128 0x3b
 2296 008c 05       		.uleb128 0x5
 2297 008d 01       		.uleb128 0x1
 2298 008e 13       		.uleb128 0x13
 2299 008f 00       		.byte	0
 2300 0090 00       		.byte	0
 2301 0091 0C       		.uleb128 0xc
 2302 0092 0D       		.uleb128 0xd
 2303 0093 00       		.byte	0
 2304 0094 03       		.uleb128 0x3
 2305 0095 08       		.uleb128 0x8
 2306 0096 3A       		.uleb128 0x3a
 2307 0097 0B       		.uleb128 0xb
 2308 0098 3B       		.uleb128 0x3b
 2309 0099 05       		.uleb128 0x5
 2310 009a 49       		.uleb128 0x49
 2311 009b 13       		.uleb128 0x13
 2312 009c 38       		.uleb128 0x38
 2313 009d 0A       		.uleb128 0xa
 2314 009e 00       		.byte	0
 2315 009f 00       		.byte	0
 2316 00a0 0D       		.uleb128 0xd
 2317 00a1 35       		.uleb128 0x35
 2318 00a2 00       		.byte	0
 2319 00a3 49       		.uleb128 0x49
 2320 00a4 13       		.uleb128 0x13
 2321 00a5 00       		.byte	0
 2322 00a6 00       		.byte	0
 2323 00a7 0E       		.uleb128 0xe
 2324 00a8 15       		.uleb128 0x15
 2325 00a9 01       		.byte	0x1
 2326 00aa 27       		.uleb128 0x27
 2327 00ab 0C       		.uleb128 0xc
 2328 00ac 01       		.uleb128 0x1
 2329 00ad 13       		.uleb128 0x13
 2330 00ae 00       		.byte	0
 2331 00af 00       		.byte	0
 2332 00b0 0F       		.uleb128 0xf
 2333 00b1 05       		.uleb128 0x5
 2334 00b2 00       		.byte	0
 2335 00b3 49       		.uleb128 0x49
 2336 00b4 13       		.uleb128 0x13
 2337 00b5 00       		.byte	0
 2338 00b6 00       		.byte	0
 2339 00b7 10       		.uleb128 0x10
ARM GAS  /tmp/cc2D4mTg.s 			page 43


 2340 00b8 17       		.uleb128 0x17
 2341 00b9 01       		.byte	0x1
 2342 00ba 0B       		.uleb128 0xb
 2343 00bb 0B       		.uleb128 0xb
 2344 00bc 3A       		.uleb128 0x3a
 2345 00bd 0B       		.uleb128 0xb
 2346 00be 3B       		.uleb128 0x3b
 2347 00bf 0B       		.uleb128 0xb
 2348 00c0 01       		.uleb128 0x1
 2349 00c1 13       		.uleb128 0x13
 2350 00c2 00       		.byte	0
 2351 00c3 00       		.byte	0
 2352 00c4 11       		.uleb128 0x11
 2353 00c5 0D       		.uleb128 0xd
 2354 00c6 00       		.byte	0
 2355 00c7 03       		.uleb128 0x3
 2356 00c8 0E       		.uleb128 0xe
 2357 00c9 3A       		.uleb128 0x3a
 2358 00ca 0B       		.uleb128 0xb
 2359 00cb 3B       		.uleb128 0x3b
 2360 00cc 0B       		.uleb128 0xb
 2361 00cd 49       		.uleb128 0x49
 2362 00ce 13       		.uleb128 0x13
 2363 00cf 00       		.byte	0
 2364 00d0 00       		.byte	0
 2365 00d1 12       		.uleb128 0x12
 2366 00d2 26       		.uleb128 0x26
 2367 00d3 00       		.byte	0
 2368 00d4 49       		.uleb128 0x49
 2369 00d5 13       		.uleb128 0x13
 2370 00d6 00       		.byte	0
 2371 00d7 00       		.byte	0
 2372 00d8 13       		.uleb128 0x13
 2373 00d9 04       		.uleb128 0x4
 2374 00da 01       		.byte	0x1
 2375 00db 0B       		.uleb128 0xb
 2376 00dc 0B       		.uleb128 0xb
 2377 00dd 3A       		.uleb128 0x3a
 2378 00de 0B       		.uleb128 0xb
 2379 00df 3B       		.uleb128 0x3b
 2380 00e0 0B       		.uleb128 0xb
 2381 00e1 01       		.uleb128 0x1
 2382 00e2 13       		.uleb128 0x13
 2383 00e3 00       		.byte	0
 2384 00e4 00       		.byte	0
 2385 00e5 14       		.uleb128 0x14
 2386 00e6 28       		.uleb128 0x28
 2387 00e7 00       		.byte	0
 2388 00e8 03       		.uleb128 0x3
 2389 00e9 0E       		.uleb128 0xe
 2390 00ea 1C       		.uleb128 0x1c
 2391 00eb 0D       		.uleb128 0xd
 2392 00ec 00       		.byte	0
 2393 00ed 00       		.byte	0
 2394 00ee 15       		.uleb128 0x15
 2395 00ef 0D       		.uleb128 0xd
 2396 00f0 00       		.byte	0
ARM GAS  /tmp/cc2D4mTg.s 			page 44


 2397 00f1 03       		.uleb128 0x3
 2398 00f2 0E       		.uleb128 0xe
 2399 00f3 3A       		.uleb128 0x3a
 2400 00f4 0B       		.uleb128 0xb
 2401 00f5 3B       		.uleb128 0x3b
 2402 00f6 05       		.uleb128 0x5
 2403 00f7 49       		.uleb128 0x49
 2404 00f8 13       		.uleb128 0x13
 2405 00f9 38       		.uleb128 0x38
 2406 00fa 0A       		.uleb128 0xa
 2407 00fb 00       		.byte	0
 2408 00fc 00       		.byte	0
 2409 00fd 16       		.uleb128 0x16
 2410 00fe 13       		.uleb128 0x13
 2411 00ff 01       		.byte	0x1
 2412 0100 0B       		.uleb128 0xb
 2413 0101 0B       		.uleb128 0xb
 2414 0102 3A       		.uleb128 0x3a
 2415 0103 0B       		.uleb128 0xb
 2416 0104 3B       		.uleb128 0x3b
 2417 0105 05       		.uleb128 0x5
 2418 0106 01       		.uleb128 0x1
 2419 0107 13       		.uleb128 0x13
 2420 0108 00       		.byte	0
 2421 0109 00       		.byte	0
 2422 010a 17       		.uleb128 0x17
 2423 010b 16       		.uleb128 0x16
 2424 010c 00       		.byte	0
 2425 010d 03       		.uleb128 0x3
 2426 010e 0E       		.uleb128 0xe
 2427 010f 3A       		.uleb128 0x3a
 2428 0110 0B       		.uleb128 0xb
 2429 0111 3B       		.uleb128 0x3b
 2430 0112 05       		.uleb128 0x5
 2431 0113 49       		.uleb128 0x49
 2432 0114 13       		.uleb128 0x13
 2433 0115 00       		.byte	0
 2434 0116 00       		.byte	0
 2435 0117 18       		.uleb128 0x18
 2436 0118 2E       		.uleb128 0x2e
 2437 0119 00       		.byte	0
 2438 011a 3F       		.uleb128 0x3f
 2439 011b 0C       		.uleb128 0xc
 2440 011c 03       		.uleb128 0x3
 2441 011d 0E       		.uleb128 0xe
 2442 011e 3A       		.uleb128 0x3a
 2443 011f 0B       		.uleb128 0xb
 2444 0120 3B       		.uleb128 0x3b
 2445 0121 0B       		.uleb128 0xb
 2446 0122 27       		.uleb128 0x27
 2447 0123 0C       		.uleb128 0xc
 2448 0124 11       		.uleb128 0x11
 2449 0125 01       		.uleb128 0x1
 2450 0126 12       		.uleb128 0x12
 2451 0127 01       		.uleb128 0x1
 2452 0128 40       		.uleb128 0x40
 2453 0129 06       		.uleb128 0x6
ARM GAS  /tmp/cc2D4mTg.s 			page 45


 2454 012a 00       		.byte	0
 2455 012b 00       		.byte	0
 2456 012c 19       		.uleb128 0x19
 2457 012d 2E       		.uleb128 0x2e
 2458 012e 01       		.byte	0x1
 2459 012f 3F       		.uleb128 0x3f
 2460 0130 0C       		.uleb128 0xc
 2461 0131 03       		.uleb128 0x3
 2462 0132 0E       		.uleb128 0xe
 2463 0133 3A       		.uleb128 0x3a
 2464 0134 0B       		.uleb128 0xb
 2465 0135 3B       		.uleb128 0x3b
 2466 0136 0B       		.uleb128 0xb
 2467 0137 27       		.uleb128 0x27
 2468 0138 0C       		.uleb128 0xc
 2469 0139 11       		.uleb128 0x11
 2470 013a 01       		.uleb128 0x1
 2471 013b 12       		.uleb128 0x12
 2472 013c 01       		.uleb128 0x1
 2473 013d 40       		.uleb128 0x40
 2474 013e 06       		.uleb128 0x6
 2475 013f 01       		.uleb128 0x1
 2476 0140 13       		.uleb128 0x13
 2477 0141 00       		.byte	0
 2478 0142 00       		.byte	0
 2479 0143 1A       		.uleb128 0x1a
 2480 0144 05       		.uleb128 0x5
 2481 0145 00       		.byte	0
 2482 0146 03       		.uleb128 0x3
 2483 0147 0E       		.uleb128 0xe
 2484 0148 3A       		.uleb128 0x3a
 2485 0149 0B       		.uleb128 0xb
 2486 014a 3B       		.uleb128 0x3b
 2487 014b 0B       		.uleb128 0xb
 2488 014c 49       		.uleb128 0x49
 2489 014d 13       		.uleb128 0x13
 2490 014e 02       		.uleb128 0x2
 2491 014f 0A       		.uleb128 0xa
 2492 0150 00       		.byte	0
 2493 0151 00       		.byte	0
 2494 0152 1B       		.uleb128 0x1b
 2495 0153 0B       		.uleb128 0xb
 2496 0154 01       		.byte	0x1
 2497 0155 11       		.uleb128 0x11
 2498 0156 01       		.uleb128 0x1
 2499 0157 12       		.uleb128 0x12
 2500 0158 01       		.uleb128 0x1
 2501 0159 01       		.uleb128 0x1
 2502 015a 13       		.uleb128 0x13
 2503 015b 00       		.byte	0
 2504 015c 00       		.byte	0
 2505 015d 1C       		.uleb128 0x1c
 2506 015e 34       		.uleb128 0x34
 2507 015f 00       		.byte	0
 2508 0160 03       		.uleb128 0x3
 2509 0161 08       		.uleb128 0x8
 2510 0162 3A       		.uleb128 0x3a
ARM GAS  /tmp/cc2D4mTg.s 			page 46


 2511 0163 0B       		.uleb128 0xb
 2512 0164 3B       		.uleb128 0x3b
 2513 0165 0B       		.uleb128 0xb
 2514 0166 49       		.uleb128 0x49
 2515 0167 13       		.uleb128 0x13
 2516 0168 02       		.uleb128 0x2
 2517 0169 0A       		.uleb128 0xa
 2518 016a 00       		.byte	0
 2519 016b 00       		.byte	0
 2520 016c 1D       		.uleb128 0x1d
 2521 016d 0B       		.uleb128 0xb
 2522 016e 01       		.byte	0x1
 2523 016f 11       		.uleb128 0x11
 2524 0170 01       		.uleb128 0x1
 2525 0171 12       		.uleb128 0x12
 2526 0172 01       		.uleb128 0x1
 2527 0173 00       		.byte	0
 2528 0174 00       		.byte	0
 2529 0175 1E       		.uleb128 0x1e
 2530 0176 2E       		.uleb128 0x2e
 2531 0177 01       		.byte	0x1
 2532 0178 3F       		.uleb128 0x3f
 2533 0179 0C       		.uleb128 0xc
 2534 017a 03       		.uleb128 0x3
 2535 017b 0E       		.uleb128 0xe
 2536 017c 3A       		.uleb128 0x3a
 2537 017d 0B       		.uleb128 0xb
 2538 017e 3B       		.uleb128 0x3b
 2539 017f 0B       		.uleb128 0xb
 2540 0180 27       		.uleb128 0x27
 2541 0181 0C       		.uleb128 0xc
 2542 0182 49       		.uleb128 0x49
 2543 0183 13       		.uleb128 0x13
 2544 0184 11       		.uleb128 0x11
 2545 0185 01       		.uleb128 0x1
 2546 0186 12       		.uleb128 0x12
 2547 0187 01       		.uleb128 0x1
 2548 0188 40       		.uleb128 0x40
 2549 0189 06       		.uleb128 0x6
 2550 018a 01       		.uleb128 0x1
 2551 018b 13       		.uleb128 0x13
 2552 018c 00       		.byte	0
 2553 018d 00       		.byte	0
 2554 018e 1F       		.uleb128 0x1f
 2555 018f 05       		.uleb128 0x5
 2556 0190 00       		.byte	0
 2557 0191 03       		.uleb128 0x3
 2558 0192 08       		.uleb128 0x8
 2559 0193 3A       		.uleb128 0x3a
 2560 0194 0B       		.uleb128 0xb
 2561 0195 3B       		.uleb128 0x3b
 2562 0196 0B       		.uleb128 0xb
 2563 0197 49       		.uleb128 0x49
 2564 0198 13       		.uleb128 0x13
 2565 0199 02       		.uleb128 0x2
 2566 019a 0A       		.uleb128 0xa
 2567 019b 00       		.byte	0
ARM GAS  /tmp/cc2D4mTg.s 			page 47


 2568 019c 00       		.byte	0
 2569 019d 20       		.uleb128 0x20
 2570 019e 34       		.uleb128 0x34
 2571 019f 00       		.byte	0
 2572 01a0 03       		.uleb128 0x3
 2573 01a1 0E       		.uleb128 0xe
 2574 01a2 3A       		.uleb128 0x3a
 2575 01a3 0B       		.uleb128 0xb
 2576 01a4 3B       		.uleb128 0x3b
 2577 01a5 0B       		.uleb128 0xb
 2578 01a6 49       		.uleb128 0x49
 2579 01a7 13       		.uleb128 0x13
 2580 01a8 3F       		.uleb128 0x3f
 2581 01a9 0C       		.uleb128 0xc
 2582 01aa 3C       		.uleb128 0x3c
 2583 01ab 0C       		.uleb128 0xc
 2584 01ac 00       		.byte	0
 2585 01ad 00       		.byte	0
 2586 01ae 21       		.uleb128 0x21
 2587 01af 34       		.uleb128 0x34
 2588 01b0 00       		.byte	0
 2589 01b1 03       		.uleb128 0x3
 2590 01b2 0E       		.uleb128 0xe
 2591 01b3 3A       		.uleb128 0x3a
 2592 01b4 0B       		.uleb128 0xb
 2593 01b5 3B       		.uleb128 0x3b
 2594 01b6 05       		.uleb128 0x5
 2595 01b7 49       		.uleb128 0x49
 2596 01b8 13       		.uleb128 0x13
 2597 01b9 3F       		.uleb128 0x3f
 2598 01ba 0C       		.uleb128 0xc
 2599 01bb 3C       		.uleb128 0x3c
 2600 01bc 0C       		.uleb128 0xc
 2601 01bd 00       		.byte	0
 2602 01be 00       		.byte	0
 2603 01bf 00       		.byte	0
 2604              		.section	.debug_loc,"",%progbits
 2605              	.Ldebug_loc0:
 2606              	.LLST0:
 2607 0000 00000000 		.4byte	.LFB63
 2608 0004 02000000 		.4byte	.LCFI0
 2609 0008 0200     		.2byte	0x2
 2610 000a 7D       		.byte	0x7d
 2611 000b 00       		.sleb128 0
 2612 000c 02000000 		.4byte	.LCFI0
 2613 0010 08000000 		.4byte	.LFE63
 2614 0014 0200     		.2byte	0x2
 2615 0016 7D       		.byte	0x7d
 2616 0017 08       		.sleb128 8
 2617 0018 00000000 		.4byte	0
 2618 001c 00000000 		.4byte	0
 2619              	.LLST1:
 2620 0020 00000000 		.4byte	.LFB64
 2621 0024 02000000 		.4byte	.LCFI1
 2622 0028 0200     		.2byte	0x2
 2623 002a 7D       		.byte	0x7d
 2624 002b 00       		.sleb128 0
ARM GAS  /tmp/cc2D4mTg.s 			page 48


 2625 002c 02000000 		.4byte	.LCFI1
 2626 0030 04000000 		.4byte	.LCFI2
 2627 0034 0200     		.2byte	0x2
 2628 0036 7D       		.byte	0x7d
 2629 0037 04       		.sleb128 4
 2630 0038 04000000 		.4byte	.LCFI2
 2631 003c 44000000 		.4byte	.LFE64
 2632 0040 0200     		.2byte	0x2
 2633 0042 7D       		.byte	0x7d
 2634 0043 10       		.sleb128 16
 2635 0044 00000000 		.4byte	0
 2636 0048 00000000 		.4byte	0
 2637              	.LLST2:
 2638 004c 00000000 		.4byte	.LFB65
 2639 0050 02000000 		.4byte	.LCFI3
 2640 0054 0200     		.2byte	0x2
 2641 0056 7D       		.byte	0x7d
 2642 0057 00       		.sleb128 0
 2643 0058 02000000 		.4byte	.LCFI3
 2644 005c 04000000 		.4byte	.LCFI4
 2645 0060 0200     		.2byte	0x2
 2646 0062 7D       		.byte	0x7d
 2647 0063 04       		.sleb128 4
 2648 0064 04000000 		.4byte	.LCFI4
 2649 0068 64000000 		.4byte	.LFE65
 2650 006c 0200     		.2byte	0x2
 2651 006e 7D       		.byte	0x7d
 2652 006f 10       		.sleb128 16
 2653 0070 00000000 		.4byte	0
 2654 0074 00000000 		.4byte	0
 2655              	.LLST3:
 2656 0078 00000000 		.4byte	.LFB66
 2657 007c 02000000 		.4byte	.LCFI5
 2658 0080 0200     		.2byte	0x2
 2659 0082 7D       		.byte	0x7d
 2660 0083 00       		.sleb128 0
 2661 0084 02000000 		.4byte	.LCFI5
 2662 0088 04000000 		.4byte	.LCFI6
 2663 008c 0200     		.2byte	0x2
 2664 008e 7D       		.byte	0x7d
 2665 008f 04       		.sleb128 4
 2666 0090 04000000 		.4byte	.LCFI6
 2667 0094 5E000000 		.4byte	.LFE66
 2668 0098 0200     		.2byte	0x2
 2669 009a 7D       		.byte	0x7d
 2670 009b 10       		.sleb128 16
 2671 009c 00000000 		.4byte	0
 2672 00a0 00000000 		.4byte	0
 2673              	.LLST4:
 2674 00a4 00000000 		.4byte	.LFB67
 2675 00a8 02000000 		.4byte	.LCFI7
 2676 00ac 0200     		.2byte	0x2
 2677 00ae 7D       		.byte	0x7d
 2678 00af 00       		.sleb128 0
 2679 00b0 02000000 		.4byte	.LCFI7
 2680 00b4 04000000 		.4byte	.LCFI8
 2681 00b8 0200     		.2byte	0x2
ARM GAS  /tmp/cc2D4mTg.s 			page 49


 2682 00ba 7D       		.byte	0x7d
 2683 00bb 04       		.sleb128 4
 2684 00bc 04000000 		.4byte	.LCFI8
 2685 00c0 C0000000 		.4byte	.LFE67
 2686 00c4 0200     		.2byte	0x2
 2687 00c6 7D       		.byte	0x7d
 2688 00c7 20       		.sleb128 32
 2689 00c8 00000000 		.4byte	0
 2690 00cc 00000000 		.4byte	0
 2691              	.LLST5:
 2692 00d0 00000000 		.4byte	.LFB68
 2693 00d4 02000000 		.4byte	.LCFI9
 2694 00d8 0200     		.2byte	0x2
 2695 00da 7D       		.byte	0x7d
 2696 00db 00       		.sleb128 0
 2697 00dc 02000000 		.4byte	.LCFI9
 2698 00e0 04000000 		.4byte	.LCFI10
 2699 00e4 0200     		.2byte	0x2
 2700 00e6 7D       		.byte	0x7d
 2701 00e7 04       		.sleb128 4
 2702 00e8 04000000 		.4byte	.LCFI10
 2703 00ec 22000000 		.4byte	.LFE68
 2704 00f0 0200     		.2byte	0x2
 2705 00f2 7D       		.byte	0x7d
 2706 00f3 10       		.sleb128 16
 2707 00f4 00000000 		.4byte	0
 2708 00f8 00000000 		.4byte	0
 2709              	.LLST6:
 2710 00fc 00000000 		.4byte	.LFB69
 2711 0100 02000000 		.4byte	.LCFI11
 2712 0104 0200     		.2byte	0x2
 2713 0106 7D       		.byte	0x7d
 2714 0107 00       		.sleb128 0
 2715 0108 02000000 		.4byte	.LCFI11
 2716 010c 04000000 		.4byte	.LCFI12
 2717 0110 0200     		.2byte	0x2
 2718 0112 7D       		.byte	0x7d
 2719 0113 04       		.sleb128 4
 2720 0114 04000000 		.4byte	.LCFI12
 2721 0118 C0000000 		.4byte	.LFE69
 2722 011c 0200     		.2byte	0x2
 2723 011e 7D       		.byte	0x7d
 2724 011f 20       		.sleb128 32
 2725 0120 00000000 		.4byte	0
 2726 0124 00000000 		.4byte	0
 2727              	.LLST7:
 2728 0128 00000000 		.4byte	.LFB70
 2729 012c 02000000 		.4byte	.LCFI13
 2730 0130 0200     		.2byte	0x2
 2731 0132 7D       		.byte	0x7d
 2732 0133 00       		.sleb128 0
 2733 0134 02000000 		.4byte	.LCFI13
 2734 0138 04000000 		.4byte	.LCFI14
 2735 013c 0200     		.2byte	0x2
 2736 013e 7D       		.byte	0x7d
 2737 013f 04       		.sleb128 4
 2738 0140 04000000 		.4byte	.LCFI14
ARM GAS  /tmp/cc2D4mTg.s 			page 50


 2739 0144 22000000 		.4byte	.LFE70
 2740 0148 0200     		.2byte	0x2
 2741 014a 7D       		.byte	0x7d
 2742 014b 10       		.sleb128 16
 2743 014c 00000000 		.4byte	0
 2744 0150 00000000 		.4byte	0
 2745              	.LLST8:
 2746 0154 00000000 		.4byte	.LFB71
 2747 0158 02000000 		.4byte	.LCFI15
 2748 015c 0200     		.2byte	0x2
 2749 015e 7D       		.byte	0x7d
 2750 015f 00       		.sleb128 0
 2751 0160 02000000 		.4byte	.LCFI15
 2752 0164 04000000 		.4byte	.LCFI16
 2753 0168 0200     		.2byte	0x2
 2754 016a 7D       		.byte	0x7d
 2755 016b 04       		.sleb128 4
 2756 016c 04000000 		.4byte	.LCFI16
 2757 0170 3A000000 		.4byte	.LFE71
 2758 0174 0200     		.2byte	0x2
 2759 0176 7D       		.byte	0x7d
 2760 0177 10       		.sleb128 16
 2761 0178 00000000 		.4byte	0
 2762 017c 00000000 		.4byte	0
 2763              		.section	.debug_aranges,"",%progbits
 2764 0000 5C000000 		.4byte	0x5c
 2765 0004 0200     		.2byte	0x2
 2766 0006 00000000 		.4byte	.Ldebug_info0
 2767 000a 04       		.byte	0x4
 2768 000b 00       		.byte	0
 2769 000c 0000     		.2byte	0
 2770 000e 0000     		.2byte	0
 2771 0010 00000000 		.4byte	.LFB63
 2772 0014 08000000 		.4byte	.LFE63-.LFB63
 2773 0018 00000000 		.4byte	.LFB64
 2774 001c 44000000 		.4byte	.LFE64-.LFB64
 2775 0020 00000000 		.4byte	.LFB65
 2776 0024 64000000 		.4byte	.LFE65-.LFB65
 2777 0028 00000000 		.4byte	.LFB66
 2778 002c 5E000000 		.4byte	.LFE66-.LFB66
 2779 0030 00000000 		.4byte	.LFB67
 2780 0034 C0000000 		.4byte	.LFE67-.LFB67
 2781 0038 00000000 		.4byte	.LFB68
 2782 003c 22000000 		.4byte	.LFE68-.LFB68
 2783 0040 00000000 		.4byte	.LFB69
 2784 0044 C0000000 		.4byte	.LFE69-.LFB69
 2785 0048 00000000 		.4byte	.LFB70
 2786 004c 22000000 		.4byte	.LFE70-.LFB70
 2787 0050 00000000 		.4byte	.LFB71
 2788 0054 3A000000 		.4byte	.LFE71-.LFB71
 2789 0058 00000000 		.4byte	0
 2790 005c 00000000 		.4byte	0
 2791              		.section	.debug_ranges,"",%progbits
 2792              	.Ldebug_ranges0:
 2793 0000 00000000 		.4byte	.LFB63
 2794 0004 08000000 		.4byte	.LFE63
 2795 0008 00000000 		.4byte	.LFB64
ARM GAS  /tmp/cc2D4mTg.s 			page 51


 2796 000c 44000000 		.4byte	.LFE64
 2797 0010 00000000 		.4byte	.LFB65
 2798 0014 64000000 		.4byte	.LFE65
 2799 0018 00000000 		.4byte	.LFB66
 2800 001c 5E000000 		.4byte	.LFE66
 2801 0020 00000000 		.4byte	.LFB67
 2802 0024 C0000000 		.4byte	.LFE67
 2803 0028 00000000 		.4byte	.LFB68
 2804 002c 22000000 		.4byte	.LFE68
 2805 0030 00000000 		.4byte	.LFB69
 2806 0034 C0000000 		.4byte	.LFE69
 2807 0038 00000000 		.4byte	.LFB70
 2808 003c 22000000 		.4byte	.LFE70
 2809 0040 00000000 		.4byte	.LFB71
 2810 0044 3A000000 		.4byte	.LFE71
 2811 0048 00000000 		.4byte	0
 2812 004c 00000000 		.4byte	0
 2813              		.section	.debug_line,"",%progbits
 2814              	.Ldebug_line0:
 2815 0000 B0030000 		.section	.debug_str,"MS",%progbits,1
 2815      02004F02 
 2815      00000201 
 2815      FB0E0D00 
 2815      01010101 
 2816              	.LASF2:
 2817 0000 73697A65 		.ascii	"size_t\000"
 2817      5F7400
 2818              	.LASF73:
 2819 0007 7264796D 		.ascii	"rdymsg\000"
 2819      736700
 2820              	.LASF106:
 2821 000e 70687973 		.ascii	"physdesc\000"
 2821      64657363 
 2821      00
 2822              	.LASF123:
 2823 0017 2F686F6D 		.ascii	"/home/texzk/ChibiStudio/chibios/demos/ARMCM3-STM32F"
 2823      652F7465 
 2823      787A6B2F 
 2823      43686962 
 2823      69537475 
 2824 004a 3230372D 		.ascii	"207-STM3220G-LWIP\000"
 2824      53544D33 
 2824      32323047 
 2824      2D4C5749 
 2824      5000
 2825              	.LASF12:
 2826 005c 75696E74 		.ascii	"uint64_t\000"
 2826      36345F74 
 2826      00
 2827              	.LASF100:
 2828 0065 74646573 		.ascii	"tdes3\000"
 2828      3300
 2829              	.LASF82:
 2830 006b 4D414344 		.ascii	"MACDriver\000"
 2830      72697665 
 2830      7200
 2831              	.LASF110:
ARM GAS  /tmp/cc2D4mTg.s 			page 52


 2832 0075 6D616353 		.ascii	"macStart\000"
 2832      74617274 
 2832      00
 2833              	.LASF114:
 2834 007e 6D616352 		.ascii	"macReleaseTransmitDescriptor\000"
 2834      656C6561 
 2834      73655472 
 2834      616E736D 
 2834      69744465 
 2835              	.LASF119:
 2836 009b 76746C69 		.ascii	"vtlist\000"
 2836      737400
 2837              	.LASF13:
 2838 00a2 6C6F6E67 		.ascii	"long long unsigned int\000"
 2838      206C6F6E 
 2838      6720756E 
 2838      7369676E 
 2838      65642069 
 2839              	.LASF88:
 2840 00b9 6C696E6B 		.ascii	"link_up\000"
 2840      5F757000 
 2841              	.LASF74:
 2842 00c1 65786974 		.ascii	"exitcode\000"
 2842      636F6465 
 2842      00
 2843              	.LASF87:
 2844 00ca 72646576 		.ascii	"rdevent\000"
 2844      656E7400 
 2845              	.LASF86:
 2846 00d2 72647365 		.ascii	"rdsem\000"
 2846      6D00
 2847              	.LASF120:
 2848 00d8 49544D5F 		.ascii	"ITM_RxBuffer\000"
 2848      52784275 
 2848      66666572 
 2848      00
 2849              	.LASF27:
 2850 00e5 705F7072 		.ascii	"p_prio\000"
 2850      696F00
 2851              	.LASF107:
 2852 00ec 4D414354 		.ascii	"MACTransmitDescriptor\000"
 2852      72616E73 
 2852      6D697444 
 2852      65736372 
 2852      6970746F 
 2853              	.LASF11:
 2854 0102 6C6F6E67 		.ascii	"long long int\000"
 2854      206C6F6E 
 2854      6720696E 
 2854      7400
 2855              	.LASF1:
 2856 0110 7369676E 		.ascii	"signed char\000"
 2856      65642063 
 2856      68617200 
 2857              	.LASF44:
 2858 011c 705F6D70 		.ascii	"p_mpool\000"
 2858      6F6F6C00 
ARM GAS  /tmp/cc2D4mTg.s 			page 53


 2859              	.LASF14:
 2860 0124 626F6F6C 		.ascii	"bool_t\000"
 2860      5F7400
 2861              	.LASF64:
 2862 012b 6D5F7175 		.ascii	"m_queue\000"
 2862      65756500 
 2863              	.LASF101:
 2864 0133 73746D33 		.ascii	"stm32_eth_tx_descriptor_t\000"
 2864      325F6574 
 2864      685F7478 
 2864      5F646573 
 2864      63726970 
 2865              	.LASF18:
 2866 014d 74736C69 		.ascii	"tslices_t\000"
 2866      6365735F 
 2866      7400
 2867              	.LASF111:
 2868 0157 6D616370 		.ascii	"macp\000"
 2868      00
 2869              	.LASF83:
 2870 015c 73746174 		.ascii	"state\000"
 2870      6500
 2871              	.LASF8:
 2872 0162 6C6F6E67 		.ascii	"long int\000"
 2872      20696E74 
 2872      00
 2873              	.LASF121:
 2874 016b 474E5520 		.ascii	"GNU C 4.6.2 20120613 (release) [ARM/embedded-4_6-br"
 2874      4320342E 
 2874      362E3220 
 2874      32303132 
 2874      30363133 
 2875 019e 616E6368 		.ascii	"anch revision 188521]\000"
 2875      20726576 
 2875      6973696F 
 2875      6E203138 
 2875      38353231 
 2876              	.LASF16:
 2877 01b4 74737461 		.ascii	"tstate_t\000"
 2877      74655F74 
 2877      00
 2878              	.LASF35:
 2879 01bd 705F7265 		.ascii	"p_refs\000"
 2879      667300
 2880              	.LASF37:
 2881 01c4 705F7469 		.ascii	"p_time\000"
 2881      6D6500
 2882              	.LASF29:
 2883 01cb 705F6E65 		.ascii	"p_newer\000"
 2883      77657200 
 2884              	.LASF61:
 2885 01d3 735F7175 		.ascii	"s_queue\000"
 2885      65756500 
 2886              	.LASF124:
 2887 01db 6D616349 		.ascii	"macInit\000"
 2887      6E697400 
 2888              	.LASF47:
ARM GAS  /tmp/cc2D4mTg.s 			page 54


 2889 01e3 72656761 		.ascii	"regarm_t\000"
 2889      726D5F74 
 2889      00
 2890              	.LASF54:
 2891 01ec 76745F70 		.ascii	"vt_prev\000"
 2891      72657600 
 2892              	.LASF71:
 2893 01f4 4576656E 		.ascii	"EventSource\000"
 2893      74536F75 
 2893      72636500 
 2894              	.LASF23:
 2895 0200 636E745F 		.ascii	"cnt_t\000"
 2895      7400
 2896              	.LASF32:
 2897 0206 705F7374 		.ascii	"p_stklimit\000"
 2897      6B6C696D 
 2897      697400
 2898              	.LASF0:
 2899 0211 756E7369 		.ascii	"unsigned int\000"
 2899      676E6564 
 2899      20696E74 
 2899      00
 2900              	.LASF53:
 2901 021e 76745F6E 		.ascii	"vt_next\000"
 2901      65787400 
 2902              	.LASF118:
 2903 0226 6D616350 		.ascii	"macPollLinkStatus\000"
 2903      6F6C6C4C 
 2903      696E6B53 
 2903      74617475 
 2903      7300
 2904              	.LASF81:
 2905 0238 6D616373 		.ascii	"macstate_t\000"
 2905      74617465 
 2905      5F7400
 2906              	.LASF39:
 2907 0243 705F6D73 		.ascii	"p_msgqueue\000"
 2907      67717565 
 2907      756500
 2908              	.LASF92:
 2909 024e 72646573 		.ascii	"rdes0\000"
 2909      3000
 2910              	.LASF93:
 2911 0254 72646573 		.ascii	"rdes1\000"
 2911      3100
 2912              	.LASF94:
 2913 025a 72646573 		.ascii	"rdes2\000"
 2913      3200
 2914              	.LASF95:
 2915 0260 72646573 		.ascii	"rdes3\000"
 2915      3300
 2916              	.LASF52:
 2917 0266 56697274 		.ascii	"VirtualTimer\000"
 2917      75616C54 
 2917      696D6572 
 2917      00
 2918              	.LASF62:
ARM GAS  /tmp/cc2D4mTg.s 			page 55


 2919 0273 735F636E 		.ascii	"s_cnt\000"
 2919      7400
 2920              	.LASF105:
 2921 0279 73697A65 		.ascii	"size\000"
 2921      00
 2922              	.LASF6:
 2923 027e 73686F72 		.ascii	"short unsigned int\000"
 2923      7420756E 
 2923      7369676E 
 2923      65642069 
 2923      6E7400
 2924              	.LASF78:
 2925 0291 4D41435F 		.ascii	"MAC_UNINIT\000"
 2925      554E494E 
 2925      495400
 2926              	.LASF20:
 2927 029c 6D73675F 		.ascii	"msg_t\000"
 2927      7400
 2928              	.LASF102:
 2929 02a2 6D61635F 		.ascii	"mac_address\000"
 2929      61646472 
 2929      65737300 
 2930              	.LASF68:
 2931 02ae 656C5F6E 		.ascii	"el_next\000"
 2931      65787400 
 2932              	.LASF15:
 2933 02b6 746D6F64 		.ascii	"tmode_t\000"
 2933      655F7400 
 2934              	.LASF90:
 2935 02be 72787074 		.ascii	"rxptr\000"
 2935      7200
 2936              	.LASF46:
 2937 02c4 54687265 		.ascii	"ThreadsList\000"
 2937      6164734C 
 2937      69737400 
 2938              	.LASF21:
 2939 02d0 6576656E 		.ascii	"eventmask_t\000"
 2939      746D6173 
 2939      6B5F7400 
 2940              	.LASF115:
 2941 02dc 6D616357 		.ascii	"macWaitTransmitDescriptor\000"
 2941      61697454 
 2941      72616E73 
 2941      6D697444 
 2941      65736372 
 2942              	.LASF48:
 2943 02f6 73746B61 		.ascii	"stkalign_t\000"
 2943      6C69676E 
 2943      5F7400
 2944              	.LASF108:
 2945 0301 4D414352 		.ascii	"MACReceiveDescriptor\000"
 2945      65636569 
 2945      76654465 
 2945      73637269 
 2945      70746F72 
 2946              	.LASF116:
 2947 0316 6D616357 		.ascii	"macWaitReceiveDescriptor\000"
ARM GAS  /tmp/cc2D4mTg.s 			page 56


 2947      61697452 
 2947      65636569 
 2947      76654465 
 2947      73637269 
 2948              	.LASF55:
 2949 032f 76745F74 		.ascii	"vt_time\000"
 2949      696D6500 
 2950              	.LASF38:
 2951 0337 705F7761 		.ascii	"p_waiting\000"
 2951      6974696E 
 2951      6700
 2952              	.LASF122:
 2953 0341 2E2E2F2E 		.ascii	"../../os/hal/src/mac.c\000"
 2953      2E2F6F73 
 2953      2F68616C 
 2953      2F737263 
 2953      2F6D6163 
 2954              	.LASF63:
 2955 0358 4D757465 		.ascii	"Mutex\000"
 2955      7800
 2956              	.LASF30:
 2957 035e 705F6F6C 		.ascii	"p_older\000"
 2957      64657200 
 2958              	.LASF45:
 2959 0366 54687265 		.ascii	"ThreadsQueue\000"
 2959      61647351 
 2959      75657565 
 2959      00
 2960              	.LASF28:
 2961 0373 705F6374 		.ascii	"p_ctx\000"
 2961      7800
 2962              	.LASF113:
 2963 0379 74696D65 		.ascii	"time\000"
 2963      00
 2964              	.LASF70:
 2965 037e 656C5F6D 		.ascii	"el_mask\000"
 2965      61736B00 
 2966              	.LASF17:
 2967 0386 74726566 		.ascii	"trefs_t\000"
 2967      735F7400 
 2968              	.LASF80:
 2969 038e 4D41435F 		.ascii	"MAC_ACTIVE\000"
 2969      41435449 
 2969      564500
 2970              	.LASF79:
 2971 0399 4D41435F 		.ascii	"MAC_STOP\000"
 2971      53544F50 
 2971      00
 2972              	.LASF26:
 2973 03a2 705F7072 		.ascii	"p_prev\000"
 2973      657600
 2974              	.LASF97:
 2975 03a9 74646573 		.ascii	"tdes0\000"
 2975      3000
 2976              	.LASF98:
 2977 03af 74646573 		.ascii	"tdes1\000"
 2977      3100
ARM GAS  /tmp/cc2D4mTg.s 			page 57


 2978              	.LASF99:
 2979 03b5 74646573 		.ascii	"tdes2\000"
 2979      3200
 2980              	.LASF19:
 2981 03bb 74707269 		.ascii	"tprio_t\000"
 2981      6F5F7400 
 2982              	.LASF7:
 2983 03c3 696E7433 		.ascii	"int32_t\000"
 2983      325F7400 
 2984              	.LASF4:
 2985 03cb 756E7369 		.ascii	"unsigned char\000"
 2985      676E6564 
 2985      20636861 
 2985      7200
 2986              	.LASF69:
 2987 03d9 656C5F6C 		.ascii	"el_listener\000"
 2987      69737465 
 2987      6E657200 
 2988              	.LASF85:
 2989 03e5 74647365 		.ascii	"tdsem\000"
 2989      6D00
 2990              	.LASF42:
 2991 03eb 705F6D74 		.ascii	"p_mtxlist\000"
 2991      786C6973 
 2991      7400
 2992              	.LASF5:
 2993 03f5 73686F72 		.ascii	"short int\000"
 2993      7420696E 
 2993      7400
 2994              	.LASF33:
 2995 03ff 705F7374 		.ascii	"p_state\000"
 2995      61746500 
 2996              	.LASF36:
 2997 0407 705F7072 		.ascii	"p_preempt\000"
 2997      65656D70 
 2997      7400
 2998              	.LASF76:
 2999 0411 65776D61 		.ascii	"ewmask\000"
 2999      736B00
 3000              	.LASF25:
 3001 0418 705F6E65 		.ascii	"p_next\000"
 3001      787400
 3002              	.LASF34:
 3003 041f 705F666C 		.ascii	"p_flags\000"
 3003      61677300 
 3004              	.LASF91:
 3005 0427 74787074 		.ascii	"txptr\000"
 3005      7200
 3006              	.LASF24:
 3007 042d 54687265 		.ascii	"Thread\000"
 3007      616400
 3008              	.LASF109:
 3009 0434 6D61634F 		.ascii	"macObjectInit\000"
 3009      626A6563 
 3009      74496E69 
 3009      7400
 3010              	.LASF41:
ARM GAS  /tmp/cc2D4mTg.s 			page 58


 3011 0442 705F6570 		.ascii	"p_epending\000"
 3011      656E6469 
 3011      6E6700
 3012              	.LASF9:
 3013 044d 75696E74 		.ascii	"uint32_t\000"
 3013      33325F74 
 3013      00
 3014              	.LASF58:
 3015 0456 76745F73 		.ascii	"vt_systime\000"
 3015      79737469 
 3015      6D6500
 3016              	.LASF10:
 3017 0461 6C6F6E67 		.ascii	"long unsigned int\000"
 3017      20756E73 
 3017      69676E65 
 3017      6420696E 
 3017      7400
 3018              	.LASF77:
 3019 0473 63686172 		.ascii	"char\000"
 3019      00
 3020              	.LASF84:
 3021 0478 636F6E66 		.ascii	"config\000"
 3021      696700
 3022              	.LASF66:
 3023 047f 6D5F6E65 		.ascii	"m_next\000"
 3023      787400
 3024              	.LASF22:
 3025 0486 73797374 		.ascii	"systime_t\000"
 3025      696D655F 
 3025      7400
 3026              	.LASF43:
 3027 0490 705F7265 		.ascii	"p_realprio\000"
 3027      616C7072 
 3027      696F00
 3028              	.LASF51:
 3029 049b 76746675 		.ascii	"vtfunc_t\000"
 3029      6E635F74 
 3029      00
 3030              	.LASF104:
 3031 04a4 6F666673 		.ascii	"offset\000"
 3031      657400
 3032              	.LASF50:
 3033 04ab 636F6E74 		.ascii	"context\000"
 3033      65787400 
 3034              	.LASF49:
 3035 04b3 696E7463 		.ascii	"intctx\000"
 3035      747800
 3036              	.LASF57:
 3037 04ba 76745F70 		.ascii	"vt_par\000"
 3037      617200
 3038              	.LASF60:
 3039 04c1 53656D61 		.ascii	"Semaphore\000"
 3039      70686F72 
 3039      6500
 3040              	.LASF117:
 3041 04cb 6D616352 		.ascii	"macReleaseReceiveDescriptor\000"
 3041      656C6561 
ARM GAS  /tmp/cc2D4mTg.s 			page 59


 3041      73655265 
 3041      63656976 
 3041      65446573 
 3042              	.LASF112:
 3043 04e7 6D616353 		.ascii	"macStop\000"
 3043      746F7000 
 3044              	.LASF72:
 3045 04ef 65735F6E 		.ascii	"es_next\000"
 3045      65787400 
 3046              	.LASF96:
 3047 04f7 73746D33 		.ascii	"stm32_eth_rx_descriptor_t\000"
 3047      325F6574 
 3047      685F7278 
 3047      5F646573 
 3047      63726970 
 3048              	.LASF103:
 3049 0511 4D414343 		.ascii	"MACConfig\000"
 3049      6F6E6669 
 3049      6700
 3050              	.LASF3:
 3051 051b 75696E74 		.ascii	"uint8_t\000"
 3051      385F7400 
 3052              	.LASF89:
 3053 0523 70687961 		.ascii	"phyaddr\000"
 3053      64647200 
 3054              	.LASF67:
 3055 052b 4576656E 		.ascii	"EventListener\000"
 3055      744C6973 
 3055      74656E65 
 3055      7200
 3056              	.LASF75:
 3057 0539 77746F62 		.ascii	"wtobjp\000"
 3057      6A7000
 3058              	.LASF31:
 3059 0540 705F6E61 		.ascii	"p_name\000"
 3059      6D6500
 3060              	.LASF40:
 3061 0547 705F6D73 		.ascii	"p_msg\000"
 3061      6700
 3062              	.LASF59:
 3063 054d 56544C69 		.ascii	"VTList\000"
 3063      737400
 3064              	.LASF65:
 3065 0554 6D5F6F77 		.ascii	"m_owner\000"
 3065      6E657200 
 3066              	.LASF56:
 3067 055c 76745F66 		.ascii	"vt_func\000"
 3067      756E6300 
 3068              		.ident	"GCC: (GNU Tools for ARM Embedded Processors) 4.6.2 20120613 (release) [ARM/embedded-4_6-br
ARM GAS  /tmp/cc2D4mTg.s 			page 60


DEFINED SYMBOLS
                            *ABS*:00000000 mac.c
     /tmp/cc2D4mTg.s:19     .text.macInit:00000000 $t
     /tmp/cc2D4mTg.s:25     .text.macInit:00000000 macInit
     /tmp/cc2D4mTg.s:45     .text.macObjectInit:00000000 $t
     /tmp/cc2D4mTg.s:51     .text.macObjectInit:00000000 macObjectInit
     /tmp/cc2D4mTg.s:97     .rodata:00000000 $d
     /tmp/cc2D4mTg.s:98     .rodata:00000000 .LC0
     /tmp/cc2D4mTg.s:101    .rodata:00000010 .LC1
     /tmp/cc2D4mTg.s:104    .text.macStart:00000000 $t
     /tmp/cc2D4mTg.s:110    .text.macStart:00000000 macStart
     /tmp/cc2D4mTg.s:186    .rodata:00000020 .LC2
     /tmp/cc2D4mTg.s:189    .rodata:0000002c .LC3
     /tmp/cc2D4mTg.s:192    .text.macStop:00000000 $t
     /tmp/cc2D4mTg.s:198    .text.macStop:00000000 macStop
     /tmp/cc2D4mTg.s:269    .rodata:0000003c .LC4
     /tmp/cc2D4mTg.s:272    .rodata:0000005c .LC5
     /tmp/cc2D4mTg.s:275    .text.macWaitTransmitDescriptor:00000000 $t
     /tmp/cc2D4mTg.s:281    .text.macWaitTransmitDescriptor:00000000 macWaitTransmitDescriptor
     /tmp/cc2D4mTg.s:411    .rodata:0000007c .LC6
     /tmp/cc2D4mTg.s:414    .text.macReleaseTransmitDescriptor:00000000 $t
     /tmp/cc2D4mTg.s:420    .text.macReleaseTransmitDescriptor:00000000 macReleaseTransmitDescriptor
     /tmp/cc2D4mTg.s:454    .rodata:000000a0 .LC7
     /tmp/cc2D4mTg.s:457    .rodata:000000c0 .LC8
     /tmp/cc2D4mTg.s:460    .text.macWaitReceiveDescriptor:00000000 $t
     /tmp/cc2D4mTg.s:466    .text.macWaitReceiveDescriptor:00000000 macWaitReceiveDescriptor
     /tmp/cc2D4mTg.s:596    .rodata:000000e0 .LC9
     /tmp/cc2D4mTg.s:599    .text.macReleaseReceiveDescriptor:00000000 $t
     /tmp/cc2D4mTg.s:605    .text.macReleaseReceiveDescriptor:00000000 macReleaseReceiveDescriptor
     /tmp/cc2D4mTg.s:639    .rodata:00000100 .LC10
     /tmp/cc2D4mTg.s:642    .rodata:00000118 .LC11
     /tmp/cc2D4mTg.s:645    .text.macPollLinkStatus:00000000 $t
     /tmp/cc2D4mTg.s:651    .text.macPollLinkStatus:00000000 macPollLinkStatus
                     .debug_frame:00000010 $d

UNDEFINED SYMBOLS
mac_lld_init
chSemInit
chDbgPanic
dbg_check_lock
mac_lld_start
dbg_check_unlock
mac_lld_stop
vtlist
chSemWaitTimeoutS
mac_lld_get_transmit_descriptor
mac_lld_release_transmit_descriptor
mac_lld_get_receive_descriptor
mac_lld_release_receive_descriptor
mac_lld_poll_link_status
