ARM GAS  /tmp/cc2D4mTg.s 			page 1


   1              		.syntax unified
   2              		.cpu cortex-m3
   3              		.fpu softvfp
   4              		.eabi_attribute 20, 1
   5              		.eabi_attribute 21, 1
   6              		.eabi_attribute 23, 3
   7              		.eabi_attribute 24, 1
   8              		.eabi_attribute 25, 1
   9              		.eabi_attribute 26, 1
  10              		.eabi_attribute 30, 6
  11              		.eabi_attribute 34, 1
  12              		.eabi_attribute 18, 4
  13              		.thumb
  14              		.file	"mac.c"
  15              		.text
  16              	.Ltext0:
  17              		.cfi_sections	.debug_frame
  18              		.section	.text.macInit,"ax",%progbits
  19              		.align	2
  20              		.p2align 4,,15
  21              		.global	macInit
  22              		.thumb
  23              		.thumb_func
  24              		.type	macInit, %function
  25              	macInit:
  26              	.LFB63:
  27              		.file 1 "../../os/hal/src/mac.c"
  28              		.loc 1 65 0
  29              		.cfi_startproc
  30              		@ args = 0, pretend = 0, frame = 0
  31              		@ frame_needed = 0, uses_anonymous_args = 0
  32 0000 08B5     		push	{r3, lr}
  33              	.LCFI0:
  34              		.cfi_def_cfa_offset 8
  35              		.cfi_offset 14, -4
  36              		.cfi_offset 3, -8
  37              		.loc 1 67 0
  38 0002 FFF7FEFF 		bl	mac_lld_init
  39              		.loc 1 68 0
  40 0006 08BD     		pop	{r3, pc}
  41              		.cfi_endproc
  42              	.LFE63:
  43              		.size	macInit, .-macInit
  44 0008 AFF30080 		.section	.text.macObjectInit,"ax",%progbits
  44      AFF30080 
  45              		.align	2
  46              		.p2align 4,,15
  47              		.global	macObjectInit
  48              		.thumb
  49              		.thumb_func
  50              		.type	macObjectInit, %function
  51              	macObjectInit:
  52              	.LFB64:
  53              		.loc 1 77 0
  54              		.cfi_startproc
  55              		@ args = 0, pretend = 0, frame = 8
  56              		@ frame_needed = 0, uses_anonymous_args = 0
ARM GAS  /tmp/cc2D4mTg.s 			page 2


  57 0000 00B5     		push	{lr}
  58              	.LCFI1:
  59              		.cfi_def_cfa_offset 4
  60              		.cfi_offset 14, -4
  61 0002 83B0     		sub	sp, sp, #12
  62              	.LCFI2:
  63              		.cfi_def_cfa_offset 16
  64 0004 0190     		str	r0, [sp, #4]
  65              		.loc 1 79 0
  66 0006 019B     		ldr	r3, [sp, #4]
  67 0008 4FF00102 		mov	r2, #1
  68 000c 1A70     		strb	r2, [r3, #0]
  69              		.loc 1 80 0
  70 000e 019B     		ldr	r3, [sp, #4]
  71 0010 4FF00002 		mov	r2, #0
  72 0014 5A60     		str	r2, [r3, #4]
  73              		.loc 1 81 0
  74 0016 019B     		ldr	r3, [sp, #4]
  75 0018 03F10803 		add	r3, r3, #8
  76 001c 1846     		mov	r0, r3
  77 001e 4FF00001 		mov	r1, #0
  78 0022 FFF7FEFF 		bl	chSemInit
  79              		.loc 1 82 0
  80 0026 019B     		ldr	r3, [sp, #4]
  81 0028 03F11403 		add	r3, r3, #20
  82 002c 1846     		mov	r0, r3
  83 002e 4FF00001 		mov	r1, #0
  84 0032 FFF7FEFF 		bl	chSemInit
  85              		.loc 1 84 0
  86 0036 019B     		ldr	r3, [sp, #4]
  87 0038 03F12002 		add	r2, r3, #32
  88 003c 019B     		ldr	r3, [sp, #4]
  89 003e 1A62     		str	r2, [r3, #32]
  90              		.loc 1 86 0
  91 0040 03B0     		add	sp, sp, #12
  92 0042 00BD     		pop	{pc}
  93              		.cfi_endproc
  94              	.LFE64:
  95              		.size	macObjectInit, .-macObjectInit
  96 0044 AFF30080 		.section	.rodata
  96      AFF30080 
  96      AFF30080 
  97              		.align	2
  98              	.LC0:
  99 0000 226D6163 		.ascii	"\"macStart\"()\000"
  99      53746172 
  99      74222829 
  99      00
 100 000d 000000   		.align	2
 101              	.LC1:
 102 0010 6D616353 		.ascii	"macStart(), #1\000"
 102      74617274 
 102      28292C20 
 102      233100
 103              		.section	.text.macStart,"ax",%progbits
 104              		.align	2
 105              		.p2align 4,,15
ARM GAS  /tmp/cc2D4mTg.s 			page 3


 106              		.global	macStart
 107              		.thumb
 108              		.thumb_func
 109              		.type	macStart, %function
 110              	macStart:
 111              	.LFB65:
 112              		.loc 1 96 0
 113              		.cfi_startproc
 114              		@ args = 0, pretend = 0, frame = 8
 115              		@ frame_needed = 0, uses_anonymous_args = 0
 116 0000 00B5     		push	{lr}
 117              	.LCFI3:
 118              		.cfi_def_cfa_offset 4
 119              		.cfi_offset 14, -4
 120 0002 83B0     		sub	sp, sp, #12
 121              	.LCFI4:
 122              		.cfi_def_cfa_offset 16
 123 0004 0190     		str	r0, [sp, #4]
 124 0006 0091     		str	r1, [sp, #0]
 125              		.loc 1 98 0
 126 0008 019B     		ldr	r3, [sp, #4]
 127 000a 002B     		cmp	r3, #0
 128 000c 02D0     		beq	.L4
 129              		.loc 1 98 0 is_stmt 0 discriminator 2
 130 000e 009B     		ldr	r3, [sp, #0]
 131 0010 002B     		cmp	r3, #0
 132 0012 05D1     		bne	.L5
 133              	.L4:
 134              		.loc 1 98 0 discriminator 1
 135 0014 40F20000 		movw	r0, #:lower16:.LC0
 136 0018 C0F20000 		movt	r0, #:upper16:.LC0
 137 001c FFF7FEFF 		bl	chDbgPanic
 138              	.L5:
 139              	.LBB2:
 140              		.loc 1 100 0 is_stmt 1
 141 0020 4FF02003 		mov	r3, #32
 142              	@ 100 "../../os/hal/src/mac.c" 1
 143 0024 83F31188 		msr     BASEPRI, r3
 144              	@ 0 "" 2
 145              		.thumb
 146              	.LBE2:
 147 0028 FFF7FEFF 		bl	dbg_check_lock
 148              		.loc 1 101 0
 149 002c 019B     		ldr	r3, [sp, #4]
 150 002e 1B78     		ldrb	r3, [r3, #0]	@ zero_extendqisi2
 151 0030 012B     		cmp	r3, #1
 152 0032 05D0     		beq	.L6
 153              		.loc 1 101 0 is_stmt 0 discriminator 1
 154 0034 40F20000 		movw	r0, #:lower16:.LC1
 155 0038 C0F20000 		movt	r0, #:upper16:.LC1
 156 003c FFF7FEFF 		bl	chDbgPanic
 157              	.L6:
 158              		.loc 1 103 0 is_stmt 1
 159 0040 019B     		ldr	r3, [sp, #4]
 160 0042 009A     		ldr	r2, [sp, #0]
 161 0044 5A60     		str	r2, [r3, #4]
 162              		.loc 1 104 0
ARM GAS  /tmp/cc2D4mTg.s 			page 4


 163 0046 0198     		ldr	r0, [sp, #4]
 164 0048 FFF7FEFF 		bl	mac_lld_start
 165              		.loc 1 105 0
 166 004c 019B     		ldr	r3, [sp, #4]
 167 004e 4FF00202 		mov	r2, #2
 168 0052 1A70     		strb	r2, [r3, #0]
 169              		.loc 1 106 0
 170 0054 FFF7FEFF 		bl	dbg_check_unlock
 171              	.LBB3:
 172 0058 4FF00003 		mov	r3, #0
 173              	@ 106 "../../os/hal/src/mac.c" 1
 174 005c 83F31188 		msr     BASEPRI, r3
 175              	@ 0 "" 2
 176              		.thumb
 177              	.LBE3:
 178              		.loc 1 107 0
 179 0060 03B0     		add	sp, sp, #12
 180 0062 00BD     		pop	{pc}
 181              		.cfi_endproc
 182              	.LFE65:
 183              		.size	macStart, .-macStart
 184 0064 AFF30080 		.section	.rodata
 184      AFF30080 
 184      AFF30080 
 185 001f 00       		.align	2
 186              	.LC2:
 187 0020 226D6163 		.ascii	"\"macStop\"()\000"
 187      53746F70 
 187      22282900 
 188              		.align	2
 189              	.LC3:
 190 002c 6D616353 		.ascii	"macStop(), #1\000"
 190      746F7028 
 190      292C2023 
 190      3100
 191              		.section	.text.macStop,"ax",%progbits
 192              		.align	2
 193              		.p2align 4,,15
 194              		.global	macStop
 195              		.thumb
 196              		.thumb_func
 197              		.type	macStop, %function
 198              	macStop:
 199              	.LFB66:
 200              		.loc 1 116 0
 201              		.cfi_startproc
 202              		@ args = 0, pretend = 0, frame = 8
 203              		@ frame_needed = 0, uses_anonymous_args = 0
 204 0000 00B5     		push	{lr}
 205              	.LCFI5:
 206              		.cfi_def_cfa_offset 4
 207              		.cfi_offset 14, -4
 208 0002 83B0     		sub	sp, sp, #12
 209              	.LCFI6:
 210              		.cfi_def_cfa_offset 16
 211 0004 0190     		str	r0, [sp, #4]
 212              		.loc 1 118 0
ARM GAS  /tmp/cc2D4mTg.s 			page 5


 213 0006 019B     		ldr	r3, [sp, #4]
 214 0008 002B     		cmp	r3, #0
 215 000a 05D1     		bne	.L8
 216              		.loc 1 118 0 is_stmt 0 discriminator 1
 217 000c 40F20000 		movw	r0, #:lower16:.LC2
 218 0010 C0F20000 		movt	r0, #:upper16:.LC2
 219 0014 FFF7FEFF 		bl	chDbgPanic
 220              	.L8:
 221              	.LBB4:
 222              		.loc 1 120 0 is_stmt 1
 223 0018 4FF02003 		mov	r3, #32
 224              	@ 120 "../../os/hal/src/mac.c" 1
 225 001c 83F31188 		msr     BASEPRI, r3
 226              	@ 0 "" 2
 227              		.thumb
 228              	.LBE4:
 229 0020 FFF7FEFF 		bl	dbg_check_lock
 230              		.loc 1 121 0
 231 0024 019B     		ldr	r3, [sp, #4]
 232 0026 1B78     		ldrb	r3, [r3, #0]	@ zero_extendqisi2
 233 0028 012B     		cmp	r3, #1
 234 002a 09D0     		beq	.L9
 235              		.loc 1 121 0 is_stmt 0 discriminator 1
 236 002c 019B     		ldr	r3, [sp, #4]
 237 002e 1B78     		ldrb	r3, [r3, #0]	@ zero_extendqisi2
 238 0030 022B     		cmp	r3, #2
 239 0032 05D0     		beq	.L9
 240              		.loc 1 121 0 discriminator 2
 241 0034 40F20000 		movw	r0, #:lower16:.LC3
 242 0038 C0F20000 		movt	r0, #:upper16:.LC3
 243 003c FFF7FEFF 		bl	chDbgPanic
 244              	.L9:
 245              		.loc 1 123 0 is_stmt 1
 246 0040 0198     		ldr	r0, [sp, #4]
 247 0042 FFF7FEFF 		bl	mac_lld_stop
 248              		.loc 1 124 0
 249 0046 019B     		ldr	r3, [sp, #4]
 250 0048 4FF00102 		mov	r2, #1
 251 004c 1A70     		strb	r2, [r3, #0]
 252              		.loc 1 125 0
 253 004e FFF7FEFF 		bl	dbg_check_unlock
 254              	.LBB5:
 255 0052 4FF00003 		mov	r3, #0
 256              	@ 125 "../../os/hal/src/mac.c" 1
 257 0056 83F31188 		msr     BASEPRI, r3
 258              	@ 0 "" 2
 259              		.thumb
 260              	.LBE5:
 261              		.loc 1 126 0
 262 005a 03B0     		add	sp, sp, #12
 263 005c 00BD     		pop	{pc}
 264              		.cfi_endproc
 265              	.LFE66:
 266              		.size	macStop, .-macStop
 267 005e 00BF     		.section	.rodata
 268 003a 0000     		.align	2
 269              	.LC4:
ARM GAS  /tmp/cc2D4mTg.s 			page 6


 270 003c 226D6163 		.ascii	"\"macWaitTransmitDescriptor\"()\000"
 270      57616974 
 270      5472616E 
 270      736D6974 
 270      44657363 
 271 005a 0000     		.align	2
 272              	.LC5:
 273 005c 6D616357 		.ascii	"macWaitTransmitDescriptor(), #1\000"
 273      61697454 
 273      72616E73 
 273      6D697444 
 273      65736372 
 274              		.section	.text.macWaitTransmitDescriptor,"ax",%progbits
 275              		.align	2
 276              		.p2align 4,,15
 277              		.global	macWaitTransmitDescriptor
 278              		.thumb
 279              		.thumb_func
 280              		.type	macWaitTransmitDescriptor, %function
 281              	macWaitTransmitDescriptor:
 282              	.LFB67:
 283              		.loc 1 149 0
 284              		.cfi_startproc
 285              		@ args = 0, pretend = 0, frame = 24
 286              		@ frame_needed = 0, uses_anonymous_args = 0
 287 0000 00B5     		push	{lr}
 288              	.LCFI7:
 289              		.cfi_def_cfa_offset 4
 290              		.cfi_offset 14, -4
 291 0002 87B0     		sub	sp, sp, #28
 292              	.LCFI8:
 293              		.cfi_def_cfa_offset 32
 294 0004 0390     		str	r0, [sp, #12]
 295 0006 0291     		str	r1, [sp, #8]
 296 0008 0192     		str	r2, [sp, #4]
 297              		.loc 1 152 0
 298 000a 039B     		ldr	r3, [sp, #12]
 299 000c 002B     		cmp	r3, #0
 300 000e 02D0     		beq	.L11
 301              		.loc 1 152 0 is_stmt 0 discriminator 2
 302 0010 029B     		ldr	r3, [sp, #8]
 303 0012 002B     		cmp	r3, #0
 304 0014 05D1     		bne	.L12
 305              	.L11:
 306              		.loc 1 152 0 discriminator 1
 307 0016 40F20000 		movw	r0, #:lower16:.LC4
 308 001a C0F20000 		movt	r0, #:upper16:.LC4
 309 001e FFF7FEFF 		bl	chDbgPanic
 310              	.L12:
 311              		.loc 1 153 0 is_stmt 1
 312 0022 039B     		ldr	r3, [sp, #12]
 313 0024 1B78     		ldrb	r3, [r3, #0]	@ zero_extendqisi2
 314 0026 022B     		cmp	r3, #2
 315 0028 3AD0     		beq	.L14
 316              		.loc 1 153 0 is_stmt 0 discriminator 1
 317 002a 40F20000 		movw	r0, #:lower16:.LC5
 318 002e C0F20000 		movt	r0, #:upper16:.LC5
ARM GAS  /tmp/cc2D4mTg.s 			page 7


 319 0032 FFF7FEFF 		bl	chDbgPanic
 320              		.loc 1 156 0 is_stmt 1 discriminator 1
 321 0036 33E0     		b	.L14
 322              	.L18:
 323              	.LBB6:
 324              	.LBB7:
 325              		.loc 1 158 0
 326 0038 4FF02003 		mov	r3, #32
 327              	@ 158 "../../os/hal/src/mac.c" 1
 328 003c 83F31188 		msr     BASEPRI, r3
 329              	@ 0 "" 2
 330              		.thumb
 331              	.LBE7:
 332 0040 FFF7FEFF 		bl	dbg_check_lock
 333              		.loc 1 159 0
 334 0044 40F20003 		movw	r3, #:lower16:vtlist
 335 0048 C0F20003 		movt	r3, #:upper16:vtlist
 336 004c DB68     		ldr	r3, [r3, #12]
 337 004e 0493     		str	r3, [sp, #16]
 338              		.loc 1 160 0
 339 0050 039B     		ldr	r3, [sp, #12]
 340 0052 03F10803 		add	r3, r3, #8
 341 0056 1846     		mov	r0, r3
 342 0058 0199     		ldr	r1, [sp, #4]
 343 005a FFF7FEFF 		bl	chSemWaitTimeoutS
 344 005e 0346     		mov	r3, r0
 345 0060 0593     		str	r3, [sp, #20]
 346 0062 059B     		ldr	r3, [sp, #20]
 347 0064 B3F1FF3F 		cmp	r3, #-1
 348 0068 06D1     		bne	.L15
 349              		.loc 1 161 0
 350 006a FFF7FEFF 		bl	dbg_check_unlock
 351              	.LBB8:
 352 006e 4FF00003 		mov	r3, #0
 353              	@ 161 "../../os/hal/src/mac.c" 1
 354 0072 83F31188 		msr     BASEPRI, r3
 355              	@ 0 "" 2
 356              		.thumb
 357              	.LBE8:
 358              		.loc 1 162 0
 359 0076 1FE0     		b	.L16
 360              	.L15:
 361              		.loc 1 164 0
 362 0078 019B     		ldr	r3, [sp, #4]
 363 007a B3F1FF3F 		cmp	r3, #-1
 364 007e 09D0     		beq	.L17
 365              		.loc 1 165 0
 366 0080 40F20003 		movw	r3, #:lower16:vtlist
 367 0084 C0F20003 		movt	r3, #:upper16:vtlist
 368 0088 DB68     		ldr	r3, [r3, #12]
 369 008a 049A     		ldr	r2, [sp, #16]
 370 008c D31A     		subs	r3, r2, r3
 371 008e 019A     		ldr	r2, [sp, #4]
 372 0090 D318     		adds	r3, r2, r3
 373 0092 0193     		str	r3, [sp, #4]
 374              	.L17:
 375              		.loc 1 166 0
ARM GAS  /tmp/cc2D4mTg.s 			page 8


 376 0094 FFF7FEFF 		bl	dbg_check_unlock
 377              	.LBB9:
 378 0098 4FF00003 		mov	r3, #0
 379              	@ 166 "../../os/hal/src/mac.c" 1
 380 009c 83F31188 		msr     BASEPRI, r3
 381              	@ 0 "" 2
 382              		.thumb
 383              	.L14:
 384              	.LBE9:
 385              	.LBE6:
 386              		.loc 1 156 0 discriminator 1
 387 00a0 0398     		ldr	r0, [sp, #12]
 388 00a2 0299     		ldr	r1, [sp, #8]
 389 00a4 FFF7FEFF 		bl	mac_lld_get_transmit_descriptor
 390 00a8 0346     		mov	r3, r0
 391 00aa 0593     		str	r3, [sp, #20]
 392 00ac 059B     		ldr	r3, [sp, #20]
 393 00ae 002B     		cmp	r3, #0
 394 00b0 02D0     		beq	.L16
 395              		.loc 1 156 0 is_stmt 0 discriminator 2
 396 00b2 019B     		ldr	r3, [sp, #4]
 397 00b4 002B     		cmp	r3, #0
 398 00b6 BFD1     		bne	.L18
 399              	.L16:
 400              		.loc 1 168 0 is_stmt 1
 401 00b8 059B     		ldr	r3, [sp, #20]
 402              		.loc 1 169 0
 403 00ba 1846     		mov	r0, r3
 404 00bc 07B0     		add	sp, sp, #28
 405 00be 00BD     		pop	{pc}
 406              		.cfi_endproc
 407              	.LFE67:
 408              		.size	macWaitTransmitDescriptor, .-macWaitTransmitDescriptor
 409              		.section	.rodata
 410              		.align	2
 411              	.LC6:
 412 007c 226D6163 		.ascii	"\"macReleaseTransmitDescriptor\"()\000"
 412      52656C65 
 412      61736554 
 412      72616E73 
 412      6D697444 
 413              		.section	.text.macReleaseTransmitDescriptor,"ax",%progbits
 414              		.align	2
 415              		.p2align 4,,15
 416              		.global	macReleaseTransmitDescriptor
 417              		.thumb
 418              		.thumb_func
 419              		.type	macReleaseTransmitDescriptor, %function
 420              	macReleaseTransmitDescriptor:
 421              	.LFB68:
 422              		.loc 1 179 0
 423              		.cfi_startproc
 424              		@ args = 0, pretend = 0, frame = 8
 425              		@ frame_needed = 0, uses_anonymous_args = 0
 426 0000 00B5     		push	{lr}
 427              	.LCFI9:
 428              		.cfi_def_cfa_offset 4
ARM GAS  /tmp/cc2D4mTg.s 			page 9


 429              		.cfi_offset 14, -4
 430 0002 83B0     		sub	sp, sp, #12
 431              	.LCFI10:
 432              		.cfi_def_cfa_offset 16
 433 0004 0190     		str	r0, [sp, #4]
 434              		.loc 1 181 0
 435 0006 019B     		ldr	r3, [sp, #4]
 436 0008 002B     		cmp	r3, #0
 437 000a 05D1     		bne	.L20
 438              		.loc 1 181 0 is_stmt 0 discriminator 1
 439 000c 40F20000 		movw	r0, #:lower16:.LC6
 440 0010 C0F20000 		movt	r0, #:upper16:.LC6
 441 0014 FFF7FEFF 		bl	chDbgPanic
 442              	.L20:
 443              		.loc 1 183 0 is_stmt 1
 444 0018 0198     		ldr	r0, [sp, #4]
 445 001a FFF7FEFF 		bl	mac_lld_release_transmit_descriptor
 446              		.loc 1 184 0
 447 001e 03B0     		add	sp, sp, #12
 448 0020 00BD     		pop	{pc}
 449              		.cfi_endproc
 450              	.LFE68:
 451              		.size	macReleaseTransmitDescriptor, .-macReleaseTransmitDescriptor
 452 0022 00BFAFF3 		.section	.rodata
 452      0080AFF3 
 452      0080AFF3 
 452      0080
 453 009d 000000   		.align	2
 454              	.LC7:
 455 00a0 226D6163 		.ascii	"\"macWaitReceiveDescriptor\"()\000"
 455      57616974 
 455      52656365 
 455      69766544 
 455      65736372 
 456 00bd 000000   		.align	2
 457              	.LC8:
 458 00c0 6D616357 		.ascii	"macWaitReceiveDescriptor(), #1\000"
 458      61697452 
 458      65636569 
 458      76654465 
 458      73637269 
 459              		.section	.text.macWaitReceiveDescriptor,"ax",%progbits
 460              		.align	2
 461              		.p2align 4,,15
 462              		.global	macWaitReceiveDescriptor
 463              		.thumb
 464              		.thumb_func
 465              		.type	macWaitReceiveDescriptor, %function
 466              	macWaitReceiveDescriptor:
 467              	.LFB69:
 468              		.loc 1 207 0
 469              		.cfi_startproc
 470              		@ args = 0, pretend = 0, frame = 24
 471              		@ frame_needed = 0, uses_anonymous_args = 0
 472 0000 00B5     		push	{lr}
 473              	.LCFI11:
 474              		.cfi_def_cfa_offset 4
ARM GAS  /tmp/cc2D4mTg.s 			page 10


 475              		.cfi_offset 14, -4
 476 0002 87B0     		sub	sp, sp, #28
 477              	.LCFI12:
 478              		.cfi_def_cfa_offset 32
 479 0004 0390     		str	r0, [sp, #12]
 480 0006 0291     		str	r1, [sp, #8]
 481 0008 0192     		str	r2, [sp, #4]
 482              		.loc 1 210 0
 483 000a 039B     		ldr	r3, [sp, #12]
 484 000c 002B     		cmp	r3, #0
 485 000e 02D0     		beq	.L22
 486              		.loc 1 210 0 is_stmt 0 discriminator 2
 487 0010 029B     		ldr	r3, [sp, #8]
 488 0012 002B     		cmp	r3, #0
 489 0014 05D1     		bne	.L23
 490              	.L22:
 491              		.loc 1 210 0 discriminator 1
 492 0016 40F20000 		movw	r0, #:lower16:.LC7
 493 001a C0F20000 		movt	r0, #:upper16:.LC7
 494 001e FFF7FEFF 		bl	chDbgPanic
 495              	.L23:
 496              		.loc 1 211 0 is_stmt 1
 497 0022 039B     		ldr	r3, [sp, #12]
 498 0024 1B78     		ldrb	r3, [r3, #0]	@ zero_extendqisi2
 499 0026 022B     		cmp	r3, #2
 500 0028 3AD0     		beq	.L25
 501              		.loc 1 211 0 is_stmt 0 discriminator 1
 502 002a 40F20000 		movw	r0, #:lower16:.LC8
 503 002e C0F20000 		movt	r0, #:upper16:.LC8
 504 0032 FFF7FEFF 		bl	chDbgPanic
 505              		.loc 1 214 0 is_stmt 1 discriminator 1
 506 0036 33E0     		b	.L25
 507              	.L29:
 508              	.LBB10:
 509              	.LBB11:
 510              		.loc 1 216 0
 511 0038 4FF02003 		mov	r3, #32
 512              	@ 216 "../../os/hal/src/mac.c" 1
 513 003c 83F31188 		msr     BASEPRI, r3
 514              	@ 0 "" 2
 515              		.thumb
 516              	.LBE11:
 517 0040 FFF7FEFF 		bl	dbg_check_lock
 518              		.loc 1 217 0
 519 0044 40F20003 		movw	r3, #:lower16:vtlist
 520 0048 C0F20003 		movt	r3, #:upper16:vtlist
 521 004c DB68     		ldr	r3, [r3, #12]
 522 004e 0493     		str	r3, [sp, #16]
 523              		.loc 1 218 0
 524 0050 039B     		ldr	r3, [sp, #12]
 525 0052 03F11403 		add	r3, r3, #20
 526 0056 1846     		mov	r0, r3
 527 0058 0199     		ldr	r1, [sp, #4]
 528 005a FFF7FEFF 		bl	chSemWaitTimeoutS
 529 005e 0346     		mov	r3, r0
 530 0060 0593     		str	r3, [sp, #20]
 531 0062 059B     		ldr	r3, [sp, #20]
ARM GAS  /tmp/cc2D4mTg.s 			page 11


 532 0064 B3F1FF3F 		cmp	r3, #-1
 533 0068 06D1     		bne	.L26
 534              		.loc 1 219 0
 535 006a FFF7FEFF 		bl	dbg_check_unlock
 536              	.LBB12:
 537 006e 4FF00003 		mov	r3, #0
 538              	@ 219 "../../os/hal/src/mac.c" 1
 539 0072 83F31188 		msr     BASEPRI, r3
 540              	@ 0 "" 2
 541              		.thumb
 542              	.LBE12:
 543              		.loc 1 220 0
 544 0076 1FE0     		b	.L27
 545              	.L26:
 546              		.loc 1 222 0
 547 0078 019B     		ldr	r3, [sp, #4]
 548 007a B3F1FF3F 		cmp	r3, #-1
 549 007e 09D0     		beq	.L28
 550              		.loc 1 223 0
 551 0080 40F20003 		movw	r3, #:lower16:vtlist
 552 0084 C0F20003 		movt	r3, #:upper16:vtlist
 553 0088 DB68     		ldr	r3, [r3, #12]
 554 008a 049A     		ldr	r2, [sp, #16]
 555 008c D31A     		subs	r3, r2, r3
 556 008e 019A     		ldr	r2, [sp, #4]
 557 0090 D318     		adds	r3, r2, r3
 558 0092 0193     		str	r3, [sp, #4]
 559              	.L28:
 560              		.loc 1 224 0
 561 0094 FFF7FEFF 		bl	dbg_check_unlock
 562              	.LBB13:
 563 0098 4FF00003 		mov	r3, #0
 564              	@ 224 "../../os/hal/src/mac.c" 1
 565 009c 83F31188 		msr     BASEPRI, r3
 566              	@ 0 "" 2
 567              		.thumb
 568              	.L25:
 569              	.LBE13:
 570              	.LBE10:
 571              		.loc 1 214 0 discriminator 1
 572 00a0 0398     		ldr	r0, [sp, #12]
 573 00a2 0299     		ldr	r1, [sp, #8]
 574 00a4 FFF7FEFF 		bl	mac_lld_get_receive_descriptor
 575 00a8 0346     		mov	r3, r0
 576 00aa 0593     		str	r3, [sp, #20]
 577 00ac 059B     		ldr	r3, [sp, #20]
 578 00ae 002B     		cmp	r3, #0
 579 00b0 02D0     		beq	.L27
 580              		.loc 1 214 0 is_stmt 0 discriminator 2
 581 00b2 019B     		ldr	r3, [sp, #4]
 582 00b4 002B     		cmp	r3, #0
 583 00b6 BFD1     		bne	.L29
 584              	.L27:
 585              		.loc 1 226 0 is_stmt 1
 586 00b8 059B     		ldr	r3, [sp, #20]
 587              		.loc 1 227 0
 588 00ba 1846     		mov	r0, r3
ARM GAS  /tmp/cc2D4mTg.s 			page 12


 589 00bc 07B0     		add	sp, sp, #28
 590 00be 00BD     		pop	{pc}
 591              		.cfi_endproc
 592              	.LFE69:
 593              		.size	macWaitReceiveDescriptor, .-macWaitReceiveDescriptor
 594              		.section	.rodata
 595 00df 00       		.align	2
 596              	.LC9:
 597 00e0 226D6163 		.ascii	"\"macReleaseReceiveDescriptor\"()\000"
 597      52656C65 
 597      61736552 
 597      65636569 
 597      76654465 
 598              		.section	.text.macReleaseReceiveDescriptor,"ax",%progbits
 599              		.align	2
 600              		.p2align 4,,15
 601              		.global	macReleaseReceiveDescriptor
 602              		.thumb
 603              		.thumb_func
 604              		.type	macReleaseReceiveDescriptor, %function
 605              	macReleaseReceiveDescriptor:
 606              	.LFB70:
 607              		.loc 1 238 0
 608              		.cfi_startproc
 609              		@ args = 0, pretend = 0, frame = 8
 610              		@ frame_needed = 0, uses_anonymous_args = 0
 611 0000 00B5     		push	{lr}
 612              	.LCFI13:
 613              		.cfi_def_cfa_offset 4
 614              		.cfi_offset 14, -4
 615 0002 83B0     		sub	sp, sp, #12
 616              	.LCFI14:
 617              		.cfi_def_cfa_offset 16
 618 0004 0190     		str	r0, [sp, #4]
 619              		.loc 1 240 0
 620 0006 019B     		ldr	r3, [sp, #4]
 621 0008 002B     		cmp	r3, #0
 622 000a 05D1     		bne	.L31
 623              		.loc 1 240 0 is_stmt 0 discriminator 1
 624 000c 40F20000 		movw	r0, #:lower16:.LC9
 625 0010 C0F20000 		movt	r0, #:upper16:.LC9
 626 0014 FFF7FEFF 		bl	chDbgPanic
 627              	.L31:
 628              		.loc 1 242 0 is_stmt 1
 629 0018 0198     		ldr	r0, [sp, #4]
 630 001a FFF7FEFF 		bl	mac_lld_release_receive_descriptor
 631              		.loc 1 243 0
 632 001e 03B0     		add	sp, sp, #12
 633 0020 00BD     		pop	{pc}
 634              		.cfi_endproc
 635              	.LFE70:
 636              		.size	macReleaseReceiveDescriptor, .-macReleaseReceiveDescriptor
 637 0022 00BFAFF3 		.section	.rodata
 637      0080AFF3 
 637      0080AFF3 
 637      0080
 638              		.align	2
ARM GAS  /tmp/cc2D4mTg.s 			page 13


 639              	.LC10:
 640 0100 226D6163 		.ascii	"\"macPollLinkStatus\"()\000"
 640      506F6C6C 
 640      4C696E6B 
 640      53746174 
 640      75732228 
 641 0116 0000     		.align	2
 642              	.LC11:
 643 0118 6D616350 		.ascii	"macPollLinkStatus(), #1\000"
 643      6F6C6C4C 
 643      696E6B53 
 643      74617475 
 643      7328292C 
 644              		.section	.text.macPollLinkStatus,"ax",%progbits
 645              		.align	2
 646              		.p2align 4,,15
 647              		.global	macPollLinkStatus
 648              		.thumb
 649              		.thumb_func
 650              		.type	macPollLinkStatus, %function
 651              	macPollLinkStatus:
 652              	.LFB71:
 653              		.loc 1 255 0
 654              		.cfi_startproc
 655              		@ args = 0, pretend = 0, frame = 8
 656              		@ frame_needed = 0, uses_anonymous_args = 0
 657 0000 00B5     		push	{lr}
 658              	.LCFI15:
 659              		.cfi_def_cfa_offset 4
 660              		.cfi_offset 14, -4
 661 0002 83B0     		sub	sp, sp, #12
 662              	.LCFI16:
 663              		.cfi_def_cfa_offset 16
 664 0004 0190     		str	r0, [sp, #4]
 665              		.loc 1 257 0
 666 0006 019B     		ldr	r3, [sp, #4]
 667 0008 002B     		cmp	r3, #0
 668 000a 05D1     		bne	.L33
 669              		.loc 1 257 0 is_stmt 0 discriminator 1
 670 000c 40F20000 		movw	r0, #:lower16:.LC10
 671 0010 C0F20000 		movt	r0, #:upper16:.LC10
 672 0014 FFF7FEFF 		bl	chDbgPanic
 673              	.L33:
 674              		.loc 1 258 0 is_stmt 1
 675 0018 019B     		ldr	r3, [sp, #4]
 676 001a 1B78     		ldrb	r3, [r3, #0]	@ zero_extendqisi2
 677 001c 022B     		cmp	r3, #2
 678 001e 05D0     		beq	.L34
 679              		.loc 1 258 0 is_stmt 0 discriminator 1
 680 0020 40F20000 		movw	r0, #:lower16:.LC11
 681 0024 C0F20000 		movt	r0, #:upper16:.LC11
 682 0028 FFF7FEFF 		bl	chDbgPanic
 683              	.L34:
 684              		.loc 1 261 0 is_stmt 1
 685 002c 0198     		ldr	r0, [sp, #4]
 686 002e FFF7FEFF 		bl	mac_lld_poll_link_status
 687 0032 0346     		mov	r3, r0
ARM GAS  /tmp/cc2D4mTg.s 			page 14


 688              		.loc 1 262 0
 689 0034 1846     		mov	r0, r3
 690 0036 03B0     		add	sp, sp, #12
 691 0038 00BD     		pop	{pc}
 692              		.cfi_endproc
 693              	.LFE71:
 694              		.size	macPollLinkStatus, .-macPollLinkStatus
 695 003a 00BFAFF3 		.text
 695      0080
 696              	.Letext0:
 697              		.file 2 "/home/texzk/ChibiStudio/tools/GNU Tools ARM Embedded/4.6 2012q2/bin/../lib/gcc/arm-none-e
 698              		.file 3 "/home/texzk/ChibiStudio/tools/GNU Tools ARM Embedded/4.6 2012q2/bin/../lib/gcc/arm-none-e
 699              		.file 4 "../../os/ports/GCC/ARMCMx/chtypes.h"
 700              		.file 5 "../../os/kernel/include/chlists.h"
 701              		.file 6 "../../os/kernel/include/chthreads.h"
 702              		.file 7 "../../os/ports/GCC/ARMCMx/chcore_v7m.h"
 703              		.file 8 "../../os/kernel/include/chvt.h"
 704              		.file 9 "../../os/kernel/include/chsem.h"
 705              		.file 10 "../../os/kernel/include/chmtx.h"
 706              		.file 11 "../../os/kernel/include/chevents.h"
 707              		.file 12 "../../os/hal/include/mac.h"
 708              		.file 13 "../../os/hal/platforms/STM32/mac_lld.h"
 709              		.file 14 "../../os/ports/common/ARMCMx/CMSIS/include/core_cm3.h"