ARM GAS  /tmp/ccDtMPe6.s 			page 1


   1              		.syntax unified
   2              		.cpu cortex-m3
   3              		.fpu softvfp
   4              		.eabi_attribute 20, 1
   5              		.eabi_attribute 21, 1
   6              		.eabi_attribute 23, 3
   7              		.eabi_attribute 24, 1
   8              		.eabi_attribute 25, 1
   9              		.eabi_attribute 26, 1
  10              		.eabi_attribute 30, 6
  11              		.eabi_attribute 34, 1
  12              		.eabi_attribute 18, 4
  13              		.thumb
  14              		.file	"mac_lld.c"
  15              		.text
  16              	.Ltext0:
  17              		.cfi_sections	.debug_frame
  18              		.global	ETHD1
  19              		.section	.bss.ETHD1,"aw",%nobits
  20              		.align	2
  21              		.type	ETHD1, %object
  22              		.size	ETHD1, 52
  23              	ETHD1:
  24 0000 00000000 		.space	52
  24      00000000 
  24      00000000 
  24      00000000 
  24      00000000 
  25              		.section	.rodata.default_mac_address,"a",%progbits
  26              		.align	2
  27              		.type	default_mac_address, %object
  28              		.size	default_mac_address, 6
  29              	default_mac_address:
  30 0000 AA       		.byte	-86
  31 0001 55       		.byte	85
  32 0002 13       		.byte	19
  33 0003 37       		.byte	55
  34 0004 01       		.byte	1
  35 0005 10       		.byte	16
  36 0006 0000     		.section	.bss.rd,"aw",%nobits
  37              		.align	2
  38              		.type	rd, %object
  39              		.size	rd, 64
  40              	rd:
  41 0000 00000000 		.space	64
  41      00000000 
  41      00000000 
  41      00000000 
  41      00000000 
  42              		.section	.bss.td,"aw",%nobits
  43              		.align	2
  44              		.type	td, %object
  45              		.size	td, 32
  46              	td:
  47 0000 00000000 		.space	32
  47      00000000 
  47      00000000 
ARM GAS  /tmp/ccDtMPe6.s 			page 2


  47      00000000 
  47      00000000 
  48              		.section	.bss.rb,"aw",%nobits
  49              		.align	2
  50              		.type	rb, %object
  51              		.size	rb, 6096
  52              	rb:
  53 0000 00000000 		.space	6096
  53      00000000 
  53      00000000 
  53      00000000 
  53      00000000 
  54              		.section	.bss.tb,"aw",%nobits
  55              		.align	2
  56              		.type	tb, %object
  57              		.size	tb, 3048
  58              	tb:
  59 0000 00000000 		.space	3048
  59      00000000 
  59      00000000 
  59      00000000 
  59      00000000 
  60              		.section	.text.mii_write,"ax",%progbits
  61              		.align	2
  62              		.p2align 4,,15
  63              		.thumb
  64              		.thumb_func
  65              		.type	mii_write, %function
  66              	mii_write:
  67              	.LFB63:
  68              		.file 1 "../../os/hal/platforms/STM32/mac_lld.c"
  69              		.loc 1 91 0
  70              		.cfi_startproc
  71              		@ args = 0, pretend = 0, frame = 16
  72              		@ frame_needed = 0, uses_anonymous_args = 0
  73              		@ link register save eliminated.
  74 0000 84B0     		sub	sp, sp, #16
  75              	.LCFI0:
  76              		.cfi_def_cfa_offset 16
  77 0002 0390     		str	r0, [sp, #12]
  78 0004 0291     		str	r1, [sp, #8]
  79 0006 0192     		str	r2, [sp, #4]
  80              		.loc 1 93 0
  81 0008 4FF40043 		mov	r3, #32768
  82 000c C4F20203 		movt	r3, 16386
  83 0010 019A     		ldr	r2, [sp, #4]
  84 0012 5A61     		str	r2, [r3, #20]
  85              		.loc 1 94 0
  86 0014 4FF40043 		mov	r3, #32768
  87 0018 C4F20203 		movt	r3, 16386
  88 001c 039A     		ldr	r2, [sp, #12]
  89 001e 916A     		ldr	r1, [r2, #40]
  90 0020 029A     		ldr	r2, [sp, #8]
  91 0022 4FEA8212 		lsl	r2, r2, #6
  92 0026 0A43     		orrs	r2, r2, r1
  93              		.loc 1 95 0
  94 0028 42F00702 		orr	r2, r2, #7
ARM GAS  /tmp/ccDtMPe6.s 			page 3


  95              		.loc 1 94 0
  96 002c 1A61     		str	r2, [r3, #16]
  97              		.loc 1 96 0
  98 002e 00BF     		nop
  99              	.L2:
 100              		.loc 1 96 0 is_stmt 0 discriminator 1
 101 0030 4FF40043 		mov	r3, #32768
 102 0034 C4F20203 		movt	r3, 16386
 103 0038 1B69     		ldr	r3, [r3, #16]
 104 003a 03F00103 		and	r3, r3, #1
 105 003e DBB2     		uxtb	r3, r3
 106 0040 002B     		cmp	r3, #0
 107 0042 F5D1     		bne	.L2
 108              		.loc 1 98 0 is_stmt 1
 109 0044 04B0     		add	sp, sp, #16
 110 0046 7047     		bx	lr
 111              		.cfi_endproc
 112              	.LFE63:
 113              		.size	mii_write, .-mii_write
 114 0048 AFF30080 		.section	.text.mii_read,"ax",%progbits
 114      AFF30080 
 115              		.align	2
 116              		.p2align 4,,15
 117              		.thumb
 118              		.thumb_func
 119              		.type	mii_read, %function
 120              	mii_read:
 121              	.LFB64:
 122              		.loc 1 108 0
 123              		.cfi_startproc
 124              		@ args = 0, pretend = 0, frame = 8
 125              		@ frame_needed = 0, uses_anonymous_args = 0
 126              		@ link register save eliminated.
 127 0000 82B0     		sub	sp, sp, #8
 128              	.LCFI1:
 129              		.cfi_def_cfa_offset 8
 130 0002 0190     		str	r0, [sp, #4]
 131 0004 0091     		str	r1, [sp, #0]
 132              		.loc 1 110 0
 133 0006 4FF40043 		mov	r3, #32768
 134 000a C4F20203 		movt	r3, 16386
 135 000e 019A     		ldr	r2, [sp, #4]
 136 0010 916A     		ldr	r1, [r2, #40]
 137 0012 009A     		ldr	r2, [sp, #0]
 138 0014 4FEA8212 		lsl	r2, r2, #6
 139 0018 0A43     		orrs	r2, r2, r1
 140 001a 42F00502 		orr	r2, r2, #5
 141 001e 1A61     		str	r2, [r3, #16]
 142              		.loc 1 111 0
 143 0020 00BF     		nop
 144              	.L4:
 145              		.loc 1 111 0 is_stmt 0 discriminator 1
 146 0022 4FF40043 		mov	r3, #32768
 147 0026 C4F20203 		movt	r3, 16386
 148 002a 1B69     		ldr	r3, [r3, #16]
 149 002c 03F00103 		and	r3, r3, #1
 150 0030 DBB2     		uxtb	r3, r3
ARM GAS  /tmp/ccDtMPe6.s 			page 4


 151 0032 002B     		cmp	r3, #0
 152 0034 F5D1     		bne	.L4
 153              		.loc 1 113 0 is_stmt 1
 154 0036 4FF40043 		mov	r3, #32768
 155 003a C4F20203 		movt	r3, 16386
 156 003e 5B69     		ldr	r3, [r3, #20]
 157              		.loc 1 114 0
 158 0040 1846     		mov	r0, r3
 159 0042 02B0     		add	sp, sp, #8
 160 0044 7047     		bx	lr
 161              		.cfi_endproc
 162              	.LFE64:
 163              		.size	mii_read, .-mii_read
 164 0046 00BFAFF3 		.section	.text.mac_lld_set_address,"ax",%progbits
 164      0080AFF3 
 164      0080
 165              		.align	2
 166              		.p2align 4,,15
 167              		.thumb
 168              		.thumb_func
 169              		.type	mac_lld_set_address, %function
 170              	mac_lld_set_address:
 171              	.LFB65:
 172              		.loc 1 152 0
 173              		.cfi_startproc
 174              		@ args = 0, pretend = 0, frame = 8
 175              		@ frame_needed = 0, uses_anonymous_args = 0
 176              		@ link register save eliminated.
 177 0000 82B0     		sub	sp, sp, #8
 178              	.LCFI2:
 179              		.cfi_def_cfa_offset 8
 180 0002 0190     		str	r0, [sp, #4]
 181              		.loc 1 156 0
 182 0004 4FF40043 		mov	r3, #32768
 183 0008 C4F20203 		movt	r3, 16386
 184 000c 019A     		ldr	r2, [sp, #4]
 185 000e 02F10502 		add	r2, r2, #5
 186 0012 1278     		ldrb	r2, [r2, #0]	@ zero_extendqisi2
 187 0014 4FEA0221 		lsl	r1, r2, #8
 188              		.loc 1 157 0
 189 0018 019A     		ldr	r2, [sp, #4]
 190 001a 02F10402 		add	r2, r2, #4
 191 001e 1278     		ldrb	r2, [r2, #0]	@ zero_extendqisi2
 192              		.loc 1 156 0
 193 0020 0A43     		orrs	r2, r2, r1
 194 0022 1A64     		str	r2, [r3, #64]
 195              		.loc 1 158 0
 196 0024 4FF40043 		mov	r3, #32768
 197 0028 C4F20203 		movt	r3, 16386
 198 002c 019A     		ldr	r2, [sp, #4]
 199 002e 02F10302 		add	r2, r2, #3
 200 0032 1278     		ldrb	r2, [r2, #0]	@ zero_extendqisi2
 201 0034 4FEA0261 		lsl	r1, r2, #24
 202              		.loc 1 159 0
 203 0038 019A     		ldr	r2, [sp, #4]
 204 003a 02F10202 		add	r2, r2, #2
 205 003e 1278     		ldrb	r2, [r2, #0]	@ zero_extendqisi2
ARM GAS  /tmp/ccDtMPe6.s 			page 5


 206 0040 4FEA0242 		lsl	r2, r2, #16
 207              		.loc 1 158 0
 208 0044 1143     		orrs	r1, r1, r2
 209              		.loc 1 160 0
 210 0046 019A     		ldr	r2, [sp, #4]
 211 0048 02F10102 		add	r2, r2, #1
 212 004c 1278     		ldrb	r2, [r2, #0]	@ zero_extendqisi2
 213 004e 4FEA0222 		lsl	r2, r2, #8
 214              		.loc 1 159 0
 215 0052 1143     		orrs	r1, r1, r2
 216              		.loc 1 161 0
 217 0054 019A     		ldr	r2, [sp, #4]
 218 0056 1278     		ldrb	r2, [r2, #0]	@ zero_extendqisi2
 219              		.loc 1 160 0
 220 0058 0A43     		orrs	r2, r2, r1
 221              		.loc 1 158 0
 222 005a 5A64     		str	r2, [r3, #68]
 223              		.loc 1 162 0
 224 005c 4FF40043 		mov	r3, #32768
 225 0060 C4F20203 		movt	r3, 16386
 226 0064 4FF6FF72 		movw	r2, #65535
 227 0068 9A64     		str	r2, [r3, #72]
 228              		.loc 1 163 0
 229 006a 4FF40043 		mov	r3, #32768
 230 006e C4F20203 		movt	r3, 16386
 231 0072 4FF0FF32 		mov	r2, #-1
 232 0076 DA64     		str	r2, [r3, #76]
 233              		.loc 1 164 0
 234 0078 4FF40043 		mov	r3, #32768
 235 007c C4F20203 		movt	r3, 16386
 236 0080 4FF6FF72 		movw	r2, #65535
 237 0084 1A65     		str	r2, [r3, #80]
 238              		.loc 1 165 0
 239 0086 4FF40043 		mov	r3, #32768
 240 008a C4F20203 		movt	r3, 16386
 241 008e 4FF0FF32 		mov	r2, #-1
 242 0092 5A65     		str	r2, [r3, #84]
 243              		.loc 1 166 0
 244 0094 4FF40043 		mov	r3, #32768
 245 0098 C4F20203 		movt	r3, 16386
 246 009c 4FF6FF72 		movw	r2, #65535
 247 00a0 9A65     		str	r2, [r3, #88]
 248              		.loc 1 167 0
 249 00a2 4FF40043 		mov	r3, #32768
 250 00a6 C4F20203 		movt	r3, 16386
 251 00aa 4FF0FF32 		mov	r2, #-1
 252 00ae DA65     		str	r2, [r3, #92]
 253              		.loc 1 168 0
 254 00b0 4FF40043 		mov	r3, #32768
 255 00b4 C4F20203 		movt	r3, 16386
 256 00b8 4FF00002 		mov	r2, #0
 257 00bc 9A60     		str	r2, [r3, #8]
 258              		.loc 1 169 0
 259 00be 4FF40043 		mov	r3, #32768
 260 00c2 C4F20203 		movt	r3, 16386
 261 00c6 4FF00002 		mov	r2, #0
 262 00ca DA60     		str	r2, [r3, #12]
ARM GAS  /tmp/ccDtMPe6.s 			page 6


 263              		.loc 1 170 0
 264 00cc 02B0     		add	sp, sp, #8
 265 00ce 7047     		bx	lr
 266              		.cfi_endproc
 267              	.LFE65:
 268              		.size	mac_lld_set_address, .-mac_lld_set_address
 269              		.section	.text.Vector134,"ax",%progbits
 270              		.align	2
 271              		.p2align 4,,15
 272              		.global	Vector134
 273              		.thumb
 274              		.thumb_func
 275              		.type	Vector134, %function
 276              	Vector134:
 277              	.LFB66:
 278              		.loc 1 176 0
 279              		.cfi_startproc
 280              		@ args = 0, pretend = 0, frame = 8
 281              		@ frame_needed = 0, uses_anonymous_args = 0
 282 0000 00B5     		push	{lr}
 283              	.LCFI3:
 284              		.cfi_def_cfa_offset 4
 285              		.cfi_offset 14, -4
 286 0002 83B0     		sub	sp, sp, #12
 287              	.LCFI4:
 288              		.cfi_def_cfa_offset 16
 289              		.loc 1 179 0
 290 0004 FFF7FEFF 		bl	dbg_check_enter_isr
 291              		.loc 1 181 0
 292 0008 4FF40043 		mov	r3, #32768
 293 000c C4F20203 		movt	r3, 16386
 294 0010 03F58053 		add	r3, r3, #4096
 295 0014 03F11403 		add	r3, r3, #20
 296 0018 1B68     		ldr	r3, [r3, #0]
 297 001a 0193     		str	r3, [sp, #4]
 298              		.loc 1 182 0
 299 001c 4FF40043 		mov	r3, #32768
 300 0020 C4F20203 		movt	r3, 16386
 301 0024 03F58053 		add	r3, r3, #4096
 302 0028 03F11403 		add	r3, r3, #20
 303 002c 019A     		ldr	r2, [sp, #4]
 304 002e 1A60     		str	r2, [r3, #0]
 305              		.loc 1 184 0
 306 0030 019B     		ldr	r3, [sp, #4]
 307 0032 03F04003 		and	r3, r3, #64
 308 0036 002B     		cmp	r3, #0
 309 0038 15D0     		beq	.L7
 310              	.LBB2:
 311              		.loc 1 186 0
 312 003a 4FF02003 		mov	r3, #32
 313              	@ 186 "../../os/hal/platforms/STM32/mac_lld.c" 1
 314 003e 83F31188 		msr     BASEPRI, r3
 315              	@ 0 "" 2
 316              		.thumb
 317              	.LBE2:
 318 0042 FFF7FEFF 		bl	dbg_check_lock_from_isr
 319              		.loc 1 187 0
ARM GAS  /tmp/ccDtMPe6.s 			page 7


 320 0046 1648     		ldr	r0, .L9
 321 0048 4FF00001 		mov	r1, #0
 322 004c FFF7FEFF 		bl	chSemResetI
 323              		.loc 1 189 0
 324 0050 1448     		ldr	r0, .L9+4
 325 0052 4FF00001 		mov	r1, #0
 326 0056 FFF7FEFF 		bl	chEvtBroadcastFlagsI
 327              		.loc 1 191 0
 328 005a FFF7FEFF 		bl	dbg_check_unlock_from_isr
 329              	.LBB3:
 330 005e 4FF00003 		mov	r3, #0
 331              	@ 191 "../../os/hal/platforms/STM32/mac_lld.c" 1
 332 0062 83F31188 		msr     BASEPRI, r3
 333              	@ 0 "" 2
 334              		.thumb
 335              	.L7:
 336              	.LBE3:
 337              		.loc 1 194 0
 338 0066 019B     		ldr	r3, [sp, #4]
 339 0068 03F00103 		and	r3, r3, #1
 340 006c DBB2     		uxtb	r3, r3
 341 006e 002B     		cmp	r3, #0
 342 0070 10D0     		beq	.L8
 343              	.LBB4:
 344              		.loc 1 196 0
 345 0072 4FF02003 		mov	r3, #32
 346              	@ 196 "../../os/hal/platforms/STM32/mac_lld.c" 1
 347 0076 83F31188 		msr     BASEPRI, r3
 348              	@ 0 "" 2
 349              		.thumb
 350              	.LBE4:
 351 007a FFF7FEFF 		bl	dbg_check_lock_from_isr
 352              		.loc 1 197 0
 353 007e 0A48     		ldr	r0, .L9+8
 354 0080 4FF00001 		mov	r1, #0
 355 0084 FFF7FEFF 		bl	chSemResetI
 356              		.loc 1 198 0
 357 0088 FFF7FEFF 		bl	dbg_check_unlock_from_isr
 358              	.LBB5:
 359 008c 4FF00003 		mov	r3, #0
 360              	@ 198 "../../os/hal/platforms/STM32/mac_lld.c" 1
 361 0090 83F31188 		msr     BASEPRI, r3
 362              	@ 0 "" 2
 363              		.thumb
 364              	.L8:
 365              	.LBE5:
 366              		.loc 1 201 0
 367 0094 FFF7FEFF 		bl	dbg_check_leave_isr
 368 0098 FFF7FEFF 		bl	_port_irq_epilogue
 369              		.loc 1 202 0
 370 009c 03B0     		add	sp, sp, #12
 371 009e 00BD     		pop	{pc}
 372              	.L10:
 373              		.align	2
 374              	.L9:
 375 00a0 14000000 		.word	ETHD1+20
 376 00a4 20000000 		.word	ETHD1+32
ARM GAS  /tmp/ccDtMPe6.s 			page 8


 377 00a8 08000000 		.word	ETHD1+8
 378              		.cfi_endproc
 379              	.LFE66:
 380              		.size	Vector134, .-Vector134
 381 00ac AFF30080 		.section	.text.mac_lld_init,"ax",%progbits
 382              		.align	2
 383              		.p2align 4,,15
 384              		.global	mac_lld_init
 385              		.thumb
 386              		.thumb_func
 387              		.type	mac_lld_init, %function
 388              	mac_lld_init:
 389              	.LFB67:
 390              		.loc 1 213 0
 391              		.cfi_startproc
 392              		@ args = 0, pretend = 0, frame = 8
 393              		@ frame_needed = 0, uses_anonymous_args = 0
 394 0000 00B5     		push	{lr}
 395              	.LCFI5:
 396              		.cfi_def_cfa_offset 4
 397              		.cfi_offset 14, -4
 398 0002 83B0     		sub	sp, sp, #12
 399              	.LCFI6:
 400              		.cfi_def_cfa_offset 16
 401              		.loc 1 216 0
 402 0004 40F20000 		movw	r0, #:lower16:ETHD1
 403 0008 C0F20000 		movt	r0, #:upper16:ETHD1
 404 000c FFF7FEFF 		bl	macObjectInit
 405              		.loc 1 217 0
 406 0010 40F20003 		movw	r3, #:lower16:ETHD1
 407 0014 C0F20003 		movt	r3, #:upper16:ETHD1
 408 0018 4FF00002 		mov	r2, #0
 409 001c 5A62     		str	r2, [r3, #36]
 410              		.loc 1 221 0
 411 001e 4FF00003 		mov	r3, #0
 412 0022 0193     		str	r3, [sp, #4]
 413 0024 3CE0     		b	.L12
 414              	.L13:
 415              		.loc 1 222 0 discriminator 2
 416 0026 40F20003 		movw	r3, #:lower16:rd
 417 002a C0F20003 		movt	r3, #:upper16:rd
 418 002e 019A     		ldr	r2, [sp, #4]
 419 0030 4FEA0212 		lsl	r2, r2, #4
 420 0034 9B18     		adds	r3, r3, r2
 421 0036 44F2F252 		movw	r2, #17906
 422 003a 5A60     		str	r2, [r3, #4]
 423              		.loc 1 223 0 discriminator 2
 424 003c 019B     		ldr	r3, [sp, #4]
 425 003e 40F2F452 		movw	r2, #1524
 426 0042 02FB03F2 		mul	r2, r2, r3
 427 0046 40F20003 		movw	r3, #:lower16:rb
 428 004a C0F20003 		movt	r3, #:upper16:rb
 429 004e D318     		adds	r3, r2, r3
 430 0050 1A46     		mov	r2, r3
 431 0052 40F20003 		movw	r3, #:lower16:rd
 432 0056 C0F20003 		movt	r3, #:upper16:rd
 433 005a 0199     		ldr	r1, [sp, #4]
ARM GAS  /tmp/ccDtMPe6.s 			page 9


 434 005c 4FEA0111 		lsl	r1, r1, #4
 435 0060 5B18     		adds	r3, r3, r1
 436 0062 03F10803 		add	r3, r3, #8
 437 0066 1A60     		str	r2, [r3, #0]
 438              		.loc 1 224 0 discriminator 2
 439 0068 019B     		ldr	r3, [sp, #4]
 440 006a 03F10103 		add	r3, r3, #1
 441 006e 03F00303 		and	r3, r3, #3
 442 0072 4FEA0312 		lsl	r2, r3, #4
 443 0076 40F20003 		movw	r3, #:lower16:rd
 444 007a C0F20003 		movt	r3, #:upper16:rd
 445 007e D318     		adds	r3, r2, r3
 446 0080 1A46     		mov	r2, r3
 447 0082 40F20003 		movw	r3, #:lower16:rd
 448 0086 C0F20003 		movt	r3, #:upper16:rd
 449 008a 0199     		ldr	r1, [sp, #4]
 450 008c 4FEA0111 		lsl	r1, r1, #4
 451 0090 5B18     		adds	r3, r3, r1
 452 0092 03F10803 		add	r3, r3, #8
 453 0096 5A60     		str	r2, [r3, #4]
 454              		.loc 1 221 0 discriminator 2
 455 0098 019B     		ldr	r3, [sp, #4]
 456 009a 03F10103 		add	r3, r3, #1
 457 009e 0193     		str	r3, [sp, #4]
 458              	.L12:
 459              		.loc 1 221 0 is_stmt 0 discriminator 1
 460 00a0 019B     		ldr	r3, [sp, #4]
 461 00a2 032B     		cmp	r3, #3
 462 00a4 BFD9     		bls	.L13
 463              		.loc 1 226 0 is_stmt 1
 464 00a6 4FF00003 		mov	r3, #0
 465 00aa 0193     		str	r3, [sp, #4]
 466 00ac 3CE0     		b	.L14
 467              	.L15:
 468              		.loc 1 227 0 discriminator 2
 469 00ae 40F20003 		movw	r3, #:lower16:td
 470 00b2 C0F20003 		movt	r3, #:upper16:td
 471 00b6 019A     		ldr	r2, [sp, #4]
 472 00b8 4FEA0212 		lsl	r2, r2, #4
 473 00bc 9B18     		adds	r3, r3, r2
 474 00be 4FF00002 		mov	r2, #0
 475 00c2 5A60     		str	r2, [r3, #4]
 476              		.loc 1 228 0 discriminator 2
 477 00c4 019B     		ldr	r3, [sp, #4]
 478 00c6 40F2F452 		movw	r2, #1524
 479 00ca 02FB03F2 		mul	r2, r2, r3
 480 00ce 40F20003 		movw	r3, #:lower16:tb
 481 00d2 C0F20003 		movt	r3, #:upper16:tb
 482 00d6 D318     		adds	r3, r2, r3
 483 00d8 1A46     		mov	r2, r3
 484 00da 40F20003 		movw	r3, #:lower16:td
 485 00de C0F20003 		movt	r3, #:upper16:td
 486 00e2 0199     		ldr	r1, [sp, #4]
 487 00e4 4FEA0111 		lsl	r1, r1, #4
 488 00e8 5B18     		adds	r3, r3, r1
 489 00ea 03F10803 		add	r3, r3, #8
 490 00ee 1A60     		str	r2, [r3, #0]
ARM GAS  /tmp/ccDtMPe6.s 			page 10


 491              		.loc 1 229 0 discriminator 2
 492 00f0 019B     		ldr	r3, [sp, #4]
 493 00f2 03F10103 		add	r3, r3, #1
 494 00f6 03F00103 		and	r3, r3, #1
 495 00fa 4FEA0312 		lsl	r2, r3, #4
 496 00fe 40F20003 		movw	r3, #:lower16:td
 497 0102 C0F20003 		movt	r3, #:upper16:td
 498 0106 D318     		adds	r3, r2, r3
 499 0108 1A46     		mov	r2, r3
 500 010a 40F20003 		movw	r3, #:lower16:td
 501 010e C0F20003 		movt	r3, #:upper16:td
 502 0112 0199     		ldr	r1, [sp, #4]
 503 0114 4FEA0111 		lsl	r1, r1, #4
 504 0118 5B18     		adds	r3, r3, r1
 505 011a 03F10803 		add	r3, r3, #8
 506 011e 5A60     		str	r2, [r3, #4]
 507              		.loc 1 226 0 discriminator 2
 508 0120 019B     		ldr	r3, [sp, #4]
 509 0122 03F10103 		add	r3, r3, #1
 510 0126 0193     		str	r3, [sp, #4]
 511              	.L14:
 512              		.loc 1 226 0 is_stmt 0 discriminator 1
 513 0128 019B     		ldr	r3, [sp, #4]
 514 012a 012B     		cmp	r3, #1
 515 012c BFD9     		bls	.L15
 516              		.loc 1 243 0 is_stmt 1
 517 012e 4FF46053 		mov	r3, #14336
 518 0132 C4F20103 		movt	r3, 16385
 519 0136 4FF46052 		mov	r2, #14336
 520 013a C4F20102 		movt	r2, 16385
 521 013e 5268     		ldr	r2, [r2, #4]
 522 0140 22F40002 		bic	r2, r2, #8388608
 523 0144 5A60     		str	r2, [r3, #4]
 524              		.loc 1 250 0
 525 0146 4FF46053 		mov	r3, #14336
 526 014a C4F20203 		movt	r3, 16386
 527 014e 4FF46052 		mov	r2, #14336
 528 0152 C4F20202 		movt	r2, 16386
 529 0156 1269     		ldr	r2, [r2, #16]
 530 0158 42F00072 		orr	r2, r2, #33554432
 531 015c 1A61     		str	r2, [r3, #16]
 532 015e 4FF46053 		mov	r3, #14336
 533 0162 C4F20203 		movt	r3, 16386
 534 0166 4FF00002 		mov	r2, #0
 535 016a 1A61     		str	r2, [r3, #16]
 536              		.loc 1 253 0
 537 016c 4FF46053 		mov	r3, #14336
 538 0170 C4F20203 		movt	r3, 16386
 539 0174 4FF46052 		mov	r2, #14336
 540 0178 C4F20202 		movt	r2, 16386
 541 017c 126B     		ldr	r2, [r2, #48]
 542 017e 42F06062 		orr	r2, r2, #234881024
 543 0182 1A63     		str	r2, [r3, #48]
 544              		.loc 1 257 0
 545 0184 40F20003 		movw	r3, #:lower16:ETHD1
 546 0188 C0F20003 		movt	r3, #:upper16:ETHD1
 547 018c 4FF00002 		mov	r2, #0
ARM GAS  /tmp/ccDtMPe6.s 			page 11


 548 0190 9A62     		str	r2, [r3, #40]
 549              		.loc 1 267 0
 550 0192 40F20000 		movw	r0, #:lower16:ETHD1
 551 0196 C0F20000 		movt	r0, #:upper16:ETHD1
 552 019a 4FF00001 		mov	r1, #0
 553 019e 4FF40042 		mov	r2, #32768
 554 01a2 FFF7FEFF 		bl	mii_write
 555              		.loc 1 271 0
 556 01a6 00BF     		nop
 557              	.L16:
 558              		.loc 1 271 0 is_stmt 0 discriminator 1
 559 01a8 40F20000 		movw	r0, #:lower16:ETHD1
 560 01ac C0F20000 		movt	r0, #:upper16:ETHD1
 561 01b0 4FF00001 		mov	r1, #0
 562 01b4 FFF7FEFF 		bl	mii_read
 563 01b8 0346     		mov	r3, r0
 564 01ba 03F40043 		and	r3, r3, #32768
 565 01be 002B     		cmp	r3, #0
 566 01c0 F2D1     		bne	.L16
 567              		.loc 1 276 0 is_stmt 1
 568 01c2 40F20000 		movw	r0, #:lower16:ETHD1
 569 01c6 C0F20000 		movt	r0, #:upper16:ETHD1
 570 01ca 4FF00001 		mov	r1, #0
 571 01ce FFF7FEFF 		bl	mii_read
 572 01d2 0346     		mov	r3, r0
 573 01d4 43F40063 		orr	r3, r3, #2048
 574 01d8 40F20000 		movw	r0, #:lower16:ETHD1
 575 01dc C0F20000 		movt	r0, #:upper16:ETHD1
 576 01e0 4FF00001 		mov	r1, #0
 577 01e4 1A46     		mov	r2, r3
 578 01e6 FFF7FEFF 		bl	mii_write
 579              		.loc 1 279 0
 580 01ea 4FF46053 		mov	r3, #14336
 581 01ee C4F20203 		movt	r3, 16386
 582 01f2 4FF46052 		mov	r2, #14336
 583 01f6 C4F20202 		movt	r2, 16386
 584 01fa 126B     		ldr	r2, [r2, #48]
 585 01fc 22F06062 		bic	r2, r2, #234881024
 586 0200 1A63     		str	r2, [r3, #48]
 587              		.loc 1 280 0
 588 0202 03B0     		add	sp, sp, #12
 589 0204 00BD     		pop	{pc}
 590              		.cfi_endproc
 591              	.LFE67:
 592              		.size	mac_lld_init, .-mac_lld_init
 593 0206 00BFAFF3 		.section	.text.mac_lld_start,"ax",%progbits
 593      0080AFF3 
 593      0080
 594              		.align	2
 595              		.p2align 4,,15
 596              		.global	mac_lld_start
 597              		.thumb
 598              		.thumb_func
 599              		.type	mac_lld_start, %function
 600              	mac_lld_start:
 601              	.LFB68:
 602              		.loc 1 289 0
ARM GAS  /tmp/ccDtMPe6.s 			page 12


 603              		.cfi_startproc
 604              		@ args = 0, pretend = 0, frame = 16
 605              		@ frame_needed = 0, uses_anonymous_args = 0
 606 0000 00B5     		push	{lr}
 607              	.LCFI7:
 608              		.cfi_def_cfa_offset 4
 609              		.cfi_offset 14, -4
 610 0002 85B0     		sub	sp, sp, #20
 611              	.LCFI8:
 612              		.cfi_def_cfa_offset 24
 613 0004 0190     		str	r0, [sp, #4]
 614              		.loc 1 293 0
 615 0006 4FF00003 		mov	r3, #0
 616 000a 0393     		str	r3, [sp, #12]
 617 000c 0EE0     		b	.L18
 618              	.L19:
 619              		.loc 1 294 0 discriminator 2
 620 000e 40F20003 		movw	r3, #:lower16:rd
 621 0012 C0F20003 		movt	r3, #:upper16:rd
 622 0016 039A     		ldr	r2, [sp, #12]
 623 0018 4FEA0212 		lsl	r2, r2, #4
 624 001c 9B18     		adds	r3, r3, r2
 625 001e 4FF00042 		mov	r2, #-2147483648
 626 0022 1A60     		str	r2, [r3, #0]
 627              		.loc 1 293 0 discriminator 2
 628 0024 039B     		ldr	r3, [sp, #12]
 629 0026 03F10103 		add	r3, r3, #1
 630 002a 0393     		str	r3, [sp, #12]
 631              	.L18:
 632              		.loc 1 293 0 is_stmt 0 discriminator 1
 633 002c 039B     		ldr	r3, [sp, #12]
 634 002e 032B     		cmp	r3, #3
 635 0030 EDD9     		bls	.L19
 636              		.loc 1 295 0 is_stmt 1
 637 0032 019A     		ldr	r2, [sp, #4]
 638 0034 40F20003 		movw	r3, #:lower16:rd
 639 0038 C0F20003 		movt	r3, #:upper16:rd
 640 003c D362     		str	r3, [r2, #44]
 641              		.loc 1 296 0
 642 003e 4FF00003 		mov	r3, #0
 643 0042 0393     		str	r3, [sp, #12]
 644 0044 0EE0     		b	.L20
 645              	.L21:
 646              		.loc 1 297 0 discriminator 2
 647 0046 40F20003 		movw	r3, #:lower16:td
 648 004a C0F20003 		movt	r3, #:upper16:td
 649 004e 039A     		ldr	r2, [sp, #12]
 650 0050 4FEA0212 		lsl	r2, r2, #4
 651 0054 9B18     		adds	r3, r3, r2
 652 0056 4FF48012 		mov	r2, #1048576
 653 005a 1A60     		str	r2, [r3, #0]
 654              		.loc 1 296 0 discriminator 2
 655 005c 039B     		ldr	r3, [sp, #12]
 656 005e 03F10103 		add	r3, r3, #1
 657 0062 0393     		str	r3, [sp, #12]
 658              	.L20:
 659              		.loc 1 296 0 is_stmt 0 discriminator 1
ARM GAS  /tmp/ccDtMPe6.s 			page 13


 660 0064 039B     		ldr	r3, [sp, #12]
 661 0066 012B     		cmp	r3, #1
 662 0068 EDD9     		bls	.L21
 663              		.loc 1 298 0 is_stmt 1
 664 006a 019A     		ldr	r2, [sp, #4]
 665 006c 40F20003 		movw	r3, #:lower16:td
 666 0070 C0F20003 		movt	r3, #:upper16:td
 667 0074 1363     		str	r3, [r2, #48]
 668              		.loc 1 301 0
 669 0076 4FF46053 		mov	r3, #14336
 670 007a C4F20203 		movt	r3, 16386
 671 007e 4FF46052 		mov	r2, #14336
 672 0082 C4F20202 		movt	r2, 16386
 673 0086 126B     		ldr	r2, [r2, #48]
 674 0088 42F06062 		orr	r2, r2, #234881024
 675 008c 1A63     		str	r2, [r3, #48]
 676              		.loc 1 302 0
 677 008e 4FF46053 		mov	r3, #14336
 678 0092 C4F20203 		movt	r3, 16386
 679 0096 4FF46052 		mov	r2, #14336
 680 009a C4F20202 		movt	r2, 16386
 681 009e 1269     		ldr	r2, [r2, #16]
 682 00a0 42F00072 		orr	r2, r2, #33554432
 683 00a4 1A61     		str	r2, [r3, #16]
 684 00a6 4FF46053 		mov	r3, #14336
 685 00aa C4F20203 		movt	r3, 16386
 686 00ae 4FF00002 		mov	r2, #0
 687 00b2 1A61     		str	r2, [r3, #16]
 688              		.loc 1 303 0
 689 00b4 4FF40043 		mov	r3, #32768
 690 00b8 C4F20203 		movt	r3, 16386
 691 00bc 4FF40042 		mov	r2, #32768
 692 00c0 C4F20202 		movt	r2, 16386
 693 00c4 02F58052 		add	r2, r2, #4096
 694 00c8 1268     		ldr	r2, [r2, #0]
 695 00ca 42F00102 		orr	r2, r2, #1
 696 00ce 03F58053 		add	r3, r3, #4096
 697 00d2 1A60     		str	r2, [r3, #0]
 698              		.loc 1 304 0
 699 00d4 00BF     		nop
 700              	.L22:
 701              		.loc 1 304 0 is_stmt 0 discriminator 1
 702 00d6 4FF40043 		mov	r3, #32768
 703 00da C4F20203 		movt	r3, 16386
 704 00de 03F58053 		add	r3, r3, #4096
 705 00e2 1B68     		ldr	r3, [r3, #0]
 706 00e4 03F00103 		and	r3, r3, #1
 707 00e8 DBB2     		uxtb	r3, r3
 708 00ea 002B     		cmp	r3, #0
 709 00ec F3D1     		bne	.L22
 710              		.loc 1 308 0 is_stmt 1
 711 00ee 4FF03D00 		mov	r0, #61
 712 00f2 4FF0D001 		mov	r1, #208
 713 00f6 FFF7FEFF 		bl	nvicEnableVector
 714              		.loc 1 311 0
 715 00fa 0198     		ldr	r0, [sp, #4]
 716 00fc 4FF00001 		mov	r1, #0
ARM GAS  /tmp/ccDtMPe6.s 			page 14


 717 0100 FFF7FEFF 		bl	mii_read
 718 0104 0346     		mov	r3, r0
 719 0106 23F40063 		bic	r3, r3, #2048
 720 010a 0198     		ldr	r0, [sp, #4]
 721 010c 4FF00001 		mov	r1, #0
 722 0110 1A46     		mov	r2, r3
 723 0112 FFF7FEFF 		bl	mii_write
 724              		.loc 1 314 0
 725 0116 4FF40043 		mov	r3, #32768
 726 011a C4F20203 		movt	r3, 16386
 727 011e 4FF00002 		mov	r2, #0
 728 0122 5A60     		str	r2, [r3, #4]
 729              		.loc 1 315 0
 730 0124 4FF40043 		mov	r3, #32768
 731 0128 C4F20203 		movt	r3, 16386
 732 012c 4FF00002 		mov	r2, #0
 733 0130 9A61     		str	r2, [r3, #24]
 734              		.loc 1 316 0
 735 0132 4FF40043 		mov	r3, #32768
 736 0136 C4F20203 		movt	r3, 16386
 737 013a 4FF00002 		mov	r2, #0
 738 013e DA61     		str	r2, [r3, #28]
 739              		.loc 1 319 0
 740 0140 019B     		ldr	r3, [sp, #4]
 741 0142 5B68     		ldr	r3, [r3, #4]
 742 0144 1B68     		ldr	r3, [r3, #0]
 743 0146 002B     		cmp	r3, #0
 744 0148 06D1     		bne	.L23
 745              		.loc 1 320 0
 746 014a 40F20000 		movw	r0, #:lower16:default_mac_address
 747 014e C0F20000 		movt	r0, #:upper16:default_mac_address
 748 0152 FFF7FEFF 		bl	mac_lld_set_address
 749 0156 05E0     		b	.L24
 750              	.L23:
 751              		.loc 1 322 0
 752 0158 019B     		ldr	r3, [sp, #4]
 753 015a 5B68     		ldr	r3, [r3, #4]
 754 015c 1B68     		ldr	r3, [r3, #0]
 755 015e 1846     		mov	r0, r3
 756 0160 FFF7FEFF 		bl	mac_lld_set_address
 757              	.L24:
 758              		.loc 1 330 0
 759 0164 4FF40043 		mov	r3, #32768
 760 0168 C4F20203 		movt	r3, 16386
 761 016c 4FF00C02 		mov	r2, #12
 762 0170 1A60     		str	r2, [r3, #0]
 763              		.loc 1 335 0
 764 0172 4FF40043 		mov	r3, #32768
 765 0176 C4F20203 		movt	r3, 16386
 766 017a 40F20002 		movw	r2, #:lower16:rd
 767 017e C0F20002 		movt	r2, #:upper16:rd
 768 0182 03F58053 		add	r3, r3, #4096
 769 0186 03F10C03 		add	r3, r3, #12
 770 018a 1A60     		str	r2, [r3, #0]
 771              		.loc 1 336 0
 772 018c 4FF40043 		mov	r3, #32768
 773 0190 C4F20203 		movt	r3, 16386
ARM GAS  /tmp/ccDtMPe6.s 			page 15


 774 0194 40F20002 		movw	r2, #:lower16:td
 775 0198 C0F20002 		movt	r2, #:upper16:td
 776 019c 03F58053 		add	r3, r3, #4096
 777 01a0 03F11003 		add	r3, r3, #16
 778 01a4 1A60     		str	r2, [r3, #0]
 779              		.loc 1 339 0
 780 01a6 4FF40043 		mov	r3, #32768
 781 01aa C4F20203 		movt	r3, 16386
 782 01ae 4FF40042 		mov	r2, #32768
 783 01b2 C4F20202 		movt	r2, 16386
 784 01b6 02F58052 		add	r2, r2, #4096
 785 01ba 02F11402 		add	r2, r2, #20
 786 01be 1268     		ldr	r2, [r2, #0]
 787 01c0 03F58053 		add	r3, r3, #4096
 788 01c4 03F11403 		add	r3, r3, #20
 789 01c8 1A60     		str	r2, [r3, #0]
 790              		.loc 1 340 0
 791 01ca 4FF40043 		mov	r3, #32768
 792 01ce C4F20203 		movt	r3, 16386
 793 01d2 03F58053 		add	r3, r3, #4096
 794 01d6 03F11C03 		add	r3, r3, #28
 795 01da 4FF04102 		mov	r2, #65
 796 01de C0F20102 		movt	r2, 1
 797 01e2 1A60     		str	r2, [r3, #0]
 798              		.loc 1 343 0
 799 01e4 4FF40043 		mov	r3, #32768
 800 01e8 C4F20203 		movt	r3, 16386
 801 01ec 03F58052 		add	r2, r3, #4096
 802 01f0 4FF48073 		mov	r3, #256
 803 01f4 C0F20223 		movt	r3, 514
 804 01f8 1360     		str	r3, [r2, #0]
 805              		.loc 1 346 0
 806 01fa 4FF40043 		mov	r3, #32768
 807 01fe C4F20203 		movt	r3, 16386
 808 0202 03F58053 		add	r3, r3, #4096
 809 0206 03F11803 		add	r3, r3, #24
 810 020a 4FF48012 		mov	r2, #1048576
 811 020e 1A60     		str	r2, [r3, #0]
 812              		.loc 1 347 0
 813 0210 00BF     		nop
 814              	.L25:
 815              		.loc 1 347 0 is_stmt 0 discriminator 1
 816 0212 4FF40043 		mov	r3, #32768
 817 0216 C4F20203 		movt	r3, 16386
 818 021a 03F58053 		add	r3, r3, #4096
 819 021e 03F11803 		add	r3, r3, #24
 820 0222 1B68     		ldr	r3, [r3, #0]
 821 0224 03F48013 		and	r3, r3, #1048576
 822 0228 002B     		cmp	r3, #0
 823 022a F2D1     		bne	.L25
 824              		.loc 1 351 0 is_stmt 1
 825 022c 4FF40043 		mov	r3, #32768
 826 0230 C4F20203 		movt	r3, 16386
 827 0234 03F58053 		add	r3, r3, #4096
 828 0238 03F11803 		add	r3, r3, #24
 829 023c 42F20202 		movw	r2, #8194
 830 0240 C0F22062 		movt	r2, 1568
ARM GAS  /tmp/ccDtMPe6.s 			page 16


 831 0244 1A60     		str	r2, [r3, #0]
 832              		.loc 1 353 0
 833 0246 05B0     		add	sp, sp, #20
 834 0248 00BD     		pop	{pc}
 835              		.cfi_endproc
 836              	.LFE68:
 837              		.size	mac_lld_start, .-mac_lld_start
 838 024a 00BFAFF3 		.section	.text.mac_lld_stop,"ax",%progbits
 838      0080
 839              		.align	2
 840              		.p2align 4,,15
 841              		.global	mac_lld_stop
 842              		.thumb
 843              		.thumb_func
 844              		.type	mac_lld_stop, %function
 845              	mac_lld_stop:
 846              	.LFB69:
 847              		.loc 1 362 0
 848              		.cfi_startproc
 849              		@ args = 0, pretend = 0, frame = 8
 850              		@ frame_needed = 0, uses_anonymous_args = 0
 851 0000 00B5     		push	{lr}
 852              	.LCFI9:
 853              		.cfi_def_cfa_offset 4
 854              		.cfi_offset 14, -4
 855 0002 83B0     		sub	sp, sp, #12
 856              	.LCFI10:
 857              		.cfi_def_cfa_offset 16
 858 0004 0190     		str	r0, [sp, #4]
 859              		.loc 1 364 0
 860 0006 019B     		ldr	r3, [sp, #4]
 861 0008 1B78     		ldrb	r3, [r3, #0]	@ zero_extendqisi2
 862 000a 012B     		cmp	r3, #1
 863 000c 4CD0     		beq	.L26
 864              		.loc 1 366 0
 865 000e 0198     		ldr	r0, [sp, #4]
 866 0010 4FF00001 		mov	r1, #0
 867 0014 FFF7FEFF 		bl	mii_read
 868 0018 0346     		mov	r3, r0
 869 001a 43F40063 		orr	r3, r3, #2048
 870 001e 0198     		ldr	r0, [sp, #4]
 871 0020 4FF00001 		mov	r1, #0
 872 0024 1A46     		mov	r2, r3
 873 0026 FFF7FEFF 		bl	mii_write
 874              		.loc 1 369 0
 875 002a 4FF40043 		mov	r3, #32768
 876 002e C4F20203 		movt	r3, 16386
 877 0032 4FF00002 		mov	r2, #0
 878 0036 1A60     		str	r2, [r3, #0]
 879              		.loc 1 370 0
 880 0038 4FF40043 		mov	r3, #32768
 881 003c C4F20203 		movt	r3, 16386
 882 0040 03F58053 		add	r3, r3, #4096
 883 0044 03F11803 		add	r3, r3, #24
 884 0048 4FF00002 		mov	r2, #0
 885 004c 1A60     		str	r2, [r3, #0]
 886              		.loc 1 371 0
ARM GAS  /tmp/ccDtMPe6.s 			page 17


 887 004e 4FF40043 		mov	r3, #32768
 888 0052 C4F20203 		movt	r3, 16386
 889 0056 03F58053 		add	r3, r3, #4096
 890 005a 03F11C03 		add	r3, r3, #28
 891 005e 4FF00002 		mov	r2, #0
 892 0062 1A60     		str	r2, [r3, #0]
 893              		.loc 1 372 0
 894 0064 4FF40043 		mov	r3, #32768
 895 0068 C4F20203 		movt	r3, 16386
 896 006c 4FF40042 		mov	r2, #32768
 897 0070 C4F20202 		movt	r2, 16386
 898 0074 02F58052 		add	r2, r2, #4096
 899 0078 02F11402 		add	r2, r2, #20
 900 007c 1268     		ldr	r2, [r2, #0]
 901 007e 03F58053 		add	r3, r3, #4096
 902 0082 03F11403 		add	r3, r3, #20
 903 0086 1A60     		str	r2, [r3, #0]
 904              		.loc 1 375 0
 905 0088 4FF46053 		mov	r3, #14336
 906 008c C4F20203 		movt	r3, 16386
 907 0090 4FF46052 		mov	r2, #14336
 908 0094 C4F20202 		movt	r2, 16386
 909 0098 126B     		ldr	r2, [r2, #48]
 910 009a 22F06062 		bic	r2, r2, #234881024
 911 009e 1A63     		str	r2, [r3, #48]
 912              		.loc 1 378 0
 913 00a0 4FF03D00 		mov	r0, #61
 914 00a4 FFF7FEFF 		bl	nvicDisableVector
 915              	.L26:
 916              		.loc 1 380 0
 917 00a8 03B0     		add	sp, sp, #12
 918 00aa 00BD     		pop	{pc}
 919              		.cfi_endproc
 920              	.LFE69:
 921              		.size	mac_lld_stop, .-mac_lld_stop
 922 00ac AFF30080 		.section	.text.mac_lld_get_transmit_descriptor,"ax",%progbits
 923              		.align	2
 924              		.p2align 4,,15
 925              		.global	mac_lld_get_transmit_descriptor
 926              		.thumb
 927              		.thumb_func
 928              		.type	mac_lld_get_transmit_descriptor, %function
 929              	mac_lld_get_transmit_descriptor:
 930              	.LFB70:
 931              		.loc 1 396 0
 932              		.cfi_startproc
 933              		@ args = 0, pretend = 0, frame = 16
 934              		@ frame_needed = 0, uses_anonymous_args = 0
 935 0000 00B5     		push	{lr}
 936              	.LCFI11:
 937              		.cfi_def_cfa_offset 4
 938              		.cfi_offset 14, -4
 939 0002 85B0     		sub	sp, sp, #20
 940              	.LCFI12:
 941              		.cfi_def_cfa_offset 24
 942 0004 0190     		str	r0, [sp, #4]
 943 0006 0091     		str	r1, [sp, #0]
ARM GAS  /tmp/ccDtMPe6.s 			page 18


 944              		.loc 1 399 0
 945 0008 019B     		ldr	r3, [sp, #4]
 946 000a 5B6A     		ldr	r3, [r3, #36]
 947 000c 002B     		cmp	r3, #0
 948 000e 02D1     		bne	.L29
 949              		.loc 1 400 0
 950 0010 4FF0FF33 		mov	r3, #-1
 951 0014 35E0     		b	.L30
 952              	.L29:
 953              	.LBB6:
 954              		.loc 1 402 0
 955 0016 4FF02003 		mov	r3, #32
 956              	@ 402 "../../os/hal/platforms/STM32/mac_lld.c" 1
 957 001a 83F31188 		msr     BASEPRI, r3
 958              	@ 0 "" 2
 959              		.thumb
 960              	.LBE6:
 961 001e FFF7FEFF 		bl	dbg_check_lock
 962              		.loc 1 405 0
 963 0022 019B     		ldr	r3, [sp, #4]
 964 0024 1B6B     		ldr	r3, [r3, #48]
 965 0026 0393     		str	r3, [sp, #12]
 966              		.loc 1 409 0
 967 0028 039B     		ldr	r3, [sp, #12]
 968 002a 1B68     		ldr	r3, [r3, #0]
 969 002c 03F00143 		and	r3, r3, #-2130706432
 970 0030 002B     		cmp	r3, #0
 971 0032 08D0     		beq	.L31
 972              		.loc 1 410 0
 973 0034 FFF7FEFF 		bl	dbg_check_unlock
 974              	.LBB7:
 975 0038 4FF00003 		mov	r3, #0
 976              	@ 410 "../../os/hal/platforms/STM32/mac_lld.c" 1
 977 003c 83F31188 		msr     BASEPRI, r3
 978              	@ 0 "" 2
 979              		.thumb
 980              	.LBE7:
 981              		.loc 1 411 0
 982 0040 4FF0FF33 		mov	r3, #-1
 983 0044 1DE0     		b	.L30
 984              	.L31:
 985              		.loc 1 415 0
 986 0046 039B     		ldr	r3, [sp, #12]
 987 0048 1B68     		ldr	r3, [r3, #0]
 988 004a 43F08072 		orr	r2, r3, #16777216
 989 004e 039B     		ldr	r3, [sp, #12]
 990 0050 1A60     		str	r2, [r3, #0]
 991              		.loc 1 418 0
 992 0052 039B     		ldr	r3, [sp, #12]
 993 0054 DB68     		ldr	r3, [r3, #12]
 994 0056 1A46     		mov	r2, r3
 995 0058 019B     		ldr	r3, [sp, #4]
 996 005a 1A63     		str	r2, [r3, #48]
 997              		.loc 1 420 0
 998 005c FFF7FEFF 		bl	dbg_check_unlock
 999              	.LBB8:
 1000 0060 4FF00003 		mov	r3, #0
ARM GAS  /tmp/ccDtMPe6.s 			page 19


 1001              	@ 420 "../../os/hal/platforms/STM32/mac_lld.c" 1
 1002 0064 83F31188 		msr     BASEPRI, r3
 1003              	@ 0 "" 2
 1004              		.thumb
 1005              	.LBE8:
 1006              		.loc 1 423 0
 1007 0068 009B     		ldr	r3, [sp, #0]
 1008 006a 4FF00002 		mov	r2, #0
 1009 006e 1A60     		str	r2, [r3, #0]
 1010              		.loc 1 424 0
 1011 0070 009B     		ldr	r3, [sp, #0]
 1012 0072 40F2F252 		movw	r2, #1522
 1013 0076 5A60     		str	r2, [r3, #4]
 1014              		.loc 1 425 0
 1015 0078 009B     		ldr	r3, [sp, #0]
 1016 007a 039A     		ldr	r2, [sp, #12]
 1017 007c 9A60     		str	r2, [r3, #8]
 1018              		.loc 1 427 0
 1019 007e 4FF00003 		mov	r3, #0
 1020              	.L30:
 1021              		.loc 1 428 0
 1022 0082 1846     		mov	r0, r3
 1023 0084 05B0     		add	sp, sp, #20
 1024 0086 00BD     		pop	{pc}
 1025              		.cfi_endproc
 1026              	.LFE70:
 1027              		.size	mac_lld_get_transmit_descriptor, .-mac_lld_get_transmit_descriptor
 1028 0088 AFF30080 		.section	.rodata
 1028      AFF30080 
 1029              		.align	2
 1030              	.LC0:
 1031 0000 6D61635F 		.ascii	"mac_lld_write_transmit_descriptor(), #1\000"
 1031      6C6C645F 
 1031      77726974 
 1031      655F7472 
 1031      616E736D 
 1032              		.section	.text.mac_lld_write_transmit_descriptor,"ax",%progbits
 1033              		.align	2
 1034              		.p2align 4,,15
 1035              		.global	mac_lld_write_transmit_descriptor
 1036              		.thumb
 1037              		.thumb_func
 1038              		.type	mac_lld_write_transmit_descriptor, %function
 1039              	mac_lld_write_transmit_descriptor:
 1040              	.LFB71:
 1041              		.loc 1 446 0
 1042              		.cfi_startproc
 1043              		@ args = 0, pretend = 0, frame = 16
 1044              		@ frame_needed = 0, uses_anonymous_args = 0
 1045 0000 00B5     		push	{lr}
 1046              	.LCFI13:
 1047              		.cfi_def_cfa_offset 4
 1048              		.cfi_offset 14, -4
 1049 0002 85B0     		sub	sp, sp, #20
 1050              	.LCFI14:
 1051              		.cfi_def_cfa_offset 24
 1052 0004 0390     		str	r0, [sp, #12]
ARM GAS  /tmp/ccDtMPe6.s 			page 20


 1053 0006 0291     		str	r1, [sp, #8]
 1054 0008 0192     		str	r2, [sp, #4]
 1055              		.loc 1 448 0
 1056 000a 039B     		ldr	r3, [sp, #12]
 1057 000c 9B68     		ldr	r3, [r3, #8]
 1058 000e 1B68     		ldr	r3, [r3, #0]
 1059 0010 002B     		cmp	r3, #0
 1060 0012 05DA     		bge	.L33
 1061              		.loc 1 448 0 is_stmt 0 discriminator 1
 1062 0014 40F20000 		movw	r0, #:lower16:.LC0
 1063 0018 C0F20000 		movt	r0, #:upper16:.LC0
 1064 001c FFF7FEFF 		bl	chDbgPanic
 1065              	.L33:
 1066              		.loc 1 452 0 is_stmt 1
 1067 0020 039B     		ldr	r3, [sp, #12]
 1068 0022 5A68     		ldr	r2, [r3, #4]
 1069 0024 039B     		ldr	r3, [sp, #12]
 1070 0026 1B68     		ldr	r3, [r3, #0]
 1071 0028 D21A     		subs	r2, r2, r3
 1072 002a 019B     		ldr	r3, [sp, #4]
 1073 002c 9A42     		cmp	r2, r3
 1074 002e 05D2     		bcs	.L34
 1075              		.loc 1 453 0
 1076 0030 039B     		ldr	r3, [sp, #12]
 1077 0032 5A68     		ldr	r2, [r3, #4]
 1078 0034 039B     		ldr	r3, [sp, #12]
 1079 0036 1B68     		ldr	r3, [r3, #0]
 1080 0038 D31A     		subs	r3, r2, r3
 1081 003a 0193     		str	r3, [sp, #4]
 1082              	.L34:
 1083              		.loc 1 455 0
 1084 003c 019B     		ldr	r3, [sp, #4]
 1085 003e 002B     		cmp	r3, #0
 1086 0040 15D0     		beq	.L35
 1087              		.loc 1 456 0
 1088 0042 039B     		ldr	r3, [sp, #12]
 1089 0044 1A68     		ldr	r2, [r3, #0]
 1090 0046 039B     		ldr	r3, [sp, #12]
 1091 0048 9B68     		ldr	r3, [r3, #8]
 1092 004a 9B68     		ldr	r3, [r3, #8]
 1093 004c D318     		adds	r3, r2, r3
 1094 004e 1A46     		mov	r2, r3
 1095 0050 029B     		ldr	r3, [sp, #8]
 1096 0052 1146     		mov	r1, r2
 1097 0054 1A46     		mov	r2, r3
 1098 0056 019B     		ldr	r3, [sp, #4]
 1099 0058 0846     		mov	r0, r1
 1100 005a 1146     		mov	r1, r2
 1101 005c 1A46     		mov	r2, r3
 1102 005e FFF7FEFF 		bl	memcpy
 1103              		.loc 1 457 0
 1104 0062 039B     		ldr	r3, [sp, #12]
 1105 0064 1A68     		ldr	r2, [r3, #0]
 1106 0066 019B     		ldr	r3, [sp, #4]
 1107 0068 D218     		adds	r2, r2, r3
 1108 006a 039B     		ldr	r3, [sp, #12]
 1109 006c 1A60     		str	r2, [r3, #0]
ARM GAS  /tmp/ccDtMPe6.s 			page 21


 1110              	.L35:
 1111              		.loc 1 459 0
 1112 006e 019B     		ldr	r3, [sp, #4]
 1113              		.loc 1 460 0
 1114 0070 1846     		mov	r0, r3
 1115 0072 05B0     		add	sp, sp, #20
 1116 0074 00BD     		pop	{pc}
 1117              		.cfi_endproc
 1118              	.LFE71:
 1119              		.size	mac_lld_write_transmit_descriptor, .-mac_lld_write_transmit_descriptor
 1120 0076 00BFAFF3 		.section	.rodata
 1120      0080AFF3 
 1120      0080
 1121              		.align	2
 1122              	.LC1:
 1123 0028 6D61635F 		.ascii	"mac_lld_release_transmit_descriptor(), #1\000"
 1123      6C6C645F 
 1123      72656C65 
 1123      6173655F 
 1123      7472616E 
 1124              		.section	.text.mac_lld_release_transmit_descriptor,"ax",%progbits
 1125              		.align	2
 1126              		.p2align 4,,15
 1127              		.global	mac_lld_release_transmit_descriptor
 1128              		.thumb
 1129              		.thumb_func
 1130              		.type	mac_lld_release_transmit_descriptor, %function
 1131              	mac_lld_release_transmit_descriptor:
 1132              	.LFB72:
 1133              		.loc 1 470 0
 1134              		.cfi_startproc
 1135              		@ args = 0, pretend = 0, frame = 8
 1136              		@ frame_needed = 0, uses_anonymous_args = 0
 1137 0000 00B5     		push	{lr}
 1138              	.LCFI15:
 1139              		.cfi_def_cfa_offset 4
 1140              		.cfi_offset 14, -4
 1141 0002 83B0     		sub	sp, sp, #12
 1142              	.LCFI16:
 1143              		.cfi_def_cfa_offset 16
 1144 0004 0190     		str	r0, [sp, #4]
 1145              		.loc 1 472 0
 1146 0006 019B     		ldr	r3, [sp, #4]
 1147 0008 9B68     		ldr	r3, [r3, #8]
 1148 000a 1B68     		ldr	r3, [r3, #0]
 1149 000c 002B     		cmp	r3, #0
 1150 000e 05DA     		bge	.L37
 1151              		.loc 1 472 0 is_stmt 0 discriminator 1
 1152 0010 40F20000 		movw	r0, #:lower16:.LC1
 1153 0014 C0F20000 		movt	r0, #:upper16:.LC1
 1154 0018 FFF7FEFF 		bl	chDbgPanic
 1155              	.L37:
 1156              	.LBB9:
 1157              		.loc 1 476 0 is_stmt 1
 1158 001c 4FF02003 		mov	r3, #32
 1159              	@ 476 "../../os/hal/platforms/STM32/mac_lld.c" 1
 1160 0020 83F31188 		msr     BASEPRI, r3
ARM GAS  /tmp/ccDtMPe6.s 			page 22


 1161              	@ 0 "" 2
 1162              		.thumb
 1163              	.LBE9:
 1164 0024 FFF7FEFF 		bl	dbg_check_lock
 1165              		.loc 1 479 0
 1166 0028 019B     		ldr	r3, [sp, #4]
 1167 002a 9B68     		ldr	r3, [r3, #8]
 1168 002c 019A     		ldr	r2, [sp, #4]
 1169 002e 1268     		ldr	r2, [r2, #0]
 1170 0030 5A60     		str	r2, [r3, #4]
 1171              		.loc 1 480 0
 1172 0032 019B     		ldr	r3, [sp, #4]
 1173 0034 9A68     		ldr	r2, [r3, #8]
 1174 0036 4FF00003 		mov	r3, #0
 1175 003a CFF21003 		movt	r3, 61456
 1176 003e 1360     		str	r3, [r2, #0]
 1177              		.loc 1 485 0
 1178 0040 4FF40043 		mov	r3, #32768
 1179 0044 C4F20203 		movt	r3, 16386
 1180 0048 03F58053 		add	r3, r3, #4096
 1181 004c 03F11403 		add	r3, r3, #20
 1182 0050 1B68     		ldr	r3, [r3, #0]
 1183 0052 03F4E003 		and	r3, r3, #7340032
 1184 0056 B3F5C00F 		cmp	r3, #6291456
 1185 005a 15D1     		bne	.L38
 1186              		.loc 1 486 0
 1187 005c 4FF40043 		mov	r3, #32768
 1188 0060 C4F20203 		movt	r3, 16386
 1189 0064 03F58053 		add	r3, r3, #4096
 1190 0068 03F11403 		add	r3, r3, #20
 1191 006c 4FF00402 		mov	r2, #4
 1192 0070 1A60     		str	r2, [r3, #0]
 1193              		.loc 1 487 0
 1194 0072 4FF40043 		mov	r3, #32768
 1195 0076 C4F20203 		movt	r3, 16386
 1196 007a 03F58053 		add	r3, r3, #4096
 1197 007e 03F10403 		add	r3, r3, #4
 1198 0082 4FF00402 		mov	r2, #4
 1199 0086 1A60     		str	r2, [r3, #0]
 1200              	.L38:
 1201              		.loc 1 490 0
 1202 0088 FFF7FEFF 		bl	dbg_check_unlock
 1203              	.LBB10:
 1204 008c 4FF00003 		mov	r3, #0
 1205              	@ 490 "../../os/hal/platforms/STM32/mac_lld.c" 1
 1206 0090 83F31188 		msr     BASEPRI, r3
 1207              	@ 0 "" 2
 1208              		.thumb
 1209              	.LBE10:
 1210              		.loc 1 491 0
 1211 0094 03B0     		add	sp, sp, #12
 1212 0096 00BD     		pop	{pc}
 1213              		.cfi_endproc
 1214              	.LFE72:
 1215              		.size	mac_lld_release_transmit_descriptor, .-mac_lld_release_transmit_descriptor
 1216 0098 AFF30080 		.section	.text.mac_lld_get_receive_descriptor,"ax",%progbits
 1216      AFF30080 
ARM GAS  /tmp/ccDtMPe6.s 			page 23


 1217              		.align	2
 1218              		.p2align 4,,15
 1219              		.global	mac_lld_get_receive_descriptor
 1220              		.thumb
 1221              		.thumb_func
 1222              		.type	mac_lld_get_receive_descriptor, %function
 1223              	mac_lld_get_receive_descriptor:
 1224              	.LFB73:
 1225              		.loc 1 505 0
 1226              		.cfi_startproc
 1227              		@ args = 0, pretend = 0, frame = 16
 1228              		@ frame_needed = 0, uses_anonymous_args = 0
 1229 0000 00B5     		push	{lr}
 1230              	.LCFI17:
 1231              		.cfi_def_cfa_offset 4
 1232              		.cfi_offset 14, -4
 1233 0002 85B0     		sub	sp, sp, #20
 1234              	.LCFI18:
 1235              		.cfi_def_cfa_offset 24
 1236 0004 0190     		str	r0, [sp, #4]
 1237 0006 0091     		str	r1, [sp, #0]
 1238              	.LBB11:
 1239              		.loc 1 508 0
 1240 0008 4FF02003 		mov	r3, #32
 1241              	@ 508 "../../os/hal/platforms/STM32/mac_lld.c" 1
 1242 000c 83F31188 		msr     BASEPRI, r3
 1243              	@ 0 "" 2
 1244              		.thumb
 1245              	.LBE11:
 1246 0010 FFF7FEFF 		bl	dbg_check_lock
 1247              		.loc 1 511 0
 1248 0014 019B     		ldr	r3, [sp, #4]
 1249 0016 DB6A     		ldr	r3, [r3, #44]
 1250 0018 0393     		str	r3, [sp, #12]
 1251              		.loc 1 515 0
 1252 001a 41E0     		b	.L40
 1253              	.L43:
 1254              		.loc 1 516 0
 1255 001c 039B     		ldr	r3, [sp, #12]
 1256 001e 1B68     		ldr	r3, [r3, #0]
 1257 0020 1A46     		mov	r2, r3
 1258 0022 4FF40043 		mov	r3, #32768
 1259 0026 C4F20003 		movt	r3, 16384
 1260 002a 1340     		ands	r3, r3, r2
 1261 002c 002B     		cmp	r3, #0
 1262 002e 2ED1     		bne	.L41
 1263              		.loc 1 521 0
 1264 0030 039B     		ldr	r3, [sp, #12]
 1265 0032 1B68     		ldr	r3, [r3, #0]
 1266 0034 03F40073 		and	r3, r3, #512
 1267 0038 002B     		cmp	r3, #0
 1268 003a 28D0     		beq	.L41
 1269              		.loc 1 521 0 is_stmt 0 discriminator 1
 1270 003c 039B     		ldr	r3, [sp, #12]
 1271 003e 1B68     		ldr	r3, [r3, #0]
 1272 0040 03F48073 		and	r3, r3, #256
 1273 0044 002B     		cmp	r3, #0
ARM GAS  /tmp/ccDtMPe6.s 			page 24


 1274 0046 22D0     		beq	.L41
 1275              		.loc 1 523 0 is_stmt 1
 1276 0048 009B     		ldr	r3, [sp, #0]
 1277 004a 4FF00002 		mov	r2, #0
 1278 004e 1A60     		str	r2, [r3, #0]
 1279              		.loc 1 524 0
 1280 0050 039B     		ldr	r3, [sp, #12]
 1281 0052 1B68     		ldr	r3, [r3, #0]
 1282 0054 1A46     		mov	r2, r3
 1283 0056 4FF00003 		mov	r3, #0
 1284 005a C3F6FF73 		movt	r3, 16383
 1285 005e 1340     		ands	r3, r3, r2
 1286 0060 4FEA1343 		lsr	r3, r3, #16
 1287 0064 A3F10402 		sub	r2, r3, #4
 1288 0068 009B     		ldr	r3, [sp, #0]
 1289 006a 5A60     		str	r2, [r3, #4]
 1290              		.loc 1 525 0
 1291 006c 009B     		ldr	r3, [sp, #0]
 1292 006e 039A     		ldr	r2, [sp, #12]
 1293 0070 9A60     		str	r2, [r3, #8]
 1294              		.loc 1 526 0
 1295 0072 039B     		ldr	r3, [sp, #12]
 1296 0074 DB68     		ldr	r3, [r3, #12]
 1297 0076 1A46     		mov	r2, r3
 1298 0078 019B     		ldr	r3, [sp, #4]
 1299 007a DA62     		str	r2, [r3, #44]
 1300              		.loc 1 528 0
 1301 007c FFF7FEFF 		bl	dbg_check_unlock
 1302              	.LBB12:
 1303 0080 4FF00003 		mov	r3, #0
 1304              	@ 528 "../../os/hal/platforms/STM32/mac_lld.c" 1
 1305 0084 83F31188 		msr     BASEPRI, r3
 1306              	@ 0 "" 2
 1307              		.thumb
 1308              	.LBE12:
 1309              		.loc 1 529 0
 1310 0088 4FF00003 		mov	r3, #0
 1311 008c 14E0     		b	.L42
 1312              	.L41:
 1313              		.loc 1 532 0
 1314 008e 039B     		ldr	r3, [sp, #12]
 1315 0090 4FF00042 		mov	r2, #-2147483648
 1316 0094 1A60     		str	r2, [r3, #0]
 1317              		.loc 1 533 0
 1318 0096 039B     		ldr	r3, [sp, #12]
 1319 0098 DB68     		ldr	r3, [r3, #12]
 1320 009a 1A46     		mov	r2, r3
 1321 009c 019B     		ldr	r3, [sp, #4]
 1322 009e DA62     		str	r2, [r3, #44]
 1323              	.L40:
 1324              		.loc 1 515 0 discriminator 1
 1325 00a0 039B     		ldr	r3, [sp, #12]
 1326 00a2 1B68     		ldr	r3, [r3, #0]
 1327 00a4 002B     		cmp	r3, #0
 1328 00a6 B9DA     		bge	.L43
 1329              		.loc 1 536 0
 1330 00a8 FFF7FEFF 		bl	dbg_check_unlock
ARM GAS  /tmp/ccDtMPe6.s 			page 25


 1331              	.LBB13:
 1332 00ac 4FF00003 		mov	r3, #0
 1333              	@ 536 "../../os/hal/platforms/STM32/mac_lld.c" 1
 1334 00b0 83F31188 		msr     BASEPRI, r3
 1335              	@ 0 "" 2
 1336              		.thumb
 1337              	.LBE13:
 1338              		.loc 1 537 0
 1339 00b4 4FF0FF33 		mov	r3, #-1
 1340              	.L42:
 1341              		.loc 1 538 0
 1342 00b8 1846     		mov	r0, r3
 1343 00ba 05B0     		add	sp, sp, #20
 1344 00bc 00BD     		pop	{pc}
 1345              		.cfi_endproc
 1346              	.LFE73:
 1347              		.size	mac_lld_get_receive_descriptor, .-mac_lld_get_receive_descriptor
 1348 00be 00BF     		.section	.rodata
 1349 0052 0000     		.align	2
 1350              	.LC2:
 1351 0054 6D61635F 		.ascii	"mac_lld_read_receive_descriptor(), #1\000"
 1351      6C6C645F 
 1351      72656164 
 1351      5F726563 
 1351      65697665 
 1352              		.section	.text.mac_lld_read_receive_descriptor,"ax",%progbits
 1353              		.align	2
 1354              		.p2align 4,,15
 1355              		.global	mac_lld_read_receive_descriptor
 1356              		.thumb
 1357              		.thumb_func
 1358              		.type	mac_lld_read_receive_descriptor, %function
 1359              	mac_lld_read_receive_descriptor:
 1360              	.LFB74:
 1361              		.loc 1 555 0
 1362              		.cfi_startproc
 1363              		@ args = 0, pretend = 0, frame = 16
 1364              		@ frame_needed = 0, uses_anonymous_args = 0
 1365 0000 00B5     		push	{lr}
 1366              	.LCFI19:
 1367              		.cfi_def_cfa_offset 4
 1368              		.cfi_offset 14, -4
 1369 0002 85B0     		sub	sp, sp, #20
 1370              	.LCFI20:
 1371              		.cfi_def_cfa_offset 24
 1372 0004 0390     		str	r0, [sp, #12]
 1373 0006 0291     		str	r1, [sp, #8]
 1374 0008 0192     		str	r2, [sp, #4]
 1375              		.loc 1 557 0
 1376 000a 039B     		ldr	r3, [sp, #12]
 1377 000c 9B68     		ldr	r3, [r3, #8]
 1378 000e 1B68     		ldr	r3, [r3, #0]
 1379 0010 002B     		cmp	r3, #0
 1380 0012 05DA     		bge	.L45
 1381              		.loc 1 557 0 is_stmt 0 discriminator 1
 1382 0014 40F20000 		movw	r0, #:lower16:.LC2
 1383 0018 C0F20000 		movt	r0, #:upper16:.LC2
ARM GAS  /tmp/ccDtMPe6.s 			page 26


 1384 001c FFF7FEFF 		bl	chDbgPanic
 1385              	.L45:
 1386              		.loc 1 561 0 is_stmt 1
 1387 0020 039B     		ldr	r3, [sp, #12]
 1388 0022 5A68     		ldr	r2, [r3, #4]
 1389 0024 039B     		ldr	r3, [sp, #12]
 1390 0026 1B68     		ldr	r3, [r3, #0]
 1391 0028 D21A     		subs	r2, r2, r3
 1392 002a 019B     		ldr	r3, [sp, #4]
 1393 002c 9A42     		cmp	r2, r3
 1394 002e 05D2     		bcs	.L46
 1395              		.loc 1 562 0
 1396 0030 039B     		ldr	r3, [sp, #12]
 1397 0032 5A68     		ldr	r2, [r3, #4]
 1398 0034 039B     		ldr	r3, [sp, #12]
 1399 0036 1B68     		ldr	r3, [r3, #0]
 1400 0038 D31A     		subs	r3, r2, r3
 1401 003a 0193     		str	r3, [sp, #4]
 1402              	.L46:
 1403              		.loc 1 564 0
 1404 003c 019B     		ldr	r3, [sp, #4]
 1405 003e 002B     		cmp	r3, #0
 1406 0040 14D0     		beq	.L47
 1407              		.loc 1 565 0
 1408 0042 039B     		ldr	r3, [sp, #12]
 1409 0044 1A68     		ldr	r2, [r3, #0]
 1410 0046 039B     		ldr	r3, [sp, #12]
 1411 0048 9B68     		ldr	r3, [r3, #8]
 1412 004a 9B68     		ldr	r3, [r3, #8]
 1413 004c D318     		adds	r3, r2, r3
 1414 004e 029A     		ldr	r2, [sp, #8]
 1415 0050 1146     		mov	r1, r2
 1416 0052 1A46     		mov	r2, r3
 1417 0054 019B     		ldr	r3, [sp, #4]
 1418 0056 0846     		mov	r0, r1
 1419 0058 1146     		mov	r1, r2
 1420 005a 1A46     		mov	r2, r3
 1421 005c FFF7FEFF 		bl	memcpy
 1422              		.loc 1 566 0
 1423 0060 039B     		ldr	r3, [sp, #12]
 1424 0062 1A68     		ldr	r2, [r3, #0]
 1425 0064 019B     		ldr	r3, [sp, #4]
 1426 0066 D218     		adds	r2, r2, r3
 1427 0068 039B     		ldr	r3, [sp, #12]
 1428 006a 1A60     		str	r2, [r3, #0]
 1429              	.L47:
 1430              		.loc 1 568 0
 1431 006c 019B     		ldr	r3, [sp, #4]
 1432              		.loc 1 569 0
 1433 006e 1846     		mov	r0, r3
 1434 0070 05B0     		add	sp, sp, #20
 1435 0072 00BD     		pop	{pc}
 1436              		.cfi_endproc
 1437              	.LFE74:
 1438              		.size	mac_lld_read_receive_descriptor, .-mac_lld_read_receive_descriptor
 1439 0074 AFF30080 		.section	.rodata
 1439      AFF30080 
ARM GAS  /tmp/ccDtMPe6.s 			page 27


 1439      AFF30080 
 1440 007a 0000     		.align	2
 1441              	.LC3:
 1442 007c 6D61635F 		.ascii	"mac_lld_release_receive_descriptor(), #1\000"
 1442      6C6C645F 
 1442      72656C65 
 1442      6173655F 
 1442      72656365 
 1443 00a5 000000   		.section	.text.mac_lld_release_receive_descriptor,"ax",%progbits
 1444              		.align	2
 1445              		.p2align 4,,15
 1446              		.global	mac_lld_release_receive_descriptor
 1447              		.thumb
 1448              		.thumb_func
 1449              		.type	mac_lld_release_receive_descriptor, %function
 1450              	mac_lld_release_receive_descriptor:
 1451              	.LFB75:
 1452              		.loc 1 580 0
 1453              		.cfi_startproc
 1454              		@ args = 0, pretend = 0, frame = 8
 1455              		@ frame_needed = 0, uses_anonymous_args = 0
 1456 0000 00B5     		push	{lr}
 1457              	.LCFI21:
 1458              		.cfi_def_cfa_offset 4
 1459              		.cfi_offset 14, -4
 1460 0002 83B0     		sub	sp, sp, #12
 1461              	.LCFI22:
 1462              		.cfi_def_cfa_offset 16
 1463 0004 0190     		str	r0, [sp, #4]
 1464              		.loc 1 582 0
 1465 0006 019B     		ldr	r3, [sp, #4]
 1466 0008 9B68     		ldr	r3, [r3, #8]
 1467 000a 1B68     		ldr	r3, [r3, #0]
 1468 000c 002B     		cmp	r3, #0
 1469 000e 05DA     		bge	.L49
 1470              		.loc 1 582 0 is_stmt 0 discriminator 1
 1471 0010 40F20000 		movw	r0, #:lower16:.LC3
 1472 0014 C0F20000 		movt	r0, #:upper16:.LC3
 1473 0018 FFF7FEFF 		bl	chDbgPanic
 1474              	.L49:
 1475              	.LBB14:
 1476              		.loc 1 586 0 is_stmt 1
 1477 001c 4FF02003 		mov	r3, #32
 1478              	@ 586 "../../os/hal/platforms/STM32/mac_lld.c" 1
 1479 0020 83F31188 		msr     BASEPRI, r3
 1480              	@ 0 "" 2
 1481              		.thumb
 1482              	.LBE14:
 1483 0024 FFF7FEFF 		bl	dbg_check_lock
 1484              		.loc 1 589 0
 1485 0028 019B     		ldr	r3, [sp, #4]
 1486 002a 9B68     		ldr	r3, [r3, #8]
 1487 002c 4FF00042 		mov	r2, #-2147483648
 1488 0030 1A60     		str	r2, [r3, #0]
 1489              		.loc 1 592 0
 1490 0032 4FF40043 		mov	r3, #32768
 1491 0036 C4F20203 		movt	r3, 16386
ARM GAS  /tmp/ccDtMPe6.s 			page 28


 1492 003a 03F58053 		add	r3, r3, #4096
 1493 003e 03F11403 		add	r3, r3, #20
 1494 0042 1B68     		ldr	r3, [r3, #0]
 1495 0044 03F46023 		and	r3, r3, #917504
 1496 0048 B3F5002F 		cmp	r3, #524288
 1497 004c 15D1     		bne	.L50
 1498              		.loc 1 593 0
 1499 004e 4FF40043 		mov	r3, #32768
 1500 0052 C4F20203 		movt	r3, 16386
 1501 0056 03F58053 		add	r3, r3, #4096
 1502 005a 03F11403 		add	r3, r3, #20
 1503 005e 4FF08002 		mov	r2, #128
 1504 0062 1A60     		str	r2, [r3, #0]
 1505              		.loc 1 594 0
 1506 0064 4FF40043 		mov	r3, #32768
 1507 0068 C4F20203 		movt	r3, 16386
 1508 006c 03F58053 		add	r3, r3, #4096
 1509 0070 03F10803 		add	r3, r3, #8
 1510 0074 4FF08002 		mov	r2, #128
 1511 0078 1A60     		str	r2, [r3, #0]
 1512              	.L50:
 1513              		.loc 1 597 0
 1514 007a FFF7FEFF 		bl	dbg_check_unlock
 1515              	.LBB15:
 1516 007e 4FF00003 		mov	r3, #0
 1517              	@ 597 "../../os/hal/platforms/STM32/mac_lld.c" 1
 1518 0082 83F31188 		msr     BASEPRI, r3
 1519              	@ 0 "" 2
 1520              		.thumb
 1521              	.LBE15:
 1522              		.loc 1 598 0
 1523 0086 03B0     		add	sp, sp, #12
 1524 0088 00BD     		pop	{pc}
 1525              		.cfi_endproc
 1526              	.LFE75:
 1527              		.size	mac_lld_release_receive_descriptor, .-mac_lld_release_receive_descriptor
 1528 008a 00BFAFF3 		.section	.text.mac_lld_poll_link_status,"ax",%progbits
 1528      0080
 1529              		.align	2
 1530              		.p2align 4,,15
 1531              		.global	mac_lld_poll_link_status
 1532              		.thumb
 1533              		.thumb_func
 1534              		.type	mac_lld_poll_link_status, %function
 1535              	mac_lld_poll_link_status:
 1536              	.LFB76:
 1537              		.loc 1 610 0
 1538              		.cfi_startproc
 1539              		@ args = 0, pretend = 0, frame = 24
 1540              		@ frame_needed = 0, uses_anonymous_args = 0
 1541 0000 00B5     		push	{lr}
 1542              	.LCFI23:
 1543              		.cfi_def_cfa_offset 4
 1544              		.cfi_offset 14, -4
 1545 0002 87B0     		sub	sp, sp, #28
 1546              	.LCFI24:
 1547              		.cfi_def_cfa_offset 32
ARM GAS  /tmp/ccDtMPe6.s 			page 29


 1548 0004 0190     		str	r0, [sp, #4]
 1549              		.loc 1 613 0
 1550 0006 4FF40043 		mov	r3, #32768
 1551 000a C4F20203 		movt	r3, 16386
 1552 000e 1B68     		ldr	r3, [r3, #0]
 1553 0010 0593     		str	r3, [sp, #20]
 1554              		.loc 1 616 0
 1555 0012 0198     		ldr	r0, [sp, #4]
 1556 0014 4FF00101 		mov	r1, #1
 1557 0018 FFF7FEFF 		bl	mii_read
 1558              		.loc 1 617 0
 1559 001c 0198     		ldr	r0, [sp, #4]
 1560 001e 4FF00101 		mov	r1, #1
 1561 0022 FFF7FEFF 		bl	mii_read
 1562 0026 0346     		mov	r3, r0
 1563 0028 0493     		str	r3, [sp, #16]
 1564              		.loc 1 618 0
 1565 002a 0198     		ldr	r0, [sp, #4]
 1566 002c 4FF00001 		mov	r1, #0
 1567 0030 FFF7FEFF 		bl	mii_read
 1568 0034 0346     		mov	r3, r0
 1569 0036 0393     		str	r3, [sp, #12]
 1570              		.loc 1 621 0
 1571 0038 039B     		ldr	r3, [sp, #12]
 1572 003a 03F48053 		and	r3, r3, #4096
 1573 003e 002B     		cmp	r3, #0
 1574 0040 2FD0     		beq	.L52
 1575              	.LBB16:
 1576              		.loc 1 625 0
 1577 0042 049B     		ldr	r3, [sp, #16]
 1578 0044 03F03403 		and	r3, r3, #52
 1579 0048 242B     		cmp	r3, #36
 1580 004a 06D0     		beq	.L53
 1581              		.loc 1 627 0
 1582 004c 019B     		ldr	r3, [sp, #4]
 1583 004e 4FF00002 		mov	r2, #0
 1584 0052 5A62     		str	r2, [r3, #36]
 1585 0054 019B     		ldr	r3, [sp, #4]
 1586 0056 5B6A     		ldr	r3, [r3, #36]
 1587 0058 57E0     		b	.L54
 1588              	.L53:
 1589              		.loc 1 630 0
 1590 005a 0198     		ldr	r0, [sp, #4]
 1591 005c 4FF00501 		mov	r1, #5
 1592 0060 FFF7FEFF 		bl	mii_read
 1593 0064 0346     		mov	r3, r0
 1594 0066 0293     		str	r3, [sp, #8]
 1595              		.loc 1 633 0
 1596 0068 029B     		ldr	r3, [sp, #8]
 1597 006a 03F46073 		and	r3, r3, #896
 1598 006e 002B     		cmp	r3, #0
 1599 0070 04D0     		beq	.L55
 1600              		.loc 1 634 0
 1601 0072 059B     		ldr	r3, [sp, #20]
 1602 0074 43F48043 		orr	r3, r3, #16384
 1603 0078 0593     		str	r3, [sp, #20]
 1604 007a 03E0     		b	.L56
ARM GAS  /tmp/ccDtMPe6.s 			page 30


 1605              	.L55:
 1606              		.loc 1 636 0
 1607 007c 059B     		ldr	r3, [sp, #20]
 1608 007e 23F48043 		bic	r3, r3, #16384
 1609 0082 0593     		str	r3, [sp, #20]
 1610              	.L56:
 1611              		.loc 1 639 0
 1612 0084 029B     		ldr	r3, [sp, #8]
 1613 0086 03F4A073 		and	r3, r3, #320
 1614 008a 002B     		cmp	r3, #0
 1615 008c 04D0     		beq	.L57
 1616              		.loc 1 640 0
 1617 008e 059B     		ldr	r3, [sp, #20]
 1618 0090 43F40063 		orr	r3, r3, #2048
 1619 0094 0593     		str	r3, [sp, #20]
 1620 0096 2CE0     		b	.L58
 1621              	.L57:
 1622              		.loc 1 642 0
 1623 0098 059B     		ldr	r3, [sp, #20]
 1624 009a 23F40063 		bic	r3, r3, #2048
 1625 009e 0593     		str	r3, [sp, #20]
 1626 00a0 27E0     		b	.L58
 1627              	.L52:
 1628              	.LBE16:
 1629              		.loc 1 646 0
 1630 00a2 049B     		ldr	r3, [sp, #16]
 1631 00a4 03F00403 		and	r3, r3, #4
 1632 00a8 002B     		cmp	r3, #0
 1633 00aa 06D1     		bne	.L59
 1634              		.loc 1 647 0
 1635 00ac 019B     		ldr	r3, [sp, #4]
 1636 00ae 4FF00002 		mov	r2, #0
 1637 00b2 5A62     		str	r2, [r3, #36]
 1638 00b4 019B     		ldr	r3, [sp, #4]
 1639 00b6 5B6A     		ldr	r3, [r3, #36]
 1640 00b8 27E0     		b	.L54
 1641              	.L59:
 1642              		.loc 1 650 0
 1643 00ba 039B     		ldr	r3, [sp, #12]
 1644 00bc 03F40053 		and	r3, r3, #8192
 1645 00c0 002B     		cmp	r3, #0
 1646 00c2 04D0     		beq	.L60
 1647              		.loc 1 651 0
 1648 00c4 059B     		ldr	r3, [sp, #20]
 1649 00c6 43F48043 		orr	r3, r3, #16384
 1650 00ca 0593     		str	r3, [sp, #20]
 1651 00cc 03E0     		b	.L61
 1652              	.L60:
 1653              		.loc 1 653 0
 1654 00ce 059B     		ldr	r3, [sp, #20]
 1655 00d0 23F48043 		bic	r3, r3, #16384
 1656 00d4 0593     		str	r3, [sp, #20]
 1657              	.L61:
 1658              		.loc 1 656 0
 1659 00d6 039B     		ldr	r3, [sp, #12]
 1660 00d8 03F48073 		and	r3, r3, #256
 1661 00dc 002B     		cmp	r3, #0
ARM GAS  /tmp/ccDtMPe6.s 			page 31


 1662 00de 04D0     		beq	.L62
 1663              		.loc 1 657 0
 1664 00e0 059B     		ldr	r3, [sp, #20]
 1665 00e2 43F40063 		orr	r3, r3, #2048
 1666 00e6 0593     		str	r3, [sp, #20]
 1667 00e8 03E0     		b	.L58
 1668              	.L62:
 1669              		.loc 1 659 0
 1670 00ea 059B     		ldr	r3, [sp, #20]
 1671 00ec 23F40063 		bic	r3, r3, #2048
 1672 00f0 0593     		str	r3, [sp, #20]
 1673              	.L58:
 1674              		.loc 1 663 0
 1675 00f2 4FF40043 		mov	r3, #32768
 1676 00f6 C4F20203 		movt	r3, 16386
 1677 00fa 059A     		ldr	r2, [sp, #20]
 1678 00fc 1A60     		str	r2, [r3, #0]
 1679              		.loc 1 666 0
 1680 00fe 019B     		ldr	r3, [sp, #4]
 1681 0100 4FF00102 		mov	r2, #1
 1682 0104 5A62     		str	r2, [r3, #36]
 1683 0106 019B     		ldr	r3, [sp, #4]
 1684 0108 5B6A     		ldr	r3, [r3, #36]
 1685              	.L54:
 1686              		.loc 1 667 0
 1687 010a 1846     		mov	r0, r3
 1688 010c 07B0     		add	sp, sp, #28
 1689 010e 00BD     		pop	{pc}
 1690              		.cfi_endproc
 1691              	.LFE76:
 1692              		.size	mac_lld_poll_link_status, .-mac_lld_poll_link_status
 1693              		.text
 1694              	.Letext0:
 1695              		.file 2 "/home/texzk/ChibiStudio/tools/GNU Tools ARM Embedded/4.6 2012q2/bin/../lib/gcc/arm-none-e
 1696              		.file 3 "/home/texzk/ChibiStudio/tools/GNU Tools ARM Embedded/4.6 2012q2/bin/../lib/gcc/arm-none-e
 1697              		.file 4 "../../os/ports/GCC/ARMCMx/chtypes.h"
 1698              		.file 5 "../../os/kernel/include/chlists.h"
 1699              		.file 6 "../../os/kernel/include/chthreads.h"
 1700              		.file 7 "../../os/ports/GCC/ARMCMx/chcore_v7m.h"
 1701              		.file 8 "../../os/kernel/include/chsem.h"
 1702              		.file 9 "../../os/kernel/include/chmtx.h"
 1703              		.file 10 "../../os/kernel/include/chevents.h"
 1704              		.file 11 "../../os/hal/platforms/STM32F2xx/stm32f2xx.h"
 1705              		.file 12 "../../os/hal/include/mac.h"
 1706              		.file 13 "../../os/hal/platforms/STM32/mac_lld.h"
 1707              		.file 14 "../../os/ports/common/ARMCMx/CMSIS/include/core_cm3.h"