ARM GAS  /tmp/ccalsKnV.s 			page 1


   1              		.syntax unified
   2              		.cpu cortex-m3
   3              		.fpu softvfp
   4              		.eabi_attribute 20, 1
   5              		.eabi_attribute 21, 1
   6              		.eabi_attribute 23, 3
   7              		.eabi_attribute 24, 1
   8              		.eabi_attribute 25, 1
   9              		.eabi_attribute 26, 1
  10              		.eabi_attribute 30, 6
  11              		.eabi_attribute 34, 1
  12              		.eabi_attribute 18, 4
  13              		.thumb
  14              		.file	"main.c"
  15              		.text
  16              	.Ltext0:
  17              		.cfi_sections	.debug_frame
  18              		.section	.bss.waThread1,"aw",%nobits
  19              		.align	3
  20              		.type	waThread1, %object
  21              		.size	waThread1, 304
  22              	waThread1:
  23 0000 00000000 		.space	304
  23      00000000 
  23      00000000 
  23      00000000 
  23      00000000 
  24              		.section	.rodata
  25              		.align	2
  26              	.LC0:
  27 0000 626C696E 		.ascii	"blinker\000"
  27      6B657200 
  28              		.section	.text.Thread1,"ax",%progbits
  29              		.align	2
  30              		.p2align 4,,15
  31              		.thumb
  32              		.thumb_func
  33              		.type	Thread1, %function
  34              	Thread1:
  35              	.LFB63:
  36              		.file 1 "main.c"
  37              		.loc 1 33 0
  38              		.cfi_startproc
  39              		@ args = 0, pretend = 0, frame = 8
  40              		@ frame_needed = 0, uses_anonymous_args = 0
  41 0000 00B5     		push	{lr}
  42              	.LCFI0:
  43              		.cfi_def_cfa_offset 4
  44              		.cfi_offset 14, -4
  45 0002 83B0     		sub	sp, sp, #12
  46              	.LCFI1:
  47              		.cfi_def_cfa_offset 16
  48 0004 0190     		str	r0, [sp, #4]
  49              		.loc 1 36 0
  50 0006 40F20003 		movw	r3, #:lower16:rlist
  51 000a C0F20003 		movt	r3, #:upper16:rlist
  52 000e 9A69     		ldr	r2, [r3, #24]
ARM GAS  /tmp/ccalsKnV.s 			page 2


  53 0010 40F20003 		movw	r3, #:lower16:.LC0
  54 0014 C0F20003 		movt	r3, #:upper16:.LC0
  55 0018 9361     		str	r3, [r2, #24]
  56              	.L2:
  57              		.loc 1 38 0 discriminator 1
  58 001a 4FF4C053 		mov	r3, #6144
  59 001e C4F20203 		movt	r3, 16386
  60 0022 4FF04002 		mov	r2, #64
  61 0026 5A83     		strh	r2, [r3, #26]	@ movhi
  62              		.loc 1 39 0 discriminator 1
  63 0028 4FF4FA70 		mov	r0, #500
  64 002c FFF7FEFF 		bl	chThdSleep
  65              		.loc 1 40 0 discriminator 1
  66 0030 4FF4C053 		mov	r3, #6144
  67 0034 C4F20203 		movt	r3, 16386
  68 0038 4FF04002 		mov	r2, #64
  69 003c 1A83     		strh	r2, [r3, #24]	@ movhi
  70              		.loc 1 41 0 discriminator 1
  71 003e 4FF4FA70 		mov	r0, #500
  72 0042 FFF7FEFF 		bl	chThdSleep
  73              		.loc 1 42 0 discriminator 1
  74 0046 E8E7     		b	.L2
  75              		.cfi_endproc
  76              	.LFE63:
  77              		.size	Thread1, .-Thread1
  78 0048 AFF30080 		.section	.text.main,"ax",%progbits
  78      AFF30080 
  79              		.align	2
  80              		.p2align 4,,15
  81              		.global	main
  82              		.thumb
  83              		.thumb_func
  84              		.type	main, %function
  85              	main:
  86              	.LFB64:
  87              		.loc 1 49 0
  88              		.cfi_startproc
  89              		@ args = 0, pretend = 0, frame = 0
  90              		@ frame_needed = 0, uses_anonymous_args = 0
  91 0000 00B5     		push	{lr}
  92              	.LCFI2:
  93              		.cfi_def_cfa_offset 4
  94              		.cfi_offset 14, -4
  95 0002 83B0     		sub	sp, sp, #12
  96              	.LCFI3:
  97              		.cfi_def_cfa_offset 16
  98              		.loc 1 58 0
  99 0004 FFF7FEFF 		bl	halInit
 100              		.loc 1 59 0
 101 0008 FFF7FEFF 		bl	chSysInit
 102              		.loc 1 69 0
 103 000c 4FF00003 		mov	r3, #0
 104 0010 0093     		str	r3, [sp, #0]
 105 0012 40F20000 		movw	r0, #:lower16:waThread1
 106 0016 C0F20000 		movt	r0, #:upper16:waThread1
 107 001a 4FF49871 		mov	r1, #304
 108 001e 4FF04002 		mov	r2, #64
ARM GAS  /tmp/ccalsKnV.s 			page 3


 109 0022 40F20003 		movw	r3, #:lower16:Thread1
 110 0026 C0F20003 		movt	r3, #:upper16:Thread1
 111 002a FFF7FEFF 		bl	chThdCreateStatic
 112              		.loc 1 74 0
 113 002e 4FF00003 		mov	r3, #0
 114 0032 0093     		str	r3, [sp, #0]
 115 0034 40F20000 		movw	r0, #:lower16:wa_lwip_thread
 116 0038 C0F20000 		movt	r0, #:upper16:wa_lwip_thread
 117 003c 4FF40071 		mov	r1, #512
 118 0040 4FF04102 		mov	r2, #65
 119 0044 40F20003 		movw	r3, #:lower16:lwip_thread
 120 0048 C0F20003 		movt	r3, #:upper16:lwip_thread
 121 004c FFF7FEFF 		bl	chThdCreateStatic
 122              		.loc 1 80 0
 123 0050 4FF00003 		mov	r3, #0
 124 0054 0093     		str	r3, [sp, #0]
 125 0056 40F20000 		movw	r0, #:lower16:wa_http_server
 126 005a C0F20000 		movt	r0, #:upper16:wa_http_server
 127 005e 4FF49661 		mov	r1, #1200
 128 0062 4FF04102 		mov	r2, #65
 129 0066 40F20003 		movw	r3, #:lower16:http_server
 130 006a C0F20003 		movt	r3, #:upper16:http_server
 131 006e FFF7FEFF 		bl	chThdCreateStatic
 132              	.L4:
 133              		.loc 1 90 0 discriminator 1
 134 0072 4FF4FA70 		mov	r0, #500
 135 0076 FFF7FEFF 		bl	chThdSleep
 136              		.loc 1 91 0 discriminator 1
 137 007a FAE7     		b	.L4
 138              		.cfi_endproc
 139              	.LFE64:
 140              		.size	main, .-main
 141 007c AFF30080 		.text
 142              	.Letext0:
 143              		.file 2 "/home/texzk/ChibiStudio/tools/GNU Tools ARM Embedded/4.6 2012q2/bin/../lib/gcc/arm-none-e
 144              		.file 3 "../../os/ports/GCC/ARMCMx/chtypes.h"
 145              		.file 4 "../../os/kernel/include/chlists.h"
 146              		.file 5 "../../os/kernel/include/chthreads.h"
 147              		.file 6 "../../os/ports/GCC/ARMCMx/chcore_v7m.h"
 148              		.file 7 "../../os/kernel/include/chschd.h"
 149              		.file 8 "../../os/kernel/include/chmtx.h"
 150              		.file 9 "../../os/hal/platforms/STM32/GPIOv2/pal_lld.h"
 151              		.file 10 "../../os/ports/common/ARMCMx/CMSIS/include/core_cm3.h"
 152              		.file 11 "../../os/various/lwip_bindings/lwipthread.h"
 153              		.file 12 "web/web.h"