ARM GAS  /tmp/ccjkabsI.s 			page 1


   1              		.syntax unified
   2              		.cpu cortex-m3
   3              		.fpu softvfp
   4              		.eabi_attribute 20, 1
   5              		.eabi_attribute 21, 1
   6              		.eabi_attribute 23, 3
   7              		.eabi_attribute 24, 1
   8              		.eabi_attribute 25, 1
   9              		.eabi_attribute 26, 1
  10              		.eabi_attribute 30, 6
  11              		.eabi_attribute 34, 1
  12              		.eabi_attribute 18, 4
  13              		.thumb
  14              		.file	"memp.c"
  15              		.text
  16              	.Ltext0:
  17              		.cfi_sections	.debug_frame
  18              		.section	.bss.memp_tab,"aw",%nobits
  19              		.align	2
  20              		.type	memp_tab, %object
  21              		.size	memp_tab, 56
  22              	memp_tab:
  23 0000 00000000 		.space	56
  23      00000000 
  23      00000000 
  23      00000000 
  23      00000000 
  24              		.section	.rodata.memp_sizes,"a",%progbits
  25              		.align	2
  26              		.type	memp_sizes, %object
  27              		.size	memp_sizes, 28
  28              	memp_sizes:
  29 0000 1C00     		.short	28
  30 0002 2000     		.short	32
  31 0004 A400     		.short	164
  32 0006 2000     		.short	32
  33 0008 1000     		.short	16
  34 000a 2000     		.short	32
  35 000c 1800     		.short	24
  36 000e 1000     		.short	16
  37 0010 2C00     		.short	44
  38 0012 1400     		.short	20
  39 0014 1400     		.short	20
  40 0016 1000     		.short	16
  41 0018 1000     		.short	16
  42 001a 6002     		.short	608
  43              		.section	.rodata.memp_num,"a",%progbits
  44              		.align	2
  45              		.type	memp_num, %object
  46              		.size	memp_num, 28
  47              	memp_num:
  48 0000 0400     		.short	4
  49 0002 0400     		.short	4
  50 0004 0500     		.short	5
  51 0006 0800     		.short	8
  52 0008 1000     		.short	16
  53 000a 0500     		.short	5
ARM GAS  /tmp/ccjkabsI.s 			page 2


  54 000c 0F00     		.short	15
  55 000e 0200     		.short	2
  56 0010 0400     		.short	4
  57 0012 0800     		.short	8
  58 0014 0800     		.short	8
  59 0016 0300     		.short	3
  60 0018 1000     		.short	16
  61 001a 1000     		.short	16
  62              		.section	.bss.memp_memory,"aw",%nobits
  63              		.align	2
  64              		.type	memp_memory, %object
  65              		.size	memp_memory, 12655
  66              	memp_memory:
  67 0000 00000000 		.space	12655
  67      00000000 
  67      00000000 
  67      00000000 
  67      00000000 
  68 316f 00       		.section	.text.memp_init,"ax",%progbits
  69              		.align	2
  70              		.p2align 4,,15
  71              		.global	memp_init
  72              		.thumb
  73              		.thumb_func
  74              		.type	memp_init, %function
  75              	memp_init:
  76              	.LFB7:
  77              		.file 1 "../../ext/lwip/src/core/memp.c"
  78              		.loc 1 338 0
  79              		.cfi_startproc
  80              		@ args = 0, pretend = 0, frame = 8
  81              		@ frame_needed = 0, uses_anonymous_args = 0
  82              		@ link register save eliminated.
  83 0000 82B0     		sub	sp, sp, #8
  84              	.LCFI0:
  85              		.cfi_def_cfa_offset 8
  86              		.loc 1 342 0
  87 0002 4FF00003 		mov	r3, #0
  88 0006 ADF80230 		strh	r3, [sp, #2]	@ movhi
  89 000a 54E0     		b	.L2
  90              	.L3:
  91              		.loc 1 343 0 discriminator 2
  92 000c BDF80210 		ldrh	r1, [sp, #2]
  93 0010 40F20002 		movw	r2, #:lower16:lwip_stats
  94 0014 C0F20002 		movt	r2, #:upper16:lwip_stats
  95 0018 0B46     		mov	r3, r1
  96 001a 4FEA8303 		lsl	r3, r3, #2
  97 001e 5B18     		adds	r3, r3, r1
  98 0020 4FEA4303 		lsl	r3, r3, #1
  99 0024 D318     		adds	r3, r2, r3
 100 0026 03F1B403 		add	r3, r3, #180
 101 002a 4FF00002 		mov	r2, #0
 102 002e 1A80     		strh	r2, [r3, #0]	@ movhi
 103              		.loc 1 344 0 discriminator 2
 104 0030 BDF80210 		ldrh	r1, [sp, #2]
 105 0034 40F20002 		movw	r2, #:lower16:lwip_stats
 106 0038 C0F20002 		movt	r2, #:upper16:lwip_stats
ARM GAS  /tmp/ccjkabsI.s 			page 3


 107 003c 0B46     		mov	r3, r1
 108 003e 4FEA8303 		lsl	r3, r3, #2
 109 0042 5B18     		adds	r3, r3, r1
 110 0044 4FEA4303 		lsl	r3, r3, #1
 111 0048 D318     		adds	r3, r2, r3
 112 004a 03F1B603 		add	r3, r3, #182
 113 004e 4FF00002 		mov	r2, #0
 114 0052 1A80     		strh	r2, [r3, #0]	@ movhi
 115              		.loc 1 345 0 discriminator 2
 116 0054 BDF80210 		ldrh	r1, [sp, #2]
 117 0058 40F20002 		movw	r2, #:lower16:lwip_stats
 118 005c C0F20002 		movt	r2, #:upper16:lwip_stats
 119 0060 0B46     		mov	r3, r1
 120 0062 4FEA8303 		lsl	r3, r3, #2
 121 0066 5B18     		adds	r3, r3, r1
 122 0068 4FEA4303 		lsl	r3, r3, #1
 123 006c D318     		adds	r3, r2, r3
 124 006e 03F1B803 		add	r3, r3, #184
 125 0072 4FF00002 		mov	r2, #0
 126 0076 1A80     		strh	r2, [r3, #0]	@ movhi
 127              		.loc 1 346 0 discriminator 2
 128 0078 BDF80210 		ldrh	r1, [sp, #2]
 129 007c BDF80220 		ldrh	r2, [sp, #2]
 130 0080 40F20003 		movw	r3, #:lower16:memp_num
 131 0084 C0F20003 		movt	r3, #:upper16:memp_num
 132 0088 33F81200 		ldrh	r0, [r3, r2, lsl #1]
 133 008c 40F20002 		movw	r2, #:lower16:lwip_stats
 134 0090 C0F20002 		movt	r2, #:upper16:lwip_stats
 135 0094 0B46     		mov	r3, r1
 136 0096 4FEA8303 		lsl	r3, r3, #2
 137 009a 5B18     		adds	r3, r3, r1
 138 009c 4FEA4303 		lsl	r3, r3, #1
 139 00a0 D318     		adds	r3, r2, r3
 140 00a2 03F1B203 		add	r3, r3, #178
 141 00a6 0246     		mov	r2, r0	@ movhi
 142 00a8 1A80     		strh	r2, [r3, #0]	@ movhi
 143              		.loc 1 342 0 discriminator 2
 144 00aa BDF80230 		ldrh	r3, [sp, #2]	@ movhi
 145 00ae 03F10103 		add	r3, r3, #1
 146 00b2 ADF80230 		strh	r3, [sp, #2]	@ movhi
 147              	.L2:
 148              		.loc 1 342 0 is_stmt 0 discriminator 1
 149 00b6 BDF80230 		ldrh	r3, [sp, #2]
 150 00ba 0D2B     		cmp	r3, #13
 151 00bc A6D9     		bls	.L3
 152              		.loc 1 350 0 is_stmt 1
 153 00be 40F20003 		movw	r3, #:lower16:memp_memory
 154 00c2 C0F20003 		movt	r3, #:upper16:memp_memory
 155 00c6 03F10303 		add	r3, r3, #3
 156 00ca 23F00303 		bic	r3, r3, #3
 157 00ce 0193     		str	r3, [sp, #4]
 158              		.loc 1 353 0
 159 00d0 4FF00003 		mov	r3, #0
 160 00d4 ADF80230 		strh	r3, [sp, #2]	@ movhi
 161 00d8 44E0     		b	.L4
 162              	.L7:
 163              		.loc 1 354 0
ARM GAS  /tmp/ccjkabsI.s 			page 4


 164 00da BDF80220 		ldrh	r2, [sp, #2]
 165 00de 40F20003 		movw	r3, #:lower16:memp_tab
 166 00e2 C0F20003 		movt	r3, #:upper16:memp_tab
 167 00e6 4FF00001 		mov	r1, #0
 168 00ea 43F82210 		str	r1, [r3, r2, lsl #2]
 169              		.loc 1 359 0
 170 00ee 4FF00003 		mov	r3, #0
 171 00f2 ADF80030 		strh	r3, [sp, #0]	@ movhi
 172 00f6 23E0     		b	.L5
 173              	.L6:
 174              		.loc 1 360 0 discriminator 2
 175 00f8 BDF80220 		ldrh	r2, [sp, #2]
 176 00fc 40F20003 		movw	r3, #:lower16:memp_tab
 177 0100 C0F20003 		movt	r3, #:upper16:memp_tab
 178 0104 53F82220 		ldr	r2, [r3, r2, lsl #2]
 179 0108 019B     		ldr	r3, [sp, #4]
 180 010a 1A60     		str	r2, [r3, #0]
 181              		.loc 1 361 0 discriminator 2
 182 010c BDF80220 		ldrh	r2, [sp, #2]
 183 0110 40F20003 		movw	r3, #:lower16:memp_tab
 184 0114 C0F20003 		movt	r3, #:upper16:memp_tab
 185 0118 0199     		ldr	r1, [sp, #4]
 186 011a 43F82210 		str	r1, [r3, r2, lsl #2]
 187              		.loc 1 362 0 discriminator 2
 188 011e BDF80220 		ldrh	r2, [sp, #2]
 189 0122 40F20003 		movw	r3, #:lower16:memp_sizes
 190 0126 C0F20003 		movt	r3, #:upper16:memp_sizes
 191 012a 33F81230 		ldrh	r3, [r3, r2, lsl #1]
 192 012e 019A     		ldr	r2, [sp, #4]
 193 0130 D318     		adds	r3, r2, r3
 194 0132 0193     		str	r3, [sp, #4]
 195              		.loc 1 359 0 discriminator 2
 196 0134 BDF80030 		ldrh	r3, [sp, #0]	@ movhi
 197 0138 03F10103 		add	r3, r3, #1
 198 013c ADF80030 		strh	r3, [sp, #0]	@ movhi
 199              	.L5:
 200              		.loc 1 359 0 is_stmt 0 discriminator 1
 201 0140 BDF80220 		ldrh	r2, [sp, #2]
 202 0144 40F20003 		movw	r3, #:lower16:memp_num
 203 0148 C0F20003 		movt	r3, #:upper16:memp_num
 204 014c 33F81230 		ldrh	r3, [r3, r2, lsl #1]
 205 0150 BDF80020 		ldrh	r2, [sp, #0]
 206 0154 9A42     		cmp	r2, r3
 207 0156 CFD3     		bcc	.L6
 208              		.loc 1 353 0 is_stmt 1
 209 0158 BDF80230 		ldrh	r3, [sp, #2]	@ movhi
 210 015c 03F10103 		add	r3, r3, #1
 211 0160 ADF80230 		strh	r3, [sp, #2]	@ movhi
 212              	.L4:
 213              		.loc 1 353 0 is_stmt 0 discriminator 1
 214 0164 BDF80230 		ldrh	r3, [sp, #2]
 215 0168 0D2B     		cmp	r3, #13
 216 016a B6D9     		bls	.L7
 217              		.loc 1 374 0 is_stmt 1
 218 016c 02B0     		add	sp, sp, #8
 219 016e 7047     		bx	lr
 220              		.cfi_endproc
ARM GAS  /tmp/ccjkabsI.s 			page 5


 221              	.LFE7:
 222              		.size	memp_init, .-memp_init
 223              		.section	.text.memp_malloc,"ax",%progbits
 224              		.align	2
 225              		.p2align 4,,15
 226              		.global	memp_malloc
 227              		.thumb
 228              		.thumb_func
 229              		.type	memp_malloc, %function
 230              	memp_malloc:
 231              	.LFB8:
 232              		.loc 1 393 0
 233              		.cfi_startproc
 234              		@ args = 0, pretend = 0, frame = 16
 235              		@ frame_needed = 0, uses_anonymous_args = 0
 236 0000 00B5     		push	{lr}
 237              	.LCFI1:
 238              		.cfi_def_cfa_offset 4
 239              		.cfi_offset 14, -4
 240 0002 85B0     		sub	sp, sp, #20
 241              	.LCFI2:
 242              		.cfi_def_cfa_offset 24
 243 0004 0346     		mov	r3, r0
 244 0006 8DF80730 		strb	r3, [sp, #7]
 245              		.loc 1 397 0
 246 000a 9DF80730 		ldrb	r3, [sp, #7]	@ zero_extendqisi2
 247 000e 0D2B     		cmp	r3, #13
 248 0010 04D9     		bls	.L9
 249              		.loc 1 397 0 is_stmt 0 discriminator 1
 250 0012 FFF7FEFF 		bl	port_halt
 251 0016 4FF00003 		mov	r3, #0
 252 001a A9E0     		b	.L10
 253              	.L9:
 254              		.loc 1 404 0 is_stmt 1
 255 001c 9DF80720 		ldrb	r2, [sp, #7]	@ zero_extendqisi2
 256 0020 40F20003 		movw	r3, #:lower16:memp_tab
 257 0024 C0F20003 		movt	r3, #:upper16:memp_tab
 258 0028 53F82230 		ldr	r3, [r3, r2, lsl #2]
 259 002c 0393     		str	r3, [sp, #12]
 260              		.loc 1 406 0
 261 002e 039B     		ldr	r3, [sp, #12]
 262 0030 002B     		cmp	r3, #0
 263 0032 78D0     		beq	.L11
 264              		.loc 1 407 0
 265 0034 9DF80720 		ldrb	r2, [sp, #7]	@ zero_extendqisi2
 266 0038 039B     		ldr	r3, [sp, #12]
 267 003a 1968     		ldr	r1, [r3, #0]
 268 003c 40F20003 		movw	r3, #:lower16:memp_tab
 269 0040 C0F20003 		movt	r3, #:upper16:memp_tab
 270 0044 43F82210 		str	r1, [r3, r2, lsl #2]
 271              		.loc 1 413 0
 272 0048 9DF80710 		ldrb	r1, [sp, #7]	@ zero_extendqisi2
 273 004c 9DF80700 		ldrb	r0, [sp, #7]	@ zero_extendqisi2
 274 0050 40F20002 		movw	r2, #:lower16:lwip_stats
 275 0054 C0F20002 		movt	r2, #:upper16:lwip_stats
 276 0058 0346     		mov	r3, r0
 277 005a 4FEA8303 		lsl	r3, r3, #2
ARM GAS  /tmp/ccjkabsI.s 			page 6


 278 005e 1B18     		adds	r3, r3, r0
 279 0060 4FEA4303 		lsl	r3, r3, #1
 280 0064 D318     		adds	r3, r2, r3
 281 0066 03F1B403 		add	r3, r3, #180
 282 006a 1B88     		ldrh	r3, [r3, #0]
 283 006c 03F10103 		add	r3, r3, #1
 284 0070 98B2     		uxth	r0, r3
 285 0072 40F20002 		movw	r2, #:lower16:lwip_stats
 286 0076 C0F20002 		movt	r2, #:upper16:lwip_stats
 287 007a 0B46     		mov	r3, r1
 288 007c 4FEA8303 		lsl	r3, r3, #2
 289 0080 5B18     		adds	r3, r3, r1
 290 0082 4FEA4303 		lsl	r3, r3, #1
 291 0086 D318     		adds	r3, r2, r3
 292 0088 03F1B403 		add	r3, r3, #180
 293 008c 0246     		mov	r2, r0	@ movhi
 294 008e 1A80     		strh	r2, [r3, #0]	@ movhi
 295 0090 9DF80710 		ldrb	r1, [sp, #7]	@ zero_extendqisi2
 296 0094 40F20002 		movw	r2, #:lower16:lwip_stats
 297 0098 C0F20002 		movt	r2, #:upper16:lwip_stats
 298 009c 0B46     		mov	r3, r1
 299 009e 4FEA8303 		lsl	r3, r3, #2
 300 00a2 5B18     		adds	r3, r3, r1
 301 00a4 4FEA4303 		lsl	r3, r3, #1
 302 00a8 D318     		adds	r3, r2, r3
 303 00aa 03F1B603 		add	r3, r3, #182
 304 00ae 1888     		ldrh	r0, [r3, #0]
 305 00b0 9DF80710 		ldrb	r1, [sp, #7]	@ zero_extendqisi2
 306 00b4 40F20002 		movw	r2, #:lower16:lwip_stats
 307 00b8 C0F20002 		movt	r2, #:upper16:lwip_stats
 308 00bc 0B46     		mov	r3, r1
 309 00be 4FEA8303 		lsl	r3, r3, #2
 310 00c2 5B18     		adds	r3, r3, r1
 311 00c4 4FEA4303 		lsl	r3, r3, #1
 312 00c8 D318     		adds	r3, r2, r3
 313 00ca 03F1B403 		add	r3, r3, #180
 314 00ce 1B88     		ldrh	r3, [r3, #0]
 315 00d0 9842     		cmp	r0, r3
 316 00d2 20D2     		bcs	.L12
 317              		.loc 1 413 0 is_stmt 0 discriminator 1
 318 00d4 9DF80710 		ldrb	r1, [sp, #7]	@ zero_extendqisi2
 319 00d8 9DF80700 		ldrb	r0, [sp, #7]	@ zero_extendqisi2
 320 00dc 40F20002 		movw	r2, #:lower16:lwip_stats
 321 00e0 C0F20002 		movt	r2, #:upper16:lwip_stats
 322 00e4 0346     		mov	r3, r0
 323 00e6 4FEA8303 		lsl	r3, r3, #2
 324 00ea 1B18     		adds	r3, r3, r0
 325 00ec 4FEA4303 		lsl	r3, r3, #1
 326 00f0 D318     		adds	r3, r2, r3
 327 00f2 03F1B403 		add	r3, r3, #180
 328 00f6 1888     		ldrh	r0, [r3, #0]
 329 00f8 40F20002 		movw	r2, #:lower16:lwip_stats
 330 00fc C0F20002 		movt	r2, #:upper16:lwip_stats
 331 0100 0B46     		mov	r3, r1
 332 0102 4FEA8303 		lsl	r3, r3, #2
 333 0106 5B18     		adds	r3, r3, r1
 334 0108 4FEA4303 		lsl	r3, r3, #1
ARM GAS  /tmp/ccjkabsI.s 			page 7


 335 010c D318     		adds	r3, r2, r3
 336 010e 03F1B603 		add	r3, r3, #182
 337 0112 0246     		mov	r2, r0	@ movhi
 338 0114 1A80     		strh	r2, [r3, #0]	@ movhi
 339              	.L12:
 340              		.loc 1 414 0 is_stmt 1
 341 0116 039B     		ldr	r3, [sp, #12]
 342 0118 03F00303 		and	r3, r3, #3
 343 011c 002B     		cmp	r3, #0
 344 011e 25D0     		beq	.L15
 345              		.loc 1 414 0 is_stmt 0 discriminator 1
 346 0120 FFF7FEFF 		bl	port_halt
 347 0124 23E0     		b	.L14
 348              	.L11:
 349              		.loc 1 419 0 is_stmt 1
 350 0126 9DF80720 		ldrb	r2, [sp, #7]	@ zero_extendqisi2
 351 012a 40F20001 		movw	r1, #:lower16:lwip_stats
 352 012e C0F20001 		movt	r1, #:upper16:lwip_stats
 353 0132 1346     		mov	r3, r2
 354 0134 4FEA8303 		lsl	r3, r3, #2
 355 0138 9B18     		adds	r3, r3, r2
 356 013a 4FEA4303 		lsl	r3, r3, #1
 357 013e CB18     		adds	r3, r1, r3
 358 0140 03F1B803 		add	r3, r3, #184
 359 0144 1B88     		ldrh	r3, [r3, #0]
 360 0146 03F10103 		add	r3, r3, #1
 361 014a 98B2     		uxth	r0, r3
 362 014c 40F20001 		movw	r1, #:lower16:lwip_stats
 363 0150 C0F20001 		movt	r1, #:upper16:lwip_stats
 364 0154 1346     		mov	r3, r2
 365 0156 4FEA8303 		lsl	r3, r3, #2
 366 015a 9B18     		adds	r3, r3, r2
 367 015c 4FEA4303 		lsl	r3, r3, #1
 368 0160 CB18     		adds	r3, r1, r3
 369 0162 03F1B803 		add	r3, r3, #184
 370 0166 0246     		mov	r2, r0	@ movhi
 371 0168 1A80     		strh	r2, [r3, #0]	@ movhi
 372 016a 00E0     		b	.L14
 373              	.L15:
 374              		.loc 1 416 0
 375 016c 00BF     		nop
 376              	.L14:
 377              		.loc 1 424 0
 378 016e 039B     		ldr	r3, [sp, #12]
 379              	.L10:
 380              		.loc 1 425 0
 381 0170 1846     		mov	r0, r3
 382 0172 05B0     		add	sp, sp, #20
 383 0174 00BD     		pop	{pc}
 384              		.cfi_endproc
 385              	.LFE8:
 386              		.size	memp_malloc, .-memp_malloc
 387 0176 00BFAFF3 		.section	.text.memp_free,"ax",%progbits
 387      0080AFF3 
 387      0080
 388              		.align	2
 389              		.p2align 4,,15
ARM GAS  /tmp/ccjkabsI.s 			page 8


 390              		.global	memp_free
 391              		.thumb
 392              		.thumb_func
 393              		.type	memp_free, %function
 394              	memp_free:
 395              	.LFB9:
 396              		.loc 1 435 0
 397              		.cfi_startproc
 398              		@ args = 0, pretend = 0, frame = 16
 399              		@ frame_needed = 0, uses_anonymous_args = 0
 400 0000 00B5     		push	{lr}
 401              	.LCFI3:
 402              		.cfi_def_cfa_offset 4
 403              		.cfi_offset 14, -4
 404 0002 85B0     		sub	sp, sp, #20
 405              	.LCFI4:
 406              		.cfi_def_cfa_offset 24
 407 0004 0346     		mov	r3, r0
 408 0006 0091     		str	r1, [sp, #0]
 409 0008 8DF80730 		strb	r3, [sp, #7]
 410              		.loc 1 439 0
 411 000c 009B     		ldr	r3, [sp, #0]
 412 000e 002B     		cmp	r3, #0
 413 0010 3ED0     		beq	.L20
 414              	.L17:
 415              		.loc 1 442 0
 416 0012 009B     		ldr	r3, [sp, #0]
 417 0014 03F00303 		and	r3, r3, #3
 418 0018 002B     		cmp	r3, #0
 419 001a 01D0     		beq	.L19
 420              		.loc 1 442 0 is_stmt 0 discriminator 1
 421 001c FFF7FEFF 		bl	port_halt
 422              	.L19:
 423              		.loc 1 445 0 is_stmt 1
 424 0020 009B     		ldr	r3, [sp, #0]
 425 0022 0393     		str	r3, [sp, #12]
 426              		.loc 1 457 0
 427 0024 9DF80720 		ldrb	r2, [sp, #7]	@ zero_extendqisi2
 428 0028 40F20001 		movw	r1, #:lower16:lwip_stats
 429 002c C0F20001 		movt	r1, #:upper16:lwip_stats
 430 0030 1346     		mov	r3, r2
 431 0032 4FEA8303 		lsl	r3, r3, #2
 432 0036 9B18     		adds	r3, r3, r2
 433 0038 4FEA4303 		lsl	r3, r3, #1
 434 003c CB18     		adds	r3, r1, r3
 435 003e 03F1B403 		add	r3, r3, #180
 436 0042 1B88     		ldrh	r3, [r3, #0]
 437 0044 03F1FF33 		add	r3, r3, #-1
 438 0048 98B2     		uxth	r0, r3
 439 004a 40F20001 		movw	r1, #:lower16:lwip_stats
 440 004e C0F20001 		movt	r1, #:upper16:lwip_stats
 441 0052 1346     		mov	r3, r2
 442 0054 4FEA8303 		lsl	r3, r3, #2
 443 0058 9B18     		adds	r3, r3, r2
 444 005a 4FEA4303 		lsl	r3, r3, #1
 445 005e CB18     		adds	r3, r1, r3
 446 0060 03F1B403 		add	r3, r3, #180
ARM GAS  /tmp/ccjkabsI.s 			page 9


 447 0064 0246     		mov	r2, r0	@ movhi
 448 0066 1A80     		strh	r2, [r3, #0]	@ movhi
 449              		.loc 1 459 0
 450 0068 9DF80720 		ldrb	r2, [sp, #7]	@ zero_extendqisi2
 451 006c 40F20003 		movw	r3, #:lower16:memp_tab
 452 0070 C0F20003 		movt	r3, #:upper16:memp_tab
 453 0074 53F82220 		ldr	r2, [r3, r2, lsl #2]
 454 0078 039B     		ldr	r3, [sp, #12]
 455 007a 1A60     		str	r2, [r3, #0]
 456              		.loc 1 460 0
 457 007c 9DF80720 		ldrb	r2, [sp, #7]	@ zero_extendqisi2
 458 0080 40F20003 		movw	r3, #:lower16:memp_tab
 459 0084 C0F20003 		movt	r3, #:upper16:memp_tab
 460 0088 0399     		ldr	r1, [sp, #12]
 461 008a 43F82210 		str	r1, [r3, r2, lsl #2]
 462 008e 00E0     		b	.L16
 463              	.L20:
 464              		.loc 1 440 0
 465 0090 00BF     		nop
 466              	.L16:
 467              		.loc 1 467 0
 468 0092 05B0     		add	sp, sp, #20
 469 0094 00BD     		pop	{pc}
 470              		.cfi_endproc
 471              	.LFE9:
 472              		.size	memp_free, .-memp_free
 473 0096 00BFAFF3 		.text
 473      0080AFF3 
 473      0080
 474              	.Letext0:
 475              		.file 2 "/home/texzk/ChibiStudio/tools/GNU Tools ARM Embedded/4.6 2012q2/bin/../lib/gcc/arm-none-e
 476              		.file 3 "../../os/various/lwip_bindings/arch/cc.h"
 477              		.file 4 "../../ext/lwip/src/include/lwip/memp.h"
 478              		.file 5 "../../ext/lwip/src/include/lwip/mem.h"
 479              		.file 6 "../../ext/lwip/src/include/lwip/stats.h"