ARM GAS  /tmp/cctyRJFc.s 			page 1


   1              		.syntax unified
   2              		.cpu cortex-m3
   3              		.fpu softvfp
   4              		.eabi_attribute 20, 1
   5              		.eabi_attribute 21, 1
   6              		.eabi_attribute 23, 3
   7              		.eabi_attribute 24, 1
   8              		.eabi_attribute 25, 1
   9              		.eabi_attribute 26, 1
  10              		.eabi_attribute 30, 6
  11              		.eabi_attribute 34, 1
  12              		.eabi_attribute 18, 4
  13              		.thumb
  14              		.file	"nvic.c"
  15              		.text
  16              	.Ltext0:
  17              		.cfi_sections	.debug_frame
  18              		.section	.text.nvicEnableVector,"ax",%progbits
  19              		.align	2
  20              		.p2align 4,,15
  21              		.global	nvicEnableVector
  22              		.thumb
  23              		.thumb_func
  24              		.type	nvicEnableVector, %function
  25              	nvicEnableVector:
  26              	.LFB7:
  27              		.file 1 "../../os/ports/common/ARMCMx/nvic.c"
  28              		.loc 1 39 0
  29              		.cfi_startproc
  30              		@ args = 0, pretend = 0, frame = 16
  31              		@ frame_needed = 0, uses_anonymous_args = 0
  32              		@ link register save eliminated.
  33 0000 10B4     		push	{r4}
  34              	.LCFI0:
  35              		.cfi_def_cfa_offset 4
  36              		.cfi_offset 4, -4
  37 0002 85B0     		sub	sp, sp, #20
  38              	.LCFI1:
  39              		.cfi_def_cfa_offset 24
  40 0004 0190     		str	r0, [sp, #4]
  41 0006 0091     		str	r1, [sp, #0]
  42              		.loc 1 40 0
  43 0008 019B     		ldr	r3, [sp, #4]
  44 000a 03F00303 		and	r3, r3, #3
  45 000e 4FEAC303 		lsl	r3, r3, #3
  46 0012 0393     		str	r3, [sp, #12]
  47              		.loc 1 42 0
  48 0014 4FF46143 		mov	r3, #57600
  49 0018 CEF20003 		movt	r3, 57344
  50 001c 019A     		ldr	r2, [sp, #4]
  51 001e 4FEA9200 		lsr	r0, r2, #2
  52 0022 4FF46142 		mov	r2, #57600
  53 0026 CEF20002 		movt	r2, 57344
  54 002a 0199     		ldr	r1, [sp, #4]
  55 002c 4FEA9101 		lsr	r1, r1, #2
  56 0030 01F1C001 		add	r1, r1, #192
  57 0034 52F82120 		ldr	r2, [r2, r1, lsl #2]
ARM GAS  /tmp/cctyRJFc.s 			page 2


  58 0038 1146     		mov	r1, r2
  59 003a 039A     		ldr	r2, [sp, #12]
  60 003c 4FF0FF04 		mov	r4, #255
  61 0040 04FA02F2 		lsl	r2, r4, r2
  62 0044 6FEA0202 		mvn	r2, r2
  63 0048 1140     		ands	r1, r1, r2
  64 004a 039A     		ldr	r2, [sp, #12]
  65 004c 009C     		ldr	r4, [sp, #0]
  66 004e 04FA02F2 		lsl	r2, r4, r2
  67 0052 1143     		orrs	r1, r1, r2
  68 0054 00F1C002 		add	r2, r0, #192
  69 0058 43F82210 		str	r1, [r3, r2, lsl #2]
  70              		.loc 1 43 0
  71 005c 4FF46143 		mov	r3, #57600
  72 0060 CEF20003 		movt	r3, 57344
  73 0064 019A     		ldr	r2, [sp, #4]
  74 0066 4FEA5212 		lsr	r2, r2, #5
  75 006a 0199     		ldr	r1, [sp, #4]
  76 006c 01F01F01 		and	r1, r1, #31
  77 0070 4FF00100 		mov	r0, #1
  78 0074 00FA01F1 		lsl	r1, r0, r1
  79 0078 02F16002 		add	r2, r2, #96
  80 007c 43F82210 		str	r1, [r3, r2, lsl #2]
  81              		.loc 1 44 0
  82 0080 4FF46143 		mov	r3, #57600
  83 0084 CEF20003 		movt	r3, 57344
  84 0088 019A     		ldr	r2, [sp, #4]
  85 008a 4FEA5212 		lsr	r2, r2, #5
  86 008e 0199     		ldr	r1, [sp, #4]
  87 0090 01F01F01 		and	r1, r1, #31
  88 0094 4FF00100 		mov	r0, #1
  89 0098 00FA01F1 		lsl	r1, r0, r1
  90 009c 43F82210 		str	r1, [r3, r2, lsl #2]
  91              		.loc 1 45 0
  92 00a0 05B0     		add	sp, sp, #20
  93 00a2 10BC     		pop	{r4}
  94 00a4 7047     		bx	lr
  95              		.cfi_endproc
  96              	.LFE7:
  97              		.size	nvicEnableVector, .-nvicEnableVector
  98 00a6 00BFAFF3 		.section	.text.nvicDisableVector,"ax",%progbits
  98      0080AFF3 
  98      0080
  99              		.align	2
 100              		.p2align 4,,15
 101              		.global	nvicDisableVector
 102              		.thumb
 103              		.thumb_func
 104              		.type	nvicDisableVector, %function
 105              	nvicDisableVector:
 106              	.LFB8:
 107              		.loc 1 53 0
 108              		.cfi_startproc
 109              		@ args = 0, pretend = 0, frame = 16
 110              		@ frame_needed = 0, uses_anonymous_args = 0
 111              		@ link register save eliminated.
 112 0000 10B4     		push	{r4}
ARM GAS  /tmp/cctyRJFc.s 			page 3


 113              	.LCFI2:
 114              		.cfi_def_cfa_offset 4
 115              		.cfi_offset 4, -4
 116 0002 85B0     		sub	sp, sp, #20
 117              	.LCFI3:
 118              		.cfi_def_cfa_offset 24
 119 0004 0190     		str	r0, [sp, #4]
 120              		.loc 1 54 0
 121 0006 019B     		ldr	r3, [sp, #4]
 122 0008 03F00303 		and	r3, r3, #3
 123 000c 4FEAC303 		lsl	r3, r3, #3
 124 0010 0393     		str	r3, [sp, #12]
 125              		.loc 1 56 0
 126 0012 4FF46143 		mov	r3, #57600
 127 0016 CEF20003 		movt	r3, 57344
 128 001a 019A     		ldr	r2, [sp, #4]
 129 001c 4FEA5212 		lsr	r2, r2, #5
 130 0020 0199     		ldr	r1, [sp, #4]
 131 0022 01F01F01 		and	r1, r1, #31
 132 0026 4FF00100 		mov	r0, #1
 133 002a 00FA01F1 		lsl	r1, r0, r1
 134 002e 02F12002 		add	r2, r2, #32
 135 0032 43F82210 		str	r1, [r3, r2, lsl #2]
 136              		.loc 1 57 0
 137 0036 4FF46143 		mov	r3, #57600
 138 003a CEF20003 		movt	r3, 57344
 139 003e 019A     		ldr	r2, [sp, #4]
 140 0040 4FEA9200 		lsr	r0, r2, #2
 141 0044 4FF46142 		mov	r2, #57600
 142 0048 CEF20002 		movt	r2, 57344
 143 004c 0199     		ldr	r1, [sp, #4]
 144 004e 4FEA9101 		lsr	r1, r1, #2
 145 0052 01F1C001 		add	r1, r1, #192
 146 0056 52F82120 		ldr	r2, [r2, r1, lsl #2]
 147 005a 1146     		mov	r1, r2
 148 005c 039A     		ldr	r2, [sp, #12]
 149 005e 4FF0FF04 		mov	r4, #255
 150 0062 04FA02F2 		lsl	r2, r4, r2
 151 0066 6FEA0202 		mvn	r2, r2
 152 006a 1140     		ands	r1, r1, r2
 153 006c 00F1C002 		add	r2, r0, #192
 154 0070 43F82210 		str	r1, [r3, r2, lsl #2]
 155              		.loc 1 58 0
 156 0074 05B0     		add	sp, sp, #20
 157 0076 10BC     		pop	{r4}
 158 0078 7047     		bx	lr
 159              		.cfi_endproc
 160              	.LFE8:
 161              		.size	nvicDisableVector, .-nvicDisableVector
 162 007a 00BFAFF3 		.section	.text.nvicSetSystemHandlerPriority,"ax",%progbits
 162      0080
 163              		.align	2
 164              		.p2align 4,,15
 165              		.global	nvicSetSystemHandlerPriority
 166              		.thumb
 167              		.thumb_func
 168              		.type	nvicSetSystemHandlerPriority, %function
ARM GAS  /tmp/cctyRJFc.s 			page 4


 169              	nvicSetSystemHandlerPriority:
 170              	.LFB9:
 171              		.loc 1 67 0
 172              		.cfi_startproc
 173              		@ args = 0, pretend = 0, frame = 16
 174              		@ frame_needed = 0, uses_anonymous_args = 0
 175              		@ link register save eliminated.
 176 0000 10B4     		push	{r4}
 177              	.LCFI4:
 178              		.cfi_def_cfa_offset 4
 179              		.cfi_offset 4, -4
 180 0002 85B0     		sub	sp, sp, #20
 181              	.LCFI5:
 182              		.cfi_def_cfa_offset 24
 183 0004 0190     		str	r0, [sp, #4]
 184 0006 0091     		str	r1, [sp, #0]
 185              		.loc 1 68 0
 186 0008 019B     		ldr	r3, [sp, #4]
 187 000a 03F00303 		and	r3, r3, #3
 188 000e 4FEAC303 		lsl	r3, r3, #3
 189 0012 0393     		str	r3, [sp, #12]
 190              		.loc 1 70 0
 191 0014 4FF46D43 		mov	r3, #60672
 192 0018 CEF20003 		movt	r3, 57344
 193 001c 019A     		ldr	r2, [sp, #4]
 194 001e 4FEA9200 		lsr	r0, r2, #2
 195 0022 4FF46D42 		mov	r2, #60672
 196 0026 CEF20002 		movt	r2, 57344
 197 002a 0199     		ldr	r1, [sp, #4]
 198 002c 4FEA9101 		lsr	r1, r1, #2
 199 0030 01F10601 		add	r1, r1, #6
 200 0034 52F82120 		ldr	r2, [r2, r1, lsl #2]
 201 0038 1146     		mov	r1, r2
 202              		.loc 1 71 0
 203 003a 039A     		ldr	r2, [sp, #12]
 204 003c 4FF0FF04 		mov	r4, #255
 205 0040 04FA02F2 		lsl	r2, r4, r2
 206 0044 6FEA0202 		mvn	r2, r2
 207              		.loc 1 70 0
 208 0048 1140     		ands	r1, r1, r2
 209              		.loc 1 71 0
 210 004a 039A     		ldr	r2, [sp, #12]
 211 004c 009C     		ldr	r4, [sp, #0]
 212 004e 04FA02F2 		lsl	r2, r4, r2
 213 0052 1143     		orrs	r1, r1, r2
 214              		.loc 1 70 0
 215 0054 00F10602 		add	r2, r0, #6
 216 0058 43F82210 		str	r1, [r3, r2, lsl #2]
 217              		.loc 1 72 0
 218 005c 05B0     		add	sp, sp, #20
 219 005e 10BC     		pop	{r4}
 220 0060 7047     		bx	lr
 221              		.cfi_endproc
 222              	.LFE9:
 223              		.size	nvicSetSystemHandlerPriority, .-nvicSetSystemHandlerPriority
 224 0062 00BFAFF3 		.text
 224      0080AFF3 
ARM GAS  /tmp/cctyRJFc.s 			page 5


 224      0080AFF3 
 224      0080
 225              	.Letext0:
 226              		.file 2 "../../os/ports/common/ARMCMx/nvic.h"
 227              		.file 3 "/home/texzk/ChibiStudio/tools/GNU Tools ARM Embedded/4.6 2012q2/bin/../lib/gcc/arm-none-e