ARM GAS  /tmp/ccij3Jqw.s 			page 1


   1              		.syntax unified
   2              		.cpu cortex-m3
   3              		.fpu softvfp
   4              		.eabi_attribute 20, 1
   5              		.eabi_attribute 21, 1
   6              		.eabi_attribute 23, 3
   7              		.eabi_attribute 24, 1
   8              		.eabi_attribute 25, 1
   9              		.eabi_attribute 26, 1
  10              		.eabi_attribute 30, 6
  11              		.eabi_attribute 34, 1
  12              		.eabi_attribute 18, 4
  13              		.thumb
  14              		.file	"pal_lld.c"
  15              		.text
  16              	.Ltext0:
  17              		.cfi_sections	.debug_frame
  18              		.section	.text.initgpio,"ax",%progbits
  19              		.align	2
  20              		.p2align 4,,15
  21              		.thumb
  22              		.thumb_func
  23              		.type	initgpio, %function
  24              	initgpio:
  25              	.LFB63:
  26              		.file 1 "../../os/hal/platforms/STM32/GPIOv2/pal_lld.c"
  27              		.loc 1 73 0
  28              		.cfi_startproc
  29              		@ args = 0, pretend = 0, frame = 8
  30              		@ frame_needed = 0, uses_anonymous_args = 0
  31              		@ link register save eliminated.
  32 0000 82B0     		sub	sp, sp, #8
  33              	.LCFI0:
  34              		.cfi_def_cfa_offset 8
  35 0002 0190     		str	r0, [sp, #4]
  36 0004 0091     		str	r1, [sp, #0]
  37              		.loc 1 75 0
  38 0006 009B     		ldr	r3, [sp, #0]
  39 0008 1A68     		ldr	r2, [r3, #0]
  40 000a 019B     		ldr	r3, [sp, #4]
  41 000c 1A60     		str	r2, [r3, #0]
  42              		.loc 1 76 0
  43 000e 009B     		ldr	r3, [sp, #0]
  44 0010 5A68     		ldr	r2, [r3, #4]
  45 0012 019B     		ldr	r3, [sp, #4]
  46 0014 5A60     		str	r2, [r3, #4]
  47              		.loc 1 77 0
  48 0016 009B     		ldr	r3, [sp, #0]
  49 0018 9A68     		ldr	r2, [r3, #8]
  50 001a 019B     		ldr	r3, [sp, #4]
  51 001c 9A60     		str	r2, [r3, #8]
  52              		.loc 1 78 0
  53 001e 009B     		ldr	r3, [sp, #0]
  54 0020 DA68     		ldr	r2, [r3, #12]
  55 0022 019B     		ldr	r3, [sp, #4]
  56 0024 DA60     		str	r2, [r3, #12]
  57              		.loc 1 79 0
ARM GAS  /tmp/ccij3Jqw.s 			page 2


  58 0026 009B     		ldr	r3, [sp, #0]
  59 0028 1A69     		ldr	r2, [r3, #16]
  60 002a 019B     		ldr	r3, [sp, #4]
  61 002c 5A61     		str	r2, [r3, #20]
  62              		.loc 1 80 0
  63 002e 009B     		ldr	r3, [sp, #0]
  64 0030 5A69     		ldr	r2, [r3, #20]
  65 0032 019B     		ldr	r3, [sp, #4]
  66 0034 1A62     		str	r2, [r3, #32]
  67              		.loc 1 81 0
  68 0036 009B     		ldr	r3, [sp, #0]
  69 0038 9A69     		ldr	r2, [r3, #24]
  70 003a 019B     		ldr	r3, [sp, #4]
  71 003c 5A62     		str	r2, [r3, #36]
  72              		.loc 1 82 0
  73 003e 02B0     		add	sp, sp, #8
  74 0040 7047     		bx	lr
  75              		.cfi_endproc
  76              	.LFE63:
  77              		.size	initgpio, .-initgpio
  78              		.section	.text._pal_lld_init,"ax",%progbits
  79              		.align	2
  80              		.p2align 4,,15
  81              		.global	_pal_lld_init
  82              		.thumb
  83              		.thumb_func
  84              		.type	_pal_lld_init, %function
  85              	_pal_lld_init:
  86              	.LFB64:
  87              		.loc 1 100 0
  88              		.cfi_startproc
  89              		@ args = 0, pretend = 0, frame = 8
  90              		@ frame_needed = 0, uses_anonymous_args = 0
  91 0000 00B5     		push	{lr}
  92              	.LCFI1:
  93              		.cfi_def_cfa_offset 4
  94              		.cfi_offset 14, -4
  95 0002 83B0     		sub	sp, sp, #12
  96              	.LCFI2:
  97              		.cfi_def_cfa_offset 16
  98 0004 0190     		str	r0, [sp, #4]
  99              		.loc 1 111 0
 100 0006 4FF46053 		mov	r3, #14336
 101 000a C4F20203 		movt	r3, 16386
 102 000e 4FF46052 		mov	r2, #14336
 103 0012 C4F20202 		movt	r2, 16386
 104 0016 126B     		ldr	r2, [r2, #48]
 105 0018 6FEA5222 		mvn	r2, r2, lsr #9
 106 001c 6FEA4222 		mvn	r2, r2, lsl #9
 107 0020 1A63     		str	r2, [r3, #48]
 108              		.loc 1 112 0
 109 0022 4FF46053 		mov	r3, #14336
 110 0026 C4F20203 		movt	r3, 16386
 111 002a 4FF46052 		mov	r2, #14336
 112 002e C4F20202 		movt	r2, 16386
 113 0032 126D     		ldr	r2, [r2, #80]
 114 0034 6FEA5222 		mvn	r2, r2, lsr #9
ARM GAS  /tmp/ccij3Jqw.s 			page 3


 115 0038 6FEA4222 		mvn	r2, r2, lsl #9
 116 003c 1A65     		str	r2, [r3, #80]
 117              		.loc 1 118 0
 118 003e 019B     		ldr	r3, [sp, #4]
 119 0040 4FF00000 		mov	r0, #0
 120 0044 C4F20200 		movt	r0, 16386
 121 0048 1946     		mov	r1, r3
 122 004a FFF7FEFF 		bl	initgpio
 123              		.loc 1 119 0
 124 004e 019B     		ldr	r3, [sp, #4]
 125 0050 03F11C03 		add	r3, r3, #28
 126 0054 4FF48060 		mov	r0, #1024
 127 0058 C4F20200 		movt	r0, 16386
 128 005c 1946     		mov	r1, r3
 129 005e FFF7FEFF 		bl	initgpio
 130              		.loc 1 120 0
 131 0062 019B     		ldr	r3, [sp, #4]
 132 0064 03F13803 		add	r3, r3, #56
 133 0068 4FF40060 		mov	r0, #2048
 134 006c C4F20200 		movt	r0, 16386
 135 0070 1946     		mov	r1, r3
 136 0072 FFF7FEFF 		bl	initgpio
 137              		.loc 1 121 0
 138 0076 019B     		ldr	r3, [sp, #4]
 139 0078 03F15403 		add	r3, r3, #84
 140 007c 4FF44060 		mov	r0, #3072
 141 0080 C4F20200 		movt	r0, 16386
 142 0084 1946     		mov	r1, r3
 143 0086 FFF7FEFF 		bl	initgpio
 144              		.loc 1 123 0
 145 008a 019B     		ldr	r3, [sp, #4]
 146 008c 03F17003 		add	r3, r3, #112
 147 0090 4FF48050 		mov	r0, #4096
 148 0094 C4F20200 		movt	r0, 16386
 149 0098 1946     		mov	r1, r3
 150 009a FFF7FEFF 		bl	initgpio
 151              		.loc 1 126 0
 152 009e 019B     		ldr	r3, [sp, #4]
 153 00a0 03F18C03 		add	r3, r3, #140
 154 00a4 4FF4A050 		mov	r0, #5120
 155 00a8 C4F20200 		movt	r0, 16386
 156 00ac 1946     		mov	r1, r3
 157 00ae FFF7FEFF 		bl	initgpio
 158              		.loc 1 129 0
 159 00b2 019B     		ldr	r3, [sp, #4]
 160 00b4 03F1A803 		add	r3, r3, #168
 161 00b8 4FF4C050 		mov	r0, #6144
 162 00bc C4F20200 		movt	r0, 16386
 163 00c0 1946     		mov	r1, r3
 164 00c2 FFF7FEFF 		bl	initgpio
 165              		.loc 1 132 0
 166 00c6 019B     		ldr	r3, [sp, #4]
 167 00c8 03F1C403 		add	r3, r3, #196
 168 00cc 4FF4E050 		mov	r0, #7168
 169 00d0 C4F20200 		movt	r0, 16386
 170 00d4 1946     		mov	r1, r3
 171 00d6 FFF7FEFF 		bl	initgpio
ARM GAS  /tmp/ccij3Jqw.s 			page 4


 172              		.loc 1 135 0
 173 00da 019B     		ldr	r3, [sp, #4]
 174 00dc 03F1E003 		add	r3, r3, #224
 175 00e0 4FF40050 		mov	r0, #8192
 176 00e4 C4F20200 		movt	r0, 16386
 177 00e8 1946     		mov	r1, r3
 178 00ea FFF7FEFF 		bl	initgpio
 179              		.loc 1 137 0
 180 00ee 03B0     		add	sp, sp, #12
 181 00f0 00BD     		pop	{pc}
 182              		.cfi_endproc
 183              	.LFE64:
 184              		.size	_pal_lld_init, .-_pal_lld_init
 185 00f2 00BFAFF3 		.section	.text._pal_lld_setgroupmode,"ax",%progbits
 185      0080AFF3 
 185      0080AFF3 
 185      0080
 186              		.align	2
 187              		.p2align 4,,15
 188              		.global	_pal_lld_setgroupmode
 189              		.thumb
 190              		.thumb_func
 191              		.type	_pal_lld_setgroupmode, %function
 192              	_pal_lld_setgroupmode:
 193              	.LFB65:
 194              		.loc 1 155 0
 195              		.cfi_startproc
 196              		@ args = 0, pretend = 0, frame = 56
 197              		@ frame_needed = 0, uses_anonymous_args = 0
 198              		@ link register save eliminated.
 199 0000 8EB0     		sub	sp, sp, #56
 200              	.LCFI3:
 201              		.cfi_def_cfa_offset 56
 202 0002 0390     		str	r0, [sp, #12]
 203 0004 0291     		str	r1, [sp, #8]
 204 0006 0192     		str	r2, [sp, #4]
 205              		.loc 1 157 0
 206 0008 019B     		ldr	r3, [sp, #4]
 207 000a 03F00303 		and	r3, r3, #3
 208 000e 0D93     		str	r3, [sp, #52]
 209              		.loc 1 158 0
 210 0010 019B     		ldr	r3, [sp, #4]
 211 0012 03F00403 		and	r3, r3, #4
 212 0016 4FEA9303 		lsr	r3, r3, #2
 213 001a 0C93     		str	r3, [sp, #48]
 214              		.loc 1 159 0
 215 001c 019B     		ldr	r3, [sp, #4]
 216 001e 03F01803 		and	r3, r3, #24
 217 0022 4FEAD303 		lsr	r3, r3, #3
 218 0026 0B93     		str	r3, [sp, #44]
 219              		.loc 1 160 0
 220 0028 019B     		ldr	r3, [sp, #4]
 221 002a 03F06003 		and	r3, r3, #96
 222 002e 4FEA5313 		lsr	r3, r3, #5
 223 0032 0A93     		str	r3, [sp, #40]
 224              		.loc 1 161 0
 225 0034 019B     		ldr	r3, [sp, #4]
ARM GAS  /tmp/ccij3Jqw.s 			page 5


 226 0036 03F4F063 		and	r3, r3, #1920
 227 003a 4FEAD313 		lsr	r3, r3, #7
 228 003e 0893     		str	r3, [sp, #32]
 229              		.loc 1 162 0
 230 0040 4FF00003 		mov	r3, #0
 231 0044 0993     		str	r3, [sp, #36]
 232              	.L8:
 233              		.loc 1 164 0
 234 0046 029B     		ldr	r3, [sp, #8]
 235 0048 03F00103 		and	r3, r3, #1
 236 004c DBB2     		uxtb	r3, r3
 237 004e 002B     		cmp	r3, #0
 238 0050 66D0     		beq	.L4
 239              	.LBB2:
 240              		.loc 1 167 0
 241 0052 099B     		ldr	r3, [sp, #36]
 242 0054 03F00703 		and	r3, r3, #7
 243 0058 4FEA8303 		lsl	r3, r3, #2
 244 005c 089A     		ldr	r2, [sp, #32]
 245 005e 02FA03F3 		lsl	r3, r2, r3
 246 0062 0793     		str	r3, [sp, #28]
 247              		.loc 1 168 0
 248 0064 099B     		ldr	r3, [sp, #36]
 249 0066 03F00703 		and	r3, r3, #7
 250 006a 4FEA8303 		lsl	r3, r3, #2
 251 006e 4FF00F02 		mov	r2, #15
 252 0072 02FA03F3 		lsl	r3, r2, r3
 253 0076 0693     		str	r3, [sp, #24]
 254              		.loc 1 169 0
 255 0078 099B     		ldr	r3, [sp, #36]
 256 007a 072B     		cmp	r3, #7
 257 007c 0BD8     		bhi	.L5
 258              		.loc 1 170 0
 259 007e 039B     		ldr	r3, [sp, #12]
 260 0080 1B6A     		ldr	r3, [r3, #32]
 261 0082 1A46     		mov	r2, r3
 262 0084 069B     		ldr	r3, [sp, #24]
 263 0086 6FEA0303 		mvn	r3, r3
 264 008a 1A40     		ands	r2, r2, r3
 265 008c 079B     		ldr	r3, [sp, #28]
 266 008e 1A43     		orrs	r2, r2, r3
 267 0090 039B     		ldr	r3, [sp, #12]
 268 0092 1A62     		str	r2, [r3, #32]
 269 0094 0AE0     		b	.L6
 270              	.L5:
 271              		.loc 1 172 0
 272 0096 039B     		ldr	r3, [sp, #12]
 273 0098 5B6A     		ldr	r3, [r3, #36]
 274 009a 1A46     		mov	r2, r3
 275 009c 069B     		ldr	r3, [sp, #24]
 276 009e 6FEA0303 		mvn	r3, r3
 277 00a2 1A40     		ands	r2, r2, r3
 278 00a4 079B     		ldr	r3, [sp, #28]
 279 00a6 1A43     		orrs	r2, r2, r3
 280 00a8 039B     		ldr	r3, [sp, #12]
 281 00aa 5A62     		str	r2, [r3, #36]
 282              	.L6:
ARM GAS  /tmp/ccij3Jqw.s 			page 6


 283              		.loc 1 173 0
 284 00ac 099B     		ldr	r3, [sp, #36]
 285 00ae 4FF00102 		mov	r2, #1
 286 00b2 02FA03F3 		lsl	r3, r2, r3
 287 00b6 0593     		str	r3, [sp, #20]
 288              		.loc 1 174 0
 289 00b8 039B     		ldr	r3, [sp, #12]
 290 00ba 5B68     		ldr	r3, [r3, #4]
 291 00bc 1A46     		mov	r2, r3
 292 00be 059B     		ldr	r3, [sp, #20]
 293 00c0 6FEA0303 		mvn	r3, r3
 294 00c4 1A40     		ands	r2, r2, r3
 295 00c6 0C9B     		ldr	r3, [sp, #48]
 296 00c8 1A43     		orrs	r2, r2, r3
 297 00ca 039B     		ldr	r3, [sp, #12]
 298 00cc 5A60     		str	r2, [r3, #4]
 299              		.loc 1 175 0
 300 00ce 099B     		ldr	r3, [sp, #36]
 301 00d0 4FEA4303 		lsl	r3, r3, #1
 302 00d4 4FF00302 		mov	r2, #3
 303 00d8 02FA03F3 		lsl	r3, r2, r3
 304 00dc 0493     		str	r3, [sp, #16]
 305              		.loc 1 176 0
 306 00de 039B     		ldr	r3, [sp, #12]
 307 00e0 9B68     		ldr	r3, [r3, #8]
 308 00e2 1A46     		mov	r2, r3
 309 00e4 049B     		ldr	r3, [sp, #16]
 310 00e6 6FEA0303 		mvn	r3, r3
 311 00ea 1A40     		ands	r2, r2, r3
 312 00ec 0B9B     		ldr	r3, [sp, #44]
 313 00ee 1A43     		orrs	r2, r2, r3
 314 00f0 039B     		ldr	r3, [sp, #12]
 315 00f2 9A60     		str	r2, [r3, #8]
 316              		.loc 1 177 0
 317 00f4 039B     		ldr	r3, [sp, #12]
 318 00f6 DB68     		ldr	r3, [r3, #12]
 319 00f8 1A46     		mov	r2, r3
 320 00fa 049B     		ldr	r3, [sp, #16]
 321 00fc 6FEA0303 		mvn	r3, r3
 322 0100 1A40     		ands	r2, r2, r3
 323 0102 0A9B     		ldr	r3, [sp, #40]
 324 0104 1A43     		orrs	r2, r2, r3
 325 0106 039B     		ldr	r3, [sp, #12]
 326 0108 DA60     		str	r2, [r3, #12]
 327              		.loc 1 178 0
 328 010a 039B     		ldr	r3, [sp, #12]
 329 010c 1B68     		ldr	r3, [r3, #0]
 330 010e 1A46     		mov	r2, r3
 331 0110 049B     		ldr	r3, [sp, #16]
 332 0112 6FEA0303 		mvn	r3, r3
 333 0116 1A40     		ands	r2, r2, r3
 334 0118 0D9B     		ldr	r3, [sp, #52]
 335 011a 1A43     		orrs	r2, r2, r3
 336 011c 039B     		ldr	r3, [sp, #12]
 337 011e 1A60     		str	r2, [r3, #0]
 338              	.L4:
 339              	.LBE2:
ARM GAS  /tmp/ccij3Jqw.s 			page 7


 340              		.loc 1 180 0
 341 0120 029B     		ldr	r3, [sp, #8]
 342 0122 4FEA5303 		lsr	r3, r3, #1
 343 0126 0293     		str	r3, [sp, #8]
 344              		.loc 1 181 0
 345 0128 029B     		ldr	r3, [sp, #8]
 346 012a 002B     		cmp	r3, #0
 347 012c 14D0     		beq	.L10
 348              	.L7:
 349              		.loc 1 183 0
 350 012e 0C9B     		ldr	r3, [sp, #48]
 351 0130 4FEA4303 		lsl	r3, r3, #1
 352 0134 0C93     		str	r3, [sp, #48]
 353              		.loc 1 184 0
 354 0136 0B9B     		ldr	r3, [sp, #44]
 355 0138 4FEA8303 		lsl	r3, r3, #2
 356 013c 0B93     		str	r3, [sp, #44]
 357              		.loc 1 185 0
 358 013e 0A9B     		ldr	r3, [sp, #40]
 359 0140 4FEA8303 		lsl	r3, r3, #2
 360 0144 0A93     		str	r3, [sp, #40]
 361              		.loc 1 186 0
 362 0146 0D9B     		ldr	r3, [sp, #52]
 363 0148 4FEA8303 		lsl	r3, r3, #2
 364 014c 0D93     		str	r3, [sp, #52]
 365              		.loc 1 187 0
 366 014e 099B     		ldr	r3, [sp, #36]
 367 0150 03F10103 		add	r3, r3, #1
 368 0154 0993     		str	r3, [sp, #36]
 369              		.loc 1 188 0
 370 0156 76E7     		b	.L8
 371              	.L10:
 372              		.loc 1 182 0
 373 0158 00BF     		nop
 374              	.L9:
 375              		.loc 1 189 0
 376 015a 0EB0     		add	sp, sp, #56
 377 015c 7047     		bx	lr
 378              		.cfi_endproc
 379              	.LFE65:
 380              		.size	_pal_lld_setgroupmode, .-_pal_lld_setgroupmode
 381 015e 00BF     		.text
 382              	.Letext0:
 383              		.file 2 "/home/texzk/ChibiStudio/tools/GNU Tools ARM Embedded/4.6 2012q2/bin/../lib/gcc/arm-none-e
 384              		.file 3 "../../os/hal/platforms/STM32F2xx/stm32f2xx.h"
 385              		.file 4 "../../os/hal/platforms/STM32/GPIOv2/pal_lld.h"
 386              		.file 5 "../../os/ports/common/ARMCMx/CMSIS/include/core_cm3.h"