ARM GAS  /tmp/ccx9xId3.s 			page 1


   1              		.syntax unified
   2              		.cpu cortex-m3
   3              		.fpu softvfp
   4              		.eabi_attribute 20, 1
   5              		.eabi_attribute 21, 1
   6              		.eabi_attribute 23, 3
   7              		.eabi_attribute 24, 1
   8              		.eabi_attribute 25, 1
   9              		.eabi_attribute 26, 1
  10              		.eabi_attribute 30, 6
  11              		.eabi_attribute 34, 1
  12              		.eabi_attribute 18, 4
  13              		.thumb
  14              		.file	"raw.c"
  15              		.text
  16              	.Ltext0:
  17              		.cfi_sections	.debug_frame
  18              		.section	.bss.raw_pcbs,"aw",%nobits
  19              		.align	2
  20              		.type	raw_pcbs, %object
  21              		.size	raw_pcbs, 4
  22              	raw_pcbs:
  23 0000 00000000 		.space	4
  24              		.section	.text.raw_input,"ax",%progbits
  25              		.align	2
  26              		.p2align 4,,15
  27              		.global	raw_input
  28              		.thumb
  29              		.thumb_func
  30              		.type	raw_input, %function
  31              	raw_input:
  32              	.LFB7:
  33              		.file 1 "../../ext/lwip/src/core/raw.c"
  34              		.loc 1 77 0
  35              		.cfi_startproc
  36              		@ args = 0, pretend = 0, frame = 32
  37              		@ frame_needed = 0, uses_anonymous_args = 0
  38 0000 10B5     		push	{r4, lr}
  39              	.LCFI0:
  40              		.cfi_def_cfa_offset 8
  41              		.cfi_offset 14, -4
  42              		.cfi_offset 4, -8
  43 0002 88B0     		sub	sp, sp, #32
  44              	.LCFI1:
  45              		.cfi_def_cfa_offset 40
  46 0004 0190     		str	r0, [sp, #4]
  47 0006 0091     		str	r1, [sp, #0]
  48              		.loc 1 81 0
  49 0008 4FF00003 		mov	r3, #0
  50 000c 8DF81730 		strb	r3, [sp, #23]
  51              		.loc 1 85 0
  52 0010 019B     		ldr	r3, [sp, #4]
  53 0012 5B68     		ldr	r3, [r3, #4]
  54 0014 0493     		str	r3, [sp, #16]
  55              		.loc 1 86 0
  56 0016 049B     		ldr	r3, [sp, #16]
  57 0018 5B7A     		ldrb	r3, [r3, #9]	@ zero_extendqisi2
ARM GAS  /tmp/ccx9xId3.s 			page 2


  58 001a ADF80E30 		strh	r3, [sp, #14]	@ movhi
  59              		.loc 1 88 0
  60 001e 4FF00003 		mov	r3, #0
  61 0022 0693     		str	r3, [sp, #24]
  62              		.loc 1 89 0
  63 0024 40F20003 		movw	r3, #:lower16:raw_pcbs
  64 0028 C0F20003 		movt	r3, #:upper16:raw_pcbs
  65 002c 1B68     		ldr	r3, [r3, #0]
  66 002e 0793     		str	r3, [sp, #28]
  67              		.loc 1 92 0
  68 0030 49E0     		b	.L2
  69              	.L6:
  70              		.loc 1 93 0
  71 0032 079B     		ldr	r3, [sp, #28]
  72 0034 1B7C     		ldrb	r3, [r3, #16]	@ zero_extendqisi2
  73 0036 1A46     		mov	r2, r3
  74 0038 BDF90E30 		ldrsh	r3, [sp, #14]
  75 003c 9A42     		cmp	r2, r3
  76 003e 3DD1     		bne	.L3
  77              		.loc 1 94 0 discriminator 1
  78 0040 079B     		ldr	r3, [sp, #28]
  79              		.loc 1 93 0 discriminator 1
  80 0042 002B     		cmp	r3, #0
  81 0044 0CD0     		beq	.L4
  82              		.loc 1 94 0
  83 0046 079B     		ldr	r3, [sp, #28]
  84 0048 1B68     		ldr	r3, [r3, #0]
  85 004a 002B     		cmp	r3, #0
  86 004c 08D0     		beq	.L4
  87              		.loc 1 95 0 discriminator 1
  88 004e 079B     		ldr	r3, [sp, #28]
  89 0050 1A68     		ldr	r2, [r3, #0]
  90 0052 40F20003 		movw	r3, #:lower16:current_iphdr_dest
  91 0056 C0F20003 		movt	r3, #:upper16:current_iphdr_dest
  92 005a 1B68     		ldr	r3, [r3, #0]
  93              		.loc 1 94 0 discriminator 1
  94 005c 9A42     		cmp	r2, r3
  95 005e 2DD1     		bne	.L3
  96              	.L4:
  97              		.loc 1 102 0
  98 0060 079B     		ldr	r3, [sp, #28]
  99 0062 5B69     		ldr	r3, [r3, #20]
 100 0064 002B     		cmp	r3, #0
 101 0066 29D0     		beq	.L3
 102              		.loc 1 104 0
 103 0068 079B     		ldr	r3, [sp, #28]
 104 006a 5C69     		ldr	r4, [r3, #20]
 105 006c 079B     		ldr	r3, [sp, #28]
 106 006e 9B69     		ldr	r3, [r3, #24]
 107 0070 1846     		mov	r0, r3
 108 0072 0799     		ldr	r1, [sp, #28]
 109 0074 019A     		ldr	r2, [sp, #4]
 110 0076 40F20003 		movw	r3, #:lower16:current_iphdr_src
 111 007a C0F20003 		movt	r3, #:upper16:current_iphdr_src
 112 007e A047     		blx	r4
 113 0080 0346     		mov	r3, r0
 114 0082 002B     		cmp	r3, #0
ARM GAS  /tmp/ccx9xId3.s 			page 3


 115 0084 1AD0     		beq	.L3
 116              		.loc 1 106 0
 117 0086 4FF00003 		mov	r3, #0
 118 008a 0193     		str	r3, [sp, #4]
 119              		.loc 1 107 0
 120 008c 4FF00103 		mov	r3, #1
 121 0090 8DF81730 		strb	r3, [sp, #23]
 122              		.loc 1 108 0
 123 0094 069B     		ldr	r3, [sp, #24]
 124 0096 002B     		cmp	r3, #0
 125 0098 10D0     		beq	.L3
 126              		.loc 1 111 0
 127 009a 079B     		ldr	r3, [sp, #28]
 128 009c DA68     		ldr	r2, [r3, #12]
 129 009e 069B     		ldr	r3, [sp, #24]
 130 00a0 DA60     		str	r2, [r3, #12]
 131              		.loc 1 112 0
 132 00a2 40F20003 		movw	r3, #:lower16:raw_pcbs
 133 00a6 C0F20003 		movt	r3, #:upper16:raw_pcbs
 134 00aa 1A68     		ldr	r2, [r3, #0]
 135 00ac 079B     		ldr	r3, [sp, #28]
 136 00ae DA60     		str	r2, [r3, #12]
 137              		.loc 1 113 0
 138 00b0 40F20003 		movw	r3, #:lower16:raw_pcbs
 139 00b4 C0F20003 		movt	r3, #:upper16:raw_pcbs
 140 00b8 079A     		ldr	r2, [sp, #28]
 141 00ba 1A60     		str	r2, [r3, #0]
 142              	.L3:
 143              		.loc 1 121 0
 144 00bc 079B     		ldr	r3, [sp, #28]
 145 00be 0693     		str	r3, [sp, #24]
 146              		.loc 1 122 0
 147 00c0 079B     		ldr	r3, [sp, #28]
 148 00c2 DB68     		ldr	r3, [r3, #12]
 149 00c4 0793     		str	r3, [sp, #28]
 150              	.L2:
 151              		.loc 1 92 0 discriminator 1
 152 00c6 9DF81730 		ldrb	r3, [sp, #23]	@ zero_extendqisi2
 153 00ca 002B     		cmp	r3, #0
 154 00cc 02D1     		bne	.L5
 155              		.loc 1 92 0 is_stmt 0 discriminator 2
 156 00ce 079B     		ldr	r3, [sp, #28]
 157 00d0 002B     		cmp	r3, #0
 158 00d2 AED1     		bne	.L6
 159              	.L5:
 160              		.loc 1 124 0 is_stmt 1
 161 00d4 9DF81730 		ldrb	r3, [sp, #23]	@ zero_extendqisi2
 162              		.loc 1 125 0
 163 00d8 1846     		mov	r0, r3
 164 00da 08B0     		add	sp, sp, #32
 165 00dc 10BD     		pop	{r4, pc}
 166              		.cfi_endproc
 167              	.LFE7:
 168              		.size	raw_input, .-raw_input
 169 00de 00BF     		.section	.text.raw_bind,"ax",%progbits
 170              		.align	2
 171              		.p2align 4,,15
ARM GAS  /tmp/ccx9xId3.s 			page 4


 172              		.global	raw_bind
 173              		.thumb
 174              		.thumb_func
 175              		.type	raw_bind, %function
 176              	raw_bind:
 177              	.LFB8:
 178              		.loc 1 143 0
 179              		.cfi_startproc
 180              		@ args = 0, pretend = 0, frame = 8
 181              		@ frame_needed = 0, uses_anonymous_args = 0
 182              		@ link register save eliminated.
 183 0000 82B0     		sub	sp, sp, #8
 184              	.LCFI2:
 185              		.cfi_def_cfa_offset 8
 186 0002 0190     		str	r0, [sp, #4]
 187 0004 0091     		str	r1, [sp, #0]
 188              		.loc 1 144 0
 189 0006 009B     		ldr	r3, [sp, #0]
 190 0008 002B     		cmp	r3, #0
 191 000a 02D0     		beq	.L8
 192              		.loc 1 144 0 is_stmt 0 discriminator 1
 193 000c 009B     		ldr	r3, [sp, #0]
 194 000e 1B68     		ldr	r3, [r3, #0]
 195 0010 01E0     		b	.L9
 196              	.L8:
 197              		.loc 1 144 0 discriminator 2
 198 0012 4FF00003 		mov	r3, #0
 199              	.L9:
 200              		.loc 1 144 0 discriminator 3
 201 0016 019A     		ldr	r2, [sp, #4]
 202 0018 1360     		str	r3, [r2, #0]
 203              		.loc 1 145 0 is_stmt 1 discriminator 3
 204 001a 4FF00003 		mov	r3, #0
 205 001e 5BB2     		sxtb	r3, r3
 206              		.loc 1 146 0 discriminator 3
 207 0020 1846     		mov	r0, r3
 208 0022 02B0     		add	sp, sp, #8
 209 0024 7047     		bx	lr
 210              		.cfi_endproc
 211              	.LFE8:
 212              		.size	raw_bind, .-raw_bind
 213 0026 00BFAFF3 		.section	.text.raw_connect,"ax",%progbits
 213      0080AFF3 
 213      0080
 214              		.align	2
 215              		.p2align 4,,15
 216              		.global	raw_connect
 217              		.thumb
 218              		.thumb_func
 219              		.type	raw_connect, %function
 220              	raw_connect:
 221              	.LFB9:
 222              		.loc 1 163 0
 223              		.cfi_startproc
 224              		@ args = 0, pretend = 0, frame = 8
 225              		@ frame_needed = 0, uses_anonymous_args = 0
 226              		@ link register save eliminated.
ARM GAS  /tmp/ccx9xId3.s 			page 5


 227 0000 82B0     		sub	sp, sp, #8
 228              	.LCFI3:
 229              		.cfi_def_cfa_offset 8
 230 0002 0190     		str	r0, [sp, #4]
 231 0004 0091     		str	r1, [sp, #0]
 232              		.loc 1 164 0
 233 0006 009B     		ldr	r3, [sp, #0]
 234 0008 002B     		cmp	r3, #0
 235 000a 02D0     		beq	.L11
 236              		.loc 1 164 0 is_stmt 0 discriminator 1
 237 000c 009B     		ldr	r3, [sp, #0]
 238 000e 1B68     		ldr	r3, [r3, #0]
 239 0010 01E0     		b	.L12
 240              	.L11:
 241              		.loc 1 164 0 discriminator 2
 242 0012 4FF00003 		mov	r3, #0
 243              	.L12:
 244              		.loc 1 164 0 discriminator 3
 245 0016 019A     		ldr	r2, [sp, #4]
 246 0018 5360     		str	r3, [r2, #4]
 247              		.loc 1 165 0 is_stmt 1 discriminator 3
 248 001a 4FF00003 		mov	r3, #0
 249 001e 5BB2     		sxtb	r3, r3
 250              		.loc 1 166 0 discriminator 3
 251 0020 1846     		mov	r0, r3
 252 0022 02B0     		add	sp, sp, #8
 253 0024 7047     		bx	lr
 254              		.cfi_endproc
 255              	.LFE9:
 256              		.size	raw_connect, .-raw_connect
 257 0026 00BFAFF3 		.section	.text.raw_recv,"ax",%progbits
 257      0080AFF3 
 257      0080
 258              		.align	2
 259              		.p2align 4,,15
 260              		.global	raw_recv
 261              		.thumb
 262              		.thumb_func
 263              		.type	raw_recv, %function
 264              	raw_recv:
 265              	.LFB10:
 266              		.loc 1 184 0
 267              		.cfi_startproc
 268              		@ args = 0, pretend = 0, frame = 16
 269              		@ frame_needed = 0, uses_anonymous_args = 0
 270              		@ link register save eliminated.
 271 0000 84B0     		sub	sp, sp, #16
 272              	.LCFI4:
 273              		.cfi_def_cfa_offset 16
 274 0002 0390     		str	r0, [sp, #12]
 275 0004 0291     		str	r1, [sp, #8]
 276 0006 0192     		str	r2, [sp, #4]
 277              		.loc 1 186 0
 278 0008 039B     		ldr	r3, [sp, #12]
 279 000a 029A     		ldr	r2, [sp, #8]
 280 000c 5A61     		str	r2, [r3, #20]
 281              		.loc 1 187 0
ARM GAS  /tmp/ccx9xId3.s 			page 6


 282 000e 039B     		ldr	r3, [sp, #12]
 283 0010 019A     		ldr	r2, [sp, #4]
 284 0012 9A61     		str	r2, [r3, #24]
 285              		.loc 1 188 0
 286 0014 04B0     		add	sp, sp, #16
 287 0016 7047     		bx	lr
 288              		.cfi_endproc
 289              	.LFE10:
 290              		.size	raw_recv, .-raw_recv
 291 0018 AFF30080 		.section	.text.raw_sendto,"ax",%progbits
 291      AFF30080 
 292              		.align	2
 293              		.p2align 4,,15
 294              		.global	raw_sendto
 295              		.thumb
 296              		.thumb_func
 297              		.type	raw_sendto, %function
 298              	raw_sendto:
 299              	.LFB11:
 300              		.loc 1 204 0
 301              		.cfi_startproc
 302              		@ args = 0, pretend = 0, frame = 32
 303              		@ frame_needed = 0, uses_anonymous_args = 0
 304 0000 00B5     		push	{lr}
 305              	.LCFI5:
 306              		.cfi_def_cfa_offset 4
 307              		.cfi_offset 14, -4
 308 0002 8DB0     		sub	sp, sp, #52
 309              	.LCFI6:
 310              		.cfi_def_cfa_offset 56
 311 0004 0790     		str	r0, [sp, #28]
 312 0006 0691     		str	r1, [sp, #24]
 313 0008 0592     		str	r2, [sp, #20]
 314              		.loc 1 213 0
 315 000a 0698     		ldr	r0, [sp, #24]
 316 000c 4FF01401 		mov	r1, #20
 317 0010 FFF7FEFF 		bl	pbuf_header
 318 0014 0346     		mov	r3, r0
 319 0016 002B     		cmp	r3, #0
 320 0018 18D0     		beq	.L15
 321              		.loc 1 215 0
 322 001a 4FF00100 		mov	r0, #1
 323 001e 4FF00001 		mov	r1, #0
 324 0022 4FF00002 		mov	r2, #0
 325 0026 FFF7FEFF 		bl	pbuf_alloc
 326 002a 0346     		mov	r3, r0
 327 002c 0A93     		str	r3, [sp, #40]
 328              		.loc 1 217 0
 329 002e 0A9B     		ldr	r3, [sp, #40]
 330 0030 002B     		cmp	r3, #0
 331 0032 02D1     		bne	.L16
 332              		.loc 1 219 0
 333 0034 4FF0FF03 		mov	r3, #255
 334 0038 52E0     		b	.L17
 335              	.L16:
 336              		.loc 1 221 0
 337 003a 069B     		ldr	r3, [sp, #24]
ARM GAS  /tmp/ccx9xId3.s 			page 7


 338 003c 1B89     		ldrh	r3, [r3, #8]
 339 003e 002B     		cmp	r3, #0
 340 0040 13D0     		beq	.L18
 341              		.loc 1 223 0
 342 0042 0A98     		ldr	r0, [sp, #40]
 343 0044 0699     		ldr	r1, [sp, #24]
 344 0046 FFF7FEFF 		bl	pbuf_chain
 345 004a 0EE0     		b	.L18
 346              	.L15:
 347              		.loc 1 229 0
 348 004c 069B     		ldr	r3, [sp, #24]
 349 004e 0A93     		str	r3, [sp, #40]
 350              		.loc 1 230 0
 351 0050 0A98     		ldr	r0, [sp, #40]
 352 0052 6FF01301 		mvn	r1, #19
 353 0056 FFF7FEFF 		bl	pbuf_header
 354 005a 0346     		mov	r3, r0
 355 005c 002B     		cmp	r3, #0
 356 005e 04D0     		beq	.L18
 357              		.loc 1 231 0 discriminator 1
 358 0060 FFF7FEFF 		bl	port_halt
 359              		.loc 1 232 0 discriminator 1
 360 0064 4FF0FF03 		mov	r3, #255
 361 0068 3AE0     		b	.L17
 362              	.L18:
 363              		.loc 1 236 0
 364 006a 0598     		ldr	r0, [sp, #20]
 365 006c FFF7FEFF 		bl	ip_route
 366 0070 0346     		mov	r3, r0
 367 0072 0993     		str	r3, [sp, #36]
 368 0074 099B     		ldr	r3, [sp, #36]
 369 0076 002B     		cmp	r3, #0
 370 0078 09D1     		bne	.L19
 371              		.loc 1 240 0
 372 007a 0A9A     		ldr	r2, [sp, #40]
 373 007c 069B     		ldr	r3, [sp, #24]
 374 007e 9A42     		cmp	r2, r3
 375 0080 02D0     		beq	.L20
 376              		.loc 1 241 0
 377 0082 0A98     		ldr	r0, [sp, #40]
 378 0084 FFF7FEFF 		bl	pbuf_free
 379              	.L20:
 380              		.loc 1 243 0
 381 0088 4FF0FC03 		mov	r3, #252
 382 008c 28E0     		b	.L17
 383              	.L19:
 384              		.loc 1 258 0
 385 008e 079B     		ldr	r3, [sp, #28]
 386 0090 002B     		cmp	r3, #0
 387 0092 03D0     		beq	.L21
 388              		.loc 1 258 0 is_stmt 0 discriminator 1
 389 0094 079B     		ldr	r3, [sp, #28]
 390 0096 1B68     		ldr	r3, [r3, #0]
 391 0098 002B     		cmp	r3, #0
 392 009a 04D1     		bne	.L22
 393              	.L21:
 394              		.loc 1 260 0 is_stmt 1
ARM GAS  /tmp/ccx9xId3.s 			page 8


 395 009c 099B     		ldr	r3, [sp, #36]
 396 009e 03F10403 		add	r3, r3, #4
 397 00a2 0B93     		str	r3, [sp, #44]
 398 00a4 01E0     		b	.L23
 399              	.L22:
 400              		.loc 1 263 0
 401 00a6 079B     		ldr	r3, [sp, #28]
 402 00a8 0B93     		str	r3, [sp, #44]
 403              	.L23:
 404              		.loc 1 269 0
 405 00aa 079B     		ldr	r3, [sp, #28]
 406 00ac 9B7A     		ldrb	r3, [r3, #10]	@ zero_extendqisi2
 407 00ae 079A     		ldr	r2, [sp, #28]
 408 00b0 517A     		ldrb	r1, [r2, #9]	@ zero_extendqisi2
 409 00b2 079A     		ldr	r2, [sp, #28]
 410 00b4 127C     		ldrb	r2, [r2, #16]	@ zero_extendqisi2
 411 00b6 0091     		str	r1, [sp, #0]
 412 00b8 0192     		str	r2, [sp, #4]
 413 00ba 099A     		ldr	r2, [sp, #36]
 414 00bc 0292     		str	r2, [sp, #8]
 415 00be 0A98     		ldr	r0, [sp, #40]
 416 00c0 0B99     		ldr	r1, [sp, #44]
 417 00c2 059A     		ldr	r2, [sp, #20]
 418 00c4 FFF7FEFF 		bl	ip_output_if
 419 00c8 0346     		mov	r3, r0
 420 00ca 8DF82330 		strb	r3, [sp, #35]
 421              		.loc 1 275 0
 422 00ce 0A9A     		ldr	r2, [sp, #40]
 423 00d0 069B     		ldr	r3, [sp, #24]
 424 00d2 9A42     		cmp	r2, r3
 425 00d4 02D0     		beq	.L24
 426              		.loc 1 277 0
 427 00d6 0A98     		ldr	r0, [sp, #40]
 428 00d8 FFF7FEFF 		bl	pbuf_free
 429              	.L24:
 430              		.loc 1 279 0
 431 00dc 9DF82330 		ldrb	r3, [sp, #35]	@ zero_extendqisi2
 432              	.L17:
 433 00e0 5BB2     		sxtb	r3, r3
 434              		.loc 1 280 0
 435 00e2 1846     		mov	r0, r3
 436 00e4 0DB0     		add	sp, sp, #52
 437 00e6 00BD     		pop	{pc}
 438              		.cfi_endproc
 439              	.LFE11:
 440              		.size	raw_sendto, .-raw_sendto
 441 00e8 AFF30080 		.section	.text.raw_send,"ax",%progbits
 441      AFF30080 
 442              		.align	2
 443              		.p2align 4,,15
 444              		.global	raw_send
 445              		.thumb
 446              		.thumb_func
 447              		.type	raw_send, %function
 448              	raw_send:
 449              	.LFB12:
 450              		.loc 1 291 0
ARM GAS  /tmp/ccx9xId3.s 			page 9


 451              		.cfi_startproc
 452              		@ args = 0, pretend = 0, frame = 8
 453              		@ frame_needed = 0, uses_anonymous_args = 0
 454 0000 00B5     		push	{lr}
 455              	.LCFI7:
 456              		.cfi_def_cfa_offset 4
 457              		.cfi_offset 14, -4
 458 0002 83B0     		sub	sp, sp, #12
 459              	.LCFI8:
 460              		.cfi_def_cfa_offset 16
 461 0004 0190     		str	r0, [sp, #4]
 462 0006 0091     		str	r1, [sp, #0]
 463              		.loc 1 292 0
 464 0008 019B     		ldr	r3, [sp, #4]
 465 000a 03F10403 		add	r3, r3, #4
 466 000e 0198     		ldr	r0, [sp, #4]
 467 0010 0099     		ldr	r1, [sp, #0]
 468 0012 1A46     		mov	r2, r3
 469 0014 FFF7FEFF 		bl	raw_sendto
 470 0018 0346     		mov	r3, r0
 471              		.loc 1 293 0
 472 001a 1846     		mov	r0, r3
 473 001c 03B0     		add	sp, sp, #12
 474 001e 00BD     		pop	{pc}
 475              		.cfi_endproc
 476              	.LFE12:
 477              		.size	raw_send, .-raw_send
 478              		.section	.text.raw_remove,"ax",%progbits
 479              		.align	2
 480              		.p2align 4,,15
 481              		.global	raw_remove
 482              		.thumb
 483              		.thumb_func
 484              		.type	raw_remove, %function
 485              	raw_remove:
 486              	.LFB13:
 487              		.loc 1 305 0
 488              		.cfi_startproc
 489              		@ args = 0, pretend = 0, frame = 16
 490              		@ frame_needed = 0, uses_anonymous_args = 0
 491 0000 00B5     		push	{lr}
 492              	.LCFI9:
 493              		.cfi_def_cfa_offset 4
 494              		.cfi_offset 14, -4
 495 0002 85B0     		sub	sp, sp, #20
 496              	.LCFI10:
 497              		.cfi_def_cfa_offset 24
 498 0004 0190     		str	r0, [sp, #4]
 499              		.loc 1 308 0
 500 0006 40F20003 		movw	r3, #:lower16:raw_pcbs
 501 000a C0F20003 		movt	r3, #:upper16:raw_pcbs
 502 000e 1A68     		ldr	r2, [r3, #0]
 503 0010 019B     		ldr	r3, [sp, #4]
 504 0012 9A42     		cmp	r2, r3
 505 0014 0BD1     		bne	.L27
 506              		.loc 1 310 0
 507 0016 40F20003 		movw	r3, #:lower16:raw_pcbs
ARM GAS  /tmp/ccx9xId3.s 			page 10


 508 001a C0F20003 		movt	r3, #:upper16:raw_pcbs
 509 001e 1B68     		ldr	r3, [r3, #0]
 510 0020 DA68     		ldr	r2, [r3, #12]
 511 0022 40F20003 		movw	r3, #:lower16:raw_pcbs
 512 0026 C0F20003 		movt	r3, #:upper16:raw_pcbs
 513 002a 1A60     		str	r2, [r3, #0]
 514 002c 19E0     		b	.L28
 515              	.L27:
 516              		.loc 1 313 0
 517 002e 40F20003 		movw	r3, #:lower16:raw_pcbs
 518 0032 C0F20003 		movt	r3, #:upper16:raw_pcbs
 519 0036 1B68     		ldr	r3, [r3, #0]
 520 0038 0393     		str	r3, [sp, #12]
 521 003a 0FE0     		b	.L29
 522              	.L31:
 523              		.loc 1 315 0
 524 003c 039B     		ldr	r3, [sp, #12]
 525 003e DB68     		ldr	r3, [r3, #12]
 526 0040 002B     		cmp	r3, #0
 527 0042 08D0     		beq	.L30
 528              		.loc 1 315 0 is_stmt 0 discriminator 1
 529 0044 039B     		ldr	r3, [sp, #12]
 530 0046 DA68     		ldr	r2, [r3, #12]
 531 0048 019B     		ldr	r3, [sp, #4]
 532 004a 9A42     		cmp	r2, r3
 533 004c 03D1     		bne	.L30
 534              		.loc 1 317 0 is_stmt 1
 535 004e 019B     		ldr	r3, [sp, #4]
 536 0050 DA68     		ldr	r2, [r3, #12]
 537 0052 039B     		ldr	r3, [sp, #12]
 538 0054 DA60     		str	r2, [r3, #12]
 539              	.L30:
 540              		.loc 1 313 0
 541 0056 039B     		ldr	r3, [sp, #12]
 542 0058 DB68     		ldr	r3, [r3, #12]
 543 005a 0393     		str	r3, [sp, #12]
 544              	.L29:
 545              		.loc 1 313 0 is_stmt 0 discriminator 1
 546 005c 039B     		ldr	r3, [sp, #12]
 547 005e 002B     		cmp	r3, #0
 548 0060 ECD1     		bne	.L31
 549              	.L28:
 550              		.loc 1 321 0 is_stmt 1
 551 0062 4FF00000 		mov	r0, #0
 552 0066 0199     		ldr	r1, [sp, #4]
 553 0068 FFF7FEFF 		bl	memp_free
 554              		.loc 1 322 0
 555 006c 05B0     		add	sp, sp, #20
 556 006e 00BD     		pop	{pc}
 557              		.cfi_endproc
 558              	.LFE13:
 559              		.size	raw_remove, .-raw_remove
 560              		.section	.text.raw_new,"ax",%progbits
 561              		.align	2
 562              		.p2align 4,,15
 563              		.global	raw_new
 564              		.thumb
ARM GAS  /tmp/ccx9xId3.s 			page 11


 565              		.thumb_func
 566              		.type	raw_new, %function
 567              	raw_new:
 568              	.LFB14:
 569              		.loc 1 336 0
 570              		.cfi_startproc
 571              		@ args = 0, pretend = 0, frame = 16
 572              		@ frame_needed = 0, uses_anonymous_args = 0
 573 0000 00B5     		push	{lr}
 574              	.LCFI11:
 575              		.cfi_def_cfa_offset 4
 576              		.cfi_offset 14, -4
 577 0002 85B0     		sub	sp, sp, #20
 578              	.LCFI12:
 579              		.cfi_def_cfa_offset 24
 580 0004 0346     		mov	r3, r0
 581 0006 8DF80730 		strb	r3, [sp, #7]
 582              		.loc 1 341 0
 583 000a 4FF00000 		mov	r0, #0
 584 000e FFF7FEFF 		bl	memp_malloc
 585 0012 0346     		mov	r3, r0
 586 0014 0393     		str	r3, [sp, #12]
 587              		.loc 1 343 0
 588 0016 039B     		ldr	r3, [sp, #12]
 589 0018 002B     		cmp	r3, #0
 590 001a 1ED0     		beq	.L33
 591              		.loc 1 345 0
 592 001c 039B     		ldr	r3, [sp, #12]
 593 001e 1A46     		mov	r2, r3
 594 0020 4FF01C03 		mov	r3, #28
 595 0024 1046     		mov	r0, r2
 596 0026 4FF00001 		mov	r1, #0
 597 002a 1A46     		mov	r2, r3
 598 002c FFF7FEFF 		bl	memset
 599              		.loc 1 346 0
 600 0030 039B     		ldr	r3, [sp, #12]
 601 0032 9DF80720 		ldrb	r2, [sp, #7]
 602 0036 1A74     		strb	r2, [r3, #16]
 603              		.loc 1 347 0
 604 0038 039B     		ldr	r3, [sp, #12]
 605 003a 4FF0FF02 		mov	r2, #255
 606 003e 9A72     		strb	r2, [r3, #10]
 607              		.loc 1 348 0
 608 0040 40F20003 		movw	r3, #:lower16:raw_pcbs
 609 0044 C0F20003 		movt	r3, #:upper16:raw_pcbs
 610 0048 1A68     		ldr	r2, [r3, #0]
 611 004a 039B     		ldr	r3, [sp, #12]
 612 004c DA60     		str	r2, [r3, #12]
 613              		.loc 1 349 0
 614 004e 40F20003 		movw	r3, #:lower16:raw_pcbs
 615 0052 C0F20003 		movt	r3, #:upper16:raw_pcbs
 616 0056 039A     		ldr	r2, [sp, #12]
 617 0058 1A60     		str	r2, [r3, #0]
 618              	.L33:
 619              		.loc 1 351 0
 620 005a 039B     		ldr	r3, [sp, #12]
 621              		.loc 1 352 0
ARM GAS  /tmp/ccx9xId3.s 			page 12


 622 005c 1846     		mov	r0, r3
 623 005e 05B0     		add	sp, sp, #20
 624 0060 00BD     		pop	{pc}
 625              		.cfi_endproc
 626              	.LFE14:
 627              		.size	raw_new, .-raw_new
 628 0062 00BFAFF3 		.text
 628      0080AFF3 
 628      0080AFF3 
 628      0080
 629              	.Letext0:
 630              		.file 2 "/home/texzk/ChibiStudio/tools/GNU Tools ARM Embedded/4.6 2012q2/bin/../lib/gcc/arm-none-e
 631              		.file 3 "../../os/various/lwip_bindings/arch/cc.h"
 632              		.file 4 "../../ext/lwip/src/include/ipv4/lwip/ip_addr.h"
 633              		.file 5 "../../ext/lwip/src/include/lwip/err.h"
 634              		.file 6 "../../ext/lwip/src/include/lwip/memp.h"
 635              		.file 7 "../../ext/lwip/src/include/lwip/pbuf.h"
 636              		.file 8 "../../ext/lwip/src/include/lwip/netif.h"
 637              		.file 9 "../../ext/lwip/src/include/ipv4/lwip/ip.h"
 638              		.file 10 "../../ext/lwip/src/include/lwip/raw.h"
 639              		.section	.debug_info,"",%progbits
 640              	.Ldebug_info0:
 641 0000 C1070000 		.4byte	0x7c1
 642 0004 0200     		.2byte	0x2
 643 0006 00000000 		.4byte	.Ldebug_abbrev0
 644 000a 04       		.byte	0x4
 645 000b 01       		.uleb128 0x1
 646 000c 18010000 		.4byte	.LASF101
 647 0010 01       		.byte	0x1
 648 0011 71000000 		.4byte	.LASF102
 649 0015 98030000 		.4byte	.LASF103
 650 0019 00000000 		.4byte	0
 651 001d 00000000 		.4byte	0
 652 0021 00000000 		.4byte	.Ldebug_ranges0+0
 653 0025 00000000 		.4byte	.Ldebug_line0
 654 0029 02       		.uleb128 0x2
 655 002a 04       		.byte	0x4
 656 002b 05       		.byte	0x5
 657 002c 696E7400 		.ascii	"int\000"
 658 0030 03       		.uleb128 0x3
 659 0031 04       		.byte	0x4
 660 0032 07       		.byte	0x7
 661 0033 84020000 		.4byte	.LASF0
 662 0037 04       		.uleb128 0x4
 663 0038 18000000 		.4byte	.LASF2
 664 003c 02       		.byte	0x2
 665 003d 29       		.byte	0x29
 666 003e 42000000 		.4byte	0x42
 667 0042 03       		.uleb128 0x3
 668 0043 01       		.byte	0x1
 669 0044 06       		.byte	0x6
 670 0045 7C010000 		.4byte	.LASF1
 671 0049 04       		.uleb128 0x4
 672 004a EB030000 		.4byte	.LASF3
 673 004e 02       		.byte	0x2
 674 004f 2A       		.byte	0x2a
 675 0050 54000000 		.4byte	0x54
ARM GAS  /tmp/ccx9xId3.s 			page 13


 676 0054 03       		.uleb128 0x3
 677 0055 01       		.byte	0x1
 678 0056 08       		.byte	0x8
 679 0057 13020000 		.4byte	.LASF4
 680 005b 04       		.uleb128 0x4
 681 005c 21030000 		.4byte	.LASF5
 682 0060 02       		.byte	0x2
 683 0061 35       		.byte	0x35
 684 0062 66000000 		.4byte	0x66
 685 0066 03       		.uleb128 0x3
 686 0067 02       		.byte	0x2
 687 0068 05       		.byte	0x5
 688 0069 3C000000 		.4byte	.LASF6
 689 006d 04       		.uleb128 0x4
 690 006e 91020000 		.4byte	.LASF7
 691 0072 02       		.byte	0x2
 692 0073 36       		.byte	0x36
 693 0074 78000000 		.4byte	0x78
 694 0078 03       		.uleb128 0x3
 695 0079 02       		.byte	0x2
 696 007a 07       		.byte	0x7
 697 007b 03030000 		.4byte	.LASF8
 698 007f 03       		.uleb128 0x3
 699 0080 04       		.byte	0x4
 700 0081 05       		.byte	0x5
 701 0082 DD010000 		.4byte	.LASF9
 702 0086 04       		.uleb128 0x4
 703 0087 7B020000 		.4byte	.LASF10
 704 008b 02       		.byte	0x2
 705 008c 50       		.byte	0x50
 706 008d 91000000 		.4byte	0x91
 707 0091 03       		.uleb128 0x3
 708 0092 04       		.byte	0x4
 709 0093 07       		.byte	0x7
 710 0094 53030000 		.4byte	.LASF11
 711 0098 03       		.uleb128 0x3
 712 0099 08       		.byte	0x8
 713 009a 05       		.byte	0x5
 714 009b B4010000 		.4byte	.LASF12
 715 009f 03       		.uleb128 0x3
 716 00a0 08       		.byte	0x8
 717 00a1 07       		.byte	0x7
 718 00a2 64020000 		.4byte	.LASF13
 719 00a6 05       		.uleb128 0x5
 720 00a7 04       		.byte	0x4
 721 00a8 03       		.uleb128 0x3
 722 00a9 01       		.byte	0x1
 723 00aa 08       		.byte	0x8
 724 00ab D6020000 		.4byte	.LASF14
 725 00af 04       		.uleb128 0x4
 726 00b0 05000000 		.4byte	.LASF15
 727 00b4 03       		.byte	0x3
 728 00b5 3C       		.byte	0x3c
 729 00b6 49000000 		.4byte	0x49
 730 00ba 04       		.uleb128 0x4
 731 00bb A0010000 		.4byte	.LASF16
 732 00bf 03       		.byte	0x3
ARM GAS  /tmp/ccx9xId3.s 			page 14


 733 00c0 3D       		.byte	0x3d
 734 00c1 37000000 		.4byte	0x37
 735 00c5 04       		.uleb128 0x4
 736 00c6 F3030000 		.4byte	.LASF17
 737 00ca 03       		.byte	0x3
 738 00cb 3E       		.byte	0x3e
 739 00cc 6D000000 		.4byte	0x6d
 740 00d0 04       		.uleb128 0x4
 741 00d1 9B000000 		.4byte	.LASF18
 742 00d5 03       		.byte	0x3
 743 00d6 3F       		.byte	0x3f
 744 00d7 5B000000 		.4byte	0x5b
 745 00db 04       		.uleb128 0x4
 746 00dc E5030000 		.4byte	.LASF19
 747 00e0 03       		.byte	0x3
 748 00e1 40       		.byte	0x40
 749 00e2 86000000 		.4byte	0x86
 750 00e6 06       		.uleb128 0x6
 751 00e7 01       		.byte	0x1
 752 00e8 06       		.byte	0x6
 753 00e9 2B       		.byte	0x2b
 754 00ea 49010000 		.4byte	0x149
 755 00ee 07       		.uleb128 0x7
 756 00ef 85030000 		.4byte	.LASF20
 757 00f3 00       		.sleb128 0
 758 00f4 07       		.uleb128 0x7
 759 00f5 88010000 		.4byte	.LASF21
 760 00f9 01       		.sleb128 1
 761 00fa 07       		.uleb128 0x7
 762 00fb 4F040000 		.4byte	.LASF22
 763 00ff 02       		.sleb128 2
 764 0100 07       		.uleb128 0x7
 765 0101 FF000000 		.4byte	.LASF23
 766 0105 03       		.sleb128 3
 767 0106 07       		.uleb128 0x7
 768 0107 08040000 		.4byte	.LASF24
 769 010b 04       		.sleb128 4
 770 010c 07       		.uleb128 0x7
 771 010d C1020000 		.4byte	.LASF25
 772 0111 05       		.sleb128 5
 773 0112 07       		.uleb128 0x7
 774 0113 D6000000 		.4byte	.LASF26
 775 0117 06       		.sleb128 6
 776 0118 07       		.uleb128 0x7
 777 0119 46000000 		.4byte	.LASF27
 778 011d 07       		.sleb128 7
 779 011e 07       		.uleb128 0x7
 780 011f 51020000 		.4byte	.LASF28
 781 0123 08       		.sleb128 8
 782 0124 07       		.uleb128 0x7
 783 0125 E7020000 		.4byte	.LASF29
 784 0129 09       		.sleb128 9
 785 012a 07       		.uleb128 0x7
 786 012b 28040000 		.4byte	.LASF30
 787 012f 0A       		.sleb128 10
 788 0130 07       		.uleb128 0x7
 789 0131 C5000000 		.4byte	.LASF31
ARM GAS  /tmp/ccx9xId3.s 			page 15


 790 0135 0B       		.sleb128 11
 791 0136 07       		.uleb128 0x7
 792 0137 29030000 		.4byte	.LASF32
 793 013b 0C       		.sleb128 12
 794 013c 07       		.uleb128 0x7
 795 013d F9030000 		.4byte	.LASF33
 796 0141 0D       		.sleb128 13
 797 0142 07       		.uleb128 0x7
 798 0143 3E020000 		.4byte	.LASF34
 799 0147 0E       		.sleb128 14
 800 0148 00       		.byte	0
 801 0149 08       		.uleb128 0x8
 802 014a F7000000 		.4byte	.LASF35
 803 014e 04       		.byte	0x4
 804 014f 04       		.byte	0x4
 805 0150 2C       		.byte	0x2c
 806 0151 64010000 		.4byte	0x164
 807 0155 09       		.uleb128 0x9
 808 0156 00000000 		.4byte	.LASF37
 809 015a 04       		.byte	0x4
 810 015b 2D       		.byte	0x2d
 811 015c DB000000 		.4byte	0xdb
 812 0160 02       		.byte	0x2
 813 0161 23       		.byte	0x23
 814 0162 00       		.uleb128 0
 815 0163 00       		.byte	0
 816 0164 08       		.uleb128 0x8
 817 0165 64040000 		.4byte	.LASF36
 818 0169 04       		.byte	0x4
 819 016a 04       		.byte	0x4
 820 016b 36       		.byte	0x36
 821 016c 7F010000 		.4byte	0x17f
 822 0170 09       		.uleb128 0x9
 823 0171 00000000 		.4byte	.LASF37
 824 0175 04       		.byte	0x4
 825 0176 37       		.byte	0x37
 826 0177 DB000000 		.4byte	0xdb
 827 017b 02       		.byte	0x2
 828 017c 23       		.byte	0x23
 829 017d 00       		.uleb128 0
 830 017e 00       		.byte	0
 831 017f 04       		.uleb128 0x4
 832 0180 E6010000 		.4byte	.LASF38
 833 0184 04       		.byte	0x4
 834 0185 40       		.byte	0x40
 835 0186 49010000 		.4byte	0x149
 836 018a 04       		.uleb128 0x4
 837 018b 79030000 		.4byte	.LASF39
 838 018f 04       		.byte	0x4
 839 0190 41       		.byte	0x41
 840 0191 64010000 		.4byte	0x164
 841 0195 04       		.uleb128 0x4
 842 0196 D0020000 		.4byte	.LASF40
 843 019a 05       		.byte	0x5
 844 019b 2F       		.byte	0x2f
 845 019c BA000000 		.4byte	0xba
 846 01a0 06       		.uleb128 0x6
ARM GAS  /tmp/ccx9xId3.s 			page 16


 847 01a1 01       		.byte	0x1
 848 01a2 07       		.byte	0x7
 849 01a3 32       		.byte	0x32
 850 01a4 C1010000 		.4byte	0x1c1
 851 01a8 07       		.uleb128 0x7
 852 01a9 3C030000 		.4byte	.LASF41
 853 01ad 00       		.sleb128 0
 854 01ae 07       		.uleb128 0x7
 855 01af 4B030000 		.4byte	.LASF42
 856 01b3 01       		.sleb128 1
 857 01b4 07       		.uleb128 0x7
 858 01b5 93040000 		.4byte	.LASF43
 859 01b9 02       		.sleb128 2
 860 01ba 07       		.uleb128 0x7
 861 01bb 61010000 		.4byte	.LASF44
 862 01bf 03       		.sleb128 3
 863 01c0 00       		.byte	0
 864 01c1 06       		.uleb128 0x6
 865 01c2 01       		.byte	0x1
 866 01c3 07       		.byte	0x7
 867 01c4 39       		.byte	0x39
 868 01c5 E2010000 		.4byte	0x1e2
 869 01c9 07       		.uleb128 0x7
 870 01ca EE000000 		.4byte	.LASF45
 871 01ce 00       		.sleb128 0
 872 01cf 07       		.uleb128 0x7
 873 01d0 78040000 		.4byte	.LASF46
 874 01d4 01       		.sleb128 1
 875 01d5 07       		.uleb128 0x7
 876 01d6 A0020000 		.4byte	.LASF47
 877 01da 02       		.sleb128 2
 878 01db 07       		.uleb128 0x7
 879 01dc B7020000 		.4byte	.LASF48
 880 01e0 03       		.sleb128 3
 881 01e1 00       		.byte	0
 882 01e2 08       		.uleb128 0x8
 883 01e3 8E040000 		.4byte	.LASF49
 884 01e7 10       		.byte	0x10
 885 01e8 07       		.byte	0x7
 886 01e9 49       		.byte	0x49
 887 01ea 51020000 		.4byte	0x251
 888 01ee 09       		.uleb128 0x9
 889 01ef 89040000 		.4byte	.LASF50
 890 01f3 07       		.byte	0x7
 891 01f4 4B       		.byte	0x4b
 892 01f5 51020000 		.4byte	0x251
 893 01f9 02       		.byte	0x2
 894 01fa 23       		.byte	0x23
 895 01fb 00       		.uleb128 0
 896 01fc 09       		.uleb128 0x9
 897 01fd 81040000 		.4byte	.LASF51
 898 0201 07       		.byte	0x7
 899 0202 4E       		.byte	0x4e
 900 0203 A6000000 		.4byte	0xa6
 901 0207 02       		.byte	0x2
 902 0208 23       		.byte	0x23
 903 0209 04       		.uleb128 0x4
ARM GAS  /tmp/ccx9xId3.s 			page 17


 904 020a 09       		.uleb128 0x9
 905 020b CC010000 		.4byte	.LASF52
 906 020f 07       		.byte	0x7
 907 0210 57       		.byte	0x57
 908 0211 C5000000 		.4byte	0xc5
 909 0215 02       		.byte	0x2
 910 0216 23       		.byte	0x23
 911 0217 08       		.uleb128 0x8
 912 0218 0A       		.uleb128 0xa
 913 0219 6C656E00 		.ascii	"len\000"
 914 021d 07       		.byte	0x7
 915 021e 5A       		.byte	0x5a
 916 021f C5000000 		.4byte	0xc5
 917 0223 02       		.byte	0x2
 918 0224 23       		.byte	0x23
 919 0225 0A       		.uleb128 0xa
 920 0226 09       		.uleb128 0x9
 921 0227 E2020000 		.4byte	.LASF53
 922 022b 07       		.byte	0x7
 923 022c 5D       		.byte	0x5d
 924 022d AF000000 		.4byte	0xaf
 925 0231 02       		.byte	0x2
 926 0232 23       		.byte	0x23
 927 0233 0C       		.uleb128 0xc
 928 0234 09       		.uleb128 0x9
 929 0235 5E020000 		.4byte	.LASF54
 930 0239 07       		.byte	0x7
 931 023a 60       		.byte	0x60
 932 023b AF000000 		.4byte	0xaf
 933 023f 02       		.byte	0x2
 934 0240 23       		.byte	0x23
 935 0241 0D       		.uleb128 0xd
 936 0242 0A       		.uleb128 0xa
 937 0243 72656600 		.ascii	"ref\000"
 938 0247 07       		.byte	0x7
 939 0248 67       		.byte	0x67
 940 0249 C5000000 		.4byte	0xc5
 941 024d 02       		.byte	0x2
 942 024e 23       		.byte	0x23
 943 024f 0E       		.uleb128 0xe
 944 0250 00       		.byte	0
 945 0251 0B       		.uleb128 0xb
 946 0252 04       		.byte	0x4
 947 0253 E2010000 		.4byte	0x1e2
 948 0257 0B       		.uleb128 0xb
 949 0258 04       		.byte	0x4
 950 0259 5D020000 		.4byte	0x25d
 951 025d 08       		.uleb128 0x8
 952 025e 92030000 		.4byte	.LASF55
 953 0262 30       		.byte	0x30
 954 0263 08       		.byte	0x8
 955 0264 88       		.byte	0x88
 956 0265 2D030000 		.4byte	0x32d
 957 0269 09       		.uleb128 0x9
 958 026a 89040000 		.4byte	.LASF50
 959 026e 08       		.byte	0x8
 960 026f 8A       		.byte	0x8a
ARM GAS  /tmp/ccx9xId3.s 			page 18


 961 0270 57020000 		.4byte	0x257
 962 0274 02       		.byte	0x2
 963 0275 23       		.byte	0x23
 964 0276 00       		.uleb128 0
 965 0277 09       		.uleb128 0x9
 966 0278 F7000000 		.4byte	.LASF35
 967 027c 08       		.byte	0x8
 968 027d 8D       		.byte	0x8d
 969 027e 7F010000 		.4byte	0x17f
 970 0282 02       		.byte	0x2
 971 0283 23       		.byte	0x23
 972 0284 04       		.uleb128 0x4
 973 0285 09       		.uleb128 0x9
 974 0286 DD030000 		.4byte	.LASF56
 975 028a 08       		.byte	0x8
 976 028b 8E       		.byte	0x8e
 977 028c 7F010000 		.4byte	0x17f
 978 0290 02       		.byte	0x2
 979 0291 23       		.byte	0x23
 980 0292 08       		.uleb128 0x8
 981 0293 0A       		.uleb128 0xa
 982 0294 677700   		.ascii	"gw\000"
 983 0297 08       		.byte	0x8
 984 0298 8F       		.byte	0x8f
 985 0299 7F010000 		.4byte	0x17f
 986 029d 02       		.byte	0x2
 987 029e 23       		.byte	0x23
 988 029f 0C       		.uleb128 0xc
 989 02a0 09       		.uleb128 0x9
 990 02a1 52000000 		.4byte	.LASF57
 991 02a5 08       		.byte	0x8
 992 02a6 93       		.byte	0x93
 993 02a7 2D030000 		.4byte	0x32d
 994 02ab 02       		.byte	0x2
 995 02ac 23       		.byte	0x23
 996 02ad 10       		.uleb128 0x10
 997 02ae 09       		.uleb128 0x9
 998 02af 48040000 		.4byte	.LASF58
 999 02b3 08       		.byte	0x8
 1000 02b4 97       		.byte	0x97
 1001 02b5 53030000 		.4byte	0x353
 1002 02b9 02       		.byte	0x2
 1003 02ba 23       		.byte	0x23
 1004 02bb 14       		.uleb128 0x14
 1005 02bc 09       		.uleb128 0x9
 1006 02bd 95010000 		.4byte	.LASF59
 1007 02c1 08       		.byte	0x8
 1008 02c2 9B       		.byte	0x9b
 1009 02c3 84030000 		.4byte	0x384
 1010 02c7 02       		.byte	0x2
 1011 02c8 23       		.byte	0x23
 1012 02c9 18       		.uleb128 0x18
 1013 02ca 09       		.uleb128 0x9
 1014 02cb 1F000000 		.4byte	.LASF60
 1015 02cf 08       		.byte	0x8
 1016 02d0 A8       		.byte	0xa8
 1017 02d1 A6000000 		.4byte	0xa6
ARM GAS  /tmp/ccx9xId3.s 			page 19


 1018 02d5 02       		.byte	0x2
 1019 02d6 23       		.byte	0x23
 1020 02d7 1C       		.uleb128 0x1c
 1021 02d8 0A       		.uleb128 0xa
 1022 02d9 6D747500 		.ascii	"mtu\000"
 1023 02dd 08       		.byte	0x8
 1024 02de B6       		.byte	0xb6
 1025 02df C5000000 		.4byte	0xc5
 1026 02e3 02       		.byte	0x2
 1027 02e4 23       		.byte	0x23
 1028 02e5 20       		.uleb128 0x20
 1029 02e6 09       		.uleb128 0x9
 1030 02e7 A1000000 		.4byte	.LASF61
 1031 02eb 08       		.byte	0x8
 1032 02ec B8       		.byte	0xb8
 1033 02ed AF000000 		.4byte	0xaf
 1034 02f1 02       		.byte	0x2
 1035 02f2 23       		.byte	0x23
 1036 02f3 22       		.uleb128 0x22
 1037 02f4 09       		.uleb128 0x9
 1038 02f5 11000000 		.4byte	.LASF62
 1039 02f9 08       		.byte	0x8
 1040 02fa BA       		.byte	0xba
 1041 02fb AA030000 		.4byte	0x3aa
 1042 02ff 02       		.byte	0x2
 1043 0300 23       		.byte	0x23
 1044 0301 23       		.uleb128 0x23
 1045 0302 09       		.uleb128 0x9
 1046 0303 5E020000 		.4byte	.LASF54
 1047 0307 08       		.byte	0x8
 1048 0308 BC       		.byte	0xbc
 1049 0309 AF000000 		.4byte	0xaf
 1050 030d 02       		.byte	0x2
 1051 030e 23       		.byte	0x23
 1052 030f 29       		.uleb128 0x29
 1053 0310 09       		.uleb128 0x9
 1054 0311 0E020000 		.4byte	.LASF63
 1055 0315 08       		.byte	0x8
 1056 0316 BE       		.byte	0xbe
 1057 0317 BA030000 		.4byte	0x3ba
 1058 031b 02       		.byte	0x2
 1059 031c 23       		.byte	0x23
 1060 031d 2A       		.uleb128 0x2a
 1061 031e 0A       		.uleb128 0xa
 1062 031f 6E756D00 		.ascii	"num\000"
 1063 0323 08       		.byte	0x8
 1064 0324 C0       		.byte	0xc0
 1065 0325 AF000000 		.4byte	0xaf
 1066 0329 02       		.byte	0x2
 1067 032a 23       		.byte	0x23
 1068 032b 2C       		.uleb128 0x2c
 1069 032c 00       		.byte	0
 1070 032d 04       		.uleb128 0x4
 1071 032e 21020000 		.4byte	.LASF64
 1072 0332 08       		.byte	0x8
 1073 0333 6D       		.byte	0x6d
 1074 0334 38030000 		.4byte	0x338
ARM GAS  /tmp/ccx9xId3.s 			page 20


 1075 0338 0B       		.uleb128 0xb
 1076 0339 04       		.byte	0x4
 1077 033a 3E030000 		.4byte	0x33e
 1078 033e 0C       		.uleb128 0xc
 1079 033f 01       		.byte	0x1
 1080 0340 95010000 		.4byte	0x195
 1081 0344 53030000 		.4byte	0x353
 1082 0348 0D       		.uleb128 0xd
 1083 0349 51020000 		.4byte	0x251
 1084 034d 0D       		.uleb128 0xd
 1085 034e 57020000 		.4byte	0x257
 1086 0352 00       		.byte	0
 1087 0353 04       		.uleb128 0x4
 1088 0354 25000000 		.4byte	.LASF65
 1089 0358 08       		.byte	0x8
 1090 0359 76       		.byte	0x76
 1091 035a 5E030000 		.4byte	0x35e
 1092 035e 0B       		.uleb128 0xb
 1093 035f 04       		.byte	0x4
 1094 0360 64030000 		.4byte	0x364
 1095 0364 0C       		.uleb128 0xc
 1096 0365 01       		.byte	0x1
 1097 0366 95010000 		.4byte	0x195
 1098 036a 7E030000 		.4byte	0x37e
 1099 036e 0D       		.uleb128 0xd
 1100 036f 57020000 		.4byte	0x257
 1101 0373 0D       		.uleb128 0xd
 1102 0374 51020000 		.4byte	0x251
 1103 0378 0D       		.uleb128 0xd
 1104 0379 7E030000 		.4byte	0x37e
 1105 037d 00       		.byte	0
 1106 037e 0B       		.uleb128 0xb
 1107 037f 04       		.byte	0x4
 1108 0380 7F010000 		.4byte	0x17f
 1109 0384 04       		.uleb128 0x4
 1110 0385 AC000000 		.4byte	.LASF66
 1111 0389 08       		.byte	0x8
 1112 038a 7E       		.byte	0x7e
 1113 038b 8F030000 		.4byte	0x38f
 1114 038f 0B       		.uleb128 0xb
 1115 0390 04       		.byte	0x4
 1116 0391 95030000 		.4byte	0x395
 1117 0395 0C       		.uleb128 0xc
 1118 0396 01       		.byte	0x1
 1119 0397 95010000 		.4byte	0x195
 1120 039b AA030000 		.4byte	0x3aa
 1121 039f 0D       		.uleb128 0xd
 1122 03a0 57020000 		.4byte	0x257
 1123 03a4 0D       		.uleb128 0xd
 1124 03a5 51020000 		.4byte	0x251
 1125 03a9 00       		.byte	0
 1126 03aa 0E       		.uleb128 0xe
 1127 03ab AF000000 		.4byte	0xaf
 1128 03af BA030000 		.4byte	0x3ba
 1129 03b3 0F       		.uleb128 0xf
 1130 03b4 30000000 		.4byte	0x30
 1131 03b8 05       		.byte	0x5
ARM GAS  /tmp/ccx9xId3.s 			page 21


 1132 03b9 00       		.byte	0
 1133 03ba 0E       		.uleb128 0xe
 1134 03bb A8000000 		.4byte	0xa8
 1135 03bf CA030000 		.4byte	0x3ca
 1136 03c3 0F       		.uleb128 0xf
 1137 03c4 30000000 		.4byte	0x30
 1138 03c8 01       		.byte	0x1
 1139 03c9 00       		.byte	0
 1140 03ca 08       		.uleb128 0x8
 1141 03cb 58000000 		.4byte	.LASF67
 1142 03cf 14       		.byte	0x14
 1143 03d0 09       		.byte	0x9
 1144 03d1 74       		.byte	0x74
 1145 03d2 55040000 		.4byte	0x455
 1146 03d6 09       		.uleb128 0x9
 1147 03d7 C2010000 		.4byte	.LASF68
 1148 03db 09       		.byte	0x9
 1149 03dc 76       		.byte	0x76
 1150 03dd C5000000 		.4byte	0xc5
 1151 03e1 02       		.byte	0x2
 1152 03e2 23       		.byte	0x23
 1153 03e3 00       		.uleb128 0
 1154 03e4 09       		.uleb128 0x9
 1155 03e5 C0000000 		.4byte	.LASF69
 1156 03e9 09       		.byte	0x9
 1157 03ea 78       		.byte	0x78
 1158 03eb C5000000 		.4byte	0xc5
 1159 03ef 02       		.byte	0x2
 1160 03f0 23       		.byte	0x23
 1161 03f1 02       		.uleb128 0x2
 1162 03f2 0A       		.uleb128 0xa
 1163 03f3 5F696400 		.ascii	"_id\000"
 1164 03f7 09       		.byte	0x9
 1165 03f8 7A       		.byte	0x7a
 1166 03f9 C5000000 		.4byte	0xc5
 1167 03fd 02       		.byte	0x2
 1168 03fe 23       		.byte	0x23
 1169 03ff 04       		.uleb128 0x4
 1170 0400 09       		.uleb128 0x9
 1171 0401 5F000000 		.4byte	.LASF70
 1172 0405 09       		.byte	0x9
 1173 0406 7C       		.byte	0x7c
 1174 0407 C5000000 		.4byte	0xc5
 1175 040b 02       		.byte	0x2
 1176 040c 23       		.byte	0x23
 1177 040d 06       		.uleb128 0x6
 1178 040e 09       		.uleb128 0x9
 1179 040f 13010000 		.4byte	.LASF71
 1180 0413 09       		.byte	0x9
 1181 0414 82       		.byte	0x82
 1182 0415 AF000000 		.4byte	0xaf
 1183 0419 02       		.byte	0x2
 1184 041a 23       		.byte	0x23
 1185 041b 08       		.uleb128 0x8
 1186 041c 09       		.uleb128 0x9
 1187 041d 0A000000 		.4byte	.LASF72
 1188 0421 09       		.byte	0x9
ARM GAS  /tmp/ccx9xId3.s 			page 22


 1189 0422 84       		.byte	0x84
 1190 0423 AF000000 		.4byte	0xaf
 1191 0427 02       		.byte	0x2
 1192 0428 23       		.byte	0x23
 1193 0429 09       		.uleb128 0x9
 1194 042a 09       		.uleb128 0x9
 1195 042b 06020000 		.4byte	.LASF73
 1196 042f 09       		.byte	0x9
 1197 0430 86       		.byte	0x86
 1198 0431 C5000000 		.4byte	0xc5
 1199 0435 02       		.byte	0x2
 1200 0436 23       		.byte	0x23
 1201 0437 0A       		.uleb128 0xa
 1202 0438 0A       		.uleb128 0xa
 1203 0439 73726300 		.ascii	"src\000"
 1204 043d 09       		.byte	0x9
 1205 043e 88       		.byte	0x88
 1206 043f 8A010000 		.4byte	0x18a
 1207 0443 02       		.byte	0x2
 1208 0444 23       		.byte	0x23
 1209 0445 0C       		.uleb128 0xc
 1210 0446 09       		.uleb128 0x9
 1211 0447 01020000 		.4byte	.LASF74
 1212 044b 09       		.byte	0x9
 1213 044c 89       		.byte	0x89
 1214 044d 8A010000 		.4byte	0x18a
 1215 0451 02       		.byte	0x2
 1216 0452 23       		.byte	0x23
 1217 0453 10       		.uleb128 0x10
 1218 0454 00       		.byte	0
 1219 0455 04       		.uleb128 0x4
 1220 0456 8F000000 		.4byte	.LASF75
 1221 045a 0A       		.byte	0xa
 1222 045b 3C       		.byte	0x3c
 1223 045c 60040000 		.4byte	0x460
 1224 0460 0B       		.uleb128 0xb
 1225 0461 04       		.byte	0x4
 1226 0462 66040000 		.4byte	0x466
 1227 0466 0C       		.uleb128 0xc
 1228 0467 01       		.byte	0x1
 1229 0468 AF000000 		.4byte	0xaf
 1230 046c 85040000 		.4byte	0x485
 1231 0470 0D       		.uleb128 0xd
 1232 0471 A6000000 		.4byte	0xa6
 1233 0475 0D       		.uleb128 0xd
 1234 0476 85040000 		.4byte	0x485
 1235 047a 0D       		.uleb128 0xd
 1236 047b 51020000 		.4byte	0x251
 1237 047f 0D       		.uleb128 0xd
 1238 0480 7E030000 		.4byte	0x37e
 1239 0484 00       		.byte	0
 1240 0485 0B       		.uleb128 0xb
 1241 0486 04       		.byte	0x4
 1242 0487 8B040000 		.4byte	0x48b
 1243 048b 08       		.uleb128 0x8
 1244 048c 5C040000 		.4byte	.LASF76
 1245 0490 1C       		.byte	0x1c
ARM GAS  /tmp/ccx9xId3.s 			page 23


 1246 0491 0A       		.byte	0xa
 1247 0492 3F       		.byte	0x3f
 1248 0493 16050000 		.4byte	0x516
 1249 0497 09       		.uleb128 0x9
 1250 0498 AB010000 		.4byte	.LASF77
 1251 049c 0A       		.byte	0xa
 1252 049d 41       		.byte	0x41
 1253 049e 7F010000 		.4byte	0x17f
 1254 04a2 02       		.byte	0x2
 1255 04a3 23       		.byte	0x23
 1256 04a4 00       		.uleb128 0
 1257 04a5 09       		.uleb128 0x9
 1258 04a6 67000000 		.4byte	.LASF78
 1259 04aa 0A       		.byte	0xa
 1260 04ab 41       		.byte	0x41
 1261 04ac 7F010000 		.4byte	0x17f
 1262 04b0 02       		.byte	0x2
 1263 04b1 23       		.byte	0x23
 1264 04b2 04       		.uleb128 0x4
 1265 04b3 09       		.uleb128 0x9
 1266 04b4 3D040000 		.4byte	.LASF79
 1267 04b8 0A       		.byte	0xa
 1268 04b9 41       		.byte	0x41
 1269 04ba AF000000 		.4byte	0xaf
 1270 04be 02       		.byte	0x2
 1271 04bf 23       		.byte	0x23
 1272 04c0 08       		.uleb128 0x8
 1273 04c1 0A       		.uleb128 0xa
 1274 04c2 746F7300 		.ascii	"tos\000"
 1275 04c6 0A       		.byte	0xa
 1276 04c7 41       		.byte	0x41
 1277 04c8 AF000000 		.4byte	0xaf
 1278 04cc 02       		.byte	0x2
 1279 04cd 23       		.byte	0x23
 1280 04ce 09       		.uleb128 0x9
 1281 04cf 0A       		.uleb128 0xa
 1282 04d0 74746C00 		.ascii	"ttl\000"
 1283 04d4 0A       		.byte	0xa
 1284 04d5 41       		.byte	0x41
 1285 04d6 AF000000 		.4byte	0xaf
 1286 04da 02       		.byte	0x2
 1287 04db 23       		.byte	0x23
 1288 04dc 0A       		.uleb128 0xa
 1289 04dd 09       		.uleb128 0x9
 1290 04de 89040000 		.4byte	.LASF50
 1291 04e2 0A       		.byte	0xa
 1292 04e3 43       		.byte	0x43
 1293 04e4 85040000 		.4byte	0x485
 1294 04e8 02       		.byte	0x2
 1295 04e9 23       		.byte	0x23
 1296 04ea 0C       		.uleb128 0xc
 1297 04eb 09       		.uleb128 0x9
 1298 04ec 33030000 		.4byte	.LASF80
 1299 04f0 0A       		.byte	0xa
 1300 04f1 45       		.byte	0x45
 1301 04f2 AF000000 		.4byte	0xaf
 1302 04f6 02       		.byte	0x2
ARM GAS  /tmp/ccx9xId3.s 			page 24


 1303 04f7 23       		.byte	0x23
 1304 04f8 10       		.uleb128 0x10
 1305 04f9 09       		.uleb128 0x9
 1306 04fa 39020000 		.4byte	.LASF81
 1307 04fe 0A       		.byte	0xa
 1308 04ff 48       		.byte	0x48
 1309 0500 55040000 		.4byte	0x455
 1310 0504 02       		.byte	0x2
 1311 0505 23       		.byte	0x23
 1312 0506 14       		.uleb128 0x14
 1313 0507 09       		.uleb128 0x9
 1314 0508 AE020000 		.4byte	.LASF82
 1315 050c 0A       		.byte	0xa
 1316 050d 4A       		.byte	0x4a
 1317 050e A6000000 		.4byte	0xa6
 1318 0512 02       		.byte	0x2
 1319 0513 23       		.byte	0x23
 1320 0514 18       		.uleb128 0x18
 1321 0515 00       		.byte	0
 1322 0516 10       		.uleb128 0x10
 1323 0517 01       		.byte	0x1
 1324 0518 47020000 		.4byte	.LASF87
 1325 051c 01       		.byte	0x1
 1326 051d 4C       		.byte	0x4c
 1327 051e 01       		.byte	0x1
 1328 051f AF000000 		.4byte	0xaf
 1329 0523 00000000 		.4byte	.LFB7
 1330 0527 DE000000 		.4byte	.LFE7
 1331 052b 00000000 		.4byte	.LLST0
 1332 052f 94050000 		.4byte	0x594
 1333 0533 11       		.uleb128 0x11
 1334 0534 7000     		.ascii	"p\000"
 1335 0536 01       		.byte	0x1
 1336 0537 4C       		.byte	0x4c
 1337 0538 51020000 		.4byte	0x251
 1338 053c 02       		.byte	0x2
 1339 053d 91       		.byte	0x91
 1340 053e 5C       		.sleb128 -36
 1341 053f 11       		.uleb128 0x11
 1342 0540 696E7000 		.ascii	"inp\000"
 1343 0544 01       		.byte	0x1
 1344 0545 4C       		.byte	0x4c
 1345 0546 57020000 		.4byte	0x257
 1346 054a 02       		.byte	0x2
 1347 054b 91       		.byte	0x91
 1348 054c 58       		.sleb128 -40
 1349 054d 12       		.uleb128 0x12
 1350 054e 70636200 		.ascii	"pcb\000"
 1351 0552 01       		.byte	0x1
 1352 0553 4E       		.byte	0x4e
 1353 0554 85040000 		.4byte	0x485
 1354 0558 02       		.byte	0x2
 1355 0559 91       		.byte	0x91
 1356 055a 74       		.sleb128 -12
 1357 055b 13       		.uleb128 0x13
 1358 055c 73040000 		.4byte	.LASF83
 1359 0560 01       		.byte	0x1
ARM GAS  /tmp/ccx9xId3.s 			page 25


 1360 0561 4E       		.byte	0x4e
 1361 0562 85040000 		.4byte	0x485
 1362 0566 02       		.byte	0x2
 1363 0567 91       		.byte	0x91
 1364 0568 70       		.sleb128 -16
 1365 0569 13       		.uleb128 0x13
 1366 056a A5010000 		.4byte	.LASF84
 1367 056e 01       		.byte	0x1
 1368 056f 4F       		.byte	0x4f
 1369 0570 94050000 		.4byte	0x594
 1370 0574 02       		.byte	0x2
 1371 0575 91       		.byte	0x91
 1372 0576 68       		.sleb128 -24
 1373 0577 13       		.uleb128 0x13
 1374 0578 FB010000 		.4byte	.LASF85
 1375 057c 01       		.byte	0x1
 1376 057d 50       		.byte	0x50
 1377 057e D0000000 		.4byte	0xd0
 1378 0582 02       		.byte	0x2
 1379 0583 91       		.byte	0x91
 1380 0584 66       		.sleb128 -26
 1381 0585 13       		.uleb128 0x13
 1382 0586 9A020000 		.4byte	.LASF86
 1383 058a 01       		.byte	0x1
 1384 058b 51       		.byte	0x51
 1385 058c AF000000 		.4byte	0xaf
 1386 0590 02       		.byte	0x2
 1387 0591 91       		.byte	0x91
 1388 0592 6F       		.sleb128 -17
 1389 0593 00       		.byte	0
 1390 0594 0B       		.uleb128 0xb
 1391 0595 04       		.byte	0x4
 1392 0596 CA030000 		.4byte	0x3ca
 1393 059a 10       		.uleb128 0x10
 1394 059b 01       		.byte	0x1
 1395 059c 30020000 		.4byte	.LASF88
 1396 05a0 01       		.byte	0x1
 1397 05a1 8E       		.byte	0x8e
 1398 05a2 01       		.byte	0x1
 1399 05a3 95010000 		.4byte	0x195
 1400 05a7 00000000 		.4byte	.LFB8
 1401 05ab 26000000 		.4byte	.LFE8
 1402 05af 2C000000 		.4byte	.LLST1
 1403 05b3 D4050000 		.4byte	0x5d4
 1404 05b7 11       		.uleb128 0x11
 1405 05b8 70636200 		.ascii	"pcb\000"
 1406 05bc 01       		.byte	0x1
 1407 05bd 8E       		.byte	0x8e
 1408 05be 85040000 		.4byte	0x485
 1409 05c2 02       		.byte	0x2
 1410 05c3 91       		.byte	0x91
 1411 05c4 7C       		.sleb128 -4
 1412 05c5 14       		.uleb128 0x14
 1413 05c6 35000000 		.4byte	.LASF89
 1414 05ca 01       		.byte	0x1
 1415 05cb 8E       		.byte	0x8e
 1416 05cc 7E030000 		.4byte	0x37e
ARM GAS  /tmp/ccx9xId3.s 			page 26


 1417 05d0 02       		.byte	0x2
 1418 05d1 91       		.byte	0x91
 1419 05d2 78       		.sleb128 -8
 1420 05d3 00       		.byte	0
 1421 05d4 10       		.uleb128 0x10
 1422 05d5 01       		.byte	0x1
 1423 05d6 65030000 		.4byte	.LASF90
 1424 05da 01       		.byte	0x1
 1425 05db A2       		.byte	0xa2
 1426 05dc 01       		.byte	0x1
 1427 05dd 95010000 		.4byte	0x195
 1428 05e1 00000000 		.4byte	.LFB9
 1429 05e5 26000000 		.4byte	.LFE9
 1430 05e9 4C000000 		.4byte	.LLST2
 1431 05ed 0E060000 		.4byte	0x60e
 1432 05f1 11       		.uleb128 0x11
 1433 05f2 70636200 		.ascii	"pcb\000"
 1434 05f6 01       		.byte	0x1
 1435 05f7 A2       		.byte	0xa2
 1436 05f8 85040000 		.4byte	0x485
 1437 05fc 02       		.byte	0x2
 1438 05fd 91       		.byte	0x91
 1439 05fe 7C       		.sleb128 -4
 1440 05ff 14       		.uleb128 0x14
 1441 0600 35000000 		.4byte	.LASF89
 1442 0604 01       		.byte	0x1
 1443 0605 A2       		.byte	0xa2
 1444 0606 7E030000 		.4byte	0x37e
 1445 060a 02       		.byte	0x2
 1446 060b 91       		.byte	0x91
 1447 060c 78       		.sleb128 -8
 1448 060d 00       		.byte	0
 1449 060e 15       		.uleb128 0x15
 1450 060f 01       		.byte	0x1
 1451 0610 E5000000 		.4byte	.LASF94
 1452 0614 01       		.byte	0x1
 1453 0615 B7       		.byte	0xb7
 1454 0616 01       		.byte	0x1
 1455 0617 00000000 		.4byte	.LFB10
 1456 061b 18000000 		.4byte	.LFE10
 1457 061f 6C000000 		.4byte	.LLST3
 1458 0623 52060000 		.4byte	0x652
 1459 0627 11       		.uleb128 0x11
 1460 0628 70636200 		.ascii	"pcb\000"
 1461 062c 01       		.byte	0x1
 1462 062d B7       		.byte	0xb7
 1463 062e 85040000 		.4byte	0x485
 1464 0632 02       		.byte	0x2
 1465 0633 91       		.byte	0x91
 1466 0634 7C       		.sleb128 -4
 1467 0635 14       		.uleb128 0x14
 1468 0636 39020000 		.4byte	.LASF81
 1469 063a 01       		.byte	0x1
 1470 063b B7       		.byte	0xb7
 1471 063c 55040000 		.4byte	0x455
 1472 0640 02       		.byte	0x2
 1473 0641 91       		.byte	0x91
ARM GAS  /tmp/ccx9xId3.s 			page 27


 1474 0642 78       		.sleb128 -8
 1475 0643 14       		.uleb128 0x14
 1476 0644 AE020000 		.4byte	.LASF82
 1477 0648 01       		.byte	0x1
 1478 0649 B7       		.byte	0xb7
 1479 064a A6000000 		.4byte	0xa6
 1480 064e 02       		.byte	0x2
 1481 064f 91       		.byte	0x91
 1482 0650 74       		.sleb128 -12
 1483 0651 00       		.byte	0
 1484 0652 10       		.uleb128 0x10
 1485 0653 01       		.byte	0x1
 1486 0654 16030000 		.4byte	.LASF91
 1487 0658 01       		.byte	0x1
 1488 0659 CB       		.byte	0xcb
 1489 065a 01       		.byte	0x1
 1490 065b 95010000 		.4byte	0x195
 1491 065f 00000000 		.4byte	.LFB11
 1492 0663 E8000000 		.4byte	.LFE11
 1493 0667 8C000000 		.4byte	.LLST4
 1494 066b CE060000 		.4byte	0x6ce
 1495 066f 11       		.uleb128 0x11
 1496 0670 70636200 		.ascii	"pcb\000"
 1497 0674 01       		.byte	0x1
 1498 0675 CB       		.byte	0xcb
 1499 0676 85040000 		.4byte	0x485
 1500 067a 02       		.byte	0x2
 1501 067b 91       		.byte	0x91
 1502 067c 64       		.sleb128 -28
 1503 067d 11       		.uleb128 0x11
 1504 067e 7000     		.ascii	"p\000"
 1505 0680 01       		.byte	0x1
 1506 0681 CB       		.byte	0xcb
 1507 0682 51020000 		.4byte	0x251
 1508 0686 02       		.byte	0x2
 1509 0687 91       		.byte	0x91
 1510 0688 60       		.sleb128 -32
 1511 0689 14       		.uleb128 0x14
 1512 068a 35000000 		.4byte	.LASF89
 1513 068e 01       		.byte	0x1
 1514 068f CB       		.byte	0xcb
 1515 0690 7E030000 		.4byte	0x37e
 1516 0694 02       		.byte	0x2
 1517 0695 91       		.byte	0x91
 1518 0696 5C       		.sleb128 -36
 1519 0697 12       		.uleb128 0x12
 1520 0698 65727200 		.ascii	"err\000"
 1521 069c 01       		.byte	0x1
 1522 069d CD       		.byte	0xcd
 1523 069e 95010000 		.4byte	0x195
 1524 06a2 02       		.byte	0x2
 1525 06a3 91       		.byte	0x91
 1526 06a4 6B       		.sleb128 -21
 1527 06a5 13       		.uleb128 0x13
 1528 06a6 92030000 		.4byte	.LASF55
 1529 06aa 01       		.byte	0x1
 1530 06ab CE       		.byte	0xce
ARM GAS  /tmp/ccx9xId3.s 			page 28


 1531 06ac 57020000 		.4byte	0x257
 1532 06b0 02       		.byte	0x2
 1533 06b1 91       		.byte	0x91
 1534 06b2 6C       		.sleb128 -20
 1535 06b3 13       		.uleb128 0x13
 1536 06b4 DB020000 		.4byte	.LASF92
 1537 06b8 01       		.byte	0x1
 1538 06b9 CF       		.byte	0xcf
 1539 06ba 7E030000 		.4byte	0x37e
 1540 06be 02       		.byte	0x2
 1541 06bf 91       		.byte	0x91
 1542 06c0 74       		.sleb128 -12
 1543 06c1 12       		.uleb128 0x12
 1544 06c2 7100     		.ascii	"q\000"
 1545 06c4 01       		.byte	0x1
 1546 06c5 D0       		.byte	0xd0
 1547 06c6 51020000 		.4byte	0x251
 1548 06ca 02       		.byte	0x2
 1549 06cb 91       		.byte	0x91
 1550 06cc 70       		.sleb128 -16
 1551 06cd 00       		.byte	0
 1552 06ce 16       		.uleb128 0x16
 1553 06cf 01       		.byte	0x1
 1554 06d0 D4010000 		.4byte	.LASF93
 1555 06d4 01       		.byte	0x1
 1556 06d5 2201     		.2byte	0x122
 1557 06d7 01       		.byte	0x1
 1558 06d8 95010000 		.4byte	0x195
 1559 06dc 00000000 		.4byte	.LFB12
 1560 06e0 20000000 		.4byte	.LFE12
 1561 06e4 B8000000 		.4byte	.LLST5
 1562 06e8 09070000 		.4byte	0x709
 1563 06ec 17       		.uleb128 0x17
 1564 06ed 70636200 		.ascii	"pcb\000"
 1565 06f1 01       		.byte	0x1
 1566 06f2 2201     		.2byte	0x122
 1567 06f4 85040000 		.4byte	0x485
 1568 06f8 02       		.byte	0x2
 1569 06f9 91       		.byte	0x91
 1570 06fa 74       		.sleb128 -12
 1571 06fb 17       		.uleb128 0x17
 1572 06fc 7000     		.ascii	"p\000"
 1573 06fe 01       		.byte	0x1
 1574 06ff 2201     		.2byte	0x122
 1575 0701 51020000 		.4byte	0x251
 1576 0705 02       		.byte	0x2
 1577 0706 91       		.byte	0x91
 1578 0707 70       		.sleb128 -16
 1579 0708 00       		.byte	0
 1580 0709 18       		.uleb128 0x18
 1581 070a 01       		.byte	0x1
 1582 070b F0010000 		.4byte	.LASF95
 1583 070f 01       		.byte	0x1
 1584 0710 3001     		.2byte	0x130
 1585 0712 01       		.byte	0x1
 1586 0713 00000000 		.4byte	.LFB13
 1587 0717 70000000 		.4byte	.LFE13
ARM GAS  /tmp/ccx9xId3.s 			page 29


 1588 071b E4000000 		.4byte	.LLST6
 1589 071f 42070000 		.4byte	0x742
 1590 0723 17       		.uleb128 0x17
 1591 0724 70636200 		.ascii	"pcb\000"
 1592 0728 01       		.byte	0x1
 1593 0729 3001     		.2byte	0x130
 1594 072b 85040000 		.4byte	0x485
 1595 072f 02       		.byte	0x2
 1596 0730 91       		.byte	0x91
 1597 0731 6C       		.sleb128 -20
 1598 0732 19       		.uleb128 0x19
 1599 0733 A9020000 		.4byte	.LASF96
 1600 0737 01       		.byte	0x1
 1601 0738 3201     		.2byte	0x132
 1602 073a 85040000 		.4byte	0x485
 1603 073e 02       		.byte	0x2
 1604 073f 91       		.byte	0x91
 1605 0740 74       		.sleb128 -12
 1606 0741 00       		.byte	0
 1607 0742 16       		.uleb128 0x16
 1608 0743 01       		.byte	0x1
 1609 0744 71030000 		.4byte	.LASF97
 1610 0748 01       		.byte	0x1
 1611 0749 4F01     		.2byte	0x14f
 1612 074b 01       		.byte	0x1
 1613 074c 85040000 		.4byte	0x485
 1614 0750 00000000 		.4byte	.LFB14
 1615 0754 62000000 		.4byte	.LFE14
 1616 0758 10010000 		.4byte	.LLST7
 1617 075c 7F070000 		.4byte	0x77f
 1618 0760 1A       		.uleb128 0x1a
 1619 0761 FB010000 		.4byte	.LASF85
 1620 0765 01       		.byte	0x1
 1621 0766 4F01     		.2byte	0x14f
 1622 0768 AF000000 		.4byte	0xaf
 1623 076c 02       		.byte	0x2
 1624 076d 91       		.byte	0x91
 1625 076e 6F       		.sleb128 -17
 1626 076f 1B       		.uleb128 0x1b
 1627 0770 70636200 		.ascii	"pcb\000"
 1628 0774 01       		.byte	0x1
 1629 0775 5101     		.2byte	0x151
 1630 0777 85040000 		.4byte	0x485
 1631 077b 02       		.byte	0x2
 1632 077c 91       		.byte	0x91
 1633 077d 74       		.sleb128 -12
 1634 077e 00       		.byte	0
 1635 077f 1C       		.uleb128 0x1c
 1636 0780 6A010000 		.4byte	.LASF98
 1637 0784 09       		.byte	0x9
 1638 0785 A7       		.byte	0xa7
 1639 0786 7F010000 		.4byte	0x17f
 1640 078a 01       		.byte	0x1
 1641 078b 01       		.byte	0x1
 1642 078c 1C       		.uleb128 0x1c
 1643 078d 15040000 		.4byte	.LASF99
 1644 0791 09       		.byte	0x9
ARM GAS  /tmp/ccx9xId3.s 			page 30


 1645 0792 A9       		.byte	0xa9
 1646 0793 7F010000 		.4byte	0x17f
 1647 0797 01       		.byte	0x1
 1648 0798 01       		.byte	0x1
 1649 0799 13       		.uleb128 0x13
 1650 079a FA020000 		.4byte	.LASF100
 1651 079e 01       		.byte	0x1
 1652 079f 38       		.byte	0x38
 1653 07a0 85040000 		.4byte	0x485
 1654 07a4 05       		.byte	0x5
 1655 07a5 03       		.byte	0x3
 1656 07a6 00000000 		.4byte	raw_pcbs
 1657 07aa 1C       		.uleb128 0x1c
 1658 07ab 6A010000 		.4byte	.LASF98
 1659 07af 09       		.byte	0x9
 1660 07b0 A7       		.byte	0xa7
 1661 07b1 7F010000 		.4byte	0x17f
 1662 07b5 01       		.byte	0x1
 1663 07b6 01       		.byte	0x1
 1664 07b7 1C       		.uleb128 0x1c
 1665 07b8 15040000 		.4byte	.LASF99
 1666 07bc 09       		.byte	0x9
 1667 07bd A9       		.byte	0xa9
 1668 07be 7F010000 		.4byte	0x17f
 1669 07c2 01       		.byte	0x1
 1670 07c3 01       		.byte	0x1
 1671 07c4 00       		.byte	0
 1672              		.section	.debug_abbrev,"",%progbits
 1673              	.Ldebug_abbrev0:
 1674 0000 01       		.uleb128 0x1
 1675 0001 11       		.uleb128 0x11
 1676 0002 01       		.byte	0x1
 1677 0003 25       		.uleb128 0x25
 1678 0004 0E       		.uleb128 0xe
 1679 0005 13       		.uleb128 0x13
 1680 0006 0B       		.uleb128 0xb
 1681 0007 03       		.uleb128 0x3
 1682 0008 0E       		.uleb128 0xe
 1683 0009 1B       		.uleb128 0x1b
 1684 000a 0E       		.uleb128 0xe
 1685 000b 11       		.uleb128 0x11
 1686 000c 01       		.uleb128 0x1
 1687 000d 52       		.uleb128 0x52
 1688 000e 01       		.uleb128 0x1
 1689 000f 55       		.uleb128 0x55
 1690 0010 06       		.uleb128 0x6
 1691 0011 10       		.uleb128 0x10
 1692 0012 06       		.uleb128 0x6
 1693 0013 00       		.byte	0
 1694 0014 00       		.byte	0
 1695 0015 02       		.uleb128 0x2
 1696 0016 24       		.uleb128 0x24
 1697 0017 00       		.byte	0
 1698 0018 0B       		.uleb128 0xb
 1699 0019 0B       		.uleb128 0xb
 1700 001a 3E       		.uleb128 0x3e
 1701 001b 0B       		.uleb128 0xb
ARM GAS  /tmp/ccx9xId3.s 			page 31


 1702 001c 03       		.uleb128 0x3
 1703 001d 08       		.uleb128 0x8
 1704 001e 00       		.byte	0
 1705 001f 00       		.byte	0
 1706 0020 03       		.uleb128 0x3
 1707 0021 24       		.uleb128 0x24
 1708 0022 00       		.byte	0
 1709 0023 0B       		.uleb128 0xb
 1710 0024 0B       		.uleb128 0xb
 1711 0025 3E       		.uleb128 0x3e
 1712 0026 0B       		.uleb128 0xb
 1713 0027 03       		.uleb128 0x3
 1714 0028 0E       		.uleb128 0xe
 1715 0029 00       		.byte	0
 1716 002a 00       		.byte	0
 1717 002b 04       		.uleb128 0x4
 1718 002c 16       		.uleb128 0x16
 1719 002d 00       		.byte	0
 1720 002e 03       		.uleb128 0x3
 1721 002f 0E       		.uleb128 0xe
 1722 0030 3A       		.uleb128 0x3a
 1723 0031 0B       		.uleb128 0xb
 1724 0032 3B       		.uleb128 0x3b
 1725 0033 0B       		.uleb128 0xb
 1726 0034 49       		.uleb128 0x49
 1727 0035 13       		.uleb128 0x13
 1728 0036 00       		.byte	0
 1729 0037 00       		.byte	0
 1730 0038 05       		.uleb128 0x5
 1731 0039 0F       		.uleb128 0xf
 1732 003a 00       		.byte	0
 1733 003b 0B       		.uleb128 0xb
 1734 003c 0B       		.uleb128 0xb
 1735 003d 00       		.byte	0
 1736 003e 00       		.byte	0
 1737 003f 06       		.uleb128 0x6
 1738 0040 04       		.uleb128 0x4
 1739 0041 01       		.byte	0x1
 1740 0042 0B       		.uleb128 0xb
 1741 0043 0B       		.uleb128 0xb
 1742 0044 3A       		.uleb128 0x3a
 1743 0045 0B       		.uleb128 0xb
 1744 0046 3B       		.uleb128 0x3b
 1745 0047 0B       		.uleb128 0xb
 1746 0048 01       		.uleb128 0x1
 1747 0049 13       		.uleb128 0x13
 1748 004a 00       		.byte	0
 1749 004b 00       		.byte	0
 1750 004c 07       		.uleb128 0x7
 1751 004d 28       		.uleb128 0x28
 1752 004e 00       		.byte	0
 1753 004f 03       		.uleb128 0x3
 1754 0050 0E       		.uleb128 0xe
 1755 0051 1C       		.uleb128 0x1c
 1756 0052 0D       		.uleb128 0xd
 1757 0053 00       		.byte	0
 1758 0054 00       		.byte	0
ARM GAS  /tmp/ccx9xId3.s 			page 32


 1759 0055 08       		.uleb128 0x8
 1760 0056 13       		.uleb128 0x13
 1761 0057 01       		.byte	0x1
 1762 0058 03       		.uleb128 0x3
 1763 0059 0E       		.uleb128 0xe
 1764 005a 0B       		.uleb128 0xb
 1765 005b 0B       		.uleb128 0xb
 1766 005c 3A       		.uleb128 0x3a
 1767 005d 0B       		.uleb128 0xb
 1768 005e 3B       		.uleb128 0x3b
 1769 005f 0B       		.uleb128 0xb
 1770 0060 01       		.uleb128 0x1
 1771 0061 13       		.uleb128 0x13
 1772 0062 00       		.byte	0
 1773 0063 00       		.byte	0
 1774 0064 09       		.uleb128 0x9
 1775 0065 0D       		.uleb128 0xd
 1776 0066 00       		.byte	0
 1777 0067 03       		.uleb128 0x3
 1778 0068 0E       		.uleb128 0xe
 1779 0069 3A       		.uleb128 0x3a
 1780 006a 0B       		.uleb128 0xb
 1781 006b 3B       		.uleb128 0x3b
 1782 006c 0B       		.uleb128 0xb
 1783 006d 49       		.uleb128 0x49
 1784 006e 13       		.uleb128 0x13
 1785 006f 38       		.uleb128 0x38
 1786 0070 0A       		.uleb128 0xa
 1787 0071 00       		.byte	0
 1788 0072 00       		.byte	0
 1789 0073 0A       		.uleb128 0xa
 1790 0074 0D       		.uleb128 0xd
 1791 0075 00       		.byte	0
 1792 0076 03       		.uleb128 0x3
 1793 0077 08       		.uleb128 0x8
 1794 0078 3A       		.uleb128 0x3a
 1795 0079 0B       		.uleb128 0xb
 1796 007a 3B       		.uleb128 0x3b
 1797 007b 0B       		.uleb128 0xb
 1798 007c 49       		.uleb128 0x49
 1799 007d 13       		.uleb128 0x13
 1800 007e 38       		.uleb128 0x38
 1801 007f 0A       		.uleb128 0xa
 1802 0080 00       		.byte	0
 1803 0081 00       		.byte	0
 1804 0082 0B       		.uleb128 0xb
 1805 0083 0F       		.uleb128 0xf
 1806 0084 00       		.byte	0
 1807 0085 0B       		.uleb128 0xb
 1808 0086 0B       		.uleb128 0xb
 1809 0087 49       		.uleb128 0x49
 1810 0088 13       		.uleb128 0x13
 1811 0089 00       		.byte	0
 1812 008a 00       		.byte	0
 1813 008b 0C       		.uleb128 0xc
 1814 008c 15       		.uleb128 0x15
 1815 008d 01       		.byte	0x1
ARM GAS  /tmp/ccx9xId3.s 			page 33


 1816 008e 27       		.uleb128 0x27
 1817 008f 0C       		.uleb128 0xc
 1818 0090 49       		.uleb128 0x49
 1819 0091 13       		.uleb128 0x13
 1820 0092 01       		.uleb128 0x1
 1821 0093 13       		.uleb128 0x13
 1822 0094 00       		.byte	0
 1823 0095 00       		.byte	0
 1824 0096 0D       		.uleb128 0xd
 1825 0097 05       		.uleb128 0x5
 1826 0098 00       		.byte	0
 1827 0099 49       		.uleb128 0x49
 1828 009a 13       		.uleb128 0x13
 1829 009b 00       		.byte	0
 1830 009c 00       		.byte	0
 1831 009d 0E       		.uleb128 0xe
 1832 009e 01       		.uleb128 0x1
 1833 009f 01       		.byte	0x1
 1834 00a0 49       		.uleb128 0x49
 1835 00a1 13       		.uleb128 0x13
 1836 00a2 01       		.uleb128 0x1
 1837 00a3 13       		.uleb128 0x13
 1838 00a4 00       		.byte	0
 1839 00a5 00       		.byte	0
 1840 00a6 0F       		.uleb128 0xf
 1841 00a7 21       		.uleb128 0x21
 1842 00a8 00       		.byte	0
 1843 00a9 49       		.uleb128 0x49
 1844 00aa 13       		.uleb128 0x13
 1845 00ab 2F       		.uleb128 0x2f
 1846 00ac 0B       		.uleb128 0xb
 1847 00ad 00       		.byte	0
 1848 00ae 00       		.byte	0
 1849 00af 10       		.uleb128 0x10
 1850 00b0 2E       		.uleb128 0x2e
 1851 00b1 01       		.byte	0x1
 1852 00b2 3F       		.uleb128 0x3f
 1853 00b3 0C       		.uleb128 0xc
 1854 00b4 03       		.uleb128 0x3
 1855 00b5 0E       		.uleb128 0xe
 1856 00b6 3A       		.uleb128 0x3a
 1857 00b7 0B       		.uleb128 0xb
 1858 00b8 3B       		.uleb128 0x3b
 1859 00b9 0B       		.uleb128 0xb
 1860 00ba 27       		.uleb128 0x27
 1861 00bb 0C       		.uleb128 0xc
 1862 00bc 49       		.uleb128 0x49
 1863 00bd 13       		.uleb128 0x13
 1864 00be 11       		.uleb128 0x11
 1865 00bf 01       		.uleb128 0x1
 1866 00c0 12       		.uleb128 0x12
 1867 00c1 01       		.uleb128 0x1
 1868 00c2 40       		.uleb128 0x40
 1869 00c3 06       		.uleb128 0x6
 1870 00c4 01       		.uleb128 0x1
 1871 00c5 13       		.uleb128 0x13
 1872 00c6 00       		.byte	0
ARM GAS  /tmp/ccx9xId3.s 			page 34


 1873 00c7 00       		.byte	0
 1874 00c8 11       		.uleb128 0x11
 1875 00c9 05       		.uleb128 0x5
 1876 00ca 00       		.byte	0
 1877 00cb 03       		.uleb128 0x3
 1878 00cc 08       		.uleb128 0x8
 1879 00cd 3A       		.uleb128 0x3a
 1880 00ce 0B       		.uleb128 0xb
 1881 00cf 3B       		.uleb128 0x3b
 1882 00d0 0B       		.uleb128 0xb
 1883 00d1 49       		.uleb128 0x49
 1884 00d2 13       		.uleb128 0x13
 1885 00d3 02       		.uleb128 0x2
 1886 00d4 0A       		.uleb128 0xa
 1887 00d5 00       		.byte	0
 1888 00d6 00       		.byte	0
 1889 00d7 12       		.uleb128 0x12
 1890 00d8 34       		.uleb128 0x34
 1891 00d9 00       		.byte	0
 1892 00da 03       		.uleb128 0x3
 1893 00db 08       		.uleb128 0x8
 1894 00dc 3A       		.uleb128 0x3a
 1895 00dd 0B       		.uleb128 0xb
 1896 00de 3B       		.uleb128 0x3b
 1897 00df 0B       		.uleb128 0xb
 1898 00e0 49       		.uleb128 0x49
 1899 00e1 13       		.uleb128 0x13
 1900 00e2 02       		.uleb128 0x2
 1901 00e3 0A       		.uleb128 0xa
 1902 00e4 00       		.byte	0
 1903 00e5 00       		.byte	0
 1904 00e6 13       		.uleb128 0x13
 1905 00e7 34       		.uleb128 0x34
 1906 00e8 00       		.byte	0
 1907 00e9 03       		.uleb128 0x3
 1908 00ea 0E       		.uleb128 0xe
 1909 00eb 3A       		.uleb128 0x3a
 1910 00ec 0B       		.uleb128 0xb
 1911 00ed 3B       		.uleb128 0x3b
 1912 00ee 0B       		.uleb128 0xb
 1913 00ef 49       		.uleb128 0x49
 1914 00f0 13       		.uleb128 0x13
 1915 00f1 02       		.uleb128 0x2
 1916 00f2 0A       		.uleb128 0xa
 1917 00f3 00       		.byte	0
 1918 00f4 00       		.byte	0
 1919 00f5 14       		.uleb128 0x14
 1920 00f6 05       		.uleb128 0x5
 1921 00f7 00       		.byte	0
 1922 00f8 03       		.uleb128 0x3
 1923 00f9 0E       		.uleb128 0xe
 1924 00fa 3A       		.uleb128 0x3a
 1925 00fb 0B       		.uleb128 0xb
 1926 00fc 3B       		.uleb128 0x3b
 1927 00fd 0B       		.uleb128 0xb
 1928 00fe 49       		.uleb128 0x49
 1929 00ff 13       		.uleb128 0x13
ARM GAS  /tmp/ccx9xId3.s 			page 35


 1930 0100 02       		.uleb128 0x2
 1931 0101 0A       		.uleb128 0xa
 1932 0102 00       		.byte	0
 1933 0103 00       		.byte	0
 1934 0104 15       		.uleb128 0x15
 1935 0105 2E       		.uleb128 0x2e
 1936 0106 01       		.byte	0x1
 1937 0107 3F       		.uleb128 0x3f
 1938 0108 0C       		.uleb128 0xc
 1939 0109 03       		.uleb128 0x3
 1940 010a 0E       		.uleb128 0xe
 1941 010b 3A       		.uleb128 0x3a
 1942 010c 0B       		.uleb128 0xb
 1943 010d 3B       		.uleb128 0x3b
 1944 010e 0B       		.uleb128 0xb
 1945 010f 27       		.uleb128 0x27
 1946 0110 0C       		.uleb128 0xc
 1947 0111 11       		.uleb128 0x11
 1948 0112 01       		.uleb128 0x1
 1949 0113 12       		.uleb128 0x12
 1950 0114 01       		.uleb128 0x1
 1951 0115 40       		.uleb128 0x40
 1952 0116 06       		.uleb128 0x6
 1953 0117 01       		.uleb128 0x1
 1954 0118 13       		.uleb128 0x13
 1955 0119 00       		.byte	0
 1956 011a 00       		.byte	0
 1957 011b 16       		.uleb128 0x16
 1958 011c 2E       		.uleb128 0x2e
 1959 011d 01       		.byte	0x1
 1960 011e 3F       		.uleb128 0x3f
 1961 011f 0C       		.uleb128 0xc
 1962 0120 03       		.uleb128 0x3
 1963 0121 0E       		.uleb128 0xe
 1964 0122 3A       		.uleb128 0x3a
 1965 0123 0B       		.uleb128 0xb
 1966 0124 3B       		.uleb128 0x3b
 1967 0125 05       		.uleb128 0x5
 1968 0126 27       		.uleb128 0x27
 1969 0127 0C       		.uleb128 0xc
 1970 0128 49       		.uleb128 0x49
 1971 0129 13       		.uleb128 0x13
 1972 012a 11       		.uleb128 0x11
 1973 012b 01       		.uleb128 0x1
 1974 012c 12       		.uleb128 0x12
 1975 012d 01       		.uleb128 0x1
 1976 012e 40       		.uleb128 0x40
 1977 012f 06       		.uleb128 0x6
 1978 0130 01       		.uleb128 0x1
 1979 0131 13       		.uleb128 0x13
 1980 0132 00       		.byte	0
 1981 0133 00       		.byte	0
 1982 0134 17       		.uleb128 0x17
 1983 0135 05       		.uleb128 0x5
 1984 0136 00       		.byte	0
 1985 0137 03       		.uleb128 0x3
 1986 0138 08       		.uleb128 0x8
ARM GAS  /tmp/ccx9xId3.s 			page 36


 1987 0139 3A       		.uleb128 0x3a
 1988 013a 0B       		.uleb128 0xb
 1989 013b 3B       		.uleb128 0x3b
 1990 013c 05       		.uleb128 0x5
 1991 013d 49       		.uleb128 0x49
 1992 013e 13       		.uleb128 0x13
 1993 013f 02       		.uleb128 0x2
 1994 0140 0A       		.uleb128 0xa
 1995 0141 00       		.byte	0
 1996 0142 00       		.byte	0
 1997 0143 18       		.uleb128 0x18
 1998 0144 2E       		.uleb128 0x2e
 1999 0145 01       		.byte	0x1
 2000 0146 3F       		.uleb128 0x3f
 2001 0147 0C       		.uleb128 0xc
 2002 0148 03       		.uleb128 0x3
 2003 0149 0E       		.uleb128 0xe
 2004 014a 3A       		.uleb128 0x3a
 2005 014b 0B       		.uleb128 0xb
 2006 014c 3B       		.uleb128 0x3b
 2007 014d 05       		.uleb128 0x5
 2008 014e 27       		.uleb128 0x27
 2009 014f 0C       		.uleb128 0xc
 2010 0150 11       		.uleb128 0x11
 2011 0151 01       		.uleb128 0x1
 2012 0152 12       		.uleb128 0x12
 2013 0153 01       		.uleb128 0x1
 2014 0154 40       		.uleb128 0x40
 2015 0155 06       		.uleb128 0x6
 2016 0156 01       		.uleb128 0x1
 2017 0157 13       		.uleb128 0x13
 2018 0158 00       		.byte	0
 2019 0159 00       		.byte	0
 2020 015a 19       		.uleb128 0x19
 2021 015b 34       		.uleb128 0x34
 2022 015c 00       		.byte	0
 2023 015d 03       		.uleb128 0x3
 2024 015e 0E       		.uleb128 0xe
 2025 015f 3A       		.uleb128 0x3a
 2026 0160 0B       		.uleb128 0xb
 2027 0161 3B       		.uleb128 0x3b
 2028 0162 05       		.uleb128 0x5
 2029 0163 49       		.uleb128 0x49
 2030 0164 13       		.uleb128 0x13
 2031 0165 02       		.uleb128 0x2
 2032 0166 0A       		.uleb128 0xa
 2033 0167 00       		.byte	0
 2034 0168 00       		.byte	0
 2035 0169 1A       		.uleb128 0x1a
 2036 016a 05       		.uleb128 0x5
 2037 016b 00       		.byte	0
 2038 016c 03       		.uleb128 0x3
 2039 016d 0E       		.uleb128 0xe
 2040 016e 3A       		.uleb128 0x3a
 2041 016f 0B       		.uleb128 0xb
 2042 0170 3B       		.uleb128 0x3b
 2043 0171 05       		.uleb128 0x5
ARM GAS  /tmp/ccx9xId3.s 			page 37


 2044 0172 49       		.uleb128 0x49
 2045 0173 13       		.uleb128 0x13
 2046 0174 02       		.uleb128 0x2
 2047 0175 0A       		.uleb128 0xa
 2048 0176 00       		.byte	0
 2049 0177 00       		.byte	0
 2050 0178 1B       		.uleb128 0x1b
 2051 0179 34       		.uleb128 0x34
 2052 017a 00       		.byte	0
 2053 017b 03       		.uleb128 0x3
 2054 017c 08       		.uleb128 0x8
 2055 017d 3A       		.uleb128 0x3a
 2056 017e 0B       		.uleb128 0xb
 2057 017f 3B       		.uleb128 0x3b
 2058 0180 05       		.uleb128 0x5
 2059 0181 49       		.uleb128 0x49
 2060 0182 13       		.uleb128 0x13
 2061 0183 02       		.uleb128 0x2
 2062 0184 0A       		.uleb128 0xa
 2063 0185 00       		.byte	0
 2064 0186 00       		.byte	0
 2065 0187 1C       		.uleb128 0x1c
 2066 0188 34       		.uleb128 0x34
 2067 0189 00       		.byte	0
 2068 018a 03       		.uleb128 0x3
 2069 018b 0E       		.uleb128 0xe
 2070 018c 3A       		.uleb128 0x3a
 2071 018d 0B       		.uleb128 0xb
 2072 018e 3B       		.uleb128 0x3b
 2073 018f 0B       		.uleb128 0xb
 2074 0190 49       		.uleb128 0x49
 2075 0191 13       		.uleb128 0x13
 2076 0192 3F       		.uleb128 0x3f
 2077 0193 0C       		.uleb128 0xc
 2078 0194 3C       		.uleb128 0x3c
 2079 0195 0C       		.uleb128 0xc
 2080 0196 00       		.byte	0
 2081 0197 00       		.byte	0
 2082 0198 00       		.byte	0
 2083              		.section	.debug_loc,"",%progbits
 2084              	.Ldebug_loc0:
 2085              	.LLST0:
 2086 0000 00000000 		.4byte	.LFB7
 2087 0004 02000000 		.4byte	.LCFI0
 2088 0008 0200     		.2byte	0x2
 2089 000a 7D       		.byte	0x7d
 2090 000b 00       		.sleb128 0
 2091 000c 02000000 		.4byte	.LCFI0
 2092 0010 04000000 		.4byte	.LCFI1
 2093 0014 0200     		.2byte	0x2
 2094 0016 7D       		.byte	0x7d
 2095 0017 08       		.sleb128 8
 2096 0018 04000000 		.4byte	.LCFI1
 2097 001c DE000000 		.4byte	.LFE7
 2098 0020 0200     		.2byte	0x2
 2099 0022 7D       		.byte	0x7d
 2100 0023 28       		.sleb128 40
ARM GAS  /tmp/ccx9xId3.s 			page 38


 2101 0024 00000000 		.4byte	0
 2102 0028 00000000 		.4byte	0
 2103              	.LLST1:
 2104 002c 00000000 		.4byte	.LFB8
 2105 0030 02000000 		.4byte	.LCFI2
 2106 0034 0200     		.2byte	0x2
 2107 0036 7D       		.byte	0x7d
 2108 0037 00       		.sleb128 0
 2109 0038 02000000 		.4byte	.LCFI2
 2110 003c 26000000 		.4byte	.LFE8
 2111 0040 0200     		.2byte	0x2
 2112 0042 7D       		.byte	0x7d
 2113 0043 08       		.sleb128 8
 2114 0044 00000000 		.4byte	0
 2115 0048 00000000 		.4byte	0
 2116              	.LLST2:
 2117 004c 00000000 		.4byte	.LFB9
 2118 0050 02000000 		.4byte	.LCFI3
 2119 0054 0200     		.2byte	0x2
 2120 0056 7D       		.byte	0x7d
 2121 0057 00       		.sleb128 0
 2122 0058 02000000 		.4byte	.LCFI3
 2123 005c 26000000 		.4byte	.LFE9
 2124 0060 0200     		.2byte	0x2
 2125 0062 7D       		.byte	0x7d
 2126 0063 08       		.sleb128 8
 2127 0064 00000000 		.4byte	0
 2128 0068 00000000 		.4byte	0
 2129              	.LLST3:
 2130 006c 00000000 		.4byte	.LFB10
 2131 0070 02000000 		.4byte	.LCFI4
 2132 0074 0200     		.2byte	0x2
 2133 0076 7D       		.byte	0x7d
 2134 0077 00       		.sleb128 0
 2135 0078 02000000 		.4byte	.LCFI4
 2136 007c 18000000 		.4byte	.LFE10
 2137 0080 0200     		.2byte	0x2
 2138 0082 7D       		.byte	0x7d
 2139 0083 10       		.sleb128 16
 2140 0084 00000000 		.4byte	0
 2141 0088 00000000 		.4byte	0
 2142              	.LLST4:
 2143 008c 00000000 		.4byte	.LFB11
 2144 0090 02000000 		.4byte	.LCFI5
 2145 0094 0200     		.2byte	0x2
 2146 0096 7D       		.byte	0x7d
 2147 0097 00       		.sleb128 0
 2148 0098 02000000 		.4byte	.LCFI5
 2149 009c 04000000 		.4byte	.LCFI6
 2150 00a0 0200     		.2byte	0x2
 2151 00a2 7D       		.byte	0x7d
 2152 00a3 04       		.sleb128 4
 2153 00a4 04000000 		.4byte	.LCFI6
 2154 00a8 E8000000 		.4byte	.LFE11
 2155 00ac 0200     		.2byte	0x2
 2156 00ae 7D       		.byte	0x7d
 2157 00af 38       		.sleb128 56
ARM GAS  /tmp/ccx9xId3.s 			page 39


 2158 00b0 00000000 		.4byte	0
 2159 00b4 00000000 		.4byte	0
 2160              	.LLST5:
 2161 00b8 00000000 		.4byte	.LFB12
 2162 00bc 02000000 		.4byte	.LCFI7
 2163 00c0 0200     		.2byte	0x2
 2164 00c2 7D       		.byte	0x7d
 2165 00c3 00       		.sleb128 0
 2166 00c4 02000000 		.4byte	.LCFI7
 2167 00c8 04000000 		.4byte	.LCFI8
 2168 00cc 0200     		.2byte	0x2
 2169 00ce 7D       		.byte	0x7d
 2170 00cf 04       		.sleb128 4
 2171 00d0 04000000 		.4byte	.LCFI8
 2172 00d4 20000000 		.4byte	.LFE12
 2173 00d8 0200     		.2byte	0x2
 2174 00da 7D       		.byte	0x7d
 2175 00db 10       		.sleb128 16
 2176 00dc 00000000 		.4byte	0
 2177 00e0 00000000 		.4byte	0
 2178              	.LLST6:
 2179 00e4 00000000 		.4byte	.LFB13
 2180 00e8 02000000 		.4byte	.LCFI9
 2181 00ec 0200     		.2byte	0x2
 2182 00ee 7D       		.byte	0x7d
 2183 00ef 00       		.sleb128 0
 2184 00f0 02000000 		.4byte	.LCFI9
 2185 00f4 04000000 		.4byte	.LCFI10
 2186 00f8 0200     		.2byte	0x2
 2187 00fa 7D       		.byte	0x7d
 2188 00fb 04       		.sleb128 4
 2189 00fc 04000000 		.4byte	.LCFI10
 2190 0100 70000000 		.4byte	.LFE13
 2191 0104 0200     		.2byte	0x2
 2192 0106 7D       		.byte	0x7d
 2193 0107 18       		.sleb128 24
 2194 0108 00000000 		.4byte	0
 2195 010c 00000000 		.4byte	0
 2196              	.LLST7:
 2197 0110 00000000 		.4byte	.LFB14
 2198 0114 02000000 		.4byte	.LCFI11
 2199 0118 0200     		.2byte	0x2
 2200 011a 7D       		.byte	0x7d
 2201 011b 00       		.sleb128 0
 2202 011c 02000000 		.4byte	.LCFI11
 2203 0120 04000000 		.4byte	.LCFI12
 2204 0124 0200     		.2byte	0x2
 2205 0126 7D       		.byte	0x7d
 2206 0127 04       		.sleb128 4
 2207 0128 04000000 		.4byte	.LCFI12
 2208 012c 62000000 		.4byte	.LFE14
 2209 0130 0200     		.2byte	0x2
 2210 0132 7D       		.byte	0x7d
 2211 0133 18       		.sleb128 24
 2212 0134 00000000 		.4byte	0
 2213 0138 00000000 		.4byte	0
 2214              		.section	.debug_aranges,"",%progbits
ARM GAS  /tmp/ccx9xId3.s 			page 40


 2215 0000 54000000 		.4byte	0x54
 2216 0004 0200     		.2byte	0x2
 2217 0006 00000000 		.4byte	.Ldebug_info0
 2218 000a 04       		.byte	0x4
 2219 000b 00       		.byte	0
 2220 000c 0000     		.2byte	0
 2221 000e 0000     		.2byte	0
 2222 0010 00000000 		.4byte	.LFB7
 2223 0014 DE000000 		.4byte	.LFE7-.LFB7
 2224 0018 00000000 		.4byte	.LFB8
 2225 001c 26000000 		.4byte	.LFE8-.LFB8
 2226 0020 00000000 		.4byte	.LFB9
 2227 0024 26000000 		.4byte	.LFE9-.LFB9
 2228 0028 00000000 		.4byte	.LFB10
 2229 002c 18000000 		.4byte	.LFE10-.LFB10
 2230 0030 00000000 		.4byte	.LFB11
 2231 0034 E8000000 		.4byte	.LFE11-.LFB11
 2232 0038 00000000 		.4byte	.LFB12
 2233 003c 20000000 		.4byte	.LFE12-.LFB12
 2234 0040 00000000 		.4byte	.LFB13
 2235 0044 70000000 		.4byte	.LFE13-.LFB13
 2236 0048 00000000 		.4byte	.LFB14
 2237 004c 62000000 		.4byte	.LFE14-.LFB14
 2238 0050 00000000 		.4byte	0
 2239 0054 00000000 		.4byte	0
 2240              		.section	.debug_ranges,"",%progbits
 2241              	.Ldebug_ranges0:
 2242 0000 00000000 		.4byte	.LFB7
 2243 0004 DE000000 		.4byte	.LFE7
 2244 0008 00000000 		.4byte	.LFB8
 2245 000c 26000000 		.4byte	.LFE8
 2246 0010 00000000 		.4byte	.LFB9
 2247 0014 26000000 		.4byte	.LFE9
 2248 0018 00000000 		.4byte	.LFB10
 2249 001c 18000000 		.4byte	.LFE10
 2250 0020 00000000 		.4byte	.LFB11
 2251 0024 E8000000 		.4byte	.LFE11
 2252 0028 00000000 		.4byte	.LFB12
 2253 002c 20000000 		.4byte	.LFE12
 2254 0030 00000000 		.4byte	.LFB13
 2255 0034 70000000 		.4byte	.LFE13
 2256 0038 00000000 		.4byte	.LFB14
 2257 003c 62000000 		.4byte	.LFE14
 2258 0040 00000000 		.4byte	0
 2259 0044 00000000 		.4byte	0
 2260              		.section	.debug_line,"",%progbits
 2261              	.Ldebug_line0:
 2262 0000 C0020000 		.section	.debug_str,"MS",%progbits,1
 2262      02007C01 
 2262      00000201 
 2262      FB0E0D00 
 2262      01010101 
 2263              	.LASF37:
 2264 0000 61646472 		.ascii	"addr\000"
 2264      00
 2265              	.LASF15:
 2266 0005 75385F74 		.ascii	"u8_t\000"
ARM GAS  /tmp/ccx9xId3.s 			page 41


 2266      00
 2267              	.LASF72:
 2268 000a 5F70726F 		.ascii	"_proto\000"
 2268      746F00
 2269              	.LASF62:
 2270 0011 68776164 		.ascii	"hwaddr\000"
 2270      647200
 2271              	.LASF2:
 2272 0018 696E7438 		.ascii	"int8_t\000"
 2272      5F7400
 2273              	.LASF60:
 2274 001f 73746174 		.ascii	"state\000"
 2274      6500
 2275              	.LASF65:
 2276 0025 6E657469 		.ascii	"netif_output_fn\000"
 2276      665F6F75 
 2276      74707574 
 2276      5F666E00 
 2277              	.LASF89:
 2278 0035 69706164 		.ascii	"ipaddr\000"
 2278      647200
 2279              	.LASF6:
 2280 003c 73686F72 		.ascii	"short int\000"
 2280      7420696E 
 2280      7400
 2281              	.LASF27:
 2282 0046 4D454D50 		.ascii	"MEMP_NETBUF\000"
 2282      5F4E4554 
 2282      42554600 
 2283              	.LASF57:
 2284 0052 696E7075 		.ascii	"input\000"
 2284      7400
 2285              	.LASF67:
 2286 0058 69705F68 		.ascii	"ip_hdr\000"
 2286      647200
 2287              	.LASF70:
 2288 005f 5F6F6666 		.ascii	"_offset\000"
 2288      73657400 
 2289              	.LASF78:
 2290 0067 72656D6F 		.ascii	"remote_ip\000"
 2290      74655F69 
 2290      7000
 2291              	.LASF102:
 2292 0071 2E2E2F2E 		.ascii	"../../ext/lwip/src/core/raw.c\000"
 2292      2E2F6578 
 2292      742F6C77 
 2292      69702F73 
 2292      72632F63 
 2293              	.LASF75:
 2294 008f 7261775F 		.ascii	"raw_recv_fn\000"
 2294      72656376 
 2294      5F666E00 
 2295              	.LASF18:
 2296 009b 7331365F 		.ascii	"s16_t\000"
 2296      7400
 2297              	.LASF61:
 2298 00a1 68776164 		.ascii	"hwaddr_len\000"
ARM GAS  /tmp/ccx9xId3.s 			page 42


 2298      64725F6C 
 2298      656E00
 2299              	.LASF66:
 2300 00ac 6E657469 		.ascii	"netif_linkoutput_fn\000"
 2300      665F6C69 
 2300      6E6B6F75 
 2300      74707574 
 2300      5F666E00 
 2301              	.LASF69:
 2302 00c0 5F6C656E 		.ascii	"_len\000"
 2302      00
 2303              	.LASF31:
 2304 00c5 4D454D50 		.ascii	"MEMP_SYS_TIMEOUT\000"
 2304      5F535953 
 2304      5F54494D 
 2304      454F5554 
 2304      00
 2305              	.LASF26:
 2306 00d6 4D454D50 		.ascii	"MEMP_FRAG_PBUF\000"
 2306      5F465241 
 2306      475F5042 
 2306      554600
 2307              	.LASF94:
 2308 00e5 7261775F 		.ascii	"raw_recv\000"
 2308      72656376 
 2308      00
 2309              	.LASF45:
 2310 00ee 50425546 		.ascii	"PBUF_RAM\000"
 2310      5F52414D 
 2310      00
 2311              	.LASF35:
 2312 00f7 69705F61 		.ascii	"ip_addr\000"
 2312      64647200 
 2313              	.LASF23:
 2314 00ff 4D454D50 		.ascii	"MEMP_TCP_PCB_LISTEN\000"
 2314      5F544350 
 2314      5F504342 
 2314      5F4C4953 
 2314      54454E00 
 2315              	.LASF71:
 2316 0113 5F74746C 		.ascii	"_ttl\000"
 2316      00
 2317              	.LASF101:
 2318 0118 474E5520 		.ascii	"GNU C 4.6.2 20120613 (release) [ARM/embedded-4_6-br"
 2318      4320342E 
 2318      362E3220 
 2318      32303132 
 2318      30363133 
 2319 014b 616E6368 		.ascii	"anch revision 188521]\000"
 2319      20726576 
 2319      6973696F 
 2319      6E203138 
 2319      38353231 
 2320              	.LASF44:
 2321 0161 50425546 		.ascii	"PBUF_RAW\000"
 2321      5F524157 
 2321      00
ARM GAS  /tmp/ccx9xId3.s 			page 43


 2322              	.LASF98:
 2323 016a 63757272 		.ascii	"current_iphdr_src\000"
 2323      656E745F 
 2323      69706864 
 2323      725F7372 
 2323      6300
 2324              	.LASF1:
 2325 017c 7369676E 		.ascii	"signed char\000"
 2325      65642063 
 2325      68617200 
 2326              	.LASF21:
 2327 0188 4D454D50 		.ascii	"MEMP_UDP_PCB\000"
 2327      5F554450 
 2327      5F504342 
 2327      00
 2328              	.LASF59:
 2329 0195 6C696E6B 		.ascii	"linkoutput\000"
 2329      6F757470 
 2329      757400
 2330              	.LASF16:
 2331 01a0 73385F74 		.ascii	"s8_t\000"
 2331      00
 2332              	.LASF84:
 2333 01a5 69706864 		.ascii	"iphdr\000"
 2333      7200
 2334              	.LASF77:
 2335 01ab 6C6F6361 		.ascii	"local_ip\000"
 2335      6C5F6970 
 2335      00
 2336              	.LASF12:
 2337 01b4 6C6F6E67 		.ascii	"long long int\000"
 2337      206C6F6E 
 2337      6720696E 
 2337      7400
 2338              	.LASF68:
 2339 01c2 5F765F68 		.ascii	"_v_hl_tos\000"
 2339      6C5F746F 
 2339      7300
 2340              	.LASF52:
 2341 01cc 746F745F 		.ascii	"tot_len\000"
 2341      6C656E00 
 2342              	.LASF93:
 2343 01d4 7261775F 		.ascii	"raw_send\000"
 2343      73656E64 
 2343      00
 2344              	.LASF9:
 2345 01dd 6C6F6E67 		.ascii	"long int\000"
 2345      20696E74 
 2345      00
 2346              	.LASF38:
 2347 01e6 69705F61 		.ascii	"ip_addr_t\000"
 2347      6464725F 
 2347      7400
 2348              	.LASF95:
 2349 01f0 7261775F 		.ascii	"raw_remove\000"
 2349      72656D6F 
 2349      766500
ARM GAS  /tmp/ccx9xId3.s 			page 44


 2350              	.LASF85:
 2351 01fb 70726F74 		.ascii	"proto\000"
 2351      6F00
 2352              	.LASF74:
 2353 0201 64657374 		.ascii	"dest\000"
 2353      00
 2354              	.LASF73:
 2355 0206 5F63686B 		.ascii	"_chksum\000"
 2355      73756D00 
 2356              	.LASF63:
 2357 020e 6E616D65 		.ascii	"name\000"
 2357      00
 2358              	.LASF4:
 2359 0213 756E7369 		.ascii	"unsigned char\000"
 2359      676E6564 
 2359      20636861 
 2359      7200
 2360              	.LASF64:
 2361 0221 6E657469 		.ascii	"netif_input_fn\000"
 2361      665F696E 
 2361      7075745F 
 2361      666E00
 2362              	.LASF88:
 2363 0230 7261775F 		.ascii	"raw_bind\000"
 2363      62696E64 
 2363      00
 2364              	.LASF81:
 2365 0239 72656376 		.ascii	"recv\000"
 2365      00
 2366              	.LASF34:
 2367 023e 4D454D50 		.ascii	"MEMP_MAX\000"
 2367      5F4D4158 
 2367      00
 2368              	.LASF87:
 2369 0247 7261775F 		.ascii	"raw_input\000"
 2369      696E7075 
 2369      7400
 2370              	.LASF28:
 2371 0251 4D454D50 		.ascii	"MEMP_NETCONN\000"
 2371      5F4E4554 
 2371      434F4E4E 
 2371      00
 2372              	.LASF54:
 2373 025e 666C6167 		.ascii	"flags\000"
 2373      7300
 2374              	.LASF13:
 2375 0264 6C6F6E67 		.ascii	"long long unsigned int\000"
 2375      206C6F6E 
 2375      6720756E 
 2375      7369676E 
 2375      65642069 
 2376              	.LASF10:
 2377 027b 75696E74 		.ascii	"uint32_t\000"
 2377      33325F74 
 2377      00
 2378              	.LASF0:
 2379 0284 756E7369 		.ascii	"unsigned int\000"
ARM GAS  /tmp/ccx9xId3.s 			page 45


 2379      676E6564 
 2379      20696E74 
 2379      00
 2380              	.LASF7:
 2381 0291 75696E74 		.ascii	"uint16_t\000"
 2381      31365F74 
 2381      00
 2382              	.LASF86:
 2383 029a 65617465 		.ascii	"eaten\000"
 2383      6E00
 2384              	.LASF47:
 2385 02a0 50425546 		.ascii	"PBUF_REF\000"
 2385      5F524546 
 2385      00
 2386              	.LASF96:
 2387 02a9 70636232 		.ascii	"pcb2\000"
 2387      00
 2388              	.LASF82:
 2389 02ae 72656376 		.ascii	"recv_arg\000"
 2389      5F617267 
 2389      00
 2390              	.LASF48:
 2391 02b7 50425546 		.ascii	"PBUF_POOL\000"
 2391      5F504F4F 
 2391      4C00
 2392              	.LASF25:
 2393 02c1 4D454D50 		.ascii	"MEMP_REASSDATA\000"
 2393      5F524541 
 2393      53534441 
 2393      544100
 2394              	.LASF40:
 2395 02d0 6572725F 		.ascii	"err_t\000"
 2395      7400
 2396              	.LASF14:
 2397 02d6 63686172 		.ascii	"char\000"
 2397      00
 2398              	.LASF92:
 2399 02db 7372635F 		.ascii	"src_ip\000"
 2399      697000
 2400              	.LASF53:
 2401 02e2 74797065 		.ascii	"type\000"
 2401      00
 2402              	.LASF29:
 2403 02e7 4D454D50 		.ascii	"MEMP_TCPIP_MSG_API\000"
 2403      5F544350 
 2403      49505F4D 
 2403      53475F41 
 2403      504900
 2404              	.LASF100:
 2405 02fa 7261775F 		.ascii	"raw_pcbs\000"
 2405      70636273 
 2405      00
 2406              	.LASF8:
 2407 0303 73686F72 		.ascii	"short unsigned int\000"
 2407      7420756E 
 2407      7369676E 
 2407      65642069 
ARM GAS  /tmp/ccx9xId3.s 			page 46


 2407      6E7400
 2408              	.LASF91:
 2409 0316 7261775F 		.ascii	"raw_sendto\000"
 2409      73656E64 
 2409      746F00
 2410              	.LASF5:
 2411 0321 696E7431 		.ascii	"int16_t\000"
 2411      365F7400 
 2412              	.LASF32:
 2413 0329 4D454D50 		.ascii	"MEMP_PBUF\000"
 2413      5F504255 
 2413      4600
 2414              	.LASF80:
 2415 0333 70726F74 		.ascii	"protocol\000"
 2415      6F636F6C 
 2415      00
 2416              	.LASF41:
 2417 033c 50425546 		.ascii	"PBUF_TRANSPORT\000"
 2417      5F545241 
 2417      4E53504F 
 2417      525400
 2418              	.LASF42:
 2419 034b 50425546 		.ascii	"PBUF_IP\000"
 2419      5F495000 
 2420              	.LASF11:
 2421 0353 6C6F6E67 		.ascii	"long unsigned int\000"
 2421      20756E73 
 2421      69676E65 
 2421      6420696E 
 2421      7400
 2422              	.LASF90:
 2423 0365 7261775F 		.ascii	"raw_connect\000"
 2423      636F6E6E 
 2423      65637400 
 2424              	.LASF97:
 2425 0371 7261775F 		.ascii	"raw_new\000"
 2425      6E657700 
 2426              	.LASF39:
 2427 0379 69705F61 		.ascii	"ip_addr_p_t\000"
 2427      6464725F 
 2427      705F7400 
 2428              	.LASF20:
 2429 0385 4D454D50 		.ascii	"MEMP_RAW_PCB\000"
 2429      5F524157 
 2429      5F504342 
 2429      00
 2430              	.LASF55:
 2431 0392 6E657469 		.ascii	"netif\000"
 2431      6600
 2432              	.LASF103:
 2433 0398 2F686F6D 		.ascii	"/home/texzk/ChibiStudio/chibios/demos/ARMCM3-STM32F"
 2433      652F7465 
 2433      787A6B2F 
 2433      43686962 
 2433      69537475 
 2434 03cb 3230372D 		.ascii	"207-STM3220G-LWIP\000"
 2434      53544D33 
ARM GAS  /tmp/ccx9xId3.s 			page 47


 2434      32323047 
 2434      2D4C5749 
 2434      5000
 2435              	.LASF56:
 2436 03dd 6E65746D 		.ascii	"netmask\000"
 2436      61736B00 
 2437              	.LASF19:
 2438 03e5 7533325F 		.ascii	"u32_t\000"
 2438      7400
 2439              	.LASF3:
 2440 03eb 75696E74 		.ascii	"uint8_t\000"
 2440      385F7400 
 2441              	.LASF17:
 2442 03f3 7531365F 		.ascii	"u16_t\000"
 2442      7400
 2443              	.LASF33:
 2444 03f9 4D454D50 		.ascii	"MEMP_PBUF_POOL\000"
 2444      5F504255 
 2444      465F504F 
 2444      4F4C00
 2445              	.LASF24:
 2446 0408 4D454D50 		.ascii	"MEMP_TCP_SEG\000"
 2446      5F544350 
 2446      5F534547 
 2446      00
 2447              	.LASF99:
 2448 0415 63757272 		.ascii	"current_iphdr_dest\000"
 2448      656E745F 
 2448      69706864 
 2448      725F6465 
 2448      737400
 2449              	.LASF30:
 2450 0428 4D454D50 		.ascii	"MEMP_TCPIP_MSG_INPKT\000"
 2450      5F544350 
 2450      49505F4D 
 2450      53475F49 
 2450      4E504B54 
 2451              	.LASF79:
 2452 043d 736F5F6F 		.ascii	"so_options\000"
 2452      7074696F 
 2452      6E7300
 2453              	.LASF58:
 2454 0448 6F757470 		.ascii	"output\000"
 2454      757400
 2455              	.LASF22:
 2456 044f 4D454D50 		.ascii	"MEMP_TCP_PCB\000"
 2456      5F544350 
 2456      5F504342 
 2456      00
 2457              	.LASF76:
 2458 045c 7261775F 		.ascii	"raw_pcb\000"
 2458      70636200 
 2459              	.LASF36:
 2460 0464 69705F61 		.ascii	"ip_addr_packed\000"
 2460      6464725F 
 2460      7061636B 
 2460      656400
ARM GAS  /tmp/ccx9xId3.s 			page 48


 2461              	.LASF83:
 2462 0473 70726576 		.ascii	"prev\000"
 2462      00
 2463              	.LASF46:
 2464 0478 50425546 		.ascii	"PBUF_ROM\000"
 2464      5F524F4D 
 2464      00
 2465              	.LASF51:
 2466 0481 7061796C 		.ascii	"payload\000"
 2466      6F616400 
 2467              	.LASF50:
 2468 0489 6E657874 		.ascii	"next\000"
 2468      00
 2469              	.LASF49:
 2470 048e 70627566 		.ascii	"pbuf\000"
 2470      00
 2471              	.LASF43:
 2472 0493 50425546 		.ascii	"PBUF_LINK\000"
 2472      5F4C494E 
 2472      4B00
 2473              		.ident	"GCC: (GNU Tools for ARM Embedded Processors) 4.6.2 20120613 (release) [ARM/embedded-4_6-br
ARM GAS  /tmp/ccx9xId3.s 			page 49


DEFINED SYMBOLS
                            *ABS*:00000000 raw.c
     /tmp/ccx9xId3.s:19     .bss.raw_pcbs:00000000 $d
     /tmp/ccx9xId3.s:22     .bss.raw_pcbs:00000000 raw_pcbs
     /tmp/ccx9xId3.s:25     .text.raw_input:00000000 $t
     /tmp/ccx9xId3.s:31     .text.raw_input:00000000 raw_input
     /tmp/ccx9xId3.s:170    .text.raw_bind:00000000 $t
     /tmp/ccx9xId3.s:176    .text.raw_bind:00000000 raw_bind
     /tmp/ccx9xId3.s:214    .text.raw_connect:00000000 $t
     /tmp/ccx9xId3.s:220    .text.raw_connect:00000000 raw_connect
     /tmp/ccx9xId3.s:258    .text.raw_recv:00000000 $t
     /tmp/ccx9xId3.s:264    .text.raw_recv:00000000 raw_recv
     /tmp/ccx9xId3.s:292    .text.raw_sendto:00000000 $t
     /tmp/ccx9xId3.s:298    .text.raw_sendto:00000000 raw_sendto
     /tmp/ccx9xId3.s:442    .text.raw_send:00000000 $t
     /tmp/ccx9xId3.s:448    .text.raw_send:00000000 raw_send
     /tmp/ccx9xId3.s:479    .text.raw_remove:00000000 $t
     /tmp/ccx9xId3.s:485    .text.raw_remove:00000000 raw_remove
     /tmp/ccx9xId3.s:561    .text.raw_new:00000000 $t
     /tmp/ccx9xId3.s:567    .text.raw_new:00000000 raw_new
                     .debug_frame:00000010 $d

UNDEFINED SYMBOLS
current_iphdr_dest
current_iphdr_src
pbuf_header
pbuf_alloc
pbuf_chain
port_halt
ip_route
pbuf_free
ip_output_if
memp_free
memp_malloc
memset
