ARM GAS  /tmp/ccx9xId3.s 			page 1


   1              		.syntax unified
   2              		.cpu cortex-m3
   3              		.fpu softvfp
   4              		.eabi_attribute 20, 1
   5              		.eabi_attribute 21, 1
   6              		.eabi_attribute 23, 3
   7              		.eabi_attribute 24, 1
   8              		.eabi_attribute 25, 1
   9              		.eabi_attribute 26, 1
  10              		.eabi_attribute 30, 6
  11              		.eabi_attribute 34, 1
  12              		.eabi_attribute 18, 4
  13              		.thumb
  14              		.file	"raw.c"
  15              		.text
  16              	.Ltext0:
  17              		.cfi_sections	.debug_frame
  18              		.section	.bss.raw_pcbs,"aw",%nobits
  19              		.align	2
  20              		.type	raw_pcbs, %object
  21              		.size	raw_pcbs, 4
  22              	raw_pcbs:
  23 0000 00000000 		.space	4
  24              		.section	.text.raw_input,"ax",%progbits
  25              		.align	2
  26              		.p2align 4,,15
  27              		.global	raw_input
  28              		.thumb
  29              		.thumb_func
  30              		.type	raw_input, %function
  31              	raw_input:
  32              	.LFB7:
  33              		.file 1 "../../ext/lwip/src/core/raw.c"
  34              		.loc 1 77 0
  35              		.cfi_startproc
  36              		@ args = 0, pretend = 0, frame = 32
  37              		@ frame_needed = 0, uses_anonymous_args = 0
  38 0000 10B5     		push	{r4, lr}
  39              	.LCFI0:
  40              		.cfi_def_cfa_offset 8
  41              		.cfi_offset 14, -4
  42              		.cfi_offset 4, -8
  43 0002 88B0     		sub	sp, sp, #32
  44              	.LCFI1:
  45              		.cfi_def_cfa_offset 40
  46 0004 0190     		str	r0, [sp, #4]
  47 0006 0091     		str	r1, [sp, #0]
  48              		.loc 1 81 0
  49 0008 4FF00003 		mov	r3, #0
  50 000c 8DF81730 		strb	r3, [sp, #23]
  51              		.loc 1 85 0
  52 0010 019B     		ldr	r3, [sp, #4]
  53 0012 5B68     		ldr	r3, [r3, #4]
  54 0014 0493     		str	r3, [sp, #16]
  55              		.loc 1 86 0
  56 0016 049B     		ldr	r3, [sp, #16]
  57 0018 5B7A     		ldrb	r3, [r3, #9]	@ zero_extendqisi2
ARM GAS  /tmp/ccx9xId3.s 			page 2


  58 001a ADF80E30 		strh	r3, [sp, #14]	@ movhi
  59              		.loc 1 88 0
  60 001e 4FF00003 		mov	r3, #0
  61 0022 0693     		str	r3, [sp, #24]
  62              		.loc 1 89 0
  63 0024 40F20003 		movw	r3, #:lower16:raw_pcbs
  64 0028 C0F20003 		movt	r3, #:upper16:raw_pcbs
  65 002c 1B68     		ldr	r3, [r3, #0]
  66 002e 0793     		str	r3, [sp, #28]
  67              		.loc 1 92 0
  68 0030 49E0     		b	.L2
  69              	.L6:
  70              		.loc 1 93 0
  71 0032 079B     		ldr	r3, [sp, #28]
  72 0034 1B7C     		ldrb	r3, [r3, #16]	@ zero_extendqisi2
  73 0036 1A46     		mov	r2, r3
  74 0038 BDF90E30 		ldrsh	r3, [sp, #14]
  75 003c 9A42     		cmp	r2, r3
  76 003e 3DD1     		bne	.L3
  77              		.loc 1 94 0 discriminator 1
  78 0040 079B     		ldr	r3, [sp, #28]
  79              		.loc 1 93 0 discriminator 1
  80 0042 002B     		cmp	r3, #0
  81 0044 0CD0     		beq	.L4
  82              		.loc 1 94 0
  83 0046 079B     		ldr	r3, [sp, #28]
  84 0048 1B68     		ldr	r3, [r3, #0]
  85 004a 002B     		cmp	r3, #0
  86 004c 08D0     		beq	.L4
  87              		.loc 1 95 0 discriminator 1
  88 004e 079B     		ldr	r3, [sp, #28]
  89 0050 1A68     		ldr	r2, [r3, #0]
  90 0052 40F20003 		movw	r3, #:lower16:current_iphdr_dest
  91 0056 C0F20003 		movt	r3, #:upper16:current_iphdr_dest
  92 005a 1B68     		ldr	r3, [r3, #0]
  93              		.loc 1 94 0 discriminator 1
  94 005c 9A42     		cmp	r2, r3
  95 005e 2DD1     		bne	.L3
  96              	.L4:
  97              		.loc 1 102 0
  98 0060 079B     		ldr	r3, [sp, #28]
  99 0062 5B69     		ldr	r3, [r3, #20]
 100 0064 002B     		cmp	r3, #0
 101 0066 29D0     		beq	.L3
 102              		.loc 1 104 0
 103 0068 079B     		ldr	r3, [sp, #28]
 104 006a 5C69     		ldr	r4, [r3, #20]
 105 006c 079B     		ldr	r3, [sp, #28]
 106 006e 9B69     		ldr	r3, [r3, #24]
 107 0070 1846     		mov	r0, r3
 108 0072 0799     		ldr	r1, [sp, #28]
 109 0074 019A     		ldr	r2, [sp, #4]
 110 0076 40F20003 		movw	r3, #:lower16:current_iphdr_src
 111 007a C0F20003 		movt	r3, #:upper16:current_iphdr_src
 112 007e A047     		blx	r4
 113 0080 0346     		mov	r3, r0
 114 0082 002B     		cmp	r3, #0
ARM GAS  /tmp/ccx9xId3.s 			page 3


 115 0084 1AD0     		beq	.L3
 116              		.loc 1 106 0
 117 0086 4FF00003 		mov	r3, #0
 118 008a 0193     		str	r3, [sp, #4]
 119              		.loc 1 107 0
 120 008c 4FF00103 		mov	r3, #1
 121 0090 8DF81730 		strb	r3, [sp, #23]
 122              		.loc 1 108 0
 123 0094 069B     		ldr	r3, [sp, #24]
 124 0096 002B     		cmp	r3, #0
 125 0098 10D0     		beq	.L3
 126              		.loc 1 111 0
 127 009a 079B     		ldr	r3, [sp, #28]
 128 009c DA68     		ldr	r2, [r3, #12]
 129 009e 069B     		ldr	r3, [sp, #24]
 130 00a0 DA60     		str	r2, [r3, #12]
 131              		.loc 1 112 0
 132 00a2 40F20003 		movw	r3, #:lower16:raw_pcbs
 133 00a6 C0F20003 		movt	r3, #:upper16:raw_pcbs
 134 00aa 1A68     		ldr	r2, [r3, #0]
 135 00ac 079B     		ldr	r3, [sp, #28]
 136 00ae DA60     		str	r2, [r3, #12]
 137              		.loc 1 113 0
 138 00b0 40F20003 		movw	r3, #:lower16:raw_pcbs
 139 00b4 C0F20003 		movt	r3, #:upper16:raw_pcbs
 140 00b8 079A     		ldr	r2, [sp, #28]
 141 00ba 1A60     		str	r2, [r3, #0]
 142              	.L3:
 143              		.loc 1 121 0
 144 00bc 079B     		ldr	r3, [sp, #28]
 145 00be 0693     		str	r3, [sp, #24]
 146              		.loc 1 122 0
 147 00c0 079B     		ldr	r3, [sp, #28]
 148 00c2 DB68     		ldr	r3, [r3, #12]
 149 00c4 0793     		str	r3, [sp, #28]
 150              	.L2:
 151              		.loc 1 92 0 discriminator 1
 152 00c6 9DF81730 		ldrb	r3, [sp, #23]	@ zero_extendqisi2
 153 00ca 002B     		cmp	r3, #0
 154 00cc 02D1     		bne	.L5
 155              		.loc 1 92 0 is_stmt 0 discriminator 2
 156 00ce 079B     		ldr	r3, [sp, #28]
 157 00d0 002B     		cmp	r3, #0
 158 00d2 AED1     		bne	.L6
 159              	.L5:
 160              		.loc 1 124 0 is_stmt 1
 161 00d4 9DF81730 		ldrb	r3, [sp, #23]	@ zero_extendqisi2
 162              		.loc 1 125 0
 163 00d8 1846     		mov	r0, r3
 164 00da 08B0     		add	sp, sp, #32
 165 00dc 10BD     		pop	{r4, pc}
 166              		.cfi_endproc
 167              	.LFE7:
 168              		.size	raw_input, .-raw_input
 169 00de 00BF     		.section	.text.raw_bind,"ax",%progbits
 170              		.align	2
 171              		.p2align 4,,15
ARM GAS  /tmp/ccx9xId3.s 			page 4


 172              		.global	raw_bind
 173              		.thumb
 174              		.thumb_func
 175              		.type	raw_bind, %function
 176              	raw_bind:
 177              	.LFB8:
 178              		.loc 1 143 0
 179              		.cfi_startproc
 180              		@ args = 0, pretend = 0, frame = 8
 181              		@ frame_needed = 0, uses_anonymous_args = 0
 182              		@ link register save eliminated.
 183 0000 82B0     		sub	sp, sp, #8
 184              	.LCFI2:
 185              		.cfi_def_cfa_offset 8
 186 0002 0190     		str	r0, [sp, #4]
 187 0004 0091     		str	r1, [sp, #0]
 188              		.loc 1 144 0
 189 0006 009B     		ldr	r3, [sp, #0]
 190 0008 002B     		cmp	r3, #0
 191 000a 02D0     		beq	.L8
 192              		.loc 1 144 0 is_stmt 0 discriminator 1
 193 000c 009B     		ldr	r3, [sp, #0]
 194 000e 1B68     		ldr	r3, [r3, #0]
 195 0010 01E0     		b	.L9
 196              	.L8:
 197              		.loc 1 144 0 discriminator 2
 198 0012 4FF00003 		mov	r3, #0
 199              	.L9:
 200              		.loc 1 144 0 discriminator 3
 201 0016 019A     		ldr	r2, [sp, #4]
 202 0018 1360     		str	r3, [r2, #0]
 203              		.loc 1 145 0 is_stmt 1 discriminator 3
 204 001a 4FF00003 		mov	r3, #0
 205 001e 5BB2     		sxtb	r3, r3
 206              		.loc 1 146 0 discriminator 3
 207 0020 1846     		mov	r0, r3
 208 0022 02B0     		add	sp, sp, #8
 209 0024 7047     		bx	lr
 210              		.cfi_endproc
 211              	.LFE8:
 212              		.size	raw_bind, .-raw_bind
 213 0026 00BFAFF3 		.section	.text.raw_connect,"ax",%progbits
 213      0080AFF3 
 213      0080
 214              		.align	2
 215              		.p2align 4,,15
 216              		.global	raw_connect
 217              		.thumb
 218              		.thumb_func
 219              		.type	raw_connect, %function
 220              	raw_connect:
 221              	.LFB9:
 222              		.loc 1 163 0
 223              		.cfi_startproc
 224              		@ args = 0, pretend = 0, frame = 8
 225              		@ frame_needed = 0, uses_anonymous_args = 0
 226              		@ link register save eliminated.
ARM GAS  /tmp/ccx9xId3.s 			page 5


 227 0000 82B0     		sub	sp, sp, #8
 228              	.LCFI3:
 229              		.cfi_def_cfa_offset 8
 230 0002 0190     		str	r0, [sp, #4]
 231 0004 0091     		str	r1, [sp, #0]
 232              		.loc 1 164 0
 233 0006 009B     		ldr	r3, [sp, #0]
 234 0008 002B     		cmp	r3, #0
 235 000a 02D0     		beq	.L11
 236              		.loc 1 164 0 is_stmt 0 discriminator 1
 237 000c 009B     		ldr	r3, [sp, #0]
 238 000e 1B68     		ldr	r3, [r3, #0]
 239 0010 01E0     		b	.L12
 240              	.L11:
 241              		.loc 1 164 0 discriminator 2
 242 0012 4FF00003 		mov	r3, #0
 243              	.L12:
 244              		.loc 1 164 0 discriminator 3
 245 0016 019A     		ldr	r2, [sp, #4]
 246 0018 5360     		str	r3, [r2, #4]
 247              		.loc 1 165 0 is_stmt 1 discriminator 3
 248 001a 4FF00003 		mov	r3, #0
 249 001e 5BB2     		sxtb	r3, r3
 250              		.loc 1 166 0 discriminator 3
 251 0020 1846     		mov	r0, r3
 252 0022 02B0     		add	sp, sp, #8
 253 0024 7047     		bx	lr
 254              		.cfi_endproc
 255              	.LFE9:
 256              		.size	raw_connect, .-raw_connect
 257 0026 00BFAFF3 		.section	.text.raw_recv,"ax",%progbits
 257      0080AFF3 
 257      0080
 258              		.align	2
 259              		.p2align 4,,15
 260              		.global	raw_recv
 261              		.thumb
 262              		.thumb_func
 263              		.type	raw_recv, %function
 264              	raw_recv:
 265              	.LFB10:
 266              		.loc 1 184 0
 267              		.cfi_startproc
 268              		@ args = 0, pretend = 0, frame = 16
 269              		@ frame_needed = 0, uses_anonymous_args = 0
 270              		@ link register save eliminated.
 271 0000 84B0     		sub	sp, sp, #16
 272              	.LCFI4:
 273              		.cfi_def_cfa_offset 16
 274 0002 0390     		str	r0, [sp, #12]
 275 0004 0291     		str	r1, [sp, #8]
 276 0006 0192     		str	r2, [sp, #4]
 277              		.loc 1 186 0
 278 0008 039B     		ldr	r3, [sp, #12]
 279 000a 029A     		ldr	r2, [sp, #8]
 280 000c 5A61     		str	r2, [r3, #20]
 281              		.loc 1 187 0
ARM GAS  /tmp/ccx9xId3.s 			page 6


 282 000e 039B     		ldr	r3, [sp, #12]
 283 0010 019A     		ldr	r2, [sp, #4]
 284 0012 9A61     		str	r2, [r3, #24]
 285              		.loc 1 188 0
 286 0014 04B0     		add	sp, sp, #16
 287 0016 7047     		bx	lr
 288              		.cfi_endproc
 289              	.LFE10:
 290              		.size	raw_recv, .-raw_recv
 291 0018 AFF30080 		.section	.text.raw_sendto,"ax",%progbits
 291      AFF30080 
 292              		.align	2
 293              		.p2align 4,,15
 294              		.global	raw_sendto
 295              		.thumb
 296              		.thumb_func
 297              		.type	raw_sendto, %function
 298              	raw_sendto:
 299              	.LFB11:
 300              		.loc 1 204 0
 301              		.cfi_startproc
 302              		@ args = 0, pretend = 0, frame = 32
 303              		@ frame_needed = 0, uses_anonymous_args = 0
 304 0000 00B5     		push	{lr}
 305              	.LCFI5:
 306              		.cfi_def_cfa_offset 4
 307              		.cfi_offset 14, -4
 308 0002 8DB0     		sub	sp, sp, #52
 309              	.LCFI6:
 310              		.cfi_def_cfa_offset 56
 311 0004 0790     		str	r0, [sp, #28]
 312 0006 0691     		str	r1, [sp, #24]
 313 0008 0592     		str	r2, [sp, #20]
 314              		.loc 1 213 0
 315 000a 0698     		ldr	r0, [sp, #24]
 316 000c 4FF01401 		mov	r1, #20
 317 0010 FFF7FEFF 		bl	pbuf_header
 318 0014 0346     		mov	r3, r0
 319 0016 002B     		cmp	r3, #0
 320 0018 18D0     		beq	.L15
 321              		.loc 1 215 0
 322 001a 4FF00100 		mov	r0, #1
 323 001e 4FF00001 		mov	r1, #0
 324 0022 4FF00002 		mov	r2, #0
 325 0026 FFF7FEFF 		bl	pbuf_alloc
 326 002a 0346     		mov	r3, r0
 327 002c 0A93     		str	r3, [sp, #40]
 328              		.loc 1 217 0
 329 002e 0A9B     		ldr	r3, [sp, #40]
 330 0030 002B     		cmp	r3, #0
 331 0032 02D1     		bne	.L16
 332              		.loc 1 219 0
 333 0034 4FF0FF03 		mov	r3, #255
 334 0038 52E0     		b	.L17
 335              	.L16:
 336              		.loc 1 221 0
 337 003a 069B     		ldr	r3, [sp, #24]
ARM GAS  /tmp/ccx9xId3.s 			page 7


 338 003c 1B89     		ldrh	r3, [r3, #8]
 339 003e 002B     		cmp	r3, #0
 340 0040 13D0     		beq	.L18
 341              		.loc 1 223 0
 342 0042 0A98     		ldr	r0, [sp, #40]
 343 0044 0699     		ldr	r1, [sp, #24]
 344 0046 FFF7FEFF 		bl	pbuf_chain
 345 004a 0EE0     		b	.L18
 346              	.L15:
 347              		.loc 1 229 0
 348 004c 069B     		ldr	r3, [sp, #24]
 349 004e 0A93     		str	r3, [sp, #40]
 350              		.loc 1 230 0
 351 0050 0A98     		ldr	r0, [sp, #40]
 352 0052 6FF01301 		mvn	r1, #19
 353 0056 FFF7FEFF 		bl	pbuf_header
 354 005a 0346     		mov	r3, r0
 355 005c 002B     		cmp	r3, #0
 356 005e 04D0     		beq	.L18
 357              		.loc 1 231 0 discriminator 1
 358 0060 FFF7FEFF 		bl	port_halt
 359              		.loc 1 232 0 discriminator 1
 360 0064 4FF0FF03 		mov	r3, #255
 361 0068 3AE0     		b	.L17
 362              	.L18:
 363              		.loc 1 236 0
 364 006a 0598     		ldr	r0, [sp, #20]
 365 006c FFF7FEFF 		bl	ip_route
 366 0070 0346     		mov	r3, r0
 367 0072 0993     		str	r3, [sp, #36]
 368 0074 099B     		ldr	r3, [sp, #36]
 369 0076 002B     		cmp	r3, #0
 370 0078 09D1     		bne	.L19
 371              		.loc 1 240 0
 372 007a 0A9A     		ldr	r2, [sp, #40]
 373 007c 069B     		ldr	r3, [sp, #24]
 374 007e 9A42     		cmp	r2, r3
 375 0080 02D0     		beq	.L20
 376              		.loc 1 241 0
 377 0082 0A98     		ldr	r0, [sp, #40]
 378 0084 FFF7FEFF 		bl	pbuf_free
 379              	.L20:
 380              		.loc 1 243 0
 381 0088 4FF0FC03 		mov	r3, #252
 382 008c 28E0     		b	.L17
 383              	.L19:
 384              		.loc 1 258 0
 385 008e 079B     		ldr	r3, [sp, #28]
 386 0090 002B     		cmp	r3, #0
 387 0092 03D0     		beq	.L21
 388              		.loc 1 258 0 is_stmt 0 discriminator 1
 389 0094 079B     		ldr	r3, [sp, #28]
 390 0096 1B68     		ldr	r3, [r3, #0]
 391 0098 002B     		cmp	r3, #0
 392 009a 04D1     		bne	.L22
 393              	.L21:
 394              		.loc 1 260 0 is_stmt 1
ARM GAS  /tmp/ccx9xId3.s 			page 8


 395 009c 099B     		ldr	r3, [sp, #36]
 396 009e 03F10403 		add	r3, r3, #4
 397 00a2 0B93     		str	r3, [sp, #44]
 398 00a4 01E0     		b	.L23
 399              	.L22:
 400              		.loc 1 263 0
 401 00a6 079B     		ldr	r3, [sp, #28]
 402 00a8 0B93     		str	r3, [sp, #44]
 403              	.L23:
 404              		.loc 1 269 0
 405 00aa 079B     		ldr	r3, [sp, #28]
 406 00ac 9B7A     		ldrb	r3, [r3, #10]	@ zero_extendqisi2
 407 00ae 079A     		ldr	r2, [sp, #28]
 408 00b0 517A     		ldrb	r1, [r2, #9]	@ zero_extendqisi2
 409 00b2 079A     		ldr	r2, [sp, #28]
 410 00b4 127C     		ldrb	r2, [r2, #16]	@ zero_extendqisi2
 411 00b6 0091     		str	r1, [sp, #0]
 412 00b8 0192     		str	r2, [sp, #4]
 413 00ba 099A     		ldr	r2, [sp, #36]
 414 00bc 0292     		str	r2, [sp, #8]
 415 00be 0A98     		ldr	r0, [sp, #40]
 416 00c0 0B99     		ldr	r1, [sp, #44]
 417 00c2 059A     		ldr	r2, [sp, #20]
 418 00c4 FFF7FEFF 		bl	ip_output_if
 419 00c8 0346     		mov	r3, r0
 420 00ca 8DF82330 		strb	r3, [sp, #35]
 421              		.loc 1 275 0
 422 00ce 0A9A     		ldr	r2, [sp, #40]
 423 00d0 069B     		ldr	r3, [sp, #24]
 424 00d2 9A42     		cmp	r2, r3
 425 00d4 02D0     		beq	.L24
 426              		.loc 1 277 0
 427 00d6 0A98     		ldr	r0, [sp, #40]
 428 00d8 FFF7FEFF 		bl	pbuf_free
 429              	.L24:
 430              		.loc 1 279 0
 431 00dc 9DF82330 		ldrb	r3, [sp, #35]	@ zero_extendqisi2
 432              	.L17:
 433 00e0 5BB2     		sxtb	r3, r3
 434              		.loc 1 280 0
 435 00e2 1846     		mov	r0, r3
 436 00e4 0DB0     		add	sp, sp, #52
 437 00e6 00BD     		pop	{pc}
 438              		.cfi_endproc
 439              	.LFE11:
 440              		.size	raw_sendto, .-raw_sendto
 441 00e8 AFF30080 		.section	.text.raw_send,"ax",%progbits
 441      AFF30080 
 442              		.align	2
 443              		.p2align 4,,15
 444              		.global	raw_send
 445              		.thumb
 446              		.thumb_func
 447              		.type	raw_send, %function
 448              	raw_send:
 449              	.LFB12:
 450              		.loc 1 291 0
ARM GAS  /tmp/ccx9xId3.s 			page 9


 451              		.cfi_startproc
 452              		@ args = 0, pretend = 0, frame = 8
 453              		@ frame_needed = 0, uses_anonymous_args = 0
 454 0000 00B5     		push	{lr}
 455              	.LCFI7:
 456              		.cfi_def_cfa_offset 4
 457              		.cfi_offset 14, -4
 458 0002 83B0     		sub	sp, sp, #12
 459              	.LCFI8:
 460              		.cfi_def_cfa_offset 16
 461 0004 0190     		str	r0, [sp, #4]
 462 0006 0091     		str	r1, [sp, #0]
 463              		.loc 1 292 0
 464 0008 019B     		ldr	r3, [sp, #4]
 465 000a 03F10403 		add	r3, r3, #4
 466 000e 0198     		ldr	r0, [sp, #4]
 467 0010 0099     		ldr	r1, [sp, #0]
 468 0012 1A46     		mov	r2, r3
 469 0014 FFF7FEFF 		bl	raw_sendto
 470 0018 0346     		mov	r3, r0
 471              		.loc 1 293 0
 472 001a 1846     		mov	r0, r3
 473 001c 03B0     		add	sp, sp, #12
 474 001e 00BD     		pop	{pc}
 475              		.cfi_endproc
 476              	.LFE12:
 477              		.size	raw_send, .-raw_send
 478              		.section	.text.raw_remove,"ax",%progbits
 479              		.align	2
 480              		.p2align 4,,15
 481              		.global	raw_remove
 482              		.thumb
 483              		.thumb_func
 484              		.type	raw_remove, %function
 485              	raw_remove:
 486              	.LFB13:
 487              		.loc 1 305 0
 488              		.cfi_startproc
 489              		@ args = 0, pretend = 0, frame = 16
 490              		@ frame_needed = 0, uses_anonymous_args = 0
 491 0000 00B5     		push	{lr}
 492              	.LCFI9:
 493              		.cfi_def_cfa_offset 4
 494              		.cfi_offset 14, -4
 495 0002 85B0     		sub	sp, sp, #20
 496              	.LCFI10:
 497              		.cfi_def_cfa_offset 24
 498 0004 0190     		str	r0, [sp, #4]
 499              		.loc 1 308 0
 500 0006 40F20003 		movw	r3, #:lower16:raw_pcbs
 501 000a C0F20003 		movt	r3, #:upper16:raw_pcbs
 502 000e 1A68     		ldr	r2, [r3, #0]
 503 0010 019B     		ldr	r3, [sp, #4]
 504 0012 9A42     		cmp	r2, r3
 505 0014 0BD1     		bne	.L27
 506              		.loc 1 310 0
 507 0016 40F20003 		movw	r3, #:lower16:raw_pcbs
ARM GAS  /tmp/ccx9xId3.s 			page 10


 508 001a C0F20003 		movt	r3, #:upper16:raw_pcbs
 509 001e 1B68     		ldr	r3, [r3, #0]
 510 0020 DA68     		ldr	r2, [r3, #12]
 511 0022 40F20003 		movw	r3, #:lower16:raw_pcbs
 512 0026 C0F20003 		movt	r3, #:upper16:raw_pcbs
 513 002a 1A60     		str	r2, [r3, #0]
 514 002c 19E0     		b	.L28
 515              	.L27:
 516              		.loc 1 313 0
 517 002e 40F20003 		movw	r3, #:lower16:raw_pcbs
 518 0032 C0F20003 		movt	r3, #:upper16:raw_pcbs
 519 0036 1B68     		ldr	r3, [r3, #0]
 520 0038 0393     		str	r3, [sp, #12]
 521 003a 0FE0     		b	.L29
 522              	.L31:
 523              		.loc 1 315 0
 524 003c 039B     		ldr	r3, [sp, #12]
 525 003e DB68     		ldr	r3, [r3, #12]
 526 0040 002B     		cmp	r3, #0
 527 0042 08D0     		beq	.L30
 528              		.loc 1 315 0 is_stmt 0 discriminator 1
 529 0044 039B     		ldr	r3, [sp, #12]
 530 0046 DA68     		ldr	r2, [r3, #12]
 531 0048 019B     		ldr	r3, [sp, #4]
 532 004a 9A42     		cmp	r2, r3
 533 004c 03D1     		bne	.L30
 534              		.loc 1 317 0 is_stmt 1
 535 004e 019B     		ldr	r3, [sp, #4]
 536 0050 DA68     		ldr	r2, [r3, #12]
 537 0052 039B     		ldr	r3, [sp, #12]
 538 0054 DA60     		str	r2, [r3, #12]
 539              	.L30:
 540              		.loc 1 313 0
 541 0056 039B     		ldr	r3, [sp, #12]
 542 0058 DB68     		ldr	r3, [r3, #12]
 543 005a 0393     		str	r3, [sp, #12]
 544              	.L29:
 545              		.loc 1 313 0 is_stmt 0 discriminator 1
 546 005c 039B     		ldr	r3, [sp, #12]
 547 005e 002B     		cmp	r3, #0
 548 0060 ECD1     		bne	.L31
 549              	.L28:
 550              		.loc 1 321 0 is_stmt 1
 551 0062 4FF00000 		mov	r0, #0
 552 0066 0199     		ldr	r1, [sp, #4]
 553 0068 FFF7FEFF 		bl	memp_free
 554              		.loc 1 322 0
 555 006c 05B0     		add	sp, sp, #20
 556 006e 00BD     		pop	{pc}
 557              		.cfi_endproc
 558              	.LFE13:
 559              		.size	raw_remove, .-raw_remove
 560              		.section	.text.raw_new,"ax",%progbits
 561              		.align	2
 562              		.p2align 4,,15
 563              		.global	raw_new
 564              		.thumb
ARM GAS  /tmp/ccx9xId3.s 			page 11


 565              		.thumb_func
 566              		.type	raw_new, %function
 567              	raw_new:
 568              	.LFB14:
 569              		.loc 1 336 0
 570              		.cfi_startproc
 571              		@ args = 0, pretend = 0, frame = 16
 572              		@ frame_needed = 0, uses_anonymous_args = 0
 573 0000 00B5     		push	{lr}
 574              	.LCFI11:
 575              		.cfi_def_cfa_offset 4
 576              		.cfi_offset 14, -4
 577 0002 85B0     		sub	sp, sp, #20
 578              	.LCFI12:
 579              		.cfi_def_cfa_offset 24
 580 0004 0346     		mov	r3, r0
 581 0006 8DF80730 		strb	r3, [sp, #7]
 582              		.loc 1 341 0
 583 000a 4FF00000 		mov	r0, #0
 584 000e FFF7FEFF 		bl	memp_malloc
 585 0012 0346     		mov	r3, r0
 586 0014 0393     		str	r3, [sp, #12]
 587              		.loc 1 343 0
 588 0016 039B     		ldr	r3, [sp, #12]
 589 0018 002B     		cmp	r3, #0
 590 001a 1ED0     		beq	.L33
 591              		.loc 1 345 0
 592 001c 039B     		ldr	r3, [sp, #12]
 593 001e 1A46     		mov	r2, r3
 594 0020 4FF01C03 		mov	r3, #28
 595 0024 1046     		mov	r0, r2
 596 0026 4FF00001 		mov	r1, #0
 597 002a 1A46     		mov	r2, r3
 598 002c FFF7FEFF 		bl	memset
 599              		.loc 1 346 0
 600 0030 039B     		ldr	r3, [sp, #12]
 601 0032 9DF80720 		ldrb	r2, [sp, #7]
 602 0036 1A74     		strb	r2, [r3, #16]
 603              		.loc 1 347 0
 604 0038 039B     		ldr	r3, [sp, #12]
 605 003a 4FF0FF02 		mov	r2, #255
 606 003e 9A72     		strb	r2, [r3, #10]
 607              		.loc 1 348 0
 608 0040 40F20003 		movw	r3, #:lower16:raw_pcbs
 609 0044 C0F20003 		movt	r3, #:upper16:raw_pcbs
 610 0048 1A68     		ldr	r2, [r3, #0]
 611 004a 039B     		ldr	r3, [sp, #12]
 612 004c DA60     		str	r2, [r3, #12]
 613              		.loc 1 349 0
 614 004e 40F20003 		movw	r3, #:lower16:raw_pcbs
 615 0052 C0F20003 		movt	r3, #:upper16:raw_pcbs
 616 0056 039A     		ldr	r2, [sp, #12]
 617 0058 1A60     		str	r2, [r3, #0]
 618              	.L33:
 619              		.loc 1 351 0
 620 005a 039B     		ldr	r3, [sp, #12]
 621              		.loc 1 352 0
ARM GAS  /tmp/ccx9xId3.s 			page 12


 622 005c 1846     		mov	r0, r3
 623 005e 05B0     		add	sp, sp, #20
 624 0060 00BD     		pop	{pc}
 625              		.cfi_endproc
 626              	.LFE14:
 627              		.size	raw_new, .-raw_new
 628 0062 00BFAFF3 		.text
 628      0080AFF3 
 628      0080AFF3 
 628      0080
 629              	.Letext0:
 630              		.file 2 "/home/texzk/ChibiStudio/tools/GNU Tools ARM Embedded/4.6 2012q2/bin/../lib/gcc/arm-none-e
 631              		.file 3 "../../os/various/lwip_bindings/arch/cc.h"
 632              		.file 4 "../../ext/lwip/src/include/ipv4/lwip/ip_addr.h"
 633              		.file 5 "../../ext/lwip/src/include/lwip/err.h"
 634              		.file 6 "../../ext/lwip/src/include/lwip/memp.h"
 635              		.file 7 "../../ext/lwip/src/include/lwip/pbuf.h"
 636              		.file 8 "../../ext/lwip/src/include/lwip/netif.h"
 637              		.file 9 "../../ext/lwip/src/include/ipv4/lwip/ip.h"
 638              		.file 10 "../../ext/lwip/src/include/lwip/raw.h"