ARM GAS  /tmp/ccWlo0cl.s 			page 1


   1              		.syntax unified
   2              		.cpu cortex-m3
   3              		.fpu softvfp
   4              		.eabi_attribute 20, 1
   5              		.eabi_attribute 21, 1
   6              		.eabi_attribute 23, 3
   7              		.eabi_attribute 24, 1
   8              		.eabi_attribute 25, 1
   9              		.eabi_attribute 26, 1
  10              		.eabi_attribute 30, 6
  11              		.eabi_attribute 34, 1
  12              		.eabi_attribute 18, 4
  13              		.thumb
  14              		.file	"serial_lld.c"
  15              		.text
  16              	.Ltext0:
  17              		.cfi_sections	.debug_frame
  18              		.global	SD1
  19              		.section	.bss.SD1,"aw",%nobits
  20              		.align	2
  21              		.type	SD1, %object
  22              		.size	SD1, 124
  23              	SD1:
  24 0000 00000000 		.space	124
  24      00000000 
  24      00000000 
  24      00000000 
  24      00000000 
  25              		.section	.rodata.default_config,"a",%progbits
  26              		.align	2
  27              		.type	default_config, %object
  28              		.size	default_config, 12
  29              	default_config:
  30 0000 00960000 		.word	38400
  31 0004 0000     		.short	0
  32 0006 0040     		.short	16384
  33 0008 0000     		.short	0
  34 000a 0000     		.space	2
  35              		.section	.text.usart_init,"ax",%progbits
  36              		.align	2
  37              		.p2align 4,,15
  38              		.thumb
  39              		.thumb_func
  40              		.type	usart_init, %function
  41              	usart_init:
  42              	.LFB63:
  43              		.file 1 "../../os/hal/platforms/STM32/serial_lld.c"
  44              		.loc 1 211 0
  45              		.cfi_startproc
  46              		@ args = 0, pretend = 0, frame = 16
  47              		@ frame_needed = 0, uses_anonymous_args = 0
  48              		@ link register save eliminated.
  49 0000 84B0     		sub	sp, sp, #16
  50              	.LCFI0:
  51              		.cfi_def_cfa_offset 16
  52 0002 0190     		str	r0, [sp, #4]
  53 0004 0091     		str	r1, [sp, #0]
ARM GAS  /tmp/ccWlo0cl.s 			page 2


  54              		.loc 1 212 0
  55 0006 019B     		ldr	r3, [sp, #4]
  56 0008 9B6F     		ldr	r3, [r3, #120]
  57 000a 0393     		str	r3, [sp, #12]
  58              		.loc 1 216 0
  59 000c 019B     		ldr	r3, [sp, #4]
  60 000e 9A6F     		ldr	r2, [r3, #120]
  61 0010 4FF48053 		mov	r3, #4096
  62 0014 C4F20103 		movt	r3, 16385
  63 0018 9A42     		cmp	r2, r3
  64 001a 07D0     		beq	.L2
  65              		.loc 1 216 0 is_stmt 0 discriminator 1
  66 001c 019B     		ldr	r3, [sp, #4]
  67 001e 9A6F     		ldr	r2, [r3, #120]
  68 0020 4FF4A053 		mov	r3, #5120
  69 0024 C4F20103 		movt	r3, 16385
  70 0028 9A42     		cmp	r2, r3
  71 002a 0BD1     		bne	.L3
  72              	.L2:
  73              		.loc 1 220 0 is_stmt 1
  74 002c 009B     		ldr	r3, [sp, #0]
  75 002e 1A68     		ldr	r2, [r3, #0]
  76 0030 4FF40743 		mov	r3, #34560
  77 0034 C0F29333 		movt	r3, 915
  78 0038 B3FBF2F3 		udiv	r3, r3, r2
  79 003c 9AB2     		uxth	r2, r3
  80 003e 039B     		ldr	r3, [sp, #12]
  81 0040 1A81     		strh	r2, [r3, #8]	@ movhi
  82 0042 0AE0     		b	.L4
  83              	.L3:
  84              		.loc 1 222 0
  85 0044 009B     		ldr	r3, [sp, #0]
  86 0046 1A68     		ldr	r2, [r3, #0]
  87 0048 4CF28033 		movw	r3, #50048
  88 004c C0F2C913 		movt	r3, 457
  89 0050 B3FBF2F3 		udiv	r3, r3, r2
  90 0054 9AB2     		uxth	r2, r3
  91 0056 039B     		ldr	r3, [sp, #12]
  92 0058 1A81     		strh	r2, [r3, #8]	@ movhi
  93              	.L4:
  94              		.loc 1 225 0
  95 005a 009B     		ldr	r3, [sp, #0]
  96 005c 9B88     		ldrh	r3, [r3, #4]
  97 005e 43F40453 		orr	r3, r3, #8448
  98 0062 43F02C03 		orr	r3, r3, #44
  99 0066 9AB2     		uxth	r2, r3
 100 0068 039B     		ldr	r3, [sp, #12]
 101 006a 9A81     		strh	r2, [r3, #12]	@ movhi
 102              		.loc 1 228 0
 103 006c 009B     		ldr	r3, [sp, #0]
 104 006e DB88     		ldrh	r3, [r3, #6]
 105 0070 43F04003 		orr	r3, r3, #64
 106 0074 9AB2     		uxth	r2, r3
 107 0076 039B     		ldr	r3, [sp, #12]
 108 0078 1A82     		strh	r2, [r3, #16]	@ movhi
 109              		.loc 1 229 0
 110 007a 009B     		ldr	r3, [sp, #0]
ARM GAS  /tmp/ccWlo0cl.s 			page 3


 111 007c 1B89     		ldrh	r3, [r3, #8]
 112 007e 43F00103 		orr	r3, r3, #1
 113 0082 9AB2     		uxth	r2, r3
 114 0084 039B     		ldr	r3, [sp, #12]
 115 0086 9A82     		strh	r2, [r3, #20]	@ movhi
 116              		.loc 1 230 0
 117 0088 039B     		ldr	r3, [sp, #12]
 118 008a 4FF00002 		mov	r2, #0
 119 008e 1A80     		strh	r2, [r3, #0]	@ movhi
 120              		.loc 1 231 0
 121 0090 039B     		ldr	r3, [sp, #12]
 122 0092 1B88     		ldrh	r3, [r3, #0]	@ movhi
 123              		.loc 1 232 0
 124 0094 039B     		ldr	r3, [sp, #12]
 125 0096 9B88     		ldrh	r3, [r3, #4]	@ movhi
 126              		.loc 1 233 0
 127 0098 04B0     		add	sp, sp, #16
 128 009a 7047     		bx	lr
 129              		.cfi_endproc
 130              	.LFE63:
 131              		.size	usart_init, .-usart_init
 132 009c AFF30080 		.section	.text.usart_deinit,"ax",%progbits
 133              		.align	2
 134              		.p2align 4,,15
 135              		.thumb
 136              		.thumb_func
 137              		.type	usart_deinit, %function
 138              	usart_deinit:
 139              	.LFB64:
 140              		.loc 1 241 0
 141              		.cfi_startproc
 142              		@ args = 0, pretend = 0, frame = 8
 143              		@ frame_needed = 0, uses_anonymous_args = 0
 144              		@ link register save eliminated.
 145 0000 82B0     		sub	sp, sp, #8
 146              	.LCFI1:
 147              		.cfi_def_cfa_offset 8
 148 0002 0190     		str	r0, [sp, #4]
 149              		.loc 1 243 0
 150 0004 019B     		ldr	r3, [sp, #4]
 151 0006 4FF00002 		mov	r2, #0
 152 000a 9A81     		strh	r2, [r3, #12]	@ movhi
 153              		.loc 1 244 0
 154 000c 019B     		ldr	r3, [sp, #4]
 155 000e 4FF00002 		mov	r2, #0
 156 0012 1A82     		strh	r2, [r3, #16]	@ movhi
 157              		.loc 1 245 0
 158 0014 019B     		ldr	r3, [sp, #4]
 159 0016 4FF00002 		mov	r2, #0
 160 001a 9A82     		strh	r2, [r3, #20]	@ movhi
 161              		.loc 1 246 0
 162 001c 02B0     		add	sp, sp, #8
 163 001e 7047     		bx	lr
 164              		.cfi_endproc
 165              	.LFE64:
 166              		.size	usart_deinit, .-usart_deinit
 167              		.section	.text.set_error,"ax",%progbits
ARM GAS  /tmp/ccWlo0cl.s 			page 4


 168              		.align	2
 169              		.p2align 4,,15
 170              		.thumb
 171              		.thumb_func
 172              		.type	set_error, %function
 173              	set_error:
 174              	.LFB65:
 175              		.loc 1 254 0
 176              		.cfi_startproc
 177              		@ args = 0, pretend = 0, frame = 16
 178              		@ frame_needed = 0, uses_anonymous_args = 0
 179 0000 00B5     		push	{lr}
 180              	.LCFI2:
 181              		.cfi_def_cfa_offset 4
 182              		.cfi_offset 14, -4
 183 0002 85B0     		sub	sp, sp, #20
 184              	.LCFI3:
 185              		.cfi_def_cfa_offset 24
 186 0004 0190     		str	r0, [sp, #4]
 187 0006 0B46     		mov	r3, r1
 188 0008 ADF80230 		strh	r3, [sp, #2]	@ movhi
 189              		.loc 1 255 0
 190 000c 4FF00003 		mov	r3, #0
 191 0010 0393     		str	r3, [sp, #12]
 192              		.loc 1 257 0
 193 0012 BDF80230 		ldrh	r3, [sp, #2]
 194 0016 03F00803 		and	r3, r3, #8
 195 001a 002B     		cmp	r3, #0
 196 001c 03D0     		beq	.L7
 197              		.loc 1 258 0
 198 001e 039B     		ldr	r3, [sp, #12]
 199 0020 43F08003 		orr	r3, r3, #128
 200 0024 0393     		str	r3, [sp, #12]
 201              	.L7:
 202              		.loc 1 259 0
 203 0026 BDF80230 		ldrh	r3, [sp, #2]
 204 002a 03F00103 		and	r3, r3, #1
 205 002e DBB2     		uxtb	r3, r3
 206 0030 002B     		cmp	r3, #0
 207 0032 03D0     		beq	.L8
 208              		.loc 1 260 0
 209 0034 039B     		ldr	r3, [sp, #12]
 210 0036 43F02003 		orr	r3, r3, #32
 211 003a 0393     		str	r3, [sp, #12]
 212              	.L8:
 213              		.loc 1 261 0
 214 003c BDF80230 		ldrh	r3, [sp, #2]
 215 0040 03F00203 		and	r3, r3, #2
 216 0044 002B     		cmp	r3, #0
 217 0046 03D0     		beq	.L9
 218              		.loc 1 262 0
 219 0048 039B     		ldr	r3, [sp, #12]
 220 004a 43F04003 		orr	r3, r3, #64
 221 004e 0393     		str	r3, [sp, #12]
 222              	.L9:
 223              		.loc 1 263 0
 224 0050 BDF80230 		ldrh	r3, [sp, #2]
ARM GAS  /tmp/ccWlo0cl.s 			page 5


 225 0054 03F00403 		and	r3, r3, #4
 226 0058 002B     		cmp	r3, #0
 227 005a 03D0     		beq	.L10
 228              		.loc 1 264 0
 229 005c 039B     		ldr	r3, [sp, #12]
 230 005e 43F48073 		orr	r3, r3, #256
 231 0062 0393     		str	r3, [sp, #12]
 232              	.L10:
 233              	.LBB2:
 234              		.loc 1 265 0
 235 0064 4FF02003 		mov	r3, #32
 236              	@ 265 "../../os/hal/platforms/STM32/serial_lld.c" 1
 237 0068 83F31188 		msr     BASEPRI, r3
 238              	@ 0 "" 2
 239              		.thumb
 240              	.LBE2:
 241 006c FFF7FEFF 		bl	dbg_check_lock_from_isr
 242              		.loc 1 266 0
 243 0070 019B     		ldr	r3, [sp, #4]
 244 0072 9A68     		ldr	r2, [r3, #8]
 245 0074 039B     		ldr	r3, [sp, #12]
 246 0076 1A43     		orrs	r2, r2, r3
 247 0078 019B     		ldr	r3, [sp, #4]
 248 007a 9A60     		str	r2, [r3, #8]
 249 007c 019B     		ldr	r3, [sp, #4]
 250 007e 03F10403 		add	r3, r3, #4
 251 0082 1846     		mov	r0, r3
 252 0084 4FF00001 		mov	r1, #0
 253 0088 FFF7FEFF 		bl	chEvtBroadcastFlagsI
 254              		.loc 1 267 0
 255 008c FFF7FEFF 		bl	dbg_check_unlock_from_isr
 256              	.LBB3:
 257 0090 4FF00003 		mov	r3, #0
 258              	@ 267 "../../os/hal/platforms/STM32/serial_lld.c" 1
 259 0094 83F31188 		msr     BASEPRI, r3
 260              	@ 0 "" 2
 261              		.thumb
 262              	.LBE3:
 263              		.loc 1 268 0
 264 0098 05B0     		add	sp, sp, #20
 265 009a 00BD     		pop	{pc}
 266              		.cfi_endproc
 267              	.LFE65:
 268              		.size	set_error, .-set_error
 269 009c AFF30080 		.section	.text.serve_interrupt,"ax",%progbits
 270              		.align	2
 271              		.p2align 4,,15
 272              		.thumb
 273              		.thumb_func
 274              		.type	serve_interrupt, %function
 275              	serve_interrupt:
 276              	.LFB66:
 277              		.loc 1 275 0
 278              		.cfi_startproc
 279              		@ args = 0, pretend = 0, frame = 24
 280              		@ frame_needed = 0, uses_anonymous_args = 0
 281 0000 00B5     		push	{lr}
ARM GAS  /tmp/ccWlo0cl.s 			page 6


 282              	.LCFI4:
 283              		.cfi_def_cfa_offset 4
 284              		.cfi_offset 14, -4
 285 0002 87B0     		sub	sp, sp, #28
 286              	.LCFI5:
 287              		.cfi_def_cfa_offset 32
 288 0004 0190     		str	r0, [sp, #4]
 289              		.loc 1 276 0
 290 0006 019B     		ldr	r3, [sp, #4]
 291 0008 9B6F     		ldr	r3, [r3, #120]
 292 000a 0593     		str	r3, [sp, #20]
 293              		.loc 1 277 0
 294 000c 059B     		ldr	r3, [sp, #20]
 295 000e 9B89     		ldrh	r3, [r3, #12]	@ movhi
 296 0010 ADF81230 		strh	r3, [sp, #18]	@ movhi
 297              		.loc 1 278 0
 298 0014 059B     		ldr	r3, [sp, #20]
 299 0016 1B88     		ldrh	r3, [r3, #0]	@ movhi
 300 0018 ADF81030 		strh	r3, [sp, #16]	@ movhi
 301              		.loc 1 279 0
 302 001c 059B     		ldr	r3, [sp, #20]
 303 001e 9B88     		ldrh	r3, [r3, #4]	@ movhi
 304 0020 ADF80E30 		strh	r3, [sp, #14]	@ movhi
 305              		.loc 1 282 0
 306 0024 BDF81030 		ldrh	r3, [sp, #16]
 307 0028 03F00F03 		and	r3, r3, #15
 308 002c 002B     		cmp	r3, #0
 309 002e 05D0     		beq	.L12
 310              		.loc 1 283 0
 311 0030 BDF81030 		ldrh	r3, [sp, #16]
 312 0034 0198     		ldr	r0, [sp, #4]
 313 0036 1946     		mov	r1, r3
 314 0038 FFF7FEFF 		bl	set_error
 315              	.L12:
 316              		.loc 1 285 0
 317 003c BDF81030 		ldrh	r3, [sp, #16]
 318 0040 03F48073 		and	r3, r3, #256
 319 0044 002B     		cmp	r3, #0
 320 0046 21D0     		beq	.L13
 321              	.LBB4:
 322              		.loc 1 286 0
 323 0048 4FF02003 		mov	r3, #32
 324              	@ 286 "../../os/hal/platforms/STM32/serial_lld.c" 1
 325 004c 83F31188 		msr     BASEPRI, r3
 326              	@ 0 "" 2
 327              		.thumb
 328              	.LBE4:
 329 0050 FFF7FEFF 		bl	dbg_check_lock_from_isr
 330              		.loc 1 287 0
 331 0054 019B     		ldr	r3, [sp, #4]
 332 0056 9B68     		ldr	r3, [r3, #8]
 333 0058 43F40072 		orr	r2, r3, #512
 334 005c 019B     		ldr	r3, [sp, #4]
 335 005e 9A60     		str	r2, [r3, #8]
 336 0060 019B     		ldr	r3, [sp, #4]
 337 0062 03F10403 		add	r3, r3, #4
 338 0066 1846     		mov	r0, r3
ARM GAS  /tmp/ccWlo0cl.s 			page 7


 339 0068 4FF00001 		mov	r1, #0
 340 006c FFF7FEFF 		bl	chEvtBroadcastFlagsI
 341              		.loc 1 288 0
 342 0070 FFF7FEFF 		bl	dbg_check_unlock_from_isr
 343              	.LBB5:
 344 0074 4FF00003 		mov	r3, #0
 345              	@ 288 "../../os/hal/platforms/STM32/serial_lld.c" 1
 346 0078 83F31188 		msr     BASEPRI, r3
 347              	@ 0 "" 2
 348              		.thumb
 349              	.LBE5:
 350              		.loc 1 289 0
 351 007c 059B     		ldr	r3, [sp, #20]
 352 007e 1B88     		ldrh	r3, [r3, #0]	@ movhi
 353 0080 9BB2     		uxth	r3, r3
 354 0082 23F48073 		bic	r3, r3, #256
 355 0086 9AB2     		uxth	r2, r3
 356 0088 059B     		ldr	r3, [sp, #20]
 357 008a 1A80     		strh	r2, [r3, #0]	@ movhi
 358              	.L13:
 359              		.loc 1 292 0
 360 008c BDF81030 		ldrh	r3, [sp, #16]
 361 0090 03F02003 		and	r3, r3, #32
 362 0094 002B     		cmp	r3, #0
 363 0096 12D0     		beq	.L14
 364              	.LBB6:
 365              		.loc 1 293 0
 366 0098 4FF02003 		mov	r3, #32
 367              	@ 293 "../../os/hal/platforms/STM32/serial_lld.c" 1
 368 009c 83F31188 		msr     BASEPRI, r3
 369              	@ 0 "" 2
 370              		.thumb
 371              	.LBE6:
 372 00a0 FFF7FEFF 		bl	dbg_check_lock_from_isr
 373              		.loc 1 294 0
 374 00a4 BDF80E30 		ldrh	r3, [sp, #14]	@ movhi
 375 00a8 DBB2     		uxtb	r3, r3
 376 00aa 0198     		ldr	r0, [sp, #4]
 377 00ac 1946     		mov	r1, r3
 378 00ae FFF7FEFF 		bl	sdIncomingDataI
 379              		.loc 1 295 0
 380 00b2 FFF7FEFF 		bl	dbg_check_unlock_from_isr
 381              	.LBB7:
 382 00b6 4FF00003 		mov	r3, #0
 383              	@ 295 "../../os/hal/platforms/STM32/serial_lld.c" 1
 384 00ba 83F31188 		msr     BASEPRI, r3
 385              	@ 0 "" 2
 386              		.thumb
 387              	.L14:
 388              	.LBE7:
 389              		.loc 1 298 0
 390 00be BDF81230 		ldrh	r3, [sp, #18]
 391 00c2 03F08003 		and	r3, r3, #128
 392 00c6 002B     		cmp	r3, #0
 393 00c8 3AD0     		beq	.L15
 394              		.loc 1 298 0 is_stmt 0 discriminator 1
 395 00ca BDF81030 		ldrh	r3, [sp, #16]
ARM GAS  /tmp/ccWlo0cl.s 			page 8


 396 00ce 03F08003 		and	r3, r3, #128
 397 00d2 002B     		cmp	r3, #0
 398 00d4 34D0     		beq	.L15
 399              	.LBB8:
 400              	.LBB9:
 401              		.loc 1 300 0 is_stmt 1
 402 00d6 4FF02003 		mov	r3, #32
 403              	@ 300 "../../os/hal/platforms/STM32/serial_lld.c" 1
 404 00da 83F31188 		msr     BASEPRI, r3
 405              	@ 0 "" 2
 406              		.thumb
 407              	.LBE9:
 408 00de FFF7FEFF 		bl	dbg_check_lock_from_isr
 409              		.loc 1 301 0
 410 00e2 019B     		ldr	r3, [sp, #4]
 411 00e4 03F13403 		add	r3, r3, #52
 412 00e8 1846     		mov	r0, r3
 413 00ea FFF7FEFF 		bl	chOQGetI
 414 00ee 0346     		mov	r3, r0
 415 00f0 0293     		str	r3, [sp, #8]
 416              		.loc 1 302 0
 417 00f2 029B     		ldr	r3, [sp, #8]
 418 00f4 002B     		cmp	r3, #0
 419 00f6 19DA     		bge	.L16
 420              		.loc 1 303 0
 421 00f8 019B     		ldr	r3, [sp, #4]
 422 00fa 9B68     		ldr	r3, [r3, #8]
 423 00fc 43F00802 		orr	r2, r3, #8
 424 0100 019B     		ldr	r3, [sp, #4]
 425 0102 9A60     		str	r2, [r3, #8]
 426 0104 019B     		ldr	r3, [sp, #4]
 427 0106 03F10403 		add	r3, r3, #4
 428 010a 1846     		mov	r0, r3
 429 010c 4FF00001 		mov	r1, #0
 430 0110 FFF7FEFF 		bl	chEvtBroadcastFlagsI
 431              		.loc 1 304 0
 432 0114 BDF81230 		ldrh	r3, [sp, #18]
 433 0118 23F0C003 		bic	r3, r3, #192
 434 011c 9BB2     		uxth	r3, r3
 435 011e 43F04003 		orr	r3, r3, #64
 436 0122 9BB2     		uxth	r3, r3
 437 0124 9AB2     		uxth	r2, r3
 438 0126 059B     		ldr	r3, [sp, #20]
 439 0128 9A81     		strh	r2, [r3, #12]	@ movhi
 440 012a 03E0     		b	.L17
 441              	.L16:
 442              		.loc 1 307 0
 443 012c 029B     		ldr	r3, [sp, #8]
 444 012e 9AB2     		uxth	r2, r3
 445 0130 059B     		ldr	r3, [sp, #20]
 446 0132 9A80     		strh	r2, [r3, #4]	@ movhi
 447              	.L17:
 448              		.loc 1 308 0
 449 0134 FFF7FEFF 		bl	dbg_check_unlock_from_isr
 450              	.LBB10:
 451 0138 4FF00003 		mov	r3, #0
 452              	@ 308 "../../os/hal/platforms/STM32/serial_lld.c" 1
ARM GAS  /tmp/ccWlo0cl.s 			page 9


 453 013c 83F31188 		msr     BASEPRI, r3
 454              	@ 0 "" 2
 455              		.thumb
 456              	.L15:
 457              	.LBE10:
 458              	.LBE8:
 459              		.loc 1 311 0
 460 0140 BDF81030 		ldrh	r3, [sp, #16]
 461 0144 03F04003 		and	r3, r3, #64
 462 0148 002B     		cmp	r3, #0
 463 014a 28D0     		beq	.L11
 464              	.LBB11:
 465              		.loc 1 312 0
 466 014c 4FF02003 		mov	r3, #32
 467              	@ 312 "../../os/hal/platforms/STM32/serial_lld.c" 1
 468 0150 83F31188 		msr     BASEPRI, r3
 469              	@ 0 "" 2
 470              		.thumb
 471              	.LBE11:
 472 0154 FFF7FEFF 		bl	dbg_check_lock_from_isr
 473              		.loc 1 313 0
 474 0158 019B     		ldr	r3, [sp, #4]
 475 015a 9B68     		ldr	r3, [r3, #8]
 476 015c 43F01002 		orr	r2, r3, #16
 477 0160 019B     		ldr	r3, [sp, #4]
 478 0162 9A60     		str	r2, [r3, #8]
 479 0164 019B     		ldr	r3, [sp, #4]
 480 0166 03F10403 		add	r3, r3, #4
 481 016a 1846     		mov	r0, r3
 482 016c 4FF00001 		mov	r1, #0
 483 0170 FFF7FEFF 		bl	chEvtBroadcastFlagsI
 484              		.loc 1 314 0
 485 0174 FFF7FEFF 		bl	dbg_check_unlock_from_isr
 486              	.LBB12:
 487 0178 4FF00003 		mov	r3, #0
 488              	@ 314 "../../os/hal/platforms/STM32/serial_lld.c" 1
 489 017c 83F31188 		msr     BASEPRI, r3
 490              	@ 0 "" 2
 491              		.thumb
 492              	.LBE12:
 493              		.loc 1 315 0
 494 0180 BDF81230 		ldrh	r3, [sp, #18]	@ movhi
 495 0184 23F04003 		bic	r3, r3, #64
 496 0188 9AB2     		uxth	r2, r3
 497 018a 059B     		ldr	r3, [sp, #20]
 498 018c 9A81     		strh	r2, [r3, #12]	@ movhi
 499              		.loc 1 316 0
 500 018e 059B     		ldr	r3, [sp, #20]
 501 0190 1B88     		ldrh	r3, [r3, #0]	@ movhi
 502 0192 9BB2     		uxth	r3, r3
 503 0194 23F04003 		bic	r3, r3, #64
 504 0198 9AB2     		uxth	r2, r3
 505 019a 059B     		ldr	r3, [sp, #20]
 506 019c 1A80     		strh	r2, [r3, #0]	@ movhi
 507              	.L11:
 508              		.loc 1 318 0
 509 019e 07B0     		add	sp, sp, #28
ARM GAS  /tmp/ccWlo0cl.s 			page 10


 510 01a0 00BD     		pop	{pc}
 511              		.cfi_endproc
 512              	.LFE66:
 513              		.size	serve_interrupt, .-serve_interrupt
 514 01a2 00BFAFF3 		.section	.text.notify1,"ax",%progbits
 514      0080AFF3 
 514      0080AFF3 
 514      0080
 515              		.align	2
 516              		.p2align 4,,15
 517              		.thumb
 518              		.thumb_func
 519              		.type	notify1, %function
 520              	notify1:
 521              	.LFB67:
 522              		.loc 1 323 0
 523              		.cfi_startproc
 524              		@ args = 0, pretend = 0, frame = 8
 525              		@ frame_needed = 0, uses_anonymous_args = 0
 526              		@ link register save eliminated.
 527 0000 82B0     		sub	sp, sp, #8
 528              	.LCFI6:
 529              		.cfi_def_cfa_offset 8
 530 0002 0190     		str	r0, [sp, #4]
 531              		.loc 1 326 0
 532 0004 4FF48053 		mov	r3, #4096
 533 0008 C4F20103 		movt	r3, 16385
 534 000c 4FF48052 		mov	r2, #4096
 535 0010 C4F20102 		movt	r2, 16385
 536 0014 9289     		ldrh	r2, [r2, #12]	@ movhi
 537 0016 92B2     		uxth	r2, r2
 538 0018 42F08002 		orr	r2, r2, #128
 539 001c 92B2     		uxth	r2, r2
 540 001e 9A81     		strh	r2, [r3, #12]	@ movhi
 541              		.loc 1 327 0
 542 0020 02B0     		add	sp, sp, #8
 543 0022 7047     		bx	lr
 544              		.cfi_endproc
 545              	.LFE67:
 546              		.size	notify1, .-notify1
 547 0024 AFF30080 		.section	.text.VectorD4,"ax",%progbits
 547      AFF30080 
 547      AFF30080 
 548              		.align	2
 549              		.p2align 4,,15
 550              		.global	VectorD4
 551              		.thumb
 552              		.thumb_func
 553              		.type	VectorD4, %function
 554              	VectorD4:
 555              	.LFB68:
 556              		.loc 1 383 0
 557              		.cfi_startproc
 558              		@ args = 0, pretend = 0, frame = 0
 559              		@ frame_needed = 0, uses_anonymous_args = 0
 560 0000 08B5     		push	{r3, lr}
 561              	.LCFI7:
ARM GAS  /tmp/ccWlo0cl.s 			page 11


 562              		.cfi_def_cfa_offset 8
 563              		.cfi_offset 14, -4
 564              		.cfi_offset 3, -8
 565              		.loc 1 385 0
 566 0002 FFF7FEFF 		bl	dbg_check_enter_isr
 567              		.loc 1 387 0
 568 0006 40F20000 		movw	r0, #:lower16:SD1
 569 000a C0F20000 		movt	r0, #:upper16:SD1
 570 000e FFF7FEFF 		bl	serve_interrupt
 571              		.loc 1 389 0
 572 0012 FFF7FEFF 		bl	dbg_check_leave_isr
 573 0016 FFF7FEFF 		bl	_port_irq_epilogue
 574              		.loc 1 390 0
 575 001a 08BD     		pop	{r3, pc}
 576              		.cfi_endproc
 577              	.LFE68:
 578              		.size	VectorD4, .-VectorD4
 579 001c AFF30080 		.section	.text.sd_lld_init,"ax",%progbits
 580              		.align	2
 581              		.p2align 4,,15
 582              		.global	sd_lld_init
 583              		.thumb
 584              		.thumb_func
 585              		.type	sd_lld_init, %function
 586              	sd_lld_init:
 587              	.LFB69:
 588              		.loc 1 497 0
 589              		.cfi_startproc
 590              		@ args = 0, pretend = 0, frame = 0
 591              		@ frame_needed = 0, uses_anonymous_args = 0
 592 0000 08B5     		push	{r3, lr}
 593              	.LCFI8:
 594              		.cfi_def_cfa_offset 8
 595              		.cfi_offset 14, -4
 596              		.cfi_offset 3, -8
 597              		.loc 1 500 0
 598 0002 40F20000 		movw	r0, #:lower16:SD1
 599 0006 C0F20000 		movt	r0, #:upper16:SD1
 600 000a 4FF00001 		mov	r1, #0
 601 000e 40F20002 		movw	r2, #:lower16:notify1
 602 0012 C0F20002 		movt	r2, #:upper16:notify1
 603 0016 FFF7FEFF 		bl	sdObjectInit
 604              		.loc 1 501 0
 605 001a 40F20003 		movw	r3, #:lower16:SD1
 606 001e C0F20003 		movt	r3, #:upper16:SD1
 607 0022 4FF48052 		mov	r2, #4096
 608 0026 C4F20102 		movt	r2, 16385
 609 002a 9A67     		str	r2, [r3, #120]
 610              		.loc 1 528 0
 611 002c 08BD     		pop	{r3, pc}
 612              		.cfi_endproc
 613              	.LFE69:
 614              		.size	sd_lld_init, .-sd_lld_init
 615 002e 00BF     		.section	.text.sd_lld_start,"ax",%progbits
 616              		.align	2
 617              		.p2align 4,,15
 618              		.global	sd_lld_start
ARM GAS  /tmp/ccWlo0cl.s 			page 12


 619              		.thumb
 620              		.thumb_func
 621              		.type	sd_lld_start, %function
 622              	sd_lld_start:
 623              	.LFB70:
 624              		.loc 1 540 0
 625              		.cfi_startproc
 626              		@ args = 0, pretend = 0, frame = 8
 627              		@ frame_needed = 0, uses_anonymous_args = 0
 628 0000 00B5     		push	{lr}
 629              	.LCFI9:
 630              		.cfi_def_cfa_offset 4
 631              		.cfi_offset 14, -4
 632 0002 83B0     		sub	sp, sp, #12
 633              	.LCFI10:
 634              		.cfi_def_cfa_offset 16
 635 0004 0190     		str	r0, [sp, #4]
 636 0006 0091     		str	r1, [sp, #0]
 637              		.loc 1 542 0
 638 0008 009B     		ldr	r3, [sp, #0]
 639 000a 002B     		cmp	r3, #0
 640 000c 04D1     		bne	.L23
 641              		.loc 1 543 0
 642 000e 40F20003 		movw	r3, #:lower16:default_config
 643 0012 C0F20003 		movt	r3, #:upper16:default_config
 644 0016 0093     		str	r3, [sp, #0]
 645              	.L23:
 646              		.loc 1 545 0
 647 0018 019B     		ldr	r3, [sp, #4]
 648 001a 1B7B     		ldrb	r3, [r3, #12]	@ zero_extendqisi2
 649 001c 012B     		cmp	r3, #1
 650 001e 18D1     		bne	.L24
 651              		.loc 1 547 0
 652 0020 019A     		ldr	r2, [sp, #4]
 653 0022 40F20003 		movw	r3, #:lower16:SD1
 654 0026 C0F20003 		movt	r3, #:upper16:SD1
 655 002a 9A42     		cmp	r2, r3
 656 002c 11D1     		bne	.L24
 657              		.loc 1 548 0
 658 002e 4FF46053 		mov	r3, #14336
 659 0032 C4F20203 		movt	r3, 16386
 660 0036 4FF46052 		mov	r2, #14336
 661 003a C4F20202 		movt	r2, 16386
 662 003e 526C     		ldr	r2, [r2, #68]
 663 0040 42F01002 		orr	r2, r2, #16
 664 0044 5A64     		str	r2, [r3, #68]
 665              		.loc 1 549 0
 666 0046 4FF02500 		mov	r0, #37
 667 004a 4FF0C001 		mov	r1, #192
 668 004e FFF7FEFF 		bl	nvicEnableVector
 669              	.L24:
 670              		.loc 1 589 0
 671 0052 0198     		ldr	r0, [sp, #4]
 672 0054 0099     		ldr	r1, [sp, #0]
 673 0056 FFF7FEFF 		bl	usart_init
 674              		.loc 1 590 0
 675 005a 03B0     		add	sp, sp, #12
ARM GAS  /tmp/ccWlo0cl.s 			page 13


 676 005c 00BD     		pop	{pc}
 677              		.cfi_endproc
 678              	.LFE70:
 679              		.size	sd_lld_start, .-sd_lld_start
 680 005e 00BF     		.section	.text.sd_lld_stop,"ax",%progbits
 681              		.align	2
 682              		.p2align 4,,15
 683              		.global	sd_lld_stop
 684              		.thumb
 685              		.thumb_func
 686              		.type	sd_lld_stop, %function
 687              	sd_lld_stop:
 688              	.LFB71:
 689              		.loc 1 601 0
 690              		.cfi_startproc
 691              		@ args = 0, pretend = 0, frame = 8
 692              		@ frame_needed = 0, uses_anonymous_args = 0
 693 0000 00B5     		push	{lr}
 694              	.LCFI11:
 695              		.cfi_def_cfa_offset 4
 696              		.cfi_offset 14, -4
 697 0002 83B0     		sub	sp, sp, #12
 698              	.LCFI12:
 699              		.cfi_def_cfa_offset 16
 700 0004 0190     		str	r0, [sp, #4]
 701              		.loc 1 603 0
 702 0006 019B     		ldr	r3, [sp, #4]
 703 0008 1B7B     		ldrb	r3, [r3, #12]	@ zero_extendqisi2
 704 000a 022B     		cmp	r3, #2
 705 000c 1CD1     		bne	.L25
 706              		.loc 1 604 0
 707 000e 019B     		ldr	r3, [sp, #4]
 708 0010 9B6F     		ldr	r3, [r3, #120]
 709 0012 1846     		mov	r0, r3
 710 0014 FFF7FEFF 		bl	usart_deinit
 711              		.loc 1 606 0
 712 0018 019A     		ldr	r2, [sp, #4]
 713 001a 40F20003 		movw	r3, #:lower16:SD1
 714 001e C0F20003 		movt	r3, #:upper16:SD1
 715 0022 9A42     		cmp	r2, r3
 716 0024 10D1     		bne	.L25
 717              		.loc 1 607 0
 718 0026 4FF46053 		mov	r3, #14336
 719 002a C4F20203 		movt	r3, 16386
 720 002e 4FF46052 		mov	r2, #14336
 721 0032 C4F20202 		movt	r2, 16386
 722 0036 526C     		ldr	r2, [r2, #68]
 723 0038 22F01002 		bic	r2, r2, #16
 724 003c 5A64     		str	r2, [r3, #68]
 725              		.loc 1 608 0
 726 003e 4FF02500 		mov	r0, #37
 727 0042 FFF7FEFF 		bl	nvicDisableVector
 728              		.loc 1 609 0
 729 0046 00BF     		nop
 730              	.L25:
 731              		.loc 1 648 0
 732 0048 03B0     		add	sp, sp, #12
ARM GAS  /tmp/ccWlo0cl.s 			page 14


 733 004a 00BD     		pop	{pc}
 734              		.cfi_endproc
 735              	.LFE71:
 736              		.size	sd_lld_stop, .-sd_lld_stop
 737 004c AFF30080 		.text
 738              	.Letext0:
 739              		.file 2 "/home/texzk/ChibiStudio/tools/GNU Tools ARM Embedded/4.6 2012q2/bin/../lib/gcc/arm-none-e
 740              		.file 3 "/home/texzk/ChibiStudio/tools/GNU Tools ARM Embedded/4.6 2012q2/bin/../lib/gcc/arm-none-e
 741              		.file 4 "../../os/ports/GCC/ARMCMx/chtypes.h"
 742              		.file 5 "../../os/kernel/include/chlists.h"
 743              		.file 6 "../../os/kernel/include/chthreads.h"
 744              		.file 7 "../../os/ports/GCC/ARMCMx/chcore_v7m.h"
 745              		.file 8 "../../os/kernel/include/chmtx.h"
 746              		.file 9 "../../os/kernel/include/chevents.h"
 747              		.file 10 "../../os/kernel/include/chqueues.h"
 748              		.file 11 "../../os/hal/platforms/STM32F2xx/stm32f2xx.h"
 749              		.file 12 "../../os/hal/include/io_channel.h"
 750              		.file 13 "../../os/hal/include/serial.h"
 751              		.file 14 "../../os/hal/platforms/STM32/serial_lld.h"
 752              		.file 15 "../../os/ports/common/ARMCMx/CMSIS/include/core_cm3.h"
 753              		.section	.debug_info,"",%progbits
 754              	.Ldebug_info0:
 755 0000 70100000 		.4byte	0x1070
 756 0004 0200     		.2byte	0x2
 757 0006 00000000 		.4byte	.Ldebug_abbrev0
 758 000a 04       		.byte	0x4
 759 000b 01       		.uleb128 0x1
 760 000c 69000000 		.4byte	.LASF234
 761 0010 01       		.byte	0x1
 762 0011 09080000 		.4byte	.LASF235
 763 0015 F2020000 		.4byte	.LASF236
 764 0019 00000000 		.4byte	0
 765 001d 00000000 		.4byte	0
 766 0021 00000000 		.4byte	.Ldebug_ranges0+0
 767 0025 00000000 		.4byte	.Ldebug_line0
 768 0029 02       		.uleb128 0x2
 769 002a 04       		.byte	0x4
 770 002b 05       		.byte	0x5
 771 002c 696E7400 		.ascii	"int\000"
 772 0030 03       		.uleb128 0x3
 773 0031 00000000 		.4byte	.LASF2
 774 0035 02       		.byte	0x2
 775 0036 D4       		.byte	0xd4
 776 0037 3B000000 		.4byte	0x3b
 777 003b 04       		.uleb128 0x4
 778 003c 04       		.byte	0x4
 779 003d 07       		.byte	0x7
 780 003e 98060000 		.4byte	.LASF0
 781 0042 04       		.uleb128 0x4
 782 0043 01       		.byte	0x1
 783 0044 06       		.byte	0x6
 784 0045 5F020000 		.4byte	.LASF1
 785 0049 03       		.uleb128 0x3
 786 004a 75020000 		.4byte	.LASF3
 787 004e 03       		.byte	0x3
 788 004f 2A       		.byte	0x2a
 789 0050 54000000 		.4byte	0x54
ARM GAS  /tmp/ccWlo0cl.s 			page 15


 790 0054 04       		.uleb128 0x4
 791 0055 01       		.byte	0x1
 792 0056 08       		.byte	0x8
 793 0057 B7020000 		.4byte	.LASF4
 794 005b 04       		.uleb128 0x4
 795 005c 02       		.byte	0x2
 796 005d 05       		.byte	0x5
 797 005e 2C090000 		.4byte	.LASF5
 798 0062 03       		.uleb128 0x3
 799 0063 F0070000 		.4byte	.LASF6
 800 0067 03       		.byte	0x3
 801 0068 36       		.byte	0x36
 802 0069 6D000000 		.4byte	0x6d
 803 006d 04       		.uleb128 0x4
 804 006e 02       		.byte	0x2
 805 006f 07       		.byte	0x7
 806 0070 160A0000 		.4byte	.LASF7
 807 0074 03       		.uleb128 0x3
 808 0075 48000000 		.4byte	.LASF8
 809 0079 03       		.byte	0x3
 810 007a 4F       		.byte	0x4f
 811 007b 7F000000 		.4byte	0x7f
 812 007f 04       		.uleb128 0x4
 813 0080 04       		.byte	0x4
 814 0081 05       		.byte	0x5
 815 0082 B3010000 		.4byte	.LASF9
 816 0086 03       		.uleb128 0x3
 817 0087 BC090000 		.4byte	.LASF10
 818 008b 03       		.byte	0x3
 819 008c 50       		.byte	0x50
 820 008d 91000000 		.4byte	0x91
 821 0091 04       		.uleb128 0x4
 822 0092 04       		.byte	0x4
 823 0093 07       		.byte	0x7
 824 0094 E8040000 		.4byte	.LASF11
 825 0098 04       		.uleb128 0x4
 826 0099 08       		.byte	0x8
 827 009a 05       		.byte	0x5
 828 009b CD050000 		.4byte	.LASF12
 829 009f 03       		.uleb128 0x3
 830 00a0 36090000 		.4byte	.LASF13
 831 00a4 03       		.byte	0x3
 832 00a5 78       		.byte	0x78
 833 00a6 AA000000 		.4byte	0xaa
 834 00aa 04       		.uleb128 0x4
 835 00ab 08       		.byte	0x8
 836 00ac 07       		.byte	0x7
 837 00ad D1070000 		.4byte	.LASF14
 838 00b1 03       		.uleb128 0x3
 839 00b2 E9090000 		.4byte	.LASF15
 840 00b6 03       		.byte	0x3
 841 00b7 A6       		.byte	0xa6
 842 00b8 3B000000 		.4byte	0x3b
 843 00bc 03       		.uleb128 0x3
 844 00bd A0080000 		.4byte	.LASF16
 845 00c1 04       		.byte	0x4
 846 00c2 28       		.byte	0x28
ARM GAS  /tmp/ccWlo0cl.s 			page 16


 847 00c3 49000000 		.4byte	0x49
 848 00c7 03       		.uleb128 0x3
 849 00c8 F3010000 		.4byte	.LASF17
 850 00cc 04       		.byte	0x4
 851 00cd 29       		.byte	0x29
 852 00ce 49000000 		.4byte	0x49
 853 00d2 03       		.uleb128 0x3
 854 00d3 84090000 		.4byte	.LASF18
 855 00d7 04       		.byte	0x4
 856 00d8 2A       		.byte	0x2a
 857 00d9 49000000 		.4byte	0x49
 858 00dd 03       		.uleb128 0x3
 859 00de 3F080000 		.4byte	.LASF19
 860 00e2 04       		.byte	0x4
 861 00e3 2B       		.byte	0x2b
 862 00e4 49000000 		.4byte	0x49
 863 00e8 03       		.uleb128 0x3
 864 00e9 35000000 		.4byte	.LASF20
 865 00ed 04       		.byte	0x4
 866 00ee 2C       		.byte	0x2c
 867 00ef 86000000 		.4byte	0x86
 868 00f3 03       		.uleb128 0x3
 869 00f4 F9070000 		.4byte	.LASF21
 870 00f8 04       		.byte	0x4
 871 00f9 2D       		.byte	0x2d
 872 00fa 74000000 		.4byte	0x74
 873 00fe 03       		.uleb128 0x3
 874 00ff 7D020000 		.4byte	.LASF22
 875 0103 04       		.byte	0x4
 876 0104 2F       		.byte	0x2f
 877 0105 86000000 		.4byte	0x86
 878 0109 03       		.uleb128 0x3
 879 010a 1A000000 		.4byte	.LASF23
 880 010e 04       		.byte	0x4
 881 010f 30       		.byte	0x30
 882 0110 86000000 		.4byte	0x86
 883 0114 03       		.uleb128 0x3
 884 0115 61090000 		.4byte	.LASF24
 885 0119 05       		.byte	0x5
 886 011a 23       		.byte	0x23
 887 011b 1F010000 		.4byte	0x11f
 888 011f 05       		.uleb128 0x5
 889 0120 61090000 		.4byte	.LASF24
 890 0124 4C       		.byte	0x4c
 891 0125 06       		.byte	0x6
 892 0126 57       		.byte	0x57
 893 0127 52020000 		.4byte	0x252
 894 012b 06       		.uleb128 0x6
 895 012c BC010000 		.4byte	.LASF25
 896 0130 06       		.byte	0x6
 897 0131 58       		.byte	0x58
 898 0132 77020000 		.4byte	0x277
 899 0136 02       		.byte	0x2
 900 0137 23       		.byte	0x23
 901 0138 00       		.uleb128 0
 902 0139 06       		.uleb128 0x6
 903 013a CB010000 		.4byte	.LASF26
ARM GAS  /tmp/ccWlo0cl.s 			page 17


 904 013e 06       		.byte	0x6
 905 013f 5A       		.byte	0x5a
 906 0140 77020000 		.4byte	0x277
 907 0144 02       		.byte	0x2
 908 0145 23       		.byte	0x23
 909 0146 04       		.uleb128 0x4
 910 0147 06       		.uleb128 0x6
 911 0148 99030000 		.4byte	.LASF27
 912 014c 06       		.byte	0x6
 913 014d 5C       		.byte	0x5c
 914 014e E8000000 		.4byte	0xe8
 915 0152 02       		.byte	0x2
 916 0153 23       		.byte	0x23
 917 0154 08       		.uleb128 0x8
 918 0155 06       		.uleb128 0x6
 919 0156 2F000000 		.4byte	.LASF28
 920 015a 06       		.byte	0x6
 921 015b 5D       		.byte	0x5d
 922 015c 50030000 		.4byte	0x350
 923 0160 02       		.byte	0x2
 924 0161 23       		.byte	0x23
 925 0162 0C       		.uleb128 0xc
 926 0163 06       		.uleb128 0x6
 927 0164 AB010000 		.4byte	.LASF29
 928 0168 06       		.byte	0x6
 929 0169 5F       		.byte	0x5f
 930 016a 77020000 		.4byte	0x277
 931 016e 02       		.byte	0x2
 932 016f 23       		.byte	0x23
 933 0170 10       		.uleb128 0x10
 934 0171 06       		.uleb128 0x6
 935 0172 E8070000 		.4byte	.LASF30
 936 0176 06       		.byte	0x6
 937 0177 60       		.byte	0x60
 938 0178 77020000 		.4byte	0x277
 939 017c 02       		.byte	0x2
 940 017d 23       		.byte	0x23
 941 017e 14       		.uleb128 0x14
 942 017f 06       		.uleb128 0x6
 943 0180 B70A0000 		.4byte	.LASF31
 944 0184 06       		.byte	0x6
 945 0185 67       		.byte	0x67
 946 0186 68040000 		.4byte	0x468
 947 018a 02       		.byte	0x2
 948 018b 23       		.byte	0x23
 949 018c 18       		.uleb128 0x18
 950 018d 06       		.uleb128 0x6
 951 018e 810A0000 		.4byte	.LASF32
 952 0192 06       		.byte	0x6
 953 0193 6D       		.byte	0x6d
 954 0194 7A040000 		.4byte	0x47a
 955 0198 02       		.byte	0x2
 956 0199 23       		.byte	0x23
 957 019a 1C       		.uleb128 0x1c
 958 019b 06       		.uleb128 0x6
 959 019c F10A0000 		.4byte	.LASF33
 960 01a0 06       		.byte	0x6
ARM GAS  /tmp/ccWlo0cl.s 			page 18


 961 01a1 72       		.byte	0x72
 962 01a2 C7000000 		.4byte	0xc7
 963 01a6 02       		.byte	0x2
 964 01a7 23       		.byte	0x23
 965 01a8 20       		.uleb128 0x20
 966 01a9 06       		.uleb128 0x6
 967 01aa 8B060000 		.4byte	.LASF34
 968 01ae 06       		.byte	0x6
 969 01af 76       		.byte	0x76
 970 01b0 BC000000 		.4byte	0xbc
 971 01b4 02       		.byte	0x2
 972 01b5 23       		.byte	0x23
 973 01b6 21       		.uleb128 0x21
 974 01b7 06       		.uleb128 0x6
 975 01b8 C8060000 		.4byte	.LASF35
 976 01bc 06       		.byte	0x6
 977 01bd 7B       		.byte	0x7b
 978 01be D2000000 		.4byte	0xd2
 979 01c2 02       		.byte	0x2
 980 01c3 23       		.byte	0x23
 981 01c4 22       		.uleb128 0x22
 982 01c5 06       		.uleb128 0x6
 983 01c6 6B020000 		.4byte	.LASF36
 984 01ca 06       		.byte	0x6
 985 01cb 81       		.byte	0x81
 986 01cc DD000000 		.4byte	0xdd
 987 01d0 02       		.byte	0x2
 988 01d1 23       		.byte	0x23
 989 01d2 23       		.uleb128 0x23
 990 01d3 06       		.uleb128 0x6
 991 01d4 2A070000 		.4byte	.LASF37
 992 01d8 06       		.byte	0x6
 993 01d9 88       		.byte	0x88
 994 01da 78030000 		.4byte	0x378
 995 01de 02       		.byte	0x2
 996 01df 23       		.byte	0x23
 997 01e0 24       		.uleb128 0x24
 998 01e1 07       		.uleb128 0x7
 999 01e2 705F7500 		.ascii	"p_u\000"
 1000 01e6 06       		.byte	0x6
 1001 01e7 AD       		.byte	0xad
 1002 01e8 33040000 		.4byte	0x433
 1003 01ec 02       		.byte	0x2
 1004 01ed 23       		.byte	0x23
 1005 01ee 28       		.uleb128 0x28
 1006 01ef 06       		.uleb128 0x6
 1007 01f0 58060000 		.4byte	.LASF38
 1008 01f4 06       		.byte	0x6
 1009 01f5 B2       		.byte	0xb2
 1010 01f6 9F020000 		.4byte	0x29f
 1011 01fa 02       		.byte	0x2
 1012 01fb 23       		.byte	0x23
 1013 01fc 2C       		.uleb128 0x2c
 1014 01fd 06       		.uleb128 0x6
 1015 01fe 3D000000 		.4byte	.LASF39
 1016 0202 06       		.byte	0x6
 1017 0203 B8       		.byte	0xb8
ARM GAS  /tmp/ccWlo0cl.s 			page 19


 1018 0204 7D020000 		.4byte	0x27d
 1019 0208 02       		.byte	0x2
 1020 0209 23       		.byte	0x23
 1021 020a 30       		.uleb128 0x30
 1022 020b 06       		.uleb128 0x6
 1023 020c DF0A0000 		.4byte	.LASF40
 1024 0210 06       		.byte	0x6
 1025 0211 BC       		.byte	0xbc
 1026 0212 F3000000 		.4byte	0xf3
 1027 0216 02       		.byte	0x2
 1028 0217 23       		.byte	0x23
 1029 0218 38       		.uleb128 0x38
 1030 0219 06       		.uleb128 0x6
 1031 021a 29040000 		.4byte	.LASF41
 1032 021e 06       		.byte	0x6
 1033 021f C2       		.byte	0xc2
 1034 0220 FE000000 		.4byte	0xfe
 1035 0224 02       		.byte	0x2
 1036 0225 23       		.byte	0x23
 1037 0226 3C       		.uleb128 0x3c
 1038 0227 06       		.uleb128 0x6
 1039 0228 FC010000 		.4byte	.LASF42
 1040 022c 06       		.byte	0x6
 1041 022d C9       		.byte	0xc9
 1042 022e 80040000 		.4byte	0x480
 1043 0232 02       		.byte	0x2
 1044 0233 23       		.byte	0x23
 1045 0234 40       		.uleb128 0x40
 1046 0235 06       		.uleb128 0x6
 1047 0236 51070000 		.4byte	.LASF43
 1048 023a 06       		.byte	0x6
 1049 023b CD       		.byte	0xcd
 1050 023c E8000000 		.4byte	0xe8
 1051 0240 02       		.byte	0x2
 1052 0241 23       		.byte	0x23
 1053 0242 44       		.uleb128 0x44
 1054 0243 06       		.uleb128 0x6
 1055 0244 B3060000 		.4byte	.LASF44
 1056 0248 06       		.byte	0x6
 1057 0249 D3       		.byte	0xd3
 1058 024a B5020000 		.4byte	0x2b5
 1059 024e 02       		.byte	0x2
 1060 024f 23       		.byte	0x23
 1061 0250 48       		.uleb128 0x48
 1062 0251 00       		.byte	0
 1063 0252 08       		.uleb128 0x8
 1064 0253 08       		.byte	0x8
 1065 0254 05       		.byte	0x5
 1066 0255 5A       		.byte	0x5a
 1067 0256 77020000 		.4byte	0x277
 1068 025a 06       		.uleb128 0x6
 1069 025b BC010000 		.4byte	.LASF25
 1070 025f 05       		.byte	0x5
 1071 0260 5B       		.byte	0x5b
 1072 0261 77020000 		.4byte	0x277
 1073 0265 02       		.byte	0x2
 1074 0266 23       		.byte	0x23
ARM GAS  /tmp/ccWlo0cl.s 			page 20


 1075 0267 00       		.uleb128 0
 1076 0268 06       		.uleb128 0x6
 1077 0269 CB010000 		.4byte	.LASF26
 1078 026d 05       		.byte	0x5
 1079 026e 5D       		.byte	0x5d
 1080 026f 77020000 		.4byte	0x277
 1081 0273 02       		.byte	0x2
 1082 0274 23       		.byte	0x23
 1083 0275 04       		.uleb128 0x4
 1084 0276 00       		.byte	0
 1085 0277 09       		.uleb128 0x9
 1086 0278 04       		.byte	0x4
 1087 0279 14010000 		.4byte	0x114
 1088 027d 03       		.uleb128 0x3
 1089 027e DC090000 		.4byte	.LASF45
 1090 0282 05       		.byte	0x5
 1091 0283 5F       		.byte	0x5f
 1092 0284 52020000 		.4byte	0x252
 1093 0288 08       		.uleb128 0x8
 1094 0289 04       		.byte	0x4
 1095 028a 05       		.byte	0x5
 1096 028b 64       		.byte	0x64
 1097 028c 9F020000 		.4byte	0x29f
 1098 0290 06       		.uleb128 0x6
 1099 0291 BC010000 		.4byte	.LASF25
 1100 0295 05       		.byte	0x5
 1101 0296 66       		.byte	0x66
 1102 0297 77020000 		.4byte	0x277
 1103 029b 02       		.byte	0x2
 1104 029c 23       		.byte	0x23
 1105 029d 00       		.uleb128 0
 1106 029e 00       		.byte	0
 1107 029f 03       		.uleb128 0x3
 1108 02a0 E3060000 		.4byte	.LASF46
 1109 02a4 05       		.byte	0x5
 1110 02a5 69       		.byte	0x69
 1111 02a6 88020000 		.4byte	0x288
 1112 02aa 03       		.uleb128 0x3
 1113 02ab 25020000 		.4byte	.LASF47
 1114 02af 07       		.byte	0x7
 1115 02b0 DE       		.byte	0xde
 1116 02b1 B5020000 		.4byte	0x2b5
 1117 02b5 0A       		.uleb128 0xa
 1118 02b6 04       		.byte	0x4
 1119 02b7 03       		.uleb128 0x3
 1120 02b8 D5030000 		.4byte	.LASF48
 1121 02bc 07       		.byte	0x7
 1122 02bd E4       		.byte	0xe4
 1123 02be 9F000000 		.4byte	0x9f
 1124 02c2 0B       		.uleb128 0xb
 1125 02c3 22040000 		.4byte	.LASF49
 1126 02c7 24       		.byte	0x24
 1127 02c8 07       		.byte	0x7
 1128 02c9 0501     		.2byte	0x105
 1129 02cb 50030000 		.4byte	0x350
 1130 02cf 0C       		.uleb128 0xc
 1131 02d0 723400   		.ascii	"r4\000"
ARM GAS  /tmp/ccWlo0cl.s 			page 21


 1132 02d3 07       		.byte	0x7
 1133 02d4 1801     		.2byte	0x118
 1134 02d6 AA020000 		.4byte	0x2aa
 1135 02da 02       		.byte	0x2
 1136 02db 23       		.byte	0x23
 1137 02dc 00       		.uleb128 0
 1138 02dd 0C       		.uleb128 0xc
 1139 02de 723500   		.ascii	"r5\000"
 1140 02e1 07       		.byte	0x7
 1141 02e2 1901     		.2byte	0x119
 1142 02e4 AA020000 		.4byte	0x2aa
 1143 02e8 02       		.byte	0x2
 1144 02e9 23       		.byte	0x23
 1145 02ea 04       		.uleb128 0x4
 1146 02eb 0C       		.uleb128 0xc
 1147 02ec 723600   		.ascii	"r6\000"
 1148 02ef 07       		.byte	0x7
 1149 02f0 1A01     		.2byte	0x11a
 1150 02f2 AA020000 		.4byte	0x2aa
 1151 02f6 02       		.byte	0x2
 1152 02f7 23       		.byte	0x23
 1153 02f8 08       		.uleb128 0x8
 1154 02f9 0C       		.uleb128 0xc
 1155 02fa 723700   		.ascii	"r7\000"
 1156 02fd 07       		.byte	0x7
 1157 02fe 1B01     		.2byte	0x11b
 1158 0300 AA020000 		.4byte	0x2aa
 1159 0304 02       		.byte	0x2
 1160 0305 23       		.byte	0x23
 1161 0306 0C       		.uleb128 0xc
 1162 0307 0C       		.uleb128 0xc
 1163 0308 723800   		.ascii	"r8\000"
 1164 030b 07       		.byte	0x7
 1165 030c 1C01     		.2byte	0x11c
 1166 030e AA020000 		.4byte	0x2aa
 1167 0312 02       		.byte	0x2
 1168 0313 23       		.byte	0x23
 1169 0314 10       		.uleb128 0x10
 1170 0315 0C       		.uleb128 0xc
 1171 0316 723900   		.ascii	"r9\000"
 1172 0319 07       		.byte	0x7
 1173 031a 1D01     		.2byte	0x11d
 1174 031c AA020000 		.4byte	0x2aa
 1175 0320 02       		.byte	0x2
 1176 0321 23       		.byte	0x23
 1177 0322 14       		.uleb128 0x14
 1178 0323 0C       		.uleb128 0xc
 1179 0324 72313000 		.ascii	"r10\000"
 1180 0328 07       		.byte	0x7
 1181 0329 1E01     		.2byte	0x11e
 1182 032b AA020000 		.4byte	0x2aa
 1183 032f 02       		.byte	0x2
 1184 0330 23       		.byte	0x23
 1185 0331 18       		.uleb128 0x18
 1186 0332 0C       		.uleb128 0xc
 1187 0333 72313100 		.ascii	"r11\000"
 1188 0337 07       		.byte	0x7
ARM GAS  /tmp/ccWlo0cl.s 			page 22


 1189 0338 1F01     		.2byte	0x11f
 1190 033a AA020000 		.4byte	0x2aa
 1191 033e 02       		.byte	0x2
 1192 033f 23       		.byte	0x23
 1193 0340 1C       		.uleb128 0x1c
 1194 0341 0C       		.uleb128 0xc
 1195 0342 6C7200   		.ascii	"lr\000"
 1196 0345 07       		.byte	0x7
 1197 0346 2001     		.2byte	0x120
 1198 0348 AA020000 		.4byte	0x2aa
 1199 034c 02       		.byte	0x2
 1200 034d 23       		.byte	0x23
 1201 034e 20       		.uleb128 0x20
 1202 034f 00       		.byte	0
 1203 0350 0B       		.uleb128 0xb
 1204 0351 89020000 		.4byte	.LASF50
 1205 0355 04       		.byte	0x4
 1206 0356 07       		.byte	0x7
 1207 0357 2A01     		.2byte	0x12a
 1208 0359 6D030000 		.4byte	0x36d
 1209 035d 0C       		.uleb128 0xc
 1210 035e 72313300 		.ascii	"r13\000"
 1211 0362 07       		.byte	0x7
 1212 0363 2B01     		.2byte	0x12b
 1213 0365 6D030000 		.4byte	0x36d
 1214 0369 02       		.byte	0x2
 1215 036a 23       		.byte	0x23
 1216 036b 00       		.uleb128 0
 1217 036c 00       		.byte	0
 1218 036d 09       		.uleb128 0x9
 1219 036e 04       		.byte	0x4
 1220 036f C2020000 		.4byte	0x2c2
 1221 0373 0D       		.uleb128 0xd
 1222 0374 86000000 		.4byte	0x86
 1223 0378 0D       		.uleb128 0xd
 1224 0379 09010000 		.4byte	0x109
 1225 037d 05       		.uleb128 0x5
 1226 037e BD050000 		.4byte	.LASF51
 1227 0382 10       		.byte	0x10
 1228 0383 08       		.byte	0x8
 1229 0384 25       		.byte	0x25
 1230 0385 B4030000 		.4byte	0x3b4
 1231 0389 06       		.uleb128 0x6
 1232 038a FF050000 		.4byte	.LASF52
 1233 038e 08       		.byte	0x8
 1234 038f 26       		.byte	0x26
 1235 0390 7D020000 		.4byte	0x27d
 1236 0394 02       		.byte	0x2
 1237 0395 23       		.byte	0x23
 1238 0396 00       		.uleb128 0
 1239 0397 06       		.uleb128 0x6
 1240 0398 39010000 		.4byte	.LASF53
 1241 039c 08       		.byte	0x8
 1242 039d 28       		.byte	0x28
 1243 039e 77020000 		.4byte	0x277
 1244 03a2 02       		.byte	0x2
 1245 03a3 23       		.byte	0x23
ARM GAS  /tmp/ccWlo0cl.s 			page 23


 1246 03a4 08       		.uleb128 0x8
 1247 03a5 06       		.uleb128 0x6
 1248 03a6 BE0A0000 		.4byte	.LASF54
 1249 03aa 08       		.byte	0x8
 1250 03ab 2A       		.byte	0x2a
 1251 03ac B4030000 		.4byte	0x3b4
 1252 03b0 02       		.byte	0x2
 1253 03b1 23       		.byte	0x23
 1254 03b2 0C       		.uleb128 0xc
 1255 03b3 00       		.byte	0
 1256 03b4 09       		.uleb128 0x9
 1257 03b5 04       		.byte	0x4
 1258 03b6 7D030000 		.4byte	0x37d
 1259 03ba 03       		.uleb128 0x3
 1260 03bb BD050000 		.4byte	.LASF51
 1261 03bf 08       		.byte	0x8
 1262 03c0 2C       		.byte	0x2c
 1263 03c1 7D030000 		.4byte	0x37d
 1264 03c5 03       		.uleb128 0x3
 1265 03c6 AE090000 		.4byte	.LASF55
 1266 03ca 09       		.byte	0x9
 1267 03cb 22       		.byte	0x22
 1268 03cc D0030000 		.4byte	0x3d0
 1269 03d0 05       		.uleb128 0x5
 1270 03d1 AE090000 		.4byte	.LASF55
 1271 03d5 0C       		.byte	0xc
 1272 03d6 09       		.byte	0x9
 1273 03d7 27       		.byte	0x27
 1274 03d8 07040000 		.4byte	0x407
 1275 03dc 06       		.uleb128 0x6
 1276 03dd 2E050000 		.4byte	.LASF56
 1277 03e1 09       		.byte	0x9
 1278 03e2 28       		.byte	0x28
 1279 03e3 07040000 		.4byte	0x407
 1280 03e7 02       		.byte	0x2
 1281 03e8 23       		.byte	0x23
 1282 03e9 00       		.uleb128 0
 1283 03ea 06       		.uleb128 0x6
 1284 03eb E50A0000 		.4byte	.LASF57
 1285 03ef 09       		.byte	0x9
 1286 03f0 2B       		.byte	0x2b
 1287 03f1 77020000 		.4byte	0x277
 1288 03f5 02       		.byte	0x2
 1289 03f6 23       		.byte	0x23
 1290 03f7 04       		.uleb128 0x4
 1291 03f8 06       		.uleb128 0x6
 1292 03f9 AF0A0000 		.4byte	.LASF58
 1293 03fd 09       		.byte	0x9
 1294 03fe 2D       		.byte	0x2d
 1295 03ff FE000000 		.4byte	0xfe
 1296 0403 02       		.byte	0x2
 1297 0404 23       		.byte	0x23
 1298 0405 08       		.uleb128 0x8
 1299 0406 00       		.byte	0
 1300 0407 09       		.uleb128 0x9
 1301 0408 04       		.byte	0x4
 1302 0409 C5030000 		.4byte	0x3c5
ARM GAS  /tmp/ccWlo0cl.s 			page 24


 1303 040d 05       		.uleb128 0x5
 1304 040e D2040000 		.4byte	.LASF59
 1305 0412 04       		.byte	0x4
 1306 0413 09       		.byte	0x9
 1307 0414 35       		.byte	0x35
 1308 0415 28040000 		.4byte	0x428
 1309 0419 06       		.uleb128 0x6
 1310 041a 96040000 		.4byte	.LASF60
 1311 041e 09       		.byte	0x9
 1312 041f 36       		.byte	0x36
 1313 0420 07040000 		.4byte	0x407
 1314 0424 02       		.byte	0x2
 1315 0425 23       		.byte	0x23
 1316 0426 00       		.uleb128 0
 1317 0427 00       		.byte	0
 1318 0428 03       		.uleb128 0x3
 1319 0429 D2040000 		.4byte	.LASF59
 1320 042d 09       		.byte	0x9
 1321 042e 39       		.byte	0x39
 1322 042f 0D040000 		.4byte	0x40d
 1323 0433 0E       		.uleb128 0xe
 1324 0434 04       		.byte	0x4
 1325 0435 06       		.byte	0x6
 1326 0436 8F       		.byte	0x8f
 1327 0437 68040000 		.4byte	0x468
 1328 043b 0F       		.uleb128 0xf
 1329 043c 040A0000 		.4byte	.LASF61
 1330 0440 06       		.byte	0x6
 1331 0441 96       		.byte	0x96
 1332 0442 F3000000 		.4byte	0xf3
 1333 0446 0F       		.uleb128 0xf
 1334 0447 41010000 		.4byte	.LASF62
 1335 044b 06       		.byte	0x6
 1336 044c 9D       		.byte	0x9d
 1337 044d F3000000 		.4byte	0xf3
 1338 0451 0F       		.uleb128 0xf
 1339 0452 B5030000 		.4byte	.LASF63
 1340 0456 06       		.byte	0x6
 1341 0457 A4       		.byte	0xa4
 1342 0458 B5020000 		.4byte	0x2b5
 1343 045c 0F       		.uleb128 0xf
 1344 045d 61010000 		.4byte	.LASF64
 1345 0461 06       		.byte	0x6
 1346 0462 AB       		.byte	0xab
 1347 0463 FE000000 		.4byte	0xfe
 1348 0467 00       		.byte	0
 1349 0468 09       		.uleb128 0x9
 1350 0469 04       		.byte	0x4
 1351 046a 6E040000 		.4byte	0x46e
 1352 046e 10       		.uleb128 0x10
 1353 046f 73040000 		.4byte	0x473
 1354 0473 04       		.uleb128 0x4
 1355 0474 01       		.byte	0x1
 1356 0475 08       		.byte	0x8
 1357 0476 94030000 		.4byte	.LASF65
 1358 047a 09       		.uleb128 0x9
 1359 047b 04       		.byte	0x4
ARM GAS  /tmp/ccWlo0cl.s 			page 25


 1360 047c B7020000 		.4byte	0x2b7
 1361 0480 09       		.uleb128 0x9
 1362 0481 04       		.byte	0x4
 1363 0482 BA030000 		.4byte	0x3ba
 1364 0486 09       		.uleb128 0x9
 1365 0487 04       		.byte	0x4
 1366 0488 8C040000 		.4byte	0x48c
 1367 048c 11       		.uleb128 0x11
 1368 048d 01       		.byte	0x1
 1369 048e F3000000 		.4byte	0xf3
 1370 0492 9C040000 		.4byte	0x49c
 1371 0496 12       		.uleb128 0x12
 1372 0497 B5020000 		.4byte	0x2b5
 1373 049b 00       		.byte	0
 1374 049c 03       		.uleb128 0x3
 1375 049d A8030000 		.4byte	.LASF66
 1376 04a1 0A       		.byte	0xa
 1377 04a2 30       		.byte	0x30
 1378 04a3 A7040000 		.4byte	0x4a7
 1379 04a7 05       		.uleb128 0x5
 1380 04a8 A8030000 		.4byte	.LASF66
 1381 04ac 24       		.byte	0x24
 1382 04ad 0A       		.byte	0xa
 1383 04ae 3E       		.byte	0x3e
 1384 04af 24050000 		.4byte	0x524
 1385 04b3 06       		.uleb128 0x6
 1386 04b4 8B080000 		.4byte	.LASF67
 1387 04b8 0A       		.byte	0xa
 1388 04b9 3F       		.byte	0x3f
 1389 04ba 7D020000 		.4byte	0x27d
 1390 04be 02       		.byte	0x2
 1391 04bf 23       		.byte	0x23
 1392 04c0 00       		.uleb128 0
 1393 04c1 06       		.uleb128 0x6
 1394 04c2 9E040000 		.4byte	.LASF68
 1395 04c6 0A       		.byte	0xa
 1396 04c7 40       		.byte	0x40
 1397 04c8 30000000 		.4byte	0x30
 1398 04cc 02       		.byte	0x2
 1399 04cd 23       		.byte	0x23
 1400 04ce 08       		.uleb128 0x8
 1401 04cf 06       		.uleb128 0x6
 1402 04d0 99010000 		.4byte	.LASF69
 1403 04d4 0A       		.byte	0xa
 1404 04d5 41       		.byte	0x41
 1405 04d6 47050000 		.4byte	0x547
 1406 04da 02       		.byte	0x2
 1407 04db 23       		.byte	0x23
 1408 04dc 0C       		.uleb128 0xc
 1409 04dd 06       		.uleb128 0x6
 1410 04de 5B010000 		.4byte	.LASF70
 1411 04e2 0A       		.byte	0xa
 1412 04e3 42       		.byte	0x42
 1413 04e4 47050000 		.4byte	0x547
 1414 04e8 02       		.byte	0x2
 1415 04e9 23       		.byte	0x23
 1416 04ea 10       		.uleb128 0x10
ARM GAS  /tmp/ccWlo0cl.s 			page 26


 1417 04eb 06       		.uleb128 0x6
 1418 04ec 36050000 		.4byte	.LASF71
 1419 04f0 0A       		.byte	0xa
 1420 04f1 44       		.byte	0x44
 1421 04f2 47050000 		.4byte	0x547
 1422 04f6 02       		.byte	0x2
 1423 04f7 23       		.byte	0x23
 1424 04f8 14       		.uleb128 0x14
 1425 04f9 06       		.uleb128 0x6
 1426 04fa C3010000 		.4byte	.LASF72
 1427 04fe 0A       		.byte	0xa
 1428 04ff 45       		.byte	0x45
 1429 0500 47050000 		.4byte	0x547
 1430 0504 02       		.byte	0x2
 1431 0505 23       		.byte	0x23
 1432 0506 18       		.uleb128 0x18
 1433 0507 06       		.uleb128 0x6
 1434 0508 A2010000 		.4byte	.LASF73
 1435 050c 0A       		.byte	0xa
 1436 050d 46       		.byte	0x46
 1437 050e 24050000 		.4byte	0x524
 1438 0512 02       		.byte	0x2
 1439 0513 23       		.byte	0x23
 1440 0514 1C       		.uleb128 0x1c
 1441 0515 06       		.uleb128 0x6
 1442 0516 E1020000 		.4byte	.LASF74
 1443 051a 0A       		.byte	0xa
 1444 051b 47       		.byte	0x47
 1445 051c B5020000 		.4byte	0x2b5
 1446 0520 02       		.byte	0x2
 1447 0521 23       		.byte	0x23
 1448 0522 20       		.uleb128 0x20
 1449 0523 00       		.byte	0
 1450 0524 03       		.uleb128 0x3
 1451 0525 4E060000 		.4byte	.LASF75
 1452 0529 0A       		.byte	0xa
 1453 052a 33       		.byte	0x33
 1454 052b 2F050000 		.4byte	0x52f
 1455 052f 09       		.uleb128 0x9
 1456 0530 04       		.byte	0x4
 1457 0531 35050000 		.4byte	0x535
 1458 0535 13       		.uleb128 0x13
 1459 0536 01       		.byte	0x1
 1460 0537 41050000 		.4byte	0x541
 1461 053b 12       		.uleb128 0x12
 1462 053c 41050000 		.4byte	0x541
 1463 0540 00       		.byte	0
 1464 0541 09       		.uleb128 0x9
 1465 0542 04       		.byte	0x4
 1466 0543 9C040000 		.4byte	0x49c
 1467 0547 09       		.uleb128 0x9
 1468 0548 04       		.byte	0x4
 1469 0549 49000000 		.4byte	0x49
 1470 054d 03       		.uleb128 0x3
 1471 054e 4C0A0000 		.4byte	.LASF76
 1472 0552 0A       		.byte	0xa
 1473 0553 7B       		.byte	0x7b
ARM GAS  /tmp/ccWlo0cl.s 			page 27


 1474 0554 9C040000 		.4byte	0x49c
 1475 0558 03       		.uleb128 0x3
 1476 0559 EE030000 		.4byte	.LASF77
 1477 055d 0A       		.byte	0xa
 1478 055e EE       		.byte	0xee
 1479 055f 9C040000 		.4byte	0x49c
 1480 0563 11       		.uleb128 0x11
 1481 0564 01       		.byte	0x1
 1482 0565 30000000 		.4byte	0x30
 1483 0569 7D050000 		.4byte	0x57d
 1484 056d 12       		.uleb128 0x12
 1485 056e B5020000 		.4byte	0x2b5
 1486 0572 12       		.uleb128 0x12
 1487 0573 7D050000 		.4byte	0x57d
 1488 0577 12       		.uleb128 0x12
 1489 0578 30000000 		.4byte	0x30
 1490 057c 00       		.byte	0
 1491 057d 09       		.uleb128 0x9
 1492 057e 04       		.byte	0x4
 1493 057f 83050000 		.4byte	0x583
 1494 0583 10       		.uleb128 0x10
 1495 0584 49000000 		.4byte	0x49
 1496 0588 09       		.uleb128 0x9
 1497 0589 04       		.byte	0x4
 1498 058a 63050000 		.4byte	0x563
 1499 058e 11       		.uleb128 0x11
 1500 058f 01       		.byte	0x1
 1501 0590 30000000 		.4byte	0x30
 1502 0594 A8050000 		.4byte	0x5a8
 1503 0598 12       		.uleb128 0x12
 1504 0599 B5020000 		.4byte	0x2b5
 1505 059d 12       		.uleb128 0x12
 1506 059e 47050000 		.4byte	0x547
 1507 05a2 12       		.uleb128 0x12
 1508 05a3 30000000 		.4byte	0x30
 1509 05a7 00       		.byte	0
 1510 05a8 09       		.uleb128 0x9
 1511 05a9 04       		.byte	0x4
 1512 05aa 8E050000 		.4byte	0x58e
 1513 05ae 11       		.uleb128 0x11
 1514 05af 01       		.byte	0x1
 1515 05b0 F3000000 		.4byte	0xf3
 1516 05b4 C3050000 		.4byte	0x5c3
 1517 05b8 12       		.uleb128 0x12
 1518 05b9 B5020000 		.4byte	0x2b5
 1519 05bd 12       		.uleb128 0x12
 1520 05be 49000000 		.4byte	0x49
 1521 05c2 00       		.byte	0
 1522 05c3 09       		.uleb128 0x9
 1523 05c4 04       		.byte	0x4
 1524 05c5 AE050000 		.4byte	0x5ae
 1525 05c9 14       		.uleb128 0x14
 1526 05ca 31070000 		.4byte	.LASF237
 1527 05ce 01       		.byte	0x1
 1528 05cf 0B       		.byte	0xb
 1529 05d0 82       		.byte	0x82
 1530 05d1 FD070000 		.4byte	0x7fd
ARM GAS  /tmp/ccWlo0cl.s 			page 28


 1531 05d5 15       		.uleb128 0x15
 1532 05d6 B4040000 		.4byte	.LASF78
 1533 05da 72       		.sleb128 -14
 1534 05db 15       		.uleb128 0x15
 1535 05dc FA040000 		.4byte	.LASF79
 1536 05e0 74       		.sleb128 -12
 1537 05e1 15       		.uleb128 0x15
 1538 05e2 68050000 		.4byte	.LASF80
 1539 05e6 75       		.sleb128 -11
 1540 05e7 15       		.uleb128 0x15
 1541 05e8 84030000 		.4byte	.LASF81
 1542 05ec 76       		.sleb128 -10
 1543 05ed 15       		.uleb128 0x15
 1544 05ee 17060000 		.4byte	.LASF82
 1545 05f2 7B       		.sleb128 -5
 1546 05f3 15       		.uleb128 0x15
 1547 05f4 DE080000 		.4byte	.LASF83
 1548 05f8 7C       		.sleb128 -4
 1549 05f9 15       		.uleb128 0x15
 1550 05fa 620A0000 		.4byte	.LASF84
 1551 05fe 7E       		.sleb128 -2
 1552 05ff 15       		.uleb128 0x15
 1553 0600 40020000 		.4byte	.LASF85
 1554 0604 7F       		.sleb128 -1
 1555 0605 15       		.uleb128 0x15
 1556 0606 DE040000 		.4byte	.LASF86
 1557 060a 00       		.sleb128 0
 1558 060b 15       		.uleb128 0x15
 1559 060c 75080000 		.4byte	.LASF87
 1560 0610 01       		.sleb128 1
 1561 0611 15       		.uleb128 0x15
 1562 0612 10050000 		.4byte	.LASF88
 1563 0616 02       		.sleb128 2
 1564 0617 15       		.uleb128 0x15
 1565 0618 A0090000 		.4byte	.LASF89
 1566 061c 03       		.sleb128 3
 1567 061d 15       		.uleb128 0x15
 1568 061e D4000000 		.4byte	.LASF90
 1569 0622 04       		.sleb128 4
 1570 0623 15       		.uleb128 0x15
 1571 0624 3F090000 		.4byte	.LASF91
 1572 0628 05       		.sleb128 5
 1573 0629 15       		.uleb128 0x15
 1574 062a 95080000 		.4byte	.LASF92
 1575 062e 06       		.sleb128 6
 1576 062f 15       		.uleb128 0x15
 1577 0630 54040000 		.4byte	.LASF93
 1578 0634 07       		.sleb128 7
 1579 0635 15       		.uleb128 0x15
 1580 0636 49080000 		.4byte	.LASF94
 1581 063a 08       		.sleb128 8
 1582 063b 15       		.uleb128 0x15
 1583 063c 570A0000 		.4byte	.LASF95
 1584 0640 09       		.sleb128 9
 1585 0641 15       		.uleb128 0x15
 1586 0642 0B0A0000 		.4byte	.LASF96
 1587 0646 0A       		.sleb128 10
ARM GAS  /tmp/ccWlo0cl.s 			page 29


 1588 0647 15       		.uleb128 0x15
 1589 0648 6E070000 		.4byte	.LASF97
 1590 064c 0B       		.sleb128 11
 1591 064d 15       		.uleb128 0x15
 1592 064e F9060000 		.4byte	.LASF98
 1593 0652 0C       		.sleb128 12
 1594 0653 15       		.uleb128 0x15
 1595 0654 91020000 		.4byte	.LASF99
 1596 0658 0D       		.sleb128 13
 1597 0659 15       		.uleb128 0x15
 1598 065a 4F090000 		.4byte	.LASF100
 1599 065e 0E       		.sleb128 14
 1600 065f 15       		.uleb128 0x15
 1601 0660 A8080000 		.4byte	.LASF101
 1602 0664 0F       		.sleb128 15
 1603 0665 15       		.uleb128 0x15
 1604 0666 6C040000 		.4byte	.LASF102
 1605 066a 10       		.sleb128 16
 1606 066b 15       		.uleb128 0x15
 1607 066c 36070000 		.4byte	.LASF103
 1608 0670 11       		.sleb128 17
 1609 0671 15       		.uleb128 0x15
 1610 0672 62080000 		.4byte	.LASF104
 1611 0676 12       		.sleb128 18
 1612 0677 15       		.uleb128 0x15
 1613 0678 5F040000 		.4byte	.LASF105
 1614 067c 13       		.sleb128 19
 1615 067d 15       		.uleb128 0x15
 1616 067e BC030000 		.4byte	.LASF106
 1617 0682 14       		.sleb128 20
 1618 0683 15       		.uleb128 0x15
 1619 0684 CE090000 		.4byte	.LASF107
 1620 0688 15       		.sleb128 21
 1621 0689 15       		.uleb128 0x15
 1622 068a 20050000 		.4byte	.LASF108
 1623 068e 16       		.sleb128 22
 1624 068f 15       		.uleb128 0x15
 1625 0690 F7090000 		.4byte	.LASF109
 1626 0694 17       		.sleb128 23
 1627 0695 15       		.uleb128 0x15
 1628 0696 95050000 		.4byte	.LASF110
 1629 069a 18       		.sleb128 24
 1630 069b 15       		.uleb128 0x15
 1631 069c 68090000 		.4byte	.LASF111
 1632 06a0 19       		.sleb128 25
 1633 06a1 15       		.uleb128 0x15
 1634 06a2 06020000 		.4byte	.LASF112
 1635 06a6 1A       		.sleb128 26
 1636 06a7 15       		.uleb128 0x15
 1637 06a8 39040000 		.4byte	.LASF113
 1638 06ac 1B       		.sleb128 27
 1639 06ad 15       		.uleb128 0x15
 1640 06ae FB000000 		.4byte	.LASF114
 1641 06b2 1C       		.sleb128 28
 1642 06b3 15       		.uleb128 0x15
 1643 06b4 FF070000 		.4byte	.LASF115
 1644 06b8 1D       		.sleb128 29
ARM GAS  /tmp/ccWlo0cl.s 			page 30


 1645 06b9 15       		.uleb128 0x15
 1646 06ba FA030000 		.4byte	.LASF116
 1647 06be 1E       		.sleb128 30
 1648 06bf 15       		.uleb128 0x15
 1649 06c0 15040000 		.4byte	.LASF117
 1650 06c4 1F       		.sleb128 31
 1651 06c5 15       		.uleb128 0x15
 1652 06c6 37030000 		.4byte	.LASF118
 1653 06ca 20       		.sleb128 32
 1654 06cb 15       		.uleb128 0x15
 1655 06cc BB060000 		.4byte	.LASF119
 1656 06d0 21       		.sleb128 33
 1657 06d1 15       		.uleb128 0x15
 1658 06d2 5B050000 		.4byte	.LASF120
 1659 06d6 22       		.sleb128 34
 1660 06d7 15       		.uleb128 0x15
 1661 06d8 0D060000 		.4byte	.LASF121
 1662 06dc 23       		.sleb128 35
 1663 06dd 15       		.uleb128 0x15
 1664 06de E9050000 		.4byte	.LASF122
 1665 06e2 24       		.sleb128 36
 1666 06e3 15       		.uleb128 0x15
 1667 06e4 33080000 		.4byte	.LASF123
 1668 06e8 25       		.sleb128 37
 1669 06e9 15       		.uleb128 0x15
 1670 06ea 04040000 		.4byte	.LASF124
 1671 06ee 26       		.sleb128 38
 1672 06ef 15       		.uleb128 0x15
 1673 06f0 4D020000 		.4byte	.LASF125
 1674 06f4 27       		.sleb128 39
 1675 06f5 15       		.uleb128 0x15
 1676 06f6 C2070000 		.4byte	.LASF126
 1677 06fa 28       		.sleb128 40
 1678 06fb 15       		.uleb128 0x15
 1679 06fc 94070000 		.4byte	.LASF127
 1680 0700 29       		.sleb128 41
 1681 0701 15       		.uleb128 0x15
 1682 0702 7A060000 		.4byte	.LASF128
 1683 0706 2A       		.sleb128 42
 1684 0707 15       		.uleb128 0x15
 1685 0708 68010000 		.4byte	.LASF129
 1686 070c 2B       		.sleb128 43
 1687 070d 15       		.uleb128 0x15
 1688 070e 07000000 		.4byte	.LASF130
 1689 0712 2C       		.sleb128 44
 1690 0713 15       		.uleb128 0x15
 1691 0714 7E040000 		.4byte	.LASF131
 1692 0718 2D       		.sleb128 45
 1693 0719 15       		.uleb128 0x15
 1694 071a 350A0000 		.4byte	.LASF132
 1695 071e 2E       		.sleb128 46
 1696 071f 15       		.uleb128 0x15
 1697 0720 8C0A0000 		.4byte	.LASF133
 1698 0724 2F       		.sleb128 47
 1699 0725 15       		.uleb128 0x15
 1700 0726 C8040000 		.4byte	.LASF134
 1701 072a 30       		.sleb128 48
ARM GAS  /tmp/ccWlo0cl.s 			page 31


 1702 072b 15       		.uleb128 0x15
 1703 072c 420A0000 		.4byte	.LASF135
 1704 0730 31       		.sleb128 49
 1705 0731 15       		.uleb128 0x15
 1706 0732 70030000 		.4byte	.LASF136
 1707 0736 32       		.sleb128 50
 1708 0737 15       		.uleb128 0x15
 1709 0738 CA000000 		.4byte	.LASF137
 1710 073c 33       		.sleb128 51
 1711 073d 15       		.uleb128 0x15
 1712 073e 39060000 		.4byte	.LASF138
 1713 0742 34       		.sleb128 52
 1714 0743 15       		.uleb128 0x15
 1715 0744 8A050000 		.4byte	.LASF139
 1716 0748 35       		.sleb128 53
 1717 0749 15       		.uleb128 0x15
 1718 074a A5060000 		.4byte	.LASF140
 1719 074e 36       		.sleb128 54
 1720 074f 15       		.uleb128 0x15
 1721 0750 C3050000 		.4byte	.LASF141
 1722 0754 37       		.sleb128 55
 1723 0755 15       		.uleb128 0x15
 1724 0756 62060000 		.4byte	.LASF142
 1725 075a 38       		.sleb128 56
 1726 075b 15       		.uleb128 0x15
 1727 075c B8000000 		.4byte	.LASF143
 1728 0760 39       		.sleb128 57
 1729 0761 15       		.uleb128 0x15
 1730 0762 CD0A0000 		.4byte	.LASF144
 1731 0766 3A       		.sleb128 58
 1732 0767 15       		.uleb128 0x15
 1733 0768 0B070000 		.4byte	.LASF145
 1734 076c 3B       		.sleb128 59
 1735 076d 15       		.uleb128 0x15
 1736 076e C5020000 		.4byte	.LASF146
 1737 0772 3C       		.sleb128 60
 1738 0773 15       		.uleb128 0x15
 1739 0774 0F090000 		.4byte	.LASF147
 1740 0778 3D       		.sleb128 61
 1741 0779 15       		.uleb128 0x15
 1742 077a DB050000 		.4byte	.LASF148
 1743 077e 3E       		.sleb128 62
 1744 077f 15       		.uleb128 0x15
 1745 0780 1D070000 		.4byte	.LASF149
 1746 0784 3F       		.sleb128 63
 1747 0785 15       		.uleb128 0x15
 1748 0786 1F010000 		.4byte	.LASF150
 1749 078a C000     		.sleb128 64
 1750 078c 15       		.uleb128 0x15
 1751 078d 54080000 		.4byte	.LASF151
 1752 0791 C100     		.sleb128 65
 1753 0793 15       		.uleb128 0x15
 1754 0794 44030000 		.4byte	.LASF152
 1755 0798 C200     		.sleb128 66
 1756 079a 15       		.uleb128 0x15
 1757 079b A8040000 		.4byte	.LASF153
 1758 079f C300     		.sleb128 67
ARM GAS  /tmp/ccWlo0cl.s 			page 32


 1759 07a1 15       		.uleb128 0x15
 1760 07a2 E1010000 		.4byte	.LASF154
 1761 07a6 C400     		.sleb128 68
 1762 07a8 15       		.uleb128 0x15
 1763 07a9 C4080000 		.4byte	.LASF155
 1764 07ad C500     		.sleb128 69
 1765 07af 15       		.uleb128 0x15
 1766 07b0 5C070000 		.4byte	.LASF156
 1767 07b4 C600     		.sleb128 70
 1768 07b6 15       		.uleb128 0x15
 1769 07b7 2D010000 		.4byte	.LASF157
 1770 07bb C700     		.sleb128 71
 1771 07bd 15       		.uleb128 0x15
 1772 07be F9080000 		.4byte	.LASF158
 1773 07c2 C800     		.sleb128 72
 1774 07c4 15       		.uleb128 0x15
 1775 07c5 AB070000 		.4byte	.LASF159
 1776 07c9 C900     		.sleb128 73
 1777 07cb 15       		.uleb128 0x15
 1778 07cc 8C090000 		.4byte	.LASF160
 1779 07d0 CA00     		.sleb128 74
 1780 07d2 15       		.uleb128 0x15
 1781 07d3 6E0A0000 		.4byte	.LASF161
 1782 07d7 CB00     		.sleb128 75
 1783 07d9 15       		.uleb128 0x15
 1784 07da 4A010000 		.4byte	.LASF162
 1785 07de CC00     		.sleb128 76
 1786 07e0 15       		.uleb128 0x15
 1787 07e1 F3050000 		.4byte	.LASF163
 1788 07e5 CD00     		.sleb128 77
 1789 07e7 15       		.uleb128 0x15
 1790 07e8 DF000000 		.4byte	.LASF164
 1791 07ec CE00     		.sleb128 78
 1792 07ee 15       		.uleb128 0x15
 1793 07ef B8070000 		.4byte	.LASF165
 1794 07f3 CF00     		.sleb128 79
 1795 07f5 15       		.uleb128 0x15
 1796 07f6 46040000 		.4byte	.LASF166
 1797 07fa D000     		.sleb128 80
 1798 07fc 00       		.byte	0
 1799 07fd 16       		.uleb128 0x16
 1800 07fe 86000000 		.4byte	0x86
 1801 0802 0D080000 		.4byte	0x80d
 1802 0806 17       		.uleb128 0x17
 1803 0807 3B000000 		.4byte	0x3b
 1804 080b 01       		.byte	0x1
 1805 080c 00       		.byte	0
 1806 080d 0D       		.uleb128 0xd
 1807 080e 62000000 		.4byte	0x62
 1808 0812 0D       		.uleb128 0xd
 1809 0813 74000000 		.4byte	0x74
 1810 0817 18       		.uleb128 0x18
 1811 0818 88       		.byte	0x88
 1812 0819 0B       		.byte	0xb
 1813 081a D002     		.2byte	0x2d0
 1814 081c E4090000 		.4byte	0x9e4
 1815 0820 0C       		.uleb128 0xc
ARM GAS  /tmp/ccWlo0cl.s 			page 33


 1816 0821 435200   		.ascii	"CR\000"
 1817 0824 0B       		.byte	0xb
 1818 0825 D202     		.2byte	0x2d2
 1819 0827 73030000 		.4byte	0x373
 1820 082b 02       		.byte	0x2
 1821 082c 23       		.byte	0x23
 1822 082d 00       		.uleb128 0
 1823 082e 19       		.uleb128 0x19
 1824 082f 82050000 		.4byte	.LASF167
 1825 0833 0B       		.byte	0xb
 1826 0834 D302     		.2byte	0x2d3
 1827 0836 73030000 		.4byte	0x373
 1828 083a 02       		.byte	0x2
 1829 083b 23       		.byte	0x23
 1830 083c 04       		.uleb128 0x4
 1831 083d 19       		.uleb128 0x19
 1832 083e 34040000 		.4byte	.LASF168
 1833 0842 0B       		.byte	0xb
 1834 0843 D402     		.2byte	0x2d4
 1835 0845 73030000 		.4byte	0x373
 1836 0849 02       		.byte	0x2
 1837 084a 23       		.byte	0x23
 1838 084b 08       		.uleb128 0x8
 1839 084c 0C       		.uleb128 0xc
 1840 084d 43495200 		.ascii	"CIR\000"
 1841 0851 0B       		.byte	0xb
 1842 0852 D502     		.2byte	0x2d5
 1843 0854 73030000 		.4byte	0x373
 1844 0858 02       		.byte	0x2
 1845 0859 23       		.byte	0x23
 1846 085a 0C       		.uleb128 0xc
 1847 085b 19       		.uleb128 0x19
 1848 085c 9E0A0000 		.4byte	.LASF169
 1849 0860 0B       		.byte	0xb
 1850 0861 D602     		.2byte	0x2d6
 1851 0863 73030000 		.4byte	0x373
 1852 0867 02       		.byte	0x2
 1853 0868 23       		.byte	0x23
 1854 0869 10       		.uleb128 0x10
 1855 086a 19       		.uleb128 0x19
 1856 086b 06090000 		.4byte	.LASF170
 1857 086f 0B       		.byte	0xb
 1858 0870 D702     		.2byte	0x2d7
 1859 0872 73030000 		.4byte	0x373
 1860 0876 02       		.byte	0x2
 1861 0877 23       		.byte	0x23
 1862 0878 14       		.uleb128 0x14
 1863 0879 19       		.uleb128 0x19
 1864 087a 48070000 		.4byte	.LASF171
 1865 087e 0B       		.byte	0xb
 1866 087f D802     		.2byte	0x2d8
 1867 0881 73030000 		.4byte	0x373
 1868 0885 02       		.byte	0x2
 1869 0886 23       		.byte	0x23
 1870 0887 18       		.uleb128 0x18
 1871 0888 19       		.uleb128 0x19
 1872 0889 A3020000 		.4byte	.LASF172
ARM GAS  /tmp/ccWlo0cl.s 			page 34


 1873 088d 0B       		.byte	0xb
 1874 088e D902     		.2byte	0x2d9
 1875 0890 86000000 		.4byte	0x86
 1876 0894 02       		.byte	0x2
 1877 0895 23       		.byte	0x23
 1878 0896 1C       		.uleb128 0x1c
 1879 0897 19       		.uleb128 0x19
 1880 0898 80070000 		.4byte	.LASF173
 1881 089c 0B       		.byte	0xb
 1882 089d DA02     		.2byte	0x2da
 1883 089f 73030000 		.4byte	0x373
 1884 08a3 02       		.byte	0x2
 1885 08a4 23       		.byte	0x23
 1886 08a5 20       		.uleb128 0x20
 1887 08a6 19       		.uleb128 0x19
 1888 08a7 23060000 		.4byte	.LASF174
 1889 08ab 0B       		.byte	0xb
 1890 08ac DB02     		.2byte	0x2db
 1891 08ae 73030000 		.4byte	0x373
 1892 08b2 02       		.byte	0x2
 1893 08b3 23       		.byte	0x23
 1894 08b4 24       		.uleb128 0x24
 1895 08b5 19       		.uleb128 0x19
 1896 08b6 AD020000 		.4byte	.LASF175
 1897 08ba 0B       		.byte	0xb
 1898 08bb DC02     		.2byte	0x2dc
 1899 08bd FD070000 		.4byte	0x7fd
 1900 08c1 02       		.byte	0x2
 1901 08c2 23       		.byte	0x23
 1902 08c3 28       		.uleb128 0x28
 1903 08c4 19       		.uleb128 0x19
 1904 08c5 D6080000 		.4byte	.LASF176
 1905 08c9 0B       		.byte	0xb
 1906 08ca DD02     		.2byte	0x2dd
 1907 08cc 73030000 		.4byte	0x373
 1908 08d0 02       		.byte	0x2
 1909 08d1 23       		.byte	0x23
 1910 08d2 30       		.uleb128 0x30
 1911 08d3 19       		.uleb128 0x19
 1912 08d4 A0030000 		.4byte	.LASF177
 1913 08d8 0B       		.byte	0xb
 1914 08d9 DE02     		.2byte	0x2de
 1915 08db 73030000 		.4byte	0x373
 1916 08df 02       		.byte	0x2
 1917 08e0 23       		.byte	0x23
 1918 08e1 34       		.uleb128 0x34
 1919 08e2 19       		.uleb128 0x19
 1920 08e3 C50A0000 		.4byte	.LASF178
 1921 08e7 0B       		.byte	0xb
 1922 08e8 DF02     		.2byte	0x2df
 1923 08ea 73030000 		.4byte	0x373
 1924 08ee 02       		.byte	0x2
 1925 08ef 23       		.byte	0x23
 1926 08f0 38       		.uleb128 0x38
 1927 08f1 19       		.uleb128 0x19
 1928 08f2 5C030000 		.4byte	.LASF179
 1929 08f6 0B       		.byte	0xb
ARM GAS  /tmp/ccWlo0cl.s 			page 35


 1930 08f7 E002     		.2byte	0x2e0
 1931 08f9 86000000 		.4byte	0x86
 1932 08fd 02       		.byte	0x2
 1933 08fe 23       		.byte	0x23
 1934 08ff 3C       		.uleb128 0x3c
 1935 0900 19       		.uleb128 0x19
 1936 0901 A3070000 		.4byte	.LASF180
 1937 0905 0B       		.byte	0xb
 1938 0906 E102     		.2byte	0x2e1
 1939 0908 73030000 		.4byte	0x373
 1940 090c 02       		.byte	0x2
 1941 090d 23       		.byte	0x23
 1942 090e 40       		.uleb128 0x40
 1943 090f 19       		.uleb128 0x19
 1944 0910 2E020000 		.4byte	.LASF181
 1945 0914 0B       		.byte	0xb
 1946 0915 E202     		.2byte	0x2e2
 1947 0917 73030000 		.4byte	0x373
 1948 091b 02       		.byte	0x2
 1949 091c 23       		.byte	0x23
 1950 091d 44       		.uleb128 0x44
 1951 091e 19       		.uleb128 0x19
 1952 091f 66030000 		.4byte	.LASF182
 1953 0923 0B       		.byte	0xb
 1954 0924 E302     		.2byte	0x2e3
 1955 0926 FD070000 		.4byte	0x7fd
 1956 092a 02       		.byte	0x2
 1957 092b 23       		.byte	0x23
 1958 092c 48       		.uleb128 0x48
 1959 092d 19       		.uleb128 0x19
 1960 092e 36020000 		.4byte	.LASF183
 1961 0932 0B       		.byte	0xb
 1962 0933 E402     		.2byte	0x2e4
 1963 0935 73030000 		.4byte	0x373
 1964 0939 02       		.byte	0x2
 1965 093a 23       		.byte	0x23
 1966 093b 50       		.uleb128 0x50
 1967 093c 19       		.uleb128 0x19
 1968 093d 7C010000 		.4byte	.LASF184
 1969 0941 0B       		.byte	0xb
 1970 0942 E502     		.2byte	0x2e5
 1971 0944 73030000 		.4byte	0x373
 1972 0948 02       		.byte	0x2
 1973 0949 23       		.byte	0x23
 1974 094a 54       		.uleb128 0x54
 1975 094b 19       		.uleb128 0x19
 1976 094c 6B080000 		.4byte	.LASF185
 1977 0950 0B       		.byte	0xb
 1978 0951 E602     		.2byte	0x2e6
 1979 0953 73030000 		.4byte	0x373
 1980 0957 02       		.byte	0x2
 1981 0958 23       		.byte	0x23
 1982 0959 58       		.uleb128 0x58
 1983 095a 19       		.uleb128 0x19
 1984 095b D7020000 		.4byte	.LASF186
 1985 095f 0B       		.byte	0xb
 1986 0960 E702     		.2byte	0x2e7
ARM GAS  /tmp/ccWlo0cl.s 			page 36


 1987 0962 86000000 		.4byte	0x86
 1988 0966 02       		.byte	0x2
 1989 0967 23       		.byte	0x23
 1990 0968 5C       		.uleb128 0x5c
 1991 0969 19       		.uleb128 0x19
 1992 096a EF060000 		.4byte	.LASF187
 1993 096e 0B       		.byte	0xb
 1994 096f E802     		.2byte	0x2e8
 1995 0971 73030000 		.4byte	0x373
 1996 0975 02       		.byte	0x2
 1997 0976 23       		.byte	0x23
 1998 0977 60       		.uleb128 0x60
 1999 0978 19       		.uleb128 0x19
 2000 0979 44060000 		.4byte	.LASF188
 2001 097d 0B       		.byte	0xb
 2002 097e E902     		.2byte	0x2e9
 2003 0980 73030000 		.4byte	0x373
 2004 0984 02       		.byte	0x2
 2005 0985 23       		.byte	0x23
 2006 0986 64       		.uleb128 0x64
 2007 0987 19       		.uleb128 0x19
 2008 0988 7A030000 		.4byte	.LASF189
 2009 098c 0B       		.byte	0xb
 2010 098d EA02     		.2byte	0x2ea
 2011 098f FD070000 		.4byte	0x7fd
 2012 0993 02       		.byte	0x2
 2013 0994 23       		.byte	0x23
 2014 0995 68       		.uleb128 0x68
 2015 0996 19       		.uleb128 0x19
 2016 0997 10040000 		.4byte	.LASF190
 2017 099b 0B       		.byte	0xb
 2018 099c EB02     		.2byte	0x2eb
 2019 099e 73030000 		.4byte	0x373
 2020 09a2 02       		.byte	0x2
 2021 09a3 23       		.byte	0x23
 2022 09a4 70       		.uleb128 0x70
 2023 09a5 0C       		.uleb128 0xc
 2024 09a6 43535200 		.ascii	"CSR\000"
 2025 09aa 0B       		.byte	0xb
 2026 09ab EC02     		.2byte	0x2ec
 2027 09ad 73030000 		.4byte	0x373
 2028 09b1 02       		.byte	0x2
 2029 09b2 23       		.byte	0x23
 2030 09b3 74       		.uleb128 0x74
 2031 09b4 19       		.uleb128 0x19
 2032 09b5 E8020000 		.4byte	.LASF191
 2033 09b9 0B       		.byte	0xb
 2034 09ba ED02     		.2byte	0x2ed
 2035 09bc FD070000 		.4byte	0x7fd
 2036 09c0 02       		.byte	0x2
 2037 09c1 23       		.byte	0x23
 2038 09c2 78       		.uleb128 0x78
 2039 09c3 19       		.uleb128 0x19
 2040 09c4 07060000 		.4byte	.LASF192
 2041 09c8 0B       		.byte	0xb
 2042 09c9 EE02     		.2byte	0x2ee
 2043 09cb 73030000 		.4byte	0x373
ARM GAS  /tmp/ccWlo0cl.s 			page 37


 2044 09cf 03       		.byte	0x3
 2045 09d0 23       		.byte	0x23
 2046 09d1 8001     		.uleb128 0x80
 2047 09d3 19       		.uleb128 0x19
 2048 09d4 24000000 		.4byte	.LASF193
 2049 09d8 0B       		.byte	0xb
 2050 09d9 EF02     		.2byte	0x2ef
 2051 09db 73030000 		.4byte	0x373
 2052 09df 03       		.byte	0x3
 2053 09e0 23       		.byte	0x23
 2054 09e1 8401     		.uleb128 0x84
 2055 09e3 00       		.byte	0
 2056 09e4 1A       		.uleb128 0x1a
 2057 09e5 20090000 		.4byte	.LASF194
 2058 09e9 0B       		.byte	0xb
 2059 09ea F002     		.2byte	0x2f0
 2060 09ec 17080000 		.4byte	0x817
 2061 09f0 18       		.uleb128 0x18
 2062 09f1 1C       		.byte	0x1c
 2063 09f2 0B       		.byte	0xb
 2064 09f3 8803     		.2byte	0x388
 2065 09f5 CA0A0000 		.4byte	0xaca
 2066 09f9 0C       		.uleb128 0xc
 2067 09fa 535200   		.ascii	"SR\000"
 2068 09fd 0B       		.byte	0xb
 2069 09fe 8A03     		.2byte	0x38a
 2070 0a00 0D080000 		.4byte	0x80d
 2071 0a04 02       		.byte	0x2
 2072 0a05 23       		.byte	0x23
 2073 0a06 00       		.uleb128 0
 2074 0a07 19       		.uleb128 0x19
 2075 0a08 A3020000 		.4byte	.LASF172
 2076 0a0c 0B       		.byte	0xb
 2077 0a0d 8B03     		.2byte	0x38b
 2078 0a0f 62000000 		.4byte	0x62
 2079 0a13 02       		.byte	0x2
 2080 0a14 23       		.byte	0x23
 2081 0a15 02       		.uleb128 0x2
 2082 0a16 0C       		.uleb128 0xc
 2083 0a17 445200   		.ascii	"DR\000"
 2084 0a1a 0B       		.byte	0xb
 2085 0a1b 8C03     		.2byte	0x38c
 2086 0a1d 0D080000 		.4byte	0x80d
 2087 0a21 02       		.byte	0x2
 2088 0a22 23       		.byte	0x23
 2089 0a23 04       		.uleb128 0x4
 2090 0a24 19       		.uleb128 0x19
 2091 0a25 AD020000 		.4byte	.LASF175
 2092 0a29 0B       		.byte	0xb
 2093 0a2a 8D03     		.2byte	0x38d
 2094 0a2c 62000000 		.4byte	0x62
 2095 0a30 02       		.byte	0x2
 2096 0a31 23       		.byte	0x23
 2097 0a32 06       		.uleb128 0x6
 2098 0a33 0C       		.uleb128 0xc
 2099 0a34 42525200 		.ascii	"BRR\000"
 2100 0a38 0B       		.byte	0xb
ARM GAS  /tmp/ccWlo0cl.s 			page 38


 2101 0a39 8E03     		.2byte	0x38e
 2102 0a3b 0D080000 		.4byte	0x80d
 2103 0a3f 02       		.byte	0x2
 2104 0a40 23       		.byte	0x23
 2105 0a41 08       		.uleb128 0x8
 2106 0a42 19       		.uleb128 0x19
 2107 0a43 5C030000 		.4byte	.LASF179
 2108 0a47 0B       		.byte	0xb
 2109 0a48 8F03     		.2byte	0x38f
 2110 0a4a 62000000 		.4byte	0x62
 2111 0a4e 02       		.byte	0x2
 2112 0a4f 23       		.byte	0x23
 2113 0a50 0A       		.uleb128 0xa
 2114 0a51 0C       		.uleb128 0xc
 2115 0a52 43523100 		.ascii	"CR1\000"
 2116 0a56 0B       		.byte	0xb
 2117 0a57 9003     		.2byte	0x390
 2118 0a59 0D080000 		.4byte	0x80d
 2119 0a5d 02       		.byte	0x2
 2120 0a5e 23       		.byte	0x23
 2121 0a5f 0C       		.uleb128 0xc
 2122 0a60 19       		.uleb128 0x19
 2123 0a61 66030000 		.4byte	.LASF182
 2124 0a65 0B       		.byte	0xb
 2125 0a66 9103     		.2byte	0x391
 2126 0a68 62000000 		.4byte	0x62
 2127 0a6c 02       		.byte	0x2
 2128 0a6d 23       		.byte	0x23
 2129 0a6e 0E       		.uleb128 0xe
 2130 0a6f 0C       		.uleb128 0xc
 2131 0a70 43523200 		.ascii	"CR2\000"
 2132 0a74 0B       		.byte	0xb
 2133 0a75 9203     		.2byte	0x392
 2134 0a77 0D080000 		.4byte	0x80d
 2135 0a7b 02       		.byte	0x2
 2136 0a7c 23       		.byte	0x23
 2137 0a7d 10       		.uleb128 0x10
 2138 0a7e 19       		.uleb128 0x19
 2139 0a7f D7020000 		.4byte	.LASF186
 2140 0a83 0B       		.byte	0xb
 2141 0a84 9303     		.2byte	0x393
 2142 0a86 62000000 		.4byte	0x62
 2143 0a8a 02       		.byte	0x2
 2144 0a8b 23       		.byte	0x23
 2145 0a8c 12       		.uleb128 0x12
 2146 0a8d 0C       		.uleb128 0xc
 2147 0a8e 43523300 		.ascii	"CR3\000"
 2148 0a92 0B       		.byte	0xb
 2149 0a93 9403     		.2byte	0x394
 2150 0a95 0D080000 		.4byte	0x80d
 2151 0a99 02       		.byte	0x2
 2152 0a9a 23       		.byte	0x23
 2153 0a9b 14       		.uleb128 0x14
 2154 0a9c 19       		.uleb128 0x19
 2155 0a9d 7A030000 		.4byte	.LASF189
 2156 0aa1 0B       		.byte	0xb
 2157 0aa2 9503     		.2byte	0x395
ARM GAS  /tmp/ccWlo0cl.s 			page 39


 2158 0aa4 62000000 		.4byte	0x62
 2159 0aa8 02       		.byte	0x2
 2160 0aa9 23       		.byte	0x23
 2161 0aaa 16       		.uleb128 0x16
 2162 0aab 19       		.uleb128 0x19
 2163 0aac 64000000 		.4byte	.LASF195
 2164 0ab0 0B       		.byte	0xb
 2165 0ab1 9603     		.2byte	0x396
 2166 0ab3 0D080000 		.4byte	0x80d
 2167 0ab7 02       		.byte	0x2
 2168 0ab8 23       		.byte	0x23
 2169 0ab9 18       		.uleb128 0x18
 2170 0aba 19       		.uleb128 0x19
 2171 0abb E8020000 		.4byte	.LASF191
 2172 0abf 0B       		.byte	0xb
 2173 0ac0 9703     		.2byte	0x397
 2174 0ac2 62000000 		.4byte	0x62
 2175 0ac6 02       		.byte	0x2
 2176 0ac7 23       		.byte	0x23
 2177 0ac8 1A       		.uleb128 0x1a
 2178 0ac9 00       		.byte	0
 2179 0aca 1A       		.uleb128 0x1a
 2180 0acb E0030000 		.4byte	.LASF196
 2181 0acf 0B       		.byte	0xb
 2182 0ad0 9803     		.2byte	0x398
 2183 0ad2 F0090000 		.4byte	0x9f0
 2184 0ad6 11       		.uleb128 0x11
 2185 0ad7 01       		.byte	0x1
 2186 0ad8 F3000000 		.4byte	0xf3
 2187 0adc F00A0000 		.4byte	0xaf0
 2188 0ae0 12       		.uleb128 0x12
 2189 0ae1 B5020000 		.4byte	0x2b5
 2190 0ae5 12       		.uleb128 0x12
 2191 0ae6 49000000 		.4byte	0x49
 2192 0aea 12       		.uleb128 0x12
 2193 0aeb 09010000 		.4byte	0x109
 2194 0aef 00       		.byte	0
 2195 0af0 09       		.uleb128 0x9
 2196 0af1 04       		.byte	0x4
 2197 0af2 D60A0000 		.4byte	0xad6
 2198 0af6 11       		.uleb128 0x11
 2199 0af7 01       		.byte	0x1
 2200 0af8 F3000000 		.4byte	0xf3
 2201 0afc 0B0B0000 		.4byte	0xb0b
 2202 0b00 12       		.uleb128 0x12
 2203 0b01 B5020000 		.4byte	0x2b5
 2204 0b05 12       		.uleb128 0x12
 2205 0b06 09010000 		.4byte	0x109
 2206 0b0a 00       		.byte	0
 2207 0b0b 09       		.uleb128 0x9
 2208 0b0c 04       		.byte	0x4
 2209 0b0d F60A0000 		.4byte	0xaf6
 2210 0b11 11       		.uleb128 0x11
 2211 0b12 01       		.byte	0x1
 2212 0b13 30000000 		.4byte	0x30
 2213 0b17 300B0000 		.4byte	0xb30
 2214 0b1b 12       		.uleb128 0x12
ARM GAS  /tmp/ccWlo0cl.s 			page 40


 2215 0b1c B5020000 		.4byte	0x2b5
 2216 0b20 12       		.uleb128 0x12
 2217 0b21 7D050000 		.4byte	0x57d
 2218 0b25 12       		.uleb128 0x12
 2219 0b26 30000000 		.4byte	0x30
 2220 0b2a 12       		.uleb128 0x12
 2221 0b2b 09010000 		.4byte	0x109
 2222 0b2f 00       		.byte	0
 2223 0b30 09       		.uleb128 0x9
 2224 0b31 04       		.byte	0x4
 2225 0b32 110B0000 		.4byte	0xb11
 2226 0b36 11       		.uleb128 0x11
 2227 0b37 01       		.byte	0x1
 2228 0b38 30000000 		.4byte	0x30
 2229 0b3c 550B0000 		.4byte	0xb55
 2230 0b40 12       		.uleb128 0x12
 2231 0b41 B5020000 		.4byte	0x2b5
 2232 0b45 12       		.uleb128 0x12
 2233 0b46 47050000 		.4byte	0x547
 2234 0b4a 12       		.uleb128 0x12
 2235 0b4b 30000000 		.4byte	0x30
 2236 0b4f 12       		.uleb128 0x12
 2237 0b50 09010000 		.4byte	0x109
 2238 0b54 00       		.byte	0
 2239 0b55 09       		.uleb128 0x9
 2240 0b56 04       		.byte	0x4
 2241 0b57 360B0000 		.4byte	0xb36
 2242 0b5b 03       		.uleb128 0x3
 2243 0b5c CF060000 		.4byte	.LASF197
 2244 0b60 0C       		.byte	0xc
 2245 0b61 DF       		.byte	0xdf
 2246 0b62 B1000000 		.4byte	0xb1
 2247 0b66 11       		.uleb128 0x11
 2248 0b67 01       		.byte	0x1
 2249 0b68 5B0B0000 		.4byte	0xb5b
 2250 0b6c 760B0000 		.4byte	0xb76
 2251 0b70 12       		.uleb128 0x12
 2252 0b71 B5020000 		.4byte	0x2b5
 2253 0b75 00       		.byte	0
 2254 0b76 09       		.uleb128 0x9
 2255 0b77 04       		.byte	0x4
 2256 0b78 660B0000 		.4byte	0xb66
 2257 0b7c 1B       		.uleb128 0x1b
 2258 0b7d 01       		.byte	0x1
 2259 0b7e 0D       		.byte	0xd
 2260 0b7f 5D       		.byte	0x5d
 2261 0b80 970B0000 		.4byte	0xb97
 2262 0b84 15       		.uleb128 0x15
 2263 0b85 52030000 		.4byte	.LASF198
 2264 0b89 00       		.sleb128 0
 2265 0b8a 15       		.uleb128 0x15
 2266 0b8b A70A0000 		.4byte	.LASF199
 2267 0b8f 01       		.sleb128 1
 2268 0b90 15       		.uleb128 0x15
 2269 0b91 F0080000 		.4byte	.LASF200
 2270 0b95 02       		.sleb128 2
 2271 0b96 00       		.byte	0
ARM GAS  /tmp/ccWlo0cl.s 			page 41


 2272 0b97 03       		.uleb128 0x3
 2273 0b98 BA080000 		.4byte	.LASF201
 2274 0b9c 0D       		.byte	0xd
 2275 0b9d 61       		.byte	0x61
 2276 0b9e 7C0B0000 		.4byte	0xb7c
 2277 0ba2 03       		.uleb128 0x3
 2278 0ba3 7E080000 		.4byte	.LASF202
 2279 0ba7 0D       		.byte	0xd
 2280 0ba8 66       		.byte	0x66
 2281 0ba9 AD0B0000 		.4byte	0xbad
 2282 0bad 05       		.uleb128 0x5
 2283 0bae 7E080000 		.4byte	.LASF202
 2284 0bb2 7C       		.byte	0x7c
 2285 0bb3 0D       		.byte	0xd
 2286 0bb4 80       		.byte	0x80
 2287 0bb5 360C0000 		.4byte	0xc36
 2288 0bb9 07       		.uleb128 0x7
 2289 0bba 766D7400 		.ascii	"vmt\000"
 2290 0bbe 0D       		.byte	0xd
 2291 0bbf 82       		.byte	0x82
 2292 0bc0 0D0D0000 		.4byte	0xd0d
 2293 0bc4 02       		.byte	0x2
 2294 0bc5 23       		.byte	0x23
 2295 0bc6 00       		.uleb128 0
 2296 0bc7 06       		.uleb128 0x6
 2297 0bc8 74060000 		.4byte	.LASF203
 2298 0bcc 0D       		.byte	0xd
 2299 0bcd 83       		.byte	0x83
 2300 0bce 28040000 		.4byte	0x428
 2301 0bd2 02       		.byte	0x2
 2302 0bd3 23       		.byte	0x23
 2303 0bd4 04       		.uleb128 0x4
 2304 0bd5 06       		.uleb128 0x6
 2305 0bd6 CA030000 		.4byte	.LASF204
 2306 0bda 0D       		.byte	0xd
 2307 0bdb 83       		.byte	0x83
 2308 0bdc 5B0B0000 		.4byte	0xb5b
 2309 0be0 02       		.byte	0x2
 2310 0be1 23       		.byte	0x23
 2311 0be2 08       		.uleb128 0x8
 2312 0be3 06       		.uleb128 0x6
 2313 0be4 F0000000 		.4byte	.LASF205
 2314 0be8 0D       		.byte	0xd
 2315 0be9 83       		.byte	0x83
 2316 0bea 970B0000 		.4byte	0xb97
 2317 0bee 02       		.byte	0x2
 2318 0bef 23       		.byte	0x23
 2319 0bf0 0C       		.uleb128 0xc
 2320 0bf1 06       		.uleb128 0x6
 2321 0bf2 48090000 		.4byte	.LASF206
 2322 0bf6 0D       		.byte	0xd
 2323 0bf7 83       		.byte	0x83
 2324 0bf8 4D050000 		.4byte	0x54d
 2325 0bfc 02       		.byte	0x2
 2326 0bfd 23       		.byte	0x23
 2327 0bfe 10       		.uleb128 0x10
 2328 0bff 06       		.uleb128 0x6
ARM GAS  /tmp/ccWlo0cl.s 			page 42


 2329 0c00 1E020000 		.4byte	.LASF207
 2330 0c04 0D       		.byte	0xd
 2331 0c05 83       		.byte	0x83
 2332 0c06 58050000 		.4byte	0x558
 2333 0c0a 02       		.byte	0x2
 2334 0c0b 23       		.byte	0x23
 2335 0c0c 34       		.uleb128 0x34
 2336 0c0d 07       		.uleb128 0x7
 2337 0c0e 696200   		.ascii	"ib\000"
 2338 0c11 0D       		.byte	0xd
 2339 0c12 83       		.byte	0x83
 2340 0c13 180D0000 		.4byte	0xd18
 2341 0c17 02       		.byte	0x2
 2342 0c18 23       		.byte	0x23
 2343 0c19 58       		.uleb128 0x58
 2344 0c1a 07       		.uleb128 0x7
 2345 0c1b 6F6200   		.ascii	"ob\000"
 2346 0c1e 0D       		.byte	0xd
 2347 0c1f 83       		.byte	0x83
 2348 0c20 180D0000 		.4byte	0xd18
 2349 0c24 02       		.byte	0x2
 2350 0c25 23       		.byte	0x23
 2351 0c26 68       		.uleb128 0x68
 2352 0c27 06       		.uleb128 0x6
 2353 0c28 59020000 		.4byte	.LASF208
 2354 0c2c 0D       		.byte	0xd
 2355 0c2d 83       		.byte	0x83
 2356 0c2e 280D0000 		.4byte	0xd28
 2357 0c32 02       		.byte	0x2
 2358 0c33 23       		.byte	0x23
 2359 0c34 78       		.uleb128 0x78
 2360 0c35 00       		.byte	0
 2361 0c36 08       		.uleb128 0x8
 2362 0c37 0C       		.byte	0xc
 2363 0c38 0E       		.byte	0xe
 2364 0c39 DB       		.byte	0xdb
 2365 0c3a 770C0000 		.4byte	0xc77
 2366 0c3e 06       		.uleb128 0x6
 2367 0c3f DA060000 		.4byte	.LASF209
 2368 0c43 0E       		.byte	0xe
 2369 0c44 DF       		.byte	0xdf
 2370 0c45 86000000 		.4byte	0x86
 2371 0c49 02       		.byte	0x2
 2372 0c4a 23       		.byte	0x23
 2373 0c4b 00       		.uleb128 0
 2374 0c4c 06       		.uleb128 0x6
 2375 0c4d A8050000 		.4byte	.LASF210
 2376 0c51 0E       		.byte	0xe
 2377 0c52 E3       		.byte	0xe3
 2378 0c53 62000000 		.4byte	0x62
 2379 0c57 02       		.byte	0x2
 2380 0c58 23       		.byte	0x23
 2381 0c59 04       		.uleb128 0x4
 2382 0c5a 06       		.uleb128 0x6
 2383 0c5b AF050000 		.4byte	.LASF211
 2384 0c5f 0E       		.byte	0xe
 2385 0c60 E7       		.byte	0xe7
ARM GAS  /tmp/ccWlo0cl.s 			page 43


 2386 0c61 62000000 		.4byte	0x62
 2387 0c65 02       		.byte	0x2
 2388 0c66 23       		.byte	0x23
 2389 0c67 06       		.uleb128 0x6
 2390 0c68 06       		.uleb128 0x6
 2391 0c69 B6050000 		.4byte	.LASF212
 2392 0c6d 0E       		.byte	0xe
 2393 0c6e EB       		.byte	0xeb
 2394 0c6f 62000000 		.4byte	0x62
 2395 0c73 02       		.byte	0x2
 2396 0c74 23       		.byte	0x23
 2397 0c75 08       		.uleb128 0x8
 2398 0c76 00       		.byte	0
 2399 0c77 03       		.uleb128 0x3
 2400 0c78 50000000 		.4byte	.LASF213
 2401 0c7c 0E       		.byte	0xe
 2402 0c7d EC       		.byte	0xec
 2403 0c7e 360C0000 		.4byte	0xc36
 2404 0c82 05       		.uleb128 0x5
 2405 0c83 3E050000 		.4byte	.LASF214
 2406 0c87 24       		.byte	0x24
 2407 0c88 0D       		.byte	0xd
 2408 0c89 75       		.byte	0x75
 2409 0c8a 0D0D0000 		.4byte	0xd0d
 2410 0c8e 06       		.uleb128 0x6
 2411 0c8f B2000000 		.4byte	.LASF215
 2412 0c93 0D       		.byte	0xd
 2413 0c94 76       		.byte	0x76
 2414 0c95 88050000 		.4byte	0x588
 2415 0c99 02       		.byte	0x2
 2416 0c9a 23       		.byte	0x23
 2417 0c9b 00       		.uleb128 0
 2418 0c9c 06       		.uleb128 0x6
 2419 0c9d 93060000 		.4byte	.LASF216
 2420 0ca1 0D       		.byte	0xd
 2421 0ca2 76       		.byte	0x76
 2422 0ca3 A8050000 		.4byte	0x5a8
 2423 0ca7 02       		.byte	0x2
 2424 0ca8 23       		.byte	0x23
 2425 0ca9 04       		.uleb128 0x4
 2426 0caa 07       		.uleb128 0x7
 2427 0cab 70757400 		.ascii	"put\000"
 2428 0caf 0D       		.byte	0xd
 2429 0cb0 76       		.byte	0x76
 2430 0cb1 C3050000 		.4byte	0x5c3
 2431 0cb5 02       		.byte	0x2
 2432 0cb6 23       		.byte	0x23
 2433 0cb7 08       		.uleb128 0x8
 2434 0cb8 07       		.uleb128 0x7
 2435 0cb9 67657400 		.ascii	"get\000"
 2436 0cbd 0D       		.byte	0xd
 2437 0cbe 76       		.byte	0x76
 2438 0cbf 86040000 		.4byte	0x486
 2439 0cc3 02       		.byte	0x2
 2440 0cc4 23       		.byte	0x23
 2441 0cc5 0C       		.uleb128 0xc
 2442 0cc6 06       		.uleb128 0x6
ARM GAS  /tmp/ccWlo0cl.s 			page 44


 2443 0cc7 F6000000 		.4byte	.LASF217
 2444 0ccb 0D       		.byte	0xd
 2445 0ccc 76       		.byte	0x76
 2446 0ccd F00A0000 		.4byte	0xaf0
 2447 0cd1 02       		.byte	0x2
 2448 0cd2 23       		.byte	0x23
 2449 0cd3 10       		.uleb128 0x10
 2450 0cd4 06       		.uleb128 0x6
 2451 0cd5 D0030000 		.4byte	.LASF218
 2452 0cd9 0D       		.byte	0xd
 2453 0cda 76       		.byte	0x76
 2454 0cdb 0B0B0000 		.4byte	0xb0b
 2455 0cdf 02       		.byte	0x2
 2456 0ce0 23       		.byte	0x23
 2457 0ce1 14       		.uleb128 0x14
 2458 0ce2 06       		.uleb128 0x6
 2459 0ce3 5D000000 		.4byte	.LASF219
 2460 0ce7 0D       		.byte	0xd
 2461 0ce8 76       		.byte	0x76
 2462 0ce9 300B0000 		.4byte	0xb30
 2463 0ced 02       		.byte	0x2
 2464 0cee 23       		.byte	0x23
 2465 0cef 18       		.uleb128 0x18
 2466 0cf0 06       		.uleb128 0x6
 2467 0cf1 86010000 		.4byte	.LASF220
 2468 0cf5 0D       		.byte	0xd
 2469 0cf6 76       		.byte	0x76
 2470 0cf7 550B0000 		.4byte	0xb55
 2471 0cfb 02       		.byte	0x2
 2472 0cfc 23       		.byte	0x23
 2473 0cfd 1C       		.uleb128 0x1c
 2474 0cfe 06       		.uleb128 0x6
 2475 0cff 7B090000 		.4byte	.LASF221
 2476 0d03 0D       		.byte	0xd
 2477 0d04 76       		.byte	0x76
 2478 0d05 760B0000 		.4byte	0xb76
 2479 0d09 02       		.byte	0x2
 2480 0d0a 23       		.byte	0x23
 2481 0d0b 20       		.uleb128 0x20
 2482 0d0c 00       		.byte	0
 2483 0d0d 09       		.uleb128 0x9
 2484 0d0e 04       		.byte	0x4
 2485 0d0f 130D0000 		.4byte	0xd13
 2486 0d13 10       		.uleb128 0x10
 2487 0d14 820C0000 		.4byte	0xc82
 2488 0d18 16       		.uleb128 0x16
 2489 0d19 49000000 		.4byte	0x49
 2490 0d1d 280D0000 		.4byte	0xd28
 2491 0d21 17       		.uleb128 0x17
 2492 0d22 3B000000 		.4byte	0x3b
 2493 0d26 0F       		.byte	0xf
 2494 0d27 00       		.byte	0
 2495 0d28 09       		.uleb128 0x9
 2496 0d29 04       		.byte	0x4
 2497 0d2a CA0A0000 		.4byte	0xaca
 2498 0d2e 1C       		.uleb128 0x1c
 2499 0d2f 89070000 		.4byte	.LASF223
ARM GAS  /tmp/ccWlo0cl.s 			page 45


 2500 0d33 01       		.byte	0x1
 2501 0d34 D3       		.byte	0xd3
 2502 0d35 01       		.byte	0x1
 2503 0d36 00000000 		.4byte	.LFB63
 2504 0d3a 9C000000 		.4byte	.LFE63
 2505 0d3e 00000000 		.4byte	.LLST0
 2506 0d42 6F0D0000 		.4byte	0xd6f
 2507 0d46 1D       		.uleb128 0x1d
 2508 0d47 73647000 		.ascii	"sdp\000"
 2509 0d4b 01       		.byte	0x1
 2510 0d4c D3       		.byte	0xd3
 2511 0d4d 6F0D0000 		.4byte	0xd6f
 2512 0d51 02       		.byte	0x2
 2513 0d52 91       		.byte	0x91
 2514 0d53 74       		.sleb128 -12
 2515 0d54 1E       		.uleb128 0x1e
 2516 0d55 E9000000 		.4byte	.LASF222
 2517 0d59 01       		.byte	0x1
 2518 0d5a D3       		.byte	0xd3
 2519 0d5b 750D0000 		.4byte	0xd75
 2520 0d5f 02       		.byte	0x2
 2521 0d60 91       		.byte	0x91
 2522 0d61 70       		.sleb128 -16
 2523 0d62 1F       		.uleb128 0x1f
 2524 0d63 7500     		.ascii	"u\000"
 2525 0d65 01       		.byte	0x1
 2526 0d66 D4       		.byte	0xd4
 2527 0d67 280D0000 		.4byte	0xd28
 2528 0d6b 02       		.byte	0x2
 2529 0d6c 91       		.byte	0x91
 2530 0d6d 7C       		.sleb128 -4
 2531 0d6e 00       		.byte	0
 2532 0d6f 09       		.uleb128 0x9
 2533 0d70 04       		.byte	0x4
 2534 0d71 A20B0000 		.4byte	0xba2
 2535 0d75 09       		.uleb128 0x9
 2536 0d76 04       		.byte	0x4
 2537 0d77 7B0D0000 		.4byte	0xd7b
 2538 0d7b 10       		.uleb128 0x10
 2539 0d7c 770C0000 		.4byte	0xc77
 2540 0d80 1C       		.uleb128 0x1c
 2541 0d81 4E050000 		.4byte	.LASF224
 2542 0d85 01       		.byte	0x1
 2543 0d86 F1       		.byte	0xf1
 2544 0d87 01       		.byte	0x1
 2545 0d88 00000000 		.4byte	.LFB64
 2546 0d8c 20000000 		.4byte	.LFE64
 2547 0d90 20000000 		.4byte	.LLST1
 2548 0d94 A50D0000 		.4byte	0xda5
 2549 0d98 1D       		.uleb128 0x1d
 2550 0d99 7500     		.ascii	"u\000"
 2551 0d9b 01       		.byte	0x1
 2552 0d9c F1       		.byte	0xf1
 2553 0d9d 280D0000 		.4byte	0xd28
 2554 0da1 02       		.byte	0x2
 2555 0da2 91       		.byte	0x91
 2556 0da3 7C       		.sleb128 -4
ARM GAS  /tmp/ccWlo0cl.s 			page 46


 2557 0da4 00       		.byte	0
 2558 0da5 1C       		.uleb128 0x1c
 2559 0da6 15010000 		.4byte	.LASF225
 2560 0daa 01       		.byte	0x1
 2561 0dab FE       		.byte	0xfe
 2562 0dac 01       		.byte	0x1
 2563 0dad 00000000 		.4byte	.LFB65
 2564 0db1 9C000000 		.4byte	.LFE65
 2565 0db5 40000000 		.4byte	.LLST2
 2566 0db9 1B0E0000 		.4byte	0xe1b
 2567 0dbd 1D       		.uleb128 0x1d
 2568 0dbe 73647000 		.ascii	"sdp\000"
 2569 0dc2 01       		.byte	0x1
 2570 0dc3 FE       		.byte	0xfe
 2571 0dc4 6F0D0000 		.4byte	0xd6f
 2572 0dc8 02       		.byte	0x2
 2573 0dc9 91       		.byte	0x91
 2574 0dca 6C       		.sleb128 -20
 2575 0dcb 1D       		.uleb128 0x1d
 2576 0dcc 737200   		.ascii	"sr\000"
 2577 0dcf 01       		.byte	0x1
 2578 0dd0 FE       		.byte	0xfe
 2579 0dd1 62000000 		.4byte	0x62
 2580 0dd5 02       		.byte	0x2
 2581 0dd6 91       		.byte	0x91
 2582 0dd7 6A       		.sleb128 -22
 2583 0dd8 1F       		.uleb128 0x1f
 2584 0dd9 73747300 		.ascii	"sts\000"
 2585 0ddd 01       		.byte	0x1
 2586 0dde FF       		.byte	0xff
 2587 0ddf 5B0B0000 		.4byte	0xb5b
 2588 0de3 02       		.byte	0x2
 2589 0de4 91       		.byte	0x91
 2590 0de5 74       		.sleb128 -12
 2591 0de6 20       		.uleb128 0x20
 2592 0de7 64000000 		.4byte	.LBB2
 2593 0deb 6C000000 		.4byte	.LBE2
 2594 0def 020E0000 		.4byte	0xe02
 2595 0df3 21       		.uleb128 0x21
 2596 0df4 746D7000 		.ascii	"tmp\000"
 2597 0df8 01       		.byte	0x1
 2598 0df9 0901     		.2byte	0x109
 2599 0dfb 86000000 		.4byte	0x86
 2600 0dff 01       		.byte	0x1
 2601 0e00 53       		.byte	0x53
 2602 0e01 00       		.byte	0
 2603 0e02 22       		.uleb128 0x22
 2604 0e03 90000000 		.4byte	.LBB3
 2605 0e07 98000000 		.4byte	.LBE3
 2606 0e0b 21       		.uleb128 0x21
 2607 0e0c 746D7000 		.ascii	"tmp\000"
 2608 0e10 01       		.byte	0x1
 2609 0e11 0B01     		.2byte	0x10b
 2610 0e13 86000000 		.4byte	0x86
 2611 0e17 01       		.byte	0x1
 2612 0e18 53       		.byte	0x53
 2613 0e19 00       		.byte	0
ARM GAS  /tmp/ccWlo0cl.s 			page 47


 2614 0e1a 00       		.byte	0
 2615 0e1b 23       		.uleb128 0x23
 2616 0e1c 05010000 		.4byte	.LASF226
 2617 0e20 01       		.byte	0x1
 2618 0e21 1301     		.2byte	0x113
 2619 0e23 01       		.byte	0x1
 2620 0e24 00000000 		.4byte	.LFB66
 2621 0e28 A2010000 		.4byte	.LFE66
 2622 0e2c 6C000000 		.4byte	.LLST3
 2623 0e30 6F0F0000 		.4byte	0xf6f
 2624 0e34 24       		.uleb128 0x24
 2625 0e35 73647000 		.ascii	"sdp\000"
 2626 0e39 01       		.byte	0x1
 2627 0e3a 1301     		.2byte	0x113
 2628 0e3c 6F0D0000 		.4byte	0xd6f
 2629 0e40 02       		.byte	0x2
 2630 0e41 91       		.byte	0x91
 2631 0e42 64       		.sleb128 -28
 2632 0e43 21       		.uleb128 0x21
 2633 0e44 7500     		.ascii	"u\000"
 2634 0e46 01       		.byte	0x1
 2635 0e47 1401     		.2byte	0x114
 2636 0e49 280D0000 		.4byte	0xd28
 2637 0e4d 02       		.byte	0x2
 2638 0e4e 91       		.byte	0x91
 2639 0e4f 74       		.sleb128 -12
 2640 0e50 21       		.uleb128 0x21
 2641 0e51 63723100 		.ascii	"cr1\000"
 2642 0e55 01       		.byte	0x1
 2643 0e56 1501     		.2byte	0x115
 2644 0e58 62000000 		.4byte	0x62
 2645 0e5c 02       		.byte	0x2
 2646 0e5d 91       		.byte	0x91
 2647 0e5e 72       		.sleb128 -14
 2648 0e5f 21       		.uleb128 0x21
 2649 0e60 737200   		.ascii	"sr\000"
 2650 0e63 01       		.byte	0x1
 2651 0e64 1601     		.2byte	0x116
 2652 0e66 62000000 		.4byte	0x62
 2653 0e6a 02       		.byte	0x2
 2654 0e6b 91       		.byte	0x91
 2655 0e6c 70       		.sleb128 -16
 2656 0e6d 21       		.uleb128 0x21
 2657 0e6e 647200   		.ascii	"dr\000"
 2658 0e71 01       		.byte	0x1
 2659 0e72 1701     		.2byte	0x117
 2660 0e74 62000000 		.4byte	0x62
 2661 0e78 02       		.byte	0x2
 2662 0e79 91       		.byte	0x91
 2663 0e7a 6E       		.sleb128 -18
 2664 0e7b 20       		.uleb128 0x20
 2665 0e7c 48000000 		.4byte	.LBB4
 2666 0e80 50000000 		.4byte	.LBE4
 2667 0e84 970E0000 		.4byte	0xe97
 2668 0e88 21       		.uleb128 0x21
 2669 0e89 746D7000 		.ascii	"tmp\000"
 2670 0e8d 01       		.byte	0x1
ARM GAS  /tmp/ccWlo0cl.s 			page 48


 2671 0e8e 1E01     		.2byte	0x11e
 2672 0e90 86000000 		.4byte	0x86
 2673 0e94 01       		.byte	0x1
 2674 0e95 53       		.byte	0x53
 2675 0e96 00       		.byte	0
 2676 0e97 20       		.uleb128 0x20
 2677 0e98 74000000 		.4byte	.LBB5
 2678 0e9c 7C000000 		.4byte	.LBE5
 2679 0ea0 B30E0000 		.4byte	0xeb3
 2680 0ea4 21       		.uleb128 0x21
 2681 0ea5 746D7000 		.ascii	"tmp\000"
 2682 0ea9 01       		.byte	0x1
 2683 0eaa 2001     		.2byte	0x120
 2684 0eac 86000000 		.4byte	0x86
 2685 0eb0 01       		.byte	0x1
 2686 0eb1 53       		.byte	0x53
 2687 0eb2 00       		.byte	0
 2688 0eb3 20       		.uleb128 0x20
 2689 0eb4 98000000 		.4byte	.LBB6
 2690 0eb8 A0000000 		.4byte	.LBE6
 2691 0ebc CF0E0000 		.4byte	0xecf
 2692 0ec0 21       		.uleb128 0x21
 2693 0ec1 746D7000 		.ascii	"tmp\000"
 2694 0ec5 01       		.byte	0x1
 2695 0ec6 2501     		.2byte	0x125
 2696 0ec8 86000000 		.4byte	0x86
 2697 0ecc 01       		.byte	0x1
 2698 0ecd 53       		.byte	0x53
 2699 0ece 00       		.byte	0
 2700 0ecf 20       		.uleb128 0x20
 2701 0ed0 B6000000 		.4byte	.LBB7
 2702 0ed4 BE000000 		.4byte	.LBE7
 2703 0ed8 EB0E0000 		.4byte	0xeeb
 2704 0edc 21       		.uleb128 0x21
 2705 0edd 746D7000 		.ascii	"tmp\000"
 2706 0ee1 01       		.byte	0x1
 2707 0ee2 2701     		.2byte	0x127
 2708 0ee4 86000000 		.4byte	0x86
 2709 0ee8 01       		.byte	0x1
 2710 0ee9 53       		.byte	0x53
 2711 0eea 00       		.byte	0
 2712 0eeb 20       		.uleb128 0x20
 2713 0eec D6000000 		.4byte	.LBB8
 2714 0ef0 40010000 		.4byte	.LBE8
 2715 0ef4 3A0F0000 		.4byte	0xf3a
 2716 0ef8 21       		.uleb128 0x21
 2717 0ef9 6200     		.ascii	"b\000"
 2718 0efb 01       		.byte	0x1
 2719 0efc 2B01     		.2byte	0x12b
 2720 0efe F3000000 		.4byte	0xf3
 2721 0f02 02       		.byte	0x2
 2722 0f03 91       		.byte	0x91
 2723 0f04 68       		.sleb128 -24
 2724 0f05 20       		.uleb128 0x20
 2725 0f06 D6000000 		.4byte	.LBB9
 2726 0f0a DE000000 		.4byte	.LBE9
 2727 0f0e 210F0000 		.4byte	0xf21
ARM GAS  /tmp/ccWlo0cl.s 			page 49


 2728 0f12 21       		.uleb128 0x21
 2729 0f13 746D7000 		.ascii	"tmp\000"
 2730 0f17 01       		.byte	0x1
 2731 0f18 2C01     		.2byte	0x12c
 2732 0f1a 86000000 		.4byte	0x86
 2733 0f1e 01       		.byte	0x1
 2734 0f1f 53       		.byte	0x53
 2735 0f20 00       		.byte	0
 2736 0f21 22       		.uleb128 0x22
 2737 0f22 38010000 		.4byte	.LBB10
 2738 0f26 40010000 		.4byte	.LBE10
 2739 0f2a 21       		.uleb128 0x21
 2740 0f2b 746D7000 		.ascii	"tmp\000"
 2741 0f2f 01       		.byte	0x1
 2742 0f30 3401     		.2byte	0x134
 2743 0f32 86000000 		.4byte	0x86
 2744 0f36 01       		.byte	0x1
 2745 0f37 53       		.byte	0x53
 2746 0f38 00       		.byte	0
 2747 0f39 00       		.byte	0
 2748 0f3a 20       		.uleb128 0x20
 2749 0f3b 4C010000 		.4byte	.LBB11
 2750 0f3f 54010000 		.4byte	.LBE11
 2751 0f43 560F0000 		.4byte	0xf56
 2752 0f47 21       		.uleb128 0x21
 2753 0f48 746D7000 		.ascii	"tmp\000"
 2754 0f4c 01       		.byte	0x1
 2755 0f4d 3801     		.2byte	0x138
 2756 0f4f 86000000 		.4byte	0x86
 2757 0f53 01       		.byte	0x1
 2758 0f54 53       		.byte	0x53
 2759 0f55 00       		.byte	0
 2760 0f56 22       		.uleb128 0x22
 2761 0f57 78010000 		.4byte	.LBB12
 2762 0f5b 80010000 		.4byte	.LBE12
 2763 0f5f 21       		.uleb128 0x21
 2764 0f60 746D7000 		.ascii	"tmp\000"
 2765 0f64 01       		.byte	0x1
 2766 0f65 3A01     		.2byte	0x13a
 2767 0f67 86000000 		.4byte	0x86
 2768 0f6b 01       		.byte	0x1
 2769 0f6c 53       		.byte	0x53
 2770 0f6d 00       		.byte	0
 2771 0f6e 00       		.byte	0
 2772 0f6f 23       		.uleb128 0x23
 2773 0f70 18090000 		.4byte	.LASF227
 2774 0f74 01       		.byte	0x1
 2775 0f75 4301     		.2byte	0x143
 2776 0f77 01       		.byte	0x1
 2777 0f78 00000000 		.4byte	.LFB67
 2778 0f7c 24000000 		.4byte	.LFE67
 2779 0f80 98000000 		.4byte	.LLST4
 2780 0f84 970F0000 		.4byte	0xf97
 2781 0f88 24       		.uleb128 0x24
 2782 0f89 717000   		.ascii	"qp\000"
 2783 0f8c 01       		.byte	0x1
 2784 0f8d 4301     		.2byte	0x143
ARM GAS  /tmp/ccWlo0cl.s 			page 50


 2785 0f8f 41050000 		.4byte	0x541
 2786 0f93 02       		.byte	0x2
 2787 0f94 91       		.byte	0x91
 2788 0f95 7C       		.sleb128 -4
 2789 0f96 00       		.byte	0
 2790 0f97 25       		.uleb128 0x25
 2791 0f98 01       		.byte	0x1
 2792 0f99 C5090000 		.4byte	.LASF228
 2793 0f9d 01       		.byte	0x1
 2794 0f9e 7F01     		.2byte	0x17f
 2795 0fa0 01       		.byte	0x1
 2796 0fa1 00000000 		.4byte	.LFB68
 2797 0fa5 1C000000 		.4byte	.LFE68
 2798 0fa9 B8000000 		.4byte	.LLST5
 2799 0fad 25       		.uleb128 0x25
 2800 0fae 01       		.byte	0x1
 2801 0faf 76050000 		.4byte	.LASF229
 2802 0fb3 01       		.byte	0x1
 2803 0fb4 F101     		.2byte	0x1f1
 2804 0fb6 01       		.byte	0x1
 2805 0fb7 00000000 		.4byte	.LFB69
 2806 0fbb 2E000000 		.4byte	.LFE69
 2807 0fbf D8000000 		.4byte	.LLST6
 2808 0fc3 26       		.uleb128 0x26
 2809 0fc4 01       		.byte	0x1
 2810 0fc5 8C010000 		.4byte	.LASF230
 2811 0fc9 01       		.byte	0x1
 2812 0fca 1C02     		.2byte	0x21c
 2813 0fcc 01       		.byte	0x1
 2814 0fcd 00000000 		.4byte	.LFB70
 2815 0fd1 5E000000 		.4byte	.LFE70
 2816 0fd5 F8000000 		.4byte	.LLST7
 2817 0fd9 FC0F0000 		.4byte	0xffc
 2818 0fdd 24       		.uleb128 0x24
 2819 0fde 73647000 		.ascii	"sdp\000"
 2820 0fe2 01       		.byte	0x1
 2821 0fe3 1C02     		.2byte	0x21c
 2822 0fe5 6F0D0000 		.4byte	0xd6f
 2823 0fe9 02       		.byte	0x2
 2824 0fea 91       		.byte	0x91
 2825 0feb 74       		.sleb128 -12
 2826 0fec 27       		.uleb128 0x27
 2827 0fed E9000000 		.4byte	.LASF222
 2828 0ff1 01       		.byte	0x1
 2829 0ff2 1C02     		.2byte	0x21c
 2830 0ff4 750D0000 		.4byte	0xd75
 2831 0ff8 02       		.byte	0x2
 2832 0ff9 91       		.byte	0x91
 2833 0ffa 70       		.sleb128 -16
 2834 0ffb 00       		.byte	0
 2835 0ffc 26       		.uleb128 0x26
 2836 0ffd 01       		.byte	0x1
 2837 0ffe 290A0000 		.4byte	.LASF231
 2838 1002 01       		.byte	0x1
 2839 1003 5902     		.2byte	0x259
 2840 1005 01       		.byte	0x1
 2841 1006 00000000 		.4byte	.LFB71
ARM GAS  /tmp/ccWlo0cl.s 			page 51


 2842 100a 4C000000 		.4byte	.LFE71
 2843 100e 24010000 		.4byte	.LLST8
 2844 1012 26100000 		.4byte	0x1026
 2845 1016 24       		.uleb128 0x24
 2846 1017 73647000 		.ascii	"sdp\000"
 2847 101b 01       		.byte	0x1
 2848 101c 5902     		.2byte	0x259
 2849 101e 6F0D0000 		.4byte	0xd6f
 2850 1022 02       		.byte	0x2
 2851 1023 91       		.byte	0x91
 2852 1024 74       		.sleb128 -12
 2853 1025 00       		.byte	0
 2854 1026 28       		.uleb128 0x28
 2855 1027 2C060000 		.4byte	.LASF232
 2856 102b 0F       		.byte	0xf
 2857 102c 0706     		.2byte	0x607
 2858 102e 12080000 		.4byte	0x812
 2859 1032 01       		.byte	0x1
 2860 1033 01       		.byte	0x1
 2861 1034 29       		.uleb128 0x29
 2862 1035 53443100 		.ascii	"SD1\000"
 2863 1039 0E       		.byte	0xe
 2864 103a 1201     		.2byte	0x112
 2865 103c A20B0000 		.4byte	0xba2
 2866 1040 01       		.byte	0x1
 2867 1041 01       		.byte	0x1
 2868 1042 2A       		.uleb128 0x2a
 2869 1043 D2010000 		.4byte	.LASF233
 2870 1047 01       		.byte	0x1
 2871 1048 49       		.byte	0x49
 2872 1049 7B0D0000 		.4byte	0xd7b
 2873 104d 05       		.byte	0x5
 2874 104e 03       		.byte	0x3
 2875 104f 00000000 		.4byte	default_config
 2876 1053 28       		.uleb128 0x28
 2877 1054 2C060000 		.4byte	.LASF232
 2878 1058 0F       		.byte	0xf
 2879 1059 0706     		.2byte	0x607
 2880 105b 12080000 		.4byte	0x812
 2881 105f 01       		.byte	0x1
 2882 1060 01       		.byte	0x1
 2883 1061 2B       		.uleb128 0x2b
 2884 1062 53443100 		.ascii	"SD1\000"
 2885 1066 01       		.byte	0x1
 2886 1067 28       		.byte	0x28
 2887 1068 A20B0000 		.4byte	0xba2
 2888 106c 01       		.byte	0x1
 2889 106d 05       		.byte	0x5
 2890 106e 03       		.byte	0x3
 2891 106f 00000000 		.4byte	SD1
 2892 1073 00       		.byte	0
 2893              		.section	.debug_abbrev,"",%progbits
 2894              	.Ldebug_abbrev0:
 2895 0000 01       		.uleb128 0x1
 2896 0001 11       		.uleb128 0x11
 2897 0002 01       		.byte	0x1
 2898 0003 25       		.uleb128 0x25
ARM GAS  /tmp/ccWlo0cl.s 			page 52


 2899 0004 0E       		.uleb128 0xe
 2900 0005 13       		.uleb128 0x13
 2901 0006 0B       		.uleb128 0xb
 2902 0007 03       		.uleb128 0x3
 2903 0008 0E       		.uleb128 0xe
 2904 0009 1B       		.uleb128 0x1b
 2905 000a 0E       		.uleb128 0xe
 2906 000b 11       		.uleb128 0x11
 2907 000c 01       		.uleb128 0x1
 2908 000d 52       		.uleb128 0x52
 2909 000e 01       		.uleb128 0x1
 2910 000f 55       		.uleb128 0x55
 2911 0010 06       		.uleb128 0x6
 2912 0011 10       		.uleb128 0x10
 2913 0012 06       		.uleb128 0x6
 2914 0013 00       		.byte	0
 2915 0014 00       		.byte	0
 2916 0015 02       		.uleb128 0x2
 2917 0016 24       		.uleb128 0x24
 2918 0017 00       		.byte	0
 2919 0018 0B       		.uleb128 0xb
 2920 0019 0B       		.uleb128 0xb
 2921 001a 3E       		.uleb128 0x3e
 2922 001b 0B       		.uleb128 0xb
 2923 001c 03       		.uleb128 0x3
 2924 001d 08       		.uleb128 0x8
 2925 001e 00       		.byte	0
 2926 001f 00       		.byte	0
 2927 0020 03       		.uleb128 0x3
 2928 0021 16       		.uleb128 0x16
 2929 0022 00       		.byte	0
 2930 0023 03       		.uleb128 0x3
 2931 0024 0E       		.uleb128 0xe
 2932 0025 3A       		.uleb128 0x3a
 2933 0026 0B       		.uleb128 0xb
 2934 0027 3B       		.uleb128 0x3b
 2935 0028 0B       		.uleb128 0xb
 2936 0029 49       		.uleb128 0x49
 2937 002a 13       		.uleb128 0x13
 2938 002b 00       		.byte	0
 2939 002c 00       		.byte	0
 2940 002d 04       		.uleb128 0x4
 2941 002e 24       		.uleb128 0x24
 2942 002f 00       		.byte	0
 2943 0030 0B       		.uleb128 0xb
 2944 0031 0B       		.uleb128 0xb
 2945 0032 3E       		.uleb128 0x3e
 2946 0033 0B       		.uleb128 0xb
 2947 0034 03       		.uleb128 0x3
 2948 0035 0E       		.uleb128 0xe
 2949 0036 00       		.byte	0
 2950 0037 00       		.byte	0
 2951 0038 05       		.uleb128 0x5
 2952 0039 13       		.uleb128 0x13
 2953 003a 01       		.byte	0x1
 2954 003b 03       		.uleb128 0x3
 2955 003c 0E       		.uleb128 0xe
ARM GAS  /tmp/ccWlo0cl.s 			page 53


 2956 003d 0B       		.uleb128 0xb
 2957 003e 0B       		.uleb128 0xb
 2958 003f 3A       		.uleb128 0x3a
 2959 0040 0B       		.uleb128 0xb
 2960 0041 3B       		.uleb128 0x3b
 2961 0042 0B       		.uleb128 0xb
 2962 0043 01       		.uleb128 0x1
 2963 0044 13       		.uleb128 0x13
 2964 0045 00       		.byte	0
 2965 0046 00       		.byte	0
 2966 0047 06       		.uleb128 0x6
 2967 0048 0D       		.uleb128 0xd
 2968 0049 00       		.byte	0
 2969 004a 03       		.uleb128 0x3
 2970 004b 0E       		.uleb128 0xe
 2971 004c 3A       		.uleb128 0x3a
 2972 004d 0B       		.uleb128 0xb
 2973 004e 3B       		.uleb128 0x3b
 2974 004f 0B       		.uleb128 0xb
 2975 0050 49       		.uleb128 0x49
 2976 0051 13       		.uleb128 0x13
 2977 0052 38       		.uleb128 0x38
 2978 0053 0A       		.uleb128 0xa
 2979 0054 00       		.byte	0
 2980 0055 00       		.byte	0
 2981 0056 07       		.uleb128 0x7
 2982 0057 0D       		.uleb128 0xd
 2983 0058 00       		.byte	0
 2984 0059 03       		.uleb128 0x3
 2985 005a 08       		.uleb128 0x8
 2986 005b 3A       		.uleb128 0x3a
 2987 005c 0B       		.uleb128 0xb
 2988 005d 3B       		.uleb128 0x3b
 2989 005e 0B       		.uleb128 0xb
 2990 005f 49       		.uleb128 0x49
 2991 0060 13       		.uleb128 0x13
 2992 0061 38       		.uleb128 0x38
 2993 0062 0A       		.uleb128 0xa
 2994 0063 00       		.byte	0
 2995 0064 00       		.byte	0
 2996 0065 08       		.uleb128 0x8
 2997 0066 13       		.uleb128 0x13
 2998 0067 01       		.byte	0x1
 2999 0068 0B       		.uleb128 0xb
 3000 0069 0B       		.uleb128 0xb
 3001 006a 3A       		.uleb128 0x3a
 3002 006b 0B       		.uleb128 0xb
 3003 006c 3B       		.uleb128 0x3b
 3004 006d 0B       		.uleb128 0xb
 3005 006e 01       		.uleb128 0x1
 3006 006f 13       		.uleb128 0x13
 3007 0070 00       		.byte	0
 3008 0071 00       		.byte	0
 3009 0072 09       		.uleb128 0x9
 3010 0073 0F       		.uleb128 0xf
 3011 0074 00       		.byte	0
 3012 0075 0B       		.uleb128 0xb
ARM GAS  /tmp/ccWlo0cl.s 			page 54


 3013 0076 0B       		.uleb128 0xb
 3014 0077 49       		.uleb128 0x49
 3015 0078 13       		.uleb128 0x13
 3016 0079 00       		.byte	0
 3017 007a 00       		.byte	0
 3018 007b 0A       		.uleb128 0xa
 3019 007c 0F       		.uleb128 0xf
 3020 007d 00       		.byte	0
 3021 007e 0B       		.uleb128 0xb
 3022 007f 0B       		.uleb128 0xb
 3023 0080 00       		.byte	0
 3024 0081 00       		.byte	0
 3025 0082 0B       		.uleb128 0xb
 3026 0083 13       		.uleb128 0x13
 3027 0084 01       		.byte	0x1
 3028 0085 03       		.uleb128 0x3
 3029 0086 0E       		.uleb128 0xe
 3030 0087 0B       		.uleb128 0xb
 3031 0088 0B       		.uleb128 0xb
 3032 0089 3A       		.uleb128 0x3a
 3033 008a 0B       		.uleb128 0xb
 3034 008b 3B       		.uleb128 0x3b
 3035 008c 05       		.uleb128 0x5
 3036 008d 01       		.uleb128 0x1
 3037 008e 13       		.uleb128 0x13
 3038 008f 00       		.byte	0
 3039 0090 00       		.byte	0
 3040 0091 0C       		.uleb128 0xc
 3041 0092 0D       		.uleb128 0xd
 3042 0093 00       		.byte	0
 3043 0094 03       		.uleb128 0x3
 3044 0095 08       		.uleb128 0x8
 3045 0096 3A       		.uleb128 0x3a
 3046 0097 0B       		.uleb128 0xb
 3047 0098 3B       		.uleb128 0x3b
 3048 0099 05       		.uleb128 0x5
 3049 009a 49       		.uleb128 0x49
 3050 009b 13       		.uleb128 0x13
 3051 009c 38       		.uleb128 0x38
 3052 009d 0A       		.uleb128 0xa
 3053 009e 00       		.byte	0
 3054 009f 00       		.byte	0
 3055 00a0 0D       		.uleb128 0xd
 3056 00a1 35       		.uleb128 0x35
 3057 00a2 00       		.byte	0
 3058 00a3 49       		.uleb128 0x49
 3059 00a4 13       		.uleb128 0x13
 3060 00a5 00       		.byte	0
 3061 00a6 00       		.byte	0
 3062 00a7 0E       		.uleb128 0xe
 3063 00a8 17       		.uleb128 0x17
 3064 00a9 01       		.byte	0x1
 3065 00aa 0B       		.uleb128 0xb
 3066 00ab 0B       		.uleb128 0xb
 3067 00ac 3A       		.uleb128 0x3a
 3068 00ad 0B       		.uleb128 0xb
 3069 00ae 3B       		.uleb128 0x3b
ARM GAS  /tmp/ccWlo0cl.s 			page 55


 3070 00af 0B       		.uleb128 0xb
 3071 00b0 01       		.uleb128 0x1
 3072 00b1 13       		.uleb128 0x13
 3073 00b2 00       		.byte	0
 3074 00b3 00       		.byte	0
 3075 00b4 0F       		.uleb128 0xf
 3076 00b5 0D       		.uleb128 0xd
 3077 00b6 00       		.byte	0
 3078 00b7 03       		.uleb128 0x3
 3079 00b8 0E       		.uleb128 0xe
 3080 00b9 3A       		.uleb128 0x3a
 3081 00ba 0B       		.uleb128 0xb
 3082 00bb 3B       		.uleb128 0x3b
 3083 00bc 0B       		.uleb128 0xb
 3084 00bd 49       		.uleb128 0x49
 3085 00be 13       		.uleb128 0x13
 3086 00bf 00       		.byte	0
 3087 00c0 00       		.byte	0
 3088 00c1 10       		.uleb128 0x10
 3089 00c2 26       		.uleb128 0x26
 3090 00c3 00       		.byte	0
 3091 00c4 49       		.uleb128 0x49
 3092 00c5 13       		.uleb128 0x13
 3093 00c6 00       		.byte	0
 3094 00c7 00       		.byte	0
 3095 00c8 11       		.uleb128 0x11
 3096 00c9 15       		.uleb128 0x15
 3097 00ca 01       		.byte	0x1
 3098 00cb 27       		.uleb128 0x27
 3099 00cc 0C       		.uleb128 0xc
 3100 00cd 49       		.uleb128 0x49
 3101 00ce 13       		.uleb128 0x13
 3102 00cf 01       		.uleb128 0x1
 3103 00d0 13       		.uleb128 0x13
 3104 00d1 00       		.byte	0
 3105 00d2 00       		.byte	0
 3106 00d3 12       		.uleb128 0x12
 3107 00d4 05       		.uleb128 0x5
 3108 00d5 00       		.byte	0
 3109 00d6 49       		.uleb128 0x49
 3110 00d7 13       		.uleb128 0x13
 3111 00d8 00       		.byte	0
 3112 00d9 00       		.byte	0
 3113 00da 13       		.uleb128 0x13
 3114 00db 15       		.uleb128 0x15
 3115 00dc 01       		.byte	0x1
 3116 00dd 27       		.uleb128 0x27
 3117 00de 0C       		.uleb128 0xc
 3118 00df 01       		.uleb128 0x1
 3119 00e0 13       		.uleb128 0x13
 3120 00e1 00       		.byte	0
 3121 00e2 00       		.byte	0
 3122 00e3 14       		.uleb128 0x14
 3123 00e4 04       		.uleb128 0x4
 3124 00e5 01       		.byte	0x1
 3125 00e6 03       		.uleb128 0x3
 3126 00e7 0E       		.uleb128 0xe
ARM GAS  /tmp/ccWlo0cl.s 			page 56


 3127 00e8 0B       		.uleb128 0xb
 3128 00e9 0B       		.uleb128 0xb
 3129 00ea 3A       		.uleb128 0x3a
 3130 00eb 0B       		.uleb128 0xb
 3131 00ec 3B       		.uleb128 0x3b
 3132 00ed 0B       		.uleb128 0xb
 3133 00ee 01       		.uleb128 0x1
 3134 00ef 13       		.uleb128 0x13
 3135 00f0 00       		.byte	0
 3136 00f1 00       		.byte	0
 3137 00f2 15       		.uleb128 0x15
 3138 00f3 28       		.uleb128 0x28
 3139 00f4 00       		.byte	0
 3140 00f5 03       		.uleb128 0x3
 3141 00f6 0E       		.uleb128 0xe
 3142 00f7 1C       		.uleb128 0x1c
 3143 00f8 0D       		.uleb128 0xd
 3144 00f9 00       		.byte	0
 3145 00fa 00       		.byte	0
 3146 00fb 16       		.uleb128 0x16
 3147 00fc 01       		.uleb128 0x1
 3148 00fd 01       		.byte	0x1
 3149 00fe 49       		.uleb128 0x49
 3150 00ff 13       		.uleb128 0x13
 3151 0100 01       		.uleb128 0x1
 3152 0101 13       		.uleb128 0x13
 3153 0102 00       		.byte	0
 3154 0103 00       		.byte	0
 3155 0104 17       		.uleb128 0x17
 3156 0105 21       		.uleb128 0x21
 3157 0106 00       		.byte	0
 3158 0107 49       		.uleb128 0x49
 3159 0108 13       		.uleb128 0x13
 3160 0109 2F       		.uleb128 0x2f
 3161 010a 0B       		.uleb128 0xb
 3162 010b 00       		.byte	0
 3163 010c 00       		.byte	0
 3164 010d 18       		.uleb128 0x18
 3165 010e 13       		.uleb128 0x13
 3166 010f 01       		.byte	0x1
 3167 0110 0B       		.uleb128 0xb
 3168 0111 0B       		.uleb128 0xb
 3169 0112 3A       		.uleb128 0x3a
 3170 0113 0B       		.uleb128 0xb
 3171 0114 3B       		.uleb128 0x3b
 3172 0115 05       		.uleb128 0x5
 3173 0116 01       		.uleb128 0x1
 3174 0117 13       		.uleb128 0x13
 3175 0118 00       		.byte	0
 3176 0119 00       		.byte	0
 3177 011a 19       		.uleb128 0x19
 3178 011b 0D       		.uleb128 0xd
 3179 011c 00       		.byte	0
 3180 011d 03       		.uleb128 0x3
 3181 011e 0E       		.uleb128 0xe
 3182 011f 3A       		.uleb128 0x3a
 3183 0120 0B       		.uleb128 0xb
ARM GAS  /tmp/ccWlo0cl.s 			page 57


 3184 0121 3B       		.uleb128 0x3b
 3185 0122 05       		.uleb128 0x5
 3186 0123 49       		.uleb128 0x49
 3187 0124 13       		.uleb128 0x13
 3188 0125 38       		.uleb128 0x38
 3189 0126 0A       		.uleb128 0xa
 3190 0127 00       		.byte	0
 3191 0128 00       		.byte	0
 3192 0129 1A       		.uleb128 0x1a
 3193 012a 16       		.uleb128 0x16
 3194 012b 00       		.byte	0
 3195 012c 03       		.uleb128 0x3
 3196 012d 0E       		.uleb128 0xe
 3197 012e 3A       		.uleb128 0x3a
 3198 012f 0B       		.uleb128 0xb
 3199 0130 3B       		.uleb128 0x3b
 3200 0131 05       		.uleb128 0x5
 3201 0132 49       		.uleb128 0x49
 3202 0133 13       		.uleb128 0x13
 3203 0134 00       		.byte	0
 3204 0135 00       		.byte	0
 3205 0136 1B       		.uleb128 0x1b
 3206 0137 04       		.uleb128 0x4
 3207 0138 01       		.byte	0x1
 3208 0139 0B       		.uleb128 0xb
 3209 013a 0B       		.uleb128 0xb
 3210 013b 3A       		.uleb128 0x3a
 3211 013c 0B       		.uleb128 0xb
 3212 013d 3B       		.uleb128 0x3b
 3213 013e 0B       		.uleb128 0xb
 3214 013f 01       		.uleb128 0x1
 3215 0140 13       		.uleb128 0x13
 3216 0141 00       		.byte	0
 3217 0142 00       		.byte	0
 3218 0143 1C       		.uleb128 0x1c
 3219 0144 2E       		.uleb128 0x2e
 3220 0145 01       		.byte	0x1
 3221 0146 03       		.uleb128 0x3
 3222 0147 0E       		.uleb128 0xe
 3223 0148 3A       		.uleb128 0x3a
 3224 0149 0B       		.uleb128 0xb
 3225 014a 3B       		.uleb128 0x3b
 3226 014b 0B       		.uleb128 0xb
 3227 014c 27       		.uleb128 0x27
 3228 014d 0C       		.uleb128 0xc
 3229 014e 11       		.uleb128 0x11
 3230 014f 01       		.uleb128 0x1
 3231 0150 12       		.uleb128 0x12
 3232 0151 01       		.uleb128 0x1
 3233 0152 40       		.uleb128 0x40
 3234 0153 06       		.uleb128 0x6
 3235 0154 01       		.uleb128 0x1
 3236 0155 13       		.uleb128 0x13
 3237 0156 00       		.byte	0
 3238 0157 00       		.byte	0
 3239 0158 1D       		.uleb128 0x1d
 3240 0159 05       		.uleb128 0x5
ARM GAS  /tmp/ccWlo0cl.s 			page 58


 3241 015a 00       		.byte	0
 3242 015b 03       		.uleb128 0x3
 3243 015c 08       		.uleb128 0x8
 3244 015d 3A       		.uleb128 0x3a
 3245 015e 0B       		.uleb128 0xb
 3246 015f 3B       		.uleb128 0x3b
 3247 0160 0B       		.uleb128 0xb
 3248 0161 49       		.uleb128 0x49
 3249 0162 13       		.uleb128 0x13
 3250 0163 02       		.uleb128 0x2
 3251 0164 0A       		.uleb128 0xa
 3252 0165 00       		.byte	0
 3253 0166 00       		.byte	0
 3254 0167 1E       		.uleb128 0x1e
 3255 0168 05       		.uleb128 0x5
 3256 0169 00       		.byte	0
 3257 016a 03       		.uleb128 0x3
 3258 016b 0E       		.uleb128 0xe
 3259 016c 3A       		.uleb128 0x3a
 3260 016d 0B       		.uleb128 0xb
 3261 016e 3B       		.uleb128 0x3b
 3262 016f 0B       		.uleb128 0xb
 3263 0170 49       		.uleb128 0x49
 3264 0171 13       		.uleb128 0x13
 3265 0172 02       		.uleb128 0x2
 3266 0173 0A       		.uleb128 0xa
 3267 0174 00       		.byte	0
 3268 0175 00       		.byte	0
 3269 0176 1F       		.uleb128 0x1f
 3270 0177 34       		.uleb128 0x34
 3271 0178 00       		.byte	0
 3272 0179 03       		.uleb128 0x3
 3273 017a 08       		.uleb128 0x8
 3274 017b 3A       		.uleb128 0x3a
 3275 017c 0B       		.uleb128 0xb
 3276 017d 3B       		.uleb128 0x3b
 3277 017e 0B       		.uleb128 0xb
 3278 017f 49       		.uleb128 0x49
 3279 0180 13       		.uleb128 0x13
 3280 0181 02       		.uleb128 0x2
 3281 0182 0A       		.uleb128 0xa
 3282 0183 00       		.byte	0
 3283 0184 00       		.byte	0
 3284 0185 20       		.uleb128 0x20
 3285 0186 0B       		.uleb128 0xb
 3286 0187 01       		.byte	0x1
 3287 0188 11       		.uleb128 0x11
 3288 0189 01       		.uleb128 0x1
 3289 018a 12       		.uleb128 0x12
 3290 018b 01       		.uleb128 0x1
 3291 018c 01       		.uleb128 0x1
 3292 018d 13       		.uleb128 0x13
 3293 018e 00       		.byte	0
 3294 018f 00       		.byte	0
 3295 0190 21       		.uleb128 0x21
 3296 0191 34       		.uleb128 0x34
 3297 0192 00       		.byte	0
ARM GAS  /tmp/ccWlo0cl.s 			page 59


 3298 0193 03       		.uleb128 0x3
 3299 0194 08       		.uleb128 0x8
 3300 0195 3A       		.uleb128 0x3a
 3301 0196 0B       		.uleb128 0xb
 3302 0197 3B       		.uleb128 0x3b
 3303 0198 05       		.uleb128 0x5
 3304 0199 49       		.uleb128 0x49
 3305 019a 13       		.uleb128 0x13
 3306 019b 02       		.uleb128 0x2
 3307 019c 0A       		.uleb128 0xa
 3308 019d 00       		.byte	0
 3309 019e 00       		.byte	0
 3310 019f 22       		.uleb128 0x22
 3311 01a0 0B       		.uleb128 0xb
 3312 01a1 01       		.byte	0x1
 3313 01a2 11       		.uleb128 0x11
 3314 01a3 01       		.uleb128 0x1
 3315 01a4 12       		.uleb128 0x12
 3316 01a5 01       		.uleb128 0x1
 3317 01a6 00       		.byte	0
 3318 01a7 00       		.byte	0
 3319 01a8 23       		.uleb128 0x23
 3320 01a9 2E       		.uleb128 0x2e
 3321 01aa 01       		.byte	0x1
 3322 01ab 03       		.uleb128 0x3
 3323 01ac 0E       		.uleb128 0xe
 3324 01ad 3A       		.uleb128 0x3a
 3325 01ae 0B       		.uleb128 0xb
 3326 01af 3B       		.uleb128 0x3b
 3327 01b0 05       		.uleb128 0x5
 3328 01b1 27       		.uleb128 0x27
 3329 01b2 0C       		.uleb128 0xc
 3330 01b3 11       		.uleb128 0x11
 3331 01b4 01       		.uleb128 0x1
 3332 01b5 12       		.uleb128 0x12
 3333 01b6 01       		.uleb128 0x1
 3334 01b7 40       		.uleb128 0x40
 3335 01b8 06       		.uleb128 0x6
 3336 01b9 01       		.uleb128 0x1
 3337 01ba 13       		.uleb128 0x13
 3338 01bb 00       		.byte	0
 3339 01bc 00       		.byte	0
 3340 01bd 24       		.uleb128 0x24
 3341 01be 05       		.uleb128 0x5
 3342 01bf 00       		.byte	0
 3343 01c0 03       		.uleb128 0x3
 3344 01c1 08       		.uleb128 0x8
 3345 01c2 3A       		.uleb128 0x3a
 3346 01c3 0B       		.uleb128 0xb
 3347 01c4 3B       		.uleb128 0x3b
 3348 01c5 05       		.uleb128 0x5
 3349 01c6 49       		.uleb128 0x49
 3350 01c7 13       		.uleb128 0x13
 3351 01c8 02       		.uleb128 0x2
 3352 01c9 0A       		.uleb128 0xa
 3353 01ca 00       		.byte	0
 3354 01cb 00       		.byte	0
ARM GAS  /tmp/ccWlo0cl.s 			page 60


 3355 01cc 25       		.uleb128 0x25
 3356 01cd 2E       		.uleb128 0x2e
 3357 01ce 00       		.byte	0
 3358 01cf 3F       		.uleb128 0x3f
 3359 01d0 0C       		.uleb128 0xc
 3360 01d1 03       		.uleb128 0x3
 3361 01d2 0E       		.uleb128 0xe
 3362 01d3 3A       		.uleb128 0x3a
 3363 01d4 0B       		.uleb128 0xb
 3364 01d5 3B       		.uleb128 0x3b
 3365 01d6 05       		.uleb128 0x5
 3366 01d7 27       		.uleb128 0x27
 3367 01d8 0C       		.uleb128 0xc
 3368 01d9 11       		.uleb128 0x11
 3369 01da 01       		.uleb128 0x1
 3370 01db 12       		.uleb128 0x12
 3371 01dc 01       		.uleb128 0x1
 3372 01dd 40       		.uleb128 0x40
 3373 01de 06       		.uleb128 0x6
 3374 01df 00       		.byte	0
 3375 01e0 00       		.byte	0
 3376 01e1 26       		.uleb128 0x26
 3377 01e2 2E       		.uleb128 0x2e
 3378 01e3 01       		.byte	0x1
 3379 01e4 3F       		.uleb128 0x3f
 3380 01e5 0C       		.uleb128 0xc
 3381 01e6 03       		.uleb128 0x3
 3382 01e7 0E       		.uleb128 0xe
 3383 01e8 3A       		.uleb128 0x3a
 3384 01e9 0B       		.uleb128 0xb
 3385 01ea 3B       		.uleb128 0x3b
 3386 01eb 05       		.uleb128 0x5
 3387 01ec 27       		.uleb128 0x27
 3388 01ed 0C       		.uleb128 0xc
 3389 01ee 11       		.uleb128 0x11
 3390 01ef 01       		.uleb128 0x1
 3391 01f0 12       		.uleb128 0x12
 3392 01f1 01       		.uleb128 0x1
 3393 01f2 40       		.uleb128 0x40
 3394 01f3 06       		.uleb128 0x6
 3395 01f4 01       		.uleb128 0x1
 3396 01f5 13       		.uleb128 0x13
 3397 01f6 00       		.byte	0
 3398 01f7 00       		.byte	0
 3399 01f8 27       		.uleb128 0x27
 3400 01f9 05       		.uleb128 0x5
 3401 01fa 00       		.byte	0
 3402 01fb 03       		.uleb128 0x3
 3403 01fc 0E       		.uleb128 0xe
 3404 01fd 3A       		.uleb128 0x3a
 3405 01fe 0B       		.uleb128 0xb
 3406 01ff 3B       		.uleb128 0x3b
 3407 0200 05       		.uleb128 0x5
 3408 0201 49       		.uleb128 0x49
 3409 0202 13       		.uleb128 0x13
 3410 0203 02       		.uleb128 0x2
 3411 0204 0A       		.uleb128 0xa
ARM GAS  /tmp/ccWlo0cl.s 			page 61


 3412 0205 00       		.byte	0
 3413 0206 00       		.byte	0
 3414 0207 28       		.uleb128 0x28
 3415 0208 34       		.uleb128 0x34
 3416 0209 00       		.byte	0
 3417 020a 03       		.uleb128 0x3
 3418 020b 0E       		.uleb128 0xe
 3419 020c 3A       		.uleb128 0x3a
 3420 020d 0B       		.uleb128 0xb
 3421 020e 3B       		.uleb128 0x3b
 3422 020f 05       		.uleb128 0x5
 3423 0210 49       		.uleb128 0x49
 3424 0211 13       		.uleb128 0x13
 3425 0212 3F       		.uleb128 0x3f
 3426 0213 0C       		.uleb128 0xc
 3427 0214 3C       		.uleb128 0x3c
 3428 0215 0C       		.uleb128 0xc
 3429 0216 00       		.byte	0
 3430 0217 00       		.byte	0
 3431 0218 29       		.uleb128 0x29
 3432 0219 34       		.uleb128 0x34
 3433 021a 00       		.byte	0
 3434 021b 03       		.uleb128 0x3
 3435 021c 08       		.uleb128 0x8
 3436 021d 3A       		.uleb128 0x3a
 3437 021e 0B       		.uleb128 0xb
 3438 021f 3B       		.uleb128 0x3b
 3439 0220 05       		.uleb128 0x5
 3440 0221 49       		.uleb128 0x49
 3441 0222 13       		.uleb128 0x13
 3442 0223 3F       		.uleb128 0x3f
 3443 0224 0C       		.uleb128 0xc
 3444 0225 3C       		.uleb128 0x3c
 3445 0226 0C       		.uleb128 0xc
 3446 0227 00       		.byte	0
 3447 0228 00       		.byte	0
 3448 0229 2A       		.uleb128 0x2a
 3449 022a 34       		.uleb128 0x34
 3450 022b 00       		.byte	0
 3451 022c 03       		.uleb128 0x3
 3452 022d 0E       		.uleb128 0xe
 3453 022e 3A       		.uleb128 0x3a
 3454 022f 0B       		.uleb128 0xb
 3455 0230 3B       		.uleb128 0x3b
 3456 0231 0B       		.uleb128 0xb
 3457 0232 49       		.uleb128 0x49
 3458 0233 13       		.uleb128 0x13
 3459 0234 02       		.uleb128 0x2
 3460 0235 0A       		.uleb128 0xa
 3461 0236 00       		.byte	0
 3462 0237 00       		.byte	0
 3463 0238 2B       		.uleb128 0x2b
 3464 0239 34       		.uleb128 0x34
 3465 023a 00       		.byte	0
 3466 023b 03       		.uleb128 0x3
 3467 023c 08       		.uleb128 0x8
 3468 023d 3A       		.uleb128 0x3a
ARM GAS  /tmp/ccWlo0cl.s 			page 62


 3469 023e 0B       		.uleb128 0xb
 3470 023f 3B       		.uleb128 0x3b
 3471 0240 0B       		.uleb128 0xb
 3472 0241 49       		.uleb128 0x49
 3473 0242 13       		.uleb128 0x13
 3474 0243 3F       		.uleb128 0x3f
 3475 0244 0C       		.uleb128 0xc
 3476 0245 02       		.uleb128 0x2
 3477 0246 0A       		.uleb128 0xa
 3478 0247 00       		.byte	0
 3479 0248 00       		.byte	0
 3480 0249 00       		.byte	0
 3481              		.section	.debug_loc,"",%progbits
 3482              	.Ldebug_loc0:
 3483              	.LLST0:
 3484 0000 00000000 		.4byte	.LFB63
 3485 0004 02000000 		.4byte	.LCFI0
 3486 0008 0200     		.2byte	0x2
 3487 000a 7D       		.byte	0x7d
 3488 000b 00       		.sleb128 0
 3489 000c 02000000 		.4byte	.LCFI0
 3490 0010 9C000000 		.4byte	.LFE63
 3491 0014 0200     		.2byte	0x2
 3492 0016 7D       		.byte	0x7d
 3493 0017 10       		.sleb128 16
 3494 0018 00000000 		.4byte	0
 3495 001c 00000000 		.4byte	0
 3496              	.LLST1:
 3497 0020 00000000 		.4byte	.LFB64
 3498 0024 02000000 		.4byte	.LCFI1
 3499 0028 0200     		.2byte	0x2
 3500 002a 7D       		.byte	0x7d
 3501 002b 00       		.sleb128 0
 3502 002c 02000000 		.4byte	.LCFI1
 3503 0030 20000000 		.4byte	.LFE64
 3504 0034 0200     		.2byte	0x2
 3505 0036 7D       		.byte	0x7d
 3506 0037 08       		.sleb128 8
 3507 0038 00000000 		.4byte	0
 3508 003c 00000000 		.4byte	0
 3509              	.LLST2:
 3510 0040 00000000 		.4byte	.LFB65
 3511 0044 02000000 		.4byte	.LCFI2
 3512 0048 0200     		.2byte	0x2
 3513 004a 7D       		.byte	0x7d
 3514 004b 00       		.sleb128 0
 3515 004c 02000000 		.4byte	.LCFI2
 3516 0050 04000000 		.4byte	.LCFI3
 3517 0054 0200     		.2byte	0x2
 3518 0056 7D       		.byte	0x7d
 3519 0057 04       		.sleb128 4
 3520 0058 04000000 		.4byte	.LCFI3
 3521 005c 9C000000 		.4byte	.LFE65
 3522 0060 0200     		.2byte	0x2
 3523 0062 7D       		.byte	0x7d
 3524 0063 18       		.sleb128 24
 3525 0064 00000000 		.4byte	0
ARM GAS  /tmp/ccWlo0cl.s 			page 63


 3526 0068 00000000 		.4byte	0
 3527              	.LLST3:
 3528 006c 00000000 		.4byte	.LFB66
 3529 0070 02000000 		.4byte	.LCFI4
 3530 0074 0200     		.2byte	0x2
 3531 0076 7D       		.byte	0x7d
 3532 0077 00       		.sleb128 0
 3533 0078 02000000 		.4byte	.LCFI4
 3534 007c 04000000 		.4byte	.LCFI5
 3535 0080 0200     		.2byte	0x2
 3536 0082 7D       		.byte	0x7d
 3537 0083 04       		.sleb128 4
 3538 0084 04000000 		.4byte	.LCFI5
 3539 0088 A2010000 		.4byte	.LFE66
 3540 008c 0200     		.2byte	0x2
 3541 008e 7D       		.byte	0x7d
 3542 008f 20       		.sleb128 32
 3543 0090 00000000 		.4byte	0
 3544 0094 00000000 		.4byte	0
 3545              	.LLST4:
 3546 0098 00000000 		.4byte	.LFB67
 3547 009c 02000000 		.4byte	.LCFI6
 3548 00a0 0200     		.2byte	0x2
 3549 00a2 7D       		.byte	0x7d
 3550 00a3 00       		.sleb128 0
 3551 00a4 02000000 		.4byte	.LCFI6
 3552 00a8 24000000 		.4byte	.LFE67
 3553 00ac 0200     		.2byte	0x2
 3554 00ae 7D       		.byte	0x7d
 3555 00af 08       		.sleb128 8
 3556 00b0 00000000 		.4byte	0
 3557 00b4 00000000 		.4byte	0
 3558              	.LLST5:
 3559 00b8 00000000 		.4byte	.LFB68
 3560 00bc 02000000 		.4byte	.LCFI7
 3561 00c0 0200     		.2byte	0x2
 3562 00c2 7D       		.byte	0x7d
 3563 00c3 00       		.sleb128 0
 3564 00c4 02000000 		.4byte	.LCFI7
 3565 00c8 1C000000 		.4byte	.LFE68
 3566 00cc 0200     		.2byte	0x2
 3567 00ce 7D       		.byte	0x7d
 3568 00cf 08       		.sleb128 8
 3569 00d0 00000000 		.4byte	0
 3570 00d4 00000000 		.4byte	0
 3571              	.LLST6:
 3572 00d8 00000000 		.4byte	.LFB69
 3573 00dc 02000000 		.4byte	.LCFI8
 3574 00e0 0200     		.2byte	0x2
 3575 00e2 7D       		.byte	0x7d
 3576 00e3 00       		.sleb128 0
 3577 00e4 02000000 		.4byte	.LCFI8
 3578 00e8 2E000000 		.4byte	.LFE69
 3579 00ec 0200     		.2byte	0x2
 3580 00ee 7D       		.byte	0x7d
 3581 00ef 08       		.sleb128 8
 3582 00f0 00000000 		.4byte	0
ARM GAS  /tmp/ccWlo0cl.s 			page 64


 3583 00f4 00000000 		.4byte	0
 3584              	.LLST7:
 3585 00f8 00000000 		.4byte	.LFB70
 3586 00fc 02000000 		.4byte	.LCFI9
 3587 0100 0200     		.2byte	0x2
 3588 0102 7D       		.byte	0x7d
 3589 0103 00       		.sleb128 0
 3590 0104 02000000 		.4byte	.LCFI9
 3591 0108 04000000 		.4byte	.LCFI10
 3592 010c 0200     		.2byte	0x2
 3593 010e 7D       		.byte	0x7d
 3594 010f 04       		.sleb128 4
 3595 0110 04000000 		.4byte	.LCFI10
 3596 0114 5E000000 		.4byte	.LFE70
 3597 0118 0200     		.2byte	0x2
 3598 011a 7D       		.byte	0x7d
 3599 011b 10       		.sleb128 16
 3600 011c 00000000 		.4byte	0
 3601 0120 00000000 		.4byte	0
 3602              	.LLST8:
 3603 0124 00000000 		.4byte	.LFB71
 3604 0128 02000000 		.4byte	.LCFI11
 3605 012c 0200     		.2byte	0x2
 3606 012e 7D       		.byte	0x7d
 3607 012f 00       		.sleb128 0
 3608 0130 02000000 		.4byte	.LCFI11
 3609 0134 04000000 		.4byte	.LCFI12
 3610 0138 0200     		.2byte	0x2
 3611 013a 7D       		.byte	0x7d
 3612 013b 04       		.sleb128 4
 3613 013c 04000000 		.4byte	.LCFI12
 3614 0140 4C000000 		.4byte	.LFE71
 3615 0144 0200     		.2byte	0x2
 3616 0146 7D       		.byte	0x7d
 3617 0147 10       		.sleb128 16
 3618 0148 00000000 		.4byte	0
 3619 014c 00000000 		.4byte	0
 3620              		.section	.debug_aranges,"",%progbits
 3621 0000 5C000000 		.4byte	0x5c
 3622 0004 0200     		.2byte	0x2
 3623 0006 00000000 		.4byte	.Ldebug_info0
 3624 000a 04       		.byte	0x4
 3625 000b 00       		.byte	0
 3626 000c 0000     		.2byte	0
 3627 000e 0000     		.2byte	0
 3628 0010 00000000 		.4byte	.LFB63
 3629 0014 9C000000 		.4byte	.LFE63-.LFB63
 3630 0018 00000000 		.4byte	.LFB64
 3631 001c 20000000 		.4byte	.LFE64-.LFB64
 3632 0020 00000000 		.4byte	.LFB65
 3633 0024 9C000000 		.4byte	.LFE65-.LFB65
 3634 0028 00000000 		.4byte	.LFB66
 3635 002c A2010000 		.4byte	.LFE66-.LFB66
 3636 0030 00000000 		.4byte	.LFB67
 3637 0034 24000000 		.4byte	.LFE67-.LFB67
 3638 0038 00000000 		.4byte	.LFB68
 3639 003c 1C000000 		.4byte	.LFE68-.LFB68
ARM GAS  /tmp/ccWlo0cl.s 			page 65


 3640 0040 00000000 		.4byte	.LFB69
 3641 0044 2E000000 		.4byte	.LFE69-.LFB69
 3642 0048 00000000 		.4byte	.LFB70
 3643 004c 5E000000 		.4byte	.LFE70-.LFB70
 3644 0050 00000000 		.4byte	.LFB71
 3645 0054 4C000000 		.4byte	.LFE71-.LFB71
 3646 0058 00000000 		.4byte	0
 3647 005c 00000000 		.4byte	0
 3648              		.section	.debug_ranges,"",%progbits
 3649              	.Ldebug_ranges0:
 3650 0000 00000000 		.4byte	.LFB63
 3651 0004 9C000000 		.4byte	.LFE63
 3652 0008 00000000 		.4byte	.LFB64
 3653 000c 20000000 		.4byte	.LFE64
 3654 0010 00000000 		.4byte	.LFB65
 3655 0014 9C000000 		.4byte	.LFE65
 3656 0018 00000000 		.4byte	.LFB66
 3657 001c A2010000 		.4byte	.LFE66
 3658 0020 00000000 		.4byte	.LFB67
 3659 0024 24000000 		.4byte	.LFE67
 3660 0028 00000000 		.4byte	.LFB68
 3661 002c 1C000000 		.4byte	.LFE68
 3662 0030 00000000 		.4byte	.LFB69
 3663 0034 2E000000 		.4byte	.LFE69
 3664 0038 00000000 		.4byte	.LFB70
 3665 003c 5E000000 		.4byte	.LFE70
 3666 0040 00000000 		.4byte	.LFB71
 3667 0044 4C000000 		.4byte	.LFE71
 3668 0048 00000000 		.4byte	0
 3669 004c 00000000 		.4byte	0
 3670              		.section	.debug_line,"",%progbits
 3671              	.Ldebug_line0:
 3672 0000 80030000 		.section	.debug_str,"MS",%progbits,1
 3672      02008402 
 3672      00000201 
 3672      FB0E0D00 
 3672      01010101 
 3673              	.LASF2:
 3674 0000 73697A65 		.ascii	"size_t\000"
 3674      5F7400
 3675              	.LASF130:
 3676 0007 54494D38 		.ascii	"TIM8_UP_TIM13_IRQn\000"
 3676      5F55505F 
 3676      54494D31 
 3676      335F4952 
 3676      516E00
 3677              	.LASF23:
 3678 001a 73797374 		.ascii	"systime_t\000"
 3678      696D655F 
 3678      7400
 3679              	.LASF193:
 3680 0024 504C4C49 		.ascii	"PLLI2SCFGR\000"
 3680      32534346 
 3680      475200
 3681              	.LASF28:
 3682 002f 705F6374 		.ascii	"p_ctx\000"
 3682      7800
ARM GAS  /tmp/ccWlo0cl.s 			page 66


 3683              	.LASF20:
 3684 0035 74707269 		.ascii	"tprio_t\000"
 3684      6F5F7400 
 3685              	.LASF39:
 3686 003d 705F6D73 		.ascii	"p_msgqueue\000"
 3686      67717565 
 3686      756500
 3687              	.LASF8:
 3688 0048 696E7433 		.ascii	"int32_t\000"
 3688      325F7400 
 3689              	.LASF213:
 3690 0050 53657269 		.ascii	"SerialConfig\000"
 3690      616C436F 
 3690      6E666967 
 3690      00
 3691              	.LASF219:
 3692 005d 77726974 		.ascii	"writet\000"
 3692      657400
 3693              	.LASF195:
 3694 0064 47545052 		.ascii	"GTPR\000"
 3694      00
 3695              	.LASF234:
 3696 0069 474E5520 		.ascii	"GNU C 4.6.2 20120613 (release) [ARM/embedded-4_6-br"
 3696      4320342E 
 3696      362E3220 
 3696      32303132 
 3696      30363133 
 3697 009c 616E6368 		.ascii	"anch revision 188521]\000"
 3697      20726576 
 3697      6973696F 
 3697      6E203138 
 3697      38353231 
 3698              	.LASF215:
 3699 00b2 77726974 		.ascii	"write\000"
 3699      6500
 3700              	.LASF143:
 3701 00b8 444D4132 		.ascii	"DMA2_Stream1_IRQn\000"
 3701      5F537472 
 3701      65616D31 
 3701      5F495251 
 3701      6E00
 3702              	.LASF137:
 3703 00ca 53504933 		.ascii	"SPI3_IRQn\000"
 3703      5F495251 
 3703      6E00
 3704              	.LASF90:
 3705 00d4 464C4153 		.ascii	"FLASH_IRQn\000"
 3705      485F4952 
 3705      516E00
 3706              	.LASF164:
 3707 00df 44434D49 		.ascii	"DCMI_IRQn\000"
 3707      5F495251 
 3707      6E00
 3708              	.LASF222:
 3709 00e9 636F6E66 		.ascii	"config\000"
 3709      696700
 3710              	.LASF205:
ARM GAS  /tmp/ccWlo0cl.s 			page 67


 3711 00f0 73746174 		.ascii	"state\000"
 3711      6500
 3712              	.LASF217:
 3713 00f6 70757474 		.ascii	"putt\000"
 3713      00
 3714              	.LASF114:
 3715 00fb 54494D32 		.ascii	"TIM2_IRQn\000"
 3715      5F495251 
 3715      6E00
 3716              	.LASF226:
 3717 0105 73657276 		.ascii	"serve_interrupt\000"
 3717      655F696E 
 3717      74657272 
 3717      75707400 
 3718              	.LASF225:
 3719 0115 7365745F 		.ascii	"set_error\000"
 3719      6572726F 
 3719      7200
 3720              	.LASF150:
 3721 011f 43414E32 		.ascii	"CAN2_RX0_IRQn\000"
 3721      5F525830 
 3721      5F495251 
 3721      6E00
 3722              	.LASF157:
 3723 012d 55534152 		.ascii	"USART6_IRQn\000"
 3723      54365F49 
 3723      52516E00 
 3724              	.LASF53:
 3725 0139 6D5F6F77 		.ascii	"m_owner\000"
 3725      6E657200 
 3726              	.LASF62:
 3727 0141 65786974 		.ascii	"exitcode\000"
 3727      636F6465 
 3727      00
 3728              	.LASF162:
 3729 014a 4F54475F 		.ascii	"OTG_HS_WKUP_IRQn\000"
 3729      48535F57 
 3729      4B55505F 
 3729      4952516E 
 3729      00
 3730              	.LASF70:
 3731 015b 715F746F 		.ascii	"q_top\000"
 3731      7000
 3732              	.LASF64:
 3733 0161 65776D61 		.ascii	"ewmask\000"
 3733      736B00
 3734              	.LASF129:
 3735 0168 54494D38 		.ascii	"TIM8_BRK_TIM12_IRQn\000"
 3735      5F42524B 
 3735      5F54494D 
 3735      31325F49 
 3735      52516E00 
 3736              	.LASF184:
 3737 017c 41484232 		.ascii	"AHB2LPENR\000"
 3737      4C50454E 
 3737      5200
 3738              	.LASF220:
ARM GAS  /tmp/ccWlo0cl.s 			page 68


 3739 0186 72656164 		.ascii	"readt\000"
 3739      7400
 3740              	.LASF230:
 3741 018c 73645F6C 		.ascii	"sd_lld_start\000"
 3741      6C645F73 
 3741      74617274 
 3741      00
 3742              	.LASF69:
 3743 0199 715F6275 		.ascii	"q_buffer\000"
 3743      66666572 
 3743      00
 3744              	.LASF73:
 3745 01a2 715F6E6F 		.ascii	"q_notify\000"
 3745      74696679 
 3745      00
 3746              	.LASF29:
 3747 01ab 705F6E65 		.ascii	"p_newer\000"
 3747      77657200 
 3748              	.LASF9:
 3749 01b3 6C6F6E67 		.ascii	"long int\000"
 3749      20696E74 
 3749      00
 3750              	.LASF25:
 3751 01bc 705F6E65 		.ascii	"p_next\000"
 3751      787400
 3752              	.LASF72:
 3753 01c3 715F7264 		.ascii	"q_rdptr\000"
 3753      70747200 
 3754              	.LASF26:
 3755 01cb 705F7072 		.ascii	"p_prev\000"
 3755      657600
 3756              	.LASF233:
 3757 01d2 64656661 		.ascii	"default_config\000"
 3757      756C745F 
 3757      636F6E66 
 3757      696700
 3758              	.LASF154:
 3759 01e1 444D4132 		.ascii	"DMA2_Stream5_IRQn\000"
 3759      5F537472 
 3759      65616D35 
 3759      5F495251 
 3759      6E00
 3760              	.LASF17:
 3761 01f3 74737461 		.ascii	"tstate_t\000"
 3761      74655F74 
 3761      00
 3762              	.LASF42:
 3763 01fc 705F6D74 		.ascii	"p_mtxlist\000"
 3763      786C6973 
 3763      7400
 3764              	.LASF112:
 3765 0206 54494D31 		.ascii	"TIM1_TRG_COM_TIM11_IRQn\000"
 3765      5F545247 
 3765      5F434F4D 
 3765      5F54494D 
 3765      31315F49 
 3766              	.LASF207:
ARM GAS  /tmp/ccWlo0cl.s 			page 69


 3767 021e 6F717565 		.ascii	"oqueue\000"
 3767      756500
 3768              	.LASF47:
 3769 0225 72656761 		.ascii	"regarm_t\000"
 3769      726D5F74 
 3769      00
 3770              	.LASF181:
 3771 022e 41504232 		.ascii	"APB2ENR\000"
 3771      454E5200 
 3772              	.LASF183:
 3773 0236 41484231 		.ascii	"AHB1LPENR\000"
 3773      4C50454E 
 3773      5200
 3774              	.LASF85:
 3775 0240 53797354 		.ascii	"SysTick_IRQn\000"
 3775      69636B5F 
 3775      4952516E 
 3775      00
 3776              	.LASF125:
 3777 024d 55534152 		.ascii	"USART3_IRQn\000"
 3777      54335F49 
 3777      52516E00 
 3778              	.LASF208:
 3779 0259 75736172 		.ascii	"usart\000"
 3779      7400
 3780              	.LASF1:
 3781 025f 7369676E 		.ascii	"signed char\000"
 3781      65642063 
 3781      68617200 
 3782              	.LASF36:
 3783 026b 705F7072 		.ascii	"p_preempt\000"
 3783      65656D70 
 3783      7400
 3784              	.LASF3:
 3785 0275 75696E74 		.ascii	"uint8_t\000"
 3785      385F7400 
 3786              	.LASF22:
 3787 027d 6576656E 		.ascii	"eventmask_t\000"
 3787      746D6173 
 3787      6B5F7400 
 3788              	.LASF50:
 3789 0289 636F6E74 		.ascii	"context\000"
 3789      65787400 
 3790              	.LASF99:
 3791 0291 444D4131 		.ascii	"DMA1_Stream2_IRQn\000"
 3791      5F537472 
 3791      65616D32 
 3791      5F495251 
 3791      6E00
 3792              	.LASF172:
 3793 02a3 52455345 		.ascii	"RESERVED0\000"
 3793      52564544 
 3793      3000
 3794              	.LASF175:
 3795 02ad 52455345 		.ascii	"RESERVED1\000"
 3795      52564544 
 3795      3100
ARM GAS  /tmp/ccWlo0cl.s 			page 70


 3796              	.LASF4:
 3797 02b7 756E7369 		.ascii	"unsigned char\000"
 3797      676E6564 
 3797      20636861 
 3797      7200
 3798              	.LASF146:
 3799 02c5 444D4132 		.ascii	"DMA2_Stream4_IRQn\000"
 3799      5F537472 
 3799      65616D34 
 3799      5F495251 
 3799      6E00
 3800              	.LASF186:
 3801 02d7 52455345 		.ascii	"RESERVED4\000"
 3801      52564544 
 3801      3400
 3802              	.LASF74:
 3803 02e1 715F6C69 		.ascii	"q_link\000"
 3803      6E6B00
 3804              	.LASF191:
 3805 02e8 52455345 		.ascii	"RESERVED6\000"
 3805      52564544 
 3805      3600
 3806              	.LASF236:
 3807 02f2 2F686F6D 		.ascii	"/home/texzk/ChibiStudio/chibios/demos/ARMCM3-STM32F"
 3807      652F7465 
 3807      787A6B2F 
 3807      43686962 
 3807      69537475 
 3808 0325 3230372D 		.ascii	"207-STM3220G-LWIP\000"
 3808      53544D33 
 3808      32323047 
 3808      2D4C5749 
 3808      5000
 3809              	.LASF118:
 3810 0337 49324331 		.ascii	"I2C1_ER_IRQn\000"
 3810      5F45525F 
 3810      4952516E 
 3810      00
 3811              	.LASF152:
 3812 0344 43414E32 		.ascii	"CAN2_SCE_IRQn\000"
 3812      5F534345 
 3812      5F495251 
 3812      6E00
 3813              	.LASF198:
 3814 0352 53445F55 		.ascii	"SD_UNINIT\000"
 3814      4E494E49 
 3814      5400
 3815              	.LASF179:
 3816 035c 52455345 		.ascii	"RESERVED2\000"
 3816      52564544 
 3816      3200
 3817              	.LASF182:
 3818 0366 52455345 		.ascii	"RESERVED3\000"
 3818      52564544 
 3818      3300
 3819              	.LASF136:
 3820 0370 54494D35 		.ascii	"TIM5_IRQn\000"
ARM GAS  /tmp/ccWlo0cl.s 			page 71


 3820      5F495251 
 3820      6E00
 3821              	.LASF189:
 3822 037a 52455345 		.ascii	"RESERVED5\000"
 3822      52564544 
 3822      3500
 3823              	.LASF81:
 3824 0384 55736167 		.ascii	"UsageFault_IRQn\000"
 3824      65466175 
 3824      6C745F49 
 3824      52516E00 
 3825              	.LASF65:
 3826 0394 63686172 		.ascii	"char\000"
 3826      00
 3827              	.LASF27:
 3828 0399 705F7072 		.ascii	"p_prio\000"
 3828      696F00
 3829              	.LASF177:
 3830 03a0 41484232 		.ascii	"AHB2ENR\000"
 3830      454E5200 
 3831              	.LASF66:
 3832 03a8 47656E65 		.ascii	"GenericQueue\000"
 3832      72696351 
 3832      75657565 
 3832      00
 3833              	.LASF63:
 3834 03b5 77746F62 		.ascii	"wtobjp\000"
 3834      6A7000
 3835              	.LASF106:
 3836 03bc 43414E31 		.ascii	"CAN1_RX0_IRQn\000"
 3836      5F525830 
 3836      5F495251 
 3836      6E00
 3837              	.LASF204:
 3838 03ca 666C6167 		.ascii	"flags\000"
 3838      7300
 3839              	.LASF218:
 3840 03d0 67657474 		.ascii	"gett\000"
 3840      00
 3841              	.LASF48:
 3842 03d5 73746B61 		.ascii	"stkalign_t\000"
 3842      6C69676E 
 3842      5F7400
 3843              	.LASF196:
 3844 03e0 55534152 		.ascii	"USART_TypeDef\000"
 3844      545F5479 
 3844      70654465 
 3844      6600
 3845              	.LASF77:
 3846 03ee 4F757470 		.ascii	"OutputQueue\000"
 3846      75745175 
 3846      65756500 
 3847              	.LASF116:
 3848 03fa 54494D34 		.ascii	"TIM4_IRQn\000"
 3848      5F495251 
 3848      6E00
 3849              	.LASF124:
ARM GAS  /tmp/ccWlo0cl.s 			page 72


 3850 0404 55534152 		.ascii	"USART2_IRQn\000"
 3850      54325F49 
 3850      52516E00 
 3851              	.LASF190:
 3852 0410 42444352 		.ascii	"BDCR\000"
 3852      00
 3853              	.LASF117:
 3854 0415 49324331 		.ascii	"I2C1_EV_IRQn\000"
 3854      5F45565F 
 3854      4952516E 
 3854      00
 3855              	.LASF49:
 3856 0422 696E7463 		.ascii	"intctx\000"
 3856      747800
 3857              	.LASF41:
 3858 0429 705F6570 		.ascii	"p_epending\000"
 3858      656E6469 
 3858      6E6700
 3859              	.LASF168:
 3860 0434 43464752 		.ascii	"CFGR\000"
 3860      00
 3861              	.LASF113:
 3862 0439 54494D31 		.ascii	"TIM1_CC_IRQn\000"
 3862      5F43435F 
 3862      4952516E 
 3862      00
 3863              	.LASF166:
 3864 0446 48415348 		.ascii	"HASH_RNG_IRQn\000"
 3864      5F524E47 
 3864      5F495251 
 3864      6E00
 3865              	.LASF93:
 3866 0454 45585449 		.ascii	"EXTI1_IRQn\000"
 3866      315F4952 
 3866      516E00
 3867              	.LASF105:
 3868 045f 43414E31 		.ascii	"CAN1_TX_IRQn\000"
 3868      5F54585F 
 3868      4952516E 
 3868      00
 3869              	.LASF102:
 3870 046c 444D4131 		.ascii	"DMA1_Stream5_IRQn\000"
 3870      5F537472 
 3870      65616D35 
 3870      5F495251 
 3870      6E00
 3871              	.LASF131:
 3872 047e 54494D38 		.ascii	"TIM8_TRG_COM_TIM14_IRQn\000"
 3872      5F545247 
 3872      5F434F4D 
 3872      5F54494D 
 3872      31345F49 
 3873              	.LASF60:
 3874 0496 65735F6E 		.ascii	"es_next\000"
 3874      65787400 
 3875              	.LASF68:
 3876 049e 715F636F 		.ascii	"q_counter\000"
ARM GAS  /tmp/ccWlo0cl.s 			page 73


 3876      756E7465 
 3876      7200
 3877              	.LASF153:
 3878 04a8 4F54475F 		.ascii	"OTG_FS_IRQn\000"
 3878      46535F49 
 3878      52516E00 
 3879              	.LASF78:
 3880 04b4 4E6F6E4D 		.ascii	"NonMaskableInt_IRQn\000"
 3880      61736B61 
 3880      626C6549 
 3880      6E745F49 
 3880      52516E00 
 3881              	.LASF134:
 3882 04c8 46534D43 		.ascii	"FSMC_IRQn\000"
 3882      5F495251 
 3882      6E00
 3883              	.LASF59:
 3884 04d2 4576656E 		.ascii	"EventSource\000"
 3884      74536F75 
 3884      72636500 
 3885              	.LASF86:
 3886 04de 57574447 		.ascii	"WWDG_IRQn\000"
 3886      5F495251 
 3886      6E00
 3887              	.LASF11:
 3888 04e8 6C6F6E67 		.ascii	"long unsigned int\000"
 3888      20756E73 
 3888      69676E65 
 3888      6420696E 
 3888      7400
 3889              	.LASF79:
 3890 04fa 4D656D6F 		.ascii	"MemoryManagement_IRQn\000"
 3890      72794D61 
 3890      6E616765 
 3890      6D656E74 
 3890      5F495251 
 3891              	.LASF88:
 3892 0510 54414D50 		.ascii	"TAMP_STAMP_IRQn\000"
 3892      5F535441 
 3892      4D505F49 
 3892      52516E00 
 3893              	.LASF108:
 3894 0520 43414E31 		.ascii	"CAN1_SCE_IRQn\000"
 3894      5F534345 
 3894      5F495251 
 3894      6E00
 3895              	.LASF56:
 3896 052e 656C5F6E 		.ascii	"el_next\000"
 3896      65787400 
 3897              	.LASF71:
 3898 0536 715F7772 		.ascii	"q_wrptr\000"
 3898      70747200 
 3899              	.LASF214:
 3900 053e 53657269 		.ascii	"SerialDriverVMT\000"
 3900      616C4472 
 3900      69766572 
 3900      564D5400 
ARM GAS  /tmp/ccWlo0cl.s 			page 74


 3901              	.LASF224:
 3902 054e 75736172 		.ascii	"usart_deinit\000"
 3902      745F6465 
 3902      696E6974 
 3902      00
 3903              	.LASF120:
 3904 055b 49324332 		.ascii	"I2C2_ER_IRQn\000"
 3904      5F45525F 
 3904      4952516E 
 3904      00
 3905              	.LASF80:
 3906 0568 42757346 		.ascii	"BusFault_IRQn\000"
 3906      61756C74 
 3906      5F495251 
 3906      6E00
 3907              	.LASF229:
 3908 0576 73645F6C 		.ascii	"sd_lld_init\000"
 3908      6C645F69 
 3908      6E697400 
 3909              	.LASF167:
 3910 0582 504C4C43 		.ascii	"PLLCFGR\000"
 3910      46475200 
 3911              	.LASF139:
 3912 058a 55415254 		.ascii	"UART5_IRQn\000"
 3912      355F4952 
 3912      516E00
 3913              	.LASF110:
 3914 0595 54494D31 		.ascii	"TIM1_BRK_TIM9_IRQn\000"
 3914      5F42524B 
 3914      5F54494D 
 3914      395F4952 
 3914      516E00
 3915              	.LASF210:
 3916 05a8 73635F63 		.ascii	"sc_cr1\000"
 3916      723100
 3917              	.LASF211:
 3918 05af 73635F63 		.ascii	"sc_cr2\000"
 3918      723200
 3919              	.LASF212:
 3920 05b6 73635F63 		.ascii	"sc_cr3\000"
 3920      723300
 3921              	.LASF51:
 3922 05bd 4D757465 		.ascii	"Mutex\000"
 3922      7800
 3923              	.LASF141:
 3924 05c3 54494D37 		.ascii	"TIM7_IRQn\000"
 3924      5F495251 
 3924      6E00
 3925              	.LASF12:
 3926 05cd 6C6F6E67 		.ascii	"long long int\000"
 3926      206C6F6E 
 3926      6720696E 
 3926      7400
 3927              	.LASF148:
 3928 05db 4554485F 		.ascii	"ETH_WKUP_IRQn\000"
 3928      574B5550 
 3928      5F495251 
ARM GAS  /tmp/ccWlo0cl.s 			page 75


 3928      6E00
 3929              	.LASF122:
 3930 05e9 53504932 		.ascii	"SPI2_IRQn\000"
 3930      5F495251 
 3930      6E00
 3931              	.LASF163:
 3932 05f3 4F54475F 		.ascii	"OTG_HS_IRQn\000"
 3932      48535F49 
 3932      52516E00 
 3933              	.LASF52:
 3934 05ff 6D5F7175 		.ascii	"m_queue\000"
 3934      65756500 
 3935              	.LASF192:
 3936 0607 53534347 		.ascii	"SSCGR\000"
 3936      5200
 3937              	.LASF121:
 3938 060d 53504931 		.ascii	"SPI1_IRQn\000"
 3938      5F495251 
 3938      6E00
 3939              	.LASF82:
 3940 0617 53564361 		.ascii	"SVCall_IRQn\000"
 3940      6C6C5F49 
 3940      52516E00 
 3941              	.LASF174:
 3942 0623 41504232 		.ascii	"APB2RSTR\000"
 3942      52535452 
 3942      00
 3943              	.LASF232:
 3944 062c 49544D5F 		.ascii	"ITM_RxBuffer\000"
 3944      52784275 
 3944      66666572 
 3944      00
 3945              	.LASF138:
 3946 0639 55415254 		.ascii	"UART4_IRQn\000"
 3946      345F4952 
 3946      516E00
 3947              	.LASF188:
 3948 0644 41504232 		.ascii	"APB2LPENR\000"
 3948      4C50454E 
 3948      5200
 3949              	.LASF75:
 3950 064e 716E6F74 		.ascii	"qnotify_t\000"
 3950      6966795F 
 3950      7400
 3951              	.LASF38:
 3952 0658 705F7761 		.ascii	"p_waiting\000"
 3952      6974696E 
 3952      6700
 3953              	.LASF142:
 3954 0662 444D4132 		.ascii	"DMA2_Stream0_IRQn\000"
 3954      5F537472 
 3954      65616D30 
 3954      5F495251 
 3954      6E00
 3955              	.LASF203:
 3956 0674 6576656E 		.ascii	"event\000"
 3956      7400
ARM GAS  /tmp/ccWlo0cl.s 			page 76


 3957              	.LASF128:
 3958 067a 4F54475F 		.ascii	"OTG_FS_WKUP_IRQn\000"
 3958      46535F57 
 3958      4B55505F 
 3958      4952516E 
 3958      00
 3959              	.LASF34:
 3960 068b 705F666C 		.ascii	"p_flags\000"
 3960      61677300 
 3961              	.LASF216:
 3962 0693 72656164 		.ascii	"read\000"
 3962      00
 3963              	.LASF0:
 3964 0698 756E7369 		.ascii	"unsigned int\000"
 3964      676E6564 
 3964      20696E74 
 3964      00
 3965              	.LASF140:
 3966 06a5 54494D36 		.ascii	"TIM6_DAC_IRQn\000"
 3966      5F444143 
 3966      5F495251 
 3966      6E00
 3967              	.LASF44:
 3968 06b3 705F6D70 		.ascii	"p_mpool\000"
 3968      6F6F6C00 
 3969              	.LASF119:
 3970 06bb 49324332 		.ascii	"I2C2_EV_IRQn\000"
 3970      5F45565F 
 3970      4952516E 
 3970      00
 3971              	.LASF35:
 3972 06c8 705F7265 		.ascii	"p_refs\000"
 3972      667300
 3973              	.LASF197:
 3974 06cf 63686E66 		.ascii	"chnflags_t\000"
 3974      6C616773 
 3974      5F7400
 3975              	.LASF209:
 3976 06da 73635F73 		.ascii	"sc_speed\000"
 3976      70656564 
 3976      00
 3977              	.LASF46:
 3978 06e3 54687265 		.ascii	"ThreadsList\000"
 3978      6164734C 
 3978      69737400 
 3979              	.LASF187:
 3980 06ef 41504231 		.ascii	"APB1LPENR\000"
 3980      4C50454E 
 3980      5200
 3981              	.LASF98:
 3982 06f9 444D4131 		.ascii	"DMA1_Stream1_IRQn\000"
 3982      5F537472 
 3982      65616D31 
 3982      5F495251 
 3982      6E00
 3983              	.LASF145:
 3984 070b 444D4132 		.ascii	"DMA2_Stream3_IRQn\000"
ARM GAS  /tmp/ccWlo0cl.s 			page 77


 3984      5F537472 
 3984      65616D33 
 3984      5F495251 
 3984      6E00
 3985              	.LASF149:
 3986 071d 43414E32 		.ascii	"CAN2_TX_IRQn\000"
 3986      5F54585F 
 3986      4952516E 
 3986      00
 3987              	.LASF37:
 3988 072a 705F7469 		.ascii	"p_time\000"
 3988      6D6500
 3989              	.LASF237:
 3990 0731 4952516E 		.ascii	"IRQn\000"
 3990      00
 3991              	.LASF103:
 3992 0736 444D4131 		.ascii	"DMA1_Stream6_IRQn\000"
 3992      5F537472 
 3992      65616D36 
 3992      5F495251 
 3992      6E00
 3993              	.LASF171:
 3994 0748 41484233 		.ascii	"AHB3RSTR\000"
 3994      52535452 
 3994      00
 3995              	.LASF43:
 3996 0751 705F7265 		.ascii	"p_realprio\000"
 3996      616C7072 
 3996      696F00
 3997              	.LASF156:
 3998 075c 444D4132 		.ascii	"DMA2_Stream7_IRQn\000"
 3998      5F537472 
 3998      65616D37 
 3998      5F495251 
 3998      6E00
 3999              	.LASF97:
 4000 076e 444D4131 		.ascii	"DMA1_Stream0_IRQn\000"
 4000      5F537472 
 4000      65616D30 
 4000      5F495251 
 4000      6E00
 4001              	.LASF173:
 4002 0780 41504231 		.ascii	"APB1RSTR\000"
 4002      52535452 
 4002      00
 4003              	.LASF223:
 4004 0789 75736172 		.ascii	"usart_init\000"
 4004      745F696E 
 4004      697400
 4005              	.LASF127:
 4006 0794 5254435F 		.ascii	"RTC_Alarm_IRQn\000"
 4006      416C6172 
 4006      6D5F4952 
 4006      516E00
 4007              	.LASF180:
 4008 07a3 41504231 		.ascii	"APB1ENR\000"
 4008      454E5200 
ARM GAS  /tmp/ccWlo0cl.s 			page 78


 4009              	.LASF159:
 4010 07ab 49324333 		.ascii	"I2C3_ER_IRQn\000"
 4010      5F45525F 
 4010      4952516E 
 4010      00
 4011              	.LASF165:
 4012 07b8 43525950 		.ascii	"CRYP_IRQn\000"
 4012      5F495251 
 4012      6E00
 4013              	.LASF126:
 4014 07c2 45585449 		.ascii	"EXTI15_10_IRQn\000"
 4014      31355F31 
 4014      305F4952 
 4014      516E00
 4015              	.LASF14:
 4016 07d1 6C6F6E67 		.ascii	"long long unsigned int\000"
 4016      206C6F6E 
 4016      6720756E 
 4016      7369676E 
 4016      65642069 
 4017              	.LASF30:
 4018 07e8 705F6F6C 		.ascii	"p_older\000"
 4018      64657200 
 4019              	.LASF6:
 4020 07f0 75696E74 		.ascii	"uint16_t\000"
 4020      31365F74 
 4020      00
 4021              	.LASF21:
 4022 07f9 6D73675F 		.ascii	"msg_t\000"
 4022      7400
 4023              	.LASF115:
 4024 07ff 54494D33 		.ascii	"TIM3_IRQn\000"
 4024      5F495251 
 4024      6E00
 4025              	.LASF235:
 4026 0809 2E2E2F2E 		.ascii	"../../os/hal/platforms/STM32/serial_lld.c\000"
 4026      2E2F6F73 
 4026      2F68616C 
 4026      2F706C61 
 4026      74666F72 
 4027              	.LASF123:
 4028 0833 55534152 		.ascii	"USART1_IRQn\000"
 4028      54315F49 
 4028      52516E00 
 4029              	.LASF19:
 4030 083f 74736C69 		.ascii	"tslices_t\000"
 4030      6365735F 
 4030      7400
 4031              	.LASF94:
 4032 0849 45585449 		.ascii	"EXTI2_IRQn\000"
 4032      325F4952 
 4032      516E00
 4033              	.LASF151:
 4034 0854 43414E32 		.ascii	"CAN2_RX1_IRQn\000"
 4034      5F525831 
 4034      5F495251 
 4034      6E00
ARM GAS  /tmp/ccWlo0cl.s 			page 79


 4035              	.LASF104:
 4036 0862 4144435F 		.ascii	"ADC_IRQn\000"
 4036      4952516E 
 4036      00
 4037              	.LASF185:
 4038 086b 41484233 		.ascii	"AHB3LPENR\000"
 4038      4C50454E 
 4038      5200
 4039              	.LASF87:
 4040 0875 5056445F 		.ascii	"PVD_IRQn\000"
 4040      4952516E 
 4040      00
 4041              	.LASF202:
 4042 087e 53657269 		.ascii	"SerialDriver\000"
 4042      616C4472 
 4042      69766572 
 4042      00
 4043              	.LASF67:
 4044 088b 715F7761 		.ascii	"q_waiting\000"
 4044      6974696E 
 4044      6700
 4045              	.LASF92:
 4046 0895 45585449 		.ascii	"EXTI0_IRQn\000"
 4046      305F4952 
 4046      516E00
 4047              	.LASF16:
 4048 08a0 746D6F64 		.ascii	"tmode_t\000"
 4048      655F7400 
 4049              	.LASF101:
 4050 08a8 444D4131 		.ascii	"DMA1_Stream4_IRQn\000"
 4050      5F537472 
 4050      65616D34 
 4050      5F495251 
 4050      6E00
 4051              	.LASF201:
 4052 08ba 73647374 		.ascii	"sdstate_t\000"
 4052      6174655F 
 4052      7400
 4053              	.LASF155:
 4054 08c4 444D4132 		.ascii	"DMA2_Stream6_IRQn\000"
 4054      5F537472 
 4054      65616D36 
 4054      5F495251 
 4054      6E00
 4055              	.LASF176:
 4056 08d6 41484231 		.ascii	"AHB1ENR\000"
 4056      454E5200 
 4057              	.LASF83:
 4058 08de 44656275 		.ascii	"DebugMonitor_IRQn\000"
 4058      674D6F6E 
 4058      69746F72 
 4058      5F495251 
 4058      6E00
 4059              	.LASF200:
 4060 08f0 53445F52 		.ascii	"SD_READY\000"
 4060      45414459 
 4060      00
ARM GAS  /tmp/ccWlo0cl.s 			page 80


 4061              	.LASF158:
 4062 08f9 49324333 		.ascii	"I2C3_EV_IRQn\000"
 4062      5F45565F 
 4062      4952516E 
 4062      00
 4063              	.LASF170:
 4064 0906 41484232 		.ascii	"AHB2RSTR\000"
 4064      52535452 
 4064      00
 4065              	.LASF147:
 4066 090f 4554485F 		.ascii	"ETH_IRQn\000"
 4066      4952516E 
 4066      00
 4067              	.LASF227:
 4068 0918 6E6F7469 		.ascii	"notify1\000"
 4068      66793100 
 4069              	.LASF194:
 4070 0920 5243435F 		.ascii	"RCC_TypeDef\000"
 4070      54797065 
 4070      44656600 
 4071              	.LASF5:
 4072 092c 73686F72 		.ascii	"short int\000"
 4072      7420696E 
 4072      7400
 4073              	.LASF13:
 4074 0936 75696E74 		.ascii	"uint64_t\000"
 4074      36345F74 
 4074      00
 4075              	.LASF91:
 4076 093f 5243435F 		.ascii	"RCC_IRQn\000"
 4076      4952516E 
 4076      00
 4077              	.LASF206:
 4078 0948 69717565 		.ascii	"iqueue\000"
 4078      756500
 4079              	.LASF100:
 4080 094f 444D4131 		.ascii	"DMA1_Stream3_IRQn\000"
 4080      5F537472 
 4080      65616D33 
 4080      5F495251 
 4080      6E00
 4081              	.LASF24:
 4082 0961 54687265 		.ascii	"Thread\000"
 4082      616400
 4083              	.LASF111:
 4084 0968 54494D31 		.ascii	"TIM1_UP_TIM10_IRQn\000"
 4084      5F55505F 
 4084      54494D31 
 4084      305F4952 
 4084      516E00
 4085              	.LASF221:
 4086 097b 67657466 		.ascii	"getflags\000"
 4086      6C616773 
 4086      00
 4087              	.LASF18:
 4088 0984 74726566 		.ascii	"trefs_t\000"
 4088      735F7400 
ARM GAS  /tmp/ccWlo0cl.s 			page 81


 4089              	.LASF160:
 4090 098c 4F54475F 		.ascii	"OTG_HS_EP1_OUT_IRQn\000"
 4090      48535F45 
 4090      50315F4F 
 4090      55545F49 
 4090      52516E00 
 4091              	.LASF89:
 4092 09a0 5254435F 		.ascii	"RTC_WKUP_IRQn\000"
 4092      574B5550 
 4092      5F495251 
 4092      6E00
 4093              	.LASF55:
 4094 09ae 4576656E 		.ascii	"EventListener\000"
 4094      744C6973 
 4094      74656E65 
 4094      7200
 4095              	.LASF10:
 4096 09bc 75696E74 		.ascii	"uint32_t\000"
 4096      33325F74 
 4096      00
 4097              	.LASF228:
 4098 09c5 56656374 		.ascii	"VectorD4\000"
 4098      6F724434 
 4098      00
 4099              	.LASF107:
 4100 09ce 43414E31 		.ascii	"CAN1_RX1_IRQn\000"
 4100      5F525831 
 4100      5F495251 
 4100      6E00
 4101              	.LASF45:
 4102 09dc 54687265 		.ascii	"ThreadsQueue\000"
 4102      61647351 
 4102      75657565 
 4102      00
 4103              	.LASF15:
 4104 09e9 75696E74 		.ascii	"uint_fast16_t\000"
 4104      5F666173 
 4104      7431365F 
 4104      7400
 4105              	.LASF109:
 4106 09f7 45585449 		.ascii	"EXTI9_5_IRQn\000"
 4106      395F355F 
 4106      4952516E 
 4106      00
 4107              	.LASF61:
 4108 0a04 7264796D 		.ascii	"rdymsg\000"
 4108      736700
 4109              	.LASF96:
 4110 0a0b 45585449 		.ascii	"EXTI4_IRQn\000"
 4110      345F4952 
 4110      516E00
 4111              	.LASF7:
 4112 0a16 73686F72 		.ascii	"short unsigned int\000"
 4112      7420756E 
 4112      7369676E 
 4112      65642069 
 4112      6E7400
ARM GAS  /tmp/ccWlo0cl.s 			page 82


 4113              	.LASF231:
 4114 0a29 73645F6C 		.ascii	"sd_lld_stop\000"
 4114      6C645F73 
 4114      746F7000 
 4115              	.LASF132:
 4116 0a35 54494D38 		.ascii	"TIM8_CC_IRQn\000"
 4116      5F43435F 
 4116      4952516E 
 4116      00
 4117              	.LASF135:
 4118 0a42 5344494F 		.ascii	"SDIO_IRQn\000"
 4118      5F495251 
 4118      6E00
 4119              	.LASF76:
 4120 0a4c 496E7075 		.ascii	"InputQueue\000"
 4120      74517565 
 4120      756500
 4121              	.LASF95:
 4122 0a57 45585449 		.ascii	"EXTI3_IRQn\000"
 4122      335F4952 
 4122      516E00
 4123              	.LASF84:
 4124 0a62 50656E64 		.ascii	"PendSV_IRQn\000"
 4124      53565F49 
 4124      52516E00 
 4125              	.LASF161:
 4126 0a6e 4F54475F 		.ascii	"OTG_HS_EP1_IN_IRQn\000"
 4126      48535F45 
 4126      50315F49 
 4126      4E5F4952 
 4126      516E00
 4127              	.LASF32:
 4128 0a81 705F7374 		.ascii	"p_stklimit\000"
 4128      6B6C696D 
 4128      697400
 4129              	.LASF133:
 4130 0a8c 444D4131 		.ascii	"DMA1_Stream7_IRQn\000"
 4130      5F537472 
 4130      65616D37 
 4130      5F495251 
 4130      6E00
 4131              	.LASF169:
 4132 0a9e 41484231 		.ascii	"AHB1RSTR\000"
 4132      52535452 
 4132      00
 4133              	.LASF199:
 4134 0aa7 53445F53 		.ascii	"SD_STOP\000"
 4134      544F5000 
 4135              	.LASF58:
 4136 0aaf 656C5F6D 		.ascii	"el_mask\000"
 4136      61736B00 
 4137              	.LASF31:
 4138 0ab7 705F6E61 		.ascii	"p_name\000"
 4138      6D6500
 4139              	.LASF54:
 4140 0abe 6D5F6E65 		.ascii	"m_next\000"
 4140      787400
ARM GAS  /tmp/ccWlo0cl.s 			page 83


 4141              	.LASF178:
 4142 0ac5 41484233 		.ascii	"AHB3ENR\000"
 4142      454E5200 
 4143              	.LASF144:
 4144 0acd 444D4132 		.ascii	"DMA2_Stream2_IRQn\000"
 4144      5F537472 
 4144      65616D32 
 4144      5F495251 
 4144      6E00
 4145              	.LASF40:
 4146 0adf 705F6D73 		.ascii	"p_msg\000"
 4146      6700
 4147              	.LASF57:
 4148 0ae5 656C5F6C 		.ascii	"el_listener\000"
 4148      69737465 
 4148      6E657200 
 4149              	.LASF33:
 4150 0af1 705F7374 		.ascii	"p_state\000"
 4150      61746500 
 4151              		.ident	"GCC: (GNU Tools for ARM Embedded Processors) 4.6.2 20120613 (release) [ARM/embedded-4_6-br
ARM GAS  /tmp/ccWlo0cl.s 			page 84


DEFINED SYMBOLS
                            *ABS*:00000000 serial_lld.c
     /tmp/ccWlo0cl.s:23     .bss.SD1:00000000 SD1
     /tmp/ccWlo0cl.s:20     .bss.SD1:00000000 $d
     /tmp/ccWlo0cl.s:26     .rodata.default_config:00000000 $d
     /tmp/ccWlo0cl.s:29     .rodata.default_config:00000000 default_config
     /tmp/ccWlo0cl.s:36     .text.usart_init:00000000 $t
     /tmp/ccWlo0cl.s:41     .text.usart_init:00000000 usart_init
     /tmp/ccWlo0cl.s:133    .text.usart_deinit:00000000 $t
     /tmp/ccWlo0cl.s:138    .text.usart_deinit:00000000 usart_deinit
     /tmp/ccWlo0cl.s:168    .text.set_error:00000000 $t
     /tmp/ccWlo0cl.s:173    .text.set_error:00000000 set_error
     /tmp/ccWlo0cl.s:270    .text.serve_interrupt:00000000 $t
     /tmp/ccWlo0cl.s:275    .text.serve_interrupt:00000000 serve_interrupt
     /tmp/ccWlo0cl.s:515    .text.notify1:00000000 $t
     /tmp/ccWlo0cl.s:520    .text.notify1:00000000 notify1
     /tmp/ccWlo0cl.s:548    .text.VectorD4:00000000 $t
     /tmp/ccWlo0cl.s:554    .text.VectorD4:00000000 VectorD4
     /tmp/ccWlo0cl.s:580    .text.sd_lld_init:00000000 $t
     /tmp/ccWlo0cl.s:586    .text.sd_lld_init:00000000 sd_lld_init
     /tmp/ccWlo0cl.s:616    .text.sd_lld_start:00000000 $t
     /tmp/ccWlo0cl.s:622    .text.sd_lld_start:00000000 sd_lld_start
     /tmp/ccWlo0cl.s:681    .text.sd_lld_stop:00000000 $t
     /tmp/ccWlo0cl.s:687    .text.sd_lld_stop:00000000 sd_lld_stop
                     .debug_frame:00000010 $d

UNDEFINED SYMBOLS
dbg_check_lock_from_isr
chEvtBroadcastFlagsI
dbg_check_unlock_from_isr
sdIncomingDataI
chOQGetI
dbg_check_enter_isr
dbg_check_leave_isr
_port_irq_epilogue
sdObjectInit
nvicEnableVector
nvicDisableVector
