ARM GAS  /tmp/ccWlo0cl.s 			page 1


   1              		.syntax unified
   2              		.cpu cortex-m3
   3              		.fpu softvfp
   4              		.eabi_attribute 20, 1
   5              		.eabi_attribute 21, 1
   6              		.eabi_attribute 23, 3
   7              		.eabi_attribute 24, 1
   8              		.eabi_attribute 25, 1
   9              		.eabi_attribute 26, 1
  10              		.eabi_attribute 30, 6
  11              		.eabi_attribute 34, 1
  12              		.eabi_attribute 18, 4
  13              		.thumb
  14              		.file	"serial_lld.c"
  15              		.text
  16              	.Ltext0:
  17              		.cfi_sections	.debug_frame
  18              		.global	SD1
  19              		.section	.bss.SD1,"aw",%nobits
  20              		.align	2
  21              		.type	SD1, %object
  22              		.size	SD1, 124
  23              	SD1:
  24 0000 00000000 		.space	124
  24      00000000 
  24      00000000 
  24      00000000 
  24      00000000 
  25              		.section	.rodata.default_config,"a",%progbits
  26              		.align	2
  27              		.type	default_config, %object
  28              		.size	default_config, 12
  29              	default_config:
  30 0000 00960000 		.word	38400
  31 0004 0000     		.short	0
  32 0006 0040     		.short	16384
  33 0008 0000     		.short	0
  34 000a 0000     		.space	2
  35              		.section	.text.usart_init,"ax",%progbits
  36              		.align	2
  37              		.p2align 4,,15
  38              		.thumb
  39              		.thumb_func
  40              		.type	usart_init, %function
  41              	usart_init:
  42              	.LFB63:
  43              		.file 1 "../../os/hal/platforms/STM32/serial_lld.c"
  44              		.loc 1 211 0
  45              		.cfi_startproc
  46              		@ args = 0, pretend = 0, frame = 16
  47              		@ frame_needed = 0, uses_anonymous_args = 0
  48              		@ link register save eliminated.
  49 0000 84B0     		sub	sp, sp, #16
  50              	.LCFI0:
  51              		.cfi_def_cfa_offset 16
  52 0002 0190     		str	r0, [sp, #4]
  53 0004 0091     		str	r1, [sp, #0]
ARM GAS  /tmp/ccWlo0cl.s 			page 2


  54              		.loc 1 212 0
  55 0006 019B     		ldr	r3, [sp, #4]
  56 0008 9B6F     		ldr	r3, [r3, #120]
  57 000a 0393     		str	r3, [sp, #12]
  58              		.loc 1 216 0
  59 000c 019B     		ldr	r3, [sp, #4]
  60 000e 9A6F     		ldr	r2, [r3, #120]
  61 0010 4FF48053 		mov	r3, #4096
  62 0014 C4F20103 		movt	r3, 16385
  63 0018 9A42     		cmp	r2, r3
  64 001a 07D0     		beq	.L2
  65              		.loc 1 216 0 is_stmt 0 discriminator 1
  66 001c 019B     		ldr	r3, [sp, #4]
  67 001e 9A6F     		ldr	r2, [r3, #120]
  68 0020 4FF4A053 		mov	r3, #5120
  69 0024 C4F20103 		movt	r3, 16385
  70 0028 9A42     		cmp	r2, r3
  71 002a 0BD1     		bne	.L3
  72              	.L2:
  73              		.loc 1 220 0 is_stmt 1
  74 002c 009B     		ldr	r3, [sp, #0]
  75 002e 1A68     		ldr	r2, [r3, #0]
  76 0030 4FF40743 		mov	r3, #34560
  77 0034 C0F29333 		movt	r3, 915
  78 0038 B3FBF2F3 		udiv	r3, r3, r2
  79 003c 9AB2     		uxth	r2, r3
  80 003e 039B     		ldr	r3, [sp, #12]
  81 0040 1A81     		strh	r2, [r3, #8]	@ movhi
  82 0042 0AE0     		b	.L4
  83              	.L3:
  84              		.loc 1 222 0
  85 0044 009B     		ldr	r3, [sp, #0]
  86 0046 1A68     		ldr	r2, [r3, #0]
  87 0048 4CF28033 		movw	r3, #50048
  88 004c C0F2C913 		movt	r3, 457
  89 0050 B3FBF2F3 		udiv	r3, r3, r2
  90 0054 9AB2     		uxth	r2, r3
  91 0056 039B     		ldr	r3, [sp, #12]
  92 0058 1A81     		strh	r2, [r3, #8]	@ movhi
  93              	.L4:
  94              		.loc 1 225 0
  95 005a 009B     		ldr	r3, [sp, #0]
  96 005c 9B88     		ldrh	r3, [r3, #4]
  97 005e 43F40453 		orr	r3, r3, #8448
  98 0062 43F02C03 		orr	r3, r3, #44
  99 0066 9AB2     		uxth	r2, r3
 100 0068 039B     		ldr	r3, [sp, #12]
 101 006a 9A81     		strh	r2, [r3, #12]	@ movhi
 102              		.loc 1 228 0
 103 006c 009B     		ldr	r3, [sp, #0]
 104 006e DB88     		ldrh	r3, [r3, #6]
 105 0070 43F04003 		orr	r3, r3, #64
 106 0074 9AB2     		uxth	r2, r3
 107 0076 039B     		ldr	r3, [sp, #12]
 108 0078 1A82     		strh	r2, [r3, #16]	@ movhi
 109              		.loc 1 229 0
 110 007a 009B     		ldr	r3, [sp, #0]
ARM GAS  /tmp/ccWlo0cl.s 			page 3


 111 007c 1B89     		ldrh	r3, [r3, #8]
 112 007e 43F00103 		orr	r3, r3, #1
 113 0082 9AB2     		uxth	r2, r3
 114 0084 039B     		ldr	r3, [sp, #12]
 115 0086 9A82     		strh	r2, [r3, #20]	@ movhi
 116              		.loc 1 230 0
 117 0088 039B     		ldr	r3, [sp, #12]
 118 008a 4FF00002 		mov	r2, #0
 119 008e 1A80     		strh	r2, [r3, #0]	@ movhi
 120              		.loc 1 231 0
 121 0090 039B     		ldr	r3, [sp, #12]
 122 0092 1B88     		ldrh	r3, [r3, #0]	@ movhi
 123              		.loc 1 232 0
 124 0094 039B     		ldr	r3, [sp, #12]
 125 0096 9B88     		ldrh	r3, [r3, #4]	@ movhi
 126              		.loc 1 233 0
 127 0098 04B0     		add	sp, sp, #16
 128 009a 7047     		bx	lr
 129              		.cfi_endproc
 130              	.LFE63:
 131              		.size	usart_init, .-usart_init
 132 009c AFF30080 		.section	.text.usart_deinit,"ax",%progbits
 133              		.align	2
 134              		.p2align 4,,15
 135              		.thumb
 136              		.thumb_func
 137              		.type	usart_deinit, %function
 138              	usart_deinit:
 139              	.LFB64:
 140              		.loc 1 241 0
 141              		.cfi_startproc
 142              		@ args = 0, pretend = 0, frame = 8
 143              		@ frame_needed = 0, uses_anonymous_args = 0
 144              		@ link register save eliminated.
 145 0000 82B0     		sub	sp, sp, #8
 146              	.LCFI1:
 147              		.cfi_def_cfa_offset 8
 148 0002 0190     		str	r0, [sp, #4]
 149              		.loc 1 243 0
 150 0004 019B     		ldr	r3, [sp, #4]
 151 0006 4FF00002 		mov	r2, #0
 152 000a 9A81     		strh	r2, [r3, #12]	@ movhi
 153              		.loc 1 244 0
 154 000c 019B     		ldr	r3, [sp, #4]
 155 000e 4FF00002 		mov	r2, #0
 156 0012 1A82     		strh	r2, [r3, #16]	@ movhi
 157              		.loc 1 245 0
 158 0014 019B     		ldr	r3, [sp, #4]
 159 0016 4FF00002 		mov	r2, #0
 160 001a 9A82     		strh	r2, [r3, #20]	@ movhi
 161              		.loc 1 246 0
 162 001c 02B0     		add	sp, sp, #8
 163 001e 7047     		bx	lr
 164              		.cfi_endproc
 165              	.LFE64:
 166              		.size	usart_deinit, .-usart_deinit
 167              		.section	.text.set_error,"ax",%progbits
ARM GAS  /tmp/ccWlo0cl.s 			page 4


 168              		.align	2
 169              		.p2align 4,,15
 170              		.thumb
 171              		.thumb_func
 172              		.type	set_error, %function
 173              	set_error:
 174              	.LFB65:
 175              		.loc 1 254 0
 176              		.cfi_startproc
 177              		@ args = 0, pretend = 0, frame = 16
 178              		@ frame_needed = 0, uses_anonymous_args = 0
 179 0000 00B5     		push	{lr}
 180              	.LCFI2:
 181              		.cfi_def_cfa_offset 4
 182              		.cfi_offset 14, -4
 183 0002 85B0     		sub	sp, sp, #20
 184              	.LCFI3:
 185              		.cfi_def_cfa_offset 24
 186 0004 0190     		str	r0, [sp, #4]
 187 0006 0B46     		mov	r3, r1
 188 0008 ADF80230 		strh	r3, [sp, #2]	@ movhi
 189              		.loc 1 255 0
 190 000c 4FF00003 		mov	r3, #0
 191 0010 0393     		str	r3, [sp, #12]
 192              		.loc 1 257 0
 193 0012 BDF80230 		ldrh	r3, [sp, #2]
 194 0016 03F00803 		and	r3, r3, #8
 195 001a 002B     		cmp	r3, #0
 196 001c 03D0     		beq	.L7
 197              		.loc 1 258 0
 198 001e 039B     		ldr	r3, [sp, #12]
 199 0020 43F08003 		orr	r3, r3, #128
 200 0024 0393     		str	r3, [sp, #12]
 201              	.L7:
 202              		.loc 1 259 0
 203 0026 BDF80230 		ldrh	r3, [sp, #2]
 204 002a 03F00103 		and	r3, r3, #1
 205 002e DBB2     		uxtb	r3, r3
 206 0030 002B     		cmp	r3, #0
 207 0032 03D0     		beq	.L8
 208              		.loc 1 260 0
 209 0034 039B     		ldr	r3, [sp, #12]
 210 0036 43F02003 		orr	r3, r3, #32
 211 003a 0393     		str	r3, [sp, #12]
 212              	.L8:
 213              		.loc 1 261 0
 214 003c BDF80230 		ldrh	r3, [sp, #2]
 215 0040 03F00203 		and	r3, r3, #2
 216 0044 002B     		cmp	r3, #0
 217 0046 03D0     		beq	.L9
 218              		.loc 1 262 0
 219 0048 039B     		ldr	r3, [sp, #12]
 220 004a 43F04003 		orr	r3, r3, #64
 221 004e 0393     		str	r3, [sp, #12]
 222              	.L9:
 223              		.loc 1 263 0
 224 0050 BDF80230 		ldrh	r3, [sp, #2]
ARM GAS  /tmp/ccWlo0cl.s 			page 5


 225 0054 03F00403 		and	r3, r3, #4
 226 0058 002B     		cmp	r3, #0
 227 005a 03D0     		beq	.L10
 228              		.loc 1 264 0
 229 005c 039B     		ldr	r3, [sp, #12]
 230 005e 43F48073 		orr	r3, r3, #256
 231 0062 0393     		str	r3, [sp, #12]
 232              	.L10:
 233              	.LBB2:
 234              		.loc 1 265 0
 235 0064 4FF02003 		mov	r3, #32
 236              	@ 265 "../../os/hal/platforms/STM32/serial_lld.c" 1
 237 0068 83F31188 		msr     BASEPRI, r3
 238              	@ 0 "" 2
 239              		.thumb
 240              	.LBE2:
 241 006c FFF7FEFF 		bl	dbg_check_lock_from_isr
 242              		.loc 1 266 0
 243 0070 019B     		ldr	r3, [sp, #4]
 244 0072 9A68     		ldr	r2, [r3, #8]
 245 0074 039B     		ldr	r3, [sp, #12]
 246 0076 1A43     		orrs	r2, r2, r3
 247 0078 019B     		ldr	r3, [sp, #4]
 248 007a 9A60     		str	r2, [r3, #8]
 249 007c 019B     		ldr	r3, [sp, #4]
 250 007e 03F10403 		add	r3, r3, #4
 251 0082 1846     		mov	r0, r3
 252 0084 4FF00001 		mov	r1, #0
 253 0088 FFF7FEFF 		bl	chEvtBroadcastFlagsI
 254              		.loc 1 267 0
 255 008c FFF7FEFF 		bl	dbg_check_unlock_from_isr
 256              	.LBB3:
 257 0090 4FF00003 		mov	r3, #0
 258              	@ 267 "../../os/hal/platforms/STM32/serial_lld.c" 1
 259 0094 83F31188 		msr     BASEPRI, r3
 260              	@ 0 "" 2
 261              		.thumb
 262              	.LBE3:
 263              		.loc 1 268 0
 264 0098 05B0     		add	sp, sp, #20
 265 009a 00BD     		pop	{pc}
 266              		.cfi_endproc
 267              	.LFE65:
 268              		.size	set_error, .-set_error
 269 009c AFF30080 		.section	.text.serve_interrupt,"ax",%progbits
 270              		.align	2
 271              		.p2align 4,,15
 272              		.thumb
 273              		.thumb_func
 274              		.type	serve_interrupt, %function
 275              	serve_interrupt:
 276              	.LFB66:
 277              		.loc 1 275 0
 278              		.cfi_startproc
 279              		@ args = 0, pretend = 0, frame = 24
 280              		@ frame_needed = 0, uses_anonymous_args = 0
 281 0000 00B5     		push	{lr}
ARM GAS  /tmp/ccWlo0cl.s 			page 6


 282              	.LCFI4:
 283              		.cfi_def_cfa_offset 4
 284              		.cfi_offset 14, -4
 285 0002 87B0     		sub	sp, sp, #28
 286              	.LCFI5:
 287              		.cfi_def_cfa_offset 32
 288 0004 0190     		str	r0, [sp, #4]
 289              		.loc 1 276 0
 290 0006 019B     		ldr	r3, [sp, #4]
 291 0008 9B6F     		ldr	r3, [r3, #120]
 292 000a 0593     		str	r3, [sp, #20]
 293              		.loc 1 277 0
 294 000c 059B     		ldr	r3, [sp, #20]
 295 000e 9B89     		ldrh	r3, [r3, #12]	@ movhi
 296 0010 ADF81230 		strh	r3, [sp, #18]	@ movhi
 297              		.loc 1 278 0
 298 0014 059B     		ldr	r3, [sp, #20]
 299 0016 1B88     		ldrh	r3, [r3, #0]	@ movhi
 300 0018 ADF81030 		strh	r3, [sp, #16]	@ movhi
 301              		.loc 1 279 0
 302 001c 059B     		ldr	r3, [sp, #20]
 303 001e 9B88     		ldrh	r3, [r3, #4]	@ movhi
 304 0020 ADF80E30 		strh	r3, [sp, #14]	@ movhi
 305              		.loc 1 282 0
 306 0024 BDF81030 		ldrh	r3, [sp, #16]
 307 0028 03F00F03 		and	r3, r3, #15
 308 002c 002B     		cmp	r3, #0
 309 002e 05D0     		beq	.L12
 310              		.loc 1 283 0
 311 0030 BDF81030 		ldrh	r3, [sp, #16]
 312 0034 0198     		ldr	r0, [sp, #4]
 313 0036 1946     		mov	r1, r3
 314 0038 FFF7FEFF 		bl	set_error
 315              	.L12:
 316              		.loc 1 285 0
 317 003c BDF81030 		ldrh	r3, [sp, #16]
 318 0040 03F48073 		and	r3, r3, #256
 319 0044 002B     		cmp	r3, #0
 320 0046 21D0     		beq	.L13
 321              	.LBB4:
 322              		.loc 1 286 0
 323 0048 4FF02003 		mov	r3, #32
 324              	@ 286 "../../os/hal/platforms/STM32/serial_lld.c" 1
 325 004c 83F31188 		msr     BASEPRI, r3
 326              	@ 0 "" 2
 327              		.thumb
 328              	.LBE4:
 329 0050 FFF7FEFF 		bl	dbg_check_lock_from_isr
 330              		.loc 1 287 0
 331 0054 019B     		ldr	r3, [sp, #4]
 332 0056 9B68     		ldr	r3, [r3, #8]
 333 0058 43F40072 		orr	r2, r3, #512
 334 005c 019B     		ldr	r3, [sp, #4]
 335 005e 9A60     		str	r2, [r3, #8]
 336 0060 019B     		ldr	r3, [sp, #4]
 337 0062 03F10403 		add	r3, r3, #4
 338 0066 1846     		mov	r0, r3
ARM GAS  /tmp/ccWlo0cl.s 			page 7


 339 0068 4FF00001 		mov	r1, #0
 340 006c FFF7FEFF 		bl	chEvtBroadcastFlagsI
 341              		.loc 1 288 0
 342 0070 FFF7FEFF 		bl	dbg_check_unlock_from_isr
 343              	.LBB5:
 344 0074 4FF00003 		mov	r3, #0
 345              	@ 288 "../../os/hal/platforms/STM32/serial_lld.c" 1
 346 0078 83F31188 		msr     BASEPRI, r3
 347              	@ 0 "" 2
 348              		.thumb
 349              	.LBE5:
 350              		.loc 1 289 0
 351 007c 059B     		ldr	r3, [sp, #20]
 352 007e 1B88     		ldrh	r3, [r3, #0]	@ movhi
 353 0080 9BB2     		uxth	r3, r3
 354 0082 23F48073 		bic	r3, r3, #256
 355 0086 9AB2     		uxth	r2, r3
 356 0088 059B     		ldr	r3, [sp, #20]
 357 008a 1A80     		strh	r2, [r3, #0]	@ movhi
 358              	.L13:
 359              		.loc 1 292 0
 360 008c BDF81030 		ldrh	r3, [sp, #16]
 361 0090 03F02003 		and	r3, r3, #32
 362 0094 002B     		cmp	r3, #0
 363 0096 12D0     		beq	.L14
 364              	.LBB6:
 365              		.loc 1 293 0
 366 0098 4FF02003 		mov	r3, #32
 367              	@ 293 "../../os/hal/platforms/STM32/serial_lld.c" 1
 368 009c 83F31188 		msr     BASEPRI, r3
 369              	@ 0 "" 2
 370              		.thumb
 371              	.LBE6:
 372 00a0 FFF7FEFF 		bl	dbg_check_lock_from_isr
 373              		.loc 1 294 0
 374 00a4 BDF80E30 		ldrh	r3, [sp, #14]	@ movhi
 375 00a8 DBB2     		uxtb	r3, r3
 376 00aa 0198     		ldr	r0, [sp, #4]
 377 00ac 1946     		mov	r1, r3
 378 00ae FFF7FEFF 		bl	sdIncomingDataI
 379              		.loc 1 295 0
 380 00b2 FFF7FEFF 		bl	dbg_check_unlock_from_isr
 381              	.LBB7:
 382 00b6 4FF00003 		mov	r3, #0
 383              	@ 295 "../../os/hal/platforms/STM32/serial_lld.c" 1
 384 00ba 83F31188 		msr     BASEPRI, r3
 385              	@ 0 "" 2
 386              		.thumb
 387              	.L14:
 388              	.LBE7:
 389              		.loc 1 298 0
 390 00be BDF81230 		ldrh	r3, [sp, #18]
 391 00c2 03F08003 		and	r3, r3, #128
 392 00c6 002B     		cmp	r3, #0
 393 00c8 3AD0     		beq	.L15
 394              		.loc 1 298 0 is_stmt 0 discriminator 1
 395 00ca BDF81030 		ldrh	r3, [sp, #16]
ARM GAS  /tmp/ccWlo0cl.s 			page 8


 396 00ce 03F08003 		and	r3, r3, #128
 397 00d2 002B     		cmp	r3, #0
 398 00d4 34D0     		beq	.L15
 399              	.LBB8:
 400              	.LBB9:
 401              		.loc 1 300 0 is_stmt 1
 402 00d6 4FF02003 		mov	r3, #32
 403              	@ 300 "../../os/hal/platforms/STM32/serial_lld.c" 1
 404 00da 83F31188 		msr     BASEPRI, r3
 405              	@ 0 "" 2
 406              		.thumb
 407              	.LBE9:
 408 00de FFF7FEFF 		bl	dbg_check_lock_from_isr
 409              		.loc 1 301 0
 410 00e2 019B     		ldr	r3, [sp, #4]
 411 00e4 03F13403 		add	r3, r3, #52
 412 00e8 1846     		mov	r0, r3
 413 00ea FFF7FEFF 		bl	chOQGetI
 414 00ee 0346     		mov	r3, r0
 415 00f0 0293     		str	r3, [sp, #8]
 416              		.loc 1 302 0
 417 00f2 029B     		ldr	r3, [sp, #8]
 418 00f4 002B     		cmp	r3, #0
 419 00f6 19DA     		bge	.L16
 420              		.loc 1 303 0
 421 00f8 019B     		ldr	r3, [sp, #4]
 422 00fa 9B68     		ldr	r3, [r3, #8]
 423 00fc 43F00802 		orr	r2, r3, #8
 424 0100 019B     		ldr	r3, [sp, #4]
 425 0102 9A60     		str	r2, [r3, #8]
 426 0104 019B     		ldr	r3, [sp, #4]
 427 0106 03F10403 		add	r3, r3, #4
 428 010a 1846     		mov	r0, r3
 429 010c 4FF00001 		mov	r1, #0
 430 0110 FFF7FEFF 		bl	chEvtBroadcastFlagsI
 431              		.loc 1 304 0
 432 0114 BDF81230 		ldrh	r3, [sp, #18]
 433 0118 23F0C003 		bic	r3, r3, #192
 434 011c 9BB2     		uxth	r3, r3
 435 011e 43F04003 		orr	r3, r3, #64
 436 0122 9BB2     		uxth	r3, r3
 437 0124 9AB2     		uxth	r2, r3
 438 0126 059B     		ldr	r3, [sp, #20]
 439 0128 9A81     		strh	r2, [r3, #12]	@ movhi
 440 012a 03E0     		b	.L17
 441              	.L16:
 442              		.loc 1 307 0
 443 012c 029B     		ldr	r3, [sp, #8]
 444 012e 9AB2     		uxth	r2, r3
 445 0130 059B     		ldr	r3, [sp, #20]
 446 0132 9A80     		strh	r2, [r3, #4]	@ movhi
 447              	.L17:
 448              		.loc 1 308 0
 449 0134 FFF7FEFF 		bl	dbg_check_unlock_from_isr
 450              	.LBB10:
 451 0138 4FF00003 		mov	r3, #0
 452              	@ 308 "../../os/hal/platforms/STM32/serial_lld.c" 1
ARM GAS  /tmp/ccWlo0cl.s 			page 9


 453 013c 83F31188 		msr     BASEPRI, r3
 454              	@ 0 "" 2
 455              		.thumb
 456              	.L15:
 457              	.LBE10:
 458              	.LBE8:
 459              		.loc 1 311 0
 460 0140 BDF81030 		ldrh	r3, [sp, #16]
 461 0144 03F04003 		and	r3, r3, #64
 462 0148 002B     		cmp	r3, #0
 463 014a 28D0     		beq	.L11
 464              	.LBB11:
 465              		.loc 1 312 0
 466 014c 4FF02003 		mov	r3, #32
 467              	@ 312 "../../os/hal/platforms/STM32/serial_lld.c" 1
 468 0150 83F31188 		msr     BASEPRI, r3
 469              	@ 0 "" 2
 470              		.thumb
 471              	.LBE11:
 472 0154 FFF7FEFF 		bl	dbg_check_lock_from_isr
 473              		.loc 1 313 0
 474 0158 019B     		ldr	r3, [sp, #4]
 475 015a 9B68     		ldr	r3, [r3, #8]
 476 015c 43F01002 		orr	r2, r3, #16
 477 0160 019B     		ldr	r3, [sp, #4]
 478 0162 9A60     		str	r2, [r3, #8]
 479 0164 019B     		ldr	r3, [sp, #4]
 480 0166 03F10403 		add	r3, r3, #4
 481 016a 1846     		mov	r0, r3
 482 016c 4FF00001 		mov	r1, #0
 483 0170 FFF7FEFF 		bl	chEvtBroadcastFlagsI
 484              		.loc 1 314 0
 485 0174 FFF7FEFF 		bl	dbg_check_unlock_from_isr
 486              	.LBB12:
 487 0178 4FF00003 		mov	r3, #0
 488              	@ 314 "../../os/hal/platforms/STM32/serial_lld.c" 1
 489 017c 83F31188 		msr     BASEPRI, r3
 490              	@ 0 "" 2
 491              		.thumb
 492              	.LBE12:
 493              		.loc 1 315 0
 494 0180 BDF81230 		ldrh	r3, [sp, #18]	@ movhi
 495 0184 23F04003 		bic	r3, r3, #64
 496 0188 9AB2     		uxth	r2, r3
 497 018a 059B     		ldr	r3, [sp, #20]
 498 018c 9A81     		strh	r2, [r3, #12]	@ movhi
 499              		.loc 1 316 0
 500 018e 059B     		ldr	r3, [sp, #20]
 501 0190 1B88     		ldrh	r3, [r3, #0]	@ movhi
 502 0192 9BB2     		uxth	r3, r3
 503 0194 23F04003 		bic	r3, r3, #64
 504 0198 9AB2     		uxth	r2, r3
 505 019a 059B     		ldr	r3, [sp, #20]
 506 019c 1A80     		strh	r2, [r3, #0]	@ movhi
 507              	.L11:
 508              		.loc 1 318 0
 509 019e 07B0     		add	sp, sp, #28
ARM GAS  /tmp/ccWlo0cl.s 			page 10


 510 01a0 00BD     		pop	{pc}
 511              		.cfi_endproc
 512              	.LFE66:
 513              		.size	serve_interrupt, .-serve_interrupt
 514 01a2 00BFAFF3 		.section	.text.notify1,"ax",%progbits
 514      0080AFF3 
 514      0080AFF3 
 514      0080
 515              		.align	2
 516              		.p2align 4,,15
 517              		.thumb
 518              		.thumb_func
 519              		.type	notify1, %function
 520              	notify1:
 521              	.LFB67:
 522              		.loc 1 323 0
 523              		.cfi_startproc
 524              		@ args = 0, pretend = 0, frame = 8
 525              		@ frame_needed = 0, uses_anonymous_args = 0
 526              		@ link register save eliminated.
 527 0000 82B0     		sub	sp, sp, #8
 528              	.LCFI6:
 529              		.cfi_def_cfa_offset 8
 530 0002 0190     		str	r0, [sp, #4]
 531              		.loc 1 326 0
 532 0004 4FF48053 		mov	r3, #4096
 533 0008 C4F20103 		movt	r3, 16385
 534 000c 4FF48052 		mov	r2, #4096
 535 0010 C4F20102 		movt	r2, 16385
 536 0014 9289     		ldrh	r2, [r2, #12]	@ movhi
 537 0016 92B2     		uxth	r2, r2
 538 0018 42F08002 		orr	r2, r2, #128
 539 001c 92B2     		uxth	r2, r2
 540 001e 9A81     		strh	r2, [r3, #12]	@ movhi
 541              		.loc 1 327 0
 542 0020 02B0     		add	sp, sp, #8
 543 0022 7047     		bx	lr
 544              		.cfi_endproc
 545              	.LFE67:
 546              		.size	notify1, .-notify1
 547 0024 AFF30080 		.section	.text.VectorD4,"ax",%progbits
 547      AFF30080 
 547      AFF30080 
 548              		.align	2
 549              		.p2align 4,,15
 550              		.global	VectorD4
 551              		.thumb
 552              		.thumb_func
 553              		.type	VectorD4, %function
 554              	VectorD4:
 555              	.LFB68:
 556              		.loc 1 383 0
 557              		.cfi_startproc
 558              		@ args = 0, pretend = 0, frame = 0
 559              		@ frame_needed = 0, uses_anonymous_args = 0
 560 0000 08B5     		push	{r3, lr}
 561              	.LCFI7:
ARM GAS  /tmp/ccWlo0cl.s 			page 11


 562              		.cfi_def_cfa_offset 8
 563              		.cfi_offset 14, -4
 564              		.cfi_offset 3, -8
 565              		.loc 1 385 0
 566 0002 FFF7FEFF 		bl	dbg_check_enter_isr
 567              		.loc 1 387 0
 568 0006 40F20000 		movw	r0, #:lower16:SD1
 569 000a C0F20000 		movt	r0, #:upper16:SD1
 570 000e FFF7FEFF 		bl	serve_interrupt
 571              		.loc 1 389 0
 572 0012 FFF7FEFF 		bl	dbg_check_leave_isr
 573 0016 FFF7FEFF 		bl	_port_irq_epilogue
 574              		.loc 1 390 0
 575 001a 08BD     		pop	{r3, pc}
 576              		.cfi_endproc
 577              	.LFE68:
 578              		.size	VectorD4, .-VectorD4
 579 001c AFF30080 		.section	.text.sd_lld_init,"ax",%progbits
 580              		.align	2
 581              		.p2align 4,,15
 582              		.global	sd_lld_init
 583              		.thumb
 584              		.thumb_func
 585              		.type	sd_lld_init, %function
 586              	sd_lld_init:
 587              	.LFB69:
 588              		.loc 1 497 0
 589              		.cfi_startproc
 590              		@ args = 0, pretend = 0, frame = 0
 591              		@ frame_needed = 0, uses_anonymous_args = 0
 592 0000 08B5     		push	{r3, lr}
 593              	.LCFI8:
 594              		.cfi_def_cfa_offset 8
 595              		.cfi_offset 14, -4
 596              		.cfi_offset 3, -8
 597              		.loc 1 500 0
 598 0002 40F20000 		movw	r0, #:lower16:SD1
 599 0006 C0F20000 		movt	r0, #:upper16:SD1
 600 000a 4FF00001 		mov	r1, #0
 601 000e 40F20002 		movw	r2, #:lower16:notify1
 602 0012 C0F20002 		movt	r2, #:upper16:notify1
 603 0016 FFF7FEFF 		bl	sdObjectInit
 604              		.loc 1 501 0
 605 001a 40F20003 		movw	r3, #:lower16:SD1
 606 001e C0F20003 		movt	r3, #:upper16:SD1
 607 0022 4FF48052 		mov	r2, #4096
 608 0026 C4F20102 		movt	r2, 16385
 609 002a 9A67     		str	r2, [r3, #120]
 610              		.loc 1 528 0
 611 002c 08BD     		pop	{r3, pc}
 612              		.cfi_endproc
 613              	.LFE69:
 614              		.size	sd_lld_init, .-sd_lld_init
 615 002e 00BF     		.section	.text.sd_lld_start,"ax",%progbits
 616              		.align	2
 617              		.p2align 4,,15
 618              		.global	sd_lld_start
ARM GAS  /tmp/ccWlo0cl.s 			page 12


 619              		.thumb
 620              		.thumb_func
 621              		.type	sd_lld_start, %function
 622              	sd_lld_start:
 623              	.LFB70:
 624              		.loc 1 540 0
 625              		.cfi_startproc
 626              		@ args = 0, pretend = 0, frame = 8
 627              		@ frame_needed = 0, uses_anonymous_args = 0
 628 0000 00B5     		push	{lr}
 629              	.LCFI9:
 630              		.cfi_def_cfa_offset 4
 631              		.cfi_offset 14, -4
 632 0002 83B0     		sub	sp, sp, #12
 633              	.LCFI10:
 634              		.cfi_def_cfa_offset 16
 635 0004 0190     		str	r0, [sp, #4]
 636 0006 0091     		str	r1, [sp, #0]
 637              		.loc 1 542 0
 638 0008 009B     		ldr	r3, [sp, #0]
 639 000a 002B     		cmp	r3, #0
 640 000c 04D1     		bne	.L23
 641              		.loc 1 543 0
 642 000e 40F20003 		movw	r3, #:lower16:default_config
 643 0012 C0F20003 		movt	r3, #:upper16:default_config
 644 0016 0093     		str	r3, [sp, #0]
 645              	.L23:
 646              		.loc 1 545 0
 647 0018 019B     		ldr	r3, [sp, #4]
 648 001a 1B7B     		ldrb	r3, [r3, #12]	@ zero_extendqisi2
 649 001c 012B     		cmp	r3, #1
 650 001e 18D1     		bne	.L24
 651              		.loc 1 547 0
 652 0020 019A     		ldr	r2, [sp, #4]
 653 0022 40F20003 		movw	r3, #:lower16:SD1
 654 0026 C0F20003 		movt	r3, #:upper16:SD1
 655 002a 9A42     		cmp	r2, r3
 656 002c 11D1     		bne	.L24
 657              		.loc 1 548 0
 658 002e 4FF46053 		mov	r3, #14336
 659 0032 C4F20203 		movt	r3, 16386
 660 0036 4FF46052 		mov	r2, #14336
 661 003a C4F20202 		movt	r2, 16386
 662 003e 526C     		ldr	r2, [r2, #68]
 663 0040 42F01002 		orr	r2, r2, #16
 664 0044 5A64     		str	r2, [r3, #68]
 665              		.loc 1 549 0
 666 0046 4FF02500 		mov	r0, #37
 667 004a 4FF0C001 		mov	r1, #192
 668 004e FFF7FEFF 		bl	nvicEnableVector
 669              	.L24:
 670              		.loc 1 589 0
 671 0052 0198     		ldr	r0, [sp, #4]
 672 0054 0099     		ldr	r1, [sp, #0]
 673 0056 FFF7FEFF 		bl	usart_init
 674              		.loc 1 590 0
 675 005a 03B0     		add	sp, sp, #12
ARM GAS  /tmp/ccWlo0cl.s 			page 13


 676 005c 00BD     		pop	{pc}
 677              		.cfi_endproc
 678              	.LFE70:
 679              		.size	sd_lld_start, .-sd_lld_start
 680 005e 00BF     		.section	.text.sd_lld_stop,"ax",%progbits
 681              		.align	2
 682              		.p2align 4,,15
 683              		.global	sd_lld_stop
 684              		.thumb
 685              		.thumb_func
 686              		.type	sd_lld_stop, %function
 687              	sd_lld_stop:
 688              	.LFB71:
 689              		.loc 1 601 0
 690              		.cfi_startproc
 691              		@ args = 0, pretend = 0, frame = 8
 692              		@ frame_needed = 0, uses_anonymous_args = 0
 693 0000 00B5     		push	{lr}
 694              	.LCFI11:
 695              		.cfi_def_cfa_offset 4
 696              		.cfi_offset 14, -4
 697 0002 83B0     		sub	sp, sp, #12
 698              	.LCFI12:
 699              		.cfi_def_cfa_offset 16
 700 0004 0190     		str	r0, [sp, #4]
 701              		.loc 1 603 0
 702 0006 019B     		ldr	r3, [sp, #4]
 703 0008 1B7B     		ldrb	r3, [r3, #12]	@ zero_extendqisi2
 704 000a 022B     		cmp	r3, #2
 705 000c 1CD1     		bne	.L25
 706              		.loc 1 604 0
 707 000e 019B     		ldr	r3, [sp, #4]
 708 0010 9B6F     		ldr	r3, [r3, #120]
 709 0012 1846     		mov	r0, r3
 710 0014 FFF7FEFF 		bl	usart_deinit
 711              		.loc 1 606 0
 712 0018 019A     		ldr	r2, [sp, #4]
 713 001a 40F20003 		movw	r3, #:lower16:SD1
 714 001e C0F20003 		movt	r3, #:upper16:SD1
 715 0022 9A42     		cmp	r2, r3
 716 0024 10D1     		bne	.L25
 717              		.loc 1 607 0
 718 0026 4FF46053 		mov	r3, #14336
 719 002a C4F20203 		movt	r3, 16386
 720 002e 4FF46052 		mov	r2, #14336
 721 0032 C4F20202 		movt	r2, 16386
 722 0036 526C     		ldr	r2, [r2, #68]
 723 0038 22F01002 		bic	r2, r2, #16
 724 003c 5A64     		str	r2, [r3, #68]
 725              		.loc 1 608 0
 726 003e 4FF02500 		mov	r0, #37
 727 0042 FFF7FEFF 		bl	nvicDisableVector
 728              		.loc 1 609 0
 729 0046 00BF     		nop
 730              	.L25:
 731              		.loc 1 648 0
 732 0048 03B0     		add	sp, sp, #12
ARM GAS  /tmp/ccWlo0cl.s 			page 14


 733 004a 00BD     		pop	{pc}
 734              		.cfi_endproc
 735              	.LFE71:
 736              		.size	sd_lld_stop, .-sd_lld_stop
 737 004c AFF30080 		.text
 738              	.Letext0:
 739              		.file 2 "/home/texzk/ChibiStudio/tools/GNU Tools ARM Embedded/4.6 2012q2/bin/../lib/gcc/arm-none-e
 740              		.file 3 "/home/texzk/ChibiStudio/tools/GNU Tools ARM Embedded/4.6 2012q2/bin/../lib/gcc/arm-none-e
 741              		.file 4 "../../os/ports/GCC/ARMCMx/chtypes.h"
 742              		.file 5 "../../os/kernel/include/chlists.h"
 743              		.file 6 "../../os/kernel/include/chthreads.h"
 744              		.file 7 "../../os/ports/GCC/ARMCMx/chcore_v7m.h"
 745              		.file 8 "../../os/kernel/include/chmtx.h"
 746              		.file 9 "../../os/kernel/include/chevents.h"
 747              		.file 10 "../../os/kernel/include/chqueues.h"
 748              		.file 11 "../../os/hal/platforms/STM32F2xx/stm32f2xx.h"
 749              		.file 12 "../../os/hal/include/io_channel.h"
 750              		.file 13 "../../os/hal/include/serial.h"
 751              		.file 14 "../../os/hal/platforms/STM32/serial_lld.h"
 752              		.file 15 "../../os/ports/common/ARMCMx/CMSIS/include/core_cm3.h"