ARM GAS  /tmp/cc2wa78n.s 			page 1


   1              		.syntax unified
   2              		.cpu cortex-m3
   3              		.fpu softvfp
   4              		.eabi_attribute 20, 1
   5              		.eabi_attribute 21, 1
   6              		.eabi_attribute 23, 3
   7              		.eabi_attribute 24, 1
   8              		.eabi_attribute 25, 1
   9              		.eabi_attribute 26, 1
  10              		.eabi_attribute 30, 6
  11              		.eabi_attribute 34, 1
  12              		.eabi_attribute 18, 4
  13              		.thumb
  14              		.file	"sockets.c"
  15              		.text
  16              	.Ltext0:
  17              		.cfi_sections	.debug_frame
  18              		.section	.bss.sockets,"aw",%nobits
  19              		.align	2
  20              		.type	sockets, %object
  21              		.size	sockets, 96
  22              	sockets:
  23 0000 00000000 		.space	96
  23      00000000 
  23      00000000 
  23      00000000 
  23      00000000 
  24              		.section	.bss.select_cb_list,"aw",%nobits
  25              		.align	2
  26              		.type	select_cb_list, %object
  27              		.size	select_cb_list, 4
  28              	select_cb_list:
  29 0000 00000000 		.space	4
  30              		.section	.bss.select_cb_ctr,"aw",%nobits
  31              		.align	2
  32              		.type	select_cb_ctr, %object
  33              		.size	select_cb_ctr, 4
  34              	select_cb_ctr:
  35 0000 00000000 		.space	4
  36              		.section	.rodata.err_to_errno_table,"a",%progbits
  37              		.align	2
  38              		.type	err_to_errno_table, %object
  39              		.size	err_to_errno_table, 64
  40              	err_to_errno_table:
  41 0000 00000000 		.word	0
  42 0004 0C000000 		.word	12
  43 0008 69000000 		.word	105
  44 000c 0B000000 		.word	11
  45 0010 71000000 		.word	113
  46 0014 73000000 		.word	115
  47 0018 16000000 		.word	22
  48 001c 0B000000 		.word	11
  49 0020 62000000 		.word	98
  50 0024 72000000 		.word	114
  51 0028 67000000 		.word	103
  52 002c 68000000 		.word	104
  53 0030 6B000000 		.word	107
ARM GAS  /tmp/cc2wa78n.s 			page 2


  54 0034 6B000000 		.word	107
  55 0038 05000000 		.word	5
  56 003c FFFFFFFF 		.word	-1
  57              		.section	.text.lwip_socket_init,"ax",%progbits
  58              		.align	2
  59              		.p2align 4,,15
  60              		.global	lwip_socket_init
  61              		.thumb
  62              		.thumb_func
  63              		.type	lwip_socket_init, %function
  64              	lwip_socket_init:
  65              	.LFB7:
  66              		.file 1 "../../ext/lwip/src/api/sockets.c"
  67              		.loc 1 185 0
  68              		.cfi_startproc
  69              		@ args = 0, pretend = 0, frame = 0
  70              		@ frame_needed = 0, uses_anonymous_args = 0
  71              		@ link register save eliminated.
  72              		.loc 1 186 0
  73 0000 7047     		bx	lr
  74              		.cfi_endproc
  75              	.LFE7:
  76              		.size	lwip_socket_init, .-lwip_socket_init
  77 0002 00BFAFF3 		.section	.text.get_socket,"ax",%progbits
  77      0080AFF3 
  77      0080AFF3 
  77      0080
  78              		.align	2
  79              		.p2align 4,,15
  80              		.thumb
  81              		.thumb_func
  82              		.type	get_socket, %function
  83              	get_socket:
  84              	.LFB8:
  85              		.loc 1 196 0
  86              		.cfi_startproc
  87              		@ args = 0, pretend = 0, frame = 16
  88              		@ frame_needed = 0, uses_anonymous_args = 0
  89              		@ link register save eliminated.
  90 0000 84B0     		sub	sp, sp, #16
  91              	.LCFI0:
  92              		.cfi_def_cfa_offset 16
  93 0002 0190     		str	r0, [sp, #4]
  94              		.loc 1 199 0
  95 0004 019B     		ldr	r3, [sp, #4]
  96 0006 002B     		cmp	r3, #0
  97 0008 02DB     		blt	.L3
  98              		.loc 1 199 0 is_stmt 0 discriminator 1
  99 000a 019B     		ldr	r3, [sp, #4]
 100 000c 032B     		cmp	r3, #3
 101 000e 02DD     		ble	.L4
 102              	.L3:
 103              		.loc 1 202 0 is_stmt 1
 104 0010 4FF00003 		mov	r3, #0
 105 0014 15E0     		b	.L5
 106              	.L4:
 107              		.loc 1 205 0
ARM GAS  /tmp/cc2wa78n.s 			page 3


 108 0016 019A     		ldr	r2, [sp, #4]
 109 0018 1346     		mov	r3, r2
 110 001a 4FEA4303 		lsl	r3, r3, #1
 111 001e 9B18     		adds	r3, r3, r2
 112 0020 4FEAC303 		lsl	r3, r3, #3
 113 0024 1A46     		mov	r2, r3
 114 0026 40F20003 		movw	r3, #:lower16:sockets
 115 002a C0F20003 		movt	r3, #:upper16:sockets
 116 002e D318     		adds	r3, r2, r3
 117 0030 0393     		str	r3, [sp, #12]
 118              		.loc 1 207 0
 119 0032 039B     		ldr	r3, [sp, #12]
 120 0034 1B68     		ldr	r3, [r3, #0]
 121 0036 002B     		cmp	r3, #0
 122 0038 02D1     		bne	.L6
 123              		.loc 1 210 0
 124 003a 4FF00003 		mov	r3, #0
 125 003e 00E0     		b	.L5
 126              	.L6:
 127              		.loc 1 213 0
 128 0040 039B     		ldr	r3, [sp, #12]
 129              	.L5:
 130              		.loc 1 214 0
 131 0042 1846     		mov	r0, r3
 132 0044 04B0     		add	sp, sp, #16
 133 0046 7047     		bx	lr
 134              		.cfi_endproc
 135              	.LFE8:
 136              		.size	get_socket, .-get_socket
 137 0048 AFF30080 		.section	.text.tryget_socket,"ax",%progbits
 137      AFF30080 
 138              		.align	2
 139              		.p2align 4,,15
 140              		.thumb
 141              		.thumb_func
 142              		.type	tryget_socket, %function
 143              	tryget_socket:
 144              	.LFB9:
 145              		.loc 1 224 0
 146              		.cfi_startproc
 147              		@ args = 0, pretend = 0, frame = 8
 148              		@ frame_needed = 0, uses_anonymous_args = 0
 149              		@ link register save eliminated.
 150 0000 82B0     		sub	sp, sp, #8
 151              	.LCFI1:
 152              		.cfi_def_cfa_offset 8
 153 0002 0190     		str	r0, [sp, #4]
 154              		.loc 1 225 0
 155 0004 019B     		ldr	r3, [sp, #4]
 156 0006 002B     		cmp	r3, #0
 157 0008 02DB     		blt	.L8
 158              		.loc 1 225 0 is_stmt 0 discriminator 1
 159 000a 019B     		ldr	r3, [sp, #4]
 160 000c 032B     		cmp	r3, #3
 161 000e 02DD     		ble	.L9
 162              	.L8:
 163              		.loc 1 226 0 is_stmt 1
ARM GAS  /tmp/cc2wa78n.s 			page 4


 164 0010 4FF00003 		mov	r3, #0
 165 0014 1EE0     		b	.L10
 166              	.L9:
 167              		.loc 1 228 0
 168 0016 40F20002 		movw	r2, #:lower16:sockets
 169 001a C0F20002 		movt	r2, #:upper16:sockets
 170 001e 0199     		ldr	r1, [sp, #4]
 171 0020 0B46     		mov	r3, r1
 172 0022 4FEA4303 		lsl	r3, r3, #1
 173 0026 5B18     		adds	r3, r3, r1
 174 0028 4FEAC303 		lsl	r3, r3, #3
 175 002c D318     		adds	r3, r2, r3
 176 002e 1B68     		ldr	r3, [r3, #0]
 177 0030 002B     		cmp	r3, #0
 178 0032 02D1     		bne	.L11
 179              		.loc 1 229 0
 180 0034 4FF00003 		mov	r3, #0
 181 0038 0CE0     		b	.L10
 182              	.L11:
 183              		.loc 1 231 0
 184 003a 019A     		ldr	r2, [sp, #4]
 185 003c 1346     		mov	r3, r2
 186 003e 4FEA4303 		lsl	r3, r3, #1
 187 0042 9B18     		adds	r3, r3, r2
 188 0044 4FEAC303 		lsl	r3, r3, #3
 189 0048 1A46     		mov	r2, r3
 190 004a 40F20003 		movw	r3, #:lower16:sockets
 191 004e C0F20003 		movt	r3, #:upper16:sockets
 192 0052 D318     		adds	r3, r2, r3
 193              	.L10:
 194              		.loc 1 232 0
 195 0054 1846     		mov	r0, r3
 196 0056 02B0     		add	sp, sp, #8
 197 0058 7047     		bx	lr
 198              		.cfi_endproc
 199              	.LFE9:
 200              		.size	tryget_socket, .-tryget_socket
 201 005a 00BFAFF3 		.section	.text.alloc_socket,"ax",%progbits
 201      0080
 202              		.align	2
 203              		.p2align 4,,15
 204              		.thumb
 205              		.thumb_func
 206              		.type	alloc_socket, %function
 207              	alloc_socket:
 208              	.LFB10:
 209              		.loc 1 244 0
 210              		.cfi_startproc
 211              		@ args = 0, pretend = 0, frame = 16
 212              		@ frame_needed = 0, uses_anonymous_args = 0
 213              		@ link register save eliminated.
 214 0000 84B0     		sub	sp, sp, #16
 215              	.LCFI2:
 216              		.cfi_def_cfa_offset 16
 217 0002 0190     		str	r0, [sp, #4]
 218 0004 0091     		str	r1, [sp, #0]
 219              		.loc 1 249 0
ARM GAS  /tmp/cc2wa78n.s 			page 5


 220 0006 4FF00003 		mov	r3, #0
 221 000a 0393     		str	r3, [sp, #12]
 222 000c A6E0     		b	.L13
 223              	.L19:
 224              		.loc 1 252 0
 225 000e 40F20002 		movw	r2, #:lower16:sockets
 226 0012 C0F20002 		movt	r2, #:upper16:sockets
 227 0016 0399     		ldr	r1, [sp, #12]
 228 0018 0B46     		mov	r3, r1
 229 001a 4FEA4303 		lsl	r3, r3, #1
 230 001e 5B18     		adds	r3, r3, r1
 231 0020 4FEAC303 		lsl	r3, r3, #3
 232 0024 D318     		adds	r3, r2, r3
 233 0026 1B68     		ldr	r3, [r3, #0]
 234 0028 002B     		cmp	r3, #0
 235 002a 40F09380 		bne	.L14
 236              		.loc 1 253 0
 237 002e 40F20002 		movw	r2, #:lower16:sockets
 238 0032 C0F20002 		movt	r2, #:upper16:sockets
 239 0036 0399     		ldr	r1, [sp, #12]
 240 0038 0B46     		mov	r3, r1
 241 003a 4FEA4303 		lsl	r3, r3, #1
 242 003e 5B18     		adds	r3, r3, r1
 243 0040 4FEAC303 		lsl	r3, r3, #3
 244 0044 D318     		adds	r3, r2, r3
 245 0046 019A     		ldr	r2, [sp, #4]
 246 0048 1A60     		str	r2, [r3, #0]
 247              		.loc 1 257 0
 248 004a 40F20002 		movw	r2, #:lower16:sockets
 249 004e C0F20002 		movt	r2, #:upper16:sockets
 250 0052 0399     		ldr	r1, [sp, #12]
 251 0054 0B46     		mov	r3, r1
 252 0056 4FEA4303 		lsl	r3, r3, #1
 253 005a 5B18     		adds	r3, r3, r1
 254 005c 4FEAC303 		lsl	r3, r3, #3
 255 0060 D318     		adds	r3, r2, r3
 256 0062 03F10403 		add	r3, r3, #4
 257 0066 4FF00002 		mov	r2, #0
 258 006a 1A60     		str	r2, [r3, #0]
 259              		.loc 1 258 0
 260 006c 40F20002 		movw	r2, #:lower16:sockets
 261 0070 C0F20002 		movt	r2, #:upper16:sockets
 262 0074 0399     		ldr	r1, [sp, #12]
 263 0076 0B46     		mov	r3, r1
 264 0078 4FEA4303 		lsl	r3, r3, #1
 265 007c 5B18     		adds	r3, r3, r1
 266 007e 4FEAC303 		lsl	r3, r3, #3
 267 0082 D318     		adds	r3, r2, r3
 268 0084 03F10803 		add	r3, r3, #8
 269 0088 4FF00002 		mov	r2, #0
 270 008c 1A80     		strh	r2, [r3, #0]	@ movhi
 271              		.loc 1 259 0
 272 008e 40F20002 		movw	r2, #:lower16:sockets
 273 0092 C0F20002 		movt	r2, #:upper16:sockets
 274 0096 0399     		ldr	r1, [sp, #12]
 275 0098 0B46     		mov	r3, r1
 276 009a 4FEA4303 		lsl	r3, r3, #1
ARM GAS  /tmp/cc2wa78n.s 			page 6


 277 009e 5B18     		adds	r3, r3, r1
 278 00a0 4FEAC303 		lsl	r3, r3, #3
 279 00a4 D318     		adds	r3, r2, r3
 280 00a6 03F10803 		add	r3, r3, #8
 281 00aa 4FF00002 		mov	r2, #0
 282 00ae 5A80     		strh	r2, [r3, #2]	@ movhi
 283              		.loc 1 262 0
 284 00b0 019B     		ldr	r3, [sp, #4]
 285 00b2 1B78     		ldrb	r3, [r3, #0]	@ zero_extendqisi2
 286 00b4 102B     		cmp	r3, #16
 287 00b6 02D1     		bne	.L15
 288              		.loc 1 262 0 is_stmt 0 discriminator 2
 289 00b8 009B     		ldr	r3, [sp, #0]
 290 00ba 002B     		cmp	r3, #0
 291 00bc 02D0     		beq	.L16
 292              	.L15:
 293              		.loc 1 262 0 discriminator 1
 294 00be 4FF00103 		mov	r3, #1
 295 00c2 01E0     		b	.L17
 296              	.L16:
 297 00c4 4FF00003 		mov	r3, #0
 298              	.L17:
 299              		.loc 1 262 0 discriminator 3
 300 00c8 98B2     		uxth	r0, r3
 301 00ca 40F20002 		movw	r2, #:lower16:sockets
 302 00ce C0F20002 		movt	r2, #:upper16:sockets
 303 00d2 0399     		ldr	r1, [sp, #12]
 304 00d4 0B46     		mov	r3, r1
 305 00d6 4FEA4303 		lsl	r3, r3, #1
 306 00da 5B18     		adds	r3, r3, r1
 307 00dc 4FEAC303 		lsl	r3, r3, #3
 308 00e0 D318     		adds	r3, r2, r3
 309 00e2 03F10803 		add	r3, r3, #8
 310 00e6 0246     		mov	r2, r0	@ movhi
 311 00e8 9A80     		strh	r2, [r3, #4]	@ movhi
 312              		.loc 1 263 0 is_stmt 1 discriminator 3
 313 00ea 40F20002 		movw	r2, #:lower16:sockets
 314 00ee C0F20002 		movt	r2, #:upper16:sockets
 315 00f2 0399     		ldr	r1, [sp, #12]
 316 00f4 0B46     		mov	r3, r1
 317 00f6 4FEA4303 		lsl	r3, r3, #1
 318 00fa 5B18     		adds	r3, r3, r1
 319 00fc 4FEAC303 		lsl	r3, r3, #3
 320 0100 D318     		adds	r3, r2, r3
 321 0102 03F10803 		add	r3, r3, #8
 322 0106 4FF00002 		mov	r2, #0
 323 010a DA80     		strh	r2, [r3, #6]	@ movhi
 324              		.loc 1 264 0 discriminator 3
 325 010c 40F20002 		movw	r2, #:lower16:sockets
 326 0110 C0F20002 		movt	r2, #:upper16:sockets
 327 0114 0399     		ldr	r1, [sp, #12]
 328 0116 0B46     		mov	r3, r1
 329 0118 4FEA4303 		lsl	r3, r3, #1
 330 011c 5B18     		adds	r3, r3, r1
 331 011e 4FEAC303 		lsl	r3, r3, #3
 332 0122 D318     		adds	r3, r2, r3
 333 0124 03F11003 		add	r3, r3, #16
ARM GAS  /tmp/cc2wa78n.s 			page 7


 334 0128 4FF00002 		mov	r2, #0
 335 012c 1A60     		str	r2, [r3, #0]
 336              		.loc 1 265 0 discriminator 3
 337 012e 40F20002 		movw	r2, #:lower16:sockets
 338 0132 C0F20002 		movt	r2, #:upper16:sockets
 339 0136 0399     		ldr	r1, [sp, #12]
 340 0138 0B46     		mov	r3, r1
 341 013a 4FEA4303 		lsl	r3, r3, #1
 342 013e 5B18     		adds	r3, r3, r1
 343 0140 4FEAC303 		lsl	r3, r3, #3
 344 0144 D318     		adds	r3, r2, r3
 345 0146 03F11403 		add	r3, r3, #20
 346 014a 4FF00002 		mov	r2, #0
 347 014e 1A60     		str	r2, [r3, #0]
 348              		.loc 1 266 0 discriminator 3
 349 0150 039B     		ldr	r3, [sp, #12]
 350 0152 09E0     		b	.L18
 351              	.L14:
 352              		.loc 1 249 0
 353 0154 039B     		ldr	r3, [sp, #12]
 354 0156 03F10103 		add	r3, r3, #1
 355 015a 0393     		str	r3, [sp, #12]
 356              	.L13:
 357              		.loc 1 249 0 is_stmt 0 discriminator 1
 358 015c 039B     		ldr	r3, [sp, #12]
 359 015e 032B     		cmp	r3, #3
 360 0160 7FF755AF 		ble	.L19
 361              		.loc 1 270 0 is_stmt 1
 362 0164 4FF0FF33 		mov	r3, #-1
 363              	.L18:
 364              		.loc 1 271 0
 365 0168 1846     		mov	r0, r3
 366 016a 04B0     		add	sp, sp, #16
 367 016c 7047     		bx	lr
 368              		.cfi_endproc
 369              	.LFE10:
 370              		.size	alloc_socket, .-alloc_socket
 371 016e 00BF     		.section	.text.free_socket,"ax",%progbits
 372              		.align	2
 373              		.p2align 4,,15
 374              		.thumb
 375              		.thumb_func
 376              		.type	free_socket, %function
 377              	free_socket:
 378              	.LFB11:
 379              		.loc 1 281 0
 380              		.cfi_startproc
 381              		@ args = 0, pretend = 0, frame = 16
 382              		@ frame_needed = 0, uses_anonymous_args = 0
 383 0000 00B5     		push	{lr}
 384              	.LCFI3:
 385              		.cfi_def_cfa_offset 4
 386              		.cfi_offset 14, -4
 387 0002 85B0     		sub	sp, sp, #20
 388              	.LCFI4:
 389              		.cfi_def_cfa_offset 24
 390 0004 0190     		str	r0, [sp, #4]
ARM GAS  /tmp/cc2wa78n.s 			page 8


 391 0006 0091     		str	r1, [sp, #0]
 392              		.loc 1 285 0
 393 0008 019B     		ldr	r3, [sp, #4]
 394 000a 5B68     		ldr	r3, [r3, #4]
 395 000c 0393     		str	r3, [sp, #12]
 396              		.loc 1 286 0
 397 000e 019B     		ldr	r3, [sp, #4]
 398 0010 4FF00002 		mov	r2, #0
 399 0014 5A60     		str	r2, [r3, #4]
 400              		.loc 1 287 0
 401 0016 019B     		ldr	r3, [sp, #4]
 402 0018 4FF00002 		mov	r2, #0
 403 001c 1A81     		strh	r2, [r3, #8]	@ movhi
 404              		.loc 1 288 0
 405 001e 019B     		ldr	r3, [sp, #4]
 406 0020 4FF00002 		mov	r2, #0
 407 0024 1A61     		str	r2, [r3, #16]
 408              		.loc 1 292 0
 409 0026 019B     		ldr	r3, [sp, #4]
 410 0028 4FF00002 		mov	r2, #0
 411 002c 1A60     		str	r2, [r3, #0]
 412              		.loc 1 296 0
 413 002e 039B     		ldr	r3, [sp, #12]
 414 0030 002B     		cmp	r3, #0
 415 0032 09D0     		beq	.L20
 416              		.loc 1 297 0
 417 0034 009B     		ldr	r3, [sp, #0]
 418 0036 002B     		cmp	r3, #0
 419 0038 03D0     		beq	.L22
 420              		.loc 1 298 0
 421 003a 0398     		ldr	r0, [sp, #12]
 422 003c FFF7FEFF 		bl	pbuf_free
 423 0040 02E0     		b	.L20
 424              	.L22:
 425              		.loc 1 300 0
 426 0042 0398     		ldr	r0, [sp, #12]
 427 0044 FFF7FEFF 		bl	netbuf_delete
 428              	.L20:
 429              		.loc 1 303 0
 430 0048 05B0     		add	sp, sp, #20
 431 004a 00BD     		pop	{pc}
 432              		.cfi_endproc
 433              	.LFE11:
 434              		.size	free_socket, .-free_socket
 435 004c AFF30080 		.section	.text.lwip_accept,"ax",%progbits
 436              		.align	2
 437              		.p2align 4,,15
 438              		.global	lwip_accept
 439              		.thumb
 440              		.thumb_func
 441              		.type	lwip_accept, %function
 442              	lwip_accept:
 443              	.LFB12:
 444              		.loc 1 313 0
 445              		.cfi_startproc
 446              		@ args = 0, pretend = 0, frame = 64
 447              		@ frame_needed = 0, uses_anonymous_args = 0
ARM GAS  /tmp/cc2wa78n.s 			page 9


 448 0000 00B5     		push	{lr}
 449              	.LCFI5:
 450              		.cfi_def_cfa_offset 4
 451              		.cfi_offset 14, -4
 452 0002 91B0     		sub	sp, sp, #68
 453              	.LCFI6:
 454              		.cfi_def_cfa_offset 72
 455 0004 0390     		str	r0, [sp, #12]
 456 0006 0291     		str	r1, [sp, #8]
 457 0008 0192     		str	r2, [sp, #4]
 458              		.loc 1 324 0
 459 000a 0398     		ldr	r0, [sp, #12]
 460 000c FFF7FEFF 		bl	get_socket
 461 0010 0346     		mov	r3, r0
 462 0012 0F93     		str	r3, [sp, #60]
 463              		.loc 1 325 0
 464 0014 0F9B     		ldr	r3, [sp, #60]
 465 0016 002B     		cmp	r3, #0
 466 0018 02D1     		bne	.L24
 467              		.loc 1 326 0
 468 001a 4FF0FF33 		mov	r3, #-1
 469 001e FFE0     		b	.L25
 470              	.L24:
 471              		.loc 1 329 0
 472 0020 0F9B     		ldr	r3, [sp, #60]
 473 0022 1B68     		ldr	r3, [r3, #0]
 474 0024 1B7F     		ldrb	r3, [r3, #28]	@ zero_extendqisi2
 475 0026 03F00203 		and	r3, r3, #2
 476 002a 002B     		cmp	r3, #0
 477 002c 0BD0     		beq	.L26
 478              		.loc 1 329 0 is_stmt 0 discriminator 1
 479 002e 0F9B     		ldr	r3, [sp, #60]
 480 0030 5B89     		ldrh	r3, [r3, #10]
 481 0032 1BB2     		sxth	r3, r3
 482 0034 002B     		cmp	r3, #0
 483 0036 06DC     		bgt	.L26
 484              		.loc 1 331 0 is_stmt 1
 485 0038 0F9B     		ldr	r3, [sp, #60]
 486 003a 4FF00B02 		mov	r2, #11
 487 003e 1A61     		str	r2, [r3, #16]
 488              		.loc 1 332 0
 489 0040 4FF0FF33 		mov	r3, #-1
 490 0044 ECE0     		b	.L25
 491              	.L26:
 492              		.loc 1 336 0
 493 0046 0F9B     		ldr	r3, [sp, #60]
 494 0048 1A68     		ldr	r2, [r3, #0]
 495 004a 0BAB     		add	r3, sp, #44
 496 004c 1046     		mov	r0, r2
 497 004e 1946     		mov	r1, r3
 498 0050 FFF7FEFF 		bl	netconn_accept
 499 0054 0346     		mov	r3, r0
 500 0056 8DF83B30 		strb	r3, [sp, #59]
 501              		.loc 1 337 0
 502 005a 9DF93B30 		ldrsb	r3, [sp, #59]
 503 005e 002B     		cmp	r3, #0
 504 0060 17D0     		beq	.L27
ARM GAS  /tmp/cc2wa78n.s 			page 10


 505              		.loc 1 339 0
 506 0062 9DF93B30 		ldrsb	r3, [sp, #59]
 507 0066 C3F10003 		rsb	r3, r3, #0
 508 006a 0F2B     		cmp	r3, #15
 509 006c 0AD8     		bhi	.L28
 510              		.loc 1 339 0 is_stmt 0 discriminator 1
 511 006e 9DF93B30 		ldrsb	r3, [sp, #59]
 512 0072 C3F10002 		rsb	r2, r3, #0
 513 0076 40F20003 		movw	r3, #:lower16:err_to_errno_table
 514 007a C0F20003 		movt	r3, #:upper16:err_to_errno_table
 515 007e 53F82230 		ldr	r3, [r3, r2, lsl #2]
 516 0082 01E0     		b	.L29
 517              	.L28:
 518              		.loc 1 339 0 discriminator 2
 519 0084 4FF00503 		mov	r3, #5
 520              	.L29:
 521              		.loc 1 339 0 discriminator 3
 522 0088 0F9A     		ldr	r2, [sp, #60]
 523 008a 1361     		str	r3, [r2, #16]
 524              		.loc 1 340 0 is_stmt 1 discriminator 3
 525 008c 4FF0FF33 		mov	r3, #-1
 526 0090 C6E0     		b	.L25
 527              	.L27:
 528              		.loc 1 342 0
 529 0092 0B9B     		ldr	r3, [sp, #44]
 530 0094 002B     		cmp	r3, #0
 531 0096 01D1     		bne	.L30
 532              		.loc 1 342 0 is_stmt 0 discriminator 1
 533 0098 FFF7FEFF 		bl	port_halt
 534              	.L30:
 535              		.loc 1 344 0 is_stmt 1 discriminator 1
 536 009c 0B9B     		ldr	r3, [sp, #44]
 537 009e 0B9A     		ldr	r2, [sp, #44]
 538 00a0 127F     		ldrb	r2, [r2, #28]	@ zero_extendqisi2
 539 00a2 42F00802 		orr	r2, r2, #8
 540 00a6 D2B2     		uxtb	r2, r2
 541 00a8 1A77     		strb	r2, [r3, #28]
 542              		.loc 1 347 0 discriminator 1
 543 00aa 0B99     		ldr	r1, [sp, #44]
 544 00ac 0AAA     		add	r2, sp, #40
 545 00ae 0DF12603 		add	r3, sp, #38
 546 00b2 0846     		mov	r0, r1
 547 00b4 1146     		mov	r1, r2
 548 00b6 1A46     		mov	r2, r3
 549 00b8 4FF00003 		mov	r3, #0
 550 00bc FFF7FEFF 		bl	netconn_getaddr
 551 00c0 0346     		mov	r3, r0
 552 00c2 8DF83B30 		strb	r3, [sp, #59]
 553              		.loc 1 348 0 discriminator 1
 554 00c6 9DF93B30 		ldrsb	r3, [sp, #59]
 555 00ca 002B     		cmp	r3, #0
 556 00cc 1BD0     		beq	.L31
 557              		.loc 1 350 0
 558 00ce 0B9B     		ldr	r3, [sp, #44]
 559 00d0 1846     		mov	r0, r3
 560 00d2 FFF7FEFF 		bl	netconn_delete
 561              		.loc 1 351 0
ARM GAS  /tmp/cc2wa78n.s 			page 11


 562 00d6 9DF93B30 		ldrsb	r3, [sp, #59]
 563 00da C3F10003 		rsb	r3, r3, #0
 564 00de 0F2B     		cmp	r3, #15
 565 00e0 0AD8     		bhi	.L32
 566              		.loc 1 351 0 is_stmt 0 discriminator 1
 567 00e2 9DF93B30 		ldrsb	r3, [sp, #59]
 568 00e6 C3F10002 		rsb	r2, r3, #0
 569 00ea 40F20003 		movw	r3, #:lower16:err_to_errno_table
 570 00ee C0F20003 		movt	r3, #:upper16:err_to_errno_table
 571 00f2 53F82230 		ldr	r3, [r3, r2, lsl #2]
 572 00f6 01E0     		b	.L33
 573              	.L32:
 574              		.loc 1 351 0 discriminator 2
 575 00f8 4FF00503 		mov	r3, #5
 576              	.L33:
 577              		.loc 1 351 0 discriminator 3
 578 00fc 0F9A     		ldr	r2, [sp, #60]
 579 00fe 1361     		str	r3, [r2, #16]
 580              		.loc 1 352 0 is_stmt 1 discriminator 3
 581 0100 4FF0FF33 		mov	r3, #-1
 582 0104 8CE0     		b	.L25
 583              	.L31:
 584              		.loc 1 358 0
 585 0106 029B     		ldr	r3, [sp, #8]
 586 0108 002B     		cmp	r3, #0
 587 010a 3CD0     		beq	.L34
 588              		.loc 1 359 0
 589 010c 019B     		ldr	r3, [sp, #4]
 590 010e 002B     		cmp	r3, #0
 591 0110 01D1     		bne	.L35
 592              		.loc 1 359 0 is_stmt 0 discriminator 1
 593 0112 FFF7FEFF 		bl	port_halt
 594              	.L35:
 595              		.loc 1 360 0 is_stmt 1
 596 0116 05AB     		add	r3, sp, #20
 597 0118 4FF00002 		mov	r2, #0
 598 011c 1A60     		str	r2, [r3, #0]
 599 011e 03F10403 		add	r3, r3, #4
 600 0122 4FF00002 		mov	r2, #0
 601 0126 1A60     		str	r2, [r3, #0]
 602 0128 03F10403 		add	r3, r3, #4
 603 012c 4FF00002 		mov	r2, #0
 604 0130 1A60     		str	r2, [r3, #0]
 605 0132 03F10403 		add	r3, r3, #4
 606 0136 4FF00002 		mov	r2, #0
 607 013a 1A60     		str	r2, [r3, #0]
 608 013c 03F10403 		add	r3, r3, #4
 609              		.loc 1 361 0
 610 0140 4FF01003 		mov	r3, #16
 611 0144 8DF81430 		strb	r3, [sp, #20]
 612              		.loc 1 362 0
 613 0148 4FF00203 		mov	r3, #2
 614 014c 8DF81530 		strb	r3, [sp, #21]
 615              		.loc 1 363 0
 616 0150 BDF82630 		ldrh	r3, [sp, #38]
 617 0154 1846     		mov	r0, r3
 618 0156 FFF7FEFF 		bl	lwip_htons
ARM GAS  /tmp/cc2wa78n.s 			page 12


 619 015a 0346     		mov	r3, r0
 620 015c ADF81630 		strh	r3, [sp, #22]	@ movhi
 621              		.loc 1 364 0
 622 0160 0A9B     		ldr	r3, [sp, #40]
 623 0162 0693     		str	r3, [sp, #24]
 624              		.loc 1 366 0
 625 0164 019B     		ldr	r3, [sp, #4]
 626 0166 1B68     		ldr	r3, [r3, #0]
 627 0168 102B     		cmp	r3, #16
 628 016a 03D9     		bls	.L36
 629              		.loc 1 367 0
 630 016c 019B     		ldr	r3, [sp, #4]
 631 016e 4FF01002 		mov	r2, #16
 632 0172 1A60     		str	r2, [r3, #0]
 633              	.L36:
 634              		.loc 1 369 0
 635 0174 019B     		ldr	r3, [sp, #4]
 636 0176 1B68     		ldr	r3, [r3, #0]
 637 0178 0299     		ldr	r1, [sp, #8]
 638 017a 05AA     		add	r2, sp, #20
 639 017c 0846     		mov	r0, r1
 640 017e 1146     		mov	r1, r2
 641 0180 1A46     		mov	r2, r3
 642 0182 FFF7FEFF 		bl	memcpy
 643              	.L34:
 644              		.loc 1 372 0
 645 0186 0B9B     		ldr	r3, [sp, #44]
 646 0188 1846     		mov	r0, r3
 647 018a 4FF00101 		mov	r1, #1
 648 018e FFF7FEFF 		bl	alloc_socket
 649 0192 0346     		mov	r3, r0
 650 0194 0D93     		str	r3, [sp, #52]
 651              		.loc 1 373 0
 652 0196 0D9B     		ldr	r3, [sp, #52]
 653 0198 B3F1FF3F 		cmp	r3, #-1
 654 019c 0AD1     		bne	.L37
 655              		.loc 1 374 0
 656 019e 0B9B     		ldr	r3, [sp, #44]
 657 01a0 1846     		mov	r0, r3
 658 01a2 FFF7FEFF 		bl	netconn_delete
 659              		.loc 1 375 0
 660 01a6 0F9B     		ldr	r3, [sp, #60]
 661 01a8 4FF01702 		mov	r2, #23
 662 01ac 1A61     		str	r2, [r3, #16]
 663              		.loc 1 376 0
 664 01ae 4FF0FF33 		mov	r3, #-1
 665 01b2 35E0     		b	.L25
 666              	.L37:
 667              		.loc 1 378 0
 668 01b4 0D9B     		ldr	r3, [sp, #52]
 669 01b6 002B     		cmp	r3, #0
 670 01b8 02DB     		blt	.L38
 671              		.loc 1 378 0 is_stmt 0 discriminator 2
 672 01ba 0D9B     		ldr	r3, [sp, #52]
 673 01bc 032B     		cmp	r3, #3
 674 01be 01DD     		ble	.L39
 675              	.L38:
ARM GAS  /tmp/cc2wa78n.s 			page 13


 676              		.loc 1 378 0 discriminator 1
 677 01c0 FFF7FEFF 		bl	port_halt
 678              	.L39:
 679              		.loc 1 379 0 is_stmt 1
 680 01c4 0B9B     		ldr	r3, [sp, #44]
 681 01c6 9A6A     		ldr	r2, [r3, #40]
 682 01c8 40F20003 		movw	r3, #:lower16:event_callback
 683 01cc C0F20003 		movt	r3, #:upper16:event_callback
 684 01d0 9A42     		cmp	r2, r3
 685 01d2 01D0     		beq	.L40
 686              		.loc 1 379 0 is_stmt 0 discriminator 1
 687 01d4 FFF7FEFF 		bl	port_halt
 688              	.L40:
 689              		.loc 1 380 0 is_stmt 1
 690 01d8 0D9A     		ldr	r2, [sp, #52]
 691 01da 1346     		mov	r3, r2
 692 01dc 4FEA4303 		lsl	r3, r3, #1
 693 01e0 9B18     		adds	r3, r3, r2
 694 01e2 4FEAC303 		lsl	r3, r3, #3
 695 01e6 1A46     		mov	r2, r3
 696 01e8 40F20003 		movw	r3, #:lower16:sockets
 697 01ec C0F20003 		movt	r3, #:upper16:sockets
 698 01f0 D318     		adds	r3, r2, r3
 699 01f2 0C93     		str	r3, [sp, #48]
 700              		.loc 1 388 0
 701 01f4 0C9B     		ldr	r3, [sp, #48]
 702 01f6 5B89     		ldrh	r3, [r3, #10]
 703 01f8 9AB2     		uxth	r2, r3
 704 01fa 0B9B     		ldr	r3, [sp, #44]
 705 01fc 9B69     		ldr	r3, [r3, #24]
 706 01fe 9BB2     		uxth	r3, r3
 707 0200 6FEA0303 		mvn	r3, r3
 708 0204 9BB2     		uxth	r3, r3
 709 0206 D318     		adds	r3, r2, r3
 710 0208 9BB2     		uxth	r3, r3
 711 020a 9AB2     		uxth	r2, r3
 712 020c 0C9B     		ldr	r3, [sp, #48]
 713 020e 5A81     		strh	r2, [r3, #10]	@ movhi
 714              		.loc 1 389 0
 715 0210 0B9B     		ldr	r3, [sp, #44]
 716 0212 0D9A     		ldr	r2, [sp, #52]
 717 0214 9A61     		str	r2, [r3, #24]
 718              		.loc 1 396 0
 719 0216 0F9B     		ldr	r3, [sp, #60]
 720 0218 4FF00002 		mov	r2, #0
 721 021c 1A61     		str	r2, [r3, #16]
 722              		.loc 1 397 0
 723 021e 0D9B     		ldr	r3, [sp, #52]
 724              	.L25:
 725              		.loc 1 398 0
 726 0220 1846     		mov	r0, r3
 727 0222 11B0     		add	sp, sp, #68
 728 0224 00BD     		pop	{pc}
 729              		.cfi_endproc
 730              	.LFE12:
 731              		.size	lwip_accept, .-lwip_accept
 732 0226 00BFAFF3 		.section	.text.lwip_bind,"ax",%progbits
ARM GAS  /tmp/cc2wa78n.s 			page 14


 732      0080AFF3 
 732      0080
 733              		.align	2
 734              		.p2align 4,,15
 735              		.global	lwip_bind
 736              		.thumb
 737              		.thumb_func
 738              		.type	lwip_bind, %function
 739              	lwip_bind:
 740              	.LFB13:
 741              		.loc 1 402 0
 742              		.cfi_startproc
 743              		@ args = 0, pretend = 0, frame = 32
 744              		@ frame_needed = 0, uses_anonymous_args = 0
 745 0000 10B5     		push	{r4, lr}
 746              	.LCFI7:
 747              		.cfi_def_cfa_offset 8
 748              		.cfi_offset 14, -4
 749              		.cfi_offset 4, -8
 750 0002 88B0     		sub	sp, sp, #32
 751              	.LCFI8:
 752              		.cfi_def_cfa_offset 40
 753 0004 0390     		str	r0, [sp, #12]
 754 0006 0291     		str	r1, [sp, #8]
 755 0008 0192     		str	r2, [sp, #4]
 756              		.loc 1 409 0
 757 000a 0398     		ldr	r0, [sp, #12]
 758 000c FFF7FEFF 		bl	get_socket
 759 0010 0346     		mov	r3, r0
 760 0012 0793     		str	r3, [sp, #28]
 761              		.loc 1 410 0
 762 0014 079B     		ldr	r3, [sp, #28]
 763 0016 002B     		cmp	r3, #0
 764 0018 02D1     		bne	.L42
 765              		.loc 1 411 0
 766 001a 4FF0FF33 		mov	r3, #-1
 767 001e 53E0     		b	.L43
 768              	.L42:
 769              		.loc 1 415 0
 770 0020 019B     		ldr	r3, [sp, #4]
 771 0022 102B     		cmp	r3, #16
 772 0024 08D1     		bne	.L44
 773              		.loc 1 415 0 is_stmt 0 discriminator 2
 774 0026 029B     		ldr	r3, [sp, #8]
 775 0028 5B78     		ldrb	r3, [r3, #1]	@ zero_extendqisi2
 776 002a 022B     		cmp	r3, #2
 777 002c 04D1     		bne	.L44
 778              		.loc 1 415 0 discriminator 3
 779 002e 029B     		ldr	r3, [sp, #8]
 780 0030 03F00303 		and	r3, r3, #3
 781 0034 002B     		cmp	r3, #0
 782 0036 0BD0     		beq	.L45
 783              	.L44:
 784              		.loc 1 415 0 discriminator 1
 785 0038 FFF7FEFF 		bl	port_halt
 786 003c 40F20003 		movw	r3, #:lower16:err_to_errno_table
 787 0040 C0F20003 		movt	r3, #:upper16:err_to_errno_table
ARM GAS  /tmp/cc2wa78n.s 			page 15


 788 0044 9A6B     		ldr	r2, [r3, #56]
 789 0046 079B     		ldr	r3, [sp, #28]
 790 0048 1A61     		str	r2, [r3, #16]
 791 004a 4FF0FF33 		mov	r3, #-1
 792 004e 3BE0     		b	.L43
 793              	.L45:
 794              		.loc 1 418 0 is_stmt 1
 795 0050 029B     		ldr	r3, [sp, #8]
 796 0052 0693     		str	r3, [sp, #24]
 797              		.loc 1 420 0
 798 0054 069B     		ldr	r3, [sp, #24]
 799 0056 5B68     		ldr	r3, [r3, #4]
 800 0058 0493     		str	r3, [sp, #16]
 801              		.loc 1 421 0
 802 005a 069B     		ldr	r3, [sp, #24]
 803 005c 5B88     		ldrh	r3, [r3, #2]	@ movhi
 804 005e ADF81630 		strh	r3, [sp, #22]	@ movhi
 805              		.loc 1 427 0
 806 0062 079B     		ldr	r3, [sp, #28]
 807 0064 1C68     		ldr	r4, [r3, #0]
 808 0066 BDF81630 		ldrh	r3, [sp, #22]
 809 006a 1846     		mov	r0, r3
 810 006c FFF7FEFF 		bl	lwip_ntohs
 811 0070 0346     		mov	r3, r0
 812 0072 04AA     		add	r2, sp, #16
 813 0074 2046     		mov	r0, r4
 814 0076 1146     		mov	r1, r2
 815 0078 1A46     		mov	r2, r3
 816 007a FFF7FEFF 		bl	netconn_bind
 817 007e 0346     		mov	r3, r0
 818 0080 8DF81530 		strb	r3, [sp, #21]
 819              		.loc 1 429 0
 820 0084 9DF91530 		ldrsb	r3, [sp, #21]
 821 0088 002B     		cmp	r3, #0
 822 008a 17D0     		beq	.L46
 823              		.loc 1 431 0
 824 008c 9DF91530 		ldrsb	r3, [sp, #21]
 825 0090 C3F10003 		rsb	r3, r3, #0
 826 0094 0F2B     		cmp	r3, #15
 827 0096 0AD8     		bhi	.L47
 828              		.loc 1 431 0 is_stmt 0 discriminator 1
 829 0098 9DF91530 		ldrsb	r3, [sp, #21]
 830 009c C3F10002 		rsb	r2, r3, #0
 831 00a0 40F20003 		movw	r3, #:lower16:err_to_errno_table
 832 00a4 C0F20003 		movt	r3, #:upper16:err_to_errno_table
 833 00a8 53F82230 		ldr	r3, [r3, r2, lsl #2]
 834 00ac 01E0     		b	.L48
 835              	.L47:
 836              		.loc 1 431 0 discriminator 2
 837 00ae 4FF00503 		mov	r3, #5
 838              	.L48:
 839              		.loc 1 431 0 discriminator 3
 840 00b2 079A     		ldr	r2, [sp, #28]
 841 00b4 1361     		str	r3, [r2, #16]
 842              		.loc 1 432 0 is_stmt 1 discriminator 3
 843 00b6 4FF0FF33 		mov	r3, #-1
 844 00ba 05E0     		b	.L43
ARM GAS  /tmp/cc2wa78n.s 			page 16


 845              	.L46:
 846              		.loc 1 436 0
 847 00bc 079B     		ldr	r3, [sp, #28]
 848 00be 4FF00002 		mov	r2, #0
 849 00c2 1A61     		str	r2, [r3, #16]
 850              		.loc 1 437 0
 851 00c4 4FF00003 		mov	r3, #0
 852              	.L43:
 853              		.loc 1 438 0
 854 00c8 1846     		mov	r0, r3
 855 00ca 08B0     		add	sp, sp, #32
 856 00cc 10BD     		pop	{r4, pc}
 857              		.cfi_endproc
 858              	.LFE13:
 859              		.size	lwip_bind, .-lwip_bind
 860 00ce 00BF     		.section	.text.lwip_close,"ax",%progbits
 861              		.align	2
 862              		.p2align 4,,15
 863              		.global	lwip_close
 864              		.thumb
 865              		.thumb_func
 866              		.type	lwip_close, %function
 867              	lwip_close:
 868              	.LFB14:
 869              		.loc 1 442 0
 870              		.cfi_startproc
 871              		@ args = 0, pretend = 0, frame = 16
 872              		@ frame_needed = 0, uses_anonymous_args = 0
 873 0000 00B5     		push	{lr}
 874              	.LCFI9:
 875              		.cfi_def_cfa_offset 4
 876              		.cfi_offset 14, -4
 877 0002 85B0     		sub	sp, sp, #20
 878              	.LCFI10:
 879              		.cfi_def_cfa_offset 24
 880 0004 0190     		str	r0, [sp, #4]
 881              		.loc 1 444 0
 882 0006 4FF00003 		mov	r3, #0
 883 000a 0393     		str	r3, [sp, #12]
 884              		.loc 1 448 0
 885 000c 0198     		ldr	r0, [sp, #4]
 886 000e FFF7FEFF 		bl	get_socket
 887 0012 0346     		mov	r3, r0
 888 0014 0293     		str	r3, [sp, #8]
 889              		.loc 1 449 0
 890 0016 029B     		ldr	r3, [sp, #8]
 891 0018 002B     		cmp	r3, #0
 892 001a 02D1     		bne	.L50
 893              		.loc 1 450 0
 894 001c 4FF0FF33 		mov	r3, #-1
 895 0020 1DE0     		b	.L51
 896              	.L50:
 897              		.loc 1 453 0
 898 0022 029B     		ldr	r3, [sp, #8]
 899 0024 1B68     		ldr	r3, [r3, #0]
 900 0026 002B     		cmp	r3, #0
 901 0028 08D0     		beq	.L52
ARM GAS  /tmp/cc2wa78n.s 			page 17


 902              		.loc 1 454 0
 903 002a 029B     		ldr	r3, [sp, #8]
 904 002c 1B68     		ldr	r3, [r3, #0]
 905 002e 1B78     		ldrb	r3, [r3, #0]	@ zero_extendqisi2
 906 0030 102B     		cmp	r3, #16
 907 0032 14BF     		ite	ne
 908 0034 0023     		movne	r3, #0
 909 0036 0123     		moveq	r3, #1
 910 0038 0393     		str	r3, [sp, #12]
 911 003a 05E0     		b	.L53
 912              	.L52:
 913              		.loc 1 456 0
 914 003c 029B     		ldr	r3, [sp, #8]
 915 003e 5B68     		ldr	r3, [r3, #4]
 916 0040 002B     		cmp	r3, #0
 917 0042 01D0     		beq	.L53
 918              		.loc 1 456 0 is_stmt 0 discriminator 1
 919 0044 FFF7FEFF 		bl	port_halt
 920              	.L53:
 921              		.loc 1 459 0 is_stmt 1
 922 0048 029B     		ldr	r3, [sp, #8]
 923 004a 1B68     		ldr	r3, [r3, #0]
 924 004c 1846     		mov	r0, r3
 925 004e FFF7FEFF 		bl	netconn_delete
 926              		.loc 1 461 0
 927 0052 0298     		ldr	r0, [sp, #8]
 928 0054 0399     		ldr	r1, [sp, #12]
 929 0056 FFF7FEFF 		bl	free_socket
 930              		.loc 1 463 0
 931 005a 4FF00003 		mov	r3, #0
 932              	.L51:
 933              		.loc 1 464 0
 934 005e 1846     		mov	r0, r3
 935 0060 05B0     		add	sp, sp, #20
 936 0062 00BD     		pop	{pc}
 937              		.cfi_endproc
 938              	.LFE14:
 939              		.size	lwip_close, .-lwip_close
 940 0064 AFF30080 		.section	.text.lwip_connect,"ax",%progbits
 940      AFF30080 
 940      AFF30080 
 941              		.align	2
 942              		.p2align 4,,15
 943              		.global	lwip_connect
 944              		.thumb
 945              		.thumb_func
 946              		.type	lwip_connect, %function
 947              	lwip_connect:
 948              	.LFB15:
 949              		.loc 1 468 0
 950              		.cfi_startproc
 951              		@ args = 0, pretend = 0, frame = 40
 952              		@ frame_needed = 0, uses_anonymous_args = 0
 953 0000 10B5     		push	{r4, lr}
 954              	.LCFI11:
 955              		.cfi_def_cfa_offset 8
 956              		.cfi_offset 14, -4
ARM GAS  /tmp/cc2wa78n.s 			page 18


 957              		.cfi_offset 4, -8
 958 0002 8AB0     		sub	sp, sp, #40
 959              	.LCFI12:
 960              		.cfi_def_cfa_offset 48
 961 0004 0390     		str	r0, [sp, #12]
 962 0006 0291     		str	r1, [sp, #8]
 963 0008 0192     		str	r2, [sp, #4]
 964              		.loc 1 473 0
 965 000a 0398     		ldr	r0, [sp, #12]
 966 000c FFF7FEFF 		bl	get_socket
 967 0010 0346     		mov	r3, r0
 968 0012 0893     		str	r3, [sp, #32]
 969              		.loc 1 474 0
 970 0014 089B     		ldr	r3, [sp, #32]
 971 0016 002B     		cmp	r3, #0
 972 0018 02D1     		bne	.L55
 973              		.loc 1 475 0
 974 001a 4FF0FF33 		mov	r3, #-1
 975 001e 60E0     		b	.L56
 976              	.L55:
 977              		.loc 1 479 0
 978 0020 019B     		ldr	r3, [sp, #4]
 979 0022 102B     		cmp	r3, #16
 980 0024 08D1     		bne	.L57
 981              		.loc 1 479 0 is_stmt 0 discriminator 2
 982 0026 029B     		ldr	r3, [sp, #8]
 983 0028 5B78     		ldrb	r3, [r3, #1]	@ zero_extendqisi2
 984 002a 022B     		cmp	r3, #2
 985 002c 04D1     		bne	.L57
 986              		.loc 1 479 0 discriminator 3
 987 002e 029B     		ldr	r3, [sp, #8]
 988 0030 03F00303 		and	r3, r3, #3
 989 0034 002B     		cmp	r3, #0
 990 0036 0BD0     		beq	.L58
 991              	.L57:
 992              		.loc 1 479 0 discriminator 1
 993 0038 FFF7FEFF 		bl	port_halt
 994 003c 40F20003 		movw	r3, #:lower16:err_to_errno_table
 995 0040 C0F20003 		movt	r3, #:upper16:err_to_errno_table
 996 0044 9A6B     		ldr	r2, [r3, #56]
 997 0046 089B     		ldr	r3, [sp, #32]
 998 0048 1A61     		str	r2, [r3, #16]
 999 004a 4FF0FF33 		mov	r3, #-1
 1000 004e 48E0     		b	.L56
 1001              	.L58:
 1002              		.loc 1 482 0 is_stmt 1
 1003 0050 029B     		ldr	r3, [sp, #8]
 1004 0052 0793     		str	r3, [sp, #28]
 1005              		.loc 1 484 0
 1006 0054 079B     		ldr	r3, [sp, #28]
 1007 0056 5B78     		ldrb	r3, [r3, #1]	@ zero_extendqisi2
 1008 0058 002B     		cmp	r3, #0
 1009 005a 08D1     		bne	.L59
 1010              		.loc 1 486 0
 1011 005c 089B     		ldr	r3, [sp, #32]
 1012 005e 1B68     		ldr	r3, [r3, #0]
 1013 0060 1846     		mov	r0, r3
ARM GAS  /tmp/cc2wa78n.s 			page 19


 1014 0062 FFF7FEFF 		bl	netconn_disconnect
 1015 0066 0346     		mov	r3, r0
 1016 0068 8DF82730 		strb	r3, [sp, #39]
 1017 006c 17E0     		b	.L60
 1018              	.L59:
 1019              	.LBB2:
 1020              		.loc 1 491 0
 1021 006e 079B     		ldr	r3, [sp, #28]
 1022 0070 5B68     		ldr	r3, [r3, #4]
 1023 0072 0593     		str	r3, [sp, #20]
 1024              		.loc 1 492 0
 1025 0074 079B     		ldr	r3, [sp, #28]
 1026 0076 5B88     		ldrh	r3, [r3, #2]	@ movhi
 1027 0078 ADF81A30 		strh	r3, [sp, #26]	@ movhi
 1028              		.loc 1 498 0
 1029 007c 089B     		ldr	r3, [sp, #32]
 1030 007e 1C68     		ldr	r4, [r3, #0]
 1031 0080 BDF81A30 		ldrh	r3, [sp, #26]
 1032 0084 1846     		mov	r0, r3
 1033 0086 FFF7FEFF 		bl	lwip_ntohs
 1034 008a 0346     		mov	r3, r0
 1035 008c 05AA     		add	r2, sp, #20
 1036 008e 2046     		mov	r0, r4
 1037 0090 1146     		mov	r1, r2
 1038 0092 1A46     		mov	r2, r3
 1039 0094 FFF7FEFF 		bl	netconn_connect
 1040 0098 0346     		mov	r3, r0
 1041 009a 8DF82730 		strb	r3, [sp, #39]
 1042              	.L60:
 1043              	.LBE2:
 1044              		.loc 1 501 0
 1045 009e 9DF92730 		ldrsb	r3, [sp, #39]
 1046 00a2 002B     		cmp	r3, #0
 1047 00a4 17D0     		beq	.L61
 1048              		.loc 1 503 0
 1049 00a6 9DF92730 		ldrsb	r3, [sp, #39]
 1050 00aa C3F10003 		rsb	r3, r3, #0
 1051 00ae 0F2B     		cmp	r3, #15
 1052 00b0 0AD8     		bhi	.L62
 1053              		.loc 1 503 0 is_stmt 0 discriminator 1
 1054 00b2 9DF92730 		ldrsb	r3, [sp, #39]
 1055 00b6 C3F10002 		rsb	r2, r3, #0
 1056 00ba 40F20003 		movw	r3, #:lower16:err_to_errno_table
 1057 00be C0F20003 		movt	r3, #:upper16:err_to_errno_table
 1058 00c2 53F82230 		ldr	r3, [r3, r2, lsl #2]
 1059 00c6 01E0     		b	.L63
 1060              	.L62:
 1061              		.loc 1 503 0 discriminator 2
 1062 00c8 4FF00503 		mov	r3, #5
 1063              	.L63:
 1064              		.loc 1 503 0 discriminator 3
 1065 00cc 089A     		ldr	r2, [sp, #32]
 1066 00ce 1361     		str	r3, [r2, #16]
 1067              		.loc 1 504 0 is_stmt 1 discriminator 3
 1068 00d0 4FF0FF33 		mov	r3, #-1
 1069 00d4 05E0     		b	.L56
 1070              	.L61:
ARM GAS  /tmp/cc2wa78n.s 			page 20


 1071              		.loc 1 508 0
 1072 00d6 089B     		ldr	r3, [sp, #32]
 1073 00d8 4FF00002 		mov	r2, #0
 1074 00dc 1A61     		str	r2, [r3, #16]
 1075              		.loc 1 509 0
 1076 00de 4FF00003 		mov	r3, #0
 1077              	.L56:
 1078              		.loc 1 510 0
 1079 00e2 1846     		mov	r0, r3
 1080 00e4 0AB0     		add	sp, sp, #40
 1081 00e6 10BD     		pop	{r4, pc}
 1082              		.cfi_endproc
 1083              	.LFE15:
 1084              		.size	lwip_connect, .-lwip_connect
 1085 00e8 AFF30080 		.section	.text.lwip_listen,"ax",%progbits
 1085      AFF30080 
 1086              		.align	2
 1087              		.p2align 4,,15
 1088              		.global	lwip_listen
 1089              		.thumb
 1090              		.thumb_func
 1091              		.type	lwip_listen, %function
 1092              	lwip_listen:
 1093              	.LFB16:
 1094              		.loc 1 522 0
 1095              		.cfi_startproc
 1096              		@ args = 0, pretend = 0, frame = 16
 1097              		@ frame_needed = 0, uses_anonymous_args = 0
 1098 0000 00B5     		push	{lr}
 1099              	.LCFI13:
 1100              		.cfi_def_cfa_offset 4
 1101              		.cfi_offset 14, -4
 1102 0002 85B0     		sub	sp, sp, #20
 1103              	.LCFI14:
 1104              		.cfi_def_cfa_offset 24
 1105 0004 0190     		str	r0, [sp, #4]
 1106 0006 0091     		str	r1, [sp, #0]
 1107              		.loc 1 528 0
 1108 0008 0198     		ldr	r0, [sp, #4]
 1109 000a FFF7FEFF 		bl	get_socket
 1110 000e 0346     		mov	r3, r0
 1111 0010 0393     		str	r3, [sp, #12]
 1112              		.loc 1 529 0
 1113 0012 039B     		ldr	r3, [sp, #12]
 1114 0014 002B     		cmp	r3, #0
 1115 0016 02D1     		bne	.L65
 1116              		.loc 1 530 0
 1117 0018 4FF0FF33 		mov	r3, #-1
 1118 001c 36E0     		b	.L66
 1119              	.L65:
 1120              		.loc 1 534 0
 1121 001e 009B     		ldr	r3, [sp, #0]
 1122 0020 FE2B     		cmp	r3, #254
 1123 0022 03DC     		bgt	.L67
 1124              		.loc 1 534 0 is_stmt 0 discriminator 1
 1125 0024 009B     		ldr	r3, [sp, #0]
 1126 0026 23EAE373 		bic	r3, r3, r3, asr #31
ARM GAS  /tmp/cc2wa78n.s 			page 21


 1127 002a 01E0     		b	.L68
 1128              	.L67:
 1129              		.loc 1 534 0 discriminator 2
 1130 002c 4FF0FF03 		mov	r3, #255
 1131              	.L68:
 1132              		.loc 1 534 0 discriminator 3
 1133 0030 0093     		str	r3, [sp, #0]
 1134              		.loc 1 536 0 is_stmt 1 discriminator 3
 1135 0032 039B     		ldr	r3, [sp, #12]
 1136 0034 1A68     		ldr	r2, [r3, #0]
 1137 0036 009B     		ldr	r3, [sp, #0]
 1138 0038 DBB2     		uxtb	r3, r3
 1139 003a 1046     		mov	r0, r2
 1140 003c 1946     		mov	r1, r3
 1141 003e FFF7FEFF 		bl	netconn_listen_with_backlog
 1142 0042 0346     		mov	r3, r0
 1143 0044 8DF80B30 		strb	r3, [sp, #11]
 1144              		.loc 1 538 0 discriminator 3
 1145 0048 9DF90B30 		ldrsb	r3, [sp, #11]
 1146 004c 002B     		cmp	r3, #0
 1147 004e 17D0     		beq	.L69
 1148              		.loc 1 540 0
 1149 0050 9DF90B30 		ldrsb	r3, [sp, #11]
 1150 0054 C3F10003 		rsb	r3, r3, #0
 1151 0058 0F2B     		cmp	r3, #15
 1152 005a 0AD8     		bhi	.L70
 1153              		.loc 1 540 0 is_stmt 0 discriminator 1
 1154 005c 9DF90B30 		ldrsb	r3, [sp, #11]
 1155 0060 C3F10002 		rsb	r2, r3, #0
 1156 0064 40F20003 		movw	r3, #:lower16:err_to_errno_table
 1157 0068 C0F20003 		movt	r3, #:upper16:err_to_errno_table
 1158 006c 53F82230 		ldr	r3, [r3, r2, lsl #2]
 1159 0070 01E0     		b	.L71
 1160              	.L70:
 1161              		.loc 1 540 0 discriminator 2
 1162 0072 4FF00503 		mov	r3, #5
 1163              	.L71:
 1164              		.loc 1 540 0 discriminator 3
 1165 0076 039A     		ldr	r2, [sp, #12]
 1166 0078 1361     		str	r3, [r2, #16]
 1167              		.loc 1 541 0 is_stmt 1 discriminator 3
 1168 007a 4FF0FF33 		mov	r3, #-1
 1169 007e 05E0     		b	.L66
 1170              	.L69:
 1171              		.loc 1 544 0
 1172 0080 039B     		ldr	r3, [sp, #12]
 1173 0082 4FF00002 		mov	r2, #0
 1174 0086 1A61     		str	r2, [r3, #16]
 1175              		.loc 1 545 0
 1176 0088 4FF00003 		mov	r3, #0
 1177              	.L66:
 1178              		.loc 1 546 0
 1179 008c 1846     		mov	r0, r3
 1180 008e 05B0     		add	sp, sp, #20
 1181 0090 00BD     		pop	{pc}
 1182              		.cfi_endproc
 1183              	.LFE16:
ARM GAS  /tmp/cc2wa78n.s 			page 22


 1184              		.size	lwip_listen, .-lwip_listen
 1185 0092 00BFAFF3 		.section	.text.lwip_recvfrom,"ax",%progbits
 1185      0080AFF3 
 1185      0080AFF3 
 1185      0080
 1186              		.align	2
 1187              		.p2align 4,,15
 1188              		.global	lwip_recvfrom
 1189              		.thumb
 1190              		.thumb_func
 1191              		.type	lwip_recvfrom, %function
 1192              	lwip_recvfrom:
 1193              	.LFB17:
 1194              		.loc 1 551 0
 1195              		.cfi_startproc
 1196              		@ args = 8, pretend = 0, frame = 72
 1197              		@ frame_needed = 0, uses_anonymous_args = 0
 1198 0000 00B5     		push	{lr}
 1199              	.LCFI15:
 1200              		.cfi_def_cfa_offset 4
 1201              		.cfi_offset 14, -4
 1202 0002 93B0     		sub	sp, sp, #76
 1203              	.LCFI16:
 1204              		.cfi_def_cfa_offset 80
 1205 0004 0390     		str	r0, [sp, #12]
 1206 0006 0291     		str	r1, [sp, #8]
 1207 0008 0192     		str	r2, [sp, #4]
 1208 000a 0093     		str	r3, [sp, #0]
 1209              		.loc 1 553 0
 1210 000c 4FF00003 		mov	r3, #0
 1211 0010 0A93     		str	r3, [sp, #40]
 1212              		.loc 1 556 0
 1213 0012 4FF00003 		mov	r3, #0
 1214 0016 0F93     		str	r3, [sp, #60]
 1215              		.loc 1 559 0
 1216 0018 4FF00003 		mov	r3, #0
 1217 001c 8DF83730 		strb	r3, [sp, #55]
 1218              		.loc 1 563 0
 1219 0020 0398     		ldr	r0, [sp, #12]
 1220 0022 FFF7FEFF 		bl	get_socket
 1221 0026 0346     		mov	r3, r0
 1222 0028 0C93     		str	r3, [sp, #48]
 1223              		.loc 1 564 0
 1224 002a 0C9B     		ldr	r3, [sp, #48]
 1225 002c 002B     		cmp	r3, #0
 1226 002e 02D1     		bne	.L73
 1227              		.loc 1 565 0
 1228 0030 4FF0FF33 		mov	r3, #-1
 1229 0034 8BE1     		b	.L74
 1230              	.L73:
 1231              		.loc 1 571 0
 1232 0036 0C9B     		ldr	r3, [sp, #48]
 1233 0038 5B68     		ldr	r3, [r3, #4]
 1234 003a 002B     		cmp	r3, #0
 1235 003c 03D0     		beq	.L75
 1236              		.loc 1 572 0
 1237 003e 0C9B     		ldr	r3, [sp, #48]
ARM GAS  /tmp/cc2wa78n.s 			page 23


 1238 0040 5B68     		ldr	r3, [r3, #4]
 1239 0042 0A93     		str	r3, [sp, #40]
 1240 0044 7DE0     		b	.L76
 1241              	.L75:
 1242              		.loc 1 575 0
 1243 0046 009B     		ldr	r3, [sp, #0]
 1244 0048 03F00803 		and	r3, r3, #8
 1245 004c 002B     		cmp	r3, #0
 1246 004e 06D1     		bne	.L77
 1247              		.loc 1 575 0 is_stmt 0 discriminator 2
 1248 0050 0C9B     		ldr	r3, [sp, #48]
 1249 0052 1B68     		ldr	r3, [r3, #0]
 1250 0054 1B7F     		ldrb	r3, [r3, #28]	@ zero_extendqisi2
 1251 0056 03F00203 		and	r3, r3, #2
 1252 005a 002B     		cmp	r3, #0
 1253 005c 1BD0     		beq	.L78
 1254              	.L77:
 1255              		.loc 1 576 0 is_stmt 1 discriminator 1
 1256 005e 0C9B     		ldr	r3, [sp, #48]
 1257 0060 5B89     		ldrh	r3, [r3, #10]
 1258              		.loc 1 575 0 discriminator 1
 1259 0062 1BB2     		sxth	r3, r3
 1260 0064 002B     		cmp	r3, #0
 1261 0066 16DC     		bgt	.L78
 1262              		.loc 1 577 0
 1263 0068 0F9B     		ldr	r3, [sp, #60]
 1264 006a 002B     		cmp	r3, #0
 1265 006c 0CDD     		ble	.L79
 1266              		.loc 1 579 0
 1267 006e 0C9B     		ldr	r3, [sp, #48]
 1268 0070 1A68     		ldr	r2, [r3, #0]
 1269 0072 0F9B     		ldr	r3, [sp, #60]
 1270 0074 1046     		mov	r0, r2
 1271 0076 1946     		mov	r1, r3
 1272 0078 FFF7FEFF 		bl	netconn_recved
 1273              		.loc 1 581 0
 1274 007c 0C9B     		ldr	r3, [sp, #48]
 1275 007e 4FF00002 		mov	r2, #0
 1276 0082 1A61     		str	r2, [r3, #16]
 1277              		.loc 1 582 0
 1278 0084 0F9B     		ldr	r3, [sp, #60]
 1279 0086 62E1     		b	.L74
 1280              	.L79:
 1281              		.loc 1 585 0
 1282 0088 0C9B     		ldr	r3, [sp, #48]
 1283 008a 4FF00B02 		mov	r2, #11
 1284 008e 1A61     		str	r2, [r3, #16]
 1285              		.loc 1 586 0
 1286 0090 4FF0FF33 		mov	r3, #-1
 1287 0094 5BE1     		b	.L74
 1288              	.L78:
 1289              		.loc 1 591 0
 1290 0096 0C9B     		ldr	r3, [sp, #48]
 1291 0098 1B68     		ldr	r3, [r3, #0]
 1292 009a 1B78     		ldrb	r3, [r3, #0]	@ zero_extendqisi2
 1293 009c 102B     		cmp	r3, #16
 1294 009e 0AD1     		bne	.L80
ARM GAS  /tmp/cc2wa78n.s 			page 24


 1295              		.loc 1 592 0
 1296 00a0 0C9B     		ldr	r3, [sp, #48]
 1297 00a2 1A68     		ldr	r2, [r3, #0]
 1298 00a4 0AAB     		add	r3, sp, #40
 1299 00a6 1046     		mov	r0, r2
 1300 00a8 1946     		mov	r1, r3
 1301 00aa FFF7FEFF 		bl	netconn_recv_tcp_pbuf
 1302 00ae 0346     		mov	r3, r0
 1303 00b0 8DF83630 		strb	r3, [sp, #54]
 1304 00b4 09E0     		b	.L81
 1305              	.L80:
 1306              		.loc 1 594 0
 1307 00b6 0C9B     		ldr	r3, [sp, #48]
 1308 00b8 1A68     		ldr	r2, [r3, #0]
 1309 00ba 0AAB     		add	r3, sp, #40
 1310 00bc 1046     		mov	r0, r2
 1311 00be 1946     		mov	r1, r3
 1312 00c0 FFF7FEFF 		bl	netconn_recv
 1313 00c4 0346     		mov	r3, r0
 1314 00c6 8DF83630 		strb	r3, [sp, #54]
 1315              	.L81:
 1316              		.loc 1 599 0
 1317 00ca 9DF93630 		ldrsb	r3, [sp, #54]
 1318 00ce 002B     		cmp	r3, #0
 1319 00d0 2FD0     		beq	.L82
 1320              		.loc 1 600 0
 1321 00d2 0F9B     		ldr	r3, [sp, #60]
 1322 00d4 002B     		cmp	r3, #0
 1323 00d6 0CDD     		ble	.L83
 1324              		.loc 1 602 0
 1325 00d8 0C9B     		ldr	r3, [sp, #48]
 1326 00da 1A68     		ldr	r2, [r3, #0]
 1327 00dc 0F9B     		ldr	r3, [sp, #60]
 1328 00de 1046     		mov	r0, r2
 1329 00e0 1946     		mov	r1, r3
 1330 00e2 FFF7FEFF 		bl	netconn_recved
 1331              		.loc 1 604 0
 1332 00e6 0C9B     		ldr	r3, [sp, #48]
 1333 00e8 4FF00002 		mov	r2, #0
 1334 00ec 1A61     		str	r2, [r3, #16]
 1335              		.loc 1 605 0
 1336 00ee 0F9B     		ldr	r3, [sp, #60]
 1337 00f0 2DE1     		b	.L74
 1338              	.L83:
 1339              		.loc 1 610 0
 1340 00f2 9DF93630 		ldrsb	r3, [sp, #54]
 1341 00f6 C3F10003 		rsb	r3, r3, #0
 1342 00fa 0F2B     		cmp	r3, #15
 1343 00fc 0AD8     		bhi	.L84
 1344              		.loc 1 610 0 is_stmt 0 discriminator 1
 1345 00fe 9DF93630 		ldrsb	r3, [sp, #54]
 1346 0102 C3F10002 		rsb	r2, r3, #0
 1347 0106 40F20003 		movw	r3, #:lower16:err_to_errno_table
 1348 010a C0F20003 		movt	r3, #:upper16:err_to_errno_table
 1349 010e 53F82230 		ldr	r3, [r3, r2, lsl #2]
 1350 0112 01E0     		b	.L85
 1351              	.L84:
ARM GAS  /tmp/cc2wa78n.s 			page 25


 1352              		.loc 1 610 0 discriminator 2
 1353 0114 4FF00503 		mov	r3, #5
 1354              	.L85:
 1355              		.loc 1 610 0 discriminator 3
 1356 0118 0C9A     		ldr	r2, [sp, #48]
 1357 011a 1361     		str	r3, [r2, #16]
 1358              		.loc 1 611 0 is_stmt 1 discriminator 3
 1359 011c 9DF93630 		ldrsb	r3, [sp, #54]
 1360 0120 13F10C0F 		cmn	r3, #12
 1361 0124 02D1     		bne	.L86
 1362              		.loc 1 612 0
 1363 0126 4FF00003 		mov	r3, #0
 1364 012a 10E1     		b	.L74
 1365              	.L86:
 1366              		.loc 1 614 0
 1367 012c 4FF0FF33 		mov	r3, #-1
 1368 0130 0DE1     		b	.L74
 1369              	.L82:
 1370              		.loc 1 617 0
 1371 0132 0A9B     		ldr	r3, [sp, #40]
 1372 0134 002B     		cmp	r3, #0
 1373 0136 01D1     		bne	.L87
 1374              		.loc 1 617 0 is_stmt 0 discriminator 1
 1375 0138 FFF7FEFF 		bl	port_halt
 1376              	.L87:
 1377              		.loc 1 618 0 is_stmt 1
 1378 013c 0A9A     		ldr	r2, [sp, #40]
 1379 013e 0C9B     		ldr	r3, [sp, #48]
 1380 0140 5A60     		str	r2, [r3, #4]
 1381              	.L76:
 1382              		.loc 1 621 0
 1383 0142 0C9B     		ldr	r3, [sp, #48]
 1384 0144 1B68     		ldr	r3, [r3, #0]
 1385 0146 1B78     		ldrb	r3, [r3, #0]	@ zero_extendqisi2
 1386 0148 102B     		cmp	r3, #16
 1387 014a 02D1     		bne	.L88
 1388              		.loc 1 622 0
 1389 014c 0A9B     		ldr	r3, [sp, #40]
 1390 014e 1193     		str	r3, [sp, #68]
 1391 0150 02E0     		b	.L89
 1392              	.L88:
 1393              		.loc 1 624 0
 1394 0152 0A9B     		ldr	r3, [sp, #40]
 1395 0154 1B68     		ldr	r3, [r3, #0]
 1396 0156 1193     		str	r3, [sp, #68]
 1397              	.L89:
 1398              		.loc 1 626 0
 1399 0158 119B     		ldr	r3, [sp, #68]
 1400 015a 1B89     		ldrh	r3, [r3, #8]	@ movhi
 1401 015c ADF82E30 		strh	r3, [sp, #46]	@ movhi
 1402              		.loc 1 630 0
 1403 0160 0C9B     		ldr	r3, [sp, #48]
 1404 0162 1B89     		ldrh	r3, [r3, #8]
 1405 0164 BDF82E20 		ldrh	r2, [sp, #46]	@ movhi
 1406 0168 D31A     		subs	r3, r2, r3
 1407 016a ADF82E30 		strh	r3, [sp, #46]	@ movhi
 1408              		.loc 1 632 0
ARM GAS  /tmp/cc2wa78n.s 			page 26


 1409 016e BDF82E20 		ldrh	r2, [sp, #46]
 1410 0172 019B     		ldr	r3, [sp, #4]
 1411 0174 9A42     		cmp	r2, r3
 1412 0176 04D2     		bcs	.L90
 1413              		.loc 1 633 0
 1414 0178 BDF82E30 		ldrh	r3, [sp, #46]	@ movhi
 1415 017c ADF84230 		strh	r3, [sp, #66]	@ movhi
 1416 0180 02E0     		b	.L91
 1417              	.L90:
 1418              		.loc 1 635 0
 1419 0182 019B     		ldr	r3, [sp, #4]
 1420 0184 ADF84230 		strh	r3, [sp, #66]	@ movhi
 1421              	.L91:
 1422              		.loc 1 640 0
 1423 0188 0F9B     		ldr	r3, [sp, #60]
 1424 018a 029A     		ldr	r2, [sp, #8]
 1425 018c D118     		adds	r1, r2, r3
 1426 018e 0C9B     		ldr	r3, [sp, #48]
 1427 0190 1B89     		ldrh	r3, [r3, #8]
 1428 0192 BDF84220 		ldrh	r2, [sp, #66]
 1429 0196 1198     		ldr	r0, [sp, #68]
 1430 0198 FFF7FEFF 		bl	pbuf_copy_partial
 1431              		.loc 1 642 0
 1432 019c BDF84230 		ldrh	r3, [sp, #66]
 1433 01a0 0F9A     		ldr	r2, [sp, #60]
 1434 01a2 D318     		adds	r3, r2, r3
 1435 01a4 0F93     		str	r3, [sp, #60]
 1436              		.loc 1 644 0
 1437 01a6 0C9B     		ldr	r3, [sp, #48]
 1438 01a8 1B68     		ldr	r3, [r3, #0]
 1439 01aa 1B78     		ldrb	r3, [r3, #0]	@ zero_extendqisi2
 1440 01ac 102B     		cmp	r3, #16
 1441 01ae 25D1     		bne	.L92
 1442              		.loc 1 645 0
 1443 01b0 BDF84220 		ldrh	r2, [sp, #66]
 1444 01b4 019B     		ldr	r3, [sp, #4]
 1445 01b6 9A42     		cmp	r2, r3
 1446 01b8 01D9     		bls	.L93
 1447              		.loc 1 645 0 is_stmt 0 discriminator 1
 1448 01ba FFF7FEFF 		bl	port_halt
 1449              	.L93:
 1450              		.loc 1 646 0 is_stmt 1
 1451 01be BDF84230 		ldrh	r3, [sp, #66]
 1452 01c2 019A     		ldr	r2, [sp, #4]
 1453 01c4 D31A     		subs	r3, r2, r3
 1454 01c6 0193     		str	r3, [sp, #4]
 1455              		.loc 1 647 0
 1456 01c8 019B     		ldr	r3, [sp, #4]
 1457 01ca 002B     		cmp	r3, #0
 1458 01cc 11D0     		beq	.L94
 1459              		.loc 1 648 0 discriminator 1
 1460 01ce 119B     		ldr	r3, [sp, #68]
 1461 01d0 5B7B     		ldrb	r3, [r3, #13]	@ zero_extendqisi2
 1462              		.loc 1 647 0 discriminator 1
 1463 01d2 03F00103 		and	r3, r3, #1
 1464 01d6 DBB2     		uxtb	r3, r3
 1465 01d8 002B     		cmp	r3, #0
ARM GAS  /tmp/cc2wa78n.s 			page 27


 1466 01da 0AD1     		bne	.L94
 1467              		.loc 1 649 0
 1468 01dc 0C9B     		ldr	r3, [sp, #48]
 1469 01de 5B89     		ldrh	r3, [r3, #10]
 1470              		.loc 1 648 0
 1471 01e0 1BB2     		sxth	r3, r3
 1472 01e2 002B     		cmp	r3, #0
 1473 01e4 05DD     		ble	.L94
 1474              		.loc 1 650 0
 1475 01e6 009B     		ldr	r3, [sp, #0]
 1476 01e8 03F00103 		and	r3, r3, #1
 1477 01ec DBB2     		uxtb	r3, r3
 1478              		.loc 1 649 0
 1479 01ee 002B     		cmp	r3, #0
 1480 01f0 08D0     		beq	.L95
 1481              	.L94:
 1482              		.loc 1 651 0
 1483 01f2 4FF00103 		mov	r3, #1
 1484 01f6 8DF83730 		strb	r3, [sp, #55]
 1485 01fa 03E0     		b	.L95
 1486              	.L92:
 1487              		.loc 1 654 0
 1488 01fc 4FF00103 		mov	r3, #1
 1489 0200 8DF83730 		strb	r3, [sp, #55]
 1490              	.L95:
 1491              		.loc 1 658 0
 1492 0204 9DF83730 		ldrb	r3, [sp, #55]	@ zero_extendqisi2
 1493 0208 002B     		cmp	r3, #0
 1494 020a 59D0     		beq	.L96
 1495              	.LBB3:
 1496              		.loc 1 660 0
 1497 020c 149B     		ldr	r3, [sp, #80]
 1498 020e 002B     		cmp	r3, #0
 1499 0210 56D0     		beq	.L96
 1500              		.loc 1 660 0 is_stmt 0 discriminator 1
 1501 0212 159B     		ldr	r3, [sp, #84]
 1502 0214 002B     		cmp	r3, #0
 1503 0216 53D0     		beq	.L96
 1504              	.LBB4:
 1505              		.loc 1 663 0 is_stmt 1
 1506 0218 0C9B     		ldr	r3, [sp, #48]
 1507 021a 1B68     		ldr	r3, [r3, #0]
 1508 021c 1B78     		ldrb	r3, [r3, #0]	@ zero_extendqisi2
 1509 021e 102B     		cmp	r3, #16
 1510 0220 0DD1     		bne	.L97
 1511              		.loc 1 664 0
 1512 0222 08AB     		add	r3, sp, #32
 1513 0224 0E93     		str	r3, [sp, #56]
 1514              		.loc 1 665 0
 1515 0226 0C9B     		ldr	r3, [sp, #48]
 1516 0228 1A68     		ldr	r2, [r3, #0]
 1517 022a 0DF12603 		add	r3, sp, #38
 1518 022e 1046     		mov	r0, r2
 1519 0230 0E99     		ldr	r1, [sp, #56]
 1520 0232 1A46     		mov	r2, r3
 1521 0234 4FF00003 		mov	r3, #0
 1522 0238 FFF7FEFF 		bl	netconn_getaddr
ARM GAS  /tmp/cc2wa78n.s 			page 28


 1523 023c 07E0     		b	.L98
 1524              	.L97:
 1525              		.loc 1 667 0
 1526 023e 0A9B     		ldr	r3, [sp, #40]
 1527 0240 03F10803 		add	r3, r3, #8
 1528 0244 0E93     		str	r3, [sp, #56]
 1529              		.loc 1 668 0
 1530 0246 0A9B     		ldr	r3, [sp, #40]
 1531 0248 9B89     		ldrh	r3, [r3, #12]
 1532 024a ADF82630 		strh	r3, [sp, #38]	@ movhi
 1533              	.L98:
 1534              		.loc 1 671 0
 1535 024e 04AB     		add	r3, sp, #16
 1536 0250 4FF00002 		mov	r2, #0
 1537 0254 1A60     		str	r2, [r3, #0]
 1538 0256 03F10403 		add	r3, r3, #4
 1539 025a 4FF00002 		mov	r2, #0
 1540 025e 1A60     		str	r2, [r3, #0]
 1541 0260 03F10403 		add	r3, r3, #4
 1542 0264 4FF00002 		mov	r2, #0
 1543 0268 1A60     		str	r2, [r3, #0]
 1544 026a 03F10403 		add	r3, r3, #4
 1545 026e 4FF00002 		mov	r2, #0
 1546 0272 1A60     		str	r2, [r3, #0]
 1547 0274 03F10403 		add	r3, r3, #4
 1548              		.loc 1 672 0
 1549 0278 4FF01003 		mov	r3, #16
 1550 027c 8DF81030 		strb	r3, [sp, #16]
 1551              		.loc 1 673 0
 1552 0280 4FF00203 		mov	r3, #2
 1553 0284 8DF81130 		strb	r3, [sp, #17]
 1554              		.loc 1 674 0
 1555 0288 BDF82630 		ldrh	r3, [sp, #38]
 1556 028c 1846     		mov	r0, r3
 1557 028e FFF7FEFF 		bl	lwip_htons
 1558 0292 0346     		mov	r3, r0
 1559 0294 ADF81230 		strh	r3, [sp, #18]	@ movhi
 1560              		.loc 1 675 0
 1561 0298 0E9B     		ldr	r3, [sp, #56]
 1562 029a 1B68     		ldr	r3, [r3, #0]
 1563 029c 0593     		str	r3, [sp, #20]
 1564              		.loc 1 677 0
 1565 029e 159B     		ldr	r3, [sp, #84]
 1566 02a0 1B68     		ldr	r3, [r3, #0]
 1567 02a2 102B     		cmp	r3, #16
 1568 02a4 03D9     		bls	.L99
 1569              		.loc 1 678 0
 1570 02a6 159B     		ldr	r3, [sp, #84]
 1571 02a8 4FF01002 		mov	r2, #16
 1572 02ac 1A60     		str	r2, [r3, #0]
 1573              	.L99:
 1574              		.loc 1 681 0
 1575 02ae 159B     		ldr	r3, [sp, #84]
 1576 02b0 1B68     		ldr	r3, [r3, #0]
 1577 02b2 1499     		ldr	r1, [sp, #80]
 1578 02b4 04AA     		add	r2, sp, #16
 1579 02b6 0846     		mov	r0, r1
ARM GAS  /tmp/cc2wa78n.s 			page 29


 1580 02b8 1146     		mov	r1, r2
 1581 02ba 1A46     		mov	r2, r3
 1582 02bc FFF7FEFF 		bl	memcpy
 1583              	.L96:
 1584              	.LBE4:
 1585              	.LBE3:
 1586              		.loc 1 704 0
 1587 02c0 009B     		ldr	r3, [sp, #0]
 1588 02c2 03F00103 		and	r3, r3, #1
 1589 02c6 002B     		cmp	r3, #0
 1590 02c8 2DD1     		bne	.L100
 1591              		.loc 1 708 0
 1592 02ca 0C9B     		ldr	r3, [sp, #48]
 1593 02cc 1B68     		ldr	r3, [r3, #0]
 1594 02ce 1B78     		ldrb	r3, [r3, #0]	@ zero_extendqisi2
 1595 02d0 102B     		cmp	r3, #16
 1596 02d2 12D1     		bne	.L101
 1597              		.loc 1 708 0 is_stmt 0 discriminator 1
 1598 02d4 BDF82E20 		ldrh	r2, [sp, #46]
 1599 02d8 BDF84230 		ldrh	r3, [sp, #66]
 1600 02dc D31A     		subs	r3, r2, r3
 1601 02de 002B     		cmp	r3, #0
 1602 02e0 0BDD     		ble	.L101
 1603              		.loc 1 709 0 is_stmt 1
 1604 02e2 0A9A     		ldr	r2, [sp, #40]
 1605 02e4 0C9B     		ldr	r3, [sp, #48]
 1606 02e6 5A60     		str	r2, [r3, #4]
 1607              		.loc 1 710 0
 1608 02e8 0C9B     		ldr	r3, [sp, #48]
 1609 02ea 1A89     		ldrh	r2, [r3, #8]
 1610 02ec BDF84230 		ldrh	r3, [sp, #66]	@ movhi
 1611 02f0 D318     		adds	r3, r2, r3
 1612 02f2 9AB2     		uxth	r2, r3
 1613 02f4 0C9B     		ldr	r3, [sp, #48]
 1614 02f6 1A81     		strh	r2, [r3, #8]	@ movhi
 1615 02f8 15E0     		b	.L100
 1616              	.L101:
 1617              		.loc 1 713 0
 1618 02fa 0C9B     		ldr	r3, [sp, #48]
 1619 02fc 4FF00002 		mov	r2, #0
 1620 0300 5A60     		str	r2, [r3, #4]
 1621              		.loc 1 714 0
 1622 0302 0C9B     		ldr	r3, [sp, #48]
 1623 0304 4FF00002 		mov	r2, #0
 1624 0308 1A81     		strh	r2, [r3, #8]	@ movhi
 1625              		.loc 1 716 0
 1626 030a 0C9B     		ldr	r3, [sp, #48]
 1627 030c 1B68     		ldr	r3, [r3, #0]
 1628 030e 1B78     		ldrb	r3, [r3, #0]	@ zero_extendqisi2
 1629 0310 102B     		cmp	r3, #16
 1630 0312 04D1     		bne	.L102
 1631              		.loc 1 717 0
 1632 0314 0A9B     		ldr	r3, [sp, #40]
 1633 0316 1846     		mov	r0, r3
 1634 0318 FFF7FEFF 		bl	pbuf_free
 1635 031c 03E0     		b	.L100
 1636              	.L102:
ARM GAS  /tmp/cc2wa78n.s 			page 30


 1637              		.loc 1 719 0
 1638 031e 0A9B     		ldr	r3, [sp, #40]
 1639 0320 1846     		mov	r0, r3
 1640 0322 FFF7FEFF 		bl	netbuf_delete
 1641              	.L100:
 1642              		.loc 1 723 0
 1643 0326 9DF83730 		ldrb	r3, [sp, #55]	@ zero_extendqisi2
 1644 032a 002B     		cmp	r3, #0
 1645 032c 3FF483AE 		beq	.L73
 1646              		.loc 1 725 0
 1647 0330 0F9B     		ldr	r3, [sp, #60]
 1648 0332 002B     		cmp	r3, #0
 1649 0334 06DD     		ble	.L103
 1650              		.loc 1 727 0
 1651 0336 0C9B     		ldr	r3, [sp, #48]
 1652 0338 1A68     		ldr	r2, [r3, #0]
 1653 033a 0F9B     		ldr	r3, [sp, #60]
 1654 033c 1046     		mov	r0, r2
 1655 033e 1946     		mov	r1, r3
 1656 0340 FFF7FEFF 		bl	netconn_recved
 1657              	.L103:
 1658              		.loc 1 729 0
 1659 0344 0C9B     		ldr	r3, [sp, #48]
 1660 0346 4FF00002 		mov	r2, #0
 1661 034a 1A61     		str	r2, [r3, #16]
 1662              		.loc 1 730 0
 1663 034c 0F9B     		ldr	r3, [sp, #60]
 1664              	.L74:
 1665              		.loc 1 731 0
 1666 034e 1846     		mov	r0, r3
 1667 0350 13B0     		add	sp, sp, #76
 1668 0352 00BD     		pop	{pc}
 1669              		.cfi_endproc
 1670              	.LFE17:
 1671              		.size	lwip_recvfrom, .-lwip_recvfrom
 1672 0354 AFF30080 		.section	.text.lwip_read,"ax",%progbits
 1672      AFF30080 
 1672      AFF30080 
 1673              		.align	2
 1674              		.p2align 4,,15
 1675              		.global	lwip_read
 1676              		.thumb
 1677              		.thumb_func
 1678              		.type	lwip_read, %function
 1679              	lwip_read:
 1680              	.LFB18:
 1681              		.loc 1 735 0
 1682              		.cfi_startproc
 1683              		@ args = 0, pretend = 0, frame = 16
 1684              		@ frame_needed = 0, uses_anonymous_args = 0
 1685 0000 00B5     		push	{lr}
 1686              	.LCFI17:
 1687              		.cfi_def_cfa_offset 4
 1688              		.cfi_offset 14, -4
 1689 0002 87B0     		sub	sp, sp, #28
 1690              	.LCFI18:
 1691              		.cfi_def_cfa_offset 32
ARM GAS  /tmp/cc2wa78n.s 			page 31


 1692 0004 0590     		str	r0, [sp, #20]
 1693 0006 0491     		str	r1, [sp, #16]
 1694 0008 0392     		str	r2, [sp, #12]
 1695              		.loc 1 736 0
 1696 000a 4FF00003 		mov	r3, #0
 1697 000e 0093     		str	r3, [sp, #0]
 1698 0010 4FF00003 		mov	r3, #0
 1699 0014 0193     		str	r3, [sp, #4]
 1700 0016 0598     		ldr	r0, [sp, #20]
 1701 0018 0499     		ldr	r1, [sp, #16]
 1702 001a 039A     		ldr	r2, [sp, #12]
 1703 001c 4FF00003 		mov	r3, #0
 1704 0020 FFF7FEFF 		bl	lwip_recvfrom
 1705 0024 0346     		mov	r3, r0
 1706              		.loc 1 737 0
 1707 0026 1846     		mov	r0, r3
 1708 0028 07B0     		add	sp, sp, #28
 1709 002a 00BD     		pop	{pc}
 1710              		.cfi_endproc
 1711              	.LFE18:
 1712              		.size	lwip_read, .-lwip_read
 1713 002c AFF30080 		.section	.text.lwip_recv,"ax",%progbits
 1714              		.align	2
 1715              		.p2align 4,,15
 1716              		.global	lwip_recv
 1717              		.thumb
 1718              		.thumb_func
 1719              		.type	lwip_recv, %function
 1720              	lwip_recv:
 1721              	.LFB19:
 1722              		.loc 1 741 0
 1723              		.cfi_startproc
 1724              		@ args = 0, pretend = 0, frame = 16
 1725              		@ frame_needed = 0, uses_anonymous_args = 0
 1726 0000 00B5     		push	{lr}
 1727              	.LCFI19:
 1728              		.cfi_def_cfa_offset 4
 1729              		.cfi_offset 14, -4
 1730 0002 87B0     		sub	sp, sp, #28
 1731              	.LCFI20:
 1732              		.cfi_def_cfa_offset 32
 1733 0004 0590     		str	r0, [sp, #20]
 1734 0006 0491     		str	r1, [sp, #16]
 1735 0008 0392     		str	r2, [sp, #12]
 1736 000a 0293     		str	r3, [sp, #8]
 1737              		.loc 1 742 0
 1738 000c 4FF00003 		mov	r3, #0
 1739 0010 0093     		str	r3, [sp, #0]
 1740 0012 4FF00003 		mov	r3, #0
 1741 0016 0193     		str	r3, [sp, #4]
 1742 0018 0598     		ldr	r0, [sp, #20]
 1743 001a 0499     		ldr	r1, [sp, #16]
 1744 001c 039A     		ldr	r2, [sp, #12]
 1745 001e 029B     		ldr	r3, [sp, #8]
 1746 0020 FFF7FEFF 		bl	lwip_recvfrom
 1747 0024 0346     		mov	r3, r0
 1748              		.loc 1 743 0
ARM GAS  /tmp/cc2wa78n.s 			page 32


 1749 0026 1846     		mov	r0, r3
 1750 0028 07B0     		add	sp, sp, #28
 1751 002a 00BD     		pop	{pc}
 1752              		.cfi_endproc
 1753              	.LFE19:
 1754              		.size	lwip_recv, .-lwip_recv
 1755 002c AFF30080 		.section	.text.lwip_send,"ax",%progbits
 1756              		.align	2
 1757              		.p2align 4,,15
 1758              		.global	lwip_send
 1759              		.thumb
 1760              		.thumb_func
 1761              		.type	lwip_send, %function
 1762              	lwip_send:
 1763              	.LFB20:
 1764              		.loc 1 747 0
 1765              		.cfi_startproc
 1766              		@ args = 0, pretend = 0, frame = 24
 1767              		@ frame_needed = 0, uses_anonymous_args = 0
 1768 0000 00B5     		push	{lr}
 1769              	.LCFI21:
 1770              		.cfi_def_cfa_offset 4
 1771              		.cfi_offset 14, -4
 1772 0002 89B0     		sub	sp, sp, #36
 1773              	.LCFI22:
 1774              		.cfi_def_cfa_offset 40
 1775 0004 0590     		str	r0, [sp, #20]
 1776 0006 0491     		str	r1, [sp, #16]
 1777 0008 0392     		str	r2, [sp, #12]
 1778 000a 0293     		str	r3, [sp, #8]
 1779              		.loc 1 755 0
 1780 000c 0598     		ldr	r0, [sp, #20]
 1781 000e FFF7FEFF 		bl	get_socket
 1782 0012 0346     		mov	r3, r0
 1783 0014 0793     		str	r3, [sp, #28]
 1784              		.loc 1 756 0
 1785 0016 079B     		ldr	r3, [sp, #28]
 1786 0018 002B     		cmp	r3, #0
 1787 001a 02D1     		bne	.L107
 1788              		.loc 1 757 0
 1789 001c 4FF0FF33 		mov	r3, #-1
 1790 0020 6FE0     		b	.L108
 1791              	.L107:
 1792              		.loc 1 760 0
 1793 0022 079B     		ldr	r3, [sp, #28]
 1794 0024 1B68     		ldr	r3, [r3, #0]
 1795 0026 1B78     		ldrb	r3, [r3, #0]	@ zero_extendqisi2
 1796 0028 102B     		cmp	r3, #16
 1797 002a 0DD0     		beq	.L109
 1798              		.loc 1 762 0
 1799 002c 4FF00003 		mov	r3, #0
 1800 0030 0093     		str	r3, [sp, #0]
 1801 0032 4FF00003 		mov	r3, #0
 1802 0036 0193     		str	r3, [sp, #4]
 1803 0038 0598     		ldr	r0, [sp, #20]
 1804 003a 0499     		ldr	r1, [sp, #16]
 1805 003c 039A     		ldr	r2, [sp, #12]
ARM GAS  /tmp/cc2wa78n.s 			page 33


 1806 003e 029B     		ldr	r3, [sp, #8]
 1807 0040 FFF7FEFF 		bl	lwip_sendto
 1808 0044 0346     		mov	r3, r0
 1809 0046 5CE0     		b	.L108
 1810              	.L109:
 1811              		.loc 1 769 0
 1812 0048 029B     		ldr	r3, [sp, #8]
 1813 004a 03F00803 		and	r3, r3, #8
 1814 004e 002B     		cmp	r3, #0
 1815 0050 06D1     		bne	.L110
 1816              		.loc 1 769 0 is_stmt 0 discriminator 1
 1817 0052 079B     		ldr	r3, [sp, #28]
 1818 0054 1B68     		ldr	r3, [r3, #0]
 1819 0056 1B7F     		ldrb	r3, [r3, #28]	@ zero_extendqisi2
 1820 0058 03F00203 		and	r3, r3, #2
 1821 005c 002B     		cmp	r3, #0
 1822 005e 0FD0     		beq	.L111
 1823              	.L110:
 1824              		.loc 1 770 0 is_stmt 1
 1825 0060 039B     		ldr	r3, [sp, #12]
 1826 0062 B3F5807F 		cmp	r3, #256
 1827 0066 04D8     		bhi	.L112
 1828              		.loc 1 770 0 is_stmt 0 discriminator 1
 1829 0068 039A     		ldr	r2, [sp, #12]
 1830 006a 40F24763 		movw	r3, #1607
 1831 006e 9A42     		cmp	r2, r3
 1832 0070 06D9     		bls	.L111
 1833              	.L112:
 1834              		.loc 1 772 0 is_stmt 1
 1835 0072 079B     		ldr	r3, [sp, #28]
 1836 0074 4FF05A02 		mov	r2, #90
 1837 0078 1A61     		str	r2, [r3, #16]
 1838              		.loc 1 773 0
 1839 007a 4FF0FF33 		mov	r3, #-1
 1840 007e 40E0     		b	.L108
 1841              	.L111:
 1842              		.loc 1 778 0
 1843 0080 029B     		ldr	r3, [sp, #8]
 1844 0082 03F01003 		and	r3, r3, #16
 1845              		.loc 1 777 0
 1846 0086 002B     		cmp	r3, #0
 1847 0088 02D0     		beq	.L113
 1848              		.loc 1 777 0 is_stmt 0 discriminator 1
 1849 008a 4FF00302 		mov	r2, #3
 1850 008e 01E0     		b	.L114
 1851              	.L113:
 1852              		.loc 1 777 0 discriminator 2
 1853 0090 4FF00102 		mov	r2, #1
 1854              	.L114:
 1855              		.loc 1 779 0 is_stmt 1 discriminator 3
 1856 0094 029B     		ldr	r3, [sp, #8]
 1857 0096 03F00803 		and	r3, r3, #8
 1858              		.loc 1 777 0 discriminator 3
 1859 009a 002B     		cmp	r3, #0
 1860 009c 02D0     		beq	.L115
 1861              		.loc 1 777 0 is_stmt 0 discriminator 4
 1862 009e 4FF00403 		mov	r3, #4
ARM GAS  /tmp/cc2wa78n.s 			page 34


 1863 00a2 01E0     		b	.L116
 1864              	.L115:
 1865              		.loc 1 777 0 discriminator 5
 1866 00a4 4FF00003 		mov	r3, #0
 1867              	.L116:
 1868              		.loc 1 777 0 discriminator 6
 1869 00a8 1343     		orrs	r3, r3, r2
 1870 00aa DBB2     		uxtb	r3, r3
 1871 00ac 8DF81B30 		strb	r3, [sp, #27]
 1872              		.loc 1 780 0 is_stmt 1 discriminator 6
 1873 00b0 079B     		ldr	r3, [sp, #28]
 1874 00b2 1A68     		ldr	r2, [r3, #0]
 1875 00b4 9DF81B30 		ldrb	r3, [sp, #27]	@ zero_extendqisi2
 1876 00b8 1046     		mov	r0, r2
 1877 00ba 0499     		ldr	r1, [sp, #16]
 1878 00bc 039A     		ldr	r2, [sp, #12]
 1879 00be FFF7FEFF 		bl	netconn_write
 1880 00c2 0346     		mov	r3, r0
 1881 00c4 8DF81A30 		strb	r3, [sp, #26]
 1882              		.loc 1 783 0 discriminator 6
 1883 00c8 9DF91A30 		ldrsb	r3, [sp, #26]
 1884 00cc C3F10003 		rsb	r3, r3, #0
 1885 00d0 0F2B     		cmp	r3, #15
 1886 00d2 0AD8     		bhi	.L117
 1887              		.loc 1 783 0 is_stmt 0 discriminator 1
 1888 00d4 9DF91A30 		ldrsb	r3, [sp, #26]
 1889 00d8 C3F10002 		rsb	r2, r3, #0
 1890 00dc 40F20003 		movw	r3, #:lower16:err_to_errno_table
 1891 00e0 C0F20003 		movt	r3, #:upper16:err_to_errno_table
 1892 00e4 53F82230 		ldr	r3, [r3, r2, lsl #2]
 1893 00e8 01E0     		b	.L118
 1894              	.L117:
 1895              		.loc 1 783 0 discriminator 2
 1896 00ea 4FF00503 		mov	r3, #5
 1897              	.L118:
 1898              		.loc 1 783 0 discriminator 3
 1899 00ee 079A     		ldr	r2, [sp, #28]
 1900 00f0 1361     		str	r3, [r2, #16]
 1901              		.loc 1 784 0 is_stmt 1 discriminator 3
 1902 00f2 9DF91A30 		ldrsb	r3, [sp, #26]
 1903 00f6 002B     		cmp	r3, #0
 1904 00f8 01D1     		bne	.L119
 1905              		.loc 1 784 0 is_stmt 0 discriminator 1
 1906 00fa 039B     		ldr	r3, [sp, #12]
 1907 00fc 01E0     		b	.L120
 1908              	.L119:
 1909              		.loc 1 784 0 discriminator 2
 1910 00fe 4FF0FF33 		mov	r3, #-1
 1911              	.L120:
 1912              	.L108:
 1913              		.loc 1 785 0 is_stmt 1
 1914 0102 1846     		mov	r0, r3
 1915 0104 09B0     		add	sp, sp, #36
 1916 0106 00BD     		pop	{pc}
 1917              		.cfi_endproc
 1918              	.LFE20:
 1919              		.size	lwip_send, .-lwip_send
ARM GAS  /tmp/cc2wa78n.s 			page 35


 1920 0108 AFF30080 		.section	.text.lwip_sendto,"ax",%progbits
 1920      AFF30080 
 1921              		.align	2
 1922              		.p2align 4,,15
 1923              		.global	lwip_sendto
 1924              		.thumb
 1925              		.thumb_func
 1926              		.type	lwip_sendto, %function
 1927              	lwip_sendto:
 1928              	.LFB21:
 1929              		.loc 1 790 0
 1930              		.cfi_startproc
 1931              		@ args = 8, pretend = 0, frame = 56
 1932              		@ frame_needed = 0, uses_anonymous_args = 0
 1933 0000 00B5     		push	{lr}
 1934              	.LCFI23:
 1935              		.cfi_def_cfa_offset 4
 1936              		.cfi_offset 14, -4
 1937 0002 8FB0     		sub	sp, sp, #60
 1938              	.LCFI24:
 1939              		.cfi_def_cfa_offset 64
 1940 0004 0390     		str	r0, [sp, #12]
 1941 0006 0291     		str	r1, [sp, #8]
 1942 0008 0192     		str	r2, [sp, #4]
 1943 000a 0093     		str	r3, [sp, #0]
 1944              		.loc 1 800 0
 1945 000c 0398     		ldr	r0, [sp, #12]
 1946 000e FFF7FEFF 		bl	get_socket
 1947 0012 0346     		mov	r3, r0
 1948 0014 0C93     		str	r3, [sp, #48]
 1949              		.loc 1 801 0
 1950 0016 0C9B     		ldr	r3, [sp, #48]
 1951 0018 002B     		cmp	r3, #0
 1952 001a 02D1     		bne	.L122
 1953              		.loc 1 802 0
 1954 001c 4FF0FF33 		mov	r3, #-1
 1955 0020 94E0     		b	.L123
 1956              	.L122:
 1957              		.loc 1 805 0
 1958 0022 0C9B     		ldr	r3, [sp, #48]
 1959 0024 1B68     		ldr	r3, [r3, #0]
 1960 0026 1B78     		ldrb	r3, [r3, #0]	@ zero_extendqisi2
 1961 0028 102B     		cmp	r3, #16
 1962 002a 07D1     		bne	.L124
 1963              		.loc 1 807 0
 1964 002c 0398     		ldr	r0, [sp, #12]
 1965 002e 0299     		ldr	r1, [sp, #8]
 1966 0030 019A     		ldr	r2, [sp, #4]
 1967 0032 009B     		ldr	r3, [sp, #0]
 1968 0034 FFF7FEFF 		bl	lwip_send
 1969 0038 0346     		mov	r3, r0
 1970 003a 87E0     		b	.L123
 1971              	.L124:
 1972              		.loc 1 816 0
 1973 003c 019A     		ldr	r2, [sp, #4]
 1974 003e 4FF6FF73 		movw	r3, #65535
 1975 0042 9A42     		cmp	r2, r3
ARM GAS  /tmp/cc2wa78n.s 			page 36


 1976 0044 01D9     		bls	.L125
 1977              		.loc 1 816 0 is_stmt 0 discriminator 1
 1978 0046 FFF7FEFF 		bl	port_halt
 1979              	.L125:
 1980              		.loc 1 817 0 is_stmt 1
 1981 004a 019B     		ldr	r3, [sp, #4]
 1982 004c ADF82E30 		strh	r3, [sp, #46]	@ movhi
 1983              		.loc 1 818 0
 1984 0050 109B     		ldr	r3, [sp, #64]
 1985 0052 002B     		cmp	r3, #0
 1986 0054 02D1     		bne	.L126
 1987              		.loc 1 818 0 is_stmt 0 discriminator 2
 1988 0056 119B     		ldr	r3, [sp, #68]
 1989 0058 002B     		cmp	r3, #0
 1990 005a 17D0     		beq	.L127
 1991              	.L126:
 1992              		.loc 1 818 0 discriminator 1
 1993 005c 119B     		ldr	r3, [sp, #68]
 1994 005e 102B     		cmp	r3, #16
 1995 0060 08D1     		bne	.L128
 1996              		.loc 1 818 0 discriminator 4
 1997 0062 109B     		ldr	r3, [sp, #64]
 1998 0064 5B78     		ldrb	r3, [r3, #1]	@ zero_extendqisi2
 1999 0066 022B     		cmp	r3, #2
 2000 0068 04D1     		bne	.L128
 2001              		.loc 1 818 0 discriminator 5
 2002 006a 109B     		ldr	r3, [sp, #64]
 2003 006c 03F00303 		and	r3, r3, #3
 2004 0070 002B     		cmp	r3, #0
 2005 0072 0BD0     		beq	.L127
 2006              	.L128:
 2007              		.loc 1 818 0 discriminator 3
 2008 0074 FFF7FEFF 		bl	port_halt
 2009 0078 40F20003 		movw	r3, #:lower16:err_to_errno_table
 2010 007c C0F20003 		movt	r3, #:upper16:err_to_errno_table
 2011 0080 9A6B     		ldr	r2, [r3, #56]
 2012 0082 0C9B     		ldr	r3, [sp, #48]
 2013 0084 1A61     		str	r2, [r3, #16]
 2014 0086 4FF0FF33 		mov	r3, #-1
 2015 008a 5FE0     		b	.L123
 2016              	.L127:
 2017              		.loc 1 822 0 is_stmt 1
 2018 008c 109B     		ldr	r3, [sp, #64]
 2019 008e 0A93     		str	r3, [sp, #40]
 2020              		.loc 1 883 0
 2021 0090 4FF00003 		mov	r3, #0
 2022 0094 0693     		str	r3, [sp, #24]
 2023 0096 069B     		ldr	r3, [sp, #24]
 2024 0098 0593     		str	r3, [sp, #20]
 2025              		.loc 1 887 0
 2026 009a 109B     		ldr	r3, [sp, #64]
 2027 009c 002B     		cmp	r3, #0
 2028 009e 0FD0     		beq	.L129
 2029              		.loc 1 888 0
 2030 00a0 0A9B     		ldr	r3, [sp, #40]
 2031 00a2 5B68     		ldr	r3, [r3, #4]
 2032 00a4 0793     		str	r3, [sp, #28]
ARM GAS  /tmp/cc2wa78n.s 			page 37


 2033              		.loc 1 889 0
 2034 00a6 0A9B     		ldr	r3, [sp, #40]
 2035 00a8 5B88     		ldrh	r3, [r3, #2]
 2036 00aa 1846     		mov	r0, r3
 2037 00ac FFF7FEFF 		bl	lwip_ntohs
 2038 00b0 0346     		mov	r3, r0
 2039 00b2 ADF82630 		strh	r3, [sp, #38]	@ movhi
 2040              		.loc 1 890 0
 2041 00b6 BDF82630 		ldrh	r3, [sp, #38]	@ movhi
 2042 00ba ADF82030 		strh	r3, [sp, #32]	@ movhi
 2043 00be 0AE0     		b	.L130
 2044              	.L129:
 2045              		.loc 1 892 0
 2046 00c0 4FF00003 		mov	r3, #0
 2047 00c4 ADF82630 		strh	r3, [sp, #38]	@ movhi
 2048              		.loc 1 893 0
 2049 00c8 4FF00003 		mov	r3, #0
 2050 00cc 0793     		str	r3, [sp, #28]
 2051              		.loc 1 894 0
 2052 00ce 4FF00003 		mov	r3, #0
 2053 00d2 ADF82030 		strh	r3, [sp, #32]	@ movhi
 2054              	.L130:
 2055              		.loc 1 920 0
 2056 00d6 05AA     		add	r2, sp, #20
 2057 00d8 BDF82E30 		ldrh	r3, [sp, #46]
 2058 00dc 1046     		mov	r0, r2
 2059 00de 0299     		ldr	r1, [sp, #8]
 2060 00e0 1A46     		mov	r2, r3
 2061 00e2 FFF7FEFF 		bl	netbuf_ref
 2062 00e6 0346     		mov	r3, r0
 2063 00e8 8DF83730 		strb	r3, [sp, #55]
 2064              		.loc 1 922 0
 2065 00ec 9DF93730 		ldrsb	r3, [sp, #55]
 2066 00f0 002B     		cmp	r3, #0
 2067 00f2 09D1     		bne	.L131
 2068              		.loc 1 924 0
 2069 00f4 0C9B     		ldr	r3, [sp, #48]
 2070 00f6 1A68     		ldr	r2, [r3, #0]
 2071 00f8 05AB     		add	r3, sp, #20
 2072 00fa 1046     		mov	r0, r2
 2073 00fc 1946     		mov	r1, r3
 2074 00fe FFF7FEFF 		bl	netconn_send
 2075 0102 0346     		mov	r3, r0
 2076 0104 8DF83730 		strb	r3, [sp, #55]
 2077              	.L131:
 2078              		.loc 1 928 0
 2079 0108 05AB     		add	r3, sp, #20
 2080 010a 1846     		mov	r0, r3
 2081 010c FFF7FEFF 		bl	netbuf_free
 2082              		.loc 1 930 0
 2083 0110 9DF93730 		ldrsb	r3, [sp, #55]
 2084 0114 C3F10003 		rsb	r3, r3, #0
 2085 0118 0F2B     		cmp	r3, #15
 2086 011a 0AD8     		bhi	.L132
 2087              		.loc 1 930 0 is_stmt 0 discriminator 1
 2088 011c 9DF93730 		ldrsb	r3, [sp, #55]
 2089 0120 C3F10002 		rsb	r2, r3, #0
ARM GAS  /tmp/cc2wa78n.s 			page 38


 2090 0124 40F20003 		movw	r3, #:lower16:err_to_errno_table
 2091 0128 C0F20003 		movt	r3, #:upper16:err_to_errno_table
 2092 012c 53F82230 		ldr	r3, [r3, r2, lsl #2]
 2093 0130 01E0     		b	.L133
 2094              	.L132:
 2095              		.loc 1 930 0 discriminator 2
 2096 0132 4FF00503 		mov	r3, #5
 2097              	.L133:
 2098              		.loc 1 930 0 discriminator 3
 2099 0136 0C9A     		ldr	r2, [sp, #48]
 2100 0138 1361     		str	r3, [r2, #16]
 2101              		.loc 1 931 0 is_stmt 1 discriminator 3
 2102 013a 9DF93730 		ldrsb	r3, [sp, #55]
 2103 013e 002B     		cmp	r3, #0
 2104 0140 02D1     		bne	.L134
 2105              		.loc 1 931 0 is_stmt 0 discriminator 1
 2106 0142 BDF82E30 		ldrh	r3, [sp, #46]
 2107 0146 01E0     		b	.L135
 2108              	.L134:
 2109              		.loc 1 931 0 discriminator 2
 2110 0148 4FF0FF33 		mov	r3, #-1
 2111              	.L135:
 2112              	.L123:
 2113              		.loc 1 932 0 is_stmt 1
 2114 014c 1846     		mov	r0, r3
 2115 014e 0FB0     		add	sp, sp, #60
 2116 0150 00BD     		pop	{pc}
 2117              		.cfi_endproc
 2118              	.LFE21:
 2119              		.size	lwip_sendto, .-lwip_sendto
 2120 0152 00BFAFF3 		.section	.text.lwip_socket,"ax",%progbits
 2120      0080AFF3 
 2120      0080AFF3 
 2120      0080
 2121              		.align	2
 2122              		.p2align 4,,15
 2123              		.global	lwip_socket
 2124              		.thumb
 2125              		.thumb_func
 2126              		.type	lwip_socket, %function
 2127              	lwip_socket:
 2128              	.LFB22:
 2129              		.loc 1 936 0
 2130              		.cfi_startproc
 2131              		@ args = 0, pretend = 0, frame = 24
 2132              		@ frame_needed = 0, uses_anonymous_args = 0
 2133 0000 00B5     		push	{lr}
 2134              	.LCFI25:
 2135              		.cfi_def_cfa_offset 4
 2136              		.cfi_offset 14, -4
 2137 0002 87B0     		sub	sp, sp, #28
 2138              	.LCFI26:
 2139              		.cfi_def_cfa_offset 32
 2140 0004 0390     		str	r0, [sp, #12]
 2141 0006 0291     		str	r1, [sp, #8]
 2142 0008 0192     		str	r2, [sp, #4]
 2143              		.loc 1 943 0
ARM GAS  /tmp/cc2wa78n.s 			page 39


 2144 000a 029B     		ldr	r3, [sp, #8]
 2145 000c 022B     		cmp	r3, #2
 2146 000e 12D0     		beq	.L139
 2147 0010 032B     		cmp	r3, #3
 2148 0012 02D0     		beq	.L140
 2149 0014 012B     		cmp	r3, #1
 2150 0016 22D0     		beq	.L138
 2151 0018 38E0     		b	.L148
 2152              	.L140:
 2153              		.loc 1 945 0
 2154 001a 019B     		ldr	r3, [sp, #4]
 2155 001c DBB2     		uxtb	r3, r3
 2156 001e 4FF04000 		mov	r0, #64
 2157 0022 1946     		mov	r1, r3
 2158 0024 40F20002 		movw	r2, #:lower16:event_callback
 2159 0028 C0F20002 		movt	r2, #:upper16:event_callback
 2160 002c FFF7FEFF 		bl	netconn_new_with_proto_and_callback
 2161 0030 0346     		mov	r3, r0
 2162 0032 0593     		str	r3, [sp, #20]
 2163              		.loc 1 948 0
 2164 0034 2EE0     		b	.L141
 2165              	.L139:
 2166              		.loc 1 950 0
 2167 0036 019B     		ldr	r3, [sp, #4]
 2168 0038 882B     		cmp	r3, #136
 2169 003a 02D1     		bne	.L142
 2170              		.loc 1 950 0 is_stmt 0 discriminator 1
 2171 003c 4FF02103 		mov	r3, #33
 2172 0040 01E0     		b	.L143
 2173              	.L142:
 2174              		.loc 1 950 0 discriminator 2
 2175 0042 4FF02003 		mov	r3, #32
 2176              	.L143:
 2177              		.loc 1 950 0 discriminator 3
 2178 0046 1846     		mov	r0, r3
 2179 0048 4FF00001 		mov	r1, #0
 2180 004c 40F20002 		movw	r2, #:lower16:event_callback
 2181 0050 C0F20002 		movt	r2, #:upper16:event_callback
 2182 0054 FFF7FEFF 		bl	netconn_new_with_proto_and_callback
 2183 0058 0346     		mov	r3, r0
 2184 005a 0593     		str	r3, [sp, #20]
 2185              		.loc 1 954 0 is_stmt 1 discriminator 3
 2186 005c 1AE0     		b	.L141
 2187              	.L138:
 2188              		.loc 1 956 0
 2189 005e 4FF01000 		mov	r0, #16
 2190 0062 4FF00001 		mov	r1, #0
 2191 0066 40F20002 		movw	r2, #:lower16:event_callback
 2192 006a C0F20002 		movt	r2, #:upper16:event_callback
 2193 006e FFF7FEFF 		bl	netconn_new_with_proto_and_callback
 2194 0072 0346     		mov	r3, r0
 2195 0074 0593     		str	r3, [sp, #20]
 2196              		.loc 1 959 0
 2197 0076 059B     		ldr	r3, [sp, #20]
 2198 0078 002B     		cmp	r3, #0
 2199 007a 0AD0     		beq	.L149
 2200              		.loc 1 961 0 discriminator 1
ARM GAS  /tmp/cc2wa78n.s 			page 40


 2201 007c 059B     		ldr	r3, [sp, #20]
 2202 007e 1B7F     		ldrb	r3, [r3, #28]	@ zero_extendqisi2
 2203 0080 43F00803 		orr	r3, r3, #8
 2204 0084 DAB2     		uxtb	r2, r3
 2205 0086 059B     		ldr	r3, [sp, #20]
 2206 0088 1A77     		strb	r2, [r3, #28]
 2207              		.loc 1 963 0 discriminator 1
 2208 008a 02E0     		b	.L149
 2209              	.L148:
 2210              		.loc 1 968 0
 2211 008c 4FF0FF33 		mov	r3, #-1
 2212 0090 1BE0     		b	.L145
 2213              	.L149:
 2214              		.loc 1 963 0
 2215 0092 00BF     		nop
 2216              	.L141:
 2217              		.loc 1 971 0
 2218 0094 059B     		ldr	r3, [sp, #20]
 2219 0096 002B     		cmp	r3, #0
 2220 0098 02D1     		bne	.L146
 2221              		.loc 1 974 0
 2222 009a 4FF0FF33 		mov	r3, #-1
 2223 009e 14E0     		b	.L145
 2224              	.L146:
 2225              		.loc 1 977 0
 2226 00a0 0598     		ldr	r0, [sp, #20]
 2227 00a2 4FF00001 		mov	r1, #0
 2228 00a6 FFF7FEFF 		bl	alloc_socket
 2229 00aa 0346     		mov	r3, r0
 2230 00ac 0493     		str	r3, [sp, #16]
 2231              		.loc 1 979 0
 2232 00ae 049B     		ldr	r3, [sp, #16]
 2233 00b0 B3F1FF3F 		cmp	r3, #-1
 2234 00b4 05D1     		bne	.L147
 2235              		.loc 1 980 0
 2236 00b6 0598     		ldr	r0, [sp, #20]
 2237 00b8 FFF7FEFF 		bl	netconn_delete
 2238              		.loc 1 982 0
 2239 00bc 4FF0FF33 		mov	r3, #-1
 2240 00c0 03E0     		b	.L145
 2241              	.L147:
 2242              		.loc 1 984 0
 2243 00c2 059B     		ldr	r3, [sp, #20]
 2244 00c4 049A     		ldr	r2, [sp, #16]
 2245 00c6 9A61     		str	r2, [r3, #24]
 2246              		.loc 1 987 0
 2247 00c8 049B     		ldr	r3, [sp, #16]
 2248              	.L145:
 2249              		.loc 1 988 0
 2250 00ca 1846     		mov	r0, r3
 2251 00cc 07B0     		add	sp, sp, #28
 2252 00ce 00BD     		pop	{pc}
 2253              		.cfi_endproc
 2254              	.LFE22:
 2255              		.size	lwip_socket, .-lwip_socket
 2256              		.section	.text.lwip_write,"ax",%progbits
 2257              		.align	2
ARM GAS  /tmp/cc2wa78n.s 			page 41


 2258              		.p2align 4,,15
 2259              		.global	lwip_write
 2260              		.thumb
 2261              		.thumb_func
 2262              		.type	lwip_write, %function
 2263              	lwip_write:
 2264              	.LFB23:
 2265              		.loc 1 992 0
 2266              		.cfi_startproc
 2267              		@ args = 0, pretend = 0, frame = 16
 2268              		@ frame_needed = 0, uses_anonymous_args = 0
 2269 0000 00B5     		push	{lr}
 2270              	.LCFI27:
 2271              		.cfi_def_cfa_offset 4
 2272              		.cfi_offset 14, -4
 2273 0002 85B0     		sub	sp, sp, #20
 2274              	.LCFI28:
 2275              		.cfi_def_cfa_offset 24
 2276 0004 0390     		str	r0, [sp, #12]
 2277 0006 0291     		str	r1, [sp, #8]
 2278 0008 0192     		str	r2, [sp, #4]
 2279              		.loc 1 993 0
 2280 000a 0398     		ldr	r0, [sp, #12]
 2281 000c 0299     		ldr	r1, [sp, #8]
 2282 000e 019A     		ldr	r2, [sp, #4]
 2283 0010 4FF00003 		mov	r3, #0
 2284 0014 FFF7FEFF 		bl	lwip_send
 2285 0018 0346     		mov	r3, r0
 2286              		.loc 1 994 0
 2287 001a 1846     		mov	r0, r3
 2288 001c 05B0     		add	sp, sp, #20
 2289 001e 00BD     		pop	{pc}
 2290              		.cfi_endproc
 2291              	.LFE23:
 2292              		.size	lwip_write, .-lwip_write
 2293              		.section	.text.lwip_selscan,"ax",%progbits
 2294              		.align	2
 2295              		.p2align 4,,15
 2296              		.thumb
 2297              		.thumb_func
 2298              		.type	lwip_selscan, %function
 2299              	lwip_selscan:
 2300              	.LFB24:
 2301              		.loc 1 1015 0
 2302              		.cfi_startproc
 2303              		@ args = 12, pretend = 0, frame = 56
 2304              		@ frame_needed = 0, uses_anonymous_args = 0
 2305 0000 00B5     		push	{lr}
 2306              	.LCFI29:
 2307              		.cfi_def_cfa_offset 4
 2308              		.cfi_offset 14, -4
 2309 0002 8FB0     		sub	sp, sp, #60
 2310              	.LCFI30:
 2311              		.cfi_def_cfa_offset 64
 2312 0004 0390     		str	r0, [sp, #12]
 2313 0006 0291     		str	r1, [sp, #8]
 2314 0008 0192     		str	r2, [sp, #4]
ARM GAS  /tmp/cc2wa78n.s 			page 42


 2315 000a 0093     		str	r3, [sp, #0]
 2316              		.loc 1 1016 0
 2317 000c 4FF00003 		mov	r3, #0
 2318 0010 0C93     		str	r3, [sp, #48]
 2319              		.loc 1 1021 0
 2320 0012 07AB     		add	r3, sp, #28
 2321 0014 4FF00002 		mov	r2, #0
 2322 0018 1A70     		strb	r2, [r3, #0]
 2323              		.loc 1 1022 0
 2324 001a 06AB     		add	r3, sp, #24
 2325 001c 4FF00002 		mov	r2, #0
 2326 0020 1A70     		strb	r2, [r3, #0]
 2327              		.loc 1 1023 0
 2328 0022 05AB     		add	r3, sp, #20
 2329 0024 4FF00002 		mov	r2, #0
 2330 0028 1A70     		strb	r2, [r3, #0]
 2331              		.loc 1 1027 0
 2332 002a 4FF00003 		mov	r3, #0
 2333 002e 0D93     		str	r3, [sp, #52]
 2334 0030 DAE0     		b	.L152
 2335              	.L164:
 2336              	.LBB5:
 2337              		.loc 1 1028 0
 2338 0032 4FF00003 		mov	r3, #0
 2339 0036 0B93     		str	r3, [sp, #44]
 2340              		.loc 1 1029 0
 2341 0038 4FF00003 		mov	r3, #0
 2342 003c ADF82A30 		strh	r3, [sp, #42]	@ movhi
 2343              		.loc 1 1030 0
 2344 0040 4FF00003 		mov	r3, #0
 2345 0044 ADF82830 		strh	r3, [sp, #40]	@ movhi
 2346              		.loc 1 1031 0
 2347 0048 4FF00003 		mov	r3, #0
 2348 004c ADF82630 		strh	r3, [sp, #38]	@ movhi
 2349              		.loc 1 1034 0
 2350 0050 0D98     		ldr	r0, [sp, #52]
 2351 0052 FFF7FEFF 		bl	tryget_socket
 2352 0056 0346     		mov	r3, r0
 2353 0058 0893     		str	r3, [sp, #32]
 2354              		.loc 1 1035 0
 2355 005a 089B     		ldr	r3, [sp, #32]
 2356 005c 002B     		cmp	r3, #0
 2357 005e 0ED0     		beq	.L153
 2358              		.loc 1 1036 0
 2359 0060 089B     		ldr	r3, [sp, #32]
 2360 0062 5B68     		ldr	r3, [r3, #4]
 2361 0064 0B93     		str	r3, [sp, #44]
 2362              		.loc 1 1037 0
 2363 0066 089B     		ldr	r3, [sp, #32]
 2364 0068 5B89     		ldrh	r3, [r3, #10]	@ movhi
 2365 006a ADF82A30 		strh	r3, [sp, #42]	@ movhi
 2366              		.loc 1 1038 0
 2367 006e 089B     		ldr	r3, [sp, #32]
 2368 0070 9B89     		ldrh	r3, [r3, #12]	@ movhi
 2369 0072 ADF82830 		strh	r3, [sp, #40]	@ movhi
 2370              		.loc 1 1039 0
 2371 0076 089B     		ldr	r3, [sp, #32]
ARM GAS  /tmp/cc2wa78n.s 			page 43


 2372 0078 DB89     		ldrh	r3, [r3, #14]	@ movhi
 2373 007a ADF82630 		strh	r3, [sp, #38]	@ movhi
 2374              	.L153:
 2375              		.loc 1 1044 0
 2376 007e 029B     		ldr	r3, [sp, #8]
 2377 0080 002B     		cmp	r3, #0
 2378 0082 39D0     		beq	.L154
 2379              		.loc 1 1044 0 is_stmt 0 discriminator 1
 2380 0084 0D9B     		ldr	r3, [sp, #52]
 2381 0086 002B     		cmp	r3, #0
 2382 0088 01DA     		bge	.L155
 2383 008a 03F10703 		add	r3, r3, #7
 2384              	.L155:
 2385 008e 4FEAE303 		asr	r3, r3, #3
 2386 0092 029A     		ldr	r2, [sp, #8]
 2387 0094 D35C     		ldrb	r3, [r2, r3]	@ zero_extendqisi2
 2388 0096 1A46     		mov	r2, r3
 2389 0098 0D9B     		ldr	r3, [sp, #52]
 2390 009a 03F00703 		and	r3, r3, #7
 2391 009e 42FA03F3 		asr	r3, r2, r3
 2392 00a2 03F00103 		and	r3, r3, #1
 2393 00a6 DBB2     		uxtb	r3, r3
 2394 00a8 002B     		cmp	r3, #0
 2395 00aa 25D0     		beq	.L154
 2396 00ac 0B9B     		ldr	r3, [sp, #44]
 2397 00ae 002B     		cmp	r3, #0
 2398 00b0 03D1     		bne	.L156
 2399 00b2 BDF92A30 		ldrsh	r3, [sp, #42]
 2400 00b6 002B     		cmp	r3, #0
 2401 00b8 1EDD     		ble	.L154
 2402              	.L156:
 2403              		.loc 1 1045 0 is_stmt 1
 2404 00ba 0D9B     		ldr	r3, [sp, #52]
 2405 00bc 002B     		cmp	r3, #0
 2406 00be 01DA     		bge	.L157
 2407 00c0 03F10703 		add	r3, r3, #7
 2408              	.L157:
 2409 00c4 4FEAE303 		asr	r3, r3, #3
 2410 00c8 0EA9     		add	r1, sp, #56
 2411 00ca CA18     		adds	r2, r1, r3
 2412 00cc 12F81C2C 		ldrb	r2, [r2, #-28]	@ zero_extendqisi2
 2413 00d0 D1B2     		uxtb	r1, r2
 2414 00d2 0D9A     		ldr	r2, [sp, #52]
 2415 00d4 02F00702 		and	r2, r2, #7
 2416 00d8 4FF00100 		mov	r0, #1
 2417 00dc 00FA02F2 		lsl	r2, r0, r2
 2418 00e0 D2B2     		uxtb	r2, r2
 2419 00e2 0A43     		orrs	r2, r2, r1
 2420 00e4 D2B2     		uxtb	r2, r2
 2421 00e6 D2B2     		uxtb	r2, r2
 2422 00e8 0EA9     		add	r1, sp, #56
 2423 00ea CB18     		adds	r3, r1, r3
 2424 00ec 03F81C2C 		strb	r2, [r3, #-28]
 2425              		.loc 1 1047 0
 2426 00f0 0C9B     		ldr	r3, [sp, #48]
 2427 00f2 03F10103 		add	r3, r3, #1
 2428 00f6 0C93     		str	r3, [sp, #48]
ARM GAS  /tmp/cc2wa78n.s 			page 44


 2429              	.L154:
 2430              		.loc 1 1050 0
 2431 00f8 019B     		ldr	r3, [sp, #4]
 2432 00fa 002B     		cmp	r3, #0
 2433 00fc 36D0     		beq	.L158
 2434              		.loc 1 1050 0 is_stmt 0 discriminator 1
 2435 00fe 0D9B     		ldr	r3, [sp, #52]
 2436 0100 002B     		cmp	r3, #0
 2437 0102 01DA     		bge	.L159
 2438 0104 03F10703 		add	r3, r3, #7
 2439              	.L159:
 2440 0108 4FEAE303 		asr	r3, r3, #3
 2441 010c 019A     		ldr	r2, [sp, #4]
 2442 010e D35C     		ldrb	r3, [r2, r3]	@ zero_extendqisi2
 2443 0110 1A46     		mov	r2, r3
 2444 0112 0D9B     		ldr	r3, [sp, #52]
 2445 0114 03F00703 		and	r3, r3, #7
 2446 0118 42FA03F3 		asr	r3, r2, r3
 2447 011c 03F00103 		and	r3, r3, #1
 2448 0120 DBB2     		uxtb	r3, r3
 2449 0122 002B     		cmp	r3, #0
 2450 0124 22D0     		beq	.L158
 2451 0126 BDF82830 		ldrh	r3, [sp, #40]
 2452 012a 002B     		cmp	r3, #0
 2453 012c 1ED0     		beq	.L158
 2454              		.loc 1 1051 0 is_stmt 1
 2455 012e 0D9B     		ldr	r3, [sp, #52]
 2456 0130 002B     		cmp	r3, #0
 2457 0132 01DA     		bge	.L160
 2458 0134 03F10703 		add	r3, r3, #7
 2459              	.L160:
 2460 0138 4FEAE303 		asr	r3, r3, #3
 2461 013c 0EA9     		add	r1, sp, #56
 2462 013e CA18     		adds	r2, r1, r3
 2463 0140 12F8202C 		ldrb	r2, [r2, #-32]	@ zero_extendqisi2
 2464 0144 D1B2     		uxtb	r1, r2
 2465 0146 0D9A     		ldr	r2, [sp, #52]
 2466 0148 02F00702 		and	r2, r2, #7
 2467 014c 4FF00100 		mov	r0, #1
 2468 0150 00FA02F2 		lsl	r2, r0, r2
 2469 0154 D2B2     		uxtb	r2, r2
 2470 0156 0A43     		orrs	r2, r2, r1
 2471 0158 D2B2     		uxtb	r2, r2
 2472 015a D2B2     		uxtb	r2, r2
 2473 015c 0EA9     		add	r1, sp, #56
 2474 015e CB18     		adds	r3, r1, r3
 2475 0160 03F8202C 		strb	r2, [r3, #-32]
 2476              		.loc 1 1053 0
 2477 0164 0C9B     		ldr	r3, [sp, #48]
 2478 0166 03F10103 		add	r3, r3, #1
 2479 016a 0C93     		str	r3, [sp, #48]
 2480              	.L158:
 2481              		.loc 1 1056 0
 2482 016c 009B     		ldr	r3, [sp, #0]
 2483 016e 002B     		cmp	r3, #0
 2484 0170 36D0     		beq	.L161
 2485              		.loc 1 1056 0 is_stmt 0 discriminator 1
ARM GAS  /tmp/cc2wa78n.s 			page 45


 2486 0172 0D9B     		ldr	r3, [sp, #52]
 2487 0174 002B     		cmp	r3, #0
 2488 0176 01DA     		bge	.L162
 2489 0178 03F10703 		add	r3, r3, #7
 2490              	.L162:
 2491 017c 4FEAE303 		asr	r3, r3, #3
 2492 0180 009A     		ldr	r2, [sp, #0]
 2493 0182 D35C     		ldrb	r3, [r2, r3]	@ zero_extendqisi2
 2494 0184 1A46     		mov	r2, r3
 2495 0186 0D9B     		ldr	r3, [sp, #52]
 2496 0188 03F00703 		and	r3, r3, #7
 2497 018c 42FA03F3 		asr	r3, r2, r3
 2498 0190 03F00103 		and	r3, r3, #1
 2499 0194 DBB2     		uxtb	r3, r3
 2500 0196 002B     		cmp	r3, #0
 2501 0198 22D0     		beq	.L161
 2502 019a BDF82630 		ldrh	r3, [sp, #38]
 2503 019e 002B     		cmp	r3, #0
 2504 01a0 1ED0     		beq	.L161
 2505              		.loc 1 1057 0 is_stmt 1
 2506 01a2 0D9B     		ldr	r3, [sp, #52]
 2507 01a4 002B     		cmp	r3, #0
 2508 01a6 01DA     		bge	.L163
 2509 01a8 03F10703 		add	r3, r3, #7
 2510              	.L163:
 2511 01ac 4FEAE303 		asr	r3, r3, #3
 2512 01b0 0EA9     		add	r1, sp, #56
 2513 01b2 CA18     		adds	r2, r1, r3
 2514 01b4 12F8242C 		ldrb	r2, [r2, #-36]	@ zero_extendqisi2
 2515 01b8 D1B2     		uxtb	r1, r2
 2516 01ba 0D9A     		ldr	r2, [sp, #52]
 2517 01bc 02F00702 		and	r2, r2, #7
 2518 01c0 4FF00100 		mov	r0, #1
 2519 01c4 00FA02F2 		lsl	r2, r0, r2
 2520 01c8 D2B2     		uxtb	r2, r2
 2521 01ca 0A43     		orrs	r2, r2, r1
 2522 01cc D2B2     		uxtb	r2, r2
 2523 01ce D2B2     		uxtb	r2, r2
 2524 01d0 0EA9     		add	r1, sp, #56
 2525 01d2 CB18     		adds	r3, r1, r3
 2526 01d4 03F8242C 		strb	r2, [r3, #-36]
 2527              		.loc 1 1059 0
 2528 01d8 0C9B     		ldr	r3, [sp, #48]
 2529 01da 03F10103 		add	r3, r3, #1
 2530 01de 0C93     		str	r3, [sp, #48]
 2531              	.L161:
 2532              	.LBE5:
 2533              		.loc 1 1027 0
 2534 01e0 0D9B     		ldr	r3, [sp, #52]
 2535 01e2 03F10103 		add	r3, r3, #1
 2536 01e6 0D93     		str	r3, [sp, #52]
 2537              	.L152:
 2538              		.loc 1 1027 0 is_stmt 0 discriminator 1
 2539 01e8 0D9A     		ldr	r2, [sp, #52]
 2540 01ea 039B     		ldr	r3, [sp, #12]
 2541 01ec 9A42     		cmp	r2, r3
 2542 01ee FFF620AF 		blt	.L164
ARM GAS  /tmp/cc2wa78n.s 			page 46


 2543              		.loc 1 1063 0 is_stmt 1
 2544 01f2 109B     		ldr	r3, [sp, #64]
 2545 01f4 9DF81C20 		ldrb	r2, [sp, #28]
 2546 01f8 1A70     		strb	r2, [r3, #0]
 2547              		.loc 1 1064 0
 2548 01fa 119B     		ldr	r3, [sp, #68]
 2549 01fc 9DF81820 		ldrb	r2, [sp, #24]
 2550 0200 1A70     		strb	r2, [r3, #0]
 2551              		.loc 1 1065 0
 2552 0202 129B     		ldr	r3, [sp, #72]
 2553 0204 9DF81420 		ldrb	r2, [sp, #20]
 2554 0208 1A70     		strb	r2, [r3, #0]
 2555              		.loc 1 1067 0
 2556 020a 0C9B     		ldr	r3, [sp, #48]
 2557 020c 002B     		cmp	r3, #0
 2558 020e 01DA     		bge	.L165
 2559              		.loc 1 1067 0 is_stmt 0 discriminator 1
 2560 0210 FFF7FEFF 		bl	port_halt
 2561              	.L165:
 2562              		.loc 1 1068 0 is_stmt 1
 2563 0214 0C9B     		ldr	r3, [sp, #48]
 2564              		.loc 1 1069 0
 2565 0216 1846     		mov	r0, r3
 2566 0218 0FB0     		add	sp, sp, #60
 2567 021a 00BD     		pop	{pc}
 2568              		.cfi_endproc
 2569              	.LFE24:
 2570              		.size	lwip_selscan, .-lwip_selscan
 2571 021c AFF30080 		.section	.text.lwip_select,"ax",%progbits
 2572              		.align	2
 2573              		.p2align 4,,15
 2574              		.global	lwip_select
 2575              		.thumb
 2576              		.thumb_func
 2577              		.type	lwip_select, %function
 2578              	lwip_select:
 2579              	.LFB25:
 2580              		.loc 1 1077 0
 2581              		.cfi_startproc
 2582              		@ args = 4, pretend = 0, frame = 88
 2583              		@ frame_needed = 0, uses_anonymous_args = 0
 2584 0000 00B5     		push	{lr}
 2585              	.LCFI31:
 2586              		.cfi_def_cfa_offset 4
 2587              		.cfi_offset 14, -4
 2588 0002 9BB0     		sub	sp, sp, #108
 2589              	.LCFI32:
 2590              		.cfi_def_cfa_offset 112
 2591 0004 0790     		str	r0, [sp, #28]
 2592 0006 0691     		str	r1, [sp, #24]
 2593 0008 0592     		str	r2, [sp, #20]
 2594 000a 0493     		str	r3, [sp, #16]
 2595              		.loc 1 1078 0
 2596 000c 4FF00003 		mov	r3, #0
 2597 0010 1993     		str	r3, [sp, #100]
 2598              		.loc 1 1094 0
 2599 0012 12AB     		add	r3, sp, #72
ARM GAS  /tmp/cc2wa78n.s 			page 47


 2600 0014 0093     		str	r3, [sp, #0]
 2601 0016 11AB     		add	r3, sp, #68
 2602 0018 0193     		str	r3, [sp, #4]
 2603 001a 10AB     		add	r3, sp, #64
 2604 001c 0293     		str	r3, [sp, #8]
 2605 001e 0798     		ldr	r0, [sp, #28]
 2606 0020 0699     		ldr	r1, [sp, #24]
 2607 0022 059A     		ldr	r2, [sp, #20]
 2608 0024 049B     		ldr	r3, [sp, #16]
 2609 0026 FFF7FEFF 		bl	lwip_selscan
 2610 002a 0346     		mov	r3, r0
 2611 002c 1893     		str	r3, [sp, #96]
 2612              		.loc 1 1097 0
 2613 002e 189B     		ldr	r3, [sp, #96]
 2614 0030 002B     		cmp	r3, #0
 2615 0032 40F0A981 		bne	.L167
 2616              		.loc 1 1098 0
 2617 0036 1C9B     		ldr	r3, [sp, #112]
 2618 0038 002B     		cmp	r3, #0
 2619 003a 08D0     		beq	.L168
 2620              		.loc 1 1098 0 is_stmt 0 discriminator 1
 2621 003c 1C9B     		ldr	r3, [sp, #112]
 2622 003e 1B68     		ldr	r3, [r3, #0]
 2623 0040 002B     		cmp	r3, #0
 2624 0042 04D1     		bne	.L168
 2625 0044 1C9B     		ldr	r3, [sp, #112]
 2626 0046 5B68     		ldr	r3, [r3, #4]
 2627 0048 002B     		cmp	r3, #0
 2628 004a 00F09A81 		beq	.L204
 2629              	.L168:
 2630              		.loc 1 1110 0 is_stmt 1
 2631 004e 4FF00003 		mov	r3, #0
 2632 0052 0993     		str	r3, [sp, #36]
 2633              		.loc 1 1111 0
 2634 0054 4FF00003 		mov	r3, #0
 2635 0058 0A93     		str	r3, [sp, #40]
 2636              		.loc 1 1112 0
 2637 005a 069B     		ldr	r3, [sp, #24]
 2638 005c 0B93     		str	r3, [sp, #44]
 2639              		.loc 1 1113 0
 2640 005e 059B     		ldr	r3, [sp, #20]
 2641 0060 0C93     		str	r3, [sp, #48]
 2642              		.loc 1 1114 0
 2643 0062 049B     		ldr	r3, [sp, #16]
 2644 0064 0D93     		str	r3, [sp, #52]
 2645              		.loc 1 1115 0
 2646 0066 4FF00003 		mov	r3, #0
 2647 006a 0E93     		str	r3, [sp, #56]
 2648              		.loc 1 1116 0
 2649 006c 09AB     		add	r3, sp, #36
 2650 006e 03F11803 		add	r3, r3, #24
 2651 0072 1846     		mov	r0, r3
 2652 0074 4FF00001 		mov	r1, #0
 2653 0078 FFF7FEFF 		bl	sys_sem_new
 2654 007c 0346     		mov	r3, r0
 2655 007e 8DF85730 		strb	r3, [sp, #87]
 2656              		.loc 1 1117 0
ARM GAS  /tmp/cc2wa78n.s 			page 48


 2657 0082 9DF95730 		ldrsb	r3, [sp, #87]
 2658 0086 002B     		cmp	r3, #0
 2659 0088 02D0     		beq	.L169
 2660              		.loc 1 1120 0
 2661 008a 4FF0FF33 		mov	r3, #-1
 2662 008e 91E1     		b	.L170
 2663              	.L169:
 2664              		.loc 1 1127 0
 2665 0090 40F20003 		movw	r3, #:lower16:select_cb_list
 2666 0094 C0F20003 		movt	r3, #:upper16:select_cb_list
 2667 0098 1B68     		ldr	r3, [r3, #0]
 2668 009a 0993     		str	r3, [sp, #36]
 2669              		.loc 1 1128 0
 2670 009c 40F20003 		movw	r3, #:lower16:select_cb_list
 2671 00a0 C0F20003 		movt	r3, #:upper16:select_cb_list
 2672 00a4 1B68     		ldr	r3, [r3, #0]
 2673 00a6 002B     		cmp	r3, #0
 2674 00a8 06D0     		beq	.L171
 2675              		.loc 1 1129 0
 2676 00aa 40F20003 		movw	r3, #:lower16:select_cb_list
 2677 00ae C0F20003 		movt	r3, #:upper16:select_cb_list
 2678 00b2 1B68     		ldr	r3, [r3, #0]
 2679 00b4 09AA     		add	r2, sp, #36
 2680 00b6 5A60     		str	r2, [r3, #4]
 2681              	.L171:
 2682              		.loc 1 1131 0
 2683 00b8 40F20003 		movw	r3, #:lower16:select_cb_list
 2684 00bc C0F20003 		movt	r3, #:upper16:select_cb_list
 2685 00c0 09AA     		add	r2, sp, #36
 2686 00c2 1A60     		str	r2, [r3, #0]
 2687              		.loc 1 1133 0
 2688 00c4 40F20003 		movw	r3, #:lower16:select_cb_ctr
 2689 00c8 C0F20003 		movt	r3, #:upper16:select_cb_ctr
 2690 00cc 1B68     		ldr	r3, [r3, #0]
 2691 00ce 03F10102 		add	r2, r3, #1
 2692 00d2 40F20003 		movw	r3, #:lower16:select_cb_ctr
 2693 00d6 C0F20003 		movt	r3, #:upper16:select_cb_ctr
 2694 00da 1A60     		str	r2, [r3, #0]
 2695              		.loc 1 1139 0
 2696 00dc 4FF00003 		mov	r3, #0
 2697 00e0 1693     		str	r3, [sp, #88]
 2698 00e2 5EE0     		b	.L172
 2699              	.L181:
 2700              		.loc 1 1140 0
 2701 00e4 069B     		ldr	r3, [sp, #24]
 2702 00e6 002B     		cmp	r3, #0
 2703 00e8 13D0     		beq	.L173
 2704              		.loc 1 1140 0 is_stmt 0 discriminator 1
 2705 00ea 169B     		ldr	r3, [sp, #88]
 2706 00ec 002B     		cmp	r3, #0
 2707 00ee 01DA     		bge	.L174
 2708 00f0 03F10703 		add	r3, r3, #7
 2709              	.L174:
 2710 00f4 4FEAE303 		asr	r3, r3, #3
 2711 00f8 069A     		ldr	r2, [sp, #24]
 2712 00fa D35C     		ldrb	r3, [r2, r3]	@ zero_extendqisi2
 2713 00fc 1A46     		mov	r2, r3
ARM GAS  /tmp/cc2wa78n.s 			page 49


 2714 00fe 169B     		ldr	r3, [sp, #88]
 2715 0100 03F00703 		and	r3, r3, #7
 2716 0104 42FA03F3 		asr	r3, r2, r3
 2717 0108 03F00103 		and	r3, r3, #1
 2718 010c DBB2     		uxtb	r3, r3
 2719 010e 002B     		cmp	r3, #0
 2720 0110 2DD1     		bne	.L175
 2721              	.L173:
 2722              		.loc 1 1140 0 discriminator 2
 2723 0112 059B     		ldr	r3, [sp, #20]
 2724 0114 002B     		cmp	r3, #0
 2725 0116 13D0     		beq	.L176
 2726              		.loc 1 1141 0 is_stmt 1
 2727 0118 169B     		ldr	r3, [sp, #88]
 2728 011a 002B     		cmp	r3, #0
 2729 011c 01DA     		bge	.L177
 2730 011e 03F10703 		add	r3, r3, #7
 2731              	.L177:
 2732 0122 4FEAE303 		asr	r3, r3, #3
 2733 0126 059A     		ldr	r2, [sp, #20]
 2734 0128 D35C     		ldrb	r3, [r2, r3]	@ zero_extendqisi2
 2735 012a 1A46     		mov	r2, r3
 2736 012c 169B     		ldr	r3, [sp, #88]
 2737 012e 03F00703 		and	r3, r3, #7
 2738 0132 42FA03F3 		asr	r3, r2, r3
 2739 0136 03F00103 		and	r3, r3, #1
 2740 013a DBB2     		uxtb	r3, r3
 2741 013c 002B     		cmp	r3, #0
 2742 013e 16D1     		bne	.L175
 2743              	.L176:
 2744              		.loc 1 1141 0 is_stmt 0 discriminator 1
 2745 0140 049B     		ldr	r3, [sp, #16]
 2746 0142 002B     		cmp	r3, #0
 2747 0144 29D0     		beq	.L178
 2748              		.loc 1 1142 0 is_stmt 1
 2749 0146 169B     		ldr	r3, [sp, #88]
 2750 0148 002B     		cmp	r3, #0
 2751 014a 01DA     		bge	.L179
 2752 014c 03F10703 		add	r3, r3, #7
 2753              	.L179:
 2754 0150 4FEAE303 		asr	r3, r3, #3
 2755 0154 049A     		ldr	r2, [sp, #16]
 2756 0156 D35C     		ldrb	r3, [r2, r3]	@ zero_extendqisi2
 2757 0158 1A46     		mov	r2, r3
 2758 015a 169B     		ldr	r3, [sp, #88]
 2759 015c 03F00703 		and	r3, r3, #7
 2760 0160 42FA03F3 		asr	r3, r2, r3
 2761 0164 03F00103 		and	r3, r3, #1
 2762 0168 DBB2     		uxtb	r3, r3
 2763 016a 002B     		cmp	r3, #0
 2764 016c 15D0     		beq	.L178
 2765              	.L175:
 2766              	.LBB6:
 2767              		.loc 1 1143 0
 2768 016e 1698     		ldr	r0, [sp, #88]
 2769 0170 FFF7FEFF 		bl	tryget_socket
 2770 0174 0346     		mov	r3, r0
ARM GAS  /tmp/cc2wa78n.s 			page 50


 2771 0176 1493     		str	r3, [sp, #80]
 2772              		.loc 1 1144 0
 2773 0178 149B     		ldr	r3, [sp, #80]
 2774 017a 002B     		cmp	r3, #0
 2775 017c 01D1     		bne	.L180
 2776              		.loc 1 1144 0 is_stmt 0 discriminator 1
 2777 017e FFF7FEFF 		bl	port_halt
 2778              	.L180:
 2779              		.loc 1 1146 0 is_stmt 1
 2780 0182 149B     		ldr	r3, [sp, #80]
 2781 0184 5B69     		ldr	r3, [r3, #20]
 2782 0186 03F10102 		add	r2, r3, #1
 2783 018a 149B     		ldr	r3, [sp, #80]
 2784 018c 5A61     		str	r2, [r3, #20]
 2785              		.loc 1 1147 0
 2786 018e 149B     		ldr	r3, [sp, #80]
 2787 0190 5B69     		ldr	r3, [r3, #20]
 2788 0192 002B     		cmp	r3, #0
 2789 0194 01DC     		bgt	.L178
 2790              		.loc 1 1147 0 is_stmt 0 discriminator 1
 2791 0196 FFF7FEFF 		bl	port_halt
 2792              	.L178:
 2793              	.LBE6:
 2794              		.loc 1 1139 0 is_stmt 1
 2795 019a 169B     		ldr	r3, [sp, #88]
 2796 019c 03F10103 		add	r3, r3, #1
 2797 01a0 1693     		str	r3, [sp, #88]
 2798              	.L172:
 2799              		.loc 1 1139 0 is_stmt 0 discriminator 1
 2800 01a2 169A     		ldr	r2, [sp, #88]
 2801 01a4 079B     		ldr	r3, [sp, #28]
 2802 01a6 9A42     		cmp	r2, r3
 2803 01a8 9CDB     		blt	.L181
 2804              		.loc 1 1154 0 is_stmt 1
 2805 01aa 12AB     		add	r3, sp, #72
 2806 01ac 0093     		str	r3, [sp, #0]
 2807 01ae 11AB     		add	r3, sp, #68
 2808 01b0 0193     		str	r3, [sp, #4]
 2809 01b2 10AB     		add	r3, sp, #64
 2810 01b4 0293     		str	r3, [sp, #8]
 2811 01b6 0798     		ldr	r0, [sp, #28]
 2812 01b8 0699     		ldr	r1, [sp, #24]
 2813 01ba 059A     		ldr	r2, [sp, #20]
 2814 01bc 049B     		ldr	r3, [sp, #16]
 2815 01be FFF7FEFF 		bl	lwip_selscan
 2816 01c2 0346     		mov	r3, r0
 2817 01c4 1893     		str	r3, [sp, #96]
 2818              		.loc 1 1155 0
 2819 01c6 189B     		ldr	r3, [sp, #96]
 2820 01c8 002B     		cmp	r3, #0
 2821 01ca 2CD1     		bne	.L182
 2822              		.loc 1 1157 0
 2823 01cc 1C9B     		ldr	r3, [sp, #112]
 2824 01ce 002B     		cmp	r3, #0
 2825 01d0 03D1     		bne	.L183
 2826              		.loc 1 1159 0
 2827 01d2 4FF00003 		mov	r3, #0
ARM GAS  /tmp/cc2wa78n.s 			page 51


 2828 01d6 1793     		str	r3, [sp, #92]
 2829 01d8 1CE0     		b	.L184
 2830              	.L183:
 2831              		.loc 1 1161 0
 2832 01da 1C9B     		ldr	r3, [sp, #112]
 2833 01dc 1B68     		ldr	r3, [r3, #0]
 2834 01de 4FF47A72 		mov	r2, #1000
 2835 01e2 02FB03F1 		mul	r1, r2, r3
 2836 01e6 1C9B     		ldr	r3, [sp, #112]
 2837 01e8 5B68     		ldr	r3, [r3, #4]
 2838 01ea 03F5FA72 		add	r2, r3, #500
 2839 01ee 44F6D353 		movw	r3, #19923
 2840 01f2 C1F26203 		movt	r3, 4194
 2841 01f6 83FB0203 		smull	r0, r3, r3, r2
 2842 01fa 4FEAA310 		asr	r0, r3, #6
 2843 01fe 4FEAE273 		asr	r3, r2, #31
 2844 0202 C31A     		subs	r3, r0, r3
 2845 0204 CB18     		adds	r3, r1, r3
 2846 0206 1793     		str	r3, [sp, #92]
 2847              		.loc 1 1162 0
 2848 0208 179B     		ldr	r3, [sp, #92]
 2849 020a 002B     		cmp	r3, #0
 2850 020c 02D1     		bne	.L184
 2851              		.loc 1 1164 0
 2852 020e 4FF00103 		mov	r3, #1
 2853 0212 1793     		str	r3, [sp, #92]
 2854              	.L184:
 2855              		.loc 1 1168 0
 2856 0214 09AB     		add	r3, sp, #36
 2857 0216 03F11803 		add	r3, r3, #24
 2858 021a 1846     		mov	r0, r3
 2859 021c 1799     		ldr	r1, [sp, #92]
 2860 021e FFF7FEFF 		bl	sys_arch_sem_wait
 2861 0222 0346     		mov	r3, r0
 2862 0224 1993     		str	r3, [sp, #100]
 2863              	.L182:
 2864              		.loc 1 1171 0
 2865 0226 4FF00003 		mov	r3, #0
 2866 022a 1693     		str	r3, [sp, #88]
 2867 022c 5EE0     		b	.L185
 2868              	.L194:
 2869              		.loc 1 1172 0
 2870 022e 069B     		ldr	r3, [sp, #24]
 2871 0230 002B     		cmp	r3, #0
 2872 0232 13D0     		beq	.L186
 2873              		.loc 1 1172 0 is_stmt 0 discriminator 1
 2874 0234 169B     		ldr	r3, [sp, #88]
 2875 0236 002B     		cmp	r3, #0
 2876 0238 01DA     		bge	.L187
 2877 023a 03F10703 		add	r3, r3, #7
 2878              	.L187:
 2879 023e 4FEAE303 		asr	r3, r3, #3
 2880 0242 069A     		ldr	r2, [sp, #24]
 2881 0244 D35C     		ldrb	r3, [r2, r3]	@ zero_extendqisi2
 2882 0246 1A46     		mov	r2, r3
 2883 0248 169B     		ldr	r3, [sp, #88]
 2884 024a 03F00703 		and	r3, r3, #7
ARM GAS  /tmp/cc2wa78n.s 			page 52


 2885 024e 42FA03F3 		asr	r3, r2, r3
 2886 0252 03F00103 		and	r3, r3, #1
 2887 0256 DBB2     		uxtb	r3, r3
 2888 0258 002B     		cmp	r3, #0
 2889 025a 2DD1     		bne	.L188
 2890              	.L186:
 2891              		.loc 1 1172 0 discriminator 2
 2892 025c 059B     		ldr	r3, [sp, #20]
 2893 025e 002B     		cmp	r3, #0
 2894 0260 13D0     		beq	.L189
 2895              		.loc 1 1173 0 is_stmt 1
 2896 0262 169B     		ldr	r3, [sp, #88]
 2897 0264 002B     		cmp	r3, #0
 2898 0266 01DA     		bge	.L190
 2899 0268 03F10703 		add	r3, r3, #7
 2900              	.L190:
 2901 026c 4FEAE303 		asr	r3, r3, #3
 2902 0270 059A     		ldr	r2, [sp, #20]
 2903 0272 D35C     		ldrb	r3, [r2, r3]	@ zero_extendqisi2
 2904 0274 1A46     		mov	r2, r3
 2905 0276 169B     		ldr	r3, [sp, #88]
 2906 0278 03F00703 		and	r3, r3, #7
 2907 027c 42FA03F3 		asr	r3, r2, r3
 2908 0280 03F00103 		and	r3, r3, #1
 2909 0284 DBB2     		uxtb	r3, r3
 2910 0286 002B     		cmp	r3, #0
 2911 0288 16D1     		bne	.L188
 2912              	.L189:
 2913              		.loc 1 1173 0 is_stmt 0 discriminator 1
 2914 028a 049B     		ldr	r3, [sp, #16]
 2915 028c 002B     		cmp	r3, #0
 2916 028e 29D0     		beq	.L191
 2917              		.loc 1 1174 0 is_stmt 1
 2918 0290 169B     		ldr	r3, [sp, #88]
 2919 0292 002B     		cmp	r3, #0
 2920 0294 01DA     		bge	.L192
 2921 0296 03F10703 		add	r3, r3, #7
 2922              	.L192:
 2923 029a 4FEAE303 		asr	r3, r3, #3
 2924 029e 049A     		ldr	r2, [sp, #16]
 2925 02a0 D35C     		ldrb	r3, [r2, r3]	@ zero_extendqisi2
 2926 02a2 1A46     		mov	r2, r3
 2927 02a4 169B     		ldr	r3, [sp, #88]
 2928 02a6 03F00703 		and	r3, r3, #7
 2929 02aa 42FA03F3 		asr	r3, r2, r3
 2930 02ae 03F00103 		and	r3, r3, #1
 2931 02b2 DBB2     		uxtb	r3, r3
 2932 02b4 002B     		cmp	r3, #0
 2933 02b6 15D0     		beq	.L191
 2934              	.L188:
 2935              	.LBB7:
 2936              		.loc 1 1175 0
 2937 02b8 1698     		ldr	r0, [sp, #88]
 2938 02ba FFF7FEFF 		bl	tryget_socket
 2939 02be 0346     		mov	r3, r0
 2940 02c0 1393     		str	r3, [sp, #76]
 2941              		.loc 1 1176 0
ARM GAS  /tmp/cc2wa78n.s 			page 53


 2942 02c2 139B     		ldr	r3, [sp, #76]
 2943 02c4 002B     		cmp	r3, #0
 2944 02c6 01D1     		bne	.L193
 2945              		.loc 1 1176 0 is_stmt 0 discriminator 1
 2946 02c8 FFF7FEFF 		bl	port_halt
 2947              	.L193:
 2948              		.loc 1 1178 0 is_stmt 1
 2949 02cc 139B     		ldr	r3, [sp, #76]
 2950 02ce 5B69     		ldr	r3, [r3, #20]
 2951 02d0 03F1FF32 		add	r2, r3, #-1
 2952 02d4 139B     		ldr	r3, [sp, #76]
 2953 02d6 5A61     		str	r2, [r3, #20]
 2954              		.loc 1 1179 0
 2955 02d8 139B     		ldr	r3, [sp, #76]
 2956 02da 5B69     		ldr	r3, [r3, #20]
 2957 02dc 002B     		cmp	r3, #0
 2958 02de 01DA     		bge	.L191
 2959              		.loc 1 1179 0 is_stmt 0 discriminator 1
 2960 02e0 FFF7FEFF 		bl	port_halt
 2961              	.L191:
 2962              	.LBE7:
 2963              		.loc 1 1171 0 is_stmt 1
 2964 02e4 169B     		ldr	r3, [sp, #88]
 2965 02e6 03F10103 		add	r3, r3, #1
 2966 02ea 1693     		str	r3, [sp, #88]
 2967              	.L185:
 2968              		.loc 1 1171 0 is_stmt 0 discriminator 1
 2969 02ec 169A     		ldr	r2, [sp, #88]
 2970 02ee 079B     		ldr	r3, [sp, #28]
 2971 02f0 9A42     		cmp	r2, r3
 2972 02f2 9CDB     		blt	.L194
 2973              		.loc 1 1185 0 is_stmt 1
 2974 02f4 099B     		ldr	r3, [sp, #36]
 2975 02f6 002B     		cmp	r3, #0
 2976 02f8 02D0     		beq	.L195
 2977              		.loc 1 1186 0
 2978 02fa 099B     		ldr	r3, [sp, #36]
 2979 02fc 0A9A     		ldr	r2, [sp, #40]
 2980 02fe 5A60     		str	r2, [r3, #4]
 2981              	.L195:
 2982              		.loc 1 1188 0
 2983 0300 40F20003 		movw	r3, #:lower16:select_cb_list
 2984 0304 C0F20003 		movt	r3, #:upper16:select_cb_list
 2985 0308 1A68     		ldr	r2, [r3, #0]
 2986 030a 09AB     		add	r3, sp, #36
 2987 030c 9A42     		cmp	r2, r3
 2988 030e 0BD1     		bne	.L196
 2989              		.loc 1 1189 0
 2990 0310 0A9B     		ldr	r3, [sp, #40]
 2991 0312 002B     		cmp	r3, #0
 2992 0314 01D0     		beq	.L197
 2993              		.loc 1 1189 0 is_stmt 0 discriminator 1
 2994 0316 FFF7FEFF 		bl	port_halt
 2995              	.L197:
 2996              		.loc 1 1190 0 is_stmt 1
 2997 031a 099A     		ldr	r2, [sp, #36]
 2998 031c 40F20003 		movw	r3, #:lower16:select_cb_list
ARM GAS  /tmp/cc2wa78n.s 			page 54


 2999 0320 C0F20003 		movt	r3, #:upper16:select_cb_list
 3000 0324 1A60     		str	r2, [r3, #0]
 3001 0326 07E0     		b	.L198
 3002              	.L196:
 3003              		.loc 1 1192 0
 3004 0328 0A9B     		ldr	r3, [sp, #40]
 3005 032a 002B     		cmp	r3, #0
 3006 032c 01D1     		bne	.L199
 3007              		.loc 1 1192 0 is_stmt 0 discriminator 1
 3008 032e FFF7FEFF 		bl	port_halt
 3009              	.L199:
 3010              		.loc 1 1193 0 is_stmt 1
 3011 0332 0A9B     		ldr	r3, [sp, #40]
 3012 0334 099A     		ldr	r2, [sp, #36]
 3013 0336 1A60     		str	r2, [r3, #0]
 3014              	.L198:
 3015              		.loc 1 1196 0
 3016 0338 40F20003 		movw	r3, #:lower16:select_cb_ctr
 3017 033c C0F20003 		movt	r3, #:upper16:select_cb_ctr
 3018 0340 1B68     		ldr	r3, [r3, #0]
 3019 0342 03F10102 		add	r2, r3, #1
 3020 0346 40F20003 		movw	r3, #:lower16:select_cb_ctr
 3021 034a C0F20003 		movt	r3, #:upper16:select_cb_ctr
 3022 034e 1A60     		str	r2, [r3, #0]
 3023              		.loc 1 1199 0
 3024 0350 09AB     		add	r3, sp, #36
 3025 0352 03F11803 		add	r3, r3, #24
 3026 0356 1846     		mov	r0, r3
 3027 0358 FFF7FEFF 		bl	sys_sem_free
 3028              		.loc 1 1200 0
 3029 035c 199B     		ldr	r3, [sp, #100]
 3030 035e B3F1FF3F 		cmp	r3, #-1
 3031 0362 10D0     		beq	.L205
 3032              	.L200:
 3033              		.loc 1 1209 0
 3034 0364 12AB     		add	r3, sp, #72
 3035 0366 0093     		str	r3, [sp, #0]
 3036 0368 11AB     		add	r3, sp, #68
 3037 036a 0193     		str	r3, [sp, #4]
 3038 036c 10AB     		add	r3, sp, #64
 3039 036e 0293     		str	r3, [sp, #8]
 3040 0370 0798     		ldr	r0, [sp, #28]
 3041 0372 0699     		ldr	r1, [sp, #24]
 3042 0374 059A     		ldr	r2, [sp, #20]
 3043 0376 049B     		ldr	r3, [sp, #16]
 3044 0378 FFF7FEFF 		bl	lwip_selscan
 3045 037c 0346     		mov	r3, r0
 3046 037e 1893     		str	r3, [sp, #96]
 3047 0380 02E0     		b	.L167
 3048              	.L204:
 3049              		.loc 1 1102 0
 3050 0382 00BF     		nop
 3051 0384 00E0     		b	.L167
 3052              	.L205:
 3053              		.loc 1 1205 0
 3054 0386 00BF     		nop
 3055              	.L167:
ARM GAS  /tmp/cc2wa78n.s 			page 55


 3056              		.loc 1 1215 0
 3057 0388 069B     		ldr	r3, [sp, #24]
 3058 038a 002B     		cmp	r3, #0
 3059 038c 03D0     		beq	.L201
 3060              		.loc 1 1216 0
 3061 038e 069B     		ldr	r3, [sp, #24]
 3062 0390 9DF84820 		ldrb	r2, [sp, #72]
 3063 0394 1A70     		strb	r2, [r3, #0]
 3064              	.L201:
 3065              		.loc 1 1218 0
 3066 0396 059B     		ldr	r3, [sp, #20]
 3067 0398 002B     		cmp	r3, #0
 3068 039a 03D0     		beq	.L202
 3069              		.loc 1 1219 0
 3070 039c 059B     		ldr	r3, [sp, #20]
 3071 039e 9DF84420 		ldrb	r2, [sp, #68]
 3072 03a2 1A70     		strb	r2, [r3, #0]
 3073              	.L202:
 3074              		.loc 1 1221 0
 3075 03a4 049B     		ldr	r3, [sp, #16]
 3076 03a6 002B     		cmp	r3, #0
 3077 03a8 03D0     		beq	.L203
 3078              		.loc 1 1222 0
 3079 03aa 049B     		ldr	r3, [sp, #16]
 3080 03ac 9DF84020 		ldrb	r2, [sp, #64]
 3081 03b0 1A70     		strb	r2, [r3, #0]
 3082              	.L203:
 3083              		.loc 1 1226 0
 3084 03b2 189B     		ldr	r3, [sp, #96]
 3085              	.L170:
 3086              		.loc 1 1227 0
 3087 03b4 1846     		mov	r0, r3
 3088 03b6 1BB0     		add	sp, sp, #108
 3089 03b8 00BD     		pop	{pc}
 3090              		.cfi_endproc
 3091              	.LFE25:
 3092              		.size	lwip_select, .-lwip_select
 3093 03ba 00BFAFF3 		.section	.text.event_callback,"ax",%progbits
 3093      0080
 3094              		.align	2
 3095              		.p2align 4,,15
 3096              		.thumb
 3097              		.thumb_func
 3098              		.type	event_callback, %function
 3099              	event_callback:
 3100              	.LFB26:
 3101              		.loc 1 1235 0
 3102              		.cfi_startproc
 3103              		@ args = 0, pretend = 0, frame = 32
 3104              		@ frame_needed = 0, uses_anonymous_args = 0
 3105 0000 00B5     		push	{lr}
 3106              	.LCFI33:
 3107              		.cfi_def_cfa_offset 4
 3108              		.cfi_offset 14, -4
 3109 0002 89B0     		sub	sp, sp, #36
 3110              	.LCFI34:
 3111              		.cfi_def_cfa_offset 40
ARM GAS  /tmp/cc2wa78n.s 			page 56


 3112 0004 0190     		str	r0, [sp, #4]
 3113 0006 1346     		mov	r3, r2
 3114 0008 0A46     		mov	r2, r1
 3115 000a 8DF80320 		strb	r2, [sp, #3]
 3116 000e ADF80030 		strh	r3, [sp, #0]	@ movhi
 3117              		.loc 1 1245 0
 3118 0012 019B     		ldr	r3, [sp, #4]
 3119 0014 002B     		cmp	r3, #0
 3120 0016 00F0F580 		beq	.L232
 3121              		.loc 1 1246 0
 3122 001a 019B     		ldr	r3, [sp, #4]
 3123 001c 9B69     		ldr	r3, [r3, #24]
 3124 001e 0793     		str	r3, [sp, #28]
 3125              		.loc 1 1247 0
 3126 0020 079B     		ldr	r3, [sp, #28]
 3127 0022 002B     		cmp	r3, #0
 3128 0024 12DA     		bge	.L208
 3129              		.loc 1 1254 0
 3130 0026 019B     		ldr	r3, [sp, #4]
 3131 0028 9B69     		ldr	r3, [r3, #24]
 3132 002a 002B     		cmp	r3, #0
 3133 002c 0BDA     		bge	.L209
 3134              		.loc 1 1255 0
 3135 002e 9DF80330 		ldrb	r3, [sp, #3]	@ zero_extendqisi2
 3136 0032 002B     		cmp	r3, #0
 3137 0034 40F0E880 		bne	.L233
 3138              		.loc 1 1256 0
 3139 0038 019B     		ldr	r3, [sp, #4]
 3140 003a 9B69     		ldr	r3, [r3, #24]
 3141 003c 03F1FF32 		add	r2, r3, #-1
 3142 0040 019B     		ldr	r3, [sp, #4]
 3143 0042 9A61     		str	r2, [r3, #24]
 3144              		.loc 1 1259 0
 3145 0044 E0E0     		b	.L233
 3146              	.L209:
 3147              		.loc 1 1261 0
 3148 0046 019B     		ldr	r3, [sp, #4]
 3149 0048 9B69     		ldr	r3, [r3, #24]
 3150 004a 0793     		str	r3, [sp, #28]
 3151              	.L208:
 3152              		.loc 1 1265 0
 3153 004c 0798     		ldr	r0, [sp, #28]
 3154 004e FFF7FEFF 		bl	get_socket
 3155 0052 0346     		mov	r3, r0
 3156 0054 0493     		str	r3, [sp, #16]
 3157              		.loc 1 1266 0
 3158 0056 049B     		ldr	r3, [sp, #16]
 3159 0058 002B     		cmp	r3, #0
 3160 005a 00F0D780 		beq	.L234
 3161              	.L212:
 3162              		.loc 1 1275 0
 3163 005e 9DF80330 		ldrb	r3, [sp, #3]	@ zero_extendqisi2
 3164 0062 042B     		cmp	r3, #4
 3165 0064 2BD8     		bhi	.L213
 3166 0066 01A2     		adr	r2, .L219
 3167 0068 52F823F0 		ldr	pc, [r2, r3, lsl #2]
 3168              		.align	2
ARM GAS  /tmp/cc2wa78n.s 			page 57


 3169              	.L219:
 3170 006c 81000000 		.word	.L214+1
 3171 0070 91000000 		.word	.L215+1
 3172 0074 A1000000 		.word	.L216+1
 3173 0078 AB000000 		.word	.L217+1
 3174 007c B5000000 		.word	.L218+1
 3175              	.L214:
 3176              		.loc 1 1277 0
 3177 0080 049B     		ldr	r3, [sp, #16]
 3178 0082 5B89     		ldrh	r3, [r3, #10]
 3179 0084 03F10103 		add	r3, r3, #1
 3180 0088 9AB2     		uxth	r2, r3
 3181 008a 049B     		ldr	r3, [sp, #16]
 3182 008c 5A81     		strh	r2, [r3, #10]	@ movhi
 3183              		.loc 1 1278 0
 3184 008e 19E0     		b	.L220
 3185              	.L215:
 3186              		.loc 1 1280 0
 3187 0090 049B     		ldr	r3, [sp, #16]
 3188 0092 5B89     		ldrh	r3, [r3, #10]
 3189 0094 03F1FF33 		add	r3, r3, #-1
 3190 0098 9AB2     		uxth	r2, r3
 3191 009a 049B     		ldr	r3, [sp, #16]
 3192 009c 5A81     		strh	r2, [r3, #10]	@ movhi
 3193              		.loc 1 1281 0
 3194 009e 11E0     		b	.L220
 3195              	.L216:
 3196              		.loc 1 1283 0
 3197 00a0 049B     		ldr	r3, [sp, #16]
 3198 00a2 4FF00102 		mov	r2, #1
 3199 00a6 9A81     		strh	r2, [r3, #12]	@ movhi
 3200              		.loc 1 1284 0
 3201 00a8 0CE0     		b	.L220
 3202              	.L217:
 3203              		.loc 1 1286 0
 3204 00aa 049B     		ldr	r3, [sp, #16]
 3205 00ac 4FF00002 		mov	r2, #0
 3206 00b0 9A81     		strh	r2, [r3, #12]	@ movhi
 3207              		.loc 1 1287 0
 3208 00b2 07E0     		b	.L220
 3209              	.L218:
 3210              		.loc 1 1289 0
 3211 00b4 049B     		ldr	r3, [sp, #16]
 3212 00b6 4FF00102 		mov	r2, #1
 3213 00ba DA81     		strh	r2, [r3, #14]	@ movhi
 3214              		.loc 1 1290 0
 3215 00bc 02E0     		b	.L220
 3216              	.L213:
 3217              		.loc 1 1292 0 discriminator 1
 3218 00be FFF7FEFF 		bl	port_halt
 3219              		.loc 1 1293 0
 3220 00c2 00BF     		nop
 3221              	.L220:
 3222              		.loc 1 1296 0
 3223 00c4 049B     		ldr	r3, [sp, #16]
 3224 00c6 5B69     		ldr	r3, [r3, #20]
 3225 00c8 002B     		cmp	r3, #0
ARM GAS  /tmp/cc2wa78n.s 			page 58


 3226 00ca 00F0A180 		beq	.L235
 3227 00ce 00E0     		b	.L221
 3228              	.L236:
 3229              		.loc 1 1343 0
 3230 00d0 00BF     		nop
 3231              	.L221:
 3232              		.loc 1 1309 0
 3233 00d2 40F20003 		movw	r3, #:lower16:select_cb_list
 3234 00d6 C0F20003 		movt	r3, #:upper16:select_cb_list
 3235 00da 1B68     		ldr	r3, [r3, #0]
 3236 00dc 0693     		str	r3, [sp, #24]
 3237 00de 8CE0     		b	.L222
 3238              	.L231:
 3239              		.loc 1 1310 0
 3240 00e0 069B     		ldr	r3, [sp, #24]
 3241 00e2 5B69     		ldr	r3, [r3, #20]
 3242 00e4 002B     		cmp	r3, #0
 3243 00e6 76D1     		bne	.L223
 3244              	.LBB8:
 3245              		.loc 1 1312 0
 3246 00e8 4FF00003 		mov	r3, #0
 3247 00ec 0593     		str	r3, [sp, #20]
 3248              		.loc 1 1314 0
 3249 00ee 049B     		ldr	r3, [sp, #16]
 3250 00f0 5B89     		ldrh	r3, [r3, #10]
 3251 00f2 1BB2     		sxth	r3, r3
 3252 00f4 002B     		cmp	r3, #0
 3253 00f6 1BDD     		ble	.L224
 3254              		.loc 1 1315 0
 3255 00f8 069B     		ldr	r3, [sp, #24]
 3256 00fa 9B68     		ldr	r3, [r3, #8]
 3257 00fc 002B     		cmp	r3, #0
 3258 00fe 17D0     		beq	.L224
 3259              		.loc 1 1315 0 is_stmt 0 discriminator 1
 3260 0100 069B     		ldr	r3, [sp, #24]
 3261 0102 9A68     		ldr	r2, [r3, #8]
 3262 0104 079B     		ldr	r3, [sp, #28]
 3263 0106 002B     		cmp	r3, #0
 3264 0108 01DA     		bge	.L225
 3265 010a 03F10703 		add	r3, r3, #7
 3266              	.L225:
 3267 010e 4FEAE303 		asr	r3, r3, #3
 3268 0112 D35C     		ldrb	r3, [r2, r3]	@ zero_extendqisi2
 3269 0114 1A46     		mov	r2, r3
 3270 0116 079B     		ldr	r3, [sp, #28]
 3271 0118 03F00703 		and	r3, r3, #7
 3272 011c 42FA03F3 		asr	r3, r2, r3
 3273 0120 03F00103 		and	r3, r3, #1
 3274 0124 DBB2     		uxtb	r3, r3
 3275 0126 002B     		cmp	r3, #0
 3276 0128 02D0     		beq	.L224
 3277              		.loc 1 1316 0 is_stmt 1
 3278 012a 4FF00103 		mov	r3, #1
 3279 012e 0593     		str	r3, [sp, #20]
 3280              	.L224:
 3281              		.loc 1 1319 0
 3282 0130 049B     		ldr	r3, [sp, #16]
ARM GAS  /tmp/cc2wa78n.s 			page 59


 3283 0132 9B89     		ldrh	r3, [r3, #12]
 3284 0134 002B     		cmp	r3, #0
 3285 0136 1ED0     		beq	.L226
 3286              		.loc 1 1320 0
 3287 0138 059B     		ldr	r3, [sp, #20]
 3288 013a 002B     		cmp	r3, #0
 3289 013c 1BD1     		bne	.L226
 3290              		.loc 1 1320 0 is_stmt 0 discriminator 1
 3291 013e 069B     		ldr	r3, [sp, #24]
 3292 0140 DB68     		ldr	r3, [r3, #12]
 3293 0142 002B     		cmp	r3, #0
 3294 0144 17D0     		beq	.L226
 3295 0146 069B     		ldr	r3, [sp, #24]
 3296 0148 DA68     		ldr	r2, [r3, #12]
 3297 014a 079B     		ldr	r3, [sp, #28]
 3298 014c 002B     		cmp	r3, #0
 3299 014e 01DA     		bge	.L227
 3300 0150 03F10703 		add	r3, r3, #7
 3301              	.L227:
 3302 0154 4FEAE303 		asr	r3, r3, #3
 3303 0158 D35C     		ldrb	r3, [r2, r3]	@ zero_extendqisi2
 3304 015a 1A46     		mov	r2, r3
 3305 015c 079B     		ldr	r3, [sp, #28]
 3306 015e 03F00703 		and	r3, r3, #7
 3307 0162 42FA03F3 		asr	r3, r2, r3
 3308 0166 03F00103 		and	r3, r3, #1
 3309 016a DBB2     		uxtb	r3, r3
 3310 016c 002B     		cmp	r3, #0
 3311 016e 02D0     		beq	.L226
 3312              		.loc 1 1321 0 is_stmt 1
 3313 0170 4FF00103 		mov	r3, #1
 3314 0174 0593     		str	r3, [sp, #20]
 3315              	.L226:
 3316              		.loc 1 1324 0
 3317 0176 049B     		ldr	r3, [sp, #16]
 3318 0178 DB89     		ldrh	r3, [r3, #14]
 3319 017a 002B     		cmp	r3, #0
 3320 017c 1ED0     		beq	.L228
 3321              		.loc 1 1325 0
 3322 017e 059B     		ldr	r3, [sp, #20]
 3323 0180 002B     		cmp	r3, #0
 3324 0182 1BD1     		bne	.L228
 3325              		.loc 1 1325 0 is_stmt 0 discriminator 1
 3326 0184 069B     		ldr	r3, [sp, #24]
 3327 0186 1B69     		ldr	r3, [r3, #16]
 3328 0188 002B     		cmp	r3, #0
 3329 018a 17D0     		beq	.L228
 3330 018c 069B     		ldr	r3, [sp, #24]
 3331 018e 1A69     		ldr	r2, [r3, #16]
 3332 0190 079B     		ldr	r3, [sp, #28]
 3333 0192 002B     		cmp	r3, #0
 3334 0194 01DA     		bge	.L229
 3335 0196 03F10703 		add	r3, r3, #7
 3336              	.L229:
 3337 019a 4FEAE303 		asr	r3, r3, #3
 3338 019e D35C     		ldrb	r3, [r2, r3]	@ zero_extendqisi2
 3339 01a0 1A46     		mov	r2, r3
ARM GAS  /tmp/cc2wa78n.s 			page 60


 3340 01a2 079B     		ldr	r3, [sp, #28]
 3341 01a4 03F00703 		and	r3, r3, #7
 3342 01a8 42FA03F3 		asr	r3, r2, r3
 3343 01ac 03F00103 		and	r3, r3, #1
 3344 01b0 DBB2     		uxtb	r3, r3
 3345 01b2 002B     		cmp	r3, #0
 3346 01b4 02D0     		beq	.L228
 3347              		.loc 1 1326 0 is_stmt 1
 3348 01b6 4FF00103 		mov	r3, #1
 3349 01ba 0593     		str	r3, [sp, #20]
 3350              	.L228:
 3351              		.loc 1 1329 0
 3352 01bc 059B     		ldr	r3, [sp, #20]
 3353 01be 002B     		cmp	r3, #0
 3354 01c0 09D0     		beq	.L223
 3355              		.loc 1 1330 0
 3356 01c2 069B     		ldr	r3, [sp, #24]
 3357 01c4 4FF00102 		mov	r2, #1
 3358 01c8 5A61     		str	r2, [r3, #20]
 3359              		.loc 1 1333 0
 3360 01ca 069B     		ldr	r3, [sp, #24]
 3361 01cc 03F11803 		add	r3, r3, #24
 3362 01d0 1846     		mov	r0, r3
 3363 01d2 FFF7FEFF 		bl	sys_sem_signal
 3364              	.L223:
 3365              	.LBE8:
 3366              		.loc 1 1337 0
 3367 01d6 40F20003 		movw	r3, #:lower16:select_cb_ctr
 3368 01da C0F20003 		movt	r3, #:upper16:select_cb_ctr
 3369 01de 1B68     		ldr	r3, [r3, #0]
 3370 01e0 0393     		str	r3, [sp, #12]
 3371              		.loc 1 1341 0
 3372 01e2 40F20003 		movw	r3, #:lower16:select_cb_ctr
 3373 01e6 C0F20003 		movt	r3, #:upper16:select_cb_ctr
 3374 01ea 1B68     		ldr	r3, [r3, #0]
 3375 01ec 039A     		ldr	r2, [sp, #12]
 3376 01ee 9A42     		cmp	r2, r3
 3377 01f0 7FF46EAF 		bne	.L236
 3378              	.L230:
 3379              		.loc 1 1309 0
 3380 01f4 069B     		ldr	r3, [sp, #24]
 3381 01f6 1B68     		ldr	r3, [r3, #0]
 3382 01f8 0693     		str	r3, [sp, #24]
 3383              	.L222:
 3384              		.loc 1 1309 0 is_stmt 0 discriminator 1
 3385 01fa 069B     		ldr	r3, [sp, #24]
 3386 01fc 002B     		cmp	r3, #0
 3387 01fe 7FF46FAF 		bne	.L231
 3388 0202 06E0     		b	.L206
 3389              	.L232:
 3390              		.loc 1 1270 0 is_stmt 1
 3391 0204 00BF     		nop
 3392 0206 04E0     		b	.L206
 3393              	.L233:
 3394              		.loc 1 1259 0
 3395 0208 00BF     		nop
 3396 020a 02E0     		b	.L206
ARM GAS  /tmp/cc2wa78n.s 			page 61


 3397              	.L234:
 3398              		.loc 1 1267 0
 3399 020c 00BF     		nop
 3400 020e 00E0     		b	.L206
 3401              	.L235:
 3402              		.loc 1 1299 0
 3403 0210 00BF     		nop
 3404              	.L206:
 3405              		.loc 1 1347 0
 3406 0212 09B0     		add	sp, sp, #36
 3407 0214 00BD     		pop	{pc}
 3408              		.cfi_endproc
 3409              	.LFE26:
 3410              		.size	event_callback, .-event_callback
 3411 0216 00BFAFF3 		.section	.text.lwip_shutdown,"ax",%progbits
 3411      0080AFF3 
 3411      0080
 3412              		.align	2
 3413              		.p2align 4,,15
 3414              		.global	lwip_shutdown
 3415              		.thumb
 3416              		.thumb_func
 3417              		.type	lwip_shutdown, %function
 3418              	lwip_shutdown:
 3419              	.LFB27:
 3420              		.loc 1 1355 0
 3421              		.cfi_startproc
 3422              		@ args = 0, pretend = 0, frame = 24
 3423              		@ frame_needed = 0, uses_anonymous_args = 0
 3424 0000 00B5     		push	{lr}
 3425              	.LCFI35:
 3426              		.cfi_def_cfa_offset 4
 3427              		.cfi_offset 14, -4
 3428 0002 87B0     		sub	sp, sp, #28
 3429              	.LCFI36:
 3430              		.cfi_def_cfa_offset 32
 3431 0004 0190     		str	r0, [sp, #4]
 3432 0006 0091     		str	r1, [sp, #0]
 3433              		.loc 1 1358 0
 3434 0008 4FF00003 		mov	r3, #0
 3435 000c 8DF81730 		strb	r3, [sp, #23]
 3436 0010 4FF00003 		mov	r3, #0
 3437 0014 8DF81630 		strb	r3, [sp, #22]
 3438              		.loc 1 1362 0
 3439 0018 0198     		ldr	r0, [sp, #4]
 3440 001a FFF7FEFF 		bl	get_socket
 3441 001e 0346     		mov	r3, r0
 3442 0020 0493     		str	r3, [sp, #16]
 3443              		.loc 1 1363 0
 3444 0022 049B     		ldr	r3, [sp, #16]
 3445 0024 002B     		cmp	r3, #0
 3446 0026 02D1     		bne	.L238
 3447              		.loc 1 1364 0
 3448 0028 4FF0FF33 		mov	r3, #-1
 3449 002c 65E0     		b	.L239
 3450              	.L238:
 3451              		.loc 1 1367 0
ARM GAS  /tmp/cc2wa78n.s 			page 62


 3452 002e 049B     		ldr	r3, [sp, #16]
 3453 0030 1B68     		ldr	r3, [r3, #0]
 3454 0032 002B     		cmp	r3, #0
 3455 0034 0BD0     		beq	.L240
 3456              		.loc 1 1368 0
 3457 0036 049B     		ldr	r3, [sp, #16]
 3458 0038 1B68     		ldr	r3, [r3, #0]
 3459 003a 1B78     		ldrb	r3, [r3, #0]	@ zero_extendqisi2
 3460 003c 102B     		cmp	r3, #16
 3461 003e 0DD0     		beq	.L241
 3462              		.loc 1 1369 0
 3463 0040 049B     		ldr	r3, [sp, #16]
 3464 0042 4FF05F02 		mov	r2, #95
 3465 0046 1A61     		str	r2, [r3, #16]
 3466              		.loc 1 1370 0
 3467 0048 4FF05F03 		mov	r3, #95
 3468 004c 55E0     		b	.L239
 3469              	.L240:
 3470              		.loc 1 1373 0
 3471 004e 049B     		ldr	r3, [sp, #16]
 3472 0050 4FF06B02 		mov	r2, #107
 3473 0054 1A61     		str	r2, [r3, #16]
 3474              		.loc 1 1374 0
 3475 0056 4FF06B03 		mov	r3, #107
 3476 005a 4EE0     		b	.L239
 3477              	.L241:
 3478              		.loc 1 1377 0
 3479 005c 009B     		ldr	r3, [sp, #0]
 3480 005e 002B     		cmp	r3, #0
 3481 0060 04D1     		bne	.L242
 3482              		.loc 1 1378 0
 3483 0062 4FF00103 		mov	r3, #1
 3484 0066 8DF81730 		strb	r3, [sp, #23]
 3485 006a 1AE0     		b	.L243
 3486              	.L242:
 3487              		.loc 1 1379 0
 3488 006c 009B     		ldr	r3, [sp, #0]
 3489 006e 012B     		cmp	r3, #1
 3490 0070 04D1     		bne	.L244
 3491              		.loc 1 1380 0
 3492 0072 4FF00103 		mov	r3, #1
 3493 0076 8DF81630 		strb	r3, [sp, #22]
 3494 007a 12E0     		b	.L243
 3495              	.L244:
 3496              		.loc 1 1381 0
 3497 007c 009B     		ldr	r3, [sp, #0]
 3498 007e 022B     		cmp	r3, #2
 3499 0080 08D1     		bne	.L245
 3500              		.loc 1 1382 0
 3501 0082 4FF00103 		mov	r3, #1
 3502 0086 8DF81730 		strb	r3, [sp, #23]
 3503              		.loc 1 1383 0
 3504 008a 4FF00103 		mov	r3, #1
 3505 008e 8DF81630 		strb	r3, [sp, #22]
 3506 0092 06E0     		b	.L243
 3507              	.L245:
 3508              		.loc 1 1385 0
ARM GAS  /tmp/cc2wa78n.s 			page 63


 3509 0094 049B     		ldr	r3, [sp, #16]
 3510 0096 4FF01602 		mov	r2, #22
 3511 009a 1A61     		str	r2, [r3, #16]
 3512              		.loc 1 1386 0
 3513 009c 4FF01603 		mov	r3, #22
 3514 00a0 2BE0     		b	.L239
 3515              	.L243:
 3516              		.loc 1 1388 0
 3517 00a2 049B     		ldr	r3, [sp, #16]
 3518 00a4 1968     		ldr	r1, [r3, #0]
 3519 00a6 9DF81720 		ldrb	r2, [sp, #23]	@ zero_extendqisi2
 3520 00aa 9DF81630 		ldrb	r3, [sp, #22]	@ zero_extendqisi2
 3521 00ae 0846     		mov	r0, r1
 3522 00b0 1146     		mov	r1, r2
 3523 00b2 1A46     		mov	r2, r3
 3524 00b4 FFF7FEFF 		bl	netconn_shutdown
 3525 00b8 0346     		mov	r3, r0
 3526 00ba 8DF80F30 		strb	r3, [sp, #15]
 3527              		.loc 1 1390 0
 3528 00be 9DF90F30 		ldrsb	r3, [sp, #15]
 3529 00c2 C3F10003 		rsb	r3, r3, #0
 3530 00c6 0F2B     		cmp	r3, #15
 3531 00c8 0AD8     		bhi	.L246
 3532              		.loc 1 1390 0 is_stmt 0 discriminator 1
 3533 00ca 9DF90F30 		ldrsb	r3, [sp, #15]
 3534 00ce C3F10002 		rsb	r2, r3, #0
 3535 00d2 40F20003 		movw	r3, #:lower16:err_to_errno_table
 3536 00d6 C0F20003 		movt	r3, #:upper16:err_to_errno_table
 3537 00da 53F82230 		ldr	r3, [r3, r2, lsl #2]
 3538 00de 01E0     		b	.L247
 3539              	.L246:
 3540              		.loc 1 1390 0 discriminator 2
 3541 00e0 4FF00503 		mov	r3, #5
 3542              	.L247:
 3543              		.loc 1 1390 0 discriminator 3
 3544 00e4 049A     		ldr	r2, [sp, #16]
 3545 00e6 1361     		str	r3, [r2, #16]
 3546              		.loc 1 1391 0 is_stmt 1 discriminator 3
 3547 00e8 9DF90F30 		ldrsb	r3, [sp, #15]
 3548 00ec 002B     		cmp	r3, #0
 3549 00ee 02D1     		bne	.L248
 3550              		.loc 1 1391 0 is_stmt 0 discriminator 1
 3551 00f0 4FF00003 		mov	r3, #0
 3552 00f4 01E0     		b	.L249
 3553              	.L248:
 3554              		.loc 1 1391 0 discriminator 2
 3555 00f6 4FF0FF33 		mov	r3, #-1
 3556              	.L249:
 3557              	.L239:
 3558              		.loc 1 1392 0 is_stmt 1
 3559 00fa 1846     		mov	r0, r3
 3560 00fc 07B0     		add	sp, sp, #28
 3561 00fe 00BD     		pop	{pc}
 3562              		.cfi_endproc
 3563              	.LFE27:
 3564              		.size	lwip_shutdown, .-lwip_shutdown
 3565              		.section	.text.lwip_getaddrname,"ax",%progbits
ARM GAS  /tmp/cc2wa78n.s 			page 64


 3566              		.align	2
 3567              		.p2align 4,,15
 3568              		.thumb
 3569              		.thumb_func
 3570              		.type	lwip_getaddrname, %function
 3571              	lwip_getaddrname:
 3572              	.LFB28:
 3573              		.loc 1 1396 0
 3574              		.cfi_startproc
 3575              		@ args = 0, pretend = 0, frame = 40
 3576              		@ frame_needed = 0, uses_anonymous_args = 0
 3577 0000 00B5     		push	{lr}
 3578              	.LCFI37:
 3579              		.cfi_def_cfa_offset 4
 3580              		.cfi_offset 14, -4
 3581 0002 8BB0     		sub	sp, sp, #44
 3582              	.LCFI38:
 3583              		.cfi_def_cfa_offset 48
 3584 0004 0390     		str	r0, [sp, #12]
 3585 0006 0291     		str	r1, [sp, #8]
 3586 0008 0192     		str	r2, [sp, #4]
 3587 000a 8DF80330 		strb	r3, [sp, #3]
 3588              		.loc 1 1401 0
 3589 000e 0398     		ldr	r0, [sp, #12]
 3590 0010 FFF7FEFF 		bl	get_socket
 3591 0014 0346     		mov	r3, r0
 3592 0016 0993     		str	r3, [sp, #36]
 3593              		.loc 1 1402 0
 3594 0018 099B     		ldr	r3, [sp, #36]
 3595 001a 002B     		cmp	r3, #0
 3596 001c 02D1     		bne	.L251
 3597              		.loc 1 1403 0
 3598 001e 4FF0FF33 		mov	r3, #-1
 3599 0022 47E0     		b	.L252
 3600              	.L251:
 3601              		.loc 1 1406 0
 3602 0024 05AB     		add	r3, sp, #20
 3603 0026 4FF00002 		mov	r2, #0
 3604 002a 1A60     		str	r2, [r3, #0]
 3605 002c 03F10403 		add	r3, r3, #4
 3606 0030 4FF00002 		mov	r2, #0
 3607 0034 1A60     		str	r2, [r3, #0]
 3608 0036 03F10403 		add	r3, r3, #4
 3609 003a 4FF00002 		mov	r2, #0
 3610 003e 1A60     		str	r2, [r3, #0]
 3611 0040 03F10403 		add	r3, r3, #4
 3612 0044 4FF00002 		mov	r2, #0
 3613 0048 1A60     		str	r2, [r3, #0]
 3614 004a 03F10403 		add	r3, r3, #4
 3615              		.loc 1 1407 0
 3616 004e 4FF01003 		mov	r3, #16
 3617 0052 8DF81430 		strb	r3, [sp, #20]
 3618              		.loc 1 1408 0
 3619 0056 4FF00203 		mov	r3, #2
 3620 005a 8DF81530 		strb	r3, [sp, #21]
 3621              		.loc 1 1411 0
 3622 005e 099B     		ldr	r3, [sp, #36]
ARM GAS  /tmp/cc2wa78n.s 			page 65


 3623 0060 1868     		ldr	r0, [r3, #0]
 3624 0062 04A9     		add	r1, sp, #16
 3625 0064 05AB     		add	r3, sp, #20
 3626 0066 03F10202 		add	r2, r3, #2
 3627 006a 9DF80330 		ldrb	r3, [sp, #3]	@ zero_extendqisi2
 3628 006e FFF7FEFF 		bl	netconn_getaddr
 3629              		.loc 1 1417 0
 3630 0072 BDF81630 		ldrh	r3, [sp, #22]
 3631 0076 1846     		mov	r0, r3
 3632 0078 FFF7FEFF 		bl	lwip_htons
 3633 007c 0346     		mov	r3, r0
 3634 007e ADF81630 		strh	r3, [sp, #22]	@ movhi
 3635              		.loc 1 1418 0
 3636 0082 049B     		ldr	r3, [sp, #16]
 3637 0084 0693     		str	r3, [sp, #24]
 3638              		.loc 1 1420 0
 3639 0086 019B     		ldr	r3, [sp, #4]
 3640 0088 1B68     		ldr	r3, [r3, #0]
 3641 008a 102B     		cmp	r3, #16
 3642 008c 03D9     		bls	.L253
 3643              		.loc 1 1421 0
 3644 008e 019B     		ldr	r3, [sp, #4]
 3645 0090 4FF01002 		mov	r2, #16
 3646 0094 1A60     		str	r2, [r3, #0]
 3647              	.L253:
 3648              		.loc 1 1424 0
 3649 0096 019B     		ldr	r3, [sp, #4]
 3650 0098 1B68     		ldr	r3, [r3, #0]
 3651 009a 0299     		ldr	r1, [sp, #8]
 3652 009c 05AA     		add	r2, sp, #20
 3653 009e 0846     		mov	r0, r1
 3654 00a0 1146     		mov	r1, r2
 3655 00a2 1A46     		mov	r2, r3
 3656 00a4 FFF7FEFF 		bl	memcpy
 3657              		.loc 1 1425 0
 3658 00a8 099B     		ldr	r3, [sp, #36]
 3659 00aa 4FF00002 		mov	r2, #0
 3660 00ae 1A61     		str	r2, [r3, #16]
 3661              		.loc 1 1426 0
 3662 00b0 4FF00003 		mov	r3, #0
 3663              	.L252:
 3664              		.loc 1 1427 0
 3665 00b4 1846     		mov	r0, r3
 3666 00b6 0BB0     		add	sp, sp, #44
 3667 00b8 00BD     		pop	{pc}
 3668              		.cfi_endproc
 3669              	.LFE28:
 3670              		.size	lwip_getaddrname, .-lwip_getaddrname
 3671 00ba 00BFAFF3 		.section	.text.lwip_getpeername,"ax",%progbits
 3671      0080
 3672              		.align	2
 3673              		.p2align 4,,15
 3674              		.global	lwip_getpeername
 3675              		.thumb
 3676              		.thumb_func
 3677              		.type	lwip_getpeername, %function
 3678              	lwip_getpeername:
ARM GAS  /tmp/cc2wa78n.s 			page 66


 3679              	.LFB29:
 3680              		.loc 1 1431 0
 3681              		.cfi_startproc
 3682              		@ args = 0, pretend = 0, frame = 16
 3683              		@ frame_needed = 0, uses_anonymous_args = 0
 3684 0000 00B5     		push	{lr}
 3685              	.LCFI39:
 3686              		.cfi_def_cfa_offset 4
 3687              		.cfi_offset 14, -4
 3688 0002 85B0     		sub	sp, sp, #20
 3689              	.LCFI40:
 3690              		.cfi_def_cfa_offset 24
 3691 0004 0390     		str	r0, [sp, #12]
 3692 0006 0291     		str	r1, [sp, #8]
 3693 0008 0192     		str	r2, [sp, #4]
 3694              		.loc 1 1432 0
 3695 000a 0398     		ldr	r0, [sp, #12]
 3696 000c 0299     		ldr	r1, [sp, #8]
 3697 000e 019A     		ldr	r2, [sp, #4]
 3698 0010 4FF00003 		mov	r3, #0
 3699 0014 FFF7FEFF 		bl	lwip_getaddrname
 3700 0018 0346     		mov	r3, r0
 3701              		.loc 1 1433 0
 3702 001a 1846     		mov	r0, r3
 3703 001c 05B0     		add	sp, sp, #20
 3704 001e 00BD     		pop	{pc}
 3705              		.cfi_endproc
 3706              	.LFE29:
 3707              		.size	lwip_getpeername, .-lwip_getpeername
 3708              		.section	.text.lwip_getsockname,"ax",%progbits
 3709              		.align	2
 3710              		.p2align 4,,15
 3711              		.global	lwip_getsockname
 3712              		.thumb
 3713              		.thumb_func
 3714              		.type	lwip_getsockname, %function
 3715              	lwip_getsockname:
 3716              	.LFB30:
 3717              		.loc 1 1437 0
 3718              		.cfi_startproc
 3719              		@ args = 0, pretend = 0, frame = 16
 3720              		@ frame_needed = 0, uses_anonymous_args = 0
 3721 0000 00B5     		push	{lr}
 3722              	.LCFI41:
 3723              		.cfi_def_cfa_offset 4
 3724              		.cfi_offset 14, -4
 3725 0002 85B0     		sub	sp, sp, #20
 3726              	.LCFI42:
 3727              		.cfi_def_cfa_offset 24
 3728 0004 0390     		str	r0, [sp, #12]
 3729 0006 0291     		str	r1, [sp, #8]
 3730 0008 0192     		str	r2, [sp, #4]
 3731              		.loc 1 1438 0
 3732 000a 0398     		ldr	r0, [sp, #12]
 3733 000c 0299     		ldr	r1, [sp, #8]
 3734 000e 019A     		ldr	r2, [sp, #4]
 3735 0010 4FF00103 		mov	r3, #1
ARM GAS  /tmp/cc2wa78n.s 			page 67


 3736 0014 FFF7FEFF 		bl	lwip_getaddrname
 3737 0018 0346     		mov	r3, r0
 3738              		.loc 1 1439 0
 3739 001a 1846     		mov	r0, r3
 3740 001c 05B0     		add	sp, sp, #20
 3741 001e 00BD     		pop	{pc}
 3742              		.cfi_endproc
 3743              	.LFE30:
 3744              		.size	lwip_getsockname, .-lwip_getsockname
 3745              		.section	.text.lwip_getsockopt,"ax",%progbits
 3746              		.align	2
 3747              		.p2align 4,,15
 3748              		.global	lwip_getsockopt
 3749              		.thumb
 3750              		.thumb_func
 3751              		.type	lwip_getsockopt, %function
 3752              	lwip_getsockopt:
 3753              	.LFB31:
 3754              		.loc 1 1443 0
 3755              		.cfi_startproc
 3756              		@ args = 4, pretend = 0, frame = 48
 3757              		@ frame_needed = 0, uses_anonymous_args = 0
 3758 0000 00B5     		push	{lr}
 3759              	.LCFI43:
 3760              		.cfi_def_cfa_offset 4
 3761              		.cfi_offset 14, -4
 3762 0002 8DB0     		sub	sp, sp, #52
 3763              	.LCFI44:
 3764              		.cfi_def_cfa_offset 56
 3765 0004 0390     		str	r0, [sp, #12]
 3766 0006 0291     		str	r1, [sp, #8]
 3767 0008 0192     		str	r2, [sp, #4]
 3768 000a 0093     		str	r3, [sp, #0]
 3769              		.loc 1 1444 0
 3770 000c 4FF00003 		mov	r3, #0
 3771 0010 8DF82F30 		strb	r3, [sp, #47]
 3772              		.loc 1 1445 0
 3773 0014 0398     		ldr	r0, [sp, #12]
 3774 0016 FFF7FEFF 		bl	get_socket
 3775 001a 0346     		mov	r3, r0
 3776 001c 0A93     		str	r3, [sp, #40]
 3777              		.loc 1 1448 0
 3778 001e 0A9B     		ldr	r3, [sp, #40]
 3779 0020 002B     		cmp	r3, #0
 3780 0022 02D1     		bne	.L257
 3781              		.loc 1 1449 0
 3782 0024 4FF0FF33 		mov	r3, #-1
 3783 0028 CCE0     		b	.L258
 3784              	.L257:
 3785              		.loc 1 1452 0
 3786 002a 009B     		ldr	r3, [sp, #0]
 3787 002c 002B     		cmp	r3, #0
 3788 002e 02D0     		beq	.L259
 3789              		.loc 1 1452 0 is_stmt 0 discriminator 1
 3790 0030 0E9B     		ldr	r3, [sp, #56]
 3791 0032 002B     		cmp	r3, #0
 3792 0034 06D1     		bne	.L260
ARM GAS  /tmp/cc2wa78n.s 			page 68


 3793              	.L259:
 3794              		.loc 1 1453 0 is_stmt 1
 3795 0036 0A9B     		ldr	r3, [sp, #40]
 3796 0038 4FF00E02 		mov	r2, #14
 3797 003c 1A61     		str	r2, [r3, #16]
 3798              		.loc 1 1454 0
 3799 003e 4FF0FF33 		mov	r3, #-1
 3800 0042 BFE0     		b	.L258
 3801              	.L260:
 3802              		.loc 1 1458 0
 3803 0044 029B     		ldr	r3, [sp, #8]
 3804 0046 062B     		cmp	r3, #6
 3805 0048 5ED0     		beq	.L263
 3806 004a 40F6FF72 		movw	r2, #4095
 3807 004e 9342     		cmp	r3, r2
 3808 0050 02D0     		beq	.L264
 3809 0052 002B     		cmp	r3, #0
 3810 0054 43D0     		beq	.L262
 3811 0056 74E0     		b	.L287
 3812              	.L264:
 3813              		.loc 1 1462 0
 3814 0058 019B     		ldr	r3, [sp, #4]
 3815 005a 202B     		cmp	r3, #32
 3816 005c 13D0     		beq	.L266
 3817 005e 202B     		cmp	r3, #32
 3818 0060 04DC     		bgt	.L268
 3819 0062 022B     		cmp	r3, #2
 3820 0064 0FD0     		beq	.L266
 3821 0066 082B     		cmp	r3, #8
 3822 0068 0DD0     		beq	.L266
 3823 006a 2FE0     		b	.L265
 3824              	.L268:
 3825 006c 41F20702 		movw	r2, #4103
 3826 0070 9342     		cmp	r3, r2
 3827 0072 2BDB     		blt	.L265
 3828 0074 41F20802 		movw	r2, #4104
 3829 0078 9342     		cmp	r3, r2
 3830 007a 04DD     		ble	.L266
 3831 007c 41F20A02 		movw	r2, #4106
 3832 0080 9342     		cmp	r3, r2
 3833 0082 09D0     		beq	.L267
 3834 0084 22E0     		b	.L265
 3835              	.L266:
 3836              		.loc 1 1488 0
 3837 0086 0E9B     		ldr	r3, [sp, #56]
 3838 0088 1B68     		ldr	r3, [r3, #0]
 3839 008a 032B     		cmp	r3, #3
 3840 008c 23D8     		bhi	.L288
 3841              		.loc 1 1489 0
 3842 008e 4FF01603 		mov	r3, #22
 3843 0092 8DF82F30 		strb	r3, [sp, #47]
 3844              		.loc 1 1491 0
 3845 0096 1EE0     		b	.L288
 3846              	.L267:
 3847              		.loc 1 1494 0
 3848 0098 0E9B     		ldr	r3, [sp, #56]
 3849 009a 1B68     		ldr	r3, [r3, #0]
ARM GAS  /tmp/cc2wa78n.s 			page 69


 3850 009c 032B     		cmp	r3, #3
 3851 009e 03D8     		bhi	.L271
 3852              		.loc 1 1495 0
 3853 00a0 4FF01603 		mov	r3, #22
 3854 00a4 8DF82F30 		strb	r3, [sp, #47]
 3855              	.L271:
 3856              		.loc 1 1498 0
 3857 00a8 0A9B     		ldr	r3, [sp, #40]
 3858 00aa 1B68     		ldr	r3, [r3, #0]
 3859 00ac 1B78     		ldrb	r3, [r3, #0]	@ zero_extendqisi2
 3860 00ae 202B     		cmp	r3, #32
 3861 00b0 07D1     		bne	.L272
 3862              		.loc 1 1499 0 discriminator 1
 3863 00b2 0A9B     		ldr	r3, [sp, #40]
 3864 00b4 1B68     		ldr	r3, [r3, #0]
 3865 00b6 5B68     		ldr	r3, [r3, #4]
 3866 00b8 1B7C     		ldrb	r3, [r3, #16]	@ zero_extendqisi2
 3867 00ba 03F00203 		and	r3, r3, #2
 3868              		.loc 1 1498 0 discriminator 1
 3869 00be 002B     		cmp	r3, #0
 3870 00c0 0BD0     		beq	.L289
 3871              	.L272:
 3872              		.loc 1 1501 0
 3873 00c2 4FF06103 		mov	r3, #97
 3874 00c6 8DF82F30 		strb	r3, [sp, #47]
 3875              		.loc 1 1504 0
 3876 00ca 06E0     		b	.L289
 3877              	.L265:
 3878              		.loc 1 1509 0
 3879 00cc 4FF05C03 		mov	r3, #92
 3880 00d0 8DF82F30 		strb	r3, [sp, #47]
 3881              		.loc 1 1511 0
 3882 00d4 39E0     		b	.L274
 3883              	.L288:
 3884              		.loc 1 1491 0
 3885 00d6 00BF     		nop
 3886 00d8 00E0     		b	.L270
 3887              	.L289:
 3888              		.loc 1 1504 0
 3889 00da 00BF     		nop
 3890              	.L270:
 3891              		.loc 1 1511 0
 3892 00dc 35E0     		b	.L274
 3893              	.L262:
 3894              		.loc 1 1515 0
 3895 00de 019B     		ldr	r3, [sp, #4]
 3896 00e0 03F1FF33 		add	r3, r3, #-1
 3897 00e4 012B     		cmp	r3, #1
 3898 00e6 08D8     		bhi	.L275
 3899              		.loc 1 1521 0
 3900 00e8 0E9B     		ldr	r3, [sp, #56]
 3901 00ea 1B68     		ldr	r3, [r3, #0]
 3902 00ec 032B     		cmp	r3, #3
 3903 00ee 09D8     		bhi	.L290
 3904              		.loc 1 1522 0
 3905 00f0 4FF01603 		mov	r3, #22
 3906 00f4 8DF82F30 		strb	r3, [sp, #47]
ARM GAS  /tmp/cc2wa78n.s 			page 70


 3907              		.loc 1 1524 0
 3908 00f8 04E0     		b	.L290
 3909              	.L275:
 3910              		.loc 1 1549 0
 3911 00fa 4FF05C03 		mov	r3, #92
 3912 00fe 8DF82F30 		strb	r3, [sp, #47]
 3913              		.loc 1 1551 0
 3914 0102 22E0     		b	.L274
 3915              	.L290:
 3916              		.loc 1 1524 0
 3917 0104 00BF     		nop
 3918              	.L278:
 3919              		.loc 1 1551 0
 3920 0106 20E0     		b	.L274
 3921              	.L263:
 3922              		.loc 1 1556 0
 3923 0108 0E9B     		ldr	r3, [sp, #56]
 3924 010a 1B68     		ldr	r3, [r3, #0]
 3925 010c 032B     		cmp	r3, #3
 3926 010e 04D8     		bhi	.L279
 3927              		.loc 1 1557 0
 3928 0110 4FF01603 		mov	r3, #22
 3929 0114 8DF82F30 		strb	r3, [sp, #47]
 3930              		.loc 1 1558 0
 3931 0118 17E0     		b	.L274
 3932              	.L279:
 3933              		.loc 1 1562 0
 3934 011a 0A9B     		ldr	r3, [sp, #40]
 3935 011c 1B68     		ldr	r3, [r3, #0]
 3936 011e 1B78     		ldrb	r3, [r3, #0]	@ zero_extendqisi2
 3937 0120 102B     		cmp	r3, #16
 3938 0122 02D0     		beq	.L280
 3939              		.loc 1 1563 0
 3940 0124 4FF00003 		mov	r3, #0
 3941 0128 4CE0     		b	.L258
 3942              	.L280:
 3943              		.loc 1 1565 0
 3944 012a 019B     		ldr	r3, [sp, #4]
 3945 012c 03F1FF33 		add	r3, r3, #-1
 3946 0130 012B     		cmp	r3, #1
 3947 0132 01D8     		bhi	.L281
 3948              		.loc 1 1573 0
 3949 0134 00BF     		nop
 3950              		.loc 1 1580 0
 3951 0136 08E0     		b	.L274
 3952              	.L281:
 3953              		.loc 1 1578 0
 3954 0138 4FF05C03 		mov	r3, #92
 3955 013c 8DF82F30 		strb	r3, [sp, #47]
 3956              		.loc 1 1580 0
 3957 0140 03E0     		b	.L274
 3958              	.L287:
 3959              		.loc 1 1611 0
 3960 0142 4FF05C03 		mov	r3, #92
 3961 0146 8DF82F30 		strb	r3, [sp, #47]
 3962              	.L274:
 3963              		.loc 1 1615 0
ARM GAS  /tmp/cc2wa78n.s 			page 71


 3964 014a 9DF92F30 		ldrsb	r3, [sp, #47]
 3965 014e 002B     		cmp	r3, #0
 3966 0150 06D0     		beq	.L284
 3967              		.loc 1 1616 0
 3968 0152 9DF92F20 		ldrsb	r2, [sp, #47]
 3969 0156 0A9B     		ldr	r3, [sp, #40]
 3970 0158 1A61     		str	r2, [r3, #16]
 3971              		.loc 1 1617 0
 3972 015a 4FF0FF33 		mov	r3, #-1
 3973 015e 31E0     		b	.L258
 3974              	.L284:
 3975              		.loc 1 1621 0
 3976 0160 0A9B     		ldr	r3, [sp, #40]
 3977 0162 0493     		str	r3, [sp, #16]
 3978              		.loc 1 1625 0
 3979 0164 029B     		ldr	r3, [sp, #8]
 3980 0166 0593     		str	r3, [sp, #20]
 3981              		.loc 1 1626 0
 3982 0168 019B     		ldr	r3, [sp, #4]
 3983 016a 0693     		str	r3, [sp, #24]
 3984              		.loc 1 1627 0
 3985 016c 009B     		ldr	r3, [sp, #0]
 3986 016e 0793     		str	r3, [sp, #28]
 3987              		.loc 1 1628 0
 3988 0170 0E9B     		ldr	r3, [sp, #56]
 3989 0172 0893     		str	r3, [sp, #32]
 3990              		.loc 1 1629 0
 3991 0174 9DF82F30 		ldrb	r3, [sp, #47]
 3992 0178 8DF82430 		strb	r3, [sp, #36]
 3993              		.loc 1 1630 0
 3994 017c 04AB     		add	r3, sp, #16
 3995 017e 40F20000 		movw	r0, #:lower16:lwip_getsockopt_internal
 3996 0182 C0F20000 		movt	r0, #:upper16:lwip_getsockopt_internal
 3997 0186 1946     		mov	r1, r3
 3998 0188 4FF00102 		mov	r2, #1
 3999 018c FFF7FEFF 		bl	tcpip_callback_with_block
 4000              		.loc 1 1631 0
 4001 0190 0A9B     		ldr	r3, [sp, #40]
 4002 0192 1B68     		ldr	r3, [r3, #0]
 4003 0194 03F10C03 		add	r3, r3, #12
 4004 0198 1846     		mov	r0, r3
 4005 019a 4FF00001 		mov	r1, #0
 4006 019e FFF7FEFF 		bl	sys_arch_sem_wait
 4007              		.loc 1 1633 0
 4008 01a2 9DF82430 		ldrb	r3, [sp, #36]
 4009 01a6 8DF82F30 		strb	r3, [sp, #47]
 4010              		.loc 1 1635 0
 4011 01aa 9DF92F20 		ldrsb	r2, [sp, #47]
 4012 01ae 0A9B     		ldr	r3, [sp, #40]
 4013 01b0 1A61     		str	r2, [r3, #16]
 4014              		.loc 1 1636 0
 4015 01b2 9DF92F30 		ldrsb	r3, [sp, #47]
 4016 01b6 002B     		cmp	r3, #0
 4017 01b8 02D0     		beq	.L285
 4018              		.loc 1 1636 0 is_stmt 0 discriminator 1
 4019 01ba 4FF0FF33 		mov	r3, #-1
 4020 01be 01E0     		b	.L286
ARM GAS  /tmp/cc2wa78n.s 			page 72


 4021              	.L285:
 4022              		.loc 1 1636 0 discriminator 2
 4023 01c0 4FF00003 		mov	r3, #0
 4024              	.L286:
 4025              	.L258:
 4026              		.loc 1 1637 0 is_stmt 1
 4027 01c4 1846     		mov	r0, r3
 4028 01c6 0DB0     		add	sp, sp, #52
 4029 01c8 00BD     		pop	{pc}
 4030              		.cfi_endproc
 4031              	.LFE31:
 4032              		.size	lwip_getsockopt, .-lwip_getsockopt
 4033 01ca 00BFAFF3 		.section	.text.lwip_getsockopt_internal,"ax",%progbits
 4033      0080
 4034              		.align	2
 4035              		.p2align 4,,15
 4036              		.thumb
 4037              		.thumb_func
 4038              		.type	lwip_getsockopt_internal, %function
 4039              	lwip_getsockopt_internal:
 4040              	.LFB32:
 4041              		.loc 1 1641 0
 4042              		.cfi_startproc
 4043              		@ args = 0, pretend = 0, frame = 32
 4044              		@ frame_needed = 0, uses_anonymous_args = 0
 4045 0000 00B5     		push	{lr}
 4046              	.LCFI45:
 4047              		.cfi_def_cfa_offset 4
 4048              		.cfi_offset 14, -4
 4049 0002 89B0     		sub	sp, sp, #36
 4050              	.LCFI46:
 4051              		.cfi_def_cfa_offset 40
 4052 0004 0190     		str	r0, [sp, #4]
 4053              		.loc 1 1650 0
 4054 0006 019B     		ldr	r3, [sp, #4]
 4055 0008 002B     		cmp	r3, #0
 4056 000a 01D1     		bne	.L292
 4057              		.loc 1 1650 0 is_stmt 0 discriminator 1
 4058 000c FFF7FEFF 		bl	port_halt
 4059              	.L292:
 4060              		.loc 1 1652 0 is_stmt 1
 4061 0010 019B     		ldr	r3, [sp, #4]
 4062 0012 0793     		str	r3, [sp, #28]
 4063              		.loc 1 1653 0
 4064 0014 079B     		ldr	r3, [sp, #28]
 4065 0016 1B68     		ldr	r3, [r3, #0]
 4066 0018 0693     		str	r3, [sp, #24]
 4067              		.loc 1 1657 0
 4068 001a 079B     		ldr	r3, [sp, #28]
 4069 001c 5B68     		ldr	r3, [r3, #4]
 4070 001e 0593     		str	r3, [sp, #20]
 4071              		.loc 1 1658 0
 4072 0020 079B     		ldr	r3, [sp, #28]
 4073 0022 9B68     		ldr	r3, [r3, #8]
 4074 0024 0493     		str	r3, [sp, #16]
 4075              		.loc 1 1659 0
 4076 0026 079B     		ldr	r3, [sp, #28]
ARM GAS  /tmp/cc2wa78n.s 			page 73


 4077 0028 DB68     		ldr	r3, [r3, #12]
 4078 002a 0393     		str	r3, [sp, #12]
 4079              		.loc 1 1661 0
 4080 002c 059B     		ldr	r3, [sp, #20]
 4081 002e 062B     		cmp	r3, #6
 4082 0030 00F09B80 		beq	.L295
 4083 0034 40F6FF72 		movw	r2, #4095
 4084 0038 9342     		cmp	r3, r2
 4085 003a 02D0     		beq	.L296
 4086 003c 002B     		cmp	r3, #0
 4087 003e 7BD0     		beq	.L294
 4088 0040 B4E0     		b	.L322
 4089              	.L296:
 4090              		.loc 1 1665 0
 4091 0042 049B     		ldr	r3, [sp, #16]
 4092 0044 202B     		cmp	r3, #32
 4093 0046 13D0     		beq	.L298
 4094 0048 202B     		cmp	r3, #32
 4095 004a 04DC     		bgt	.L302
 4096 004c 022B     		cmp	r3, #2
 4097 004e 0FD0     		beq	.L298
 4098 0050 082B     		cmp	r3, #8
 4099 0052 0DD0     		beq	.L298
 4100 0054 6CE0     		b	.L297
 4101              	.L302:
 4102 0056 41F20802 		movw	r2, #4104
 4103 005a 9342     		cmp	r3, r2
 4104 005c 12D0     		beq	.L300
 4105 005e 41F20A02 		movw	r2, #4106
 4106 0062 9342     		cmp	r3, r2
 4107 0064 5BD0     		beq	.L301
 4108 0066 41F20702 		movw	r2, #4103
 4109 006a 9342     		cmp	r3, r2
 4110 006c 2DD0     		beq	.L299
 4111 006e 5FE0     		b	.L297
 4112              	.L298:
 4113              		.loc 1 1679 0
 4114 0070 069B     		ldr	r3, [sp, #24]
 4115 0072 1B68     		ldr	r3, [r3, #0]
 4116 0074 5B68     		ldr	r3, [r3, #4]
 4117 0076 1B7A     		ldrb	r3, [r3, #8]	@ zero_extendqisi2
 4118 0078 1A46     		mov	r2, r3
 4119 007a 049B     		ldr	r3, [sp, #16]
 4120 007c 1A40     		ands	r2, r2, r3
 4121 007e 039B     		ldr	r3, [sp, #12]
 4122 0080 1A60     		str	r2, [r3, #0]
 4123              		.loc 1 1682 0
 4124 0082 58E0     		b	.L303
 4125              	.L300:
 4126              		.loc 1 1685 0
 4127 0084 069B     		ldr	r3, [sp, #24]
 4128 0086 1B68     		ldr	r3, [r3, #0]
 4129 0088 1B78     		ldrb	r3, [r3, #0]	@ zero_extendqisi2
 4130 008a 03F0F003 		and	r3, r3, #240
 4131 008e 202B     		cmp	r3, #32
 4132 0090 0ED0     		beq	.L306
 4133 0092 402B     		cmp	r3, #64
ARM GAS  /tmp/cc2wa78n.s 			page 74


 4134 0094 02D0     		beq	.L307
 4135 0096 102B     		cmp	r3, #16
 4136 0098 05D0     		beq	.L305
 4137 009a 0EE0     		b	.L323
 4138              	.L307:
 4139              		.loc 1 1687 0
 4140 009c 039B     		ldr	r3, [sp, #12]
 4141 009e 4FF00302 		mov	r2, #3
 4142 00a2 1A60     		str	r2, [r3, #0]
 4143              		.loc 1 1688 0
 4144 00a4 10E0     		b	.L308
 4145              	.L305:
 4146              		.loc 1 1690 0
 4147 00a6 039B     		ldr	r3, [sp, #12]
 4148 00a8 4FF00102 		mov	r2, #1
 4149 00ac 1A60     		str	r2, [r3, #0]
 4150              		.loc 1 1691 0
 4151 00ae 0BE0     		b	.L308
 4152              	.L306:
 4153              		.loc 1 1693 0
 4154 00b0 039B     		ldr	r3, [sp, #12]
 4155 00b2 4FF00202 		mov	r2, #2
 4156 00b6 1A60     		str	r2, [r3, #0]
 4157              		.loc 1 1694 0
 4158 00b8 06E0     		b	.L308
 4159              	.L323:
 4160              		.loc 1 1696 0
 4161 00ba 069B     		ldr	r3, [sp, #24]
 4162 00bc 1B68     		ldr	r3, [r3, #0]
 4163 00be 1B78     		ldrb	r3, [r3, #0]	@ zero_extendqisi2
 4164 00c0 1A46     		mov	r2, r3
 4165 00c2 039B     		ldr	r3, [sp, #12]
 4166 00c4 1A60     		str	r2, [r3, #0]
 4167              		.loc 1 1703 0
 4168 00c6 36E0     		b	.L303
 4169              	.L308:
 4170 00c8 35E0     		b	.L303
 4171              	.L299:
 4172              		.loc 1 1707 0
 4173 00ca 069B     		ldr	r3, [sp, #24]
 4174 00cc 1B69     		ldr	r3, [r3, #16]
 4175 00ce 002B     		cmp	r3, #0
 4176 00d0 03D0     		beq	.L309
 4177              		.loc 1 1707 0 is_stmt 0 discriminator 1
 4178 00d2 069B     		ldr	r3, [sp, #24]
 4179 00d4 1B69     		ldr	r3, [r3, #16]
 4180 00d6 732B     		cmp	r3, #115
 4181 00d8 18D1     		bne	.L310
 4182              	.L309:
 4183              		.loc 1 1708 0 is_stmt 1
 4184 00da 069B     		ldr	r3, [sp, #24]
 4185 00dc 1B68     		ldr	r3, [r3, #0]
 4186 00de 1B7A     		ldrb	r3, [r3, #8]	@ zero_extendqisi2
 4187 00e0 5BB2     		sxtb	r3, r3
 4188 00e2 C3F10003 		rsb	r3, r3, #0
 4189 00e6 0F2B     		cmp	r3, #15
 4190 00e8 0CD8     		bhi	.L311
ARM GAS  /tmp/cc2wa78n.s 			page 75


 4191              		.loc 1 1708 0 is_stmt 0 discriminator 1
 4192 00ea 069B     		ldr	r3, [sp, #24]
 4193 00ec 1B68     		ldr	r3, [r3, #0]
 4194 00ee 1B7A     		ldrb	r3, [r3, #8]	@ zero_extendqisi2
 4195 00f0 5BB2     		sxtb	r3, r3
 4196 00f2 C3F10002 		rsb	r2, r3, #0
 4197 00f6 40F20003 		movw	r3, #:lower16:err_to_errno_table
 4198 00fa C0F20003 		movt	r3, #:upper16:err_to_errno_table
 4199 00fe 53F82230 		ldr	r3, [r3, r2, lsl #2]
 4200 0102 01E0     		b	.L312
 4201              	.L311:
 4202              		.loc 1 1708 0 discriminator 2
 4203 0104 4FF00503 		mov	r3, #5
 4204              	.L312:
 4205              		.loc 1 1708 0 discriminator 3
 4206 0108 069A     		ldr	r2, [sp, #24]
 4207 010a 1361     		str	r3, [r2, #16]
 4208              	.L310:
 4209              		.loc 1 1710 0 is_stmt 1
 4210 010c 069B     		ldr	r3, [sp, #24]
 4211 010e 1A69     		ldr	r2, [r3, #16]
 4212 0110 039B     		ldr	r3, [sp, #12]
 4213 0112 1A60     		str	r2, [r3, #0]
 4214              		.loc 1 1711 0
 4215 0114 069B     		ldr	r3, [sp, #24]
 4216 0116 4FF00002 		mov	r2, #0
 4217 011a 1A61     		str	r2, [r3, #16]
 4218              		.loc 1 1714 0
 4219 011c 0BE0     		b	.L303
 4220              	.L301:
 4221              		.loc 1 1728 0
 4222 011e 069B     		ldr	r3, [sp, #24]
 4223 0120 1B68     		ldr	r3, [r3, #0]
 4224 0122 5B68     		ldr	r3, [r3, #4]
 4225 0124 1B7C     		ldrb	r3, [r3, #16]	@ zero_extendqisi2
 4226 0126 03F00102 		and	r2, r3, #1
 4227 012a 039B     		ldr	r3, [sp, #12]
 4228 012c 1A60     		str	r2, [r3, #0]
 4229              		.loc 1 1729 0
 4230 012e 02E0     		b	.L303
 4231              	.L297:
 4232              		.loc 1 1732 0 discriminator 1
 4233 0130 FFF7FEFF 		bl	port_halt
 4234              		.loc 1 1733 0
 4235 0134 00BF     		nop
 4236              	.L303:
 4237              		.loc 1 1735 0
 4238 0136 3CE0     		b	.L313
 4239              	.L294:
 4240              		.loc 1 1739 0
 4241 0138 049B     		ldr	r3, [sp, #16]
 4242 013a 012B     		cmp	r3, #1
 4243 013c 09D0     		beq	.L315
 4244 013e 022B     		cmp	r3, #2
 4245 0140 0FD1     		bne	.L324
 4246              	.L316:
 4247              		.loc 1 1741 0
ARM GAS  /tmp/cc2wa78n.s 			page 76


 4248 0142 069B     		ldr	r3, [sp, #24]
 4249 0144 1B68     		ldr	r3, [r3, #0]
 4250 0146 5B68     		ldr	r3, [r3, #4]
 4251 0148 9B7A     		ldrb	r3, [r3, #10]	@ zero_extendqisi2
 4252 014a 1A46     		mov	r2, r3
 4253 014c 039B     		ldr	r3, [sp, #12]
 4254 014e 1A60     		str	r2, [r3, #0]
 4255              		.loc 1 1744 0
 4256 0150 0AE0     		b	.L317
 4257              	.L315:
 4258              		.loc 1 1746 0
 4259 0152 069B     		ldr	r3, [sp, #24]
 4260 0154 1B68     		ldr	r3, [r3, #0]
 4261 0156 5B68     		ldr	r3, [r3, #4]
 4262 0158 5B7A     		ldrb	r3, [r3, #9]	@ zero_extendqisi2
 4263 015a 1A46     		mov	r2, r3
 4264 015c 039B     		ldr	r3, [sp, #12]
 4265 015e 1A60     		str	r2, [r3, #0]
 4266              		.loc 1 1749 0
 4267 0160 02E0     		b	.L317
 4268              	.L324:
 4269              		.loc 1 1772 0 discriminator 1
 4270 0162 FFF7FEFF 		bl	port_halt
 4271              		.loc 1 1773 0
 4272 0166 00BF     		nop
 4273              	.L317:
 4274              		.loc 1 1775 0
 4275 0168 23E0     		b	.L313
 4276              	.L295:
 4277              		.loc 1 1780 0
 4278 016a 049B     		ldr	r3, [sp, #16]
 4279 016c 012B     		cmp	r3, #1
 4280 016e 02D0     		beq	.L319
 4281 0170 022B     		cmp	r3, #2
 4282 0172 0ED0     		beq	.L320
 4283 0174 16E0     		b	.L325
 4284              	.L319:
 4285              		.loc 1 1782 0
 4286 0176 069B     		ldr	r3, [sp, #24]
 4287 0178 1B68     		ldr	r3, [r3, #0]
 4288 017a 5B68     		ldr	r3, [r3, #4]
 4289 017c 93F82030 		ldrb	r3, [r3, #32]	@ zero_extendqisi2
 4290 0180 03F04003 		and	r3, r3, #64
 4291 0184 002B     		cmp	r3, #0
 4292 0186 0CBF     		ite	eq
 4293 0188 0022     		moveq	r2, #0
 4294 018a 0122     		movne	r2, #1
 4295 018c 039B     		ldr	r3, [sp, #12]
 4296 018e 1A60     		str	r2, [r3, #0]
 4297              		.loc 1 1785 0
 4298 0190 0BE0     		b	.L321
 4299              	.L320:
 4300              		.loc 1 1787 0
 4301 0192 069B     		ldr	r3, [sp, #24]
 4302 0194 1B68     		ldr	r3, [r3, #0]
 4303 0196 5B68     		ldr	r3, [r3, #4]
 4304 0198 D3F89830 		ldr	r3, [r3, #152]
ARM GAS  /tmp/cc2wa78n.s 			page 77


 4305 019c 1A46     		mov	r2, r3
 4306 019e 039B     		ldr	r3, [sp, #12]
 4307 01a0 1A60     		str	r2, [r3, #0]
 4308              		.loc 1 1790 0
 4309 01a2 02E0     		b	.L321
 4310              	.L325:
 4311              		.loc 1 1810 0 discriminator 1
 4312 01a4 FFF7FEFF 		bl	port_halt
 4313              		.loc 1 1811 0
 4314 01a8 00BF     		nop
 4315              	.L321:
 4316              		.loc 1 1813 0
 4317 01aa 02E0     		b	.L313
 4318              	.L322:
 4319              		.loc 1 1836 0 discriminator 1
 4320 01ac FFF7FEFF 		bl	port_halt
 4321              		.loc 1 1837 0
 4322 01b0 00BF     		nop
 4323              	.L313:
 4324              		.loc 1 1839 0
 4325 01b2 069B     		ldr	r3, [sp, #24]
 4326 01b4 1B68     		ldr	r3, [r3, #0]
 4327 01b6 03F10C03 		add	r3, r3, #12
 4328 01ba 1846     		mov	r0, r3
 4329 01bc FFF7FEFF 		bl	sys_sem_signal
 4330              		.loc 1 1840 0
 4331 01c0 09B0     		add	sp, sp, #36
 4332 01c2 00BD     		pop	{pc}
 4333              		.cfi_endproc
 4334              	.LFE32:
 4335              		.size	lwip_getsockopt_internal, .-lwip_getsockopt_internal
 4336 01c4 AFF30080 		.section	.text.lwip_setsockopt,"ax",%progbits
 4336      AFF30080 
 4336      AFF30080 
 4337              		.align	2
 4338              		.p2align 4,,15
 4339              		.global	lwip_setsockopt
 4340              		.thumb
 4341              		.thumb_func
 4342              		.type	lwip_setsockopt, %function
 4343              	lwip_setsockopt:
 4344              	.LFB33:
 4345              		.loc 1 1844 0
 4346              		.cfi_startproc
 4347              		@ args = 4, pretend = 0, frame = 48
 4348              		@ frame_needed = 0, uses_anonymous_args = 0
 4349 0000 00B5     		push	{lr}
 4350              	.LCFI47:
 4351              		.cfi_def_cfa_offset 4
 4352              		.cfi_offset 14, -4
 4353 0002 8DB0     		sub	sp, sp, #52
 4354              	.LCFI48:
 4355              		.cfi_def_cfa_offset 56
 4356 0004 0390     		str	r0, [sp, #12]
 4357 0006 0291     		str	r1, [sp, #8]
 4358 0008 0192     		str	r2, [sp, #4]
 4359 000a 0093     		str	r3, [sp, #0]
ARM GAS  /tmp/cc2wa78n.s 			page 78


 4360              		.loc 1 1845 0
 4361 000c 0398     		ldr	r0, [sp, #12]
 4362 000e FFF7FEFF 		bl	get_socket
 4363 0012 0346     		mov	r3, r0
 4364 0014 0A93     		str	r3, [sp, #40]
 4365              		.loc 1 1846 0
 4366 0016 4FF00003 		mov	r3, #0
 4367 001a 8DF82F30 		strb	r3, [sp, #47]
 4368              		.loc 1 1849 0
 4369 001e 0A9B     		ldr	r3, [sp, #40]
 4370 0020 002B     		cmp	r3, #0
 4371 0022 02D1     		bne	.L327
 4372              		.loc 1 1850 0
 4373 0024 4FF0FF33 		mov	r3, #-1
 4374 0028 B7E0     		b	.L328
 4375              	.L327:
 4376              		.loc 1 1853 0
 4377 002a 009B     		ldr	r3, [sp, #0]
 4378 002c 002B     		cmp	r3, #0
 4379 002e 06D1     		bne	.L329
 4380              		.loc 1 1854 0
 4381 0030 0A9B     		ldr	r3, [sp, #40]
 4382 0032 4FF00E02 		mov	r2, #14
 4383 0036 1A61     		str	r2, [r3, #16]
 4384              		.loc 1 1855 0
 4385 0038 4FF0FF33 		mov	r3, #-1
 4386 003c ADE0     		b	.L328
 4387              	.L329:
 4388              		.loc 1 1859 0
 4389 003e 029B     		ldr	r3, [sp, #8]
 4390 0040 062B     		cmp	r3, #6
 4391 0042 4DD0     		beq	.L332
 4392 0044 40F6FF72 		movw	r2, #4095
 4393 0048 9342     		cmp	r3, r2
 4394 004a 02D0     		beq	.L333
 4395 004c 002B     		cmp	r3, #0
 4396 004e 33D0     		beq	.L331
 4397 0050 62E0     		b	.L355
 4398              	.L333:
 4399              		.loc 1 1863 0
 4400 0052 019B     		ldr	r3, [sp, #4]
 4401 0054 202B     		cmp	r3, #32
 4402 0056 05D0     		beq	.L335
 4403 0058 41F20A02 		movw	r2, #4106
 4404 005c 9342     		cmp	r3, r2
 4405 005e 09D0     		beq	.L336
 4406 0060 082B     		cmp	r3, #8
 4407 0062 20D1     		bne	.L356
 4408              	.L335:
 4409              		.loc 1 1886 0
 4410 0064 0E9B     		ldr	r3, [sp, #56]
 4411 0066 032B     		cmp	r3, #3
 4412 0068 22D8     		bhi	.L357
 4413              		.loc 1 1887 0
 4414 006a 4FF01603 		mov	r3, #22
 4415 006e 8DF82F30 		strb	r3, [sp, #47]
 4416              		.loc 1 1889 0
ARM GAS  /tmp/cc2wa78n.s 			page 79


 4417 0072 1DE0     		b	.L357
 4418              	.L336:
 4419              		.loc 1 1891 0
 4420 0074 0E9B     		ldr	r3, [sp, #56]
 4421 0076 032B     		cmp	r3, #3
 4422 0078 03D8     		bhi	.L339
 4423              		.loc 1 1892 0
 4424 007a 4FF01603 		mov	r3, #22
 4425 007e 8DF82F30 		strb	r3, [sp, #47]
 4426              	.L339:
 4427              		.loc 1 1895 0
 4428 0082 0A9B     		ldr	r3, [sp, #40]
 4429 0084 1B68     		ldr	r3, [r3, #0]
 4430 0086 1B78     		ldrb	r3, [r3, #0]	@ zero_extendqisi2
 4431 0088 202B     		cmp	r3, #32
 4432 008a 07D1     		bne	.L340
 4433              		.loc 1 1896 0 discriminator 1
 4434 008c 0A9B     		ldr	r3, [sp, #40]
 4435 008e 1B68     		ldr	r3, [r3, #0]
 4436 0090 5B68     		ldr	r3, [r3, #4]
 4437 0092 1B7C     		ldrb	r3, [r3, #16]	@ zero_extendqisi2
 4438 0094 03F00203 		and	r3, r3, #2
 4439              		.loc 1 1895 0 discriminator 1
 4440 0098 002B     		cmp	r3, #0
 4441 009a 0BD0     		beq	.L358
 4442              	.L340:
 4443              		.loc 1 1898 0
 4444 009c 4FF06103 		mov	r3, #97
 4445 00a0 8DF82F30 		strb	r3, [sp, #47]
 4446              		.loc 1 1901 0
 4447 00a4 06E0     		b	.L358
 4448              	.L356:
 4449              		.loc 1 1905 0
 4450 00a6 4FF05C03 		mov	r3, #92
 4451 00aa 8DF82F30 		strb	r3, [sp, #47]
 4452              		.loc 1 1907 0
 4453 00ae 37E0     		b	.L342
 4454              	.L357:
 4455              		.loc 1 1889 0
 4456 00b0 00BF     		nop
 4457 00b2 00E0     		b	.L338
 4458              	.L358:
 4459              		.loc 1 1901 0
 4460 00b4 00BF     		nop
 4461              	.L338:
 4462              		.loc 1 1907 0
 4463 00b6 33E0     		b	.L342
 4464              	.L331:
 4465              		.loc 1 1911 0
 4466 00b8 019B     		ldr	r3, [sp, #4]
 4467 00ba 03F1FF33 		add	r3, r3, #-1
 4468 00be 012B     		cmp	r3, #1
 4469 00c0 07D8     		bhi	.L343
 4470              		.loc 1 1917 0
 4471 00c2 0E9B     		ldr	r3, [sp, #56]
 4472 00c4 032B     		cmp	r3, #3
 4473 00c6 09D8     		bhi	.L359
ARM GAS  /tmp/cc2wa78n.s 			page 80


 4474              		.loc 1 1918 0
 4475 00c8 4FF01603 		mov	r3, #22
 4476 00cc 8DF82F30 		strb	r3, [sp, #47]
 4477              		.loc 1 1920 0
 4478 00d0 04E0     		b	.L359
 4479              	.L343:
 4480              		.loc 1 1959 0
 4481 00d2 4FF05C03 		mov	r3, #92
 4482 00d6 8DF82F30 		strb	r3, [sp, #47]
 4483              		.loc 1 1961 0
 4484 00da 21E0     		b	.L342
 4485              	.L359:
 4486              		.loc 1 1920 0
 4487 00dc 00BF     		nop
 4488              	.L346:
 4489              		.loc 1 1961 0
 4490 00de 1FE0     		b	.L342
 4491              	.L332:
 4492              		.loc 1 1966 0
 4493 00e0 0E9B     		ldr	r3, [sp, #56]
 4494 00e2 032B     		cmp	r3, #3
 4495 00e4 04D8     		bhi	.L347
 4496              		.loc 1 1967 0
 4497 00e6 4FF01603 		mov	r3, #22
 4498 00ea 8DF82F30 		strb	r3, [sp, #47]
 4499              		.loc 1 1968 0
 4500 00ee 17E0     		b	.L342
 4501              	.L347:
 4502              		.loc 1 1972 0
 4503 00f0 0A9B     		ldr	r3, [sp, #40]
 4504 00f2 1B68     		ldr	r3, [r3, #0]
 4505 00f4 1B78     		ldrb	r3, [r3, #0]	@ zero_extendqisi2
 4506 00f6 102B     		cmp	r3, #16
 4507 00f8 02D0     		beq	.L348
 4508              		.loc 1 1973 0
 4509 00fa 4FF00003 		mov	r3, #0
 4510 00fe 4CE0     		b	.L328
 4511              	.L348:
 4512              		.loc 1 1975 0
 4513 0100 019B     		ldr	r3, [sp, #4]
 4514 0102 03F1FF33 		add	r3, r3, #-1
 4515 0106 012B     		cmp	r3, #1
 4516 0108 01D8     		bhi	.L349
 4517              		.loc 1 1983 0
 4518 010a 00BF     		nop
 4519              		.loc 1 1990 0
 4520 010c 08E0     		b	.L342
 4521              	.L349:
 4522              		.loc 1 1988 0
 4523 010e 4FF05C03 		mov	r3, #92
 4524 0112 8DF82F30 		strb	r3, [sp, #47]
 4525              		.loc 1 1990 0
 4526 0116 03E0     		b	.L342
 4527              	.L355:
 4528              		.loc 1 2020 0
 4529 0118 4FF05C03 		mov	r3, #92
 4530 011c 8DF82F30 		strb	r3, [sp, #47]
ARM GAS  /tmp/cc2wa78n.s 			page 81


 4531              	.L342:
 4532              		.loc 1 2024 0
 4533 0120 9DF92F30 		ldrsb	r3, [sp, #47]
 4534 0124 002B     		cmp	r3, #0
 4535 0126 06D0     		beq	.L352
 4536              		.loc 1 2025 0
 4537 0128 9DF92F20 		ldrsb	r2, [sp, #47]
 4538 012c 0A9B     		ldr	r3, [sp, #40]
 4539 012e 1A61     		str	r2, [r3, #16]
 4540              		.loc 1 2026 0
 4541 0130 4FF0FF33 		mov	r3, #-1
 4542 0134 31E0     		b	.L328
 4543              	.L352:
 4544              		.loc 1 2031 0
 4545 0136 0A9B     		ldr	r3, [sp, #40]
 4546 0138 0493     		str	r3, [sp, #16]
 4547              		.loc 1 2035 0
 4548 013a 029B     		ldr	r3, [sp, #8]
 4549 013c 0593     		str	r3, [sp, #20]
 4550              		.loc 1 2036 0
 4551 013e 019B     		ldr	r3, [sp, #4]
 4552 0140 0693     		str	r3, [sp, #24]
 4553              		.loc 1 2037 0
 4554 0142 009B     		ldr	r3, [sp, #0]
 4555 0144 0793     		str	r3, [sp, #28]
 4556              		.loc 1 2038 0
 4557 0146 0EAB     		add	r3, sp, #56
 4558 0148 0893     		str	r3, [sp, #32]
 4559              		.loc 1 2039 0
 4560 014a 9DF82F30 		ldrb	r3, [sp, #47]
 4561 014e 8DF82430 		strb	r3, [sp, #36]
 4562              		.loc 1 2040 0
 4563 0152 04AB     		add	r3, sp, #16
 4564 0154 40F20000 		movw	r0, #:lower16:lwip_setsockopt_internal
 4565 0158 C0F20000 		movt	r0, #:upper16:lwip_setsockopt_internal
 4566 015c 1946     		mov	r1, r3
 4567 015e 4FF00102 		mov	r2, #1
 4568 0162 FFF7FEFF 		bl	tcpip_callback_with_block
 4569              		.loc 1 2041 0
 4570 0166 0A9B     		ldr	r3, [sp, #40]
 4571 0168 1B68     		ldr	r3, [r3, #0]
 4572 016a 03F10C03 		add	r3, r3, #12
 4573 016e 1846     		mov	r0, r3
 4574 0170 4FF00001 		mov	r1, #0
 4575 0174 FFF7FEFF 		bl	sys_arch_sem_wait
 4576              		.loc 1 2043 0
 4577 0178 9DF82430 		ldrb	r3, [sp, #36]
 4578 017c 8DF82F30 		strb	r3, [sp, #47]
 4579              		.loc 1 2045 0
 4580 0180 9DF92F20 		ldrsb	r2, [sp, #47]
 4581 0184 0A9B     		ldr	r3, [sp, #40]
 4582 0186 1A61     		str	r2, [r3, #16]
 4583              		.loc 1 2046 0
 4584 0188 9DF92F30 		ldrsb	r3, [sp, #47]
 4585 018c 002B     		cmp	r3, #0
 4586 018e 02D0     		beq	.L353
 4587              		.loc 1 2046 0 is_stmt 0 discriminator 1
ARM GAS  /tmp/cc2wa78n.s 			page 82


 4588 0190 4FF0FF33 		mov	r3, #-1
 4589 0194 01E0     		b	.L354
 4590              	.L353:
 4591              		.loc 1 2046 0 discriminator 2
 4592 0196 4FF00003 		mov	r3, #0
 4593              	.L354:
 4594              	.L328:
 4595              		.loc 1 2047 0 is_stmt 1
 4596 019a 1846     		mov	r0, r3
 4597 019c 0DB0     		add	sp, sp, #52
 4598 019e 00BD     		pop	{pc}
 4599              		.cfi_endproc
 4600              	.LFE33:
 4601              		.size	lwip_setsockopt, .-lwip_setsockopt
 4602              		.section	.text.lwip_setsockopt_internal,"ax",%progbits
 4603              		.align	2
 4604              		.p2align 4,,15
 4605              		.thumb
 4606              		.thumb_func
 4607              		.type	lwip_setsockopt_internal, %function
 4608              	lwip_setsockopt_internal:
 4609              	.LFB34:
 4610              		.loc 1 2051 0
 4611              		.cfi_startproc
 4612              		@ args = 0, pretend = 0, frame = 32
 4613              		@ frame_needed = 0, uses_anonymous_args = 0
 4614 0000 00B5     		push	{lr}
 4615              	.LCFI49:
 4616              		.cfi_def_cfa_offset 4
 4617              		.cfi_offset 14, -4
 4618 0002 89B0     		sub	sp, sp, #36
 4619              	.LCFI50:
 4620              		.cfi_def_cfa_offset 40
 4621 0004 0190     		str	r0, [sp, #4]
 4622              		.loc 1 2060 0
 4623 0006 019B     		ldr	r3, [sp, #4]
 4624 0008 002B     		cmp	r3, #0
 4625 000a 01D1     		bne	.L361
 4626              		.loc 1 2060 0 is_stmt 0 discriminator 1
 4627 000c FFF7FEFF 		bl	port_halt
 4628              	.L361:
 4629              		.loc 1 2062 0 is_stmt 1
 4630 0010 019B     		ldr	r3, [sp, #4]
 4631 0012 0793     		str	r3, [sp, #28]
 4632              		.loc 1 2063 0
 4633 0014 079B     		ldr	r3, [sp, #28]
 4634 0016 1B68     		ldr	r3, [r3, #0]
 4635 0018 0693     		str	r3, [sp, #24]
 4636              		.loc 1 2067 0
 4637 001a 079B     		ldr	r3, [sp, #28]
 4638 001c 5B68     		ldr	r3, [r3, #4]
 4639 001e 0593     		str	r3, [sp, #20]
 4640              		.loc 1 2068 0
 4641 0020 079B     		ldr	r3, [sp, #28]
 4642 0022 9B68     		ldr	r3, [r3, #8]
 4643 0024 0493     		str	r3, [sp, #16]
 4644              		.loc 1 2069 0
ARM GAS  /tmp/cc2wa78n.s 			page 83


 4645 0026 079B     		ldr	r3, [sp, #28]
 4646 0028 DB68     		ldr	r3, [r3, #12]
 4647 002a 0393     		str	r3, [sp, #12]
 4648              		.loc 1 2071 0
 4649 002c 059B     		ldr	r3, [sp, #20]
 4650 002e 062B     		cmp	r3, #6
 4651 0030 6DD0     		beq	.L364
 4652 0032 40F6FF72 		movw	r2, #4095
 4653 0036 9342     		cmp	r3, r2
 4654 0038 02D0     		beq	.L365
 4655 003a 002B     		cmp	r3, #0
 4656 003c 4ED0     		beq	.L363
 4657 003e 98E0     		b	.L385
 4658              	.L365:
 4659              		.loc 1 2075 0
 4660 0040 049B     		ldr	r3, [sp, #16]
 4661 0042 202B     		cmp	r3, #32
 4662 0044 05D0     		beq	.L367
 4663 0046 41F20A02 		movw	r2, #4106
 4664 004a 9342     		cmp	r3, r2
 4665 004c 26D0     		beq	.L368
 4666 004e 082B     		cmp	r3, #8
 4667 0050 40D1     		bne	.L386
 4668              	.L367:
 4669              		.loc 1 2088 0
 4670 0052 039B     		ldr	r3, [sp, #12]
 4671 0054 1B68     		ldr	r3, [r3, #0]
 4672 0056 002B     		cmp	r3, #0
 4673 0058 0ED0     		beq	.L369
 4674              		.loc 1 2089 0
 4675 005a 069B     		ldr	r3, [sp, #24]
 4676 005c 1B68     		ldr	r3, [r3, #0]
 4677 005e 5B68     		ldr	r3, [r3, #4]
 4678 0060 069A     		ldr	r2, [sp, #24]
 4679 0062 1268     		ldr	r2, [r2, #0]
 4680 0064 5268     		ldr	r2, [r2, #4]
 4681 0066 127A     		ldrb	r2, [r2, #8]	@ zero_extendqisi2
 4682 0068 D1B2     		uxtb	r1, r2
 4683 006a 049A     		ldr	r2, [sp, #16]
 4684 006c D2B2     		uxtb	r2, r2
 4685 006e 0A43     		orrs	r2, r2, r1
 4686 0070 D2B2     		uxtb	r2, r2
 4687 0072 D2B2     		uxtb	r2, r2
 4688 0074 1A72     		strb	r2, [r3, #8]
 4689              		.loc 1 2095 0
 4690 0076 30E0     		b	.L371
 4691              	.L369:
 4692              		.loc 1 2091 0
 4693 0078 069B     		ldr	r3, [sp, #24]
 4694 007a 1B68     		ldr	r3, [r3, #0]
 4695 007c 5B68     		ldr	r3, [r3, #4]
 4696 007e 069A     		ldr	r2, [sp, #24]
 4697 0080 1268     		ldr	r2, [r2, #0]
 4698 0082 5268     		ldr	r2, [r2, #4]
 4699 0084 127A     		ldrb	r2, [r2, #8]	@ zero_extendqisi2
 4700 0086 D1B2     		uxtb	r1, r2
 4701 0088 049A     		ldr	r2, [sp, #16]
ARM GAS  /tmp/cc2wa78n.s 			page 84


 4702 008a D2B2     		uxtb	r2, r2
 4703 008c 6FEA0202 		mvn	r2, r2
 4704 0090 D2B2     		uxtb	r2, r2
 4705 0092 0A40     		ands	r2, r2, r1
 4706 0094 D2B2     		uxtb	r2, r2
 4707 0096 D2B2     		uxtb	r2, r2
 4708 0098 1A72     		strb	r2, [r3, #8]
 4709              		.loc 1 2095 0
 4710 009a 1EE0     		b	.L371
 4711              	.L368:
 4712              		.loc 1 2108 0
 4713 009c 039B     		ldr	r3, [sp, #12]
 4714 009e 1B68     		ldr	r3, [r3, #0]
 4715 00a0 002B     		cmp	r3, #0
 4716 00a2 0BD0     		beq	.L372
 4717              		.loc 1 2109 0
 4718 00a4 069B     		ldr	r3, [sp, #24]
 4719 00a6 1B68     		ldr	r3, [r3, #0]
 4720 00a8 5B68     		ldr	r3, [r3, #4]
 4721 00aa 069A     		ldr	r2, [sp, #24]
 4722 00ac 1268     		ldr	r2, [r2, #0]
 4723 00ae 5268     		ldr	r2, [r2, #4]
 4724 00b0 127C     		ldrb	r2, [r2, #16]	@ zero_extendqisi2
 4725 00b2 42F00102 		orr	r2, r2, #1
 4726 00b6 D2B2     		uxtb	r2, r2
 4727 00b8 1A74     		strb	r2, [r3, #16]
 4728              		.loc 1 2113 0
 4729 00ba 0EE0     		b	.L371
 4730              	.L372:
 4731              		.loc 1 2111 0
 4732 00bc 069B     		ldr	r3, [sp, #24]
 4733 00be 1B68     		ldr	r3, [r3, #0]
 4734 00c0 5B68     		ldr	r3, [r3, #4]
 4735 00c2 069A     		ldr	r2, [sp, #24]
 4736 00c4 1268     		ldr	r2, [r2, #0]
 4737 00c6 5268     		ldr	r2, [r2, #4]
 4738 00c8 127C     		ldrb	r2, [r2, #16]	@ zero_extendqisi2
 4739 00ca 22F00102 		bic	r2, r2, #1
 4740 00ce D2B2     		uxtb	r2, r2
 4741 00d0 1A74     		strb	r2, [r3, #16]
 4742              		.loc 1 2113 0
 4743 00d2 02E0     		b	.L371
 4744              	.L386:
 4745              		.loc 1 2116 0 discriminator 1
 4746 00d4 FFF7FEFF 		bl	port_halt
 4747              		.loc 1 2117 0
 4748 00d8 00BF     		nop
 4749              	.L371:
 4750              		.loc 1 2119 0
 4751 00da 4DE0     		b	.L374
 4752              	.L363:
 4753              		.loc 1 2123 0
 4754 00dc 049B     		ldr	r3, [sp, #16]
 4755 00de 012B     		cmp	r3, #1
 4756 00e0 09D0     		beq	.L376
 4757 00e2 022B     		cmp	r3, #2
 4758 00e4 0FD1     		bne	.L387
ARM GAS  /tmp/cc2wa78n.s 			page 85


 4759              	.L377:
 4760              		.loc 1 2125 0
 4761 00e6 069B     		ldr	r3, [sp, #24]
 4762 00e8 1B68     		ldr	r3, [r3, #0]
 4763 00ea 5B68     		ldr	r3, [r3, #4]
 4764 00ec 039A     		ldr	r2, [sp, #12]
 4765 00ee 1268     		ldr	r2, [r2, #0]
 4766 00f0 D2B2     		uxtb	r2, r2
 4767 00f2 9A72     		strb	r2, [r3, #10]
 4768              		.loc 1 2128 0
 4769 00f4 0AE0     		b	.L378
 4770              	.L376:
 4771              		.loc 1 2130 0
 4772 00f6 069B     		ldr	r3, [sp, #24]
 4773 00f8 1B68     		ldr	r3, [r3, #0]
 4774 00fa 5B68     		ldr	r3, [r3, #4]
 4775 00fc 039A     		ldr	r2, [sp, #12]
 4776 00fe 1268     		ldr	r2, [r2, #0]
 4777 0100 D2B2     		uxtb	r2, r2
 4778 0102 5A72     		strb	r2, [r3, #9]
 4779              		.loc 1 2133 0
 4780 0104 02E0     		b	.L378
 4781              	.L387:
 4782              		.loc 1 2169 0 discriminator 1
 4783 0106 FFF7FEFF 		bl	port_halt
 4784              		.loc 1 2170 0
 4785 010a 00BF     		nop
 4786              	.L378:
 4787              		.loc 1 2172 0
 4788 010c 34E0     		b	.L374
 4789              	.L364:
 4790              		.loc 1 2177 0
 4791 010e 049B     		ldr	r3, [sp, #16]
 4792 0110 012B     		cmp	r3, #1
 4793 0112 02D0     		beq	.L380
 4794 0114 022B     		cmp	r3, #2
 4795 0116 20D0     		beq	.L381
 4796 0118 27E0     		b	.L388
 4797              	.L380:
 4798              		.loc 1 2179 0
 4799 011a 039B     		ldr	r3, [sp, #12]
 4800 011c 1B68     		ldr	r3, [r3, #0]
 4801 011e 002B     		cmp	r3, #0
 4802 0120 0DD0     		beq	.L382
 4803              		.loc 1 2180 0
 4804 0122 069B     		ldr	r3, [sp, #24]
 4805 0124 1B68     		ldr	r3, [r3, #0]
 4806 0126 5B68     		ldr	r3, [r3, #4]
 4807 0128 069A     		ldr	r2, [sp, #24]
 4808 012a 1268     		ldr	r2, [r2, #0]
 4809 012c 5268     		ldr	r2, [r2, #4]
 4810 012e 92F82020 		ldrb	r2, [r2, #32]	@ zero_extendqisi2
 4811 0132 42F04002 		orr	r2, r2, #64
 4812 0136 D2B2     		uxtb	r2, r2
 4813 0138 83F82020 		strb	r2, [r3, #32]
 4814              		.loc 1 2186 0
 4815 013c 18E0     		b	.L384
ARM GAS  /tmp/cc2wa78n.s 			page 86


 4816              	.L382:
 4817              		.loc 1 2182 0
 4818 013e 069B     		ldr	r3, [sp, #24]
 4819 0140 1B68     		ldr	r3, [r3, #0]
 4820 0142 5B68     		ldr	r3, [r3, #4]
 4821 0144 069A     		ldr	r2, [sp, #24]
 4822 0146 1268     		ldr	r2, [r2, #0]
 4823 0148 5268     		ldr	r2, [r2, #4]
 4824 014a 92F82020 		ldrb	r2, [r2, #32]	@ zero_extendqisi2
 4825 014e 22F04002 		bic	r2, r2, #64
 4826 0152 D2B2     		uxtb	r2, r2
 4827 0154 83F82020 		strb	r2, [r3, #32]
 4828              		.loc 1 2186 0
 4829 0158 0AE0     		b	.L384
 4830              	.L381:
 4831              		.loc 1 2188 0
 4832 015a 069B     		ldr	r3, [sp, #24]
 4833 015c 1B68     		ldr	r3, [r3, #0]
 4834 015e 5B68     		ldr	r3, [r3, #4]
 4835 0160 039A     		ldr	r2, [sp, #12]
 4836 0162 1268     		ldr	r2, [r2, #0]
 4837 0164 C3F89820 		str	r2, [r3, #152]
 4838              		.loc 1 2191 0
 4839 0168 02E0     		b	.L384
 4840              	.L388:
 4841              		.loc 1 2211 0 discriminator 1
 4842 016a FFF7FEFF 		bl	port_halt
 4843              		.loc 1 2212 0
 4844 016e 00BF     		nop
 4845              	.L384:
 4846              		.loc 1 2214 0
 4847 0170 02E0     		b	.L374
 4848              	.L385:
 4849              		.loc 1 2247 0 discriminator 1
 4850 0172 FFF7FEFF 		bl	port_halt
 4851              		.loc 1 2248 0
 4852 0176 00BF     		nop
 4853              	.L374:
 4854              		.loc 1 2250 0
 4855 0178 069B     		ldr	r3, [sp, #24]
 4856 017a 1B68     		ldr	r3, [r3, #0]
 4857 017c 03F10C03 		add	r3, r3, #12
 4858 0180 1846     		mov	r0, r3
 4859 0182 FFF7FEFF 		bl	sys_sem_signal
 4860              		.loc 1 2251 0
 4861 0186 09B0     		add	sp, sp, #36
 4862 0188 00BD     		pop	{pc}
 4863              		.cfi_endproc
 4864              	.LFE34:
 4865              		.size	lwip_setsockopt_internal, .-lwip_setsockopt_internal
 4866 018a 00BFAFF3 		.section	.text.lwip_ioctl,"ax",%progbits
 4866      0080
 4867              		.align	2
 4868              		.p2align 4,,15
 4869              		.global	lwip_ioctl
 4870              		.thumb
 4871              		.thumb_func
ARM GAS  /tmp/cc2wa78n.s 			page 87


 4872              		.type	lwip_ioctl, %function
 4873              	lwip_ioctl:
 4874              	.LFB35:
 4875              		.loc 1 2255 0
 4876              		.cfi_startproc
 4877              		@ args = 0, pretend = 0, frame = 24
 4878              		@ frame_needed = 0, uses_anonymous_args = 0
 4879 0000 00B5     		push	{lr}
 4880              	.LCFI51:
 4881              		.cfi_def_cfa_offset 4
 4882              		.cfi_offset 14, -4
 4883 0002 87B0     		sub	sp, sp, #28
 4884              	.LCFI52:
 4885              		.cfi_def_cfa_offset 32
 4886 0004 0390     		str	r0, [sp, #12]
 4887 0006 0291     		str	r1, [sp, #8]
 4888 0008 0192     		str	r2, [sp, #4]
 4889              		.loc 1 2256 0
 4890 000a 0398     		ldr	r0, [sp, #12]
 4891 000c FFF7FEFF 		bl	get_socket
 4892 0010 0346     		mov	r3, r0
 4893 0012 0493     		str	r3, [sp, #16]
 4894              		.loc 1 2263 0
 4895 0014 049B     		ldr	r3, [sp, #16]
 4896 0016 002B     		cmp	r3, #0
 4897 0018 02D1     		bne	.L390
 4898              		.loc 1 2264 0
 4899 001a 4FF0FF33 		mov	r3, #-1
 4900 001e 39E0     		b	.L391
 4901              	.L390:
 4902              		.loc 1 2267 0
 4903 0020 029A     		ldr	r2, [sp, #8]
 4904 0022 46F27E63 		movw	r3, #26238
 4905 0026 C8F20403 		movt	r3, 32772
 4906 002a 9A42     		cmp	r2, r3
 4907 002c 2CD1     		bne	.L397
 4908              	.L393:
 4909              		.loc 1 2299 0
 4910 002e 4FF00003 		mov	r3, #0
 4911 0032 8DF81730 		strb	r3, [sp, #23]
 4912              		.loc 1 2300 0
 4913 0036 019B     		ldr	r3, [sp, #4]
 4914 0038 002B     		cmp	r3, #0
 4915 003a 07D0     		beq	.L394
 4916              		.loc 1 2300 0 is_stmt 0 discriminator 1
 4917 003c 019B     		ldr	r3, [sp, #4]
 4918 003e 1B68     		ldr	r3, [r3, #0]
 4919 0040 002B     		cmp	r3, #0
 4920 0042 03D0     		beq	.L394
 4921              		.loc 1 2301 0 is_stmt 1
 4922 0044 4FF00103 		mov	r3, #1
 4923 0048 8DF81730 		strb	r3, [sp, #23]
 4924              	.L394:
 4925              		.loc 1 2303 0
 4926 004c 9DF81730 		ldrb	r3, [sp, #23]	@ zero_extendqisi2
 4927 0050 002B     		cmp	r3, #0
 4928 0052 09D0     		beq	.L395
ARM GAS  /tmp/cc2wa78n.s 			page 88


 4929              		.loc 1 2303 0 is_stmt 0 discriminator 1
 4930 0054 049B     		ldr	r3, [sp, #16]
 4931 0056 1B68     		ldr	r3, [r3, #0]
 4932 0058 049A     		ldr	r2, [sp, #16]
 4933 005a 1268     		ldr	r2, [r2, #0]
 4934 005c 127F     		ldrb	r2, [r2, #28]	@ zero_extendqisi2
 4935 005e 42F00202 		orr	r2, r2, #2
 4936 0062 D2B2     		uxtb	r2, r2
 4937 0064 1A77     		strb	r2, [r3, #28]
 4938 0066 08E0     		b	.L396
 4939              	.L395:
 4940              		.loc 1 2303 0 discriminator 2
 4941 0068 049B     		ldr	r3, [sp, #16]
 4942 006a 1B68     		ldr	r3, [r3, #0]
 4943 006c 049A     		ldr	r2, [sp, #16]
 4944 006e 1268     		ldr	r2, [r2, #0]
 4945 0070 127F     		ldrb	r2, [r2, #28]	@ zero_extendqisi2
 4946 0072 22F00202 		bic	r2, r2, #2
 4947 0076 D2B2     		uxtb	r2, r2
 4948 0078 1A77     		strb	r2, [r3, #28]
 4949              	.L396:
 4950              		.loc 1 2305 0 is_stmt 1
 4951 007a 049B     		ldr	r3, [sp, #16]
 4952 007c 4FF00002 		mov	r2, #0
 4953 0080 1A61     		str	r2, [r3, #16]
 4954              		.loc 1 2306 0
 4955 0082 4FF00003 		mov	r3, #0
 4956 0086 05E0     		b	.L391
 4957              	.L397:
 4958              		.loc 1 2310 0
 4959 0088 049B     		ldr	r3, [sp, #16]
 4960 008a 4FF02602 		mov	r2, #38
 4961 008e 1A61     		str	r2, [r3, #16]
 4962              		.loc 1 2311 0
 4963 0090 4FF0FF33 		mov	r3, #-1
 4964              	.L391:
 4965              		.loc 1 2313 0
 4966 0094 1846     		mov	r0, r3
 4967 0096 07B0     		add	sp, sp, #28
 4968 0098 00BD     		pop	{pc}
 4969              		.cfi_endproc
 4970              	.LFE35:
 4971              		.size	lwip_ioctl, .-lwip_ioctl
 4972 009a 00BFAFF3 		.section	.text.lwip_fcntl,"ax",%progbits
 4972      0080
 4973              		.align	2
 4974              		.p2align 4,,15
 4975              		.global	lwip_fcntl
 4976              		.thumb
 4977              		.thumb_func
 4978              		.type	lwip_fcntl, %function
 4979              	lwip_fcntl:
 4980              	.LFB36:
 4981              		.loc 1 2321 0
 4982              		.cfi_startproc
 4983              		@ args = 0, pretend = 0, frame = 24
 4984              		@ frame_needed = 0, uses_anonymous_args = 0
ARM GAS  /tmp/cc2wa78n.s 			page 89


 4985 0000 00B5     		push	{lr}
 4986              	.LCFI53:
 4987              		.cfi_def_cfa_offset 4
 4988              		.cfi_offset 14, -4
 4989 0002 87B0     		sub	sp, sp, #28
 4990              	.LCFI54:
 4991              		.cfi_def_cfa_offset 32
 4992 0004 0390     		str	r0, [sp, #12]
 4993 0006 0291     		str	r1, [sp, #8]
 4994 0008 0192     		str	r2, [sp, #4]
 4995              		.loc 1 2322 0
 4996 000a 0398     		ldr	r0, [sp, #12]
 4997 000c FFF7FEFF 		bl	get_socket
 4998 0010 0346     		mov	r3, r0
 4999 0012 0493     		str	r3, [sp, #16]
 5000              		.loc 1 2323 0
 5001 0014 4FF0FF33 		mov	r3, #-1
 5002 0018 0593     		str	r3, [sp, #20]
 5003              		.loc 1 2325 0
 5004 001a 049B     		ldr	r3, [sp, #16]
 5005 001c 002B     		cmp	r3, #0
 5006 001e 03D0     		beq	.L399
 5007              		.loc 1 2325 0 is_stmt 0 discriminator 1
 5008 0020 049B     		ldr	r3, [sp, #16]
 5009 0022 1B68     		ldr	r3, [r3, #0]
 5010 0024 002B     		cmp	r3, #0
 5011 0026 02D1     		bne	.L400
 5012              	.L399:
 5013              		.loc 1 2326 0 is_stmt 1
 5014 0028 4FF0FF33 		mov	r3, #-1
 5015 002c 35E0     		b	.L401
 5016              	.L400:
 5017              		.loc 1 2329 0
 5018 002e 029B     		ldr	r3, [sp, #8]
 5019 0030 032B     		cmp	r3, #3
 5020 0032 02D0     		beq	.L403
 5021 0034 042B     		cmp	r3, #4
 5022 0036 0BD0     		beq	.L404
 5023 0038 2CE0     		b	.L409
 5024              	.L403:
 5025              		.loc 1 2331 0
 5026 003a 049B     		ldr	r3, [sp, #16]
 5027 003c 1B68     		ldr	r3, [r3, #0]
 5028 003e 1B7F     		ldrb	r3, [r3, #28]	@ zero_extendqisi2
 5029 0040 03F00203 		and	r3, r3, #2
 5030 0044 002B     		cmp	r3, #0
 5031 0046 0CBF     		ite	eq
 5032 0048 0023     		moveq	r3, #0
 5033 004a 0123     		movne	r3, #1
 5034 004c 0593     		str	r3, [sp, #20]
 5035              		.loc 1 2332 0
 5036 004e 23E0     		b	.L405
 5037              	.L404:
 5038              		.loc 1 2334 0
 5039 0050 019B     		ldr	r3, [sp, #4]
 5040 0052 23F00103 		bic	r3, r3, #1
 5041 0056 002B     		cmp	r3, #0
ARM GAS  /tmp/cc2wa78n.s 			page 90


 5042 0058 1DD1     		bne	.L410
 5043              		.loc 1 2336 0
 5044 005a 019B     		ldr	r3, [sp, #4]
 5045 005c 03F00103 		and	r3, r3, #1
 5046 0060 DBB2     		uxtb	r3, r3
 5047 0062 002B     		cmp	r3, #0
 5048 0064 09D0     		beq	.L407
 5049              		.loc 1 2336 0 is_stmt 0 discriminator 1
 5050 0066 049B     		ldr	r3, [sp, #16]
 5051 0068 1B68     		ldr	r3, [r3, #0]
 5052 006a 049A     		ldr	r2, [sp, #16]
 5053 006c 1268     		ldr	r2, [r2, #0]
 5054 006e 127F     		ldrb	r2, [r2, #28]	@ zero_extendqisi2
 5055 0070 42F00202 		orr	r2, r2, #2
 5056 0074 D2B2     		uxtb	r2, r2
 5057 0076 1A77     		strb	r2, [r3, #28]
 5058 0078 08E0     		b	.L408
 5059              	.L407:
 5060              		.loc 1 2336 0 discriminator 2
 5061 007a 049B     		ldr	r3, [sp, #16]
 5062 007c 1B68     		ldr	r3, [r3, #0]
 5063 007e 049A     		ldr	r2, [sp, #16]
 5064 0080 1268     		ldr	r2, [r2, #0]
 5065 0082 127F     		ldrb	r2, [r2, #28]	@ zero_extendqisi2
 5066 0084 22F00202 		bic	r2, r2, #2
 5067 0088 D2B2     		uxtb	r2, r2
 5068 008a 1A77     		strb	r2, [r3, #28]
 5069              	.L408:
 5070              		.loc 1 2337 0 is_stmt 1
 5071 008c 4FF00003 		mov	r3, #0
 5072 0090 0593     		str	r3, [sp, #20]
 5073              		.loc 1 2339 0
 5074 0092 00E0     		b	.L410
 5075              	.L409:
 5076              		.loc 1 2342 0
 5077 0094 00E0     		b	.L405
 5078              	.L410:
 5079              		.loc 1 2339 0
 5080 0096 00BF     		nop
 5081              	.L405:
 5082              		.loc 1 2344 0
 5083 0098 059B     		ldr	r3, [sp, #20]
 5084              	.L401:
 5085              		.loc 1 2345 0
 5086 009a 1846     		mov	r0, r3
 5087 009c 07B0     		add	sp, sp, #28
 5088 009e 00BD     		pop	{pc}
 5089              		.cfi_endproc
 5090              	.LFE36:
 5091              		.size	lwip_fcntl, .-lwip_fcntl
 5092              		.text
 5093              	.Letext0:
 5094              		.file 2 "/home/texzk/ChibiStudio/tools/GNU Tools ARM Embedded/4.6 2012q2/bin/../lib/gcc/arm-none-e
 5095              		.file 3 "/home/texzk/ChibiStudio/tools/GNU Tools ARM Embedded/4.6 2012q2/bin/../lib/gcc/arm-none-e
 5096              		.file 4 "../../os/ports/GCC/ARMCMx/chtypes.h"
 5097              		.file 5 "../../os/kernel/include/chlists.h"
 5098              		.file 6 "../../os/kernel/include/chthreads.h"
ARM GAS  /tmp/cc2wa78n.s 			page 91


 5099              		.file 7 "../../os/ports/GCC/ARMCMx/chcore_v7m.h"
 5100              		.file 8 "../../os/kernel/include/chsem.h"
 5101              		.file 9 "../../os/kernel/include/chmtx.h"
 5102              		.file 10 "../../os/kernel/include/chmboxes.h"
 5103              		.file 11 "../../os/various/lwip_bindings/arch/cc.h"
 5104              		.file 12 "../../ext/lwip/src/include/ipv4/lwip/ip_addr.h"
 5105              		.file 13 "../../ext/lwip/src/include/ipv4/lwip/inet.h"
 5106              		.file 14 "../../ext/lwip/src/include/lwip/sockets.h"
 5107              		.file 15 "../../ext/lwip/src/include/lwip/err.h"
 5108              		.file 16 "../../ext/lwip/src/include/lwip/pbuf.h"
 5109              		.file 17 "../../ext/lwip/src/include/lwip/netbuf.h"
 5110              		.file 18 "../../os/various/lwip_bindings/arch/sys_arch.h"
 5111              		.file 19 "../../ext/lwip/src/include/lwip/api.h"
 5112              		.file 20 "../../ext/lwip/src/include/ipv4/lwip/ip.h"
 5113              		.file 21 "../../ext/lwip/src/include/lwip/tcp.h"
 5114              		.file 22 "../../ext/lwip/src/include/lwip/udp.h"
 5115              		.file 23 "../../ext/lwip/src/include/lwip/raw.h"
 5116              		.file 24 "../../ext/lwip/src/include/lwip/api_msg.h"