ARM GAS  /tmp/cc2wa78n.s 			page 1


   1              		.syntax unified
   2              		.cpu cortex-m3
   3              		.fpu softvfp
   4              		.eabi_attribute 20, 1
   5              		.eabi_attribute 21, 1
   6              		.eabi_attribute 23, 3
   7              		.eabi_attribute 24, 1
   8              		.eabi_attribute 25, 1
   9              		.eabi_attribute 26, 1
  10              		.eabi_attribute 30, 6
  11              		.eabi_attribute 34, 1
  12              		.eabi_attribute 18, 4
  13              		.thumb
  14              		.file	"sockets.c"
  15              		.text
  16              	.Ltext0:
  17              		.cfi_sections	.debug_frame
  18              		.section	.bss.sockets,"aw",%nobits
  19              		.align	2
  20              		.type	sockets, %object
  21              		.size	sockets, 96
  22              	sockets:
  23 0000 00000000 		.space	96
  23      00000000 
  23      00000000 
  23      00000000 
  23      00000000 
  24              		.section	.bss.select_cb_list,"aw",%nobits
  25              		.align	2
  26              		.type	select_cb_list, %object
  27              		.size	select_cb_list, 4
  28              	select_cb_list:
  29 0000 00000000 		.space	4
  30              		.section	.bss.select_cb_ctr,"aw",%nobits
  31              		.align	2
  32              		.type	select_cb_ctr, %object
  33              		.size	select_cb_ctr, 4
  34              	select_cb_ctr:
  35 0000 00000000 		.space	4
  36              		.section	.rodata.err_to_errno_table,"a",%progbits
  37              		.align	2
  38              		.type	err_to_errno_table, %object
  39              		.size	err_to_errno_table, 64
  40              	err_to_errno_table:
  41 0000 00000000 		.word	0
  42 0004 0C000000 		.word	12
  43 0008 69000000 		.word	105
  44 000c 0B000000 		.word	11
  45 0010 71000000 		.word	113
  46 0014 73000000 		.word	115
  47 0018 16000000 		.word	22
  48 001c 0B000000 		.word	11
  49 0020 62000000 		.word	98
  50 0024 72000000 		.word	114
  51 0028 67000000 		.word	103
  52 002c 68000000 		.word	104
  53 0030 6B000000 		.word	107
ARM GAS  /tmp/cc2wa78n.s 			page 2


  54 0034 6B000000 		.word	107
  55 0038 05000000 		.word	5
  56 003c FFFFFFFF 		.word	-1
  57              		.section	.text.lwip_socket_init,"ax",%progbits
  58              		.align	2
  59              		.p2align 4,,15
  60              		.global	lwip_socket_init
  61              		.thumb
  62              		.thumb_func
  63              		.type	lwip_socket_init, %function
  64              	lwip_socket_init:
  65              	.LFB7:
  66              		.file 1 "../../ext/lwip/src/api/sockets.c"
  67              		.loc 1 185 0
  68              		.cfi_startproc
  69              		@ args = 0, pretend = 0, frame = 0
  70              		@ frame_needed = 0, uses_anonymous_args = 0
  71              		@ link register save eliminated.
  72              		.loc 1 186 0
  73 0000 7047     		bx	lr
  74              		.cfi_endproc
  75              	.LFE7:
  76              		.size	lwip_socket_init, .-lwip_socket_init
  77 0002 00BFAFF3 		.section	.text.get_socket,"ax",%progbits
  77      0080AFF3 
  77      0080AFF3 
  77      0080
  78              		.align	2
  79              		.p2align 4,,15
  80              		.thumb
  81              		.thumb_func
  82              		.type	get_socket, %function
  83              	get_socket:
  84              	.LFB8:
  85              		.loc 1 196 0
  86              		.cfi_startproc
  87              		@ args = 0, pretend = 0, frame = 16
  88              		@ frame_needed = 0, uses_anonymous_args = 0
  89              		@ link register save eliminated.
  90 0000 84B0     		sub	sp, sp, #16
  91              	.LCFI0:
  92              		.cfi_def_cfa_offset 16
  93 0002 0190     		str	r0, [sp, #4]
  94              		.loc 1 199 0
  95 0004 019B     		ldr	r3, [sp, #4]
  96 0006 002B     		cmp	r3, #0
  97 0008 02DB     		blt	.L3
  98              		.loc 1 199 0 is_stmt 0 discriminator 1
  99 000a 019B     		ldr	r3, [sp, #4]
 100 000c 032B     		cmp	r3, #3
 101 000e 02DD     		ble	.L4
 102              	.L3:
 103              		.loc 1 202 0 is_stmt 1
 104 0010 4FF00003 		mov	r3, #0
 105 0014 15E0     		b	.L5
 106              	.L4:
 107              		.loc 1 205 0
ARM GAS  /tmp/cc2wa78n.s 			page 3


 108 0016 019A     		ldr	r2, [sp, #4]
 109 0018 1346     		mov	r3, r2
 110 001a 4FEA4303 		lsl	r3, r3, #1
 111 001e 9B18     		adds	r3, r3, r2
 112 0020 4FEAC303 		lsl	r3, r3, #3
 113 0024 1A46     		mov	r2, r3
 114 0026 40F20003 		movw	r3, #:lower16:sockets
 115 002a C0F20003 		movt	r3, #:upper16:sockets
 116 002e D318     		adds	r3, r2, r3
 117 0030 0393     		str	r3, [sp, #12]
 118              		.loc 1 207 0
 119 0032 039B     		ldr	r3, [sp, #12]
 120 0034 1B68     		ldr	r3, [r3, #0]
 121 0036 002B     		cmp	r3, #0
 122 0038 02D1     		bne	.L6
 123              		.loc 1 210 0
 124 003a 4FF00003 		mov	r3, #0
 125 003e 00E0     		b	.L5
 126              	.L6:
 127              		.loc 1 213 0
 128 0040 039B     		ldr	r3, [sp, #12]
 129              	.L5:
 130              		.loc 1 214 0
 131 0042 1846     		mov	r0, r3
 132 0044 04B0     		add	sp, sp, #16
 133 0046 7047     		bx	lr
 134              		.cfi_endproc
 135              	.LFE8:
 136              		.size	get_socket, .-get_socket
 137 0048 AFF30080 		.section	.text.tryget_socket,"ax",%progbits
 137      AFF30080 
 138              		.align	2
 139              		.p2align 4,,15
 140              		.thumb
 141              		.thumb_func
 142              		.type	tryget_socket, %function
 143              	tryget_socket:
 144              	.LFB9:
 145              		.loc 1 224 0
 146              		.cfi_startproc
 147              		@ args = 0, pretend = 0, frame = 8
 148              		@ frame_needed = 0, uses_anonymous_args = 0
 149              		@ link register save eliminated.
 150 0000 82B0     		sub	sp, sp, #8
 151              	.LCFI1:
 152              		.cfi_def_cfa_offset 8
 153 0002 0190     		str	r0, [sp, #4]
 154              		.loc 1 225 0
 155 0004 019B     		ldr	r3, [sp, #4]
 156 0006 002B     		cmp	r3, #0
 157 0008 02DB     		blt	.L8
 158              		.loc 1 225 0 is_stmt 0 discriminator 1
 159 000a 019B     		ldr	r3, [sp, #4]
 160 000c 032B     		cmp	r3, #3
 161 000e 02DD     		ble	.L9
 162              	.L8:
 163              		.loc 1 226 0 is_stmt 1
ARM GAS  /tmp/cc2wa78n.s 			page 4


 164 0010 4FF00003 		mov	r3, #0
 165 0014 1EE0     		b	.L10
 166              	.L9:
 167              		.loc 1 228 0
 168 0016 40F20002 		movw	r2, #:lower16:sockets
 169 001a C0F20002 		movt	r2, #:upper16:sockets
 170 001e 0199     		ldr	r1, [sp, #4]
 171 0020 0B46     		mov	r3, r1
 172 0022 4FEA4303 		lsl	r3, r3, #1
 173 0026 5B18     		adds	r3, r3, r1
 174 0028 4FEAC303 		lsl	r3, r3, #3
 175 002c D318     		adds	r3, r2, r3
 176 002e 1B68     		ldr	r3, [r3, #0]
 177 0030 002B     		cmp	r3, #0
 178 0032 02D1     		bne	.L11
 179              		.loc 1 229 0
 180 0034 4FF00003 		mov	r3, #0
 181 0038 0CE0     		b	.L10
 182              	.L11:
 183              		.loc 1 231 0
 184 003a 019A     		ldr	r2, [sp, #4]
 185 003c 1346     		mov	r3, r2
 186 003e 4FEA4303 		lsl	r3, r3, #1
 187 0042 9B18     		adds	r3, r3, r2
 188 0044 4FEAC303 		lsl	r3, r3, #3
 189 0048 1A46     		mov	r2, r3
 190 004a 40F20003 		movw	r3, #:lower16:sockets
 191 004e C0F20003 		movt	r3, #:upper16:sockets
 192 0052 D318     		adds	r3, r2, r3
 193              	.L10:
 194              		.loc 1 232 0
 195 0054 1846     		mov	r0, r3
 196 0056 02B0     		add	sp, sp, #8
 197 0058 7047     		bx	lr
 198              		.cfi_endproc
 199              	.LFE9:
 200              		.size	tryget_socket, .-tryget_socket
 201 005a 00BFAFF3 		.section	.text.alloc_socket,"ax",%progbits
 201      0080
 202              		.align	2
 203              		.p2align 4,,15
 204              		.thumb
 205              		.thumb_func
 206              		.type	alloc_socket, %function
 207              	alloc_socket:
 208              	.LFB10:
 209              		.loc 1 244 0
 210              		.cfi_startproc
 211              		@ args = 0, pretend = 0, frame = 16
 212              		@ frame_needed = 0, uses_anonymous_args = 0
 213              		@ link register save eliminated.
 214 0000 84B0     		sub	sp, sp, #16
 215              	.LCFI2:
 216              		.cfi_def_cfa_offset 16
 217 0002 0190     		str	r0, [sp, #4]
 218 0004 0091     		str	r1, [sp, #0]
 219              		.loc 1 249 0
ARM GAS  /tmp/cc2wa78n.s 			page 5


 220 0006 4FF00003 		mov	r3, #0
 221 000a 0393     		str	r3, [sp, #12]
 222 000c A6E0     		b	.L13
 223              	.L19:
 224              		.loc 1 252 0
 225 000e 40F20002 		movw	r2, #:lower16:sockets
 226 0012 C0F20002 		movt	r2, #:upper16:sockets
 227 0016 0399     		ldr	r1, [sp, #12]
 228 0018 0B46     		mov	r3, r1
 229 001a 4FEA4303 		lsl	r3, r3, #1
 230 001e 5B18     		adds	r3, r3, r1
 231 0020 4FEAC303 		lsl	r3, r3, #3
 232 0024 D318     		adds	r3, r2, r3
 233 0026 1B68     		ldr	r3, [r3, #0]
 234 0028 002B     		cmp	r3, #0
 235 002a 40F09380 		bne	.L14
 236              		.loc 1 253 0
 237 002e 40F20002 		movw	r2, #:lower16:sockets
 238 0032 C0F20002 		movt	r2, #:upper16:sockets
 239 0036 0399     		ldr	r1, [sp, #12]
 240 0038 0B46     		mov	r3, r1
 241 003a 4FEA4303 		lsl	r3, r3, #1
 242 003e 5B18     		adds	r3, r3, r1
 243 0040 4FEAC303 		lsl	r3, r3, #3
 244 0044 D318     		adds	r3, r2, r3
 245 0046 019A     		ldr	r2, [sp, #4]
 246 0048 1A60     		str	r2, [r3, #0]
 247              		.loc 1 257 0
 248 004a 40F20002 		movw	r2, #:lower16:sockets
 249 004e C0F20002 		movt	r2, #:upper16:sockets
 250 0052 0399     		ldr	r1, [sp, #12]
 251 0054 0B46     		mov	r3, r1
 252 0056 4FEA4303 		lsl	r3, r3, #1
 253 005a 5B18     		adds	r3, r3, r1
 254 005c 4FEAC303 		lsl	r3, r3, #3
 255 0060 D318     		adds	r3, r2, r3
 256 0062 03F10403 		add	r3, r3, #4
 257 0066 4FF00002 		mov	r2, #0
 258 006a 1A60     		str	r2, [r3, #0]
 259              		.loc 1 258 0
 260 006c 40F20002 		movw	r2, #:lower16:sockets
 261 0070 C0F20002 		movt	r2, #:upper16:sockets
 262 0074 0399     		ldr	r1, [sp, #12]
 263 0076 0B46     		mov	r3, r1
 264 0078 4FEA4303 		lsl	r3, r3, #1
 265 007c 5B18     		adds	r3, r3, r1
 266 007e 4FEAC303 		lsl	r3, r3, #3
 267 0082 D318     		adds	r3, r2, r3
 268 0084 03F10803 		add	r3, r3, #8
 269 0088 4FF00002 		mov	r2, #0
 270 008c 1A80     		strh	r2, [r3, #0]	@ movhi
 271              		.loc 1 259 0
 272 008e 40F20002 		movw	r2, #:lower16:sockets
 273 0092 C0F20002 		movt	r2, #:upper16:sockets
 274 0096 0399     		ldr	r1, [sp, #12]
 275 0098 0B46     		mov	r3, r1
 276 009a 4FEA4303 		lsl	r3, r3, #1
ARM GAS  /tmp/cc2wa78n.s 			page 6


 277 009e 5B18     		adds	r3, r3, r1
 278 00a0 4FEAC303 		lsl	r3, r3, #3
 279 00a4 D318     		adds	r3, r2, r3
 280 00a6 03F10803 		add	r3, r3, #8
 281 00aa 4FF00002 		mov	r2, #0
 282 00ae 5A80     		strh	r2, [r3, #2]	@ movhi
 283              		.loc 1 262 0
 284 00b0 019B     		ldr	r3, [sp, #4]
 285 00b2 1B78     		ldrb	r3, [r3, #0]	@ zero_extendqisi2
 286 00b4 102B     		cmp	r3, #16
 287 00b6 02D1     		bne	.L15
 288              		.loc 1 262 0 is_stmt 0 discriminator 2
 289 00b8 009B     		ldr	r3, [sp, #0]
 290 00ba 002B     		cmp	r3, #0
 291 00bc 02D0     		beq	.L16
 292              	.L15:
 293              		.loc 1 262 0 discriminator 1
 294 00be 4FF00103 		mov	r3, #1
 295 00c2 01E0     		b	.L17
 296              	.L16:
 297 00c4 4FF00003 		mov	r3, #0
 298              	.L17:
 299              		.loc 1 262 0 discriminator 3
 300 00c8 98B2     		uxth	r0, r3
 301 00ca 40F20002 		movw	r2, #:lower16:sockets
 302 00ce C0F20002 		movt	r2, #:upper16:sockets
 303 00d2 0399     		ldr	r1, [sp, #12]
 304 00d4 0B46     		mov	r3, r1
 305 00d6 4FEA4303 		lsl	r3, r3, #1
 306 00da 5B18     		adds	r3, r3, r1
 307 00dc 4FEAC303 		lsl	r3, r3, #3
 308 00e0 D318     		adds	r3, r2, r3
 309 00e2 03F10803 		add	r3, r3, #8
 310 00e6 0246     		mov	r2, r0	@ movhi
 311 00e8 9A80     		strh	r2, [r3, #4]	@ movhi
 312              		.loc 1 263 0 is_stmt 1 discriminator 3
 313 00ea 40F20002 		movw	r2, #:lower16:sockets
 314 00ee C0F20002 		movt	r2, #:upper16:sockets
 315 00f2 0399     		ldr	r1, [sp, #12]
 316 00f4 0B46     		mov	r3, r1
 317 00f6 4FEA4303 		lsl	r3, r3, #1
 318 00fa 5B18     		adds	r3, r3, r1
 319 00fc 4FEAC303 		lsl	r3, r3, #3
 320 0100 D318     		adds	r3, r2, r3
 321 0102 03F10803 		add	r3, r3, #8
 322 0106 4FF00002 		mov	r2, #0
 323 010a DA80     		strh	r2, [r3, #6]	@ movhi
 324              		.loc 1 264 0 discriminator 3
 325 010c 40F20002 		movw	r2, #:lower16:sockets
 326 0110 C0F20002 		movt	r2, #:upper16:sockets
 327 0114 0399     		ldr	r1, [sp, #12]
 328 0116 0B46     		mov	r3, r1
 329 0118 4FEA4303 		lsl	r3, r3, #1
 330 011c 5B18     		adds	r3, r3, r1
 331 011e 4FEAC303 		lsl	r3, r3, #3
 332 0122 D318     		adds	r3, r2, r3
 333 0124 03F11003 		add	r3, r3, #16
ARM GAS  /tmp/cc2wa78n.s 			page 7


 334 0128 4FF00002 		mov	r2, #0
 335 012c 1A60     		str	r2, [r3, #0]
 336              		.loc 1 265 0 discriminator 3
 337 012e 40F20002 		movw	r2, #:lower16:sockets
 338 0132 C0F20002 		movt	r2, #:upper16:sockets
 339 0136 0399     		ldr	r1, [sp, #12]
 340 0138 0B46     		mov	r3, r1
 341 013a 4FEA4303 		lsl	r3, r3, #1
 342 013e 5B18     		adds	r3, r3, r1
 343 0140 4FEAC303 		lsl	r3, r3, #3
 344 0144 D318     		adds	r3, r2, r3
 345 0146 03F11403 		add	r3, r3, #20
 346 014a 4FF00002 		mov	r2, #0
 347 014e 1A60     		str	r2, [r3, #0]
 348              		.loc 1 266 0 discriminator 3
 349 0150 039B     		ldr	r3, [sp, #12]
 350 0152 09E0     		b	.L18
 351              	.L14:
 352              		.loc 1 249 0
 353 0154 039B     		ldr	r3, [sp, #12]
 354 0156 03F10103 		add	r3, r3, #1
 355 015a 0393     		str	r3, [sp, #12]
 356              	.L13:
 357              		.loc 1 249 0 is_stmt 0 discriminator 1
 358 015c 039B     		ldr	r3, [sp, #12]
 359 015e 032B     		cmp	r3, #3
 360 0160 7FF755AF 		ble	.L19
 361              		.loc 1 270 0 is_stmt 1
 362 0164 4FF0FF33 		mov	r3, #-1
 363              	.L18:
 364              		.loc 1 271 0
 365 0168 1846     		mov	r0, r3
 366 016a 04B0     		add	sp, sp, #16
 367 016c 7047     		bx	lr
 368              		.cfi_endproc
 369              	.LFE10:
 370              		.size	alloc_socket, .-alloc_socket
 371 016e 00BF     		.section	.text.free_socket,"ax",%progbits
 372              		.align	2
 373              		.p2align 4,,15
 374              		.thumb
 375              		.thumb_func
 376              		.type	free_socket, %function
 377              	free_socket:
 378              	.LFB11:
 379              		.loc 1 281 0
 380              		.cfi_startproc
 381              		@ args = 0, pretend = 0, frame = 16
 382              		@ frame_needed = 0, uses_anonymous_args = 0
 383 0000 00B5     		push	{lr}
 384              	.LCFI3:
 385              		.cfi_def_cfa_offset 4
 386              		.cfi_offset 14, -4
 387 0002 85B0     		sub	sp, sp, #20
 388              	.LCFI4:
 389              		.cfi_def_cfa_offset 24
 390 0004 0190     		str	r0, [sp, #4]
ARM GAS  /tmp/cc2wa78n.s 			page 8


 391 0006 0091     		str	r1, [sp, #0]
 392              		.loc 1 285 0
 393 0008 019B     		ldr	r3, [sp, #4]
 394 000a 5B68     		ldr	r3, [r3, #4]
 395 000c 0393     		str	r3, [sp, #12]
 396              		.loc 1 286 0
 397 000e 019B     		ldr	r3, [sp, #4]
 398 0010 4FF00002 		mov	r2, #0
 399 0014 5A60     		str	r2, [r3, #4]
 400              		.loc 1 287 0
 401 0016 019B     		ldr	r3, [sp, #4]
 402 0018 4FF00002 		mov	r2, #0
 403 001c 1A81     		strh	r2, [r3, #8]	@ movhi
 404              		.loc 1 288 0
 405 001e 019B     		ldr	r3, [sp, #4]
 406 0020 4FF00002 		mov	r2, #0
 407 0024 1A61     		str	r2, [r3, #16]
 408              		.loc 1 292 0
 409 0026 019B     		ldr	r3, [sp, #4]
 410 0028 4FF00002 		mov	r2, #0
 411 002c 1A60     		str	r2, [r3, #0]
 412              		.loc 1 296 0
 413 002e 039B     		ldr	r3, [sp, #12]
 414 0030 002B     		cmp	r3, #0
 415 0032 09D0     		beq	.L20
 416              		.loc 1 297 0
 417 0034 009B     		ldr	r3, [sp, #0]
 418 0036 002B     		cmp	r3, #0
 419 0038 03D0     		beq	.L22
 420              		.loc 1 298 0
 421 003a 0398     		ldr	r0, [sp, #12]
 422 003c FFF7FEFF 		bl	pbuf_free
 423 0040 02E0     		b	.L20
 424              	.L22:
 425              		.loc 1 300 0
 426 0042 0398     		ldr	r0, [sp, #12]
 427 0044 FFF7FEFF 		bl	netbuf_delete
 428              	.L20:
 429              		.loc 1 303 0
 430 0048 05B0     		add	sp, sp, #20
 431 004a 00BD     		pop	{pc}
 432              		.cfi_endproc
 433              	.LFE11:
 434              		.size	free_socket, .-free_socket
 435 004c AFF30080 		.section	.text.lwip_accept,"ax",%progbits
 436              		.align	2
 437              		.p2align 4,,15
 438              		.global	lwip_accept
 439              		.thumb
 440              		.thumb_func
 441              		.type	lwip_accept, %function
 442              	lwip_accept:
 443              	.LFB12:
 444              		.loc 1 313 0
 445              		.cfi_startproc
 446              		@ args = 0, pretend = 0, frame = 64
 447              		@ frame_needed = 0, uses_anonymous_args = 0
ARM GAS  /tmp/cc2wa78n.s 			page 9


 448 0000 00B5     		push	{lr}
 449              	.LCFI5:
 450              		.cfi_def_cfa_offset 4
 451              		.cfi_offset 14, -4
 452 0002 91B0     		sub	sp, sp, #68
 453              	.LCFI6:
 454              		.cfi_def_cfa_offset 72
 455 0004 0390     		str	r0, [sp, #12]
 456 0006 0291     		str	r1, [sp, #8]
 457 0008 0192     		str	r2, [sp, #4]
 458              		.loc 1 324 0
 459 000a 0398     		ldr	r0, [sp, #12]
 460 000c FFF7FEFF 		bl	get_socket
 461 0010 0346     		mov	r3, r0
 462 0012 0F93     		str	r3, [sp, #60]
 463              		.loc 1 325 0
 464 0014 0F9B     		ldr	r3, [sp, #60]
 465 0016 002B     		cmp	r3, #0
 466 0018 02D1     		bne	.L24
 467              		.loc 1 326 0
 468 001a 4FF0FF33 		mov	r3, #-1
 469 001e FFE0     		b	.L25
 470              	.L24:
 471              		.loc 1 329 0
 472 0020 0F9B     		ldr	r3, [sp, #60]
 473 0022 1B68     		ldr	r3, [r3, #0]
 474 0024 1B7F     		ldrb	r3, [r3, #28]	@ zero_extendqisi2
 475 0026 03F00203 		and	r3, r3, #2
 476 002a 002B     		cmp	r3, #0
 477 002c 0BD0     		beq	.L26
 478              		.loc 1 329 0 is_stmt 0 discriminator 1
 479 002e 0F9B     		ldr	r3, [sp, #60]
 480 0030 5B89     		ldrh	r3, [r3, #10]
 481 0032 1BB2     		sxth	r3, r3
 482 0034 002B     		cmp	r3, #0
 483 0036 06DC     		bgt	.L26
 484              		.loc 1 331 0 is_stmt 1
 485 0038 0F9B     		ldr	r3, [sp, #60]
 486 003a 4FF00B02 		mov	r2, #11
 487 003e 1A61     		str	r2, [r3, #16]
 488              		.loc 1 332 0
 489 0040 4FF0FF33 		mov	r3, #-1
 490 0044 ECE0     		b	.L25
 491              	.L26:
 492              		.loc 1 336 0
 493 0046 0F9B     		ldr	r3, [sp, #60]
 494 0048 1A68     		ldr	r2, [r3, #0]
 495 004a 0BAB     		add	r3, sp, #44
 496 004c 1046     		mov	r0, r2
 497 004e 1946     		mov	r1, r3
 498 0050 FFF7FEFF 		bl	netconn_accept
 499 0054 0346     		mov	r3, r0
 500 0056 8DF83B30 		strb	r3, [sp, #59]
 501              		.loc 1 337 0
 502 005a 9DF93B30 		ldrsb	r3, [sp, #59]
 503 005e 002B     		cmp	r3, #0
 504 0060 17D0     		beq	.L27
ARM GAS  /tmp/cc2wa78n.s 			page 10


 505              		.loc 1 339 0
 506 0062 9DF93B30 		ldrsb	r3, [sp, #59]
 507 0066 C3F10003 		rsb	r3, r3, #0
 508 006a 0F2B     		cmp	r3, #15
 509 006c 0AD8     		bhi	.L28
 510              		.loc 1 339 0 is_stmt 0 discriminator 1
 511 006e 9DF93B30 		ldrsb	r3, [sp, #59]
 512 0072 C3F10002 		rsb	r2, r3, #0
 513 0076 40F20003 		movw	r3, #:lower16:err_to_errno_table
 514 007a C0F20003 		movt	r3, #:upper16:err_to_errno_table
 515 007e 53F82230 		ldr	r3, [r3, r2, lsl #2]
 516 0082 01E0     		b	.L29
 517              	.L28:
 518              		.loc 1 339 0 discriminator 2
 519 0084 4FF00503 		mov	r3, #5
 520              	.L29:
 521              		.loc 1 339 0 discriminator 3
 522 0088 0F9A     		ldr	r2, [sp, #60]
 523 008a 1361     		str	r3, [r2, #16]
 524              		.loc 1 340 0 is_stmt 1 discriminator 3
 525 008c 4FF0FF33 		mov	r3, #-1
 526 0090 C6E0     		b	.L25
 527              	.L27:
 528              		.loc 1 342 0
 529 0092 0B9B     		ldr	r3, [sp, #44]
 530 0094 002B     		cmp	r3, #0
 531 0096 01D1     		bne	.L30
 532              		.loc 1 342 0 is_stmt 0 discriminator 1
 533 0098 FFF7FEFF 		bl	port_halt
 534              	.L30:
 535              		.loc 1 344 0 is_stmt 1 discriminator 1
 536 009c 0B9B     		ldr	r3, [sp, #44]
 537 009e 0B9A     		ldr	r2, [sp, #44]
 538 00a0 127F     		ldrb	r2, [r2, #28]	@ zero_extendqisi2
 539 00a2 42F00802 		orr	r2, r2, #8
 540 00a6 D2B2     		uxtb	r2, r2
 541 00a8 1A77     		strb	r2, [r3, #28]
 542              		.loc 1 347 0 discriminator 1
 543 00aa 0B99     		ldr	r1, [sp, #44]
 544 00ac 0AAA     		add	r2, sp, #40
 545 00ae 0DF12603 		add	r3, sp, #38
 546 00b2 0846     		mov	r0, r1
 547 00b4 1146     		mov	r1, r2
 548 00b6 1A46     		mov	r2, r3
 549 00b8 4FF00003 		mov	r3, #0
 550 00bc FFF7FEFF 		bl	netconn_getaddr
 551 00c0 0346     		mov	r3, r0
 552 00c2 8DF83B30 		strb	r3, [sp, #59]
 553              		.loc 1 348 0 discriminator 1
 554 00c6 9DF93B30 		ldrsb	r3, [sp, #59]
 555 00ca 002B     		cmp	r3, #0
 556 00cc 1BD0     		beq	.L31
 557              		.loc 1 350 0
 558 00ce 0B9B     		ldr	r3, [sp, #44]
 559 00d0 1846     		mov	r0, r3
 560 00d2 FFF7FEFF 		bl	netconn_delete
 561              		.loc 1 351 0
ARM GAS  /tmp/cc2wa78n.s 			page 11


 562 00d6 9DF93B30 		ldrsb	r3, [sp, #59]
 563 00da C3F10003 		rsb	r3, r3, #0
 564 00de 0F2B     		cmp	r3, #15
 565 00e0 0AD8     		bhi	.L32
 566              		.loc 1 351 0 is_stmt 0 discriminator 1
 567 00e2 9DF93B30 		ldrsb	r3, [sp, #59]
 568 00e6 C3F10002 		rsb	r2, r3, #0
 569 00ea 40F20003 		movw	r3, #:lower16:err_to_errno_table
 570 00ee C0F20003 		movt	r3, #:upper16:err_to_errno_table
 571 00f2 53F82230 		ldr	r3, [r3, r2, lsl #2]
 572 00f6 01E0     		b	.L33
 573              	.L32:
 574              		.loc 1 351 0 discriminator 2
 575 00f8 4FF00503 		mov	r3, #5
 576              	.L33:
 577              		.loc 1 351 0 discriminator 3
 578 00fc 0F9A     		ldr	r2, [sp, #60]
 579 00fe 1361     		str	r3, [r2, #16]
 580              		.loc 1 352 0 is_stmt 1 discriminator 3
 581 0100 4FF0FF33 		mov	r3, #-1
 582 0104 8CE0     		b	.L25
 583              	.L31:
 584              		.loc 1 358 0
 585 0106 029B     		ldr	r3, [sp, #8]
 586 0108 002B     		cmp	r3, #0
 587 010a 3CD0     		beq	.L34
 588              		.loc 1 359 0
 589 010c 019B     		ldr	r3, [sp, #4]
 590 010e 002B     		cmp	r3, #0
 591 0110 01D1     		bne	.L35
 592              		.loc 1 359 0 is_stmt 0 discriminator 1
 593 0112 FFF7FEFF 		bl	port_halt
 594              	.L35:
 595              		.loc 1 360 0 is_stmt 1
 596 0116 05AB     		add	r3, sp, #20
 597 0118 4FF00002 		mov	r2, #0
 598 011c 1A60     		str	r2, [r3, #0]
 599 011e 03F10403 		add	r3, r3, #4
 600 0122 4FF00002 		mov	r2, #0
 601 0126 1A60     		str	r2, [r3, #0]
 602 0128 03F10403 		add	r3, r3, #4
 603 012c 4FF00002 		mov	r2, #0
 604 0130 1A60     		str	r2, [r3, #0]
 605 0132 03F10403 		add	r3, r3, #4
 606 0136 4FF00002 		mov	r2, #0
 607 013a 1A60     		str	r2, [r3, #0]
 608 013c 03F10403 		add	r3, r3, #4
 609              		.loc 1 361 0
 610 0140 4FF01003 		mov	r3, #16
 611 0144 8DF81430 		strb	r3, [sp, #20]
 612              		.loc 1 362 0
 613 0148 4FF00203 		mov	r3, #2
 614 014c 8DF81530 		strb	r3, [sp, #21]
 615              		.loc 1 363 0
 616 0150 BDF82630 		ldrh	r3, [sp, #38]
 617 0154 1846     		mov	r0, r3
 618 0156 FFF7FEFF 		bl	lwip_htons
ARM GAS  /tmp/cc2wa78n.s 			page 12


 619 015a 0346     		mov	r3, r0
 620 015c ADF81630 		strh	r3, [sp, #22]	@ movhi
 621              		.loc 1 364 0
 622 0160 0A9B     		ldr	r3, [sp, #40]
 623 0162 0693     		str	r3, [sp, #24]
 624              		.loc 1 366 0
 625 0164 019B     		ldr	r3, [sp, #4]
 626 0166 1B68     		ldr	r3, [r3, #0]
 627 0168 102B     		cmp	r3, #16
 628 016a 03D9     		bls	.L36
 629              		.loc 1 367 0
 630 016c 019B     		ldr	r3, [sp, #4]
 631 016e 4FF01002 		mov	r2, #16
 632 0172 1A60     		str	r2, [r3, #0]
 633              	.L36:
 634              		.loc 1 369 0
 635 0174 019B     		ldr	r3, [sp, #4]
 636 0176 1B68     		ldr	r3, [r3, #0]
 637 0178 0299     		ldr	r1, [sp, #8]
 638 017a 05AA     		add	r2, sp, #20
 639 017c 0846     		mov	r0, r1
 640 017e 1146     		mov	r1, r2
 641 0180 1A46     		mov	r2, r3
 642 0182 FFF7FEFF 		bl	memcpy
 643              	.L34:
 644              		.loc 1 372 0
 645 0186 0B9B     		ldr	r3, [sp, #44]
 646 0188 1846     		mov	r0, r3
 647 018a 4FF00101 		mov	r1, #1
 648 018e FFF7FEFF 		bl	alloc_socket
 649 0192 0346     		mov	r3, r0
 650 0194 0D93     		str	r3, [sp, #52]
 651              		.loc 1 373 0
 652 0196 0D9B     		ldr	r3, [sp, #52]
 653 0198 B3F1FF3F 		cmp	r3, #-1
 654 019c 0AD1     		bne	.L37
 655              		.loc 1 374 0
 656 019e 0B9B     		ldr	r3, [sp, #44]
 657 01a0 1846     		mov	r0, r3
 658 01a2 FFF7FEFF 		bl	netconn_delete
 659              		.loc 1 375 0
 660 01a6 0F9B     		ldr	r3, [sp, #60]
 661 01a8 4FF01702 		mov	r2, #23
 662 01ac 1A61     		str	r2, [r3, #16]
 663              		.loc 1 376 0
 664 01ae 4FF0FF33 		mov	r3, #-1
 665 01b2 35E0     		b	.L25
 666              	.L37:
 667              		.loc 1 378 0
 668 01b4 0D9B     		ldr	r3, [sp, #52]
 669 01b6 002B     		cmp	r3, #0
 670 01b8 02DB     		blt	.L38
 671              		.loc 1 378 0 is_stmt 0 discriminator 2
 672 01ba 0D9B     		ldr	r3, [sp, #52]
 673 01bc 032B     		cmp	r3, #3
 674 01be 01DD     		ble	.L39
 675              	.L38:
ARM GAS  /tmp/cc2wa78n.s 			page 13


 676              		.loc 1 378 0 discriminator 1
 677 01c0 FFF7FEFF 		bl	port_halt
 678              	.L39:
 679              		.loc 1 379 0 is_stmt 1
 680 01c4 0B9B     		ldr	r3, [sp, #44]
 681 01c6 9A6A     		ldr	r2, [r3, #40]
 682 01c8 40F20003 		movw	r3, #:lower16:event_callback
 683 01cc C0F20003 		movt	r3, #:upper16:event_callback
 684 01d0 9A42     		cmp	r2, r3
 685 01d2 01D0     		beq	.L40
 686              		.loc 1 379 0 is_stmt 0 discriminator 1
 687 01d4 FFF7FEFF 		bl	port_halt
 688              	.L40:
 689              		.loc 1 380 0 is_stmt 1
 690 01d8 0D9A     		ldr	r2, [sp, #52]
 691 01da 1346     		mov	r3, r2
 692 01dc 4FEA4303 		lsl	r3, r3, #1
 693 01e0 9B18     		adds	r3, r3, r2
 694 01e2 4FEAC303 		lsl	r3, r3, #3
 695 01e6 1A46     		mov	r2, r3
 696 01e8 40F20003 		movw	r3, #:lower16:sockets
 697 01ec C0F20003 		movt	r3, #:upper16:sockets
 698 01f0 D318     		adds	r3, r2, r3
 699 01f2 0C93     		str	r3, [sp, #48]
 700              		.loc 1 388 0
 701 01f4 0C9B     		ldr	r3, [sp, #48]
 702 01f6 5B89     		ldrh	r3, [r3, #10]
 703 01f8 9AB2     		uxth	r2, r3
 704 01fa 0B9B     		ldr	r3, [sp, #44]
 705 01fc 9B69     		ldr	r3, [r3, #24]
 706 01fe 9BB2     		uxth	r3, r3
 707 0200 6FEA0303 		mvn	r3, r3
 708 0204 9BB2     		uxth	r3, r3
 709 0206 D318     		adds	r3, r2, r3
 710 0208 9BB2     		uxth	r3, r3
 711 020a 9AB2     		uxth	r2, r3
 712 020c 0C9B     		ldr	r3, [sp, #48]
 713 020e 5A81     		strh	r2, [r3, #10]	@ movhi
 714              		.loc 1 389 0
 715 0210 0B9B     		ldr	r3, [sp, #44]
 716 0212 0D9A     		ldr	r2, [sp, #52]
 717 0214 9A61     		str	r2, [r3, #24]
 718              		.loc 1 396 0
 719 0216 0F9B     		ldr	r3, [sp, #60]
 720 0218 4FF00002 		mov	r2, #0
 721 021c 1A61     		str	r2, [r3, #16]
 722              		.loc 1 397 0
 723 021e 0D9B     		ldr	r3, [sp, #52]
 724              	.L25:
 725              		.loc 1 398 0
 726 0220 1846     		mov	r0, r3
 727 0222 11B0     		add	sp, sp, #68
 728 0224 00BD     		pop	{pc}
 729              		.cfi_endproc
 730              	.LFE12:
 731              		.size	lwip_accept, .-lwip_accept
 732 0226 00BFAFF3 		.section	.text.lwip_bind,"ax",%progbits
ARM GAS  /tmp/cc2wa78n.s 			page 14


 732      0080AFF3 
 732      0080
 733              		.align	2
 734              		.p2align 4,,15
 735              		.global	lwip_bind
 736              		.thumb
 737              		.thumb_func
 738              		.type	lwip_bind, %function
 739              	lwip_bind:
 740              	.LFB13:
 741              		.loc 1 402 0
 742              		.cfi_startproc
 743              		@ args = 0, pretend = 0, frame = 32
 744              		@ frame_needed = 0, uses_anonymous_args = 0
 745 0000 10B5     		push	{r4, lr}
 746              	.LCFI7:
 747              		.cfi_def_cfa_offset 8
 748              		.cfi_offset 14, -4
 749              		.cfi_offset 4, -8
 750 0002 88B0     		sub	sp, sp, #32
 751              	.LCFI8:
 752              		.cfi_def_cfa_offset 40
 753 0004 0390     		str	r0, [sp, #12]
 754 0006 0291     		str	r1, [sp, #8]
 755 0008 0192     		str	r2, [sp, #4]
 756              		.loc 1 409 0
 757 000a 0398     		ldr	r0, [sp, #12]
 758 000c FFF7FEFF 		bl	get_socket
 759 0010 0346     		mov	r3, r0
 760 0012 0793     		str	r3, [sp, #28]
 761              		.loc 1 410 0
 762 0014 079B     		ldr	r3, [sp, #28]
 763 0016 002B     		cmp	r3, #0
 764 0018 02D1     		bne	.L42
 765              		.loc 1 411 0
 766 001a 4FF0FF33 		mov	r3, #-1
 767 001e 53E0     		b	.L43
 768              	.L42:
 769              		.loc 1 415 0
 770 0020 019B     		ldr	r3, [sp, #4]
 771 0022 102B     		cmp	r3, #16
 772 0024 08D1     		bne	.L44
 773              		.loc 1 415 0 is_stmt 0 discriminator 2
 774 0026 029B     		ldr	r3, [sp, #8]
 775 0028 5B78     		ldrb	r3, [r3, #1]	@ zero_extendqisi2
 776 002a 022B     		cmp	r3, #2
 777 002c 04D1     		bne	.L44
 778              		.loc 1 415 0 discriminator 3
 779 002e 029B     		ldr	r3, [sp, #8]
 780 0030 03F00303 		and	r3, r3, #3
 781 0034 002B     		cmp	r3, #0
 782 0036 0BD0     		beq	.L45
 783              	.L44:
 784              		.loc 1 415 0 discriminator 1
 785 0038 FFF7FEFF 		bl	port_halt
 786 003c 40F20003 		movw	r3, #:lower16:err_to_errno_table
 787 0040 C0F20003 		movt	r3, #:upper16:err_to_errno_table
ARM GAS  /tmp/cc2wa78n.s 			page 15


 788 0044 9A6B     		ldr	r2, [r3, #56]
 789 0046 079B     		ldr	r3, [sp, #28]
 790 0048 1A61     		str	r2, [r3, #16]
 791 004a 4FF0FF33 		mov	r3, #-1
 792 004e 3BE0     		b	.L43
 793              	.L45:
 794              		.loc 1 418 0 is_stmt 1
 795 0050 029B     		ldr	r3, [sp, #8]
 796 0052 0693     		str	r3, [sp, #24]
 797              		.loc 1 420 0
 798 0054 069B     		ldr	r3, [sp, #24]
 799 0056 5B68     		ldr	r3, [r3, #4]
 800 0058 0493     		str	r3, [sp, #16]
 801              		.loc 1 421 0
 802 005a 069B     		ldr	r3, [sp, #24]
 803 005c 5B88     		ldrh	r3, [r3, #2]	@ movhi
 804 005e ADF81630 		strh	r3, [sp, #22]	@ movhi
 805              		.loc 1 427 0
 806 0062 079B     		ldr	r3, [sp, #28]
 807 0064 1C68     		ldr	r4, [r3, #0]
 808 0066 BDF81630 		ldrh	r3, [sp, #22]
 809 006a 1846     		mov	r0, r3
 810 006c FFF7FEFF 		bl	lwip_ntohs
 811 0070 0346     		mov	r3, r0
 812 0072 04AA     		add	r2, sp, #16
 813 0074 2046     		mov	r0, r4
 814 0076 1146     		mov	r1, r2
 815 0078 1A46     		mov	r2, r3
 816 007a FFF7FEFF 		bl	netconn_bind
 817 007e 0346     		mov	r3, r0
 818 0080 8DF81530 		strb	r3, [sp, #21]
 819              		.loc 1 429 0
 820 0084 9DF91530 		ldrsb	r3, [sp, #21]
 821 0088 002B     		cmp	r3, #0
 822 008a 17D0     		beq	.L46
 823              		.loc 1 431 0
 824 008c 9DF91530 		ldrsb	r3, [sp, #21]
 825 0090 C3F10003 		rsb	r3, r3, #0
 826 0094 0F2B     		cmp	r3, #15
 827 0096 0AD8     		bhi	.L47
 828              		.loc 1 431 0 is_stmt 0 discriminator 1
 829 0098 9DF91530 		ldrsb	r3, [sp, #21]
 830 009c C3F10002 		rsb	r2, r3, #0
 831 00a0 40F20003 		movw	r3, #:lower16:err_to_errno_table
 832 00a4 C0F20003 		movt	r3, #:upper16:err_to_errno_table
 833 00a8 53F82230 		ldr	r3, [r3, r2, lsl #2]
 834 00ac 01E0     		b	.L48
 835              	.L47:
 836              		.loc 1 431 0 discriminator 2
 837 00ae 4FF00503 		mov	r3, #5
 838              	.L48:
 839              		.loc 1 431 0 discriminator 3
 840 00b2 079A     		ldr	r2, [sp, #28]
 841 00b4 1361     		str	r3, [r2, #16]
 842              		.loc 1 432 0 is_stmt 1 discriminator 3
 843 00b6 4FF0FF33 		mov	r3, #-1
 844 00ba 05E0     		b	.L43
ARM GAS  /tmp/cc2wa78n.s 			page 16


 845              	.L46:
 846              		.loc 1 436 0
 847 00bc 079B     		ldr	r3, [sp, #28]
 848 00be 4FF00002 		mov	r2, #0
 849 00c2 1A61     		str	r2, [r3, #16]
 850              		.loc 1 437 0
 851 00c4 4FF00003 		mov	r3, #0
 852              	.L43:
 853              		.loc 1 438 0
 854 00c8 1846     		mov	r0, r3
 855 00ca 08B0     		add	sp, sp, #32
 856 00cc 10BD     		pop	{r4, pc}
 857              		.cfi_endproc
 858              	.LFE13:
 859              		.size	lwip_bind, .-lwip_bind
 860 00ce 00BF     		.section	.text.lwip_close,"ax",%progbits
 861              		.align	2
 862              		.p2align 4,,15
 863              		.global	lwip_close
 864              		.thumb
 865              		.thumb_func
 866              		.type	lwip_close, %function
 867              	lwip_close:
 868              	.LFB14:
 869              		.loc 1 442 0
 870              		.cfi_startproc
 871              		@ args = 0, pretend = 0, frame = 16
 872              		@ frame_needed = 0, uses_anonymous_args = 0
 873 0000 00B5     		push	{lr}
 874              	.LCFI9:
 875              		.cfi_def_cfa_offset 4
 876              		.cfi_offset 14, -4
 877 0002 85B0     		sub	sp, sp, #20
 878              	.LCFI10:
 879              		.cfi_def_cfa_offset 24
 880 0004 0190     		str	r0, [sp, #4]
 881              		.loc 1 444 0
 882 0006 4FF00003 		mov	r3, #0
 883 000a 0393     		str	r3, [sp, #12]
 884              		.loc 1 448 0
 885 000c 0198     		ldr	r0, [sp, #4]
 886 000e FFF7FEFF 		bl	get_socket
 887 0012 0346     		mov	r3, r0
 888 0014 0293     		str	r3, [sp, #8]
 889              		.loc 1 449 0
 890 0016 029B     		ldr	r3, [sp, #8]
 891 0018 002B     		cmp	r3, #0
 892 001a 02D1     		bne	.L50
 893              		.loc 1 450 0
 894 001c 4FF0FF33 		mov	r3, #-1
 895 0020 1DE0     		b	.L51
 896              	.L50:
 897              		.loc 1 453 0
 898 0022 029B     		ldr	r3, [sp, #8]
 899 0024 1B68     		ldr	r3, [r3, #0]
 900 0026 002B     		cmp	r3, #0
 901 0028 08D0     		beq	.L52
ARM GAS  /tmp/cc2wa78n.s 			page 17


 902              		.loc 1 454 0
 903 002a 029B     		ldr	r3, [sp, #8]
 904 002c 1B68     		ldr	r3, [r3, #0]
 905 002e 1B78     		ldrb	r3, [r3, #0]	@ zero_extendqisi2
 906 0030 102B     		cmp	r3, #16
 907 0032 14BF     		ite	ne
 908 0034 0023     		movne	r3, #0
 909 0036 0123     		moveq	r3, #1
 910 0038 0393     		str	r3, [sp, #12]
 911 003a 05E0     		b	.L53
 912              	.L52:
 913              		.loc 1 456 0
 914 003c 029B     		ldr	r3, [sp, #8]
 915 003e 5B68     		ldr	r3, [r3, #4]
 916 0040 002B     		cmp	r3, #0
 917 0042 01D0     		beq	.L53
 918              		.loc 1 456 0 is_stmt 0 discriminator 1
 919 0044 FFF7FEFF 		bl	port_halt
 920              	.L53:
 921              		.loc 1 459 0 is_stmt 1
 922 0048 029B     		ldr	r3, [sp, #8]
 923 004a 1B68     		ldr	r3, [r3, #0]
 924 004c 1846     		mov	r0, r3
 925 004e FFF7FEFF 		bl	netconn_delete
 926              		.loc 1 461 0
 927 0052 0298     		ldr	r0, [sp, #8]
 928 0054 0399     		ldr	r1, [sp, #12]
 929 0056 FFF7FEFF 		bl	free_socket
 930              		.loc 1 463 0
 931 005a 4FF00003 		mov	r3, #0
 932              	.L51:
 933              		.loc 1 464 0
 934 005e 1846     		mov	r0, r3
 935 0060 05B0     		add	sp, sp, #20
 936 0062 00BD     		pop	{pc}
 937              		.cfi_endproc
 938              	.LFE14:
 939              		.size	lwip_close, .-lwip_close
 940 0064 AFF30080 		.section	.text.lwip_connect,"ax",%progbits
 940      AFF30080 
 940      AFF30080 
 941              		.align	2
 942              		.p2align 4,,15
 943              		.global	lwip_connect
 944              		.thumb
 945              		.thumb_func
 946              		.type	lwip_connect, %function
 947              	lwip_connect:
 948              	.LFB15:
 949              		.loc 1 468 0
 950              		.cfi_startproc
 951              		@ args = 0, pretend = 0, frame = 40
 952              		@ frame_needed = 0, uses_anonymous_args = 0
 953 0000 10B5     		push	{r4, lr}
 954              	.LCFI11:
 955              		.cfi_def_cfa_offset 8
 956              		.cfi_offset 14, -4
ARM GAS  /tmp/cc2wa78n.s 			page 18


 957              		.cfi_offset 4, -8
 958 0002 8AB0     		sub	sp, sp, #40
 959              	.LCFI12:
 960              		.cfi_def_cfa_offset 48
 961 0004 0390     		str	r0, [sp, #12]
 962 0006 0291     		str	r1, [sp, #8]
 963 0008 0192     		str	r2, [sp, #4]
 964              		.loc 1 473 0
 965 000a 0398     		ldr	r0, [sp, #12]
 966 000c FFF7FEFF 		bl	get_socket
 967 0010 0346     		mov	r3, r0
 968 0012 0893     		str	r3, [sp, #32]
 969              		.loc 1 474 0
 970 0014 089B     		ldr	r3, [sp, #32]
 971 0016 002B     		cmp	r3, #0
 972 0018 02D1     		bne	.L55
 973              		.loc 1 475 0
 974 001a 4FF0FF33 		mov	r3, #-1
 975 001e 60E0     		b	.L56
 976              	.L55:
 977              		.loc 1 479 0
 978 0020 019B     		ldr	r3, [sp, #4]
 979 0022 102B     		cmp	r3, #16
 980 0024 08D1     		bne	.L57
 981              		.loc 1 479 0 is_stmt 0 discriminator 2
 982 0026 029B     		ldr	r3, [sp, #8]
 983 0028 5B78     		ldrb	r3, [r3, #1]	@ zero_extendqisi2
 984 002a 022B     		cmp	r3, #2
 985 002c 04D1     		bne	.L57
 986              		.loc 1 479 0 discriminator 3
 987 002e 029B     		ldr	r3, [sp, #8]
 988 0030 03F00303 		and	r3, r3, #3
 989 0034 002B     		cmp	r3, #0
 990 0036 0BD0     		beq	.L58
 991              	.L57:
 992              		.loc 1 479 0 discriminator 1
 993 0038 FFF7FEFF 		bl	port_halt
 994 003c 40F20003 		movw	r3, #:lower16:err_to_errno_table
 995 0040 C0F20003 		movt	r3, #:upper16:err_to_errno_table
 996 0044 9A6B     		ldr	r2, [r3, #56]
 997 0046 089B     		ldr	r3, [sp, #32]
 998 0048 1A61     		str	r2, [r3, #16]
 999 004a 4FF0FF33 		mov	r3, #-1
 1000 004e 48E0     		b	.L56
 1001              	.L58:
 1002              		.loc 1 482 0 is_stmt 1
 1003 0050 029B     		ldr	r3, [sp, #8]
 1004 0052 0793     		str	r3, [sp, #28]
 1005              		.loc 1 484 0
 1006 0054 079B     		ldr	r3, [sp, #28]
 1007 0056 5B78     		ldrb	r3, [r3, #1]	@ zero_extendqisi2
 1008 0058 002B     		cmp	r3, #0
 1009 005a 08D1     		bne	.L59
 1010              		.loc 1 486 0
 1011 005c 089B     		ldr	r3, [sp, #32]
 1012 005e 1B68     		ldr	r3, [r3, #0]
 1013 0060 1846     		mov	r0, r3
ARM GAS  /tmp/cc2wa78n.s 			page 19


 1014 0062 FFF7FEFF 		bl	netconn_disconnect
 1015 0066 0346     		mov	r3, r0
 1016 0068 8DF82730 		strb	r3, [sp, #39]
 1017 006c 17E0     		b	.L60
 1018              	.L59:
 1019              	.LBB2:
 1020              		.loc 1 491 0
 1021 006e 079B     		ldr	r3, [sp, #28]
 1022 0070 5B68     		ldr	r3, [r3, #4]
 1023 0072 0593     		str	r3, [sp, #20]
 1024              		.loc 1 492 0
 1025 0074 079B     		ldr	r3, [sp, #28]
 1026 0076 5B88     		ldrh	r3, [r3, #2]	@ movhi
 1027 0078 ADF81A30 		strh	r3, [sp, #26]	@ movhi
 1028              		.loc 1 498 0
 1029 007c 089B     		ldr	r3, [sp, #32]
 1030 007e 1C68     		ldr	r4, [r3, #0]
 1031 0080 BDF81A30 		ldrh	r3, [sp, #26]
 1032 0084 1846     		mov	r0, r3
 1033 0086 FFF7FEFF 		bl	lwip_ntohs
 1034 008a 0346     		mov	r3, r0
 1035 008c 05AA     		add	r2, sp, #20
 1036 008e 2046     		mov	r0, r4
 1037 0090 1146     		mov	r1, r2
 1038 0092 1A46     		mov	r2, r3
 1039 0094 FFF7FEFF 		bl	netconn_connect
 1040 0098 0346     		mov	r3, r0
 1041 009a 8DF82730 		strb	r3, [sp, #39]
 1042              	.L60:
 1043              	.LBE2:
 1044              		.loc 1 501 0
 1045 009e 9DF92730 		ldrsb	r3, [sp, #39]
 1046 00a2 002B     		cmp	r3, #0
 1047 00a4 17D0     		beq	.L61
 1048              		.loc 1 503 0
 1049 00a6 9DF92730 		ldrsb	r3, [sp, #39]
 1050 00aa C3F10003 		rsb	r3, r3, #0
 1051 00ae 0F2B     		cmp	r3, #15
 1052 00b0 0AD8     		bhi	.L62
 1053              		.loc 1 503 0 is_stmt 0 discriminator 1
 1054 00b2 9DF92730 		ldrsb	r3, [sp, #39]
 1055 00b6 C3F10002 		rsb	r2, r3, #0
 1056 00ba 40F20003 		movw	r3, #:lower16:err_to_errno_table
 1057 00be C0F20003 		movt	r3, #:upper16:err_to_errno_table
 1058 00c2 53F82230 		ldr	r3, [r3, r2, lsl #2]
 1059 00c6 01E0     		b	.L63
 1060              	.L62:
 1061              		.loc 1 503 0 discriminator 2
 1062 00c8 4FF00503 		mov	r3, #5
 1063              	.L63:
 1064              		.loc 1 503 0 discriminator 3
 1065 00cc 089A     		ldr	r2, [sp, #32]
 1066 00ce 1361     		str	r3, [r2, #16]
 1067              		.loc 1 504 0 is_stmt 1 discriminator 3
 1068 00d0 4FF0FF33 		mov	r3, #-1
 1069 00d4 05E0     		b	.L56
 1070              	.L61:
ARM GAS  /tmp/cc2wa78n.s 			page 20


 1071              		.loc 1 508 0
 1072 00d6 089B     		ldr	r3, [sp, #32]
 1073 00d8 4FF00002 		mov	r2, #0
 1074 00dc 1A61     		str	r2, [r3, #16]
 1075              		.loc 1 509 0
 1076 00de 4FF00003 		mov	r3, #0
 1077              	.L56:
 1078              		.loc 1 510 0
 1079 00e2 1846     		mov	r0, r3
 1080 00e4 0AB0     		add	sp, sp, #40
 1081 00e6 10BD     		pop	{r4, pc}
 1082              		.cfi_endproc
 1083              	.LFE15:
 1084              		.size	lwip_connect, .-lwip_connect
 1085 00e8 AFF30080 		.section	.text.lwip_listen,"ax",%progbits
 1085      AFF30080 
 1086              		.align	2
 1087              		.p2align 4,,15
 1088              		.global	lwip_listen
 1089              		.thumb
 1090              		.thumb_func
 1091              		.type	lwip_listen, %function
 1092              	lwip_listen:
 1093              	.LFB16:
 1094              		.loc 1 522 0
 1095              		.cfi_startproc
 1096              		@ args = 0, pretend = 0, frame = 16
 1097              		@ frame_needed = 0, uses_anonymous_args = 0
 1098 0000 00B5     		push	{lr}
 1099              	.LCFI13:
 1100              		.cfi_def_cfa_offset 4
 1101              		.cfi_offset 14, -4
 1102 0002 85B0     		sub	sp, sp, #20
 1103              	.LCFI14:
 1104              		.cfi_def_cfa_offset 24
 1105 0004 0190     		str	r0, [sp, #4]
 1106 0006 0091     		str	r1, [sp, #0]
 1107              		.loc 1 528 0
 1108 0008 0198     		ldr	r0, [sp, #4]
 1109 000a FFF7FEFF 		bl	get_socket
 1110 000e 0346     		mov	r3, r0
 1111 0010 0393     		str	r3, [sp, #12]
 1112              		.loc 1 529 0
 1113 0012 039B     		ldr	r3, [sp, #12]
 1114 0014 002B     		cmp	r3, #0
 1115 0016 02D1     		bne	.L65
 1116              		.loc 1 530 0
 1117 0018 4FF0FF33 		mov	r3, #-1
 1118 001c 36E0     		b	.L66
 1119              	.L65:
 1120              		.loc 1 534 0
 1121 001e 009B     		ldr	r3, [sp, #0]
 1122 0020 FE2B     		cmp	r3, #254
 1123 0022 03DC     		bgt	.L67
 1124              		.loc 1 534 0 is_stmt 0 discriminator 1
 1125 0024 009B     		ldr	r3, [sp, #0]
 1126 0026 23EAE373 		bic	r3, r3, r3, asr #31
ARM GAS  /tmp/cc2wa78n.s 			page 21


 1127 002a 01E0     		b	.L68
 1128              	.L67:
 1129              		.loc 1 534 0 discriminator 2
 1130 002c 4FF0FF03 		mov	r3, #255
 1131              	.L68:
 1132              		.loc 1 534 0 discriminator 3
 1133 0030 0093     		str	r3, [sp, #0]
 1134              		.loc 1 536 0 is_stmt 1 discriminator 3
 1135 0032 039B     		ldr	r3, [sp, #12]
 1136 0034 1A68     		ldr	r2, [r3, #0]
 1137 0036 009B     		ldr	r3, [sp, #0]
 1138 0038 DBB2     		uxtb	r3, r3
 1139 003a 1046     		mov	r0, r2
 1140 003c 1946     		mov	r1, r3
 1141 003e FFF7FEFF 		bl	netconn_listen_with_backlog
 1142 0042 0346     		mov	r3, r0
 1143 0044 8DF80B30 		strb	r3, [sp, #11]
 1144              		.loc 1 538 0 discriminator 3
 1145 0048 9DF90B30 		ldrsb	r3, [sp, #11]
 1146 004c 002B     		cmp	r3, #0
 1147 004e 17D0     		beq	.L69
 1148              		.loc 1 540 0
 1149 0050 9DF90B30 		ldrsb	r3, [sp, #11]
 1150 0054 C3F10003 		rsb	r3, r3, #0
 1151 0058 0F2B     		cmp	r3, #15
 1152 005a 0AD8     		bhi	.L70
 1153              		.loc 1 540 0 is_stmt 0 discriminator 1
 1154 005c 9DF90B30 		ldrsb	r3, [sp, #11]
 1155 0060 C3F10002 		rsb	r2, r3, #0
 1156 0064 40F20003 		movw	r3, #:lower16:err_to_errno_table
 1157 0068 C0F20003 		movt	r3, #:upper16:err_to_errno_table
 1158 006c 53F82230 		ldr	r3, [r3, r2, lsl #2]
 1159 0070 01E0     		b	.L71
 1160              	.L70:
 1161              		.loc 1 540 0 discriminator 2
 1162 0072 4FF00503 		mov	r3, #5
 1163              	.L71:
 1164              		.loc 1 540 0 discriminator 3
 1165 0076 039A     		ldr	r2, [sp, #12]
 1166 0078 1361     		str	r3, [r2, #16]
 1167              		.loc 1 541 0 is_stmt 1 discriminator 3
 1168 007a 4FF0FF33 		mov	r3, #-1
 1169 007e 05E0     		b	.L66
 1170              	.L69:
 1171              		.loc 1 544 0
 1172 0080 039B     		ldr	r3, [sp, #12]
 1173 0082 4FF00002 		mov	r2, #0
 1174 0086 1A61     		str	r2, [r3, #16]
 1175              		.loc 1 545 0
 1176 0088 4FF00003 		mov	r3, #0
 1177              	.L66:
 1178              		.loc 1 546 0
 1179 008c 1846     		mov	r0, r3
 1180 008e 05B0     		add	sp, sp, #20
 1181 0090 00BD     		pop	{pc}
 1182              		.cfi_endproc
 1183              	.LFE16:
ARM GAS  /tmp/cc2wa78n.s 			page 22


 1184              		.size	lwip_listen, .-lwip_listen
 1185 0092 00BFAFF3 		.section	.text.lwip_recvfrom,"ax",%progbits
 1185      0080AFF3 
 1185      0080AFF3 
 1185      0080
 1186              		.align	2
 1187              		.p2align 4,,15
 1188              		.global	lwip_recvfrom
 1189              		.thumb
 1190              		.thumb_func
 1191              		.type	lwip_recvfrom, %function
 1192              	lwip_recvfrom:
 1193              	.LFB17:
 1194              		.loc 1 551 0
 1195              		.cfi_startproc
 1196              		@ args = 8, pretend = 0, frame = 72
 1197              		@ frame_needed = 0, uses_anonymous_args = 0
 1198 0000 00B5     		push	{lr}
 1199              	.LCFI15:
 1200              		.cfi_def_cfa_offset 4
 1201              		.cfi_offset 14, -4
 1202 0002 93B0     		sub	sp, sp, #76
 1203              	.LCFI16:
 1204              		.cfi_def_cfa_offset 80
 1205 0004 0390     		str	r0, [sp, #12]
 1206 0006 0291     		str	r1, [sp, #8]
 1207 0008 0192     		str	r2, [sp, #4]
 1208 000a 0093     		str	r3, [sp, #0]
 1209              		.loc 1 553 0
 1210 000c 4FF00003 		mov	r3, #0
 1211 0010 0A93     		str	r3, [sp, #40]
 1212              		.loc 1 556 0
 1213 0012 4FF00003 		mov	r3, #0
 1214 0016 0F93     		str	r3, [sp, #60]
 1215              		.loc 1 559 0
 1216 0018 4FF00003 		mov	r3, #0
 1217 001c 8DF83730 		strb	r3, [sp, #55]
 1218              		.loc 1 563 0
 1219 0020 0398     		ldr	r0, [sp, #12]
 1220 0022 FFF7FEFF 		bl	get_socket
 1221 0026 0346     		mov	r3, r0
 1222 0028 0C93     		str	r3, [sp, #48]
 1223              		.loc 1 564 0
 1224 002a 0C9B     		ldr	r3, [sp, #48]
 1225 002c 002B     		cmp	r3, #0
 1226 002e 02D1     		bne	.L73
 1227              		.loc 1 565 0
 1228 0030 4FF0FF33 		mov	r3, #-1
 1229 0034 8BE1     		b	.L74
 1230              	.L73:
 1231              		.loc 1 571 0
 1232 0036 0C9B     		ldr	r3, [sp, #48]
 1233 0038 5B68     		ldr	r3, [r3, #4]
 1234 003a 002B     		cmp	r3, #0
 1235 003c 03D0     		beq	.L75
 1236              		.loc 1 572 0
 1237 003e 0C9B     		ldr	r3, [sp, #48]
ARM GAS  /tmp/cc2wa78n.s 			page 23


 1238 0040 5B68     		ldr	r3, [r3, #4]
 1239 0042 0A93     		str	r3, [sp, #40]
 1240 0044 7DE0     		b	.L76
 1241              	.L75:
 1242              		.loc 1 575 0
 1243 0046 009B     		ldr	r3, [sp, #0]
 1244 0048 03F00803 		and	r3, r3, #8
 1245 004c 002B     		cmp	r3, #0
 1246 004e 06D1     		bne	.L77
 1247              		.loc 1 575 0 is_stmt 0 discriminator 2
 1248 0050 0C9B     		ldr	r3, [sp, #48]
 1249 0052 1B68     		ldr	r3, [r3, #0]
 1250 0054 1B7F     		ldrb	r3, [r3, #28]	@ zero_extendqisi2
 1251 0056 03F00203 		and	r3, r3, #2
 1252 005a 002B     		cmp	r3, #0
 1253 005c 1BD0     		beq	.L78
 1254              	.L77:
 1255              		.loc 1 576 0 is_stmt 1 discriminator 1
 1256 005e 0C9B     		ldr	r3, [sp, #48]
 1257 0060 5B89     		ldrh	r3, [r3, #10]
 1258              		.loc 1 575 0 discriminator 1
 1259 0062 1BB2     		sxth	r3, r3
 1260 0064 002B     		cmp	r3, #0
 1261 0066 16DC     		bgt	.L78
 1262              		.loc 1 577 0
 1263 0068 0F9B     		ldr	r3, [sp, #60]
 1264 006a 002B     		cmp	r3, #0
 1265 006c 0CDD     		ble	.L79
 1266              		.loc 1 579 0
 1267 006e 0C9B     		ldr	r3, [sp, #48]
 1268 0070 1A68     		ldr	r2, [r3, #0]
 1269 0072 0F9B     		ldr	r3, [sp, #60]
 1270 0074 1046     		mov	r0, r2
 1271 0076 1946     		mov	r1, r3
 1272 0078 FFF7FEFF 		bl	netconn_recved
 1273              		.loc 1 581 0
 1274 007c 0C9B     		ldr	r3, [sp, #48]
 1275 007e 4FF00002 		mov	r2, #0
 1276 0082 1A61     		str	r2, [r3, #16]
 1277              		.loc 1 582 0
 1278 0084 0F9B     		ldr	r3, [sp, #60]
 1279 0086 62E1     		b	.L74
 1280              	.L79:
 1281              		.loc 1 585 0
 1282 0088 0C9B     		ldr	r3, [sp, #48]
 1283 008a 4FF00B02 		mov	r2, #11
 1284 008e 1A61     		str	r2, [r3, #16]
 1285              		.loc 1 586 0
 1286 0090 4FF0FF33 		mov	r3, #-1
 1287 0094 5BE1     		b	.L74
 1288              	.L78:
 1289              		.loc 1 591 0
 1290 0096 0C9B     		ldr	r3, [sp, #48]
 1291 0098 1B68     		ldr	r3, [r3, #0]
 1292 009a 1B78     		ldrb	r3, [r3, #0]	@ zero_extendqisi2
 1293 009c 102B     		cmp	r3, #16
 1294 009e 0AD1     		bne	.L80
ARM GAS  /tmp/cc2wa78n.s 			page 24


 1295              		.loc 1 592 0
 1296 00a0 0C9B     		ldr	r3, [sp, #48]
 1297 00a2 1A68     		ldr	r2, [r3, #0]
 1298 00a4 0AAB     		add	r3, sp, #40
 1299 00a6 1046     		mov	r0, r2
 1300 00a8 1946     		mov	r1, r3
 1301 00aa FFF7FEFF 		bl	netconn_recv_tcp_pbuf
 1302 00ae 0346     		mov	r3, r0
 1303 00b0 8DF83630 		strb	r3, [sp, #54]
 1304 00b4 09E0     		b	.L81
 1305              	.L80:
 1306              		.loc 1 594 0
 1307 00b6 0C9B     		ldr	r3, [sp, #48]
 1308 00b8 1A68     		ldr	r2, [r3, #0]
 1309 00ba 0AAB     		add	r3, sp, #40
 1310 00bc 1046     		mov	r0, r2
 1311 00be 1946     		mov	r1, r3
 1312 00c0 FFF7FEFF 		bl	netconn_recv
 1313 00c4 0346     		mov	r3, r0
 1314 00c6 8DF83630 		strb	r3, [sp, #54]
 1315              	.L81:
 1316              		.loc 1 599 0
 1317 00ca 9DF93630 		ldrsb	r3, [sp, #54]
 1318 00ce 002B     		cmp	r3, #0
 1319 00d0 2FD0     		beq	.L82
 1320              		.loc 1 600 0
 1321 00d2 0F9B     		ldr	r3, [sp, #60]
 1322 00d4 002B     		cmp	r3, #0
 1323 00d6 0CDD     		ble	.L83
 1324              		.loc 1 602 0
 1325 00d8 0C9B     		ldr	r3, [sp, #48]
 1326 00da 1A68     		ldr	r2, [r3, #0]
 1327 00dc 0F9B     		ldr	r3, [sp, #60]
 1328 00de 1046     		mov	r0, r2
 1329 00e0 1946     		mov	r1, r3
 1330 00e2 FFF7FEFF 		bl	netconn_recved
 1331              		.loc 1 604 0
 1332 00e6 0C9B     		ldr	r3, [sp, #48]
 1333 00e8 4FF00002 		mov	r2, #0
 1334 00ec 1A61     		str	r2, [r3, #16]
 1335              		.loc 1 605 0
 1336 00ee 0F9B     		ldr	r3, [sp, #60]
 1337 00f0 2DE1     		b	.L74
 1338              	.L83:
 1339              		.loc 1 610 0
 1340 00f2 9DF93630 		ldrsb	r3, [sp, #54]
 1341 00f6 C3F10003 		rsb	r3, r3, #0
 1342 00fa 0F2B     		cmp	r3, #15
 1343 00fc 0AD8     		bhi	.L84
 1344              		.loc 1 610 0 is_stmt 0 discriminator 1
 1345 00fe 9DF93630 		ldrsb	r3, [sp, #54]
 1346 0102 C3F10002 		rsb	r2, r3, #0
 1347 0106 40F20003 		movw	r3, #:lower16:err_to_errno_table
 1348 010a C0F20003 		movt	r3, #:upper16:err_to_errno_table
 1349 010e 53F82230 		ldr	r3, [r3, r2, lsl #2]
 1350 0112 01E0     		b	.L85
 1351              	.L84:
ARM GAS  /tmp/cc2wa78n.s 			page 25


 1352              		.loc 1 610 0 discriminator 2
 1353 0114 4FF00503 		mov	r3, #5
 1354              	.L85:
 1355              		.loc 1 610 0 discriminator 3
 1356 0118 0C9A     		ldr	r2, [sp, #48]
 1357 011a 1361     		str	r3, [r2, #16]
 1358              		.loc 1 611 0 is_stmt 1 discriminator 3
 1359 011c 9DF93630 		ldrsb	r3, [sp, #54]
 1360 0120 13F10C0F 		cmn	r3, #12
 1361 0124 02D1     		bne	.L86
 1362              		.loc 1 612 0
 1363 0126 4FF00003 		mov	r3, #0
 1364 012a 10E1     		b	.L74
 1365              	.L86:
 1366              		.loc 1 614 0
 1367 012c 4FF0FF33 		mov	r3, #-1
 1368 0130 0DE1     		b	.L74
 1369              	.L82:
 1370              		.loc 1 617 0
 1371 0132 0A9B     		ldr	r3, [sp, #40]
 1372 0134 002B     		cmp	r3, #0
 1373 0136 01D1     		bne	.L87
 1374              		.loc 1 617 0 is_stmt 0 discriminator 1
 1375 0138 FFF7FEFF 		bl	port_halt
 1376              	.L87:
 1377              		.loc 1 618 0 is_stmt 1
 1378 013c 0A9A     		ldr	r2, [sp, #40]
 1379 013e 0C9B     		ldr	r3, [sp, #48]
 1380 0140 5A60     		str	r2, [r3, #4]
 1381              	.L76:
 1382              		.loc 1 621 0
 1383 0142 0C9B     		ldr	r3, [sp, #48]
 1384 0144 1B68     		ldr	r3, [r3, #0]
 1385 0146 1B78     		ldrb	r3, [r3, #0]	@ zero_extendqisi2
 1386 0148 102B     		cmp	r3, #16
 1387 014a 02D1     		bne	.L88
 1388              		.loc 1 622 0
 1389 014c 0A9B     		ldr	r3, [sp, #40]
 1390 014e 1193     		str	r3, [sp, #68]
 1391 0150 02E0     		b	.L89
 1392              	.L88:
 1393              		.loc 1 624 0
 1394 0152 0A9B     		ldr	r3, [sp, #40]
 1395 0154 1B68     		ldr	r3, [r3, #0]
 1396 0156 1193     		str	r3, [sp, #68]
 1397              	.L89:
 1398              		.loc 1 626 0
 1399 0158 119B     		ldr	r3, [sp, #68]
 1400 015a 1B89     		ldrh	r3, [r3, #8]	@ movhi
 1401 015c ADF82E30 		strh	r3, [sp, #46]	@ movhi
 1402              		.loc 1 630 0
 1403 0160 0C9B     		ldr	r3, [sp, #48]
 1404 0162 1B89     		ldrh	r3, [r3, #8]
 1405 0164 BDF82E20 		ldrh	r2, [sp, #46]	@ movhi
 1406 0168 D31A     		subs	r3, r2, r3
 1407 016a ADF82E30 		strh	r3, [sp, #46]	@ movhi
 1408              		.loc 1 632 0
ARM GAS  /tmp/cc2wa78n.s 			page 26


 1409 016e BDF82E20 		ldrh	r2, [sp, #46]
 1410 0172 019B     		ldr	r3, [sp, #4]
 1411 0174 9A42     		cmp	r2, r3
 1412 0176 04D2     		bcs	.L90
 1413              		.loc 1 633 0
 1414 0178 BDF82E30 		ldrh	r3, [sp, #46]	@ movhi
 1415 017c ADF84230 		strh	r3, [sp, #66]	@ movhi
 1416 0180 02E0     		b	.L91
 1417              	.L90:
 1418              		.loc 1 635 0
 1419 0182 019B     		ldr	r3, [sp, #4]
 1420 0184 ADF84230 		strh	r3, [sp, #66]	@ movhi
 1421              	.L91:
 1422              		.loc 1 640 0
 1423 0188 0F9B     		ldr	r3, [sp, #60]
 1424 018a 029A     		ldr	r2, [sp, #8]
 1425 018c D118     		adds	r1, r2, r3
 1426 018e 0C9B     		ldr	r3, [sp, #48]
 1427 0190 1B89     		ldrh	r3, [r3, #8]
 1428 0192 BDF84220 		ldrh	r2, [sp, #66]
 1429 0196 1198     		ldr	r0, [sp, #68]
 1430 0198 FFF7FEFF 		bl	pbuf_copy_partial
 1431              		.loc 1 642 0
 1432 019c BDF84230 		ldrh	r3, [sp, #66]
 1433 01a0 0F9A     		ldr	r2, [sp, #60]
 1434 01a2 D318     		adds	r3, r2, r3
 1435 01a4 0F93     		str	r3, [sp, #60]
 1436              		.loc 1 644 0
 1437 01a6 0C9B     		ldr	r3, [sp, #48]
 1438 01a8 1B68     		ldr	r3, [r3, #0]
 1439 01aa 1B78     		ldrb	r3, [r3, #0]	@ zero_extendqisi2
 1440 01ac 102B     		cmp	r3, #16
 1441 01ae 25D1     		bne	.L92
 1442              		.loc 1 645 0
 1443 01b0 BDF84220 		ldrh	r2, [sp, #66]
 1444 01b4 019B     		ldr	r3, [sp, #4]
 1445 01b6 9A42     		cmp	r2, r3
 1446 01b8 01D9     		bls	.L93
 1447              		.loc 1 645 0 is_stmt 0 discriminator 1
 1448 01ba FFF7FEFF 		bl	port_halt
 1449              	.L93:
 1450              		.loc 1 646 0 is_stmt 1
 1451 01be BDF84230 		ldrh	r3, [sp, #66]
 1452 01c2 019A     		ldr	r2, [sp, #4]
 1453 01c4 D31A     		subs	r3, r2, r3
 1454 01c6 0193     		str	r3, [sp, #4]
 1455              		.loc 1 647 0
 1456 01c8 019B     		ldr	r3, [sp, #4]
 1457 01ca 002B     		cmp	r3, #0
 1458 01cc 11D0     		beq	.L94
 1459              		.loc 1 648 0 discriminator 1
 1460 01ce 119B     		ldr	r3, [sp, #68]
 1461 01d0 5B7B     		ldrb	r3, [r3, #13]	@ zero_extendqisi2
 1462              		.loc 1 647 0 discriminator 1
 1463 01d2 03F00103 		and	r3, r3, #1
 1464 01d6 DBB2     		uxtb	r3, r3
 1465 01d8 002B     		cmp	r3, #0
ARM GAS  /tmp/cc2wa78n.s 			page 27


 1466 01da 0AD1     		bne	.L94
 1467              		.loc 1 649 0
 1468 01dc 0C9B     		ldr	r3, [sp, #48]
 1469 01de 5B89     		ldrh	r3, [r3, #10]
 1470              		.loc 1 648 0
 1471 01e0 1BB2     		sxth	r3, r3
 1472 01e2 002B     		cmp	r3, #0
 1473 01e4 05DD     		ble	.L94
 1474              		.loc 1 650 0
 1475 01e6 009B     		ldr	r3, [sp, #0]
 1476 01e8 03F00103 		and	r3, r3, #1
 1477 01ec DBB2     		uxtb	r3, r3
 1478              		.loc 1 649 0
 1479 01ee 002B     		cmp	r3, #0
 1480 01f0 08D0     		beq	.L95
 1481              	.L94:
 1482              		.loc 1 651 0
 1483 01f2 4FF00103 		mov	r3, #1
 1484 01f6 8DF83730 		strb	r3, [sp, #55]
 1485 01fa 03E0     		b	.L95
 1486              	.L92:
 1487              		.loc 1 654 0
 1488 01fc 4FF00103 		mov	r3, #1
 1489 0200 8DF83730 		strb	r3, [sp, #55]
 1490              	.L95:
 1491              		.loc 1 658 0
 1492 0204 9DF83730 		ldrb	r3, [sp, #55]	@ zero_extendqisi2
 1493 0208 002B     		cmp	r3, #0
 1494 020a 59D0     		beq	.L96
 1495              	.LBB3:
 1496              		.loc 1 660 0
 1497 020c 149B     		ldr	r3, [sp, #80]
 1498 020e 002B     		cmp	r3, #0
 1499 0210 56D0     		beq	.L96
 1500              		.loc 1 660 0 is_stmt 0 discriminator 1
 1501 0212 159B     		ldr	r3, [sp, #84]
 1502 0214 002B     		cmp	r3, #0
 1503 0216 53D0     		beq	.L96
 1504              	.LBB4:
 1505              		.loc 1 663 0 is_stmt 1
 1506 0218 0C9B     		ldr	r3, [sp, #48]
 1507 021a 1B68     		ldr	r3, [r3, #0]
 1508 021c 1B78     		ldrb	r3, [r3, #0]	@ zero_extendqisi2
 1509 021e 102B     		cmp	r3, #16
 1510 0220 0DD1     		bne	.L97
 1511              		.loc 1 664 0
 1512 0222 08AB     		add	r3, sp, #32
 1513 0224 0E93     		str	r3, [sp, #56]
 1514              		.loc 1 665 0
 1515 0226 0C9B     		ldr	r3, [sp, #48]
 1516 0228 1A68     		ldr	r2, [r3, #0]
 1517 022a 0DF12603 		add	r3, sp, #38
 1518 022e 1046     		mov	r0, r2
 1519 0230 0E99     		ldr	r1, [sp, #56]
 1520 0232 1A46     		mov	r2, r3
 1521 0234 4FF00003 		mov	r3, #0
 1522 0238 FFF7FEFF 		bl	netconn_getaddr
ARM GAS  /tmp/cc2wa78n.s 			page 28


 1523 023c 07E0     		b	.L98
 1524              	.L97:
 1525              		.loc 1 667 0
 1526 023e 0A9B     		ldr	r3, [sp, #40]
 1527 0240 03F10803 		add	r3, r3, #8
 1528 0244 0E93     		str	r3, [sp, #56]
 1529              		.loc 1 668 0
 1530 0246 0A9B     		ldr	r3, [sp, #40]
 1531 0248 9B89     		ldrh	r3, [r3, #12]
 1532 024a ADF82630 		strh	r3, [sp, #38]	@ movhi
 1533              	.L98:
 1534              		.loc 1 671 0
 1535 024e 04AB     		add	r3, sp, #16
 1536 0250 4FF00002 		mov	r2, #0
 1537 0254 1A60     		str	r2, [r3, #0]
 1538 0256 03F10403 		add	r3, r3, #4
 1539 025a 4FF00002 		mov	r2, #0
 1540 025e 1A60     		str	r2, [r3, #0]
 1541 0260 03F10403 		add	r3, r3, #4
 1542 0264 4FF00002 		mov	r2, #0
 1543 0268 1A60     		str	r2, [r3, #0]
 1544 026a 03F10403 		add	r3, r3, #4
 1545 026e 4FF00002 		mov	r2, #0
 1546 0272 1A60     		str	r2, [r3, #0]
 1547 0274 03F10403 		add	r3, r3, #4
 1548              		.loc 1 672 0
 1549 0278 4FF01003 		mov	r3, #16
 1550 027c 8DF81030 		strb	r3, [sp, #16]
 1551              		.loc 1 673 0
 1552 0280 4FF00203 		mov	r3, #2
 1553 0284 8DF81130 		strb	r3, [sp, #17]
 1554              		.loc 1 674 0
 1555 0288 BDF82630 		ldrh	r3, [sp, #38]
 1556 028c 1846     		mov	r0, r3
 1557 028e FFF7FEFF 		bl	lwip_htons
 1558 0292 0346     		mov	r3, r0
 1559 0294 ADF81230 		strh	r3, [sp, #18]	@ movhi
 1560              		.loc 1 675 0
 1561 0298 0E9B     		ldr	r3, [sp, #56]
 1562 029a 1B68     		ldr	r3, [r3, #0]
 1563 029c 0593     		str	r3, [sp, #20]
 1564              		.loc 1 677 0
 1565 029e 159B     		ldr	r3, [sp, #84]
 1566 02a0 1B68     		ldr	r3, [r3, #0]
 1567 02a2 102B     		cmp	r3, #16
 1568 02a4 03D9     		bls	.L99
 1569              		.loc 1 678 0
 1570 02a6 159B     		ldr	r3, [sp, #84]
 1571 02a8 4FF01002 		mov	r2, #16
 1572 02ac 1A60     		str	r2, [r3, #0]
 1573              	.L99:
 1574              		.loc 1 681 0
 1575 02ae 159B     		ldr	r3, [sp, #84]
 1576 02b0 1B68     		ldr	r3, [r3, #0]
 1577 02b2 1499     		ldr	r1, [sp, #80]
 1578 02b4 04AA     		add	r2, sp, #16
 1579 02b6 0846     		mov	r0, r1
ARM GAS  /tmp/cc2wa78n.s 			page 29


 1580 02b8 1146     		mov	r1, r2
 1581 02ba 1A46     		mov	r2, r3
 1582 02bc FFF7FEFF 		bl	memcpy
 1583              	.L96:
 1584              	.LBE4:
 1585              	.LBE3:
 1586              		.loc 1 704 0
 1587 02c0 009B     		ldr	r3, [sp, #0]
 1588 02c2 03F00103 		and	r3, r3, #1
 1589 02c6 002B     		cmp	r3, #0
 1590 02c8 2DD1     		bne	.L100
 1591              		.loc 1 708 0
 1592 02ca 0C9B     		ldr	r3, [sp, #48]
 1593 02cc 1B68     		ldr	r3, [r3, #0]
 1594 02ce 1B78     		ldrb	r3, [r3, #0]	@ zero_extendqisi2
 1595 02d0 102B     		cmp	r3, #16
 1596 02d2 12D1     		bne	.L101
 1597              		.loc 1 708 0 is_stmt 0 discriminator 1
 1598 02d4 BDF82E20 		ldrh	r2, [sp, #46]
 1599 02d8 BDF84230 		ldrh	r3, [sp, #66]
 1600 02dc D31A     		subs	r3, r2, r3
 1601 02de 002B     		cmp	r3, #0
 1602 02e0 0BDD     		ble	.L101
 1603              		.loc 1 709 0 is_stmt 1
 1604 02e2 0A9A     		ldr	r2, [sp, #40]
 1605 02e4 0C9B     		ldr	r3, [sp, #48]
 1606 02e6 5A60     		str	r2, [r3, #4]
 1607              		.loc 1 710 0
 1608 02e8 0C9B     		ldr	r3, [sp, #48]
 1609 02ea 1A89     		ldrh	r2, [r3, #8]
 1610 02ec BDF84230 		ldrh	r3, [sp, #66]	@ movhi
 1611 02f0 D318     		adds	r3, r2, r3
 1612 02f2 9AB2     		uxth	r2, r3
 1613 02f4 0C9B     		ldr	r3, [sp, #48]
 1614 02f6 1A81     		strh	r2, [r3, #8]	@ movhi
 1615 02f8 15E0     		b	.L100
 1616              	.L101:
 1617              		.loc 1 713 0
 1618 02fa 0C9B     		ldr	r3, [sp, #48]
 1619 02fc 4FF00002 		mov	r2, #0
 1620 0300 5A60     		str	r2, [r3, #4]
 1621              		.loc 1 714 0
 1622 0302 0C9B     		ldr	r3, [sp, #48]
 1623 0304 4FF00002 		mov	r2, #0
 1624 0308 1A81     		strh	r2, [r3, #8]	@ movhi
 1625              		.loc 1 716 0
 1626 030a 0C9B     		ldr	r3, [sp, #48]
 1627 030c 1B68     		ldr	r3, [r3, #0]
 1628 030e 1B78     		ldrb	r3, [r3, #0]	@ zero_extendqisi2
 1629 0310 102B     		cmp	r3, #16
 1630 0312 04D1     		bne	.L102
 1631              		.loc 1 717 0
 1632 0314 0A9B     		ldr	r3, [sp, #40]
 1633 0316 1846     		mov	r0, r3
 1634 0318 FFF7FEFF 		bl	pbuf_free
 1635 031c 03E0     		b	.L100
 1636              	.L102:
ARM GAS  /tmp/cc2wa78n.s 			page 30


 1637              		.loc 1 719 0
 1638 031e 0A9B     		ldr	r3, [sp, #40]
 1639 0320 1846     		mov	r0, r3
 1640 0322 FFF7FEFF 		bl	netbuf_delete
 1641              	.L100:
 1642              		.loc 1 723 0
 1643 0326 9DF83730 		ldrb	r3, [sp, #55]	@ zero_extendqisi2
 1644 032a 002B     		cmp	r3, #0
 1645 032c 3FF483AE 		beq	.L73
 1646              		.loc 1 725 0
 1647 0330 0F9B     		ldr	r3, [sp, #60]
 1648 0332 002B     		cmp	r3, #0
 1649 0334 06DD     		ble	.L103
 1650              		.loc 1 727 0
 1651 0336 0C9B     		ldr	r3, [sp, #48]
 1652 0338 1A68     		ldr	r2, [r3, #0]
 1653 033a 0F9B     		ldr	r3, [sp, #60]
 1654 033c 1046     		mov	r0, r2
 1655 033e 1946     		mov	r1, r3
 1656 0340 FFF7FEFF 		bl	netconn_recved
 1657              	.L103:
 1658              		.loc 1 729 0
 1659 0344 0C9B     		ldr	r3, [sp, #48]
 1660 0346 4FF00002 		mov	r2, #0
 1661 034a 1A61     		str	r2, [r3, #16]
 1662              		.loc 1 730 0
 1663 034c 0F9B     		ldr	r3, [sp, #60]
 1664              	.L74:
 1665              		.loc 1 731 0
 1666 034e 1846     		mov	r0, r3
 1667 0350 13B0     		add	sp, sp, #76
 1668 0352 00BD     		pop	{pc}
 1669              		.cfi_endproc
 1670              	.LFE17:
 1671              		.size	lwip_recvfrom, .-lwip_recvfrom
 1672 0354 AFF30080 		.section	.text.lwip_read,"ax",%progbits
 1672      AFF30080 
 1672      AFF30080 
 1673              		.align	2
 1674              		.p2align 4,,15
 1675              		.global	lwip_read
 1676              		.thumb
 1677              		.thumb_func
 1678              		.type	lwip_read, %function
 1679              	lwip_read:
 1680              	.LFB18:
 1681              		.loc 1 735 0
 1682              		.cfi_startproc
 1683              		@ args = 0, pretend = 0, frame = 16
 1684              		@ frame_needed = 0, uses_anonymous_args = 0
 1685 0000 00B5     		push	{lr}
 1686              	.LCFI17:
 1687              		.cfi_def_cfa_offset 4
 1688              		.cfi_offset 14, -4
 1689 0002 87B0     		sub	sp, sp, #28
 1690              	.LCFI18:
 1691              		.cfi_def_cfa_offset 32
ARM GAS  /tmp/cc2wa78n.s 			page 31


 1692 0004 0590     		str	r0, [sp, #20]
 1693 0006 0491     		str	r1, [sp, #16]
 1694 0008 0392     		str	r2, [sp, #12]
 1695              		.loc 1 736 0
 1696 000a 4FF00003 		mov	r3, #0
 1697 000e 0093     		str	r3, [sp, #0]
 1698 0010 4FF00003 		mov	r3, #0
 1699 0014 0193     		str	r3, [sp, #4]
 1700 0016 0598     		ldr	r0, [sp, #20]
 1701 0018 0499     		ldr	r1, [sp, #16]
 1702 001a 039A     		ldr	r2, [sp, #12]
 1703 001c 4FF00003 		mov	r3, #0
 1704 0020 FFF7FEFF 		bl	lwip_recvfrom
 1705 0024 0346     		mov	r3, r0
 1706              		.loc 1 737 0
 1707 0026 1846     		mov	r0, r3
 1708 0028 07B0     		add	sp, sp, #28
 1709 002a 00BD     		pop	{pc}
 1710              		.cfi_endproc
 1711              	.LFE18:
 1712              		.size	lwip_read, .-lwip_read
 1713 002c AFF30080 		.section	.text.lwip_recv,"ax",%progbits
 1714              		.align	2
 1715              		.p2align 4,,15
 1716              		.global	lwip_recv
 1717              		.thumb
 1718              		.thumb_func
 1719              		.type	lwip_recv, %function
 1720              	lwip_recv:
 1721              	.LFB19:
 1722              		.loc 1 741 0
 1723              		.cfi_startproc
 1724              		@ args = 0, pretend = 0, frame = 16
 1725              		@ frame_needed = 0, uses_anonymous_args = 0
 1726 0000 00B5     		push	{lr}
 1727              	.LCFI19:
 1728              		.cfi_def_cfa_offset 4
 1729              		.cfi_offset 14, -4
 1730 0002 87B0     		sub	sp, sp, #28
 1731              	.LCFI20:
 1732              		.cfi_def_cfa_offset 32
 1733 0004 0590     		str	r0, [sp, #20]
 1734 0006 0491     		str	r1, [sp, #16]
 1735 0008 0392     		str	r2, [sp, #12]
 1736 000a 0293     		str	r3, [sp, #8]
 1737              		.loc 1 742 0
 1738 000c 4FF00003 		mov	r3, #0
 1739 0010 0093     		str	r3, [sp, #0]
 1740 0012 4FF00003 		mov	r3, #0
 1741 0016 0193     		str	r3, [sp, #4]
 1742 0018 0598     		ldr	r0, [sp, #20]
 1743 001a 0499     		ldr	r1, [sp, #16]
 1744 001c 039A     		ldr	r2, [sp, #12]
 1745 001e 029B     		ldr	r3, [sp, #8]
 1746 0020 FFF7FEFF 		bl	lwip_recvfrom
 1747 0024 0346     		mov	r3, r0
 1748              		.loc 1 743 0
ARM GAS  /tmp/cc2wa78n.s 			page 32


 1749 0026 1846     		mov	r0, r3
 1750 0028 07B0     		add	sp, sp, #28
 1751 002a 00BD     		pop	{pc}
 1752              		.cfi_endproc
 1753              	.LFE19:
 1754              		.size	lwip_recv, .-lwip_recv
 1755 002c AFF30080 		.section	.text.lwip_send,"ax",%progbits
 1756              		.align	2
 1757              		.p2align 4,,15
 1758              		.global	lwip_send
 1759              		.thumb
 1760              		.thumb_func
 1761              		.type	lwip_send, %function
 1762              	lwip_send:
 1763              	.LFB20:
 1764              		.loc 1 747 0
 1765              		.cfi_startproc
 1766              		@ args = 0, pretend = 0, frame = 24
 1767              		@ frame_needed = 0, uses_anonymous_args = 0
 1768 0000 00B5     		push	{lr}
 1769              	.LCFI21:
 1770              		.cfi_def_cfa_offset 4
 1771              		.cfi_offset 14, -4
 1772 0002 89B0     		sub	sp, sp, #36
 1773              	.LCFI22:
 1774              		.cfi_def_cfa_offset 40
 1775 0004 0590     		str	r0, [sp, #20]
 1776 0006 0491     		str	r1, [sp, #16]
 1777 0008 0392     		str	r2, [sp, #12]
 1778 000a 0293     		str	r3, [sp, #8]
 1779              		.loc 1 755 0
 1780 000c 0598     		ldr	r0, [sp, #20]
 1781 000e FFF7FEFF 		bl	get_socket
 1782 0012 0346     		mov	r3, r0
 1783 0014 0793     		str	r3, [sp, #28]
 1784              		.loc 1 756 0
 1785 0016 079B     		ldr	r3, [sp, #28]
 1786 0018 002B     		cmp	r3, #0
 1787 001a 02D1     		bne	.L107
 1788              		.loc 1 757 0
 1789 001c 4FF0FF33 		mov	r3, #-1
 1790 0020 6FE0     		b	.L108
 1791              	.L107:
 1792              		.loc 1 760 0
 1793 0022 079B     		ldr	r3, [sp, #28]
 1794 0024 1B68     		ldr	r3, [r3, #0]
 1795 0026 1B78     		ldrb	r3, [r3, #0]	@ zero_extendqisi2
 1796 0028 102B     		cmp	r3, #16
 1797 002a 0DD0     		beq	.L109
 1798              		.loc 1 762 0
 1799 002c 4FF00003 		mov	r3, #0
 1800 0030 0093     		str	r3, [sp, #0]
 1801 0032 4FF00003 		mov	r3, #0
 1802 0036 0193     		str	r3, [sp, #4]
 1803 0038 0598     		ldr	r0, [sp, #20]
 1804 003a 0499     		ldr	r1, [sp, #16]
 1805 003c 039A     		ldr	r2, [sp, #12]
ARM GAS  /tmp/cc2wa78n.s 			page 33


 1806 003e 029B     		ldr	r3, [sp, #8]
 1807 0040 FFF7FEFF 		bl	lwip_sendto
 1808 0044 0346     		mov	r3, r0
 1809 0046 5CE0     		b	.L108
 1810              	.L109:
 1811              		.loc 1 769 0
 1812 0048 029B     		ldr	r3, [sp, #8]
 1813 004a 03F00803 		and	r3, r3, #8
 1814 004e 002B     		cmp	r3, #0
 1815 0050 06D1     		bne	.L110
 1816              		.loc 1 769 0 is_stmt 0 discriminator 1
 1817 0052 079B     		ldr	r3, [sp, #28]
 1818 0054 1B68     		ldr	r3, [r3, #0]
 1819 0056 1B7F     		ldrb	r3, [r3, #28]	@ zero_extendqisi2
 1820 0058 03F00203 		and	r3, r3, #2
 1821 005c 002B     		cmp	r3, #0
 1822 005e 0FD0     		beq	.L111
 1823              	.L110:
 1824              		.loc 1 770 0 is_stmt 1
 1825 0060 039B     		ldr	r3, [sp, #12]
 1826 0062 B3F5807F 		cmp	r3, #256
 1827 0066 04D8     		bhi	.L112
 1828              		.loc 1 770 0 is_stmt 0 discriminator 1
 1829 0068 039A     		ldr	r2, [sp, #12]
 1830 006a 40F24763 		movw	r3, #1607
 1831 006e 9A42     		cmp	r2, r3
 1832 0070 06D9     		bls	.L111
 1833              	.L112:
 1834              		.loc 1 772 0 is_stmt 1
 1835 0072 079B     		ldr	r3, [sp, #28]
 1836 0074 4FF05A02 		mov	r2, #90
 1837 0078 1A61     		str	r2, [r3, #16]
 1838              		.loc 1 773 0
 1839 007a 4FF0FF33 		mov	r3, #-1
 1840 007e 40E0     		b	.L108
 1841              	.L111:
 1842              		.loc 1 778 0
 1843 0080 029B     		ldr	r3, [sp, #8]
 1844 0082 03F01003 		and	r3, r3, #16
 1845              		.loc 1 777 0
 1846 0086 002B     		cmp	r3, #0
 1847 0088 02D0     		beq	.L113
 1848              		.loc 1 777 0 is_stmt 0 discriminator 1
 1849 008a 4FF00302 		mov	r2, #3
 1850 008e 01E0     		b	.L114
 1851              	.L113:
 1852              		.loc 1 777 0 discriminator 2
 1853 0090 4FF00102 		mov	r2, #1
 1854              	.L114:
 1855              		.loc 1 779 0 is_stmt 1 discriminator 3
 1856 0094 029B     		ldr	r3, [sp, #8]
 1857 0096 03F00803 		and	r3, r3, #8
 1858              		.loc 1 777 0 discriminator 3
 1859 009a 002B     		cmp	r3, #0
 1860 009c 02D0     		beq	.L115
 1861              		.loc 1 777 0 is_stmt 0 discriminator 4
 1862 009e 4FF00403 		mov	r3, #4
ARM GAS  /tmp/cc2wa78n.s 			page 34


 1863 00a2 01E0     		b	.L116
 1864              	.L115:
 1865              		.loc 1 777 0 discriminator 5
 1866 00a4 4FF00003 		mov	r3, #0
 1867              	.L116:
 1868              		.loc 1 777 0 discriminator 6
 1869 00a8 1343     		orrs	r3, r3, r2
 1870 00aa DBB2     		uxtb	r3, r3
 1871 00ac 8DF81B30 		strb	r3, [sp, #27]
 1872              		.loc 1 780 0 is_stmt 1 discriminator 6
 1873 00b0 079B     		ldr	r3, [sp, #28]
 1874 00b2 1A68     		ldr	r2, [r3, #0]
 1875 00b4 9DF81B30 		ldrb	r3, [sp, #27]	@ zero_extendqisi2
 1876 00b8 1046     		mov	r0, r2
 1877 00ba 0499     		ldr	r1, [sp, #16]
 1878 00bc 039A     		ldr	r2, [sp, #12]
 1879 00be FFF7FEFF 		bl	netconn_write
 1880 00c2 0346     		mov	r3, r0
 1881 00c4 8DF81A30 		strb	r3, [sp, #26]
 1882              		.loc 1 783 0 discriminator 6
 1883 00c8 9DF91A30 		ldrsb	r3, [sp, #26]
 1884 00cc C3F10003 		rsb	r3, r3, #0
 1885 00d0 0F2B     		cmp	r3, #15
 1886 00d2 0AD8     		bhi	.L117
 1887              		.loc 1 783 0 is_stmt 0 discriminator 1
 1888 00d4 9DF91A30 		ldrsb	r3, [sp, #26]
 1889 00d8 C3F10002 		rsb	r2, r3, #0
 1890 00dc 40F20003 		movw	r3, #:lower16:err_to_errno_table
 1891 00e0 C0F20003 		movt	r3, #:upper16:err_to_errno_table
 1892 00e4 53F82230 		ldr	r3, [r3, r2, lsl #2]
 1893 00e8 01E0     		b	.L118
 1894              	.L117:
 1895              		.loc 1 783 0 discriminator 2
 1896 00ea 4FF00503 		mov	r3, #5
 1897              	.L118:
 1898              		.loc 1 783 0 discriminator 3
 1899 00ee 079A     		ldr	r2, [sp, #28]
 1900 00f0 1361     		str	r3, [r2, #16]
 1901              		.loc 1 784 0 is_stmt 1 discriminator 3
 1902 00f2 9DF91A30 		ldrsb	r3, [sp, #26]
 1903 00f6 002B     		cmp	r3, #0
 1904 00f8 01D1     		bne	.L119
 1905              		.loc 1 784 0 is_stmt 0 discriminator 1
 1906 00fa 039B     		ldr	r3, [sp, #12]
 1907 00fc 01E0     		b	.L120
 1908              	.L119:
 1909              		.loc 1 784 0 discriminator 2
 1910 00fe 4FF0FF33 		mov	r3, #-1
 1911              	.L120:
 1912              	.L108:
 1913              		.loc 1 785 0 is_stmt 1
 1914 0102 1846     		mov	r0, r3
 1915 0104 09B0     		add	sp, sp, #36
 1916 0106 00BD     		pop	{pc}
 1917              		.cfi_endproc
 1918              	.LFE20:
 1919              		.size	lwip_send, .-lwip_send
ARM GAS  /tmp/cc2wa78n.s 			page 35


 1920 0108 AFF30080 		.section	.text.lwip_sendto,"ax",%progbits
 1920      AFF30080 
 1921              		.align	2
 1922              		.p2align 4,,15
 1923              		.global	lwip_sendto
 1924              		.thumb
 1925              		.thumb_func
 1926              		.type	lwip_sendto, %function
 1927              	lwip_sendto:
 1928              	.LFB21:
 1929              		.loc 1 790 0
 1930              		.cfi_startproc
 1931              		@ args = 8, pretend = 0, frame = 56
 1932              		@ frame_needed = 0, uses_anonymous_args = 0
 1933 0000 00B5     		push	{lr}
 1934              	.LCFI23:
 1935              		.cfi_def_cfa_offset 4
 1936              		.cfi_offset 14, -4
 1937 0002 8FB0     		sub	sp, sp, #60
 1938              	.LCFI24:
 1939              		.cfi_def_cfa_offset 64
 1940 0004 0390     		str	r0, [sp, #12]
 1941 0006 0291     		str	r1, [sp, #8]
 1942 0008 0192     		str	r2, [sp, #4]
 1943 000a 0093     		str	r3, [sp, #0]
 1944              		.loc 1 800 0
 1945 000c 0398     		ldr	r0, [sp, #12]
 1946 000e FFF7FEFF 		bl	get_socket
 1947 0012 0346     		mov	r3, r0
 1948 0014 0C93     		str	r3, [sp, #48]
 1949              		.loc 1 801 0
 1950 0016 0C9B     		ldr	r3, [sp, #48]
 1951 0018 002B     		cmp	r3, #0
 1952 001a 02D1     		bne	.L122
 1953              		.loc 1 802 0
 1954 001c 4FF0FF33 		mov	r3, #-1
 1955 0020 94E0     		b	.L123
 1956              	.L122:
 1957              		.loc 1 805 0
 1958 0022 0C9B     		ldr	r3, [sp, #48]
 1959 0024 1B68     		ldr	r3, [r3, #0]
 1960 0026 1B78     		ldrb	r3, [r3, #0]	@ zero_extendqisi2
 1961 0028 102B     		cmp	r3, #16
 1962 002a 07D1     		bne	.L124
 1963              		.loc 1 807 0
 1964 002c 0398     		ldr	r0, [sp, #12]
 1965 002e 0299     		ldr	r1, [sp, #8]
 1966 0030 019A     		ldr	r2, [sp, #4]
 1967 0032 009B     		ldr	r3, [sp, #0]
 1968 0034 FFF7FEFF 		bl	lwip_send
 1969 0038 0346     		mov	r3, r0
 1970 003a 87E0     		b	.L123
 1971              	.L124:
 1972              		.loc 1 816 0
 1973 003c 019A     		ldr	r2, [sp, #4]
 1974 003e 4FF6FF73 		movw	r3, #65535
 1975 0042 9A42     		cmp	r2, r3
ARM GAS  /tmp/cc2wa78n.s 			page 36


 1976 0044 01D9     		bls	.L125
 1977              		.loc 1 816 0 is_stmt 0 discriminator 1
 1978 0046 FFF7FEFF 		bl	port_halt
 1979              	.L125:
 1980              		.loc 1 817 0 is_stmt 1
 1981 004a 019B     		ldr	r3, [sp, #4]
 1982 004c ADF82E30 		strh	r3, [sp, #46]	@ movhi
 1983              		.loc 1 818 0
 1984 0050 109B     		ldr	r3, [sp, #64]
 1985 0052 002B     		cmp	r3, #0
 1986 0054 02D1     		bne	.L126
 1987              		.loc 1 818 0 is_stmt 0 discriminator 2
 1988 0056 119B     		ldr	r3, [sp, #68]
 1989 0058 002B     		cmp	r3, #0
 1990 005a 17D0     		beq	.L127
 1991              	.L126:
 1992              		.loc 1 818 0 discriminator 1
 1993 005c 119B     		ldr	r3, [sp, #68]
 1994 005e 102B     		cmp	r3, #16
 1995 0060 08D1     		bne	.L128
 1996              		.loc 1 818 0 discriminator 4
 1997 0062 109B     		ldr	r3, [sp, #64]
 1998 0064 5B78     		ldrb	r3, [r3, #1]	@ zero_extendqisi2
 1999 0066 022B     		cmp	r3, #2
 2000 0068 04D1     		bne	.L128
 2001              		.loc 1 818 0 discriminator 5
 2002 006a 109B     		ldr	r3, [sp, #64]
 2003 006c 03F00303 		and	r3, r3, #3
 2004 0070 002B     		cmp	r3, #0
 2005 0072 0BD0     		beq	.L127
 2006              	.L128:
 2007              		.loc 1 818 0 discriminator 3
 2008 0074 FFF7FEFF 		bl	port_halt
 2009 0078 40F20003 		movw	r3, #:lower16:err_to_errno_table
 2010 007c C0F20003 		movt	r3, #:upper16:err_to_errno_table
 2011 0080 9A6B     		ldr	r2, [r3, #56]
 2012 0082 0C9B     		ldr	r3, [sp, #48]
 2013 0084 1A61     		str	r2, [r3, #16]
 2014 0086 4FF0FF33 		mov	r3, #-1
 2015 008a 5FE0     		b	.L123
 2016              	.L127:
 2017              		.loc 1 822 0 is_stmt 1
 2018 008c 109B     		ldr	r3, [sp, #64]
 2019 008e 0A93     		str	r3, [sp, #40]
 2020              		.loc 1 883 0
 2021 0090 4FF00003 		mov	r3, #0
 2022 0094 0693     		str	r3, [sp, #24]
 2023 0096 069B     		ldr	r3, [sp, #24]
 2024 0098 0593     		str	r3, [sp, #20]
 2025              		.loc 1 887 0
 2026 009a 109B     		ldr	r3, [sp, #64]
 2027 009c 002B     		cmp	r3, #0
 2028 009e 0FD0     		beq	.L129
 2029              		.loc 1 888 0
 2030 00a0 0A9B     		ldr	r3, [sp, #40]
 2031 00a2 5B68     		ldr	r3, [r3, #4]
 2032 00a4 0793     		str	r3, [sp, #28]
ARM GAS  /tmp/cc2wa78n.s 			page 37


 2033              		.loc 1 889 0
 2034 00a6 0A9B     		ldr	r3, [sp, #40]
 2035 00a8 5B88     		ldrh	r3, [r3, #2]
 2036 00aa 1846     		mov	r0, r3
 2037 00ac FFF7FEFF 		bl	lwip_ntohs
 2038 00b0 0346     		mov	r3, r0
 2039 00b2 ADF82630 		strh	r3, [sp, #38]	@ movhi
 2040              		.loc 1 890 0
 2041 00b6 BDF82630 		ldrh	r3, [sp, #38]	@ movhi
 2042 00ba ADF82030 		strh	r3, [sp, #32]	@ movhi
 2043 00be 0AE0     		b	.L130
 2044              	.L129:
 2045              		.loc 1 892 0
 2046 00c0 4FF00003 		mov	r3, #0
 2047 00c4 ADF82630 		strh	r3, [sp, #38]	@ movhi
 2048              		.loc 1 893 0
 2049 00c8 4FF00003 		mov	r3, #0
 2050 00cc 0793     		str	r3, [sp, #28]
 2051              		.loc 1 894 0
 2052 00ce 4FF00003 		mov	r3, #0
 2053 00d2 ADF82030 		strh	r3, [sp, #32]	@ movhi
 2054              	.L130:
 2055              		.loc 1 920 0
 2056 00d6 05AA     		add	r2, sp, #20
 2057 00d8 BDF82E30 		ldrh	r3, [sp, #46]
 2058 00dc 1046     		mov	r0, r2
 2059 00de 0299     		ldr	r1, [sp, #8]
 2060 00e0 1A46     		mov	r2, r3
 2061 00e2 FFF7FEFF 		bl	netbuf_ref
 2062 00e6 0346     		mov	r3, r0
 2063 00e8 8DF83730 		strb	r3, [sp, #55]
 2064              		.loc 1 922 0
 2065 00ec 9DF93730 		ldrsb	r3, [sp, #55]
 2066 00f0 002B     		cmp	r3, #0
 2067 00f2 09D1     		bne	.L131
 2068              		.loc 1 924 0
 2069 00f4 0C9B     		ldr	r3, [sp, #48]
 2070 00f6 1A68     		ldr	r2, [r3, #0]
 2071 00f8 05AB     		add	r3, sp, #20
 2072 00fa 1046     		mov	r0, r2
 2073 00fc 1946     		mov	r1, r3
 2074 00fe FFF7FEFF 		bl	netconn_send
 2075 0102 0346     		mov	r3, r0
 2076 0104 8DF83730 		strb	r3, [sp, #55]
 2077              	.L131:
 2078              		.loc 1 928 0
 2079 0108 05AB     		add	r3, sp, #20
 2080 010a 1846     		mov	r0, r3
 2081 010c FFF7FEFF 		bl	netbuf_free
 2082              		.loc 1 930 0
 2083 0110 9DF93730 		ldrsb	r3, [sp, #55]
 2084 0114 C3F10003 		rsb	r3, r3, #0
 2085 0118 0F2B     		cmp	r3, #15
 2086 011a 0AD8     		bhi	.L132
 2087              		.loc 1 930 0 is_stmt 0 discriminator 1
 2088 011c 9DF93730 		ldrsb	r3, [sp, #55]
 2089 0120 C3F10002 		rsb	r2, r3, #0
ARM GAS  /tmp/cc2wa78n.s 			page 38


 2090 0124 40F20003 		movw	r3, #:lower16:err_to_errno_table
 2091 0128 C0F20003 		movt	r3, #:upper16:err_to_errno_table
 2092 012c 53F82230 		ldr	r3, [r3, r2, lsl #2]
 2093 0130 01E0     		b	.L133
 2094              	.L132:
 2095              		.loc 1 930 0 discriminator 2
 2096 0132 4FF00503 		mov	r3, #5
 2097              	.L133:
 2098              		.loc 1 930 0 discriminator 3
 2099 0136 0C9A     		ldr	r2, [sp, #48]
 2100 0138 1361     		str	r3, [r2, #16]
 2101              		.loc 1 931 0 is_stmt 1 discriminator 3
 2102 013a 9DF93730 		ldrsb	r3, [sp, #55]
 2103 013e 002B     		cmp	r3, #0
 2104 0140 02D1     		bne	.L134
 2105              		.loc 1 931 0 is_stmt 0 discriminator 1
 2106 0142 BDF82E30 		ldrh	r3, [sp, #46]
 2107 0146 01E0     		b	.L135
 2108              	.L134:
 2109              		.loc 1 931 0 discriminator 2
 2110 0148 4FF0FF33 		mov	r3, #-1
 2111              	.L135:
 2112              	.L123:
 2113              		.loc 1 932 0 is_stmt 1
 2114 014c 1846     		mov	r0, r3
 2115 014e 0FB0     		add	sp, sp, #60
 2116 0150 00BD     		pop	{pc}
 2117              		.cfi_endproc
 2118              	.LFE21:
 2119              		.size	lwip_sendto, .-lwip_sendto
 2120 0152 00BFAFF3 		.section	.text.lwip_socket,"ax",%progbits
 2120      0080AFF3 
 2120      0080AFF3 
 2120      0080
 2121              		.align	2
 2122              		.p2align 4,,15
 2123              		.global	lwip_socket
 2124              		.thumb
 2125              		.thumb_func
 2126              		.type	lwip_socket, %function
 2127              	lwip_socket:
 2128              	.LFB22:
 2129              		.loc 1 936 0
 2130              		.cfi_startproc
 2131              		@ args = 0, pretend = 0, frame = 24
 2132              		@ frame_needed = 0, uses_anonymous_args = 0
 2133 0000 00B5     		push	{lr}
 2134              	.LCFI25:
 2135              		.cfi_def_cfa_offset 4
 2136              		.cfi_offset 14, -4
 2137 0002 87B0     		sub	sp, sp, #28
 2138              	.LCFI26:
 2139              		.cfi_def_cfa_offset 32
 2140 0004 0390     		str	r0, [sp, #12]
 2141 0006 0291     		str	r1, [sp, #8]
 2142 0008 0192     		str	r2, [sp, #4]
 2143              		.loc 1 943 0
ARM GAS  /tmp/cc2wa78n.s 			page 39


 2144 000a 029B     		ldr	r3, [sp, #8]
 2145 000c 022B     		cmp	r3, #2
 2146 000e 12D0     		beq	.L139
 2147 0010 032B     		cmp	r3, #3
 2148 0012 02D0     		beq	.L140
 2149 0014 012B     		cmp	r3, #1
 2150 0016 22D0     		beq	.L138
 2151 0018 38E0     		b	.L148
 2152              	.L140:
 2153              		.loc 1 945 0
 2154 001a 019B     		ldr	r3, [sp, #4]
 2155 001c DBB2     		uxtb	r3, r3
 2156 001e 4FF04000 		mov	r0, #64
 2157 0022 1946     		mov	r1, r3
 2158 0024 40F20002 		movw	r2, #:lower16:event_callback
 2159 0028 C0F20002 		movt	r2, #:upper16:event_callback
 2160 002c FFF7FEFF 		bl	netconn_new_with_proto_and_callback
 2161 0030 0346     		mov	r3, r0
 2162 0032 0593     		str	r3, [sp, #20]
 2163              		.loc 1 948 0
 2164 0034 2EE0     		b	.L141
 2165              	.L139:
 2166              		.loc 1 950 0
 2167 0036 019B     		ldr	r3, [sp, #4]
 2168 0038 882B     		cmp	r3, #136
 2169 003a 02D1     		bne	.L142
 2170              		.loc 1 950 0 is_stmt 0 discriminator 1
 2171 003c 4FF02103 		mov	r3, #33
 2172 0040 01E0     		b	.L143
 2173              	.L142:
 2174              		.loc 1 950 0 discriminator 2
 2175 0042 4FF02003 		mov	r3, #32
 2176              	.L143:
 2177              		.loc 1 950 0 discriminator 3
 2178 0046 1846     		mov	r0, r3
 2179 0048 4FF00001 		mov	r1, #0
 2180 004c 40F20002 		movw	r2, #:lower16:event_callback
 2181 0050 C0F20002 		movt	r2, #:upper16:event_callback
 2182 0054 FFF7FEFF 		bl	netconn_new_with_proto_and_callback
 2183 0058 0346     		mov	r3, r0
 2184 005a 0593     		str	r3, [sp, #20]
 2185              		.loc 1 954 0 is_stmt 1 discriminator 3
 2186 005c 1AE0     		b	.L141
 2187              	.L138:
 2188              		.loc 1 956 0
 2189 005e 4FF01000 		mov	r0, #16
 2190 0062 4FF00001 		mov	r1, #0
 2191 0066 40F20002 		movw	r2, #:lower16:event_callback
 2192 006a C0F20002 		movt	r2, #:upper16:event_callback
 2193 006e FFF7FEFF 		bl	netconn_new_with_proto_and_callback
 2194 0072 0346     		mov	r3, r0
 2195 0074 0593     		str	r3, [sp, #20]
 2196              		.loc 1 959 0
 2197 0076 059B     		ldr	r3, [sp, #20]
 2198 0078 002B     		cmp	r3, #0
 2199 007a 0AD0     		beq	.L149
 2200              		.loc 1 961 0 discriminator 1
ARM GAS  /tmp/cc2wa78n.s 			page 40


 2201 007c 059B     		ldr	r3, [sp, #20]
 2202 007e 1B7F     		ldrb	r3, [r3, #28]	@ zero_extendqisi2
 2203 0080 43F00803 		orr	r3, r3, #8
 2204 0084 DAB2     		uxtb	r2, r3
 2205 0086 059B     		ldr	r3, [sp, #20]
 2206 0088 1A77     		strb	r2, [r3, #28]
 2207              		.loc 1 963 0 discriminator 1
 2208 008a 02E0     		b	.L149
 2209              	.L148:
 2210              		.loc 1 968 0
 2211 008c 4FF0FF33 		mov	r3, #-1
 2212 0090 1BE0     		b	.L145
 2213              	.L149:
 2214              		.loc 1 963 0
 2215 0092 00BF     		nop
 2216              	.L141:
 2217              		.loc 1 971 0
 2218 0094 059B     		ldr	r3, [sp, #20]
 2219 0096 002B     		cmp	r3, #0
 2220 0098 02D1     		bne	.L146
 2221              		.loc 1 974 0
 2222 009a 4FF0FF33 		mov	r3, #-1
 2223 009e 14E0     		b	.L145
 2224              	.L146:
 2225              		.loc 1 977 0
 2226 00a0 0598     		ldr	r0, [sp, #20]
 2227 00a2 4FF00001 		mov	r1, #0
 2228 00a6 FFF7FEFF 		bl	alloc_socket
 2229 00aa 0346     		mov	r3, r0
 2230 00ac 0493     		str	r3, [sp, #16]
 2231              		.loc 1 979 0
 2232 00ae 049B     		ldr	r3, [sp, #16]
 2233 00b0 B3F1FF3F 		cmp	r3, #-1
 2234 00b4 05D1     		bne	.L147
 2235              		.loc 1 980 0
 2236 00b6 0598     		ldr	r0, [sp, #20]
 2237 00b8 FFF7FEFF 		bl	netconn_delete
 2238              		.loc 1 982 0
 2239 00bc 4FF0FF33 		mov	r3, #-1
 2240 00c0 03E0     		b	.L145
 2241              	.L147:
 2242              		.loc 1 984 0
 2243 00c2 059B     		ldr	r3, [sp, #20]
 2244 00c4 049A     		ldr	r2, [sp, #16]
 2245 00c6 9A61     		str	r2, [r3, #24]
 2246              		.loc 1 987 0
 2247 00c8 049B     		ldr	r3, [sp, #16]
 2248              	.L145:
 2249              		.loc 1 988 0
 2250 00ca 1846     		mov	r0, r3
 2251 00cc 07B0     		add	sp, sp, #28
 2252 00ce 00BD     		pop	{pc}
 2253              		.cfi_endproc
 2254              	.LFE22:
 2255              		.size	lwip_socket, .-lwip_socket
 2256              		.section	.text.lwip_write,"ax",%progbits
 2257              		.align	2
ARM GAS  /tmp/cc2wa78n.s 			page 41


 2258              		.p2align 4,,15
 2259              		.global	lwip_write
 2260              		.thumb
 2261              		.thumb_func
 2262              		.type	lwip_write, %function
 2263              	lwip_write:
 2264              	.LFB23:
 2265              		.loc 1 992 0
 2266              		.cfi_startproc
 2267              		@ args = 0, pretend = 0, frame = 16
 2268              		@ frame_needed = 0, uses_anonymous_args = 0
 2269 0000 00B5     		push	{lr}
 2270              	.LCFI27:
 2271              		.cfi_def_cfa_offset 4
 2272              		.cfi_offset 14, -4
 2273 0002 85B0     		sub	sp, sp, #20
 2274              	.LCFI28:
 2275              		.cfi_def_cfa_offset 24
 2276 0004 0390     		str	r0, [sp, #12]
 2277 0006 0291     		str	r1, [sp, #8]
 2278 0008 0192     		str	r2, [sp, #4]
 2279              		.loc 1 993 0
 2280 000a 0398     		ldr	r0, [sp, #12]
 2281 000c 0299     		ldr	r1, [sp, #8]
 2282 000e 019A     		ldr	r2, [sp, #4]
 2283 0010 4FF00003 		mov	r3, #0
 2284 0014 FFF7FEFF 		bl	lwip_send
 2285 0018 0346     		mov	r3, r0
 2286              		.loc 1 994 0
 2287 001a 1846     		mov	r0, r3
 2288 001c 05B0     		add	sp, sp, #20
 2289 001e 00BD     		pop	{pc}
 2290              		.cfi_endproc
 2291              	.LFE23:
 2292              		.size	lwip_write, .-lwip_write
 2293              		.section	.text.lwip_selscan,"ax",%progbits
 2294              		.align	2
 2295              		.p2align 4,,15
 2296              		.thumb
 2297              		.thumb_func
 2298              		.type	lwip_selscan, %function
 2299              	lwip_selscan:
 2300              	.LFB24:
 2301              		.loc 1 1015 0
 2302              		.cfi_startproc
 2303              		@ args = 12, pretend = 0, frame = 56
 2304              		@ frame_needed = 0, uses_anonymous_args = 0
 2305 0000 00B5     		push	{lr}
 2306              	.LCFI29:
 2307              		.cfi_def_cfa_offset 4
 2308              		.cfi_offset 14, -4
 2309 0002 8FB0     		sub	sp, sp, #60
 2310              	.LCFI30:
 2311              		.cfi_def_cfa_offset 64
 2312 0004 0390     		str	r0, [sp, #12]
 2313 0006 0291     		str	r1, [sp, #8]
 2314 0008 0192     		str	r2, [sp, #4]
ARM GAS  /tmp/cc2wa78n.s 			page 42


 2315 000a 0093     		str	r3, [sp, #0]
 2316              		.loc 1 1016 0
 2317 000c 4FF00003 		mov	r3, #0
 2318 0010 0C93     		str	r3, [sp, #48]
 2319              		.loc 1 1021 0
 2320 0012 07AB     		add	r3, sp, #28
 2321 0014 4FF00002 		mov	r2, #0
 2322 0018 1A70     		strb	r2, [r3, #0]
 2323              		.loc 1 1022 0
 2324 001a 06AB     		add	r3, sp, #24
 2325 001c 4FF00002 		mov	r2, #0
 2326 0020 1A70     		strb	r2, [r3, #0]
 2327              		.loc 1 1023 0
 2328 0022 05AB     		add	r3, sp, #20
 2329 0024 4FF00002 		mov	r2, #0
 2330 0028 1A70     		strb	r2, [r3, #0]
 2331              		.loc 1 1027 0
 2332 002a 4FF00003 		mov	r3, #0
 2333 002e 0D93     		str	r3, [sp, #52]
 2334 0030 DAE0     		b	.L152
 2335              	.L164:
 2336              	.LBB5:
 2337              		.loc 1 1028 0
 2338 0032 4FF00003 		mov	r3, #0
 2339 0036 0B93     		str	r3, [sp, #44]
 2340              		.loc 1 1029 0
 2341 0038 4FF00003 		mov	r3, #0
 2342 003c ADF82A30 		strh	r3, [sp, #42]	@ movhi
 2343              		.loc 1 1030 0
 2344 0040 4FF00003 		mov	r3, #0
 2345 0044 ADF82830 		strh	r3, [sp, #40]	@ movhi
 2346              		.loc 1 1031 0
 2347 0048 4FF00003 		mov	r3, #0
 2348 004c ADF82630 		strh	r3, [sp, #38]	@ movhi
 2349              		.loc 1 1034 0
 2350 0050 0D98     		ldr	r0, [sp, #52]
 2351 0052 FFF7FEFF 		bl	tryget_socket
 2352 0056 0346     		mov	r3, r0
 2353 0058 0893     		str	r3, [sp, #32]
 2354              		.loc 1 1035 0
 2355 005a 089B     		ldr	r3, [sp, #32]
 2356 005c 002B     		cmp	r3, #0
 2357 005e 0ED0     		beq	.L153
 2358              		.loc 1 1036 0
 2359 0060 089B     		ldr	r3, [sp, #32]
 2360 0062 5B68     		ldr	r3, [r3, #4]
 2361 0064 0B93     		str	r3, [sp, #44]
 2362              		.loc 1 1037 0
 2363 0066 089B     		ldr	r3, [sp, #32]
 2364 0068 5B89     		ldrh	r3, [r3, #10]	@ movhi
 2365 006a ADF82A30 		strh	r3, [sp, #42]	@ movhi
 2366              		.loc 1 1038 0
 2367 006e 089B     		ldr	r3, [sp, #32]
 2368 0070 9B89     		ldrh	r3, [r3, #12]	@ movhi
 2369 0072 ADF82830 		strh	r3, [sp, #40]	@ movhi
 2370              		.loc 1 1039 0
 2371 0076 089B     		ldr	r3, [sp, #32]
ARM GAS  /tmp/cc2wa78n.s 			page 43


 2372 0078 DB89     		ldrh	r3, [r3, #14]	@ movhi
 2373 007a ADF82630 		strh	r3, [sp, #38]	@ movhi
 2374              	.L153:
 2375              		.loc 1 1044 0
 2376 007e 029B     		ldr	r3, [sp, #8]
 2377 0080 002B     		cmp	r3, #0
 2378 0082 39D0     		beq	.L154
 2379              		.loc 1 1044 0 is_stmt 0 discriminator 1
 2380 0084 0D9B     		ldr	r3, [sp, #52]
 2381 0086 002B     		cmp	r3, #0
 2382 0088 01DA     		bge	.L155
 2383 008a 03F10703 		add	r3, r3, #7
 2384              	.L155:
 2385 008e 4FEAE303 		asr	r3, r3, #3
 2386 0092 029A     		ldr	r2, [sp, #8]
 2387 0094 D35C     		ldrb	r3, [r2, r3]	@ zero_extendqisi2
 2388 0096 1A46     		mov	r2, r3
 2389 0098 0D9B     		ldr	r3, [sp, #52]
 2390 009a 03F00703 		and	r3, r3, #7
 2391 009e 42FA03F3 		asr	r3, r2, r3
 2392 00a2 03F00103 		and	r3, r3, #1
 2393 00a6 DBB2     		uxtb	r3, r3
 2394 00a8 002B     		cmp	r3, #0
 2395 00aa 25D0     		beq	.L154
 2396 00ac 0B9B     		ldr	r3, [sp, #44]
 2397 00ae 002B     		cmp	r3, #0
 2398 00b0 03D1     		bne	.L156
 2399 00b2 BDF92A30 		ldrsh	r3, [sp, #42]
 2400 00b6 002B     		cmp	r3, #0
 2401 00b8 1EDD     		ble	.L154
 2402              	.L156:
 2403              		.loc 1 1045 0 is_stmt 1
 2404 00ba 0D9B     		ldr	r3, [sp, #52]
 2405 00bc 002B     		cmp	r3, #0
 2406 00be 01DA     		bge	.L157
 2407 00c0 03F10703 		add	r3, r3, #7
 2408              	.L157:
 2409 00c4 4FEAE303 		asr	r3, r3, #3
 2410 00c8 0EA9     		add	r1, sp, #56
 2411 00ca CA18     		adds	r2, r1, r3
 2412 00cc 12F81C2C 		ldrb	r2, [r2, #-28]	@ zero_extendqisi2
 2413 00d0 D1B2     		uxtb	r1, r2
 2414 00d2 0D9A     		ldr	r2, [sp, #52]
 2415 00d4 02F00702 		and	r2, r2, #7
 2416 00d8 4FF00100 		mov	r0, #1
 2417 00dc 00FA02F2 		lsl	r2, r0, r2
 2418 00e0 D2B2     		uxtb	r2, r2
 2419 00e2 0A43     		orrs	r2, r2, r1
 2420 00e4 D2B2     		uxtb	r2, r2
 2421 00e6 D2B2     		uxtb	r2, r2
 2422 00e8 0EA9     		add	r1, sp, #56
 2423 00ea CB18     		adds	r3, r1, r3
 2424 00ec 03F81C2C 		strb	r2, [r3, #-28]
 2425              		.loc 1 1047 0
 2426 00f0 0C9B     		ldr	r3, [sp, #48]
 2427 00f2 03F10103 		add	r3, r3, #1
 2428 00f6 0C93     		str	r3, [sp, #48]
ARM GAS  /tmp/cc2wa78n.s 			page 44


 2429              	.L154:
 2430              		.loc 1 1050 0
 2431 00f8 019B     		ldr	r3, [sp, #4]
 2432 00fa 002B     		cmp	r3, #0
 2433 00fc 36D0     		beq	.L158
 2434              		.loc 1 1050 0 is_stmt 0 discriminator 1
 2435 00fe 0D9B     		ldr	r3, [sp, #52]
 2436 0100 002B     		cmp	r3, #0
 2437 0102 01DA     		bge	.L159
 2438 0104 03F10703 		add	r3, r3, #7
 2439              	.L159:
 2440 0108 4FEAE303 		asr	r3, r3, #3
 2441 010c 019A     		ldr	r2, [sp, #4]
 2442 010e D35C     		ldrb	r3, [r2, r3]	@ zero_extendqisi2
 2443 0110 1A46     		mov	r2, r3
 2444 0112 0D9B     		ldr	r3, [sp, #52]
 2445 0114 03F00703 		and	r3, r3, #7
 2446 0118 42FA03F3 		asr	r3, r2, r3
 2447 011c 03F00103 		and	r3, r3, #1
 2448 0120 DBB2     		uxtb	r3, r3
 2449 0122 002B     		cmp	r3, #0
 2450 0124 22D0     		beq	.L158
 2451 0126 BDF82830 		ldrh	r3, [sp, #40]
 2452 012a 002B     		cmp	r3, #0
 2453 012c 1ED0     		beq	.L158
 2454              		.loc 1 1051 0 is_stmt 1
 2455 012e 0D9B     		ldr	r3, [sp, #52]
 2456 0130 002B     		cmp	r3, #0
 2457 0132 01DA     		bge	.L160
 2458 0134 03F10703 		add	r3, r3, #7
 2459              	.L160:
 2460 0138 4FEAE303 		asr	r3, r3, #3
 2461 013c 0EA9     		add	r1, sp, #56
 2462 013e CA18     		adds	r2, r1, r3
 2463 0140 12F8202C 		ldrb	r2, [r2, #-32]	@ zero_extendqisi2
 2464 0144 D1B2     		uxtb	r1, r2
 2465 0146 0D9A     		ldr	r2, [sp, #52]
 2466 0148 02F00702 		and	r2, r2, #7
 2467 014c 4FF00100 		mov	r0, #1
 2468 0150 00FA02F2 		lsl	r2, r0, r2
 2469 0154 D2B2     		uxtb	r2, r2
 2470 0156 0A43     		orrs	r2, r2, r1
 2471 0158 D2B2     		uxtb	r2, r2
 2472 015a D2B2     		uxtb	r2, r2
 2473 015c 0EA9     		add	r1, sp, #56
 2474 015e CB18     		adds	r3, r1, r3
 2475 0160 03F8202C 		strb	r2, [r3, #-32]
 2476              		.loc 1 1053 0
 2477 0164 0C9B     		ldr	r3, [sp, #48]
 2478 0166 03F10103 		add	r3, r3, #1
 2479 016a 0C93     		str	r3, [sp, #48]
 2480              	.L158:
 2481              		.loc 1 1056 0
 2482 016c 009B     		ldr	r3, [sp, #0]
 2483 016e 002B     		cmp	r3, #0
 2484 0170 36D0     		beq	.L161
 2485              		.loc 1 1056 0 is_stmt 0 discriminator 1
ARM GAS  /tmp/cc2wa78n.s 			page 45


 2486 0172 0D9B     		ldr	r3, [sp, #52]
 2487 0174 002B     		cmp	r3, #0
 2488 0176 01DA     		bge	.L162
 2489 0178 03F10703 		add	r3, r3, #7
 2490              	.L162:
 2491 017c 4FEAE303 		asr	r3, r3, #3
 2492 0180 009A     		ldr	r2, [sp, #0]
 2493 0182 D35C     		ldrb	r3, [r2, r3]	@ zero_extendqisi2
 2494 0184 1A46     		mov	r2, r3
 2495 0186 0D9B     		ldr	r3, [sp, #52]
 2496 0188 03F00703 		and	r3, r3, #7
 2497 018c 42FA03F3 		asr	r3, r2, r3
 2498 0190 03F00103 		and	r3, r3, #1
 2499 0194 DBB2     		uxtb	r3, r3
 2500 0196 002B     		cmp	r3, #0
 2501 0198 22D0     		beq	.L161
 2502 019a BDF82630 		ldrh	r3, [sp, #38]
 2503 019e 002B     		cmp	r3, #0
 2504 01a0 1ED0     		beq	.L161
 2505              		.loc 1 1057 0 is_stmt 1
 2506 01a2 0D9B     		ldr	r3, [sp, #52]
 2507 01a4 002B     		cmp	r3, #0
 2508 01a6 01DA     		bge	.L163
 2509 01a8 03F10703 		add	r3, r3, #7
 2510              	.L163:
 2511 01ac 4FEAE303 		asr	r3, r3, #3
 2512 01b0 0EA9     		add	r1, sp, #56
 2513 01b2 CA18     		adds	r2, r1, r3
 2514 01b4 12F8242C 		ldrb	r2, [r2, #-36]	@ zero_extendqisi2
 2515 01b8 D1B2     		uxtb	r1, r2
 2516 01ba 0D9A     		ldr	r2, [sp, #52]
 2517 01bc 02F00702 		and	r2, r2, #7
 2518 01c0 4FF00100 		mov	r0, #1
 2519 01c4 00FA02F2 		lsl	r2, r0, r2
 2520 01c8 D2B2     		uxtb	r2, r2
 2521 01ca 0A43     		orrs	r2, r2, r1
 2522 01cc D2B2     		uxtb	r2, r2
 2523 01ce D2B2     		uxtb	r2, r2
 2524 01d0 0EA9     		add	r1, sp, #56
 2525 01d2 CB18     		adds	r3, r1, r3
 2526 01d4 03F8242C 		strb	r2, [r3, #-36]
 2527              		.loc 1 1059 0
 2528 01d8 0C9B     		ldr	r3, [sp, #48]
 2529 01da 03F10103 		add	r3, r3, #1
 2530 01de 0C93     		str	r3, [sp, #48]
 2531              	.L161:
 2532              	.LBE5:
 2533              		.loc 1 1027 0
 2534 01e0 0D9B     		ldr	r3, [sp, #52]
 2535 01e2 03F10103 		add	r3, r3, #1
 2536 01e6 0D93     		str	r3, [sp, #52]
 2537              	.L152:
 2538              		.loc 1 1027 0 is_stmt 0 discriminator 1
 2539 01e8 0D9A     		ldr	r2, [sp, #52]
 2540 01ea 039B     		ldr	r3, [sp, #12]
 2541 01ec 9A42     		cmp	r2, r3
 2542 01ee FFF620AF 		blt	.L164
ARM GAS  /tmp/cc2wa78n.s 			page 46


 2543              		.loc 1 1063 0 is_stmt 1
 2544 01f2 109B     		ldr	r3, [sp, #64]
 2545 01f4 9DF81C20 		ldrb	r2, [sp, #28]
 2546 01f8 1A70     		strb	r2, [r3, #0]
 2547              		.loc 1 1064 0
 2548 01fa 119B     		ldr	r3, [sp, #68]
 2549 01fc 9DF81820 		ldrb	r2, [sp, #24]
 2550 0200 1A70     		strb	r2, [r3, #0]
 2551              		.loc 1 1065 0
 2552 0202 129B     		ldr	r3, [sp, #72]
 2553 0204 9DF81420 		ldrb	r2, [sp, #20]
 2554 0208 1A70     		strb	r2, [r3, #0]
 2555              		.loc 1 1067 0
 2556 020a 0C9B     		ldr	r3, [sp, #48]
 2557 020c 002B     		cmp	r3, #0
 2558 020e 01DA     		bge	.L165
 2559              		.loc 1 1067 0 is_stmt 0 discriminator 1
 2560 0210 FFF7FEFF 		bl	port_halt
 2561              	.L165:
 2562              		.loc 1 1068 0 is_stmt 1
 2563 0214 0C9B     		ldr	r3, [sp, #48]
 2564              		.loc 1 1069 0
 2565 0216 1846     		mov	r0, r3
 2566 0218 0FB0     		add	sp, sp, #60
 2567 021a 00BD     		pop	{pc}
 2568              		.cfi_endproc
 2569              	.LFE24:
 2570              		.size	lwip_selscan, .-lwip_selscan
 2571 021c AFF30080 		.section	.text.lwip_select,"ax",%progbits
 2572              		.align	2
 2573              		.p2align 4,,15
 2574              		.global	lwip_select
 2575              		.thumb
 2576              		.thumb_func
 2577              		.type	lwip_select, %function
 2578              	lwip_select:
 2579              	.LFB25:
 2580              		.loc 1 1077 0
 2581              		.cfi_startproc
 2582              		@ args = 4, pretend = 0, frame = 88
 2583              		@ frame_needed = 0, uses_anonymous_args = 0
 2584 0000 00B5     		push	{lr}
 2585              	.LCFI31:
 2586              		.cfi_def_cfa_offset 4
 2587              		.cfi_offset 14, -4
 2588 0002 9BB0     		sub	sp, sp, #108
 2589              	.LCFI32:
 2590              		.cfi_def_cfa_offset 112
 2591 0004 0790     		str	r0, [sp, #28]
 2592 0006 0691     		str	r1, [sp, #24]
 2593 0008 0592     		str	r2, [sp, #20]
 2594 000a 0493     		str	r3, [sp, #16]
 2595              		.loc 1 1078 0
 2596 000c 4FF00003 		mov	r3, #0
 2597 0010 1993     		str	r3, [sp, #100]
 2598              		.loc 1 1094 0
 2599 0012 12AB     		add	r3, sp, #72
ARM GAS  /tmp/cc2wa78n.s 			page 47


 2600 0014 0093     		str	r3, [sp, #0]
 2601 0016 11AB     		add	r3, sp, #68
 2602 0018 0193     		str	r3, [sp, #4]
 2603 001a 10AB     		add	r3, sp, #64
 2604 001c 0293     		str	r3, [sp, #8]
 2605 001e 0798     		ldr	r0, [sp, #28]
 2606 0020 0699     		ldr	r1, [sp, #24]
 2607 0022 059A     		ldr	r2, [sp, #20]
 2608 0024 049B     		ldr	r3, [sp, #16]
 2609 0026 FFF7FEFF 		bl	lwip_selscan
 2610 002a 0346     		mov	r3, r0
 2611 002c 1893     		str	r3, [sp, #96]
 2612              		.loc 1 1097 0
 2613 002e 189B     		ldr	r3, [sp, #96]
 2614 0030 002B     		cmp	r3, #0
 2615 0032 40F0A981 		bne	.L167
 2616              		.loc 1 1098 0
 2617 0036 1C9B     		ldr	r3, [sp, #112]
 2618 0038 002B     		cmp	r3, #0
 2619 003a 08D0     		beq	.L168
 2620              		.loc 1 1098 0 is_stmt 0 discriminator 1
 2621 003c 1C9B     		ldr	r3, [sp, #112]
 2622 003e 1B68     		ldr	r3, [r3, #0]
 2623 0040 002B     		cmp	r3, #0
 2624 0042 04D1     		bne	.L168
 2625 0044 1C9B     		ldr	r3, [sp, #112]
 2626 0046 5B68     		ldr	r3, [r3, #4]
 2627 0048 002B     		cmp	r3, #0
 2628 004a 00F09A81 		beq	.L204
 2629              	.L168:
 2630              		.loc 1 1110 0 is_stmt 1
 2631 004e 4FF00003 		mov	r3, #0
 2632 0052 0993     		str	r3, [sp, #36]
 2633              		.loc 1 1111 0
 2634 0054 4FF00003 		mov	r3, #0
 2635 0058 0A93     		str	r3, [sp, #40]
 2636              		.loc 1 1112 0
 2637 005a 069B     		ldr	r3, [sp, #24]
 2638 005c 0B93     		str	r3, [sp, #44]
 2639              		.loc 1 1113 0
 2640 005e 059B     		ldr	r3, [sp, #20]
 2641 0060 0C93     		str	r3, [sp, #48]
 2642              		.loc 1 1114 0
 2643 0062 049B     		ldr	r3, [sp, #16]
 2644 0064 0D93     		str	r3, [sp, #52]
 2645              		.loc 1 1115 0
 2646 0066 4FF00003 		mov	r3, #0
 2647 006a 0E93     		str	r3, [sp, #56]
 2648              		.loc 1 1116 0
 2649 006c 09AB     		add	r3, sp, #36
 2650 006e 03F11803 		add	r3, r3, #24
 2651 0072 1846     		mov	r0, r3
 2652 0074 4FF00001 		mov	r1, #0
 2653 0078 FFF7FEFF 		bl	sys_sem_new
 2654 007c 0346     		mov	r3, r0
 2655 007e 8DF85730 		strb	r3, [sp, #87]
 2656              		.loc 1 1117 0
ARM GAS  /tmp/cc2wa78n.s 			page 48


 2657 0082 9DF95730 		ldrsb	r3, [sp, #87]
 2658 0086 002B     		cmp	r3, #0
 2659 0088 02D0     		beq	.L169
 2660              		.loc 1 1120 0
 2661 008a 4FF0FF33 		mov	r3, #-1
 2662 008e 91E1     		b	.L170
 2663              	.L169:
 2664              		.loc 1 1127 0
 2665 0090 40F20003 		movw	r3, #:lower16:select_cb_list
 2666 0094 C0F20003 		movt	r3, #:upper16:select_cb_list
 2667 0098 1B68     		ldr	r3, [r3, #0]
 2668 009a 0993     		str	r3, [sp, #36]
 2669              		.loc 1 1128 0
 2670 009c 40F20003 		movw	r3, #:lower16:select_cb_list
 2671 00a0 C0F20003 		movt	r3, #:upper16:select_cb_list
 2672 00a4 1B68     		ldr	r3, [r3, #0]
 2673 00a6 002B     		cmp	r3, #0
 2674 00a8 06D0     		beq	.L171
 2675              		.loc 1 1129 0
 2676 00aa 40F20003 		movw	r3, #:lower16:select_cb_list
 2677 00ae C0F20003 		movt	r3, #:upper16:select_cb_list
 2678 00b2 1B68     		ldr	r3, [r3, #0]
 2679 00b4 09AA     		add	r2, sp, #36
 2680 00b6 5A60     		str	r2, [r3, #4]
 2681              	.L171:
 2682              		.loc 1 1131 0
 2683 00b8 40F20003 		movw	r3, #:lower16:select_cb_list
 2684 00bc C0F20003 		movt	r3, #:upper16:select_cb_list
 2685 00c0 09AA     		add	r2, sp, #36
 2686 00c2 1A60     		str	r2, [r3, #0]
 2687              		.loc 1 1133 0
 2688 00c4 40F20003 		movw	r3, #:lower16:select_cb_ctr
 2689 00c8 C0F20003 		movt	r3, #:upper16:select_cb_ctr
 2690 00cc 1B68     		ldr	r3, [r3, #0]
 2691 00ce 03F10102 		add	r2, r3, #1
 2692 00d2 40F20003 		movw	r3, #:lower16:select_cb_ctr
 2693 00d6 C0F20003 		movt	r3, #:upper16:select_cb_ctr
 2694 00da 1A60     		str	r2, [r3, #0]
 2695              		.loc 1 1139 0
 2696 00dc 4FF00003 		mov	r3, #0
 2697 00e0 1693     		str	r3, [sp, #88]
 2698 00e2 5EE0     		b	.L172
 2699              	.L181:
 2700              		.loc 1 1140 0
 2701 00e4 069B     		ldr	r3, [sp, #24]
 2702 00e6 002B     		cmp	r3, #0
 2703 00e8 13D0     		beq	.L173
 2704              		.loc 1 1140 0 is_stmt 0 discriminator 1
 2705 00ea 169B     		ldr	r3, [sp, #88]
 2706 00ec 002B     		cmp	r3, #0
 2707 00ee 01DA     		bge	.L174
 2708 00f0 03F10703 		add	r3, r3, #7
 2709              	.L174:
 2710 00f4 4FEAE303 		asr	r3, r3, #3
 2711 00f8 069A     		ldr	r2, [sp, #24]
 2712 00fa D35C     		ldrb	r3, [r2, r3]	@ zero_extendqisi2
 2713 00fc 1A46     		mov	r2, r3
ARM GAS  /tmp/cc2wa78n.s 			page 49


 2714 00fe 169B     		ldr	r3, [sp, #88]
 2715 0100 03F00703 		and	r3, r3, #7
 2716 0104 42FA03F3 		asr	r3, r2, r3
 2717 0108 03F00103 		and	r3, r3, #1
 2718 010c DBB2     		uxtb	r3, r3
 2719 010e 002B     		cmp	r3, #0
 2720 0110 2DD1     		bne	.L175
 2721              	.L173:
 2722              		.loc 1 1140 0 discriminator 2
 2723 0112 059B     		ldr	r3, [sp, #20]
 2724 0114 002B     		cmp	r3, #0
 2725 0116 13D0     		beq	.L176
 2726              		.loc 1 1141 0 is_stmt 1
 2727 0118 169B     		ldr	r3, [sp, #88]
 2728 011a 002B     		cmp	r3, #0
 2729 011c 01DA     		bge	.L177
 2730 011e 03F10703 		add	r3, r3, #7
 2731              	.L177:
 2732 0122 4FEAE303 		asr	r3, r3, #3
 2733 0126 059A     		ldr	r2, [sp, #20]
 2734 0128 D35C     		ldrb	r3, [r2, r3]	@ zero_extendqisi2
 2735 012a 1A46     		mov	r2, r3
 2736 012c 169B     		ldr	r3, [sp, #88]
 2737 012e 03F00703 		and	r3, r3, #7
 2738 0132 42FA03F3 		asr	r3, r2, r3
 2739 0136 03F00103 		and	r3, r3, #1
 2740 013a DBB2     		uxtb	r3, r3
 2741 013c 002B     		cmp	r3, #0
 2742 013e 16D1     		bne	.L175
 2743              	.L176:
 2744              		.loc 1 1141 0 is_stmt 0 discriminator 1
 2745 0140 049B     		ldr	r3, [sp, #16]
 2746 0142 002B     		cmp	r3, #0
 2747 0144 29D0     		beq	.L178
 2748              		.loc 1 1142 0 is_stmt 1
 2749 0146 169B     		ldr	r3, [sp, #88]
 2750 0148 002B     		cmp	r3, #0
 2751 014a 01DA     		bge	.L179
 2752 014c 03F10703 		add	r3, r3, #7
 2753              	.L179:
 2754 0150 4FEAE303 		asr	r3, r3, #3
 2755 0154 049A     		ldr	r2, [sp, #16]
 2756 0156 D35C     		ldrb	r3, [r2, r3]	@ zero_extendqisi2
 2757 0158 1A46     		mov	r2, r3
 2758 015a 169B     		ldr	r3, [sp, #88]
 2759 015c 03F00703 		and	r3, r3, #7
 2760 0160 42FA03F3 		asr	r3, r2, r3
 2761 0164 03F00103 		and	r3, r3, #1
 2762 0168 DBB2     		uxtb	r3, r3
 2763 016a 002B     		cmp	r3, #0
 2764 016c 15D0     		beq	.L178
 2765              	.L175:
 2766              	.LBB6:
 2767              		.loc 1 1143 0
 2768 016e 1698     		ldr	r0, [sp, #88]
 2769 0170 FFF7FEFF 		bl	tryget_socket
 2770 0174 0346     		mov	r3, r0
ARM GAS  /tmp/cc2wa78n.s 			page 50


 2771 0176 1493     		str	r3, [sp, #80]
 2772              		.loc 1 1144 0
 2773 0178 149B     		ldr	r3, [sp, #80]
 2774 017a 002B     		cmp	r3, #0
 2775 017c 01D1     		bne	.L180
 2776              		.loc 1 1144 0 is_stmt 0 discriminator 1
 2777 017e FFF7FEFF 		bl	port_halt
 2778              	.L180:
 2779              		.loc 1 1146 0 is_stmt 1
 2780 0182 149B     		ldr	r3, [sp, #80]
 2781 0184 5B69     		ldr	r3, [r3, #20]
 2782 0186 03F10102 		add	r2, r3, #1
 2783 018a 149B     		ldr	r3, [sp, #80]
 2784 018c 5A61     		str	r2, [r3, #20]
 2785              		.loc 1 1147 0
 2786 018e 149B     		ldr	r3, [sp, #80]
 2787 0190 5B69     		ldr	r3, [r3, #20]
 2788 0192 002B     		cmp	r3, #0
 2789 0194 01DC     		bgt	.L178
 2790              		.loc 1 1147 0 is_stmt 0 discriminator 1
 2791 0196 FFF7FEFF 		bl	port_halt
 2792              	.L178:
 2793              	.LBE6:
 2794              		.loc 1 1139 0 is_stmt 1
 2795 019a 169B     		ldr	r3, [sp, #88]
 2796 019c 03F10103 		add	r3, r3, #1
 2797 01a0 1693     		str	r3, [sp, #88]
 2798              	.L172:
 2799              		.loc 1 1139 0 is_stmt 0 discriminator 1
 2800 01a2 169A     		ldr	r2, [sp, #88]
 2801 01a4 079B     		ldr	r3, [sp, #28]
 2802 01a6 9A42     		cmp	r2, r3
 2803 01a8 9CDB     		blt	.L181
 2804              		.loc 1 1154 0 is_stmt 1
 2805 01aa 12AB     		add	r3, sp, #72
 2806 01ac 0093     		str	r3, [sp, #0]
 2807 01ae 11AB     		add	r3, sp, #68
 2808 01b0 0193     		str	r3, [sp, #4]
 2809 01b2 10AB     		add	r3, sp, #64
 2810 01b4 0293     		str	r3, [sp, #8]
 2811 01b6 0798     		ldr	r0, [sp, #28]
 2812 01b8 0699     		ldr	r1, [sp, #24]
 2813 01ba 059A     		ldr	r2, [sp, #20]
 2814 01bc 049B     		ldr	r3, [sp, #16]
 2815 01be FFF7FEFF 		bl	lwip_selscan
 2816 01c2 0346     		mov	r3, r0
 2817 01c4 1893     		str	r3, [sp, #96]
 2818              		.loc 1 1155 0
 2819 01c6 189B     		ldr	r3, [sp, #96]
 2820 01c8 002B     		cmp	r3, #0
 2821 01ca 2CD1     		bne	.L182
 2822              		.loc 1 1157 0
 2823 01cc 1C9B     		ldr	r3, [sp, #112]
 2824 01ce 002B     		cmp	r3, #0
 2825 01d0 03D1     		bne	.L183
 2826              		.loc 1 1159 0
 2827 01d2 4FF00003 		mov	r3, #0
ARM GAS  /tmp/cc2wa78n.s 			page 51


 2828 01d6 1793     		str	r3, [sp, #92]
 2829 01d8 1CE0     		b	.L184
 2830              	.L183:
 2831              		.loc 1 1161 0
 2832 01da 1C9B     		ldr	r3, [sp, #112]
 2833 01dc 1B68     		ldr	r3, [r3, #0]
 2834 01de 4FF47A72 		mov	r2, #1000
 2835 01e2 02FB03F1 		mul	r1, r2, r3
 2836 01e6 1C9B     		ldr	r3, [sp, #112]
 2837 01e8 5B68     		ldr	r3, [r3, #4]
 2838 01ea 03F5FA72 		add	r2, r3, #500
 2839 01ee 44F6D353 		movw	r3, #19923
 2840 01f2 C1F26203 		movt	r3, 4194
 2841 01f6 83FB0203 		smull	r0, r3, r3, r2
 2842 01fa 4FEAA310 		asr	r0, r3, #6
 2843 01fe 4FEAE273 		asr	r3, r2, #31
 2844 0202 C31A     		subs	r3, r0, r3
 2845 0204 CB18     		adds	r3, r1, r3
 2846 0206 1793     		str	r3, [sp, #92]
 2847              		.loc 1 1162 0
 2848 0208 179B     		ldr	r3, [sp, #92]
 2849 020a 002B     		cmp	r3, #0
 2850 020c 02D1     		bne	.L184
 2851              		.loc 1 1164 0
 2852 020e 4FF00103 		mov	r3, #1
 2853 0212 1793     		str	r3, [sp, #92]
 2854              	.L184:
 2855              		.loc 1 1168 0
 2856 0214 09AB     		add	r3, sp, #36
 2857 0216 03F11803 		add	r3, r3, #24
 2858 021a 1846     		mov	r0, r3
 2859 021c 1799     		ldr	r1, [sp, #92]
 2860 021e FFF7FEFF 		bl	sys_arch_sem_wait
 2861 0222 0346     		mov	r3, r0
 2862 0224 1993     		str	r3, [sp, #100]
 2863              	.L182:
 2864              		.loc 1 1171 0
 2865 0226 4FF00003 		mov	r3, #0
 2866 022a 1693     		str	r3, [sp, #88]
 2867 022c 5EE0     		b	.L185
 2868              	.L194:
 2869              		.loc 1 1172 0
 2870 022e 069B     		ldr	r3, [sp, #24]
 2871 0230 002B     		cmp	r3, #0
 2872 0232 13D0     		beq	.L186
 2873              		.loc 1 1172 0 is_stmt 0 discriminator 1
 2874 0234 169B     		ldr	r3, [sp, #88]
 2875 0236 002B     		cmp	r3, #0
 2876 0238 01DA     		bge	.L187
 2877 023a 03F10703 		add	r3, r3, #7
 2878              	.L187:
 2879 023e 4FEAE303 		asr	r3, r3, #3
 2880 0242 069A     		ldr	r2, [sp, #24]
 2881 0244 D35C     		ldrb	r3, [r2, r3]	@ zero_extendqisi2
 2882 0246 1A46     		mov	r2, r3
 2883 0248 169B     		ldr	r3, [sp, #88]
 2884 024a 03F00703 		and	r3, r3, #7
ARM GAS  /tmp/cc2wa78n.s 			page 52


 2885 024e 42FA03F3 		asr	r3, r2, r3
 2886 0252 03F00103 		and	r3, r3, #1
 2887 0256 DBB2     		uxtb	r3, r3
 2888 0258 002B     		cmp	r3, #0
 2889 025a 2DD1     		bne	.L188
 2890              	.L186:
 2891              		.loc 1 1172 0 discriminator 2
 2892 025c 059B     		ldr	r3, [sp, #20]
 2893 025e 002B     		cmp	r3, #0
 2894 0260 13D0     		beq	.L189
 2895              		.loc 1 1173 0 is_stmt 1
 2896 0262 169B     		ldr	r3, [sp, #88]
 2897 0264 002B     		cmp	r3, #0
 2898 0266 01DA     		bge	.L190
 2899 0268 03F10703 		add	r3, r3, #7
 2900              	.L190:
 2901 026c 4FEAE303 		asr	r3, r3, #3
 2902 0270 059A     		ldr	r2, [sp, #20]
 2903 0272 D35C     		ldrb	r3, [r2, r3]	@ zero_extendqisi2
 2904 0274 1A46     		mov	r2, r3
 2905 0276 169B     		ldr	r3, [sp, #88]
 2906 0278 03F00703 		and	r3, r3, #7
 2907 027c 42FA03F3 		asr	r3, r2, r3
 2908 0280 03F00103 		and	r3, r3, #1
 2909 0284 DBB2     		uxtb	r3, r3
 2910 0286 002B     		cmp	r3, #0
 2911 0288 16D1     		bne	.L188
 2912              	.L189:
 2913              		.loc 1 1173 0 is_stmt 0 discriminator 1
 2914 028a 049B     		ldr	r3, [sp, #16]
 2915 028c 002B     		cmp	r3, #0
 2916 028e 29D0     		beq	.L191
 2917              		.loc 1 1174 0 is_stmt 1
 2918 0290 169B     		ldr	r3, [sp, #88]
 2919 0292 002B     		cmp	r3, #0
 2920 0294 01DA     		bge	.L192
 2921 0296 03F10703 		add	r3, r3, #7
 2922              	.L192:
 2923 029a 4FEAE303 		asr	r3, r3, #3
 2924 029e 049A     		ldr	r2, [sp, #16]
 2925 02a0 D35C     		ldrb	r3, [r2, r3]	@ zero_extendqisi2
 2926 02a2 1A46     		mov	r2, r3
 2927 02a4 169B     		ldr	r3, [sp, #88]
 2928 02a6 03F00703 		and	r3, r3, #7
 2929 02aa 42FA03F3 		asr	r3, r2, r3
 2930 02ae 03F00103 		and	r3, r3, #1
 2931 02b2 DBB2     		uxtb	r3, r3
 2932 02b4 002B     		cmp	r3, #0
 2933 02b6 15D0     		beq	.L191
 2934              	.L188:
 2935              	.LBB7:
 2936              		.loc 1 1175 0
 2937 02b8 1698     		ldr	r0, [sp, #88]
 2938 02ba FFF7FEFF 		bl	tryget_socket
 2939 02be 0346     		mov	r3, r0
 2940 02c0 1393     		str	r3, [sp, #76]
 2941              		.loc 1 1176 0
ARM GAS  /tmp/cc2wa78n.s 			page 53


 2942 02c2 139B     		ldr	r3, [sp, #76]
 2943 02c4 002B     		cmp	r3, #0
 2944 02c6 01D1     		bne	.L193
 2945              		.loc 1 1176 0 is_stmt 0 discriminator 1
 2946 02c8 FFF7FEFF 		bl	port_halt
 2947              	.L193:
 2948              		.loc 1 1178 0 is_stmt 1
 2949 02cc 139B     		ldr	r3, [sp, #76]
 2950 02ce 5B69     		ldr	r3, [r3, #20]
 2951 02d0 03F1FF32 		add	r2, r3, #-1
 2952 02d4 139B     		ldr	r3, [sp, #76]
 2953 02d6 5A61     		str	r2, [r3, #20]
 2954              		.loc 1 1179 0
 2955 02d8 139B     		ldr	r3, [sp, #76]
 2956 02da 5B69     		ldr	r3, [r3, #20]
 2957 02dc 002B     		cmp	r3, #0
 2958 02de 01DA     		bge	.L191
 2959              		.loc 1 1179 0 is_stmt 0 discriminator 1
 2960 02e0 FFF7FEFF 		bl	port_halt
 2961              	.L191:
 2962              	.LBE7:
 2963              		.loc 1 1171 0 is_stmt 1
 2964 02e4 169B     		ldr	r3, [sp, #88]
 2965 02e6 03F10103 		add	r3, r3, #1
 2966 02ea 1693     		str	r3, [sp, #88]
 2967              	.L185:
 2968              		.loc 1 1171 0 is_stmt 0 discriminator 1
 2969 02ec 169A     		ldr	r2, [sp, #88]
 2970 02ee 079B     		ldr	r3, [sp, #28]
 2971 02f0 9A42     		cmp	r2, r3
 2972 02f2 9CDB     		blt	.L194
 2973              		.loc 1 1185 0 is_stmt 1
 2974 02f4 099B     		ldr	r3, [sp, #36]
 2975 02f6 002B     		cmp	r3, #0
 2976 02f8 02D0     		beq	.L195
 2977              		.loc 1 1186 0
 2978 02fa 099B     		ldr	r3, [sp, #36]
 2979 02fc 0A9A     		ldr	r2, [sp, #40]
 2980 02fe 5A60     		str	r2, [r3, #4]
 2981              	.L195:
 2982              		.loc 1 1188 0
 2983 0300 40F20003 		movw	r3, #:lower16:select_cb_list
 2984 0304 C0F20003 		movt	r3, #:upper16:select_cb_list
 2985 0308 1A68     		ldr	r2, [r3, #0]
 2986 030a 09AB     		add	r3, sp, #36
 2987 030c 9A42     		cmp	r2, r3
 2988 030e 0BD1     		bne	.L196
 2989              		.loc 1 1189 0
 2990 0310 0A9B     		ldr	r3, [sp, #40]
 2991 0312 002B     		cmp	r3, #0
 2992 0314 01D0     		beq	.L197
 2993              		.loc 1 1189 0 is_stmt 0 discriminator 1
 2994 0316 FFF7FEFF 		bl	port_halt
 2995              	.L197:
 2996              		.loc 1 1190 0 is_stmt 1
 2997 031a 099A     		ldr	r2, [sp, #36]
 2998 031c 40F20003 		movw	r3, #:lower16:select_cb_list
ARM GAS  /tmp/cc2wa78n.s 			page 54


 2999 0320 C0F20003 		movt	r3, #:upper16:select_cb_list
 3000 0324 1A60     		str	r2, [r3, #0]
 3001 0326 07E0     		b	.L198
 3002              	.L196:
 3003              		.loc 1 1192 0
 3004 0328 0A9B     		ldr	r3, [sp, #40]
 3005 032a 002B     		cmp	r3, #0
 3006 032c 01D1     		bne	.L199
 3007              		.loc 1 1192 0 is_stmt 0 discriminator 1
 3008 032e FFF7FEFF 		bl	port_halt
 3009              	.L199:
 3010              		.loc 1 1193 0 is_stmt 1
 3011 0332 0A9B     		ldr	r3, [sp, #40]
 3012 0334 099A     		ldr	r2, [sp, #36]
 3013 0336 1A60     		str	r2, [r3, #0]
 3014              	.L198:
 3015              		.loc 1 1196 0
 3016 0338 40F20003 		movw	r3, #:lower16:select_cb_ctr
 3017 033c C0F20003 		movt	r3, #:upper16:select_cb_ctr
 3018 0340 1B68     		ldr	r3, [r3, #0]
 3019 0342 03F10102 		add	r2, r3, #1
 3020 0346 40F20003 		movw	r3, #:lower16:select_cb_ctr
 3021 034a C0F20003 		movt	r3, #:upper16:select_cb_ctr
 3022 034e 1A60     		str	r2, [r3, #0]
 3023              		.loc 1 1199 0
 3024 0350 09AB     		add	r3, sp, #36
 3025 0352 03F11803 		add	r3, r3, #24
 3026 0356 1846     		mov	r0, r3
 3027 0358 FFF7FEFF 		bl	sys_sem_free
 3028              		.loc 1 1200 0
 3029 035c 199B     		ldr	r3, [sp, #100]
 3030 035e B3F1FF3F 		cmp	r3, #-1
 3031 0362 10D0     		beq	.L205
 3032              	.L200:
 3033              		.loc 1 1209 0
 3034 0364 12AB     		add	r3, sp, #72
 3035 0366 0093     		str	r3, [sp, #0]
 3036 0368 11AB     		add	r3, sp, #68
 3037 036a 0193     		str	r3, [sp, #4]
 3038 036c 10AB     		add	r3, sp, #64
 3039 036e 0293     		str	r3, [sp, #8]
 3040 0370 0798     		ldr	r0, [sp, #28]
 3041 0372 0699     		ldr	r1, [sp, #24]
 3042 0374 059A     		ldr	r2, [sp, #20]
 3043 0376 049B     		ldr	r3, [sp, #16]
 3044 0378 FFF7FEFF 		bl	lwip_selscan
 3045 037c 0346     		mov	r3, r0
 3046 037e 1893     		str	r3, [sp, #96]
 3047 0380 02E0     		b	.L167
 3048              	.L204:
 3049              		.loc 1 1102 0
 3050 0382 00BF     		nop
 3051 0384 00E0     		b	.L167
 3052              	.L205:
 3053              		.loc 1 1205 0
 3054 0386 00BF     		nop
 3055              	.L167:
ARM GAS  /tmp/cc2wa78n.s 			page 55


 3056              		.loc 1 1215 0
 3057 0388 069B     		ldr	r3, [sp, #24]
 3058 038a 002B     		cmp	r3, #0
 3059 038c 03D0     		beq	.L201
 3060              		.loc 1 1216 0
 3061 038e 069B     		ldr	r3, [sp, #24]
 3062 0390 9DF84820 		ldrb	r2, [sp, #72]
 3063 0394 1A70     		strb	r2, [r3, #0]
 3064              	.L201:
 3065              		.loc 1 1218 0
 3066 0396 059B     		ldr	r3, [sp, #20]
 3067 0398 002B     		cmp	r3, #0
 3068 039a 03D0     		beq	.L202
 3069              		.loc 1 1219 0
 3070 039c 059B     		ldr	r3, [sp, #20]
 3071 039e 9DF84420 		ldrb	r2, [sp, #68]
 3072 03a2 1A70     		strb	r2, [r3, #0]
 3073              	.L202:
 3074              		.loc 1 1221 0
 3075 03a4 049B     		ldr	r3, [sp, #16]
 3076 03a6 002B     		cmp	r3, #0
 3077 03a8 03D0     		beq	.L203
 3078              		.loc 1 1222 0
 3079 03aa 049B     		ldr	r3, [sp, #16]
 3080 03ac 9DF84020 		ldrb	r2, [sp, #64]
 3081 03b0 1A70     		strb	r2, [r3, #0]
 3082              	.L203:
 3083              		.loc 1 1226 0
 3084 03b2 189B     		ldr	r3, [sp, #96]
 3085              	.L170:
 3086              		.loc 1 1227 0
 3087 03b4 1846     		mov	r0, r3
 3088 03b6 1BB0     		add	sp, sp, #108
 3089 03b8 00BD     		pop	{pc}
 3090              		.cfi_endproc
 3091              	.LFE25:
 3092              		.size	lwip_select, .-lwip_select
 3093 03ba 00BFAFF3 		.section	.text.event_callback,"ax",%progbits
 3093      0080
 3094              		.align	2
 3095              		.p2align 4,,15
 3096              		.thumb
 3097              		.thumb_func
 3098              		.type	event_callback, %function
 3099              	event_callback:
 3100              	.LFB26:
 3101              		.loc 1 1235 0
 3102              		.cfi_startproc
 3103              		@ args = 0, pretend = 0, frame = 32
 3104              		@ frame_needed = 0, uses_anonymous_args = 0
 3105 0000 00B5     		push	{lr}
 3106              	.LCFI33:
 3107              		.cfi_def_cfa_offset 4
 3108              		.cfi_offset 14, -4
 3109 0002 89B0     		sub	sp, sp, #36
 3110              	.LCFI34:
 3111              		.cfi_def_cfa_offset 40
ARM GAS  /tmp/cc2wa78n.s 			page 56


 3112 0004 0190     		str	r0, [sp, #4]
 3113 0006 1346     		mov	r3, r2
 3114 0008 0A46     		mov	r2, r1
 3115 000a 8DF80320 		strb	r2, [sp, #3]
 3116 000e ADF80030 		strh	r3, [sp, #0]	@ movhi
 3117              		.loc 1 1245 0
 3118 0012 019B     		ldr	r3, [sp, #4]
 3119 0014 002B     		cmp	r3, #0
 3120 0016 00F0F580 		beq	.L232
 3121              		.loc 1 1246 0
 3122 001a 019B     		ldr	r3, [sp, #4]
 3123 001c 9B69     		ldr	r3, [r3, #24]
 3124 001e 0793     		str	r3, [sp, #28]
 3125              		.loc 1 1247 0
 3126 0020 079B     		ldr	r3, [sp, #28]
 3127 0022 002B     		cmp	r3, #0
 3128 0024 12DA     		bge	.L208
 3129              		.loc 1 1254 0
 3130 0026 019B     		ldr	r3, [sp, #4]
 3131 0028 9B69     		ldr	r3, [r3, #24]
 3132 002a 002B     		cmp	r3, #0
 3133 002c 0BDA     		bge	.L209
 3134              		.loc 1 1255 0
 3135 002e 9DF80330 		ldrb	r3, [sp, #3]	@ zero_extendqisi2
 3136 0032 002B     		cmp	r3, #0
 3137 0034 40F0E880 		bne	.L233
 3138              		.loc 1 1256 0
 3139 0038 019B     		ldr	r3, [sp, #4]
 3140 003a 9B69     		ldr	r3, [r3, #24]
 3141 003c 03F1FF32 		add	r2, r3, #-1
 3142 0040 019B     		ldr	r3, [sp, #4]
 3143 0042 9A61     		str	r2, [r3, #24]
 3144              		.loc 1 1259 0
 3145 0044 E0E0     		b	.L233
 3146              	.L209:
 3147              		.loc 1 1261 0
 3148 0046 019B     		ldr	r3, [sp, #4]
 3149 0048 9B69     		ldr	r3, [r3, #24]
 3150 004a 0793     		str	r3, [sp, #28]
 3151              	.L208:
 3152              		.loc 1 1265 0
 3153 004c 0798     		ldr	r0, [sp, #28]
 3154 004e FFF7FEFF 		bl	get_socket
 3155 0052 0346     		mov	r3, r0
 3156 0054 0493     		str	r3, [sp, #16]
 3157              		.loc 1 1266 0
 3158 0056 049B     		ldr	r3, [sp, #16]
 3159 0058 002B     		cmp	r3, #0
 3160 005a 00F0D780 		beq	.L234
 3161              	.L212:
 3162              		.loc 1 1275 0
 3163 005e 9DF80330 		ldrb	r3, [sp, #3]	@ zero_extendqisi2
 3164 0062 042B     		cmp	r3, #4
 3165 0064 2BD8     		bhi	.L213
 3166 0066 01A2     		adr	r2, .L219
 3167 0068 52F823F0 		ldr	pc, [r2, r3, lsl #2]
 3168              		.align	2
ARM GAS  /tmp/cc2wa78n.s 			page 57


 3169              	.L219:
 3170 006c 81000000 		.word	.L214+1
 3171 0070 91000000 		.word	.L215+1
 3172 0074 A1000000 		.word	.L216+1
 3173 0078 AB000000 		.word	.L217+1
 3174 007c B5000000 		.word	.L218+1
 3175              	.L214:
 3176              		.loc 1 1277 0
 3177 0080 049B     		ldr	r3, [sp, #16]
 3178 0082 5B89     		ldrh	r3, [r3, #10]
 3179 0084 03F10103 		add	r3, r3, #1
 3180 0088 9AB2     		uxth	r2, r3
 3181 008a 049B     		ldr	r3, [sp, #16]
 3182 008c 5A81     		strh	r2, [r3, #10]	@ movhi
 3183              		.loc 1 1278 0
 3184 008e 19E0     		b	.L220
 3185              	.L215:
 3186              		.loc 1 1280 0
 3187 0090 049B     		ldr	r3, [sp, #16]
 3188 0092 5B89     		ldrh	r3, [r3, #10]
 3189 0094 03F1FF33 		add	r3, r3, #-1
 3190 0098 9AB2     		uxth	r2, r3
 3191 009a 049B     		ldr	r3, [sp, #16]
 3192 009c 5A81     		strh	r2, [r3, #10]	@ movhi
 3193              		.loc 1 1281 0
 3194 009e 11E0     		b	.L220
 3195              	.L216:
 3196              		.loc 1 1283 0
 3197 00a0 049B     		ldr	r3, [sp, #16]
 3198 00a2 4FF00102 		mov	r2, #1
 3199 00a6 9A81     		strh	r2, [r3, #12]	@ movhi
 3200              		.loc 1 1284 0
 3201 00a8 0CE0     		b	.L220
 3202              	.L217:
 3203              		.loc 1 1286 0
 3204 00aa 049B     		ldr	r3, [sp, #16]
 3205 00ac 4FF00002 		mov	r2, #0
 3206 00b0 9A81     		strh	r2, [r3, #12]	@ movhi
 3207              		.loc 1 1287 0
 3208 00b2 07E0     		b	.L220
 3209              	.L218:
 3210              		.loc 1 1289 0
 3211 00b4 049B     		ldr	r3, [sp, #16]
 3212 00b6 4FF00102 		mov	r2, #1
 3213 00ba DA81     		strh	r2, [r3, #14]	@ movhi
 3214              		.loc 1 1290 0
 3215 00bc 02E0     		b	.L220
 3216              	.L213:
 3217              		.loc 1 1292 0 discriminator 1
 3218 00be FFF7FEFF 		bl	port_halt
 3219              		.loc 1 1293 0
 3220 00c2 00BF     		nop
 3221              	.L220:
 3222              		.loc 1 1296 0
 3223 00c4 049B     		ldr	r3, [sp, #16]
 3224 00c6 5B69     		ldr	r3, [r3, #20]
 3225 00c8 002B     		cmp	r3, #0
ARM GAS  /tmp/cc2wa78n.s 			page 58


 3226 00ca 00F0A180 		beq	.L235
 3227 00ce 00E0     		b	.L221
 3228              	.L236:
 3229              		.loc 1 1343 0
 3230 00d0 00BF     		nop
 3231              	.L221:
 3232              		.loc 1 1309 0
 3233 00d2 40F20003 		movw	r3, #:lower16:select_cb_list
 3234 00d6 C0F20003 		movt	r3, #:upper16:select_cb_list
 3235 00da 1B68     		ldr	r3, [r3, #0]
 3236 00dc 0693     		str	r3, [sp, #24]
 3237 00de 8CE0     		b	.L222
 3238              	.L231:
 3239              		.loc 1 1310 0
 3240 00e0 069B     		ldr	r3, [sp, #24]
 3241 00e2 5B69     		ldr	r3, [r3, #20]
 3242 00e4 002B     		cmp	r3, #0
 3243 00e6 76D1     		bne	.L223
 3244              	.LBB8:
 3245              		.loc 1 1312 0
 3246 00e8 4FF00003 		mov	r3, #0
 3247 00ec 0593     		str	r3, [sp, #20]
 3248              		.loc 1 1314 0
 3249 00ee 049B     		ldr	r3, [sp, #16]
 3250 00f0 5B89     		ldrh	r3, [r3, #10]
 3251 00f2 1BB2     		sxth	r3, r3
 3252 00f4 002B     		cmp	r3, #0
 3253 00f6 1BDD     		ble	.L224
 3254              		.loc 1 1315 0
 3255 00f8 069B     		ldr	r3, [sp, #24]
 3256 00fa 9B68     		ldr	r3, [r3, #8]
 3257 00fc 002B     		cmp	r3, #0
 3258 00fe 17D0     		beq	.L224
 3259              		.loc 1 1315 0 is_stmt 0 discriminator 1
 3260 0100 069B     		ldr	r3, [sp, #24]
 3261 0102 9A68     		ldr	r2, [r3, #8]
 3262 0104 079B     		ldr	r3, [sp, #28]
 3263 0106 002B     		cmp	r3, #0
 3264 0108 01DA     		bge	.L225
 3265 010a 03F10703 		add	r3, r3, #7
 3266              	.L225:
 3267 010e 4FEAE303 		asr	r3, r3, #3
 3268 0112 D35C     		ldrb	r3, [r2, r3]	@ zero_extendqisi2
 3269 0114 1A46     		mov	r2, r3
 3270 0116 079B     		ldr	r3, [sp, #28]
 3271 0118 03F00703 		and	r3, r3, #7
 3272 011c 42FA03F3 		asr	r3, r2, r3
 3273 0120 03F00103 		and	r3, r3, #1
 3274 0124 DBB2     		uxtb	r3, r3
 3275 0126 002B     		cmp	r3, #0
 3276 0128 02D0     		beq	.L224
 3277              		.loc 1 1316 0 is_stmt 1
 3278 012a 4FF00103 		mov	r3, #1
 3279 012e 0593     		str	r3, [sp, #20]
 3280              	.L224:
 3281              		.loc 1 1319 0
 3282 0130 049B     		ldr	r3, [sp, #16]
ARM GAS  /tmp/cc2wa78n.s 			page 59


 3283 0132 9B89     		ldrh	r3, [r3, #12]
 3284 0134 002B     		cmp	r3, #0
 3285 0136 1ED0     		beq	.L226
 3286              		.loc 1 1320 0
 3287 0138 059B     		ldr	r3, [sp, #20]
 3288 013a 002B     		cmp	r3, #0
 3289 013c 1BD1     		bne	.L226
 3290              		.loc 1 1320 0 is_stmt 0 discriminator 1
 3291 013e 069B     		ldr	r3, [sp, #24]
 3292 0140 DB68     		ldr	r3, [r3, #12]
 3293 0142 002B     		cmp	r3, #0
 3294 0144 17D0     		beq	.L226
 3295 0146 069B     		ldr	r3, [sp, #24]
 3296 0148 DA68     		ldr	r2, [r3, #12]
 3297 014a 079B     		ldr	r3, [sp, #28]
 3298 014c 002B     		cmp	r3, #0
 3299 014e 01DA     		bge	.L227
 3300 0150 03F10703 		add	r3, r3, #7
 3301              	.L227:
 3302 0154 4FEAE303 		asr	r3, r3, #3
 3303 0158 D35C     		ldrb	r3, [r2, r3]	@ zero_extendqisi2
 3304 015a 1A46     		mov	r2, r3
 3305 015c 079B     		ldr	r3, [sp, #28]
 3306 015e 03F00703 		and	r3, r3, #7
 3307 0162 42FA03F3 		asr	r3, r2, r3
 3308 0166 03F00103 		and	r3, r3, #1
 3309 016a DBB2     		uxtb	r3, r3
 3310 016c 002B     		cmp	r3, #0
 3311 016e 02D0     		beq	.L226
 3312              		.loc 1 1321 0 is_stmt 1
 3313 0170 4FF00103 		mov	r3, #1
 3314 0174 0593     		str	r3, [sp, #20]
 3315              	.L226:
 3316              		.loc 1 1324 0
 3317 0176 049B     		ldr	r3, [sp, #16]
 3318 0178 DB89     		ldrh	r3, [r3, #14]
 3319 017a 002B     		cmp	r3, #0
 3320 017c 1ED0     		beq	.L228
 3321              		.loc 1 1325 0
 3322 017e 059B     		ldr	r3, [sp, #20]
 3323 0180 002B     		cmp	r3, #0
 3324 0182 1BD1     		bne	.L228
 3325              		.loc 1 1325 0 is_stmt 0 discriminator 1
 3326 0184 069B     		ldr	r3, [sp, #24]
 3327 0186 1B69     		ldr	r3, [r3, #16]
 3328 0188 002B     		cmp	r3, #0
 3329 018a 17D0     		beq	.L228
 3330 018c 069B     		ldr	r3, [sp, #24]
 3331 018e 1A69     		ldr	r2, [r3, #16]
 3332 0190 079B     		ldr	r3, [sp, #28]
 3333 0192 002B     		cmp	r3, #0
 3334 0194 01DA     		bge	.L229
 3335 0196 03F10703 		add	r3, r3, #7
 3336              	.L229:
 3337 019a 4FEAE303 		asr	r3, r3, #3
 3338 019e D35C     		ldrb	r3, [r2, r3]	@ zero_extendqisi2
 3339 01a0 1A46     		mov	r2, r3
ARM GAS  /tmp/cc2wa78n.s 			page 60


 3340 01a2 079B     		ldr	r3, [sp, #28]
 3341 01a4 03F00703 		and	r3, r3, #7
 3342 01a8 42FA03F3 		asr	r3, r2, r3
 3343 01ac 03F00103 		and	r3, r3, #1
 3344 01b0 DBB2     		uxtb	r3, r3
 3345 01b2 002B     		cmp	r3, #0
 3346 01b4 02D0     		beq	.L228
 3347              		.loc 1 1326 0 is_stmt 1
 3348 01b6 4FF00103 		mov	r3, #1
 3349 01ba 0593     		str	r3, [sp, #20]
 3350              	.L228:
 3351              		.loc 1 1329 0
 3352 01bc 059B     		ldr	r3, [sp, #20]
 3353 01be 002B     		cmp	r3, #0
 3354 01c0 09D0     		beq	.L223
 3355              		.loc 1 1330 0
 3356 01c2 069B     		ldr	r3, [sp, #24]
 3357 01c4 4FF00102 		mov	r2, #1
 3358 01c8 5A61     		str	r2, [r3, #20]
 3359              		.loc 1 1333 0
 3360 01ca 069B     		ldr	r3, [sp, #24]
 3361 01cc 03F11803 		add	r3, r3, #24
 3362 01d0 1846     		mov	r0, r3
 3363 01d2 FFF7FEFF 		bl	sys_sem_signal
 3364              	.L223:
 3365              	.LBE8:
 3366              		.loc 1 1337 0
 3367 01d6 40F20003 		movw	r3, #:lower16:select_cb_ctr
 3368 01da C0F20003 		movt	r3, #:upper16:select_cb_ctr
 3369 01de 1B68     		ldr	r3, [r3, #0]
 3370 01e0 0393     		str	r3, [sp, #12]
 3371              		.loc 1 1341 0
 3372 01e2 40F20003 		movw	r3, #:lower16:select_cb_ctr
 3373 01e6 C0F20003 		movt	r3, #:upper16:select_cb_ctr
 3374 01ea 1B68     		ldr	r3, [r3, #0]
 3375 01ec 039A     		ldr	r2, [sp, #12]
 3376 01ee 9A42     		cmp	r2, r3
 3377 01f0 7FF46EAF 		bne	.L236
 3378              	.L230:
 3379              		.loc 1 1309 0
 3380 01f4 069B     		ldr	r3, [sp, #24]
 3381 01f6 1B68     		ldr	r3, [r3, #0]
 3382 01f8 0693     		str	r3, [sp, #24]
 3383              	.L222:
 3384              		.loc 1 1309 0 is_stmt 0 discriminator 1
 3385 01fa 069B     		ldr	r3, [sp, #24]
 3386 01fc 002B     		cmp	r3, #0
 3387 01fe 7FF46FAF 		bne	.L231
 3388 0202 06E0     		b	.L206
 3389              	.L232:
 3390              		.loc 1 1270 0 is_stmt 1
 3391 0204 00BF     		nop
 3392 0206 04E0     		b	.L206
 3393              	.L233:
 3394              		.loc 1 1259 0
 3395 0208 00BF     		nop
 3396 020a 02E0     		b	.L206
ARM GAS  /tmp/cc2wa78n.s 			page 61


 3397              	.L234:
 3398              		.loc 1 1267 0
 3399 020c 00BF     		nop
 3400 020e 00E0     		b	.L206
 3401              	.L235:
 3402              		.loc 1 1299 0
 3403 0210 00BF     		nop
 3404              	.L206:
 3405              		.loc 1 1347 0
 3406 0212 09B0     		add	sp, sp, #36
 3407 0214 00BD     		pop	{pc}
 3408              		.cfi_endproc
 3409              	.LFE26:
 3410              		.size	event_callback, .-event_callback
 3411 0216 00BFAFF3 		.section	.text.lwip_shutdown,"ax",%progbits
 3411      0080AFF3 
 3411      0080
 3412              		.align	2
 3413              		.p2align 4,,15
 3414              		.global	lwip_shutdown
 3415              		.thumb
 3416              		.thumb_func
 3417              		.type	lwip_shutdown, %function
 3418              	lwip_shutdown:
 3419              	.LFB27:
 3420              		.loc 1 1355 0
 3421              		.cfi_startproc
 3422              		@ args = 0, pretend = 0, frame = 24
 3423              		@ frame_needed = 0, uses_anonymous_args = 0
 3424 0000 00B5     		push	{lr}
 3425              	.LCFI35:
 3426              		.cfi_def_cfa_offset 4
 3427              		.cfi_offset 14, -4
 3428 0002 87B0     		sub	sp, sp, #28
 3429              	.LCFI36:
 3430              		.cfi_def_cfa_offset 32
 3431 0004 0190     		str	r0, [sp, #4]
 3432 0006 0091     		str	r1, [sp, #0]
 3433              		.loc 1 1358 0
 3434 0008 4FF00003 		mov	r3, #0
 3435 000c 8DF81730 		strb	r3, [sp, #23]
 3436 0010 4FF00003 		mov	r3, #0
 3437 0014 8DF81630 		strb	r3, [sp, #22]
 3438              		.loc 1 1362 0
 3439 0018 0198     		ldr	r0, [sp, #4]
 3440 001a FFF7FEFF 		bl	get_socket
 3441 001e 0346     		mov	r3, r0
 3442 0020 0493     		str	r3, [sp, #16]
 3443              		.loc 1 1363 0
 3444 0022 049B     		ldr	r3, [sp, #16]
 3445 0024 002B     		cmp	r3, #0
 3446 0026 02D1     		bne	.L238
 3447              		.loc 1 1364 0
 3448 0028 4FF0FF33 		mov	r3, #-1
 3449 002c 65E0     		b	.L239
 3450              	.L238:
 3451              		.loc 1 1367 0
ARM GAS  /tmp/cc2wa78n.s 			page 62


 3452 002e 049B     		ldr	r3, [sp, #16]
 3453 0030 1B68     		ldr	r3, [r3, #0]
 3454 0032 002B     		cmp	r3, #0
 3455 0034 0BD0     		beq	.L240
 3456              		.loc 1 1368 0
 3457 0036 049B     		ldr	r3, [sp, #16]
 3458 0038 1B68     		ldr	r3, [r3, #0]
 3459 003a 1B78     		ldrb	r3, [r3, #0]	@ zero_extendqisi2
 3460 003c 102B     		cmp	r3, #16
 3461 003e 0DD0     		beq	.L241
 3462              		.loc 1 1369 0
 3463 0040 049B     		ldr	r3, [sp, #16]
 3464 0042 4FF05F02 		mov	r2, #95
 3465 0046 1A61     		str	r2, [r3, #16]
 3466              		.loc 1 1370 0
 3467 0048 4FF05F03 		mov	r3, #95
 3468 004c 55E0     		b	.L239
 3469              	.L240:
 3470              		.loc 1 1373 0
 3471 004e 049B     		ldr	r3, [sp, #16]
 3472 0050 4FF06B02 		mov	r2, #107
 3473 0054 1A61     		str	r2, [r3, #16]
 3474              		.loc 1 1374 0
 3475 0056 4FF06B03 		mov	r3, #107
 3476 005a 4EE0     		b	.L239
 3477              	.L241:
 3478              		.loc 1 1377 0
 3479 005c 009B     		ldr	r3, [sp, #0]
 3480 005e 002B     		cmp	r3, #0
 3481 0060 04D1     		bne	.L242
 3482              		.loc 1 1378 0
 3483 0062 4FF00103 		mov	r3, #1
 3484 0066 8DF81730 		strb	r3, [sp, #23]
 3485 006a 1AE0     		b	.L243
 3486              	.L242:
 3487              		.loc 1 1379 0
 3488 006c 009B     		ldr	r3, [sp, #0]
 3489 006e 012B     		cmp	r3, #1
 3490 0070 04D1     		bne	.L244
 3491              		.loc 1 1380 0
 3492 0072 4FF00103 		mov	r3, #1
 3493 0076 8DF81630 		strb	r3, [sp, #22]
 3494 007a 12E0     		b	.L243
 3495              	.L244:
 3496              		.loc 1 1381 0
 3497 007c 009B     		ldr	r3, [sp, #0]
 3498 007e 022B     		cmp	r3, #2
 3499 0080 08D1     		bne	.L245
 3500              		.loc 1 1382 0
 3501 0082 4FF00103 		mov	r3, #1
 3502 0086 8DF81730 		strb	r3, [sp, #23]
 3503              		.loc 1 1383 0
 3504 008a 4FF00103 		mov	r3, #1
 3505 008e 8DF81630 		strb	r3, [sp, #22]
 3506 0092 06E0     		b	.L243
 3507              	.L245:
 3508              		.loc 1 1385 0
ARM GAS  /tmp/cc2wa78n.s 			page 63


 3509 0094 049B     		ldr	r3, [sp, #16]
 3510 0096 4FF01602 		mov	r2, #22
 3511 009a 1A61     		str	r2, [r3, #16]
 3512              		.loc 1 1386 0
 3513 009c 4FF01603 		mov	r3, #22
 3514 00a0 2BE0     		b	.L239
 3515              	.L243:
 3516              		.loc 1 1388 0
 3517 00a2 049B     		ldr	r3, [sp, #16]
 3518 00a4 1968     		ldr	r1, [r3, #0]
 3519 00a6 9DF81720 		ldrb	r2, [sp, #23]	@ zero_extendqisi2
 3520 00aa 9DF81630 		ldrb	r3, [sp, #22]	@ zero_extendqisi2
 3521 00ae 0846     		mov	r0, r1
 3522 00b0 1146     		mov	r1, r2
 3523 00b2 1A46     		mov	r2, r3
 3524 00b4 FFF7FEFF 		bl	netconn_shutdown
 3525 00b8 0346     		mov	r3, r0
 3526 00ba 8DF80F30 		strb	r3, [sp, #15]
 3527              		.loc 1 1390 0
 3528 00be 9DF90F30 		ldrsb	r3, [sp, #15]
 3529 00c2 C3F10003 		rsb	r3, r3, #0
 3530 00c6 0F2B     		cmp	r3, #15
 3531 00c8 0AD8     		bhi	.L246
 3532              		.loc 1 1390 0 is_stmt 0 discriminator 1
 3533 00ca 9DF90F30 		ldrsb	r3, [sp, #15]
 3534 00ce C3F10002 		rsb	r2, r3, #0
 3535 00d2 40F20003 		movw	r3, #:lower16:err_to_errno_table
 3536 00d6 C0F20003 		movt	r3, #:upper16:err_to_errno_table
 3537 00da 53F82230 		ldr	r3, [r3, r2, lsl #2]
 3538 00de 01E0     		b	.L247
 3539              	.L246:
 3540              		.loc 1 1390 0 discriminator 2
 3541 00e0 4FF00503 		mov	r3, #5
 3542              	.L247:
 3543              		.loc 1 1390 0 discriminator 3
 3544 00e4 049A     		ldr	r2, [sp, #16]
 3545 00e6 1361     		str	r3, [r2, #16]
 3546              		.loc 1 1391 0 is_stmt 1 discriminator 3
 3547 00e8 9DF90F30 		ldrsb	r3, [sp, #15]
 3548 00ec 002B     		cmp	r3, #0
 3549 00ee 02D1     		bne	.L248
 3550              		.loc 1 1391 0 is_stmt 0 discriminator 1
 3551 00f0 4FF00003 		mov	r3, #0
 3552 00f4 01E0     		b	.L249
 3553              	.L248:
 3554              		.loc 1 1391 0 discriminator 2
 3555 00f6 4FF0FF33 		mov	r3, #-1
 3556              	.L249:
 3557              	.L239:
 3558              		.loc 1 1392 0 is_stmt 1
 3559 00fa 1846     		mov	r0, r3
 3560 00fc 07B0     		add	sp, sp, #28
 3561 00fe 00BD     		pop	{pc}
 3562              		.cfi_endproc
 3563              	.LFE27:
 3564              		.size	lwip_shutdown, .-lwip_shutdown
 3565              		.section	.text.lwip_getaddrname,"ax",%progbits
ARM GAS  /tmp/cc2wa78n.s 			page 64


 3566              		.align	2
 3567              		.p2align 4,,15
 3568              		.thumb
 3569              		.thumb_func
 3570              		.type	lwip_getaddrname, %function
 3571              	lwip_getaddrname:
 3572              	.LFB28:
 3573              		.loc 1 1396 0
 3574              		.cfi_startproc
 3575              		@ args = 0, pretend = 0, frame = 40
 3576              		@ frame_needed = 0, uses_anonymous_args = 0
 3577 0000 00B5     		push	{lr}
 3578              	.LCFI37:
 3579              		.cfi_def_cfa_offset 4
 3580              		.cfi_offset 14, -4
 3581 0002 8BB0     		sub	sp, sp, #44
 3582              	.LCFI38:
 3583              		.cfi_def_cfa_offset 48
 3584 0004 0390     		str	r0, [sp, #12]
 3585 0006 0291     		str	r1, [sp, #8]
 3586 0008 0192     		str	r2, [sp, #4]
 3587 000a 8DF80330 		strb	r3, [sp, #3]
 3588              		.loc 1 1401 0
 3589 000e 0398     		ldr	r0, [sp, #12]
 3590 0010 FFF7FEFF 		bl	get_socket
 3591 0014 0346     		mov	r3, r0
 3592 0016 0993     		str	r3, [sp, #36]
 3593              		.loc 1 1402 0
 3594 0018 099B     		ldr	r3, [sp, #36]
 3595 001a 002B     		cmp	r3, #0
 3596 001c 02D1     		bne	.L251
 3597              		.loc 1 1403 0
 3598 001e 4FF0FF33 		mov	r3, #-1
 3599 0022 47E0     		b	.L252
 3600              	.L251:
 3601              		.loc 1 1406 0
 3602 0024 05AB     		add	r3, sp, #20
 3603 0026 4FF00002 		mov	r2, #0
 3604 002a 1A60     		str	r2, [r3, #0]
 3605 002c 03F10403 		add	r3, r3, #4
 3606 0030 4FF00002 		mov	r2, #0
 3607 0034 1A60     		str	r2, [r3, #0]
 3608 0036 03F10403 		add	r3, r3, #4
 3609 003a 4FF00002 		mov	r2, #0
 3610 003e 1A60     		str	r2, [r3, #0]
 3611 0040 03F10403 		add	r3, r3, #4
 3612 0044 4FF00002 		mov	r2, #0
 3613 0048 1A60     		str	r2, [r3, #0]
 3614 004a 03F10403 		add	r3, r3, #4
 3615              		.loc 1 1407 0
 3616 004e 4FF01003 		mov	r3, #16
 3617 0052 8DF81430 		strb	r3, [sp, #20]
 3618              		.loc 1 1408 0
 3619 0056 4FF00203 		mov	r3, #2
 3620 005a 8DF81530 		strb	r3, [sp, #21]
 3621              		.loc 1 1411 0
 3622 005e 099B     		ldr	r3, [sp, #36]
ARM GAS  /tmp/cc2wa78n.s 			page 65


 3623 0060 1868     		ldr	r0, [r3, #0]
 3624 0062 04A9     		add	r1, sp, #16
 3625 0064 05AB     		add	r3, sp, #20
 3626 0066 03F10202 		add	r2, r3, #2
 3627 006a 9DF80330 		ldrb	r3, [sp, #3]	@ zero_extendqisi2
 3628 006e FFF7FEFF 		bl	netconn_getaddr
 3629              		.loc 1 1417 0
 3630 0072 BDF81630 		ldrh	r3, [sp, #22]
 3631 0076 1846     		mov	r0, r3
 3632 0078 FFF7FEFF 		bl	lwip_htons
 3633 007c 0346     		mov	r3, r0
 3634 007e ADF81630 		strh	r3, [sp, #22]	@ movhi
 3635              		.loc 1 1418 0
 3636 0082 049B     		ldr	r3, [sp, #16]
 3637 0084 0693     		str	r3, [sp, #24]
 3638              		.loc 1 1420 0
 3639 0086 019B     		ldr	r3, [sp, #4]
 3640 0088 1B68     		ldr	r3, [r3, #0]
 3641 008a 102B     		cmp	r3, #16
 3642 008c 03D9     		bls	.L253
 3643              		.loc 1 1421 0
 3644 008e 019B     		ldr	r3, [sp, #4]
 3645 0090 4FF01002 		mov	r2, #16
 3646 0094 1A60     		str	r2, [r3, #0]
 3647              	.L253:
 3648              		.loc 1 1424 0
 3649 0096 019B     		ldr	r3, [sp, #4]
 3650 0098 1B68     		ldr	r3, [r3, #0]
 3651 009a 0299     		ldr	r1, [sp, #8]
 3652 009c 05AA     		add	r2, sp, #20
 3653 009e 0846     		mov	r0, r1
 3654 00a0 1146     		mov	r1, r2
 3655 00a2 1A46     		mov	r2, r3
 3656 00a4 FFF7FEFF 		bl	memcpy
 3657              		.loc 1 1425 0
 3658 00a8 099B     		ldr	r3, [sp, #36]
 3659 00aa 4FF00002 		mov	r2, #0
 3660 00ae 1A61     		str	r2, [r3, #16]
 3661              		.loc 1 1426 0
 3662 00b0 4FF00003 		mov	r3, #0
 3663              	.L252:
 3664              		.loc 1 1427 0
 3665 00b4 1846     		mov	r0, r3
 3666 00b6 0BB0     		add	sp, sp, #44
 3667 00b8 00BD     		pop	{pc}
 3668              		.cfi_endproc
 3669              	.LFE28:
 3670              		.size	lwip_getaddrname, .-lwip_getaddrname
 3671 00ba 00BFAFF3 		.section	.text.lwip_getpeername,"ax",%progbits
 3671      0080
 3672              		.align	2
 3673              		.p2align 4,,15
 3674              		.global	lwip_getpeername
 3675              		.thumb
 3676              		.thumb_func
 3677              		.type	lwip_getpeername, %function
 3678              	lwip_getpeername:
ARM GAS  /tmp/cc2wa78n.s 			page 66


 3679              	.LFB29:
 3680              		.loc 1 1431 0
 3681              		.cfi_startproc
 3682              		@ args = 0, pretend = 0, frame = 16
 3683              		@ frame_needed = 0, uses_anonymous_args = 0
 3684 0000 00B5     		push	{lr}
 3685              	.LCFI39:
 3686              		.cfi_def_cfa_offset 4
 3687              		.cfi_offset 14, -4
 3688 0002 85B0     		sub	sp, sp, #20
 3689              	.LCFI40:
 3690              		.cfi_def_cfa_offset 24
 3691 0004 0390     		str	r0, [sp, #12]
 3692 0006 0291     		str	r1, [sp, #8]
 3693 0008 0192     		str	r2, [sp, #4]
 3694              		.loc 1 1432 0
 3695 000a 0398     		ldr	r0, [sp, #12]
 3696 000c 0299     		ldr	r1, [sp, #8]
 3697 000e 019A     		ldr	r2, [sp, #4]
 3698 0010 4FF00003 		mov	r3, #0
 3699 0014 FFF7FEFF 		bl	lwip_getaddrname
 3700 0018 0346     		mov	r3, r0
 3701              		.loc 1 1433 0
 3702 001a 1846     		mov	r0, r3
 3703 001c 05B0     		add	sp, sp, #20
 3704 001e 00BD     		pop	{pc}
 3705              		.cfi_endproc
 3706              	.LFE29:
 3707              		.size	lwip_getpeername, .-lwip_getpeername
 3708              		.section	.text.lwip_getsockname,"ax",%progbits
 3709              		.align	2
 3710              		.p2align 4,,15
 3711              		.global	lwip_getsockname
 3712              		.thumb
 3713              		.thumb_func
 3714              		.type	lwip_getsockname, %function
 3715              	lwip_getsockname:
 3716              	.LFB30:
 3717              		.loc 1 1437 0
 3718              		.cfi_startproc
 3719              		@ args = 0, pretend = 0, frame = 16
 3720              		@ frame_needed = 0, uses_anonymous_args = 0
 3721 0000 00B5     		push	{lr}
 3722              	.LCFI41:
 3723              		.cfi_def_cfa_offset 4
 3724              		.cfi_offset 14, -4
 3725 0002 85B0     		sub	sp, sp, #20
 3726              	.LCFI42:
 3727              		.cfi_def_cfa_offset 24
 3728 0004 0390     		str	r0, [sp, #12]
 3729 0006 0291     		str	r1, [sp, #8]
 3730 0008 0192     		str	r2, [sp, #4]
 3731              		.loc 1 1438 0
 3732 000a 0398     		ldr	r0, [sp, #12]
 3733 000c 0299     		ldr	r1, [sp, #8]
 3734 000e 019A     		ldr	r2, [sp, #4]
 3735 0010 4FF00103 		mov	r3, #1
ARM GAS  /tmp/cc2wa78n.s 			page 67


 3736 0014 FFF7FEFF 		bl	lwip_getaddrname
 3737 0018 0346     		mov	r3, r0
 3738              		.loc 1 1439 0
 3739 001a 1846     		mov	r0, r3
 3740 001c 05B0     		add	sp, sp, #20
 3741 001e 00BD     		pop	{pc}
 3742              		.cfi_endproc
 3743              	.LFE30:
 3744              		.size	lwip_getsockname, .-lwip_getsockname
 3745              		.section	.text.lwip_getsockopt,"ax",%progbits
 3746              		.align	2
 3747              		.p2align 4,,15
 3748              		.global	lwip_getsockopt
 3749              		.thumb
 3750              		.thumb_func
 3751              		.type	lwip_getsockopt, %function
 3752              	lwip_getsockopt:
 3753              	.LFB31:
 3754              		.loc 1 1443 0
 3755              		.cfi_startproc
 3756              		@ args = 4, pretend = 0, frame = 48
 3757              		@ frame_needed = 0, uses_anonymous_args = 0
 3758 0000 00B5     		push	{lr}
 3759              	.LCFI43:
 3760              		.cfi_def_cfa_offset 4
 3761              		.cfi_offset 14, -4
 3762 0002 8DB0     		sub	sp, sp, #52
 3763              	.LCFI44:
 3764              		.cfi_def_cfa_offset 56
 3765 0004 0390     		str	r0, [sp, #12]
 3766 0006 0291     		str	r1, [sp, #8]
 3767 0008 0192     		str	r2, [sp, #4]
 3768 000a 0093     		str	r3, [sp, #0]
 3769              		.loc 1 1444 0
 3770 000c 4FF00003 		mov	r3, #0
 3771 0010 8DF82F30 		strb	r3, [sp, #47]
 3772              		.loc 1 1445 0
 3773 0014 0398     		ldr	r0, [sp, #12]
 3774 0016 FFF7FEFF 		bl	get_socket
 3775 001a 0346     		mov	r3, r0
 3776 001c 0A93     		str	r3, [sp, #40]
 3777              		.loc 1 1448 0
 3778 001e 0A9B     		ldr	r3, [sp, #40]
 3779 0020 002B     		cmp	r3, #0
 3780 0022 02D1     		bne	.L257
 3781              		.loc 1 1449 0
 3782 0024 4FF0FF33 		mov	r3, #-1
 3783 0028 CCE0     		b	.L258
 3784              	.L257:
 3785              		.loc 1 1452 0
 3786 002a 009B     		ldr	r3, [sp, #0]
 3787 002c 002B     		cmp	r3, #0
 3788 002e 02D0     		beq	.L259
 3789              		.loc 1 1452 0 is_stmt 0 discriminator 1
 3790 0030 0E9B     		ldr	r3, [sp, #56]
 3791 0032 002B     		cmp	r3, #0
 3792 0034 06D1     		bne	.L260
ARM GAS  /tmp/cc2wa78n.s 			page 68


 3793              	.L259:
 3794              		.loc 1 1453 0 is_stmt 1
 3795 0036 0A9B     		ldr	r3, [sp, #40]
 3796 0038 4FF00E02 		mov	r2, #14
 3797 003c 1A61     		str	r2, [r3, #16]
 3798              		.loc 1 1454 0
 3799 003e 4FF0FF33 		mov	r3, #-1
 3800 0042 BFE0     		b	.L258
 3801              	.L260:
 3802              		.loc 1 1458 0
 3803 0044 029B     		ldr	r3, [sp, #8]
 3804 0046 062B     		cmp	r3, #6
 3805 0048 5ED0     		beq	.L263
 3806 004a 40F6FF72 		movw	r2, #4095
 3807 004e 9342     		cmp	r3, r2
 3808 0050 02D0     		beq	.L264
 3809 0052 002B     		cmp	r3, #0
 3810 0054 43D0     		beq	.L262
 3811 0056 74E0     		b	.L287
 3812              	.L264:
 3813              		.loc 1 1462 0
 3814 0058 019B     		ldr	r3, [sp, #4]
 3815 005a 202B     		cmp	r3, #32
 3816 005c 13D0     		beq	.L266
 3817 005e 202B     		cmp	r3, #32
 3818 0060 04DC     		bgt	.L268
 3819 0062 022B     		cmp	r3, #2
 3820 0064 0FD0     		beq	.L266
 3821 0066 082B     		cmp	r3, #8
 3822 0068 0DD0     		beq	.L266
 3823 006a 2FE0     		b	.L265
 3824              	.L268:
 3825 006c 41F20702 		movw	r2, #4103
 3826 0070 9342     		cmp	r3, r2
 3827 0072 2BDB     		blt	.L265
 3828 0074 41F20802 		movw	r2, #4104
 3829 0078 9342     		cmp	r3, r2
 3830 007a 04DD     		ble	.L266
 3831 007c 41F20A02 		movw	r2, #4106
 3832 0080 9342     		cmp	r3, r2
 3833 0082 09D0     		beq	.L267
 3834 0084 22E0     		b	.L265
 3835              	.L266:
 3836              		.loc 1 1488 0
 3837 0086 0E9B     		ldr	r3, [sp, #56]
 3838 0088 1B68     		ldr	r3, [r3, #0]
 3839 008a 032B     		cmp	r3, #3
 3840 008c 23D8     		bhi	.L288
 3841              		.loc 1 1489 0
 3842 008e 4FF01603 		mov	r3, #22
 3843 0092 8DF82F30 		strb	r3, [sp, #47]
 3844              		.loc 1 1491 0
 3845 0096 1EE0     		b	.L288
 3846              	.L267:
 3847              		.loc 1 1494 0
 3848 0098 0E9B     		ldr	r3, [sp, #56]
 3849 009a 1B68     		ldr	r3, [r3, #0]
ARM GAS  /tmp/cc2wa78n.s 			page 69


 3850 009c 032B     		cmp	r3, #3
 3851 009e 03D8     		bhi	.L271
 3852              		.loc 1 1495 0
 3853 00a0 4FF01603 		mov	r3, #22
 3854 00a4 8DF82F30 		strb	r3, [sp, #47]
 3855              	.L271:
 3856              		.loc 1 1498 0
 3857 00a8 0A9B     		ldr	r3, [sp, #40]
 3858 00aa 1B68     		ldr	r3, [r3, #0]
 3859 00ac 1B78     		ldrb	r3, [r3, #0]	@ zero_extendqisi2
 3860 00ae 202B     		cmp	r3, #32
 3861 00b0 07D1     		bne	.L272
 3862              		.loc 1 1499 0 discriminator 1
 3863 00b2 0A9B     		ldr	r3, [sp, #40]
 3864 00b4 1B68     		ldr	r3, [r3, #0]
 3865 00b6 5B68     		ldr	r3, [r3, #4]
 3866 00b8 1B7C     		ldrb	r3, [r3, #16]	@ zero_extendqisi2
 3867 00ba 03F00203 		and	r3, r3, #2
 3868              		.loc 1 1498 0 discriminator 1
 3869 00be 002B     		cmp	r3, #0
 3870 00c0 0BD0     		beq	.L289
 3871              	.L272:
 3872              		.loc 1 1501 0
 3873 00c2 4FF06103 		mov	r3, #97
 3874 00c6 8DF82F30 		strb	r3, [sp, #47]
 3875              		.loc 1 1504 0
 3876 00ca 06E0     		b	.L289
 3877              	.L265:
 3878              		.loc 1 1509 0
 3879 00cc 4FF05C03 		mov	r3, #92
 3880 00d0 8DF82F30 		strb	r3, [sp, #47]
 3881              		.loc 1 1511 0
 3882 00d4 39E0     		b	.L274
 3883              	.L288:
 3884              		.loc 1 1491 0
 3885 00d6 00BF     		nop
 3886 00d8 00E0     		b	.L270
 3887              	.L289:
 3888              		.loc 1 1504 0
 3889 00da 00BF     		nop
 3890              	.L270:
 3891              		.loc 1 1511 0
 3892 00dc 35E0     		b	.L274
 3893              	.L262:
 3894              		.loc 1 1515 0
 3895 00de 019B     		ldr	r3, [sp, #4]
 3896 00e0 03F1FF33 		add	r3, r3, #-1
 3897 00e4 012B     		cmp	r3, #1
 3898 00e6 08D8     		bhi	.L275
 3899              		.loc 1 1521 0
 3900 00e8 0E9B     		ldr	r3, [sp, #56]
 3901 00ea 1B68     		ldr	r3, [r3, #0]
 3902 00ec 032B     		cmp	r3, #3
 3903 00ee 09D8     		bhi	.L290
 3904              		.loc 1 1522 0
 3905 00f0 4FF01603 		mov	r3, #22
 3906 00f4 8DF82F30 		strb	r3, [sp, #47]
ARM GAS  /tmp/cc2wa78n.s 			page 70


 3907              		.loc 1 1524 0
 3908 00f8 04E0     		b	.L290
 3909              	.L275:
 3910              		.loc 1 1549 0
 3911 00fa 4FF05C03 		mov	r3, #92
 3912 00fe 8DF82F30 		strb	r3, [sp, #47]
 3913              		.loc 1 1551 0
 3914 0102 22E0     		b	.L274
 3915              	.L290:
 3916              		.loc 1 1524 0
 3917 0104 00BF     		nop
 3918              	.L278:
 3919              		.loc 1 1551 0
 3920 0106 20E0     		b	.L274
 3921              	.L263:
 3922              		.loc 1 1556 0
 3923 0108 0E9B     		ldr	r3, [sp, #56]
 3924 010a 1B68     		ldr	r3, [r3, #0]
 3925 010c 032B     		cmp	r3, #3
 3926 010e 04D8     		bhi	.L279
 3927              		.loc 1 1557 0
 3928 0110 4FF01603 		mov	r3, #22
 3929 0114 8DF82F30 		strb	r3, [sp, #47]
 3930              		.loc 1 1558 0
 3931 0118 17E0     		b	.L274
 3932              	.L279:
 3933              		.loc 1 1562 0
 3934 011a 0A9B     		ldr	r3, [sp, #40]
 3935 011c 1B68     		ldr	r3, [r3, #0]
 3936 011e 1B78     		ldrb	r3, [r3, #0]	@ zero_extendqisi2
 3937 0120 102B     		cmp	r3, #16
 3938 0122 02D0     		beq	.L280
 3939              		.loc 1 1563 0
 3940 0124 4FF00003 		mov	r3, #0
 3941 0128 4CE0     		b	.L258
 3942              	.L280:
 3943              		.loc 1 1565 0
 3944 012a 019B     		ldr	r3, [sp, #4]
 3945 012c 03F1FF33 		add	r3, r3, #-1
 3946 0130 012B     		cmp	r3, #1
 3947 0132 01D8     		bhi	.L281
 3948              		.loc 1 1573 0
 3949 0134 00BF     		nop
 3950              		.loc 1 1580 0
 3951 0136 08E0     		b	.L274
 3952              	.L281:
 3953              		.loc 1 1578 0
 3954 0138 4FF05C03 		mov	r3, #92
 3955 013c 8DF82F30 		strb	r3, [sp, #47]
 3956              		.loc 1 1580 0
 3957 0140 03E0     		b	.L274
 3958              	.L287:
 3959              		.loc 1 1611 0
 3960 0142 4FF05C03 		mov	r3, #92
 3961 0146 8DF82F30 		strb	r3, [sp, #47]
 3962              	.L274:
 3963              		.loc 1 1615 0
ARM GAS  /tmp/cc2wa78n.s 			page 71


 3964 014a 9DF92F30 		ldrsb	r3, [sp, #47]
 3965 014e 002B     		cmp	r3, #0
 3966 0150 06D0     		beq	.L284
 3967              		.loc 1 1616 0
 3968 0152 9DF92F20 		ldrsb	r2, [sp, #47]
 3969 0156 0A9B     		ldr	r3, [sp, #40]
 3970 0158 1A61     		str	r2, [r3, #16]
 3971              		.loc 1 1617 0
 3972 015a 4FF0FF33 		mov	r3, #-1
 3973 015e 31E0     		b	.L258
 3974              	.L284:
 3975              		.loc 1 1621 0
 3976 0160 0A9B     		ldr	r3, [sp, #40]
 3977 0162 0493     		str	r3, [sp, #16]
 3978              		.loc 1 1625 0
 3979 0164 029B     		ldr	r3, [sp, #8]
 3980 0166 0593     		str	r3, [sp, #20]
 3981              		.loc 1 1626 0
 3982 0168 019B     		ldr	r3, [sp, #4]
 3983 016a 0693     		str	r3, [sp, #24]
 3984              		.loc 1 1627 0
 3985 016c 009B     		ldr	r3, [sp, #0]
 3986 016e 0793     		str	r3, [sp, #28]
 3987              		.loc 1 1628 0
 3988 0170 0E9B     		ldr	r3, [sp, #56]
 3989 0172 0893     		str	r3, [sp, #32]
 3990              		.loc 1 1629 0
 3991 0174 9DF82F30 		ldrb	r3, [sp, #47]
 3992 0178 8DF82430 		strb	r3, [sp, #36]
 3993              		.loc 1 1630 0
 3994 017c 04AB     		add	r3, sp, #16
 3995 017e 40F20000 		movw	r0, #:lower16:lwip_getsockopt_internal
 3996 0182 C0F20000 		movt	r0, #:upper16:lwip_getsockopt_internal
 3997 0186 1946     		mov	r1, r3
 3998 0188 4FF00102 		mov	r2, #1
 3999 018c FFF7FEFF 		bl	tcpip_callback_with_block
 4000              		.loc 1 1631 0
 4001 0190 0A9B     		ldr	r3, [sp, #40]
 4002 0192 1B68     		ldr	r3, [r3, #0]
 4003 0194 03F10C03 		add	r3, r3, #12
 4004 0198 1846     		mov	r0, r3
 4005 019a 4FF00001 		mov	r1, #0
 4006 019e FFF7FEFF 		bl	sys_arch_sem_wait
 4007              		.loc 1 1633 0
 4008 01a2 9DF82430 		ldrb	r3, [sp, #36]
 4009 01a6 8DF82F30 		strb	r3, [sp, #47]
 4010              		.loc 1 1635 0
 4011 01aa 9DF92F20 		ldrsb	r2, [sp, #47]
 4012 01ae 0A9B     		ldr	r3, [sp, #40]
 4013 01b0 1A61     		str	r2, [r3, #16]
 4014              		.loc 1 1636 0
 4015 01b2 9DF92F30 		ldrsb	r3, [sp, #47]
 4016 01b6 002B     		cmp	r3, #0
 4017 01b8 02D0     		beq	.L285
 4018              		.loc 1 1636 0 is_stmt 0 discriminator 1
 4019 01ba 4FF0FF33 		mov	r3, #-1
 4020 01be 01E0     		b	.L286
ARM GAS  /tmp/cc2wa78n.s 			page 72


 4021              	.L285:
 4022              		.loc 1 1636 0 discriminator 2
 4023 01c0 4FF00003 		mov	r3, #0
 4024              	.L286:
 4025              	.L258:
 4026              		.loc 1 1637 0 is_stmt 1
 4027 01c4 1846     		mov	r0, r3
 4028 01c6 0DB0     		add	sp, sp, #52
 4029 01c8 00BD     		pop	{pc}
 4030              		.cfi_endproc
 4031              	.LFE31:
 4032              		.size	lwip_getsockopt, .-lwip_getsockopt
 4033 01ca 00BFAFF3 		.section	.text.lwip_getsockopt_internal,"ax",%progbits
 4033      0080
 4034              		.align	2
 4035              		.p2align 4,,15
 4036              		.thumb
 4037              		.thumb_func
 4038              		.type	lwip_getsockopt_internal, %function
 4039              	lwip_getsockopt_internal:
 4040              	.LFB32:
 4041              		.loc 1 1641 0
 4042              		.cfi_startproc
 4043              		@ args = 0, pretend = 0, frame = 32
 4044              		@ frame_needed = 0, uses_anonymous_args = 0
 4045 0000 00B5     		push	{lr}
 4046              	.LCFI45:
 4047              		.cfi_def_cfa_offset 4
 4048              		.cfi_offset 14, -4
 4049 0002 89B0     		sub	sp, sp, #36
 4050              	.LCFI46:
 4051              		.cfi_def_cfa_offset 40
 4052 0004 0190     		str	r0, [sp, #4]
 4053              		.loc 1 1650 0
 4054 0006 019B     		ldr	r3, [sp, #4]
 4055 0008 002B     		cmp	r3, #0
 4056 000a 01D1     		bne	.L292
 4057              		.loc 1 1650 0 is_stmt 0 discriminator 1
 4058 000c FFF7FEFF 		bl	port_halt
 4059              	.L292:
 4060              		.loc 1 1652 0 is_stmt 1
 4061 0010 019B     		ldr	r3, [sp, #4]
 4062 0012 0793     		str	r3, [sp, #28]
 4063              		.loc 1 1653 0
 4064 0014 079B     		ldr	r3, [sp, #28]
 4065 0016 1B68     		ldr	r3, [r3, #0]
 4066 0018 0693     		str	r3, [sp, #24]
 4067              		.loc 1 1657 0
 4068 001a 079B     		ldr	r3, [sp, #28]
 4069 001c 5B68     		ldr	r3, [r3, #4]
 4070 001e 0593     		str	r3, [sp, #20]
 4071              		.loc 1 1658 0
 4072 0020 079B     		ldr	r3, [sp, #28]
 4073 0022 9B68     		ldr	r3, [r3, #8]
 4074 0024 0493     		str	r3, [sp, #16]
 4075              		.loc 1 1659 0
 4076 0026 079B     		ldr	r3, [sp, #28]
ARM GAS  /tmp/cc2wa78n.s 			page 73


 4077 0028 DB68     		ldr	r3, [r3, #12]
 4078 002a 0393     		str	r3, [sp, #12]
 4079              		.loc 1 1661 0
 4080 002c 059B     		ldr	r3, [sp, #20]
 4081 002e 062B     		cmp	r3, #6
 4082 0030 00F09B80 		beq	.L295
 4083 0034 40F6FF72 		movw	r2, #4095
 4084 0038 9342     		cmp	r3, r2
 4085 003a 02D0     		beq	.L296
 4086 003c 002B     		cmp	r3, #0
 4087 003e 7BD0     		beq	.L294
 4088 0040 B4E0     		b	.L322
 4089              	.L296:
 4090              		.loc 1 1665 0
 4091 0042 049B     		ldr	r3, [sp, #16]
 4092 0044 202B     		cmp	r3, #32
 4093 0046 13D0     		beq	.L298
 4094 0048 202B     		cmp	r3, #32
 4095 004a 04DC     		bgt	.L302
 4096 004c 022B     		cmp	r3, #2
 4097 004e 0FD0     		beq	.L298
 4098 0050 082B     		cmp	r3, #8
 4099 0052 0DD0     		beq	.L298
 4100 0054 6CE0     		b	.L297
 4101              	.L302:
 4102 0056 41F20802 		movw	r2, #4104
 4103 005a 9342     		cmp	r3, r2
 4104 005c 12D0     		beq	.L300
 4105 005e 41F20A02 		movw	r2, #4106
 4106 0062 9342     		cmp	r3, r2
 4107 0064 5BD0     		beq	.L301
 4108 0066 41F20702 		movw	r2, #4103
 4109 006a 9342     		cmp	r3, r2
 4110 006c 2DD0     		beq	.L299
 4111 006e 5FE0     		b	.L297
 4112              	.L298:
 4113              		.loc 1 1679 0
 4114 0070 069B     		ldr	r3, [sp, #24]
 4115 0072 1B68     		ldr	r3, [r3, #0]
 4116 0074 5B68     		ldr	r3, [r3, #4]
 4117 0076 1B7A     		ldrb	r3, [r3, #8]	@ zero_extendqisi2
 4118 0078 1A46     		mov	r2, r3
 4119 007a 049B     		ldr	r3, [sp, #16]
 4120 007c 1A40     		ands	r2, r2, r3
 4121 007e 039B     		ldr	r3, [sp, #12]
 4122 0080 1A60     		str	r2, [r3, #0]
 4123              		.loc 1 1682 0
 4124 0082 58E0     		b	.L303
 4125              	.L300:
 4126              		.loc 1 1685 0
 4127 0084 069B     		ldr	r3, [sp, #24]
 4128 0086 1B68     		ldr	r3, [r3, #0]
 4129 0088 1B78     		ldrb	r3, [r3, #0]	@ zero_extendqisi2
 4130 008a 03F0F003 		and	r3, r3, #240
 4131 008e 202B     		cmp	r3, #32
 4132 0090 0ED0     		beq	.L306
 4133 0092 402B     		cmp	r3, #64
ARM GAS  /tmp/cc2wa78n.s 			page 74


 4134 0094 02D0     		beq	.L307
 4135 0096 102B     		cmp	r3, #16
 4136 0098 05D0     		beq	.L305
 4137 009a 0EE0     		b	.L323
 4138              	.L307:
 4139              		.loc 1 1687 0
 4140 009c 039B     		ldr	r3, [sp, #12]
 4141 009e 4FF00302 		mov	r2, #3
 4142 00a2 1A60     		str	r2, [r3, #0]
 4143              		.loc 1 1688 0
 4144 00a4 10E0     		b	.L308
 4145              	.L305:
 4146              		.loc 1 1690 0
 4147 00a6 039B     		ldr	r3, [sp, #12]
 4148 00a8 4FF00102 		mov	r2, #1
 4149 00ac 1A60     		str	r2, [r3, #0]
 4150              		.loc 1 1691 0
 4151 00ae 0BE0     		b	.L308
 4152              	.L306:
 4153              		.loc 1 1693 0
 4154 00b0 039B     		ldr	r3, [sp, #12]
 4155 00b2 4FF00202 		mov	r2, #2
 4156 00b6 1A60     		str	r2, [r3, #0]
 4157              		.loc 1 1694 0
 4158 00b8 06E0     		b	.L308
 4159              	.L323:
 4160              		.loc 1 1696 0
 4161 00ba 069B     		ldr	r3, [sp, #24]
 4162 00bc 1B68     		ldr	r3, [r3, #0]
 4163 00be 1B78     		ldrb	r3, [r3, #0]	@ zero_extendqisi2
 4164 00c0 1A46     		mov	r2, r3
 4165 00c2 039B     		ldr	r3, [sp, #12]
 4166 00c4 1A60     		str	r2, [r3, #0]
 4167              		.loc 1 1703 0
 4168 00c6 36E0     		b	.L303
 4169              	.L308:
 4170 00c8 35E0     		b	.L303
 4171              	.L299:
 4172              		.loc 1 1707 0
 4173 00ca 069B     		ldr	r3, [sp, #24]
 4174 00cc 1B69     		ldr	r3, [r3, #16]
 4175 00ce 002B     		cmp	r3, #0
 4176 00d0 03D0     		beq	.L309
 4177              		.loc 1 1707 0 is_stmt 0 discriminator 1
 4178 00d2 069B     		ldr	r3, [sp, #24]
 4179 00d4 1B69     		ldr	r3, [r3, #16]
 4180 00d6 732B     		cmp	r3, #115
 4181 00d8 18D1     		bne	.L310
 4182              	.L309:
 4183              		.loc 1 1708 0 is_stmt 1
 4184 00da 069B     		ldr	r3, [sp, #24]
 4185 00dc 1B68     		ldr	r3, [r3, #0]
 4186 00de 1B7A     		ldrb	r3, [r3, #8]	@ zero_extendqisi2
 4187 00e0 5BB2     		sxtb	r3, r3
 4188 00e2 C3F10003 		rsb	r3, r3, #0
 4189 00e6 0F2B     		cmp	r3, #15
 4190 00e8 0CD8     		bhi	.L311
ARM GAS  /tmp/cc2wa78n.s 			page 75


 4191              		.loc 1 1708 0 is_stmt 0 discriminator 1
 4192 00ea 069B     		ldr	r3, [sp, #24]
 4193 00ec 1B68     		ldr	r3, [r3, #0]
 4194 00ee 1B7A     		ldrb	r3, [r3, #8]	@ zero_extendqisi2
 4195 00f0 5BB2     		sxtb	r3, r3
 4196 00f2 C3F10002 		rsb	r2, r3, #0
 4197 00f6 40F20003 		movw	r3, #:lower16:err_to_errno_table
 4198 00fa C0F20003 		movt	r3, #:upper16:err_to_errno_table
 4199 00fe 53F82230 		ldr	r3, [r3, r2, lsl #2]
 4200 0102 01E0     		b	.L312
 4201              	.L311:
 4202              		.loc 1 1708 0 discriminator 2
 4203 0104 4FF00503 		mov	r3, #5
 4204              	.L312:
 4205              		.loc 1 1708 0 discriminator 3
 4206 0108 069A     		ldr	r2, [sp, #24]
 4207 010a 1361     		str	r3, [r2, #16]
 4208              	.L310:
 4209              		.loc 1 1710 0 is_stmt 1
 4210 010c 069B     		ldr	r3, [sp, #24]
 4211 010e 1A69     		ldr	r2, [r3, #16]
 4212 0110 039B     		ldr	r3, [sp, #12]
 4213 0112 1A60     		str	r2, [r3, #0]
 4214              		.loc 1 1711 0
 4215 0114 069B     		ldr	r3, [sp, #24]
 4216 0116 4FF00002 		mov	r2, #0
 4217 011a 1A61     		str	r2, [r3, #16]
 4218              		.loc 1 1714 0
 4219 011c 0BE0     		b	.L303
 4220              	.L301:
 4221              		.loc 1 1728 0
 4222 011e 069B     		ldr	r3, [sp, #24]
 4223 0120 1B68     		ldr	r3, [r3, #0]
 4224 0122 5B68     		ldr	r3, [r3, #4]
 4225 0124 1B7C     		ldrb	r3, [r3, #16]	@ zero_extendqisi2
 4226 0126 03F00102 		and	r2, r3, #1
 4227 012a 039B     		ldr	r3, [sp, #12]
 4228 012c 1A60     		str	r2, [r3, #0]
 4229              		.loc 1 1729 0
 4230 012e 02E0     		b	.L303
 4231              	.L297:
 4232              		.loc 1 1732 0 discriminator 1
 4233 0130 FFF7FEFF 		bl	port_halt
 4234              		.loc 1 1733 0
 4235 0134 00BF     		nop
 4236              	.L303:
 4237              		.loc 1 1735 0
 4238 0136 3CE0     		b	.L313
 4239              	.L294:
 4240              		.loc 1 1739 0
 4241 0138 049B     		ldr	r3, [sp, #16]
 4242 013a 012B     		cmp	r3, #1
 4243 013c 09D0     		beq	.L315
 4244 013e 022B     		cmp	r3, #2
 4245 0140 0FD1     		bne	.L324
 4246              	.L316:
 4247              		.loc 1 1741 0
ARM GAS  /tmp/cc2wa78n.s 			page 76


 4248 0142 069B     		ldr	r3, [sp, #24]
 4249 0144 1B68     		ldr	r3, [r3, #0]
 4250 0146 5B68     		ldr	r3, [r3, #4]
 4251 0148 9B7A     		ldrb	r3, [r3, #10]	@ zero_extendqisi2
 4252 014a 1A46     		mov	r2, r3
 4253 014c 039B     		ldr	r3, [sp, #12]
 4254 014e 1A60     		str	r2, [r3, #0]
 4255              		.loc 1 1744 0
 4256 0150 0AE0     		b	.L317
 4257              	.L315:
 4258              		.loc 1 1746 0
 4259 0152 069B     		ldr	r3, [sp, #24]
 4260 0154 1B68     		ldr	r3, [r3, #0]
 4261 0156 5B68     		ldr	r3, [r3, #4]
 4262 0158 5B7A     		ldrb	r3, [r3, #9]	@ zero_extendqisi2
 4263 015a 1A46     		mov	r2, r3
 4264 015c 039B     		ldr	r3, [sp, #12]
 4265 015e 1A60     		str	r2, [r3, #0]
 4266              		.loc 1 1749 0
 4267 0160 02E0     		b	.L317
 4268              	.L324:
 4269              		.loc 1 1772 0 discriminator 1
 4270 0162 FFF7FEFF 		bl	port_halt
 4271              		.loc 1 1773 0
 4272 0166 00BF     		nop
 4273              	.L317:
 4274              		.loc 1 1775 0
 4275 0168 23E0     		b	.L313
 4276              	.L295:
 4277              		.loc 1 1780 0
 4278 016a 049B     		ldr	r3, [sp, #16]
 4279 016c 012B     		cmp	r3, #1
 4280 016e 02D0     		beq	.L319
 4281 0170 022B     		cmp	r3, #2
 4282 0172 0ED0     		beq	.L320
 4283 0174 16E0     		b	.L325
 4284              	.L319:
 4285              		.loc 1 1782 0
 4286 0176 069B     		ldr	r3, [sp, #24]
 4287 0178 1B68     		ldr	r3, [r3, #0]
 4288 017a 5B68     		ldr	r3, [r3, #4]
 4289 017c 93F82030 		ldrb	r3, [r3, #32]	@ zero_extendqisi2
 4290 0180 03F04003 		and	r3, r3, #64
 4291 0184 002B     		cmp	r3, #0
 4292 0186 0CBF     		ite	eq
 4293 0188 0022     		moveq	r2, #0
 4294 018a 0122     		movne	r2, #1
 4295 018c 039B     		ldr	r3, [sp, #12]
 4296 018e 1A60     		str	r2, [r3, #0]
 4297              		.loc 1 1785 0
 4298 0190 0BE0     		b	.L321
 4299              	.L320:
 4300              		.loc 1 1787 0
 4301 0192 069B     		ldr	r3, [sp, #24]
 4302 0194 1B68     		ldr	r3, [r3, #0]
 4303 0196 5B68     		ldr	r3, [r3, #4]
 4304 0198 D3F89830 		ldr	r3, [r3, #152]
ARM GAS  /tmp/cc2wa78n.s 			page 77


 4305 019c 1A46     		mov	r2, r3
 4306 019e 039B     		ldr	r3, [sp, #12]
 4307 01a0 1A60     		str	r2, [r3, #0]
 4308              		.loc 1 1790 0
 4309 01a2 02E0     		b	.L321
 4310              	.L325:
 4311              		.loc 1 1810 0 discriminator 1
 4312 01a4 FFF7FEFF 		bl	port_halt
 4313              		.loc 1 1811 0
 4314 01a8 00BF     		nop
 4315              	.L321:
 4316              		.loc 1 1813 0
 4317 01aa 02E0     		b	.L313
 4318              	.L322:
 4319              		.loc 1 1836 0 discriminator 1
 4320 01ac FFF7FEFF 		bl	port_halt
 4321              		.loc 1 1837 0
 4322 01b0 00BF     		nop
 4323              	.L313:
 4324              		.loc 1 1839 0
 4325 01b2 069B     		ldr	r3, [sp, #24]
 4326 01b4 1B68     		ldr	r3, [r3, #0]
 4327 01b6 03F10C03 		add	r3, r3, #12
 4328 01ba 1846     		mov	r0, r3
 4329 01bc FFF7FEFF 		bl	sys_sem_signal
 4330              		.loc 1 1840 0
 4331 01c0 09B0     		add	sp, sp, #36
 4332 01c2 00BD     		pop	{pc}
 4333              		.cfi_endproc
 4334              	.LFE32:
 4335              		.size	lwip_getsockopt_internal, .-lwip_getsockopt_internal
 4336 01c4 AFF30080 		.section	.text.lwip_setsockopt,"ax",%progbits
 4336      AFF30080 
 4336      AFF30080 
 4337              		.align	2
 4338              		.p2align 4,,15
 4339              		.global	lwip_setsockopt
 4340              		.thumb
 4341              		.thumb_func
 4342              		.type	lwip_setsockopt, %function
 4343              	lwip_setsockopt:
 4344              	.LFB33:
 4345              		.loc 1 1844 0
 4346              		.cfi_startproc
 4347              		@ args = 4, pretend = 0, frame = 48
 4348              		@ frame_needed = 0, uses_anonymous_args = 0
 4349 0000 00B5     		push	{lr}
 4350              	.LCFI47:
 4351              		.cfi_def_cfa_offset 4
 4352              		.cfi_offset 14, -4
 4353 0002 8DB0     		sub	sp, sp, #52
 4354              	.LCFI48:
 4355              		.cfi_def_cfa_offset 56
 4356 0004 0390     		str	r0, [sp, #12]
 4357 0006 0291     		str	r1, [sp, #8]
 4358 0008 0192     		str	r2, [sp, #4]
 4359 000a 0093     		str	r3, [sp, #0]
ARM GAS  /tmp/cc2wa78n.s 			page 78


 4360              		.loc 1 1845 0
 4361 000c 0398     		ldr	r0, [sp, #12]
 4362 000e FFF7FEFF 		bl	get_socket
 4363 0012 0346     		mov	r3, r0
 4364 0014 0A93     		str	r3, [sp, #40]
 4365              		.loc 1 1846 0
 4366 0016 4FF00003 		mov	r3, #0
 4367 001a 8DF82F30 		strb	r3, [sp, #47]
 4368              		.loc 1 1849 0
 4369 001e 0A9B     		ldr	r3, [sp, #40]
 4370 0020 002B     		cmp	r3, #0
 4371 0022 02D1     		bne	.L327
 4372              		.loc 1 1850 0
 4373 0024 4FF0FF33 		mov	r3, #-1
 4374 0028 B7E0     		b	.L328
 4375              	.L327:
 4376              		.loc 1 1853 0
 4377 002a 009B     		ldr	r3, [sp, #0]
 4378 002c 002B     		cmp	r3, #0
 4379 002e 06D1     		bne	.L329
 4380              		.loc 1 1854 0
 4381 0030 0A9B     		ldr	r3, [sp, #40]
 4382 0032 4FF00E02 		mov	r2, #14
 4383 0036 1A61     		str	r2, [r3, #16]
 4384              		.loc 1 1855 0
 4385 0038 4FF0FF33 		mov	r3, #-1
 4386 003c ADE0     		b	.L328
 4387              	.L329:
 4388              		.loc 1 1859 0
 4389 003e 029B     		ldr	r3, [sp, #8]
 4390 0040 062B     		cmp	r3, #6
 4391 0042 4DD0     		beq	.L332
 4392 0044 40F6FF72 		movw	r2, #4095
 4393 0048 9342     		cmp	r3, r2
 4394 004a 02D0     		beq	.L333
 4395 004c 002B     		cmp	r3, #0
 4396 004e 33D0     		beq	.L331
 4397 0050 62E0     		b	.L355
 4398              	.L333:
 4399              		.loc 1 1863 0
 4400 0052 019B     		ldr	r3, [sp, #4]
 4401 0054 202B     		cmp	r3, #32
 4402 0056 05D0     		beq	.L335
 4403 0058 41F20A02 		movw	r2, #4106
 4404 005c 9342     		cmp	r3, r2
 4405 005e 09D0     		beq	.L336
 4406 0060 082B     		cmp	r3, #8
 4407 0062 20D1     		bne	.L356
 4408              	.L335:
 4409              		.loc 1 1886 0
 4410 0064 0E9B     		ldr	r3, [sp, #56]
 4411 0066 032B     		cmp	r3, #3
 4412 0068 22D8     		bhi	.L357
 4413              		.loc 1 1887 0
 4414 006a 4FF01603 		mov	r3, #22
 4415 006e 8DF82F30 		strb	r3, [sp, #47]
 4416              		.loc 1 1889 0
ARM GAS  /tmp/cc2wa78n.s 			page 79


 4417 0072 1DE0     		b	.L357
 4418              	.L336:
 4419              		.loc 1 1891 0
 4420 0074 0E9B     		ldr	r3, [sp, #56]
 4421 0076 032B     		cmp	r3, #3
 4422 0078 03D8     		bhi	.L339
 4423              		.loc 1 1892 0
 4424 007a 4FF01603 		mov	r3, #22
 4425 007e 8DF82F30 		strb	r3, [sp, #47]
 4426              	.L339:
 4427              		.loc 1 1895 0
 4428 0082 0A9B     		ldr	r3, [sp, #40]
 4429 0084 1B68     		ldr	r3, [r3, #0]
 4430 0086 1B78     		ldrb	r3, [r3, #0]	@ zero_extendqisi2
 4431 0088 202B     		cmp	r3, #32
 4432 008a 07D1     		bne	.L340
 4433              		.loc 1 1896 0 discriminator 1
 4434 008c 0A9B     		ldr	r3, [sp, #40]
 4435 008e 1B68     		ldr	r3, [r3, #0]
 4436 0090 5B68     		ldr	r3, [r3, #4]
 4437 0092 1B7C     		ldrb	r3, [r3, #16]	@ zero_extendqisi2
 4438 0094 03F00203 		and	r3, r3, #2
 4439              		.loc 1 1895 0 discriminator 1
 4440 0098 002B     		cmp	r3, #0
 4441 009a 0BD0     		beq	.L358
 4442              	.L340:
 4443              		.loc 1 1898 0
 4444 009c 4FF06103 		mov	r3, #97
 4445 00a0 8DF82F30 		strb	r3, [sp, #47]
 4446              		.loc 1 1901 0
 4447 00a4 06E0     		b	.L358
 4448              	.L356:
 4449              		.loc 1 1905 0
 4450 00a6 4FF05C03 		mov	r3, #92
 4451 00aa 8DF82F30 		strb	r3, [sp, #47]
 4452              		.loc 1 1907 0
 4453 00ae 37E0     		b	.L342
 4454              	.L357:
 4455              		.loc 1 1889 0
 4456 00b0 00BF     		nop
 4457 00b2 00E0     		b	.L338
 4458              	.L358:
 4459              		.loc 1 1901 0
 4460 00b4 00BF     		nop
 4461              	.L338:
 4462              		.loc 1 1907 0
 4463 00b6 33E0     		b	.L342
 4464              	.L331:
 4465              		.loc 1 1911 0
 4466 00b8 019B     		ldr	r3, [sp, #4]
 4467 00ba 03F1FF33 		add	r3, r3, #-1
 4468 00be 012B     		cmp	r3, #1
 4469 00c0 07D8     		bhi	.L343
 4470              		.loc 1 1917 0
 4471 00c2 0E9B     		ldr	r3, [sp, #56]
 4472 00c4 032B     		cmp	r3, #3
 4473 00c6 09D8     		bhi	.L359
ARM GAS  /tmp/cc2wa78n.s 			page 80


 4474              		.loc 1 1918 0
 4475 00c8 4FF01603 		mov	r3, #22
 4476 00cc 8DF82F30 		strb	r3, [sp, #47]
 4477              		.loc 1 1920 0
 4478 00d0 04E0     		b	.L359
 4479              	.L343:
 4480              		.loc 1 1959 0
 4481 00d2 4FF05C03 		mov	r3, #92
 4482 00d6 8DF82F30 		strb	r3, [sp, #47]
 4483              		.loc 1 1961 0
 4484 00da 21E0     		b	.L342
 4485              	.L359:
 4486              		.loc 1 1920 0
 4487 00dc 00BF     		nop
 4488              	.L346:
 4489              		.loc 1 1961 0
 4490 00de 1FE0     		b	.L342
 4491              	.L332:
 4492              		.loc 1 1966 0
 4493 00e0 0E9B     		ldr	r3, [sp, #56]
 4494 00e2 032B     		cmp	r3, #3
 4495 00e4 04D8     		bhi	.L347
 4496              		.loc 1 1967 0
 4497 00e6 4FF01603 		mov	r3, #22
 4498 00ea 8DF82F30 		strb	r3, [sp, #47]
 4499              		.loc 1 1968 0
 4500 00ee 17E0     		b	.L342
 4501              	.L347:
 4502              		.loc 1 1972 0
 4503 00f0 0A9B     		ldr	r3, [sp, #40]
 4504 00f2 1B68     		ldr	r3, [r3, #0]
 4505 00f4 1B78     		ldrb	r3, [r3, #0]	@ zero_extendqisi2
 4506 00f6 102B     		cmp	r3, #16
 4507 00f8 02D0     		beq	.L348
 4508              		.loc 1 1973 0
 4509 00fa 4FF00003 		mov	r3, #0
 4510 00fe 4CE0     		b	.L328
 4511              	.L348:
 4512              		.loc 1 1975 0
 4513 0100 019B     		ldr	r3, [sp, #4]
 4514 0102 03F1FF33 		add	r3, r3, #-1
 4515 0106 012B     		cmp	r3, #1
 4516 0108 01D8     		bhi	.L349
 4517              		.loc 1 1983 0
 4518 010a 00BF     		nop
 4519              		.loc 1 1990 0
 4520 010c 08E0     		b	.L342
 4521              	.L349:
 4522              		.loc 1 1988 0
 4523 010e 4FF05C03 		mov	r3, #92
 4524 0112 8DF82F30 		strb	r3, [sp, #47]
 4525              		.loc 1 1990 0
 4526 0116 03E0     		b	.L342
 4527              	.L355:
 4528              		.loc 1 2020 0
 4529 0118 4FF05C03 		mov	r3, #92
 4530 011c 8DF82F30 		strb	r3, [sp, #47]
ARM GAS  /tmp/cc2wa78n.s 			page 81


 4531              	.L342:
 4532              		.loc 1 2024 0
 4533 0120 9DF92F30 		ldrsb	r3, [sp, #47]
 4534 0124 002B     		cmp	r3, #0
 4535 0126 06D0     		beq	.L352
 4536              		.loc 1 2025 0
 4537 0128 9DF92F20 		ldrsb	r2, [sp, #47]
 4538 012c 0A9B     		ldr	r3, [sp, #40]
 4539 012e 1A61     		str	r2, [r3, #16]
 4540              		.loc 1 2026 0
 4541 0130 4FF0FF33 		mov	r3, #-1
 4542 0134 31E0     		b	.L328
 4543              	.L352:
 4544              		.loc 1 2031 0
 4545 0136 0A9B     		ldr	r3, [sp, #40]
 4546 0138 0493     		str	r3, [sp, #16]
 4547              		.loc 1 2035 0
 4548 013a 029B     		ldr	r3, [sp, #8]
 4549 013c 0593     		str	r3, [sp, #20]
 4550              		.loc 1 2036 0
 4551 013e 019B     		ldr	r3, [sp, #4]
 4552 0140 0693     		str	r3, [sp, #24]
 4553              		.loc 1 2037 0
 4554 0142 009B     		ldr	r3, [sp, #0]
 4555 0144 0793     		str	r3, [sp, #28]
 4556              		.loc 1 2038 0
 4557 0146 0EAB     		add	r3, sp, #56
 4558 0148 0893     		str	r3, [sp, #32]
 4559              		.loc 1 2039 0
 4560 014a 9DF82F30 		ldrb	r3, [sp, #47]
 4561 014e 8DF82430 		strb	r3, [sp, #36]
 4562              		.loc 1 2040 0
 4563 0152 04AB     		add	r3, sp, #16
 4564 0154 40F20000 		movw	r0, #:lower16:lwip_setsockopt_internal
 4565 0158 C0F20000 		movt	r0, #:upper16:lwip_setsockopt_internal
 4566 015c 1946     		mov	r1, r3
 4567 015e 4FF00102 		mov	r2, #1
 4568 0162 FFF7FEFF 		bl	tcpip_callback_with_block
 4569              		.loc 1 2041 0
 4570 0166 0A9B     		ldr	r3, [sp, #40]
 4571 0168 1B68     		ldr	r3, [r3, #0]
 4572 016a 03F10C03 		add	r3, r3, #12
 4573 016e 1846     		mov	r0, r3
 4574 0170 4FF00001 		mov	r1, #0
 4575 0174 FFF7FEFF 		bl	sys_arch_sem_wait
 4576              		.loc 1 2043 0
 4577 0178 9DF82430 		ldrb	r3, [sp, #36]
 4578 017c 8DF82F30 		strb	r3, [sp, #47]
 4579              		.loc 1 2045 0
 4580 0180 9DF92F20 		ldrsb	r2, [sp, #47]
 4581 0184 0A9B     		ldr	r3, [sp, #40]
 4582 0186 1A61     		str	r2, [r3, #16]
 4583              		.loc 1 2046 0
 4584 0188 9DF92F30 		ldrsb	r3, [sp, #47]
 4585 018c 002B     		cmp	r3, #0
 4586 018e 02D0     		beq	.L353
 4587              		.loc 1 2046 0 is_stmt 0 discriminator 1
ARM GAS  /tmp/cc2wa78n.s 			page 82


 4588 0190 4FF0FF33 		mov	r3, #-1
 4589 0194 01E0     		b	.L354
 4590              	.L353:
 4591              		.loc 1 2046 0 discriminator 2
 4592 0196 4FF00003 		mov	r3, #0
 4593              	.L354:
 4594              	.L328:
 4595              		.loc 1 2047 0 is_stmt 1
 4596 019a 1846     		mov	r0, r3
 4597 019c 0DB0     		add	sp, sp, #52
 4598 019e 00BD     		pop	{pc}
 4599              		.cfi_endproc
 4600              	.LFE33:
 4601              		.size	lwip_setsockopt, .-lwip_setsockopt
 4602              		.section	.text.lwip_setsockopt_internal,"ax",%progbits
 4603              		.align	2
 4604              		.p2align 4,,15
 4605              		.thumb
 4606              		.thumb_func
 4607              		.type	lwip_setsockopt_internal, %function
 4608              	lwip_setsockopt_internal:
 4609              	.LFB34:
 4610              		.loc 1 2051 0
 4611              		.cfi_startproc
 4612              		@ args = 0, pretend = 0, frame = 32
 4613              		@ frame_needed = 0, uses_anonymous_args = 0
 4614 0000 00B5     		push	{lr}
 4615              	.LCFI49:
 4616              		.cfi_def_cfa_offset 4
 4617              		.cfi_offset 14, -4
 4618 0002 89B0     		sub	sp, sp, #36
 4619              	.LCFI50:
 4620              		.cfi_def_cfa_offset 40
 4621 0004 0190     		str	r0, [sp, #4]
 4622              		.loc 1 2060 0
 4623 0006 019B     		ldr	r3, [sp, #4]
 4624 0008 002B     		cmp	r3, #0
 4625 000a 01D1     		bne	.L361
 4626              		.loc 1 2060 0 is_stmt 0 discriminator 1
 4627 000c FFF7FEFF 		bl	port_halt
 4628              	.L361:
 4629              		.loc 1 2062 0 is_stmt 1
 4630 0010 019B     		ldr	r3, [sp, #4]
 4631 0012 0793     		str	r3, [sp, #28]
 4632              		.loc 1 2063 0
 4633 0014 079B     		ldr	r3, [sp, #28]
 4634 0016 1B68     		ldr	r3, [r3, #0]
 4635 0018 0693     		str	r3, [sp, #24]
 4636              		.loc 1 2067 0
 4637 001a 079B     		ldr	r3, [sp, #28]
 4638 001c 5B68     		ldr	r3, [r3, #4]
 4639 001e 0593     		str	r3, [sp, #20]
 4640              		.loc 1 2068 0
 4641 0020 079B     		ldr	r3, [sp, #28]
 4642 0022 9B68     		ldr	r3, [r3, #8]
 4643 0024 0493     		str	r3, [sp, #16]
 4644              		.loc 1 2069 0
ARM GAS  /tmp/cc2wa78n.s 			page 83


 4645 0026 079B     		ldr	r3, [sp, #28]
 4646 0028 DB68     		ldr	r3, [r3, #12]
 4647 002a 0393     		str	r3, [sp, #12]
 4648              		.loc 1 2071 0
 4649 002c 059B     		ldr	r3, [sp, #20]
 4650 002e 062B     		cmp	r3, #6
 4651 0030 6DD0     		beq	.L364
 4652 0032 40F6FF72 		movw	r2, #4095
 4653 0036 9342     		cmp	r3, r2
 4654 0038 02D0     		beq	.L365
 4655 003a 002B     		cmp	r3, #0
 4656 003c 4ED0     		beq	.L363
 4657 003e 98E0     		b	.L385
 4658              	.L365:
 4659              		.loc 1 2075 0
 4660 0040 049B     		ldr	r3, [sp, #16]
 4661 0042 202B     		cmp	r3, #32
 4662 0044 05D0     		beq	.L367
 4663 0046 41F20A02 		movw	r2, #4106
 4664 004a 9342     		cmp	r3, r2
 4665 004c 26D0     		beq	.L368
 4666 004e 082B     		cmp	r3, #8
 4667 0050 40D1     		bne	.L386
 4668              	.L367:
 4669              		.loc 1 2088 0
 4670 0052 039B     		ldr	r3, [sp, #12]
 4671 0054 1B68     		ldr	r3, [r3, #0]
 4672 0056 002B     		cmp	r3, #0
 4673 0058 0ED0     		beq	.L369
 4674              		.loc 1 2089 0
 4675 005a 069B     		ldr	r3, [sp, #24]
 4676 005c 1B68     		ldr	r3, [r3, #0]
 4677 005e 5B68     		ldr	r3, [r3, #4]
 4678 0060 069A     		ldr	r2, [sp, #24]
 4679 0062 1268     		ldr	r2, [r2, #0]
 4680 0064 5268     		ldr	r2, [r2, #4]
 4681 0066 127A     		ldrb	r2, [r2, #8]	@ zero_extendqisi2
 4682 0068 D1B2     		uxtb	r1, r2
 4683 006a 049A     		ldr	r2, [sp, #16]
 4684 006c D2B2     		uxtb	r2, r2
 4685 006e 0A43     		orrs	r2, r2, r1
 4686 0070 D2B2     		uxtb	r2, r2
 4687 0072 D2B2     		uxtb	r2, r2
 4688 0074 1A72     		strb	r2, [r3, #8]
 4689              		.loc 1 2095 0
 4690 0076 30E0     		b	.L371
 4691              	.L369:
 4692              		.loc 1 2091 0
 4693 0078 069B     		ldr	r3, [sp, #24]
 4694 007a 1B68     		ldr	r3, [r3, #0]
 4695 007c 5B68     		ldr	r3, [r3, #4]
 4696 007e 069A     		ldr	r2, [sp, #24]
 4697 0080 1268     		ldr	r2, [r2, #0]
 4698 0082 5268     		ldr	r2, [r2, #4]
 4699 0084 127A     		ldrb	r2, [r2, #8]	@ zero_extendqisi2
 4700 0086 D1B2     		uxtb	r1, r2
 4701 0088 049A     		ldr	r2, [sp, #16]
ARM GAS  /tmp/cc2wa78n.s 			page 84


 4702 008a D2B2     		uxtb	r2, r2
 4703 008c 6FEA0202 		mvn	r2, r2
 4704 0090 D2B2     		uxtb	r2, r2
 4705 0092 0A40     		ands	r2, r2, r1
 4706 0094 D2B2     		uxtb	r2, r2
 4707 0096 D2B2     		uxtb	r2, r2
 4708 0098 1A72     		strb	r2, [r3, #8]
 4709              		.loc 1 2095 0
 4710 009a 1EE0     		b	.L371
 4711              	.L368:
 4712              		.loc 1 2108 0
 4713 009c 039B     		ldr	r3, [sp, #12]
 4714 009e 1B68     		ldr	r3, [r3, #0]
 4715 00a0 002B     		cmp	r3, #0
 4716 00a2 0BD0     		beq	.L372
 4717              		.loc 1 2109 0
 4718 00a4 069B     		ldr	r3, [sp, #24]
 4719 00a6 1B68     		ldr	r3, [r3, #0]
 4720 00a8 5B68     		ldr	r3, [r3, #4]
 4721 00aa 069A     		ldr	r2, [sp, #24]
 4722 00ac 1268     		ldr	r2, [r2, #0]
 4723 00ae 5268     		ldr	r2, [r2, #4]
 4724 00b0 127C     		ldrb	r2, [r2, #16]	@ zero_extendqisi2
 4725 00b2 42F00102 		orr	r2, r2, #1
 4726 00b6 D2B2     		uxtb	r2, r2
 4727 00b8 1A74     		strb	r2, [r3, #16]
 4728              		.loc 1 2113 0
 4729 00ba 0EE0     		b	.L371
 4730              	.L372:
 4731              		.loc 1 2111 0
 4732 00bc 069B     		ldr	r3, [sp, #24]
 4733 00be 1B68     		ldr	r3, [r3, #0]
 4734 00c0 5B68     		ldr	r3, [r3, #4]
 4735 00c2 069A     		ldr	r2, [sp, #24]
 4736 00c4 1268     		ldr	r2, [r2, #0]
 4737 00c6 5268     		ldr	r2, [r2, #4]
 4738 00c8 127C     		ldrb	r2, [r2, #16]	@ zero_extendqisi2
 4739 00ca 22F00102 		bic	r2, r2, #1
 4740 00ce D2B2     		uxtb	r2, r2
 4741 00d0 1A74     		strb	r2, [r3, #16]
 4742              		.loc 1 2113 0
 4743 00d2 02E0     		b	.L371
 4744              	.L386:
 4745              		.loc 1 2116 0 discriminator 1
 4746 00d4 FFF7FEFF 		bl	port_halt
 4747              		.loc 1 2117 0
 4748 00d8 00BF     		nop
 4749              	.L371:
 4750              		.loc 1 2119 0
 4751 00da 4DE0     		b	.L374
 4752              	.L363:
 4753              		.loc 1 2123 0
 4754 00dc 049B     		ldr	r3, [sp, #16]
 4755 00de 012B     		cmp	r3, #1
 4756 00e0 09D0     		beq	.L376
 4757 00e2 022B     		cmp	r3, #2
 4758 00e4 0FD1     		bne	.L387
ARM GAS  /tmp/cc2wa78n.s 			page 85


 4759              	.L377:
 4760              		.loc 1 2125 0
 4761 00e6 069B     		ldr	r3, [sp, #24]
 4762 00e8 1B68     		ldr	r3, [r3, #0]
 4763 00ea 5B68     		ldr	r3, [r3, #4]
 4764 00ec 039A     		ldr	r2, [sp, #12]
 4765 00ee 1268     		ldr	r2, [r2, #0]
 4766 00f0 D2B2     		uxtb	r2, r2
 4767 00f2 9A72     		strb	r2, [r3, #10]
 4768              		.loc 1 2128 0
 4769 00f4 0AE0     		b	.L378
 4770              	.L376:
 4771              		.loc 1 2130 0
 4772 00f6 069B     		ldr	r3, [sp, #24]
 4773 00f8 1B68     		ldr	r3, [r3, #0]
 4774 00fa 5B68     		ldr	r3, [r3, #4]
 4775 00fc 039A     		ldr	r2, [sp, #12]
 4776 00fe 1268     		ldr	r2, [r2, #0]
 4777 0100 D2B2     		uxtb	r2, r2
 4778 0102 5A72     		strb	r2, [r3, #9]
 4779              		.loc 1 2133 0
 4780 0104 02E0     		b	.L378
 4781              	.L387:
 4782              		.loc 1 2169 0 discriminator 1
 4783 0106 FFF7FEFF 		bl	port_halt
 4784              		.loc 1 2170 0
 4785 010a 00BF     		nop
 4786              	.L378:
 4787              		.loc 1 2172 0
 4788 010c 34E0     		b	.L374
 4789              	.L364:
 4790              		.loc 1 2177 0
 4791 010e 049B     		ldr	r3, [sp, #16]
 4792 0110 012B     		cmp	r3, #1
 4793 0112 02D0     		beq	.L380
 4794 0114 022B     		cmp	r3, #2
 4795 0116 20D0     		beq	.L381
 4796 0118 27E0     		b	.L388
 4797              	.L380:
 4798              		.loc 1 2179 0
 4799 011a 039B     		ldr	r3, [sp, #12]
 4800 011c 1B68     		ldr	r3, [r3, #0]
 4801 011e 002B     		cmp	r3, #0
 4802 0120 0DD0     		beq	.L382
 4803              		.loc 1 2180 0
 4804 0122 069B     		ldr	r3, [sp, #24]
 4805 0124 1B68     		ldr	r3, [r3, #0]
 4806 0126 5B68     		ldr	r3, [r3, #4]
 4807 0128 069A     		ldr	r2, [sp, #24]
 4808 012a 1268     		ldr	r2, [r2, #0]
 4809 012c 5268     		ldr	r2, [r2, #4]
 4810 012e 92F82020 		ldrb	r2, [r2, #32]	@ zero_extendqisi2
 4811 0132 42F04002 		orr	r2, r2, #64
 4812 0136 D2B2     		uxtb	r2, r2
 4813 0138 83F82020 		strb	r2, [r3, #32]
 4814              		.loc 1 2186 0
 4815 013c 18E0     		b	.L384
ARM GAS  /tmp/cc2wa78n.s 			page 86


 4816              	.L382:
 4817              		.loc 1 2182 0
 4818 013e 069B     		ldr	r3, [sp, #24]
 4819 0140 1B68     		ldr	r3, [r3, #0]
 4820 0142 5B68     		ldr	r3, [r3, #4]
 4821 0144 069A     		ldr	r2, [sp, #24]
 4822 0146 1268     		ldr	r2, [r2, #0]
 4823 0148 5268     		ldr	r2, [r2, #4]
 4824 014a 92F82020 		ldrb	r2, [r2, #32]	@ zero_extendqisi2
 4825 014e 22F04002 		bic	r2, r2, #64
 4826 0152 D2B2     		uxtb	r2, r2
 4827 0154 83F82020 		strb	r2, [r3, #32]
 4828              		.loc 1 2186 0
 4829 0158 0AE0     		b	.L384
 4830              	.L381:
 4831              		.loc 1 2188 0
 4832 015a 069B     		ldr	r3, [sp, #24]
 4833 015c 1B68     		ldr	r3, [r3, #0]
 4834 015e 5B68     		ldr	r3, [r3, #4]
 4835 0160 039A     		ldr	r2, [sp, #12]
 4836 0162 1268     		ldr	r2, [r2, #0]
 4837 0164 C3F89820 		str	r2, [r3, #152]
 4838              		.loc 1 2191 0
 4839 0168 02E0     		b	.L384
 4840              	.L388:
 4841              		.loc 1 2211 0 discriminator 1
 4842 016a FFF7FEFF 		bl	port_halt
 4843              		.loc 1 2212 0
 4844 016e 00BF     		nop
 4845              	.L384:
 4846              		.loc 1 2214 0
 4847 0170 02E0     		b	.L374
 4848              	.L385:
 4849              		.loc 1 2247 0 discriminator 1
 4850 0172 FFF7FEFF 		bl	port_halt
 4851              		.loc 1 2248 0
 4852 0176 00BF     		nop
 4853              	.L374:
 4854              		.loc 1 2250 0
 4855 0178 069B     		ldr	r3, [sp, #24]
 4856 017a 1B68     		ldr	r3, [r3, #0]
 4857 017c 03F10C03 		add	r3, r3, #12
 4858 0180 1846     		mov	r0, r3
 4859 0182 FFF7FEFF 		bl	sys_sem_signal
 4860              		.loc 1 2251 0
 4861 0186 09B0     		add	sp, sp, #36
 4862 0188 00BD     		pop	{pc}
 4863              		.cfi_endproc
 4864              	.LFE34:
 4865              		.size	lwip_setsockopt_internal, .-lwip_setsockopt_internal
 4866 018a 00BFAFF3 		.section	.text.lwip_ioctl,"ax",%progbits
 4866      0080
 4867              		.align	2
 4868              		.p2align 4,,15
 4869              		.global	lwip_ioctl
 4870              		.thumb
 4871              		.thumb_func
ARM GAS  /tmp/cc2wa78n.s 			page 87


 4872              		.type	lwip_ioctl, %function
 4873              	lwip_ioctl:
 4874              	.LFB35:
 4875              		.loc 1 2255 0
 4876              		.cfi_startproc
 4877              		@ args = 0, pretend = 0, frame = 24
 4878              		@ frame_needed = 0, uses_anonymous_args = 0
 4879 0000 00B5     		push	{lr}
 4880              	.LCFI51:
 4881              		.cfi_def_cfa_offset 4
 4882              		.cfi_offset 14, -4
 4883 0002 87B0     		sub	sp, sp, #28
 4884              	.LCFI52:
 4885              		.cfi_def_cfa_offset 32
 4886 0004 0390     		str	r0, [sp, #12]
 4887 0006 0291     		str	r1, [sp, #8]
 4888 0008 0192     		str	r2, [sp, #4]
 4889              		.loc 1 2256 0
 4890 000a 0398     		ldr	r0, [sp, #12]
 4891 000c FFF7FEFF 		bl	get_socket
 4892 0010 0346     		mov	r3, r0
 4893 0012 0493     		str	r3, [sp, #16]
 4894              		.loc 1 2263 0
 4895 0014 049B     		ldr	r3, [sp, #16]
 4896 0016 002B     		cmp	r3, #0
 4897 0018 02D1     		bne	.L390
 4898              		.loc 1 2264 0
 4899 001a 4FF0FF33 		mov	r3, #-1
 4900 001e 39E0     		b	.L391
 4901              	.L390:
 4902              		.loc 1 2267 0
 4903 0020 029A     		ldr	r2, [sp, #8]
 4904 0022 46F27E63 		movw	r3, #26238
 4905 0026 C8F20403 		movt	r3, 32772
 4906 002a 9A42     		cmp	r2, r3
 4907 002c 2CD1     		bne	.L397
 4908              	.L393:
 4909              		.loc 1 2299 0
 4910 002e 4FF00003 		mov	r3, #0
 4911 0032 8DF81730 		strb	r3, [sp, #23]
 4912              		.loc 1 2300 0
 4913 0036 019B     		ldr	r3, [sp, #4]
 4914 0038 002B     		cmp	r3, #0
 4915 003a 07D0     		beq	.L394
 4916              		.loc 1 2300 0 is_stmt 0 discriminator 1
 4917 003c 019B     		ldr	r3, [sp, #4]
 4918 003e 1B68     		ldr	r3, [r3, #0]
 4919 0040 002B     		cmp	r3, #0
 4920 0042 03D0     		beq	.L394
 4921              		.loc 1 2301 0 is_stmt 1
 4922 0044 4FF00103 		mov	r3, #1
 4923 0048 8DF81730 		strb	r3, [sp, #23]
 4924              	.L394:
 4925              		.loc 1 2303 0
 4926 004c 9DF81730 		ldrb	r3, [sp, #23]	@ zero_extendqisi2
 4927 0050 002B     		cmp	r3, #0
 4928 0052 09D0     		beq	.L395
ARM GAS  /tmp/cc2wa78n.s 			page 88


 4929              		.loc 1 2303 0 is_stmt 0 discriminator 1
 4930 0054 049B     		ldr	r3, [sp, #16]
 4931 0056 1B68     		ldr	r3, [r3, #0]
 4932 0058 049A     		ldr	r2, [sp, #16]
 4933 005a 1268     		ldr	r2, [r2, #0]
 4934 005c 127F     		ldrb	r2, [r2, #28]	@ zero_extendqisi2
 4935 005e 42F00202 		orr	r2, r2, #2
 4936 0062 D2B2     		uxtb	r2, r2
 4937 0064 1A77     		strb	r2, [r3, #28]
 4938 0066 08E0     		b	.L396
 4939              	.L395:
 4940              		.loc 1 2303 0 discriminator 2
 4941 0068 049B     		ldr	r3, [sp, #16]
 4942 006a 1B68     		ldr	r3, [r3, #0]
 4943 006c 049A     		ldr	r2, [sp, #16]
 4944 006e 1268     		ldr	r2, [r2, #0]
 4945 0070 127F     		ldrb	r2, [r2, #28]	@ zero_extendqisi2
 4946 0072 22F00202 		bic	r2, r2, #2
 4947 0076 D2B2     		uxtb	r2, r2
 4948 0078 1A77     		strb	r2, [r3, #28]
 4949              	.L396:
 4950              		.loc 1 2305 0 is_stmt 1
 4951 007a 049B     		ldr	r3, [sp, #16]
 4952 007c 4FF00002 		mov	r2, #0
 4953 0080 1A61     		str	r2, [r3, #16]
 4954              		.loc 1 2306 0
 4955 0082 4FF00003 		mov	r3, #0
 4956 0086 05E0     		b	.L391
 4957              	.L397:
 4958              		.loc 1 2310 0
 4959 0088 049B     		ldr	r3, [sp, #16]
 4960 008a 4FF02602 		mov	r2, #38
 4961 008e 1A61     		str	r2, [r3, #16]
 4962              		.loc 1 2311 0
 4963 0090 4FF0FF33 		mov	r3, #-1
 4964              	.L391:
 4965              		.loc 1 2313 0
 4966 0094 1846     		mov	r0, r3
 4967 0096 07B0     		add	sp, sp, #28
 4968 0098 00BD     		pop	{pc}
 4969              		.cfi_endproc
 4970              	.LFE35:
 4971              		.size	lwip_ioctl, .-lwip_ioctl
 4972 009a 00BFAFF3 		.section	.text.lwip_fcntl,"ax",%progbits
 4972      0080
 4973              		.align	2
 4974              		.p2align 4,,15
 4975              		.global	lwip_fcntl
 4976              		.thumb
 4977              		.thumb_func
 4978              		.type	lwip_fcntl, %function
 4979              	lwip_fcntl:
 4980              	.LFB36:
 4981              		.loc 1 2321 0
 4982              		.cfi_startproc
 4983              		@ args = 0, pretend = 0, frame = 24
 4984              		@ frame_needed = 0, uses_anonymous_args = 0
ARM GAS  /tmp/cc2wa78n.s 			page 89


 4985 0000 00B5     		push	{lr}
 4986              	.LCFI53:
 4987              		.cfi_def_cfa_offset 4
 4988              		.cfi_offset 14, -4
 4989 0002 87B0     		sub	sp, sp, #28
 4990              	.LCFI54:
 4991              		.cfi_def_cfa_offset 32
 4992 0004 0390     		str	r0, [sp, #12]
 4993 0006 0291     		str	r1, [sp, #8]
 4994 0008 0192     		str	r2, [sp, #4]
 4995              		.loc 1 2322 0
 4996 000a 0398     		ldr	r0, [sp, #12]
 4997 000c FFF7FEFF 		bl	get_socket
 4998 0010 0346     		mov	r3, r0
 4999 0012 0493     		str	r3, [sp, #16]
 5000              		.loc 1 2323 0
 5001 0014 4FF0FF33 		mov	r3, #-1
 5002 0018 0593     		str	r3, [sp, #20]
 5003              		.loc 1 2325 0
 5004 001a 049B     		ldr	r3, [sp, #16]
 5005 001c 002B     		cmp	r3, #0
 5006 001e 03D0     		beq	.L399
 5007              		.loc 1 2325 0 is_stmt 0 discriminator 1
 5008 0020 049B     		ldr	r3, [sp, #16]
 5009 0022 1B68     		ldr	r3, [r3, #0]
 5010 0024 002B     		cmp	r3, #0
 5011 0026 02D1     		bne	.L400
 5012              	.L399:
 5013              		.loc 1 2326 0 is_stmt 1
 5014 0028 4FF0FF33 		mov	r3, #-1
 5015 002c 35E0     		b	.L401
 5016              	.L400:
 5017              		.loc 1 2329 0
 5018 002e 029B     		ldr	r3, [sp, #8]
 5019 0030 032B     		cmp	r3, #3
 5020 0032 02D0     		beq	.L403
 5021 0034 042B     		cmp	r3, #4
 5022 0036 0BD0     		beq	.L404
 5023 0038 2CE0     		b	.L409
 5024              	.L403:
 5025              		.loc 1 2331 0
 5026 003a 049B     		ldr	r3, [sp, #16]
 5027 003c 1B68     		ldr	r3, [r3, #0]
 5028 003e 1B7F     		ldrb	r3, [r3, #28]	@ zero_extendqisi2
 5029 0040 03F00203 		and	r3, r3, #2
 5030 0044 002B     		cmp	r3, #0
 5031 0046 0CBF     		ite	eq
 5032 0048 0023     		moveq	r3, #0
 5033 004a 0123     		movne	r3, #1
 5034 004c 0593     		str	r3, [sp, #20]
 5035              		.loc 1 2332 0
 5036 004e 23E0     		b	.L405
 5037              	.L404:
 5038              		.loc 1 2334 0
 5039 0050 019B     		ldr	r3, [sp, #4]
 5040 0052 23F00103 		bic	r3, r3, #1
 5041 0056 002B     		cmp	r3, #0
ARM GAS  /tmp/cc2wa78n.s 			page 90


 5042 0058 1DD1     		bne	.L410
 5043              		.loc 1 2336 0
 5044 005a 019B     		ldr	r3, [sp, #4]
 5045 005c 03F00103 		and	r3, r3, #1
 5046 0060 DBB2     		uxtb	r3, r3
 5047 0062 002B     		cmp	r3, #0
 5048 0064 09D0     		beq	.L407
 5049              		.loc 1 2336 0 is_stmt 0 discriminator 1
 5050 0066 049B     		ldr	r3, [sp, #16]
 5051 0068 1B68     		ldr	r3, [r3, #0]
 5052 006a 049A     		ldr	r2, [sp, #16]
 5053 006c 1268     		ldr	r2, [r2, #0]
 5054 006e 127F     		ldrb	r2, [r2, #28]	@ zero_extendqisi2
 5055 0070 42F00202 		orr	r2, r2, #2
 5056 0074 D2B2     		uxtb	r2, r2
 5057 0076 1A77     		strb	r2, [r3, #28]
 5058 0078 08E0     		b	.L408
 5059              	.L407:
 5060              		.loc 1 2336 0 discriminator 2
 5061 007a 049B     		ldr	r3, [sp, #16]
 5062 007c 1B68     		ldr	r3, [r3, #0]
 5063 007e 049A     		ldr	r2, [sp, #16]
 5064 0080 1268     		ldr	r2, [r2, #0]
 5065 0082 127F     		ldrb	r2, [r2, #28]	@ zero_extendqisi2
 5066 0084 22F00202 		bic	r2, r2, #2
 5067 0088 D2B2     		uxtb	r2, r2
 5068 008a 1A77     		strb	r2, [r3, #28]
 5069              	.L408:
 5070              		.loc 1 2337 0 is_stmt 1
 5071 008c 4FF00003 		mov	r3, #0
 5072 0090 0593     		str	r3, [sp, #20]
 5073              		.loc 1 2339 0
 5074 0092 00E0     		b	.L410
 5075              	.L409:
 5076              		.loc 1 2342 0
 5077 0094 00E0     		b	.L405
 5078              	.L410:
 5079              		.loc 1 2339 0
 5080 0096 00BF     		nop
 5081              	.L405:
 5082              		.loc 1 2344 0
 5083 0098 059B     		ldr	r3, [sp, #20]
 5084              	.L401:
 5085              		.loc 1 2345 0
 5086 009a 1846     		mov	r0, r3
 5087 009c 07B0     		add	sp, sp, #28
 5088 009e 00BD     		pop	{pc}
 5089              		.cfi_endproc
 5090              	.LFE36:
 5091              		.size	lwip_fcntl, .-lwip_fcntl
 5092              		.text
 5093              	.Letext0:
 5094              		.file 2 "/home/texzk/ChibiStudio/tools/GNU Tools ARM Embedded/4.6 2012q2/bin/../lib/gcc/arm-none-e
 5095              		.file 3 "/home/texzk/ChibiStudio/tools/GNU Tools ARM Embedded/4.6 2012q2/bin/../lib/gcc/arm-none-e
 5096              		.file 4 "../../os/ports/GCC/ARMCMx/chtypes.h"
 5097              		.file 5 "../../os/kernel/include/chlists.h"
 5098              		.file 6 "../../os/kernel/include/chthreads.h"
ARM GAS  /tmp/cc2wa78n.s 			page 91


 5099              		.file 7 "../../os/ports/GCC/ARMCMx/chcore_v7m.h"
 5100              		.file 8 "../../os/kernel/include/chsem.h"
 5101              		.file 9 "../../os/kernel/include/chmtx.h"
 5102              		.file 10 "../../os/kernel/include/chmboxes.h"
 5103              		.file 11 "../../os/various/lwip_bindings/arch/cc.h"
 5104              		.file 12 "../../ext/lwip/src/include/ipv4/lwip/ip_addr.h"
 5105              		.file 13 "../../ext/lwip/src/include/ipv4/lwip/inet.h"
 5106              		.file 14 "../../ext/lwip/src/include/lwip/sockets.h"
 5107              		.file 15 "../../ext/lwip/src/include/lwip/err.h"
 5108              		.file 16 "../../ext/lwip/src/include/lwip/pbuf.h"
 5109              		.file 17 "../../ext/lwip/src/include/lwip/netbuf.h"
 5110              		.file 18 "../../os/various/lwip_bindings/arch/sys_arch.h"
 5111              		.file 19 "../../ext/lwip/src/include/lwip/api.h"
 5112              		.file 20 "../../ext/lwip/src/include/ipv4/lwip/ip.h"
 5113              		.file 21 "../../ext/lwip/src/include/lwip/tcp.h"
 5114              		.file 22 "../../ext/lwip/src/include/lwip/udp.h"
 5115              		.file 23 "../../ext/lwip/src/include/lwip/raw.h"
 5116              		.file 24 "../../ext/lwip/src/include/lwip/api_msg.h"
 5117              		.section	.debug_info,"",%progbits
 5118              	.Ldebug_info0:
 5119 0000 83210000 		.4byte	0x2183
 5120 0004 0200     		.2byte	0x2
 5121 0006 00000000 		.4byte	.Ldebug_abbrev0
 5122 000a 04       		.byte	0x4
 5123 000b 01       		.uleb128 0x1
 5124 000c 9B000000 		.4byte	.LASF317
 5125 0010 01       		.byte	0x1
 5126 0011 EA0A0000 		.4byte	.LASF318
 5127 0015 34030000 		.4byte	.LASF319
 5128 0019 00000000 		.4byte	0
 5129 001d 00000000 		.4byte	0
 5130 0021 00000000 		.4byte	.Ldebug_ranges0+0
 5131 0025 00000000 		.4byte	.Ldebug_line0
 5132 0029 02       		.uleb128 0x2
 5133 002a 04       		.byte	0x4
 5134 002b 05       		.byte	0x5
 5135 002c 696E7400 		.ascii	"int\000"
 5136 0030 03       		.uleb128 0x3
 5137 0031 12000000 		.4byte	.LASF1
 5138 0035 02       		.byte	0x2
 5139 0036 D4       		.byte	0xd4
 5140 0037 3B000000 		.4byte	0x3b
 5141 003b 04       		.uleb128 0x4
 5142 003c 04       		.byte	0x4
 5143 003d 07       		.byte	0x7
 5144 003e 39070000 		.4byte	.LASF0
 5145 0042 03       		.uleb128 0x3
 5146 0043 0B000000 		.4byte	.LASF2
 5147 0047 03       		.byte	0x3
 5148 0048 29       		.byte	0x29
 5149 0049 4D000000 		.4byte	0x4d
 5150 004d 04       		.uleb128 0x4
 5151 004e 01       		.byte	0x1
 5152 004f 06       		.byte	0x6
 5153 0050 AB020000 		.4byte	.LASF3
 5154 0054 03       		.uleb128 0x3
 5155 0055 C1020000 		.4byte	.LASF4
ARM GAS  /tmp/cc2wa78n.s 			page 92


 5156 0059 03       		.byte	0x3
 5157 005a 2A       		.byte	0x2a
 5158 005b 5F000000 		.4byte	0x5f
 5159 005f 04       		.uleb128 0x4
 5160 0060 01       		.byte	0x1
 5161 0061 08       		.byte	0x8
 5162 0062 17030000 		.4byte	.LASF5
 5163 0066 03       		.uleb128 0x3
 5164 0067 130B0000 		.4byte	.LASF6
 5165 006b 03       		.byte	0x3
 5166 006c 35       		.byte	0x35
 5167 006d 71000000 		.4byte	0x71
 5168 0071 04       		.uleb128 0x4
 5169 0072 02       		.byte	0x2
 5170 0073 05       		.byte	0x5
 5171 0074 AA0A0000 		.4byte	.LASF7
 5172 0078 03       		.uleb128 0x3
 5173 0079 E9080000 		.4byte	.LASF8
 5174 007d 03       		.byte	0x3
 5175 007e 36       		.byte	0x36
 5176 007f 83000000 		.4byte	0x83
 5177 0083 04       		.uleb128 0x4
 5178 0084 02       		.byte	0x2
 5179 0085 07       		.byte	0x7
 5180 0086 5F0C0000 		.4byte	.LASF9
 5181 008a 03       		.uleb128 0x3
 5182 008b 69000000 		.4byte	.LASF10
 5183 008f 03       		.byte	0x3
 5184 0090 4F       		.byte	0x4f
 5185 0091 95000000 		.4byte	0x95
 5186 0095 04       		.uleb128 0x4
 5187 0096 04       		.byte	0x4
 5188 0097 05       		.byte	0x5
 5189 0098 DC010000 		.4byte	.LASF11
 5190 009c 03       		.uleb128 0x3
 5191 009d FA0B0000 		.4byte	.LASF12
 5192 00a1 03       		.byte	0x3
 5193 00a2 50       		.byte	0x50
 5194 00a3 A7000000 		.4byte	0xa7
 5195 00a7 04       		.uleb128 0x4
 5196 00a8 04       		.byte	0x4
 5197 00a9 07       		.byte	0x7
 5198 00aa BF050000 		.4byte	.LASF13
 5199 00ae 04       		.uleb128 0x4
 5200 00af 08       		.byte	0x8
 5201 00b0 05       		.byte	0x5
 5202 00b1 8B060000 		.4byte	.LASF14
 5203 00b5 03       		.uleb128 0x3
 5204 00b6 C30A0000 		.4byte	.LASF15
 5205 00ba 03       		.byte	0x3
 5206 00bb 78       		.byte	0x78
 5207 00bc C0000000 		.4byte	0xc0
 5208 00c0 04       		.uleb128 0x4
 5209 00c1 08       		.byte	0x8
 5210 00c2 07       		.byte	0x7
 5211 00c3 BE080000 		.4byte	.LASF16
 5212 00c7 03       		.uleb128 0x3
ARM GAS  /tmp/cc2wa78n.s 			page 93


 5213 00c8 050A0000 		.4byte	.LASF17
 5214 00cc 04       		.byte	0x4
 5215 00cd 28       		.byte	0x28
 5216 00ce 54000000 		.4byte	0x54
 5217 00d2 03       		.uleb128 0x3
 5218 00d3 32020000 		.4byte	.LASF18
 5219 00d7 04       		.byte	0x4
 5220 00d8 29       		.byte	0x29
 5221 00d9 54000000 		.4byte	0x54
 5222 00dd 03       		.uleb128 0x3
 5223 00de D00B0000 		.4byte	.LASF19
 5224 00e2 04       		.byte	0x4
 5225 00e3 2A       		.byte	0x2a
 5226 00e4 54000000 		.4byte	0x54
 5227 00e8 03       		.uleb128 0x3
 5228 00e9 0D090000 		.4byte	.LASF20
 5229 00ed 04       		.byte	0x4
 5230 00ee 2B       		.byte	0x2b
 5231 00ef 54000000 		.4byte	0x54
 5232 00f3 03       		.uleb128 0x3
 5233 00f4 45000000 		.4byte	.LASF21
 5234 00f8 04       		.byte	0x4
 5235 00f9 2C       		.byte	0x2c
 5236 00fa 9C000000 		.4byte	0x9c
 5237 00fe 03       		.uleb128 0x3
 5238 00ff 02090000 		.4byte	.LASF22
 5239 0103 04       		.byte	0x4
 5240 0104 2D       		.byte	0x2d
 5241 0105 8A000000 		.4byte	0x8a
 5242 0109 03       		.uleb128 0x3
 5243 010a F2020000 		.4byte	.LASF23
 5244 010e 04       		.byte	0x4
 5245 010f 2F       		.byte	0x2f
 5246 0110 9C000000 		.4byte	0x9c
 5247 0114 03       		.uleb128 0x3
 5248 0115 29000000 		.4byte	.LASF24
 5249 0119 04       		.byte	0x4
 5250 011a 30       		.byte	0x30
 5251 011b 9C000000 		.4byte	0x9c
 5252 011f 03       		.uleb128 0x3
 5253 0120 EF040000 		.4byte	.LASF25
 5254 0124 04       		.byte	0x4
 5255 0125 31       		.byte	0x31
 5256 0126 8A000000 		.4byte	0x8a
 5257 012a 03       		.uleb128 0x3
 5258 012b 630B0000 		.4byte	.LASF26
 5259 012f 05       		.byte	0x5
 5260 0130 23       		.byte	0x23
 5261 0131 35010000 		.4byte	0x135
 5262 0135 05       		.uleb128 0x5
 5263 0136 630B0000 		.4byte	.LASF26
 5264 013a 4C       		.byte	0x4c
 5265 013b 06       		.byte	0x6
 5266 013c 57       		.byte	0x57
 5267 013d 68020000 		.4byte	0x268
 5268 0141 06       		.uleb128 0x6
 5269 0142 E5010000 		.4byte	.LASF27
ARM GAS  /tmp/cc2wa78n.s 			page 94


 5270 0146 06       		.byte	0x6
 5271 0147 58       		.byte	0x58
 5272 0148 8D020000 		.4byte	0x28d
 5273 014c 02       		.byte	0x2
 5274 014d 23       		.byte	0x23
 5275 014e 00       		.uleb128 0
 5276 014f 06       		.uleb128 0x6
 5277 0150 F4010000 		.4byte	.LASF28
 5278 0154 06       		.byte	0x6
 5279 0155 5A       		.byte	0x5a
 5280 0156 8D020000 		.4byte	0x28d
 5281 015a 02       		.byte	0x2
 5282 015b 23       		.byte	0x23
 5283 015c 04       		.uleb128 0x4
 5284 015d 06       		.uleb128 0x6
 5285 015e CE030000 		.4byte	.LASF29
 5286 0162 06       		.byte	0x6
 5287 0163 5C       		.byte	0x5c
 5288 0164 F3000000 		.4byte	0xf3
 5289 0168 02       		.byte	0x2
 5290 0169 23       		.byte	0x23
 5291 016a 08       		.uleb128 0x8
 5292 016b 06       		.uleb128 0x6
 5293 016c 3F000000 		.4byte	.LASF30
 5294 0170 06       		.byte	0x6
 5295 0171 5D       		.byte	0x5d
 5296 0172 66030000 		.4byte	0x366
 5297 0176 02       		.byte	0x2
 5298 0177 23       		.byte	0x23
 5299 0178 0C       		.uleb128 0xc
 5300 0179 06       		.uleb128 0x6
 5301 017a C2010000 		.4byte	.LASF31
 5302 017e 06       		.byte	0x6
 5303 017f 5F       		.byte	0x5f
 5304 0180 8D020000 		.4byte	0x28d
 5305 0184 02       		.byte	0x2
 5306 0185 23       		.byte	0x23
 5307 0186 10       		.uleb128 0x10
 5308 0187 06       		.uleb128 0x6
 5309 0188 E1080000 		.4byte	.LASF32
 5310 018c 06       		.byte	0x6
 5311 018d 60       		.byte	0x60
 5312 018e 8D020000 		.4byte	0x28d
 5313 0192 02       		.byte	0x2
 5314 0193 23       		.byte	0x23
 5315 0194 14       		.uleb128 0x14
 5316 0195 06       		.uleb128 0x6
 5317 0196 C30C0000 		.4byte	.LASF33
 5318 019a 06       		.byte	0x6
 5319 019b 67       		.byte	0x67
 5320 019c AD040000 		.4byte	0x4ad
 5321 01a0 02       		.byte	0x2
 5322 01a1 23       		.byte	0x23
 5323 01a2 18       		.uleb128 0x18
 5324 01a3 06       		.uleb128 0x6
 5325 01a4 7C0C0000 		.4byte	.LASF34
 5326 01a8 06       		.byte	0x6
ARM GAS  /tmp/cc2wa78n.s 			page 95


 5327 01a9 6D       		.byte	0x6d
 5328 01aa BF040000 		.4byte	0x4bf
 5329 01ae 02       		.byte	0x2
 5330 01af 23       		.byte	0x23
 5331 01b0 1C       		.uleb128 0x1c
 5332 01b1 06       		.uleb128 0x6
 5333 01b2 140D0000 		.4byte	.LASF35
 5334 01b6 06       		.byte	0x6
 5335 01b7 72       		.byte	0x72
 5336 01b8 D2000000 		.4byte	0xd2
 5337 01bc 02       		.byte	0x2
 5338 01bd 23       		.byte	0x23
 5339 01be 20       		.uleb128 0x20
 5340 01bf 06       		.uleb128 0x6
 5341 01c0 31070000 		.4byte	.LASF36
 5342 01c4 06       		.byte	0x6
 5343 01c5 76       		.byte	0x76
 5344 01c6 C7000000 		.4byte	0xc7
 5345 01ca 02       		.byte	0x2
 5346 01cb 23       		.byte	0x23
 5347 01cc 21       		.uleb128 0x21
 5348 01cd 06       		.uleb128 0x6
 5349 01ce 68070000 		.4byte	.LASF37
 5350 01d2 06       		.byte	0x6
 5351 01d3 7B       		.byte	0x7b
 5352 01d4 DD000000 		.4byte	0xdd
 5353 01d8 02       		.byte	0x2
 5354 01d9 23       		.byte	0x23
 5355 01da 22       		.uleb128 0x22
 5356 01db 06       		.uleb128 0x6
 5357 01dc B7020000 		.4byte	.LASF38
 5358 01e0 06       		.byte	0x6
 5359 01e1 81       		.byte	0x81
 5360 01e2 E8000000 		.4byte	0xe8
 5361 01e6 02       		.byte	0x2
 5362 01e7 23       		.byte	0x23
 5363 01e8 23       		.uleb128 0x23
 5364 01e9 06       		.uleb128 0x6
 5365 01ea E9070000 		.4byte	.LASF39
 5366 01ee 06       		.byte	0x6
 5367 01ef 88       		.byte	0x88
 5368 01f0 89030000 		.4byte	0x389
 5369 01f4 02       		.byte	0x2
 5370 01f5 23       		.byte	0x23
 5371 01f6 24       		.uleb128 0x24
 5372 01f7 07       		.uleb128 0x7
 5373 01f8 705F7500 		.ascii	"p_u\000"
 5374 01fc 06       		.byte	0x6
 5375 01fd AD       		.byte	0xad
 5376 01fe 78040000 		.4byte	0x478
 5377 0202 02       		.byte	0x2
 5378 0203 23       		.byte	0x23
 5379 0204 28       		.uleb128 0x28
 5380 0205 06       		.uleb128 0x6
 5381 0206 22070000 		.4byte	.LASF40
 5382 020a 06       		.byte	0x6
 5383 020b B2       		.byte	0xb2
ARM GAS  /tmp/cc2wa78n.s 			page 96


 5384 020c B5020000 		.4byte	0x2b5
 5385 0210 02       		.byte	0x2
 5386 0211 23       		.byte	0x23
 5387 0212 2C       		.uleb128 0x2c
 5388 0213 06       		.uleb128 0x6
 5389 0214 58000000 		.4byte	.LASF41
 5390 0218 06       		.byte	0x6
 5391 0219 B8       		.byte	0xb8
 5392 021a 93020000 		.4byte	0x293
 5393 021e 02       		.byte	0x2
 5394 021f 23       		.byte	0x23
 5395 0220 30       		.uleb128 0x30
 5396 0221 06       		.uleb128 0x6
 5397 0222 0E0D0000 		.4byte	.LASF42
 5398 0226 06       		.byte	0x6
 5399 0227 BC       		.byte	0xbc
 5400 0228 FE000000 		.4byte	0xfe
 5401 022c 02       		.byte	0x2
 5402 022d 23       		.byte	0x23
 5403 022e 38       		.uleb128 0x38
 5404 022f 06       		.uleb128 0x6
 5405 0230 45050000 		.4byte	.LASF43
 5406 0234 06       		.byte	0x6
 5407 0235 C2       		.byte	0xc2
 5408 0236 09010000 		.4byte	0x109
 5409 023a 02       		.byte	0x2
 5410 023b 23       		.byte	0x23
 5411 023c 3C       		.uleb128 0x3c
 5412 023d 06       		.uleb128 0x6
 5413 023e 3B020000 		.4byte	.LASF44
 5414 0242 06       		.byte	0x6
 5415 0243 C9       		.byte	0xc9
 5416 0244 C5040000 		.4byte	0x4c5
 5417 0248 02       		.byte	0x2
 5418 0249 23       		.byte	0x23
 5419 024a 40       		.uleb128 0x40
 5420 024b 06       		.uleb128 0x6
 5421 024c 56080000 		.4byte	.LASF45
 5422 0250 06       		.byte	0x6
 5423 0251 CD       		.byte	0xcd
 5424 0252 F3000000 		.4byte	0xf3
 5425 0256 02       		.byte	0x2
 5426 0257 23       		.byte	0x23
 5427 0258 44       		.uleb128 0x44
 5428 0259 06       		.uleb128 0x6
 5429 025a 53070000 		.4byte	.LASF46
 5430 025e 06       		.byte	0x6
 5431 025f D3       		.byte	0xd3
 5432 0260 CB020000 		.4byte	0x2cb
 5433 0264 02       		.byte	0x2
 5434 0265 23       		.byte	0x23
 5435 0266 48       		.uleb128 0x48
 5436 0267 00       		.byte	0
 5437 0268 08       		.uleb128 0x8
 5438 0269 08       		.byte	0x8
 5439 026a 05       		.byte	0x5
 5440 026b 5A       		.byte	0x5a
ARM GAS  /tmp/cc2wa78n.s 			page 97


 5441 026c 8D020000 		.4byte	0x28d
 5442 0270 06       		.uleb128 0x6
 5443 0271 E5010000 		.4byte	.LASF27
 5444 0275 05       		.byte	0x5
 5445 0276 5B       		.byte	0x5b
 5446 0277 8D020000 		.4byte	0x28d
 5447 027b 02       		.byte	0x2
 5448 027c 23       		.byte	0x23
 5449 027d 00       		.uleb128 0
 5450 027e 06       		.uleb128 0x6
 5451 027f F4010000 		.4byte	.LASF28
 5452 0283 05       		.byte	0x5
 5453 0284 5D       		.byte	0x5d
 5454 0285 8D020000 		.4byte	0x28d
 5455 0289 02       		.byte	0x2
 5456 028a 23       		.byte	0x23
 5457 028b 04       		.uleb128 0x4
 5458 028c 00       		.byte	0
 5459 028d 09       		.uleb128 0x9
 5460 028e 04       		.byte	0x4
 5461 028f 2A010000 		.4byte	0x12a
 5462 0293 03       		.uleb128 0x3
 5463 0294 220C0000 		.4byte	.LASF47
 5464 0298 05       		.byte	0x5
 5465 0299 5F       		.byte	0x5f
 5466 029a 68020000 		.4byte	0x268
 5467 029e 08       		.uleb128 0x8
 5468 029f 04       		.byte	0x4
 5469 02a0 05       		.byte	0x5
 5470 02a1 64       		.byte	0x64
 5471 02a2 B5020000 		.4byte	0x2b5
 5472 02a6 06       		.uleb128 0x6
 5473 02a7 E5010000 		.4byte	.LASF27
 5474 02ab 05       		.byte	0x5
 5475 02ac 66       		.byte	0x66
 5476 02ad 8D020000 		.4byte	0x28d
 5477 02b1 02       		.byte	0x2
 5478 02b2 23       		.byte	0x23
 5479 02b3 00       		.uleb128 0
 5480 02b4 00       		.byte	0
 5481 02b5 03       		.uleb128 0x3
 5482 02b6 80070000 		.4byte	.LASF48
 5483 02ba 05       		.byte	0x5
 5484 02bb 69       		.byte	0x69
 5485 02bc 9E020000 		.4byte	0x29e
 5486 02c0 03       		.uleb128 0x3
 5487 02c1 4D020000 		.4byte	.LASF49
 5488 02c5 07       		.byte	0x7
 5489 02c6 DE       		.byte	0xde
 5490 02c7 CB020000 		.4byte	0x2cb
 5491 02cb 0A       		.uleb128 0xa
 5492 02cc 04       		.byte	0x4
 5493 02cd 03       		.uleb128 0x3
 5494 02ce 84040000 		.4byte	.LASF50
 5495 02d2 07       		.byte	0x7
 5496 02d3 E4       		.byte	0xe4
 5497 02d4 B5000000 		.4byte	0xb5
ARM GAS  /tmp/cc2wa78n.s 			page 98


 5498 02d8 0B       		.uleb128 0xb
 5499 02d9 2E050000 		.4byte	.LASF51
 5500 02dd 24       		.byte	0x24
 5501 02de 07       		.byte	0x7
 5502 02df 0501     		.2byte	0x105
 5503 02e1 66030000 		.4byte	0x366
 5504 02e5 0C       		.uleb128 0xc
 5505 02e6 723400   		.ascii	"r4\000"
 5506 02e9 07       		.byte	0x7
 5507 02ea 1801     		.2byte	0x118
 5508 02ec C0020000 		.4byte	0x2c0
 5509 02f0 02       		.byte	0x2
 5510 02f1 23       		.byte	0x23
 5511 02f2 00       		.uleb128 0
 5512 02f3 0C       		.uleb128 0xc
 5513 02f4 723500   		.ascii	"r5\000"
 5514 02f7 07       		.byte	0x7
 5515 02f8 1901     		.2byte	0x119
 5516 02fa C0020000 		.4byte	0x2c0
 5517 02fe 02       		.byte	0x2
 5518 02ff 23       		.byte	0x23
 5519 0300 04       		.uleb128 0x4
 5520 0301 0C       		.uleb128 0xc
 5521 0302 723600   		.ascii	"r6\000"
 5522 0305 07       		.byte	0x7
 5523 0306 1A01     		.2byte	0x11a
 5524 0308 C0020000 		.4byte	0x2c0
 5525 030c 02       		.byte	0x2
 5526 030d 23       		.byte	0x23
 5527 030e 08       		.uleb128 0x8
 5528 030f 0C       		.uleb128 0xc
 5529 0310 723700   		.ascii	"r7\000"
 5530 0313 07       		.byte	0x7
 5531 0314 1B01     		.2byte	0x11b
 5532 0316 C0020000 		.4byte	0x2c0
 5533 031a 02       		.byte	0x2
 5534 031b 23       		.byte	0x23
 5535 031c 0C       		.uleb128 0xc
 5536 031d 0C       		.uleb128 0xc
 5537 031e 723800   		.ascii	"r8\000"
 5538 0321 07       		.byte	0x7
 5539 0322 1C01     		.2byte	0x11c
 5540 0324 C0020000 		.4byte	0x2c0
 5541 0328 02       		.byte	0x2
 5542 0329 23       		.byte	0x23
 5543 032a 10       		.uleb128 0x10
 5544 032b 0C       		.uleb128 0xc
 5545 032c 723900   		.ascii	"r9\000"
 5546 032f 07       		.byte	0x7
 5547 0330 1D01     		.2byte	0x11d
 5548 0332 C0020000 		.4byte	0x2c0
 5549 0336 02       		.byte	0x2
 5550 0337 23       		.byte	0x23
 5551 0338 14       		.uleb128 0x14
 5552 0339 0C       		.uleb128 0xc
 5553 033a 72313000 		.ascii	"r10\000"
 5554 033e 07       		.byte	0x7
ARM GAS  /tmp/cc2wa78n.s 			page 99


 5555 033f 1E01     		.2byte	0x11e
 5556 0341 C0020000 		.4byte	0x2c0
 5557 0345 02       		.byte	0x2
 5558 0346 23       		.byte	0x23
 5559 0347 18       		.uleb128 0x18
 5560 0348 0C       		.uleb128 0xc
 5561 0349 72313100 		.ascii	"r11\000"
 5562 034d 07       		.byte	0x7
 5563 034e 1F01     		.2byte	0x11f
 5564 0350 C0020000 		.4byte	0x2c0
 5565 0354 02       		.byte	0x2
 5566 0355 23       		.byte	0x23
 5567 0356 1C       		.uleb128 0x1c
 5568 0357 0C       		.uleb128 0xc
 5569 0358 6C7200   		.ascii	"lr\000"
 5570 035b 07       		.byte	0x7
 5571 035c 2001     		.2byte	0x120
 5572 035e C0020000 		.4byte	0x2c0
 5573 0362 02       		.byte	0x2
 5574 0363 23       		.byte	0x23
 5575 0364 20       		.uleb128 0x20
 5576 0365 00       		.byte	0
 5577 0366 0B       		.uleb128 0xb
 5578 0367 06030000 		.4byte	.LASF52
 5579 036b 04       		.byte	0x4
 5580 036c 07       		.byte	0x7
 5581 036d 2A01     		.2byte	0x12a
 5582 036f 83030000 		.4byte	0x383
 5583 0373 0C       		.uleb128 0xc
 5584 0374 72313300 		.ascii	"r13\000"
 5585 0378 07       		.byte	0x7
 5586 0379 2B01     		.2byte	0x12b
 5587 037b 83030000 		.4byte	0x383
 5588 037f 02       		.byte	0x2
 5589 0380 23       		.byte	0x23
 5590 0381 00       		.uleb128 0
 5591 0382 00       		.byte	0
 5592 0383 09       		.uleb128 0x9
 5593 0384 04       		.byte	0x4
 5594 0385 D8020000 		.4byte	0x2d8
 5595 0389 0D       		.uleb128 0xd
 5596 038a 14010000 		.4byte	0x114
 5597 038e 05       		.uleb128 0x5
 5598 038f 35080000 		.4byte	.LASF53
 5599 0393 0C       		.byte	0xc
 5600 0394 08       		.byte	0x8
 5601 0395 25       		.byte	0x25
 5602 0396 B7030000 		.4byte	0x3b7
 5603 039a 06       		.uleb128 0x6
 5604 039b 750A0000 		.4byte	.LASF54
 5605 039f 08       		.byte	0x8
 5606 03a0 26       		.byte	0x26
 5607 03a1 93020000 		.4byte	0x293
 5608 03a5 02       		.byte	0x2
 5609 03a6 23       		.byte	0x23
 5610 03a7 00       		.uleb128 0
 5611 03a8 06       		.uleb128 0x6
ARM GAS  /tmp/cc2wa78n.s 			page 100


 5612 03a9 9A080000 		.4byte	.LASF55
 5613 03ad 08       		.byte	0x8
 5614 03ae 28       		.byte	0x28
 5615 03af 1F010000 		.4byte	0x11f
 5616 03b3 02       		.byte	0x2
 5617 03b4 23       		.byte	0x23
 5618 03b5 08       		.uleb128 0x8
 5619 03b6 00       		.byte	0
 5620 03b7 03       		.uleb128 0x3
 5621 03b8 35080000 		.4byte	.LASF53
 5622 03bc 08       		.byte	0x8
 5623 03bd 29       		.byte	0x29
 5624 03be 8E030000 		.4byte	0x38e
 5625 03c2 05       		.uleb128 0x5
 5626 03c3 6B060000 		.4byte	.LASF56
 5627 03c7 10       		.byte	0x10
 5628 03c8 09       		.byte	0x9
 5629 03c9 25       		.byte	0x25
 5630 03ca F9030000 		.4byte	0x3f9
 5631 03ce 06       		.uleb128 0x6
 5632 03cf A0060000 		.4byte	.LASF57
 5633 03d3 09       		.byte	0x9
 5634 03d4 26       		.byte	0x26
 5635 03d5 93020000 		.4byte	0x293
 5636 03d9 02       		.byte	0x2
 5637 03da 23       		.byte	0x23
 5638 03db 00       		.uleb128 0
 5639 03dc 06       		.uleb128 0x6
 5640 03dd 86010000 		.4byte	.LASF58
 5641 03e1 09       		.byte	0x9
 5642 03e2 28       		.byte	0x28
 5643 03e3 8D020000 		.4byte	0x28d
 5644 03e7 02       		.byte	0x2
 5645 03e8 23       		.byte	0x23
 5646 03e9 08       		.uleb128 0x8
 5647 03ea 06       		.uleb128 0x6
 5648 03eb D40C0000 		.4byte	.LASF59
 5649 03ef 09       		.byte	0x9
 5650 03f0 2A       		.byte	0x2a
 5651 03f1 F9030000 		.4byte	0x3f9
 5652 03f5 02       		.byte	0x2
 5653 03f6 23       		.byte	0x23
 5654 03f7 0C       		.uleb128 0xc
 5655 03f8 00       		.byte	0
 5656 03f9 09       		.uleb128 0x9
 5657 03fa 04       		.byte	0x4
 5658 03fb C2030000 		.4byte	0x3c2
 5659 03ff 03       		.uleb128 0x3
 5660 0400 6B060000 		.4byte	.LASF56
 5661 0404 09       		.byte	0x9
 5662 0405 2C       		.byte	0x2c
 5663 0406 C2030000 		.4byte	0x3c2
 5664 040a 08       		.uleb128 0x8
 5665 040b 28       		.byte	0x28
 5666 040c 0A       		.byte	0xa
 5667 040d 2C       		.byte	0x2c
 5668 040e 67040000 		.4byte	0x467
ARM GAS  /tmp/cc2wa78n.s 			page 101


 5669 0412 06       		.uleb128 0x6
 5670 0413 0A010000 		.4byte	.LASF60
 5671 0417 0A       		.byte	0xa
 5672 0418 2D       		.byte	0x2d
 5673 0419 67040000 		.4byte	0x467
 5674 041d 02       		.byte	0x2
 5675 041e 23       		.byte	0x23
 5676 041f 00       		.uleb128 0
 5677 0420 06       		.uleb128 0x6
 5678 0421 73080000 		.4byte	.LASF61
 5679 0425 0A       		.byte	0xa
 5680 0426 2F       		.byte	0x2f
 5681 0427 67040000 		.4byte	0x467
 5682 042b 02       		.byte	0x2
 5683 042c 23       		.byte	0x23
 5684 042d 04       		.uleb128 0x4
 5685 042e 06       		.uleb128 0x6
 5686 042f A8060000 		.4byte	.LASF62
 5687 0433 0A       		.byte	0xa
 5688 0434 31       		.byte	0x31
 5689 0435 67040000 		.4byte	0x467
 5690 0439 02       		.byte	0x2
 5691 043a 23       		.byte	0x23
 5692 043b 08       		.uleb128 0x8
 5693 043c 06       		.uleb128 0x6
 5694 043d E1020000 		.4byte	.LASF63
 5695 0441 0A       		.byte	0xa
 5696 0442 32       		.byte	0x32
 5697 0443 67040000 		.4byte	0x467
 5698 0447 02       		.byte	0x2
 5699 0448 23       		.byte	0x23
 5700 0449 0C       		.uleb128 0xc
 5701 044a 06       		.uleb128 0x6
 5702 044b 39060000 		.4byte	.LASF64
 5703 044f 0A       		.byte	0xa
 5704 0450 33       		.byte	0x33
 5705 0451 B7030000 		.4byte	0x3b7
 5706 0455 02       		.byte	0x2
 5707 0456 23       		.byte	0x23
 5708 0457 10       		.uleb128 0x10
 5709 0458 06       		.uleb128 0x6
 5710 0459 E4030000 		.4byte	.LASF65
 5711 045d 0A       		.byte	0xa
 5712 045e 35       		.byte	0x35
 5713 045f B7030000 		.4byte	0x3b7
 5714 0463 02       		.byte	0x2
 5715 0464 23       		.byte	0x23
 5716 0465 1C       		.uleb128 0x1c
 5717 0466 00       		.byte	0
 5718 0467 09       		.uleb128 0x9
 5719 0468 04       		.byte	0x4
 5720 0469 FE000000 		.4byte	0xfe
 5721 046d 03       		.uleb128 0x3
 5722 046e 9D050000 		.4byte	.LASF66
 5723 0472 0A       		.byte	0xa
 5724 0473 37       		.byte	0x37
 5725 0474 0A040000 		.4byte	0x40a
ARM GAS  /tmp/cc2wa78n.s 			page 102


 5726 0478 0E       		.uleb128 0xe
 5727 0479 04       		.byte	0x4
 5728 047a 06       		.byte	0x6
 5729 047b 8F       		.byte	0x8f
 5730 047c AD040000 		.4byte	0x4ad
 5731 0480 0F       		.uleb128 0xf
 5732 0481 580C0000 		.4byte	.LASF67
 5733 0485 06       		.byte	0x6
 5734 0486 96       		.byte	0x96
 5735 0487 FE000000 		.4byte	0xfe
 5736 048b 0F       		.uleb128 0xf
 5737 048c 96010000 		.4byte	.LASF68
 5738 0490 06       		.byte	0x6
 5739 0491 9D       		.byte	0x9d
 5740 0492 FE000000 		.4byte	0xfe
 5741 0496 0F       		.uleb128 0xf
 5742 0497 F8030000 		.4byte	.LASF69
 5743 049b 06       		.byte	0x6
 5744 049c A4       		.byte	0xa4
 5745 049d CB020000 		.4byte	0x2cb
 5746 04a1 0F       		.uleb128 0xf
 5747 04a2 9F010000 		.4byte	.LASF70
 5748 04a6 06       		.byte	0x6
 5749 04a7 AB       		.byte	0xab
 5750 04a8 09010000 		.4byte	0x109
 5751 04ac 00       		.byte	0
 5752 04ad 09       		.uleb128 0x9
 5753 04ae 04       		.byte	0x4
 5754 04af B3040000 		.4byte	0x4b3
 5755 04b3 10       		.uleb128 0x10
 5756 04b4 B8040000 		.4byte	0x4b8
 5757 04b8 04       		.uleb128 0x4
 5758 04b9 01       		.byte	0x1
 5759 04ba 08       		.byte	0x8
 5760 04bb B8030000 		.4byte	.LASF71
 5761 04bf 09       		.uleb128 0x9
 5762 04c0 04       		.byte	0x4
 5763 04c1 CD020000 		.4byte	0x2cd
 5764 04c5 09       		.uleb128 0x9
 5765 04c6 04       		.byte	0x4
 5766 04c7 FF030000 		.4byte	0x3ff
 5767 04cb 03       		.uleb128 0x3
 5768 04cc 770C0000 		.4byte	.LASF72
 5769 04d0 0B       		.byte	0xb
 5770 04d1 3C       		.byte	0x3c
 5771 04d2 54000000 		.4byte	0x54
 5772 04d6 03       		.uleb128 0x3
 5773 04d7 720C0000 		.4byte	.LASF73
 5774 04db 0B       		.byte	0xb
 5775 04dc 3D       		.byte	0x3d
 5776 04dd 42000000 		.4byte	0x42
 5777 04e1 03       		.uleb128 0x3
 5778 04e2 4D070000 		.4byte	.LASF74
 5779 04e6 0B       		.byte	0xb
 5780 04e7 3E       		.byte	0x3e
 5781 04e8 78000000 		.4byte	0x78
 5782 04ec 03       		.uleb128 0x3
ARM GAS  /tmp/cc2wa78n.s 			page 103


 5783 04ed CA0B0000 		.4byte	.LASF75
 5784 04f1 0B       		.byte	0xb
 5785 04f2 3F       		.byte	0x3f
 5786 04f3 66000000 		.4byte	0x66
 5787 04f7 03       		.uleb128 0x3
 5788 04f8 FF090000 		.4byte	.LASF76
 5789 04fc 0B       		.byte	0xb
 5790 04fd 40       		.byte	0x40
 5791 04fe 9C000000 		.4byte	0x9c
 5792 0502 03       		.uleb128 0x3
 5793 0503 E90B0000 		.4byte	.LASF77
 5794 0507 0B       		.byte	0xb
 5795 0508 42       		.byte	0x42
 5796 0509 9C000000 		.4byte	0x9c
 5797 050d 05       		.uleb128 0x5
 5798 050e A0040000 		.4byte	.LASF78
 5799 0512 04       		.byte	0x4
 5800 0513 0C       		.byte	0xc
 5801 0514 2C       		.byte	0x2c
 5802 0515 28050000 		.4byte	0x528
 5803 0519 06       		.uleb128 0x6
 5804 051a 2C070000 		.4byte	.LASF79
 5805 051e 0C       		.byte	0xc
 5806 051f 2D       		.byte	0x2d
 5807 0520 F7040000 		.4byte	0x4f7
 5808 0524 02       		.byte	0x2
 5809 0525 23       		.byte	0x23
 5810 0526 00       		.uleb128 0
 5811 0527 00       		.byte	0
 5812 0528 03       		.uleb128 0x3
 5813 0529 2B080000 		.4byte	.LASF80
 5814 052d 0C       		.byte	0xc
 5815 052e 40       		.byte	0x40
 5816 052f 0D050000 		.4byte	0x50d
 5817 0533 05       		.uleb128 0x5
 5818 0534 F7090000 		.4byte	.LASF81
 5819 0538 04       		.byte	0x4
 5820 0539 0D       		.byte	0xd
 5821 053a 2C       		.byte	0x2c
 5822 053b 4E050000 		.4byte	0x54e
 5823 053f 06       		.uleb128 0x6
 5824 0540 F30B0000 		.4byte	.LASF82
 5825 0544 0D       		.byte	0xd
 5826 0545 2D       		.byte	0x2d
 5827 0546 F7040000 		.4byte	0x4f7
 5828 054a 02       		.byte	0x2
 5829 054b 23       		.byte	0x23
 5830 054c 00       		.uleb128 0
 5831 054d 00       		.byte	0
 5832 054e 05       		.uleb128 0x5
 5833 054f 72090000 		.4byte	.LASF83
 5834 0553 10       		.byte	0x10
 5835 0554 0E       		.byte	0xe
 5836 0555 33       		.byte	0x33
 5837 0556 A1050000 		.4byte	0x5a1
 5838 055a 06       		.uleb128 0x6
 5839 055b 45020000 		.4byte	.LASF84
ARM GAS  /tmp/cc2wa78n.s 			page 104


 5840 055f 0E       		.byte	0xe
 5841 0560 34       		.byte	0x34
 5842 0561 CB040000 		.4byte	0x4cb
 5843 0565 02       		.byte	0x2
 5844 0566 23       		.byte	0x23
 5845 0567 00       		.uleb128 0
 5846 0568 06       		.uleb128 0x6
 5847 0569 71000000 		.4byte	.LASF85
 5848 056d 0E       		.byte	0xe
 5849 056e 35       		.byte	0x35
 5850 056f CB040000 		.4byte	0x4cb
 5851 0573 02       		.byte	0x2
 5852 0574 23       		.byte	0x23
 5853 0575 01       		.uleb128 0x1
 5854 0576 06       		.uleb128 0x6
 5855 0577 28040000 		.4byte	.LASF86
 5856 057b 0E       		.byte	0xe
 5857 057c 36       		.byte	0x36
 5858 057d E1040000 		.4byte	0x4e1
 5859 0581 02       		.byte	0x2
 5860 0582 23       		.byte	0x23
 5861 0583 02       		.uleb128 0x2
 5862 0584 06       		.uleb128 0x6
 5863 0585 87000000 		.4byte	.LASF87
 5864 0589 0E       		.byte	0xe
 5865 058a 37       		.byte	0x37
 5866 058b 33050000 		.4byte	0x533
 5867 058f 02       		.byte	0x2
 5868 0590 23       		.byte	0x23
 5869 0591 04       		.uleb128 0x4
 5870 0592 06       		.uleb128 0x6
 5871 0593 AD040000 		.4byte	.LASF88
 5872 0597 0E       		.byte	0xe
 5873 0598 38       		.byte	0x38
 5874 0599 A1050000 		.4byte	0x5a1
 5875 059d 02       		.byte	0x2
 5876 059e 23       		.byte	0x23
 5877 059f 08       		.uleb128 0x8
 5878 05a0 00       		.byte	0
 5879 05a1 11       		.uleb128 0x11
 5880 05a2 B8040000 		.4byte	0x4b8
 5881 05a6 B1050000 		.4byte	0x5b1
 5882 05aa 12       		.uleb128 0x12
 5883 05ab 3B000000 		.4byte	0x3b
 5884 05af 07       		.byte	0x7
 5885 05b0 00       		.byte	0
 5886 05b1 05       		.uleb128 0x5
 5887 05b2 93090000 		.4byte	.LASF89
 5888 05b6 10       		.byte	0x10
 5889 05b7 0E       		.byte	0xe
 5890 05b8 3B       		.byte	0x3b
 5891 05b9 E8050000 		.4byte	0x5e8
 5892 05bd 06       		.uleb128 0x6
 5893 05be 880A0000 		.4byte	.LASF90
 5894 05c2 0E       		.byte	0xe
 5895 05c3 3C       		.byte	0x3c
 5896 05c4 CB040000 		.4byte	0x4cb
ARM GAS  /tmp/cc2wa78n.s 			page 105


 5897 05c8 02       		.byte	0x2
 5898 05c9 23       		.byte	0x23
 5899 05ca 00       		.uleb128 0
 5900 05cb 06       		.uleb128 0x6
 5901 05cc 19000000 		.4byte	.LASF91
 5902 05d0 0E       		.byte	0xe
 5903 05d1 3D       		.byte	0x3d
 5904 05d2 CB040000 		.4byte	0x4cb
 5905 05d6 02       		.byte	0x2
 5906 05d7 23       		.byte	0x23
 5907 05d8 01       		.uleb128 0x1
 5908 05d9 06       		.uleb128 0x6
 5909 05da 4B090000 		.4byte	.LASF92
 5910 05de 0E       		.byte	0xe
 5911 05df 3E       		.byte	0x3e
 5912 05e0 E8050000 		.4byte	0x5e8
 5913 05e4 02       		.byte	0x2
 5914 05e5 23       		.byte	0x23
 5915 05e6 02       		.uleb128 0x2
 5916 05e7 00       		.byte	0
 5917 05e8 11       		.uleb128 0x11
 5918 05e9 B8040000 		.4byte	0x4b8
 5919 05ed F8050000 		.4byte	0x5f8
 5920 05f1 12       		.uleb128 0x12
 5921 05f2 3B000000 		.4byte	0x3b
 5922 05f6 0D       		.byte	0xd
 5923 05f7 00       		.byte	0
 5924 05f8 0B       		.uleb128 0xb
 5925 05f9 A30B0000 		.4byte	.LASF93
 5926 05fd 01       		.byte	0x1
 5927 05fe 0E       		.byte	0xe
 5928 05ff 2A01     		.2byte	0x12a
 5929 0601 15060000 		.4byte	0x615
 5930 0605 13       		.uleb128 0x13
 5931 0606 D0060000 		.4byte	.LASF94
 5932 060a 0E       		.byte	0xe
 5933 060b 2B01     		.2byte	0x12b
 5934 060d 15060000 		.4byte	0x615
 5935 0611 02       		.byte	0x2
 5936 0612 23       		.byte	0x23
 5937 0613 00       		.uleb128 0
 5938 0614 00       		.byte	0
 5939 0615 11       		.uleb128 0x11
 5940 0616 5F000000 		.4byte	0x5f
 5941 061a 25060000 		.4byte	0x625
 5942 061e 12       		.uleb128 0x12
 5943 061f 3B000000 		.4byte	0x3b
 5944 0623 00       		.byte	0
 5945 0624 00       		.byte	0
 5946 0625 14       		.uleb128 0x14
 5947 0626 A30B0000 		.4byte	.LASF93
 5948 062a 0E       		.byte	0xe
 5949 062b 2C01     		.2byte	0x12c
 5950 062d F8050000 		.4byte	0x5f8
 5951 0631 0B       		.uleb128 0xb
 5952 0632 FF030000 		.4byte	.LASF95
 5953 0636 08       		.byte	0x8
ARM GAS  /tmp/cc2wa78n.s 			page 106


 5954 0637 0E       		.byte	0xe
 5955 0638 3701     		.2byte	0x137
 5956 063a 5D060000 		.4byte	0x65d
 5957 063e 13       		.uleb128 0x13
 5958 063f F80C0000 		.4byte	.LASF96
 5959 0643 0E       		.byte	0xe
 5960 0644 3801     		.2byte	0x138
 5961 0646 95000000 		.4byte	0x95
 5962 064a 02       		.byte	0x2
 5963 064b 23       		.byte	0x23
 5964 064c 00       		.uleb128 0
 5965 064d 13       		.uleb128 0x13
 5966 064e 3D050000 		.4byte	.LASF97
 5967 0652 0E       		.byte	0xe
 5968 0653 3901     		.2byte	0x139
 5969 0655 95000000 		.4byte	0x95
 5970 0659 02       		.byte	0x2
 5971 065a 23       		.byte	0x23
 5972 065b 04       		.uleb128 0x4
 5973 065c 00       		.byte	0
 5974 065d 03       		.uleb128 0x3
 5975 065e 61080000 		.4byte	.LASF98
 5976 0662 0F       		.byte	0xf
 5977 0663 2F       		.byte	0x2f
 5978 0664 D6040000 		.4byte	0x4d6
 5979 0668 05       		.uleb128 0x5
 5980 0669 BD030000 		.4byte	.LASF99
 5981 066d 10       		.byte	0x10
 5982 066e 10       		.byte	0x10
 5983 066f 49       		.byte	0x49
 5984 0670 D7060000 		.4byte	0x6d7
 5985 0674 06       		.uleb128 0x6
 5986 0675 CA0C0000 		.4byte	.LASF100
 5987 0679 10       		.byte	0x10
 5988 067a 4B       		.byte	0x4b
 5989 067b D7060000 		.4byte	0x6d7
 5990 067f 02       		.byte	0x2
 5991 0680 23       		.byte	0x23
 5992 0681 00       		.uleb128 0
 5993 0682 06       		.uleb128 0x6
 5994 0683 1E060000 		.4byte	.LASF101
 5995 0687 10       		.byte	0x10
 5996 0688 4E       		.byte	0x4e
 5997 0689 CB020000 		.4byte	0x2cb
 5998 068d 02       		.byte	0x2
 5999 068e 23       		.byte	0x23
 6000 068f 04       		.uleb128 0x4
 6001 0690 06       		.uleb128 0x6
 6002 0691 1B080000 		.4byte	.LASF102
 6003 0695 10       		.byte	0x10
 6004 0696 57       		.byte	0x57
 6005 0697 E1040000 		.4byte	0x4e1
 6006 069b 02       		.byte	0x2
 6007 069c 23       		.byte	0x23
 6008 069d 08       		.uleb128 0x8
 6009 069e 07       		.uleb128 0x7
 6010 069f 6C656E00 		.ascii	"len\000"
ARM GAS  /tmp/cc2wa78n.s 			page 107


 6011 06a3 10       		.byte	0x10
 6012 06a4 5A       		.byte	0x5a
 6013 06a5 E1040000 		.4byte	0x4e1
 6014 06a9 02       		.byte	0x2
 6015 06aa 23       		.byte	0x23
 6016 06ab 0A       		.uleb128 0xa
 6017 06ac 06       		.uleb128 0x6
 6018 06ad 43010000 		.4byte	.LASF103
 6019 06b1 10       		.byte	0x10
 6020 06b2 5D       		.byte	0x5d
 6021 06b3 CB040000 		.4byte	0x4cb
 6022 06b7 02       		.byte	0x2
 6023 06b8 23       		.byte	0x23
 6024 06b9 0C       		.uleb128 0xc
 6025 06ba 06       		.uleb128 0x6
 6026 06bb 55040000 		.4byte	.LASF104
 6027 06bf 10       		.byte	0x10
 6028 06c0 60       		.byte	0x60
 6029 06c1 CB040000 		.4byte	0x4cb
 6030 06c5 02       		.byte	0x2
 6031 06c6 23       		.byte	0x23
 6032 06c7 0D       		.uleb128 0xd
 6033 06c8 07       		.uleb128 0x7
 6034 06c9 72656600 		.ascii	"ref\000"
 6035 06cd 10       		.byte	0x10
 6036 06ce 67       		.byte	0x67
 6037 06cf E1040000 		.4byte	0x4e1
 6038 06d3 02       		.byte	0x2
 6039 06d4 23       		.byte	0x23
 6040 06d5 0E       		.uleb128 0xe
 6041 06d6 00       		.byte	0
 6042 06d7 09       		.uleb128 0x9
 6043 06d8 04       		.byte	0x4
 6044 06d9 68060000 		.4byte	0x668
 6045 06dd 05       		.uleb128 0x5
 6046 06de 70040000 		.4byte	.LASF105
 6047 06e2 10       		.byte	0x10
 6048 06e3 11       		.byte	0x11
 6049 06e4 30       		.byte	0x30
 6050 06e5 20070000 		.4byte	0x720
 6051 06e9 07       		.uleb128 0x7
 6052 06ea 7000     		.ascii	"p\000"
 6053 06ec 11       		.byte	0x11
 6054 06ed 31       		.byte	0x31
 6055 06ee D7060000 		.4byte	0x6d7
 6056 06f2 02       		.byte	0x2
 6057 06f3 23       		.byte	0x23
 6058 06f4 00       		.uleb128 0
 6059 06f5 07       		.uleb128 0x7
 6060 06f6 70747200 		.ascii	"ptr\000"
 6061 06fa 11       		.byte	0x11
 6062 06fb 31       		.byte	0x31
 6063 06fc D7060000 		.4byte	0x6d7
 6064 0700 02       		.byte	0x2
 6065 0701 23       		.byte	0x23
 6066 0702 04       		.uleb128 0x4
 6067 0703 06       		.uleb128 0x6
ARM GAS  /tmp/cc2wa78n.s 			page 108


 6068 0704 2C070000 		.4byte	.LASF79
 6069 0708 11       		.byte	0x11
 6070 0709 32       		.byte	0x32
 6071 070a 28050000 		.4byte	0x528
 6072 070e 02       		.byte	0x2
 6073 070f 23       		.byte	0x23
 6074 0710 08       		.uleb128 0x8
 6075 0711 06       		.uleb128 0x6
 6076 0712 7D0A0000 		.4byte	.LASF106
 6077 0716 11       		.byte	0x11
 6078 0717 33       		.byte	0x33
 6079 0718 E1040000 		.4byte	0x4e1
 6080 071c 02       		.byte	0x2
 6081 071d 23       		.byte	0x23
 6082 071e 0C       		.uleb128 0xc
 6083 071f 00       		.byte	0
 6084 0720 03       		.uleb128 0x3
 6085 0721 1C020000 		.4byte	.LASF107
 6086 0725 12       		.byte	0x12
 6087 0726 3C       		.byte	0x3c
 6088 0727 2B070000 		.4byte	0x72b
 6089 072b 09       		.uleb128 0x9
 6090 072c 04       		.byte	0x4
 6091 072d B7030000 		.4byte	0x3b7
 6092 0731 03       		.uleb128 0x3
 6093 0732 60060000 		.4byte	.LASF108
 6094 0736 12       		.byte	0x12
 6095 0737 3D       		.byte	0x3d
 6096 0738 3C070000 		.4byte	0x73c
 6097 073c 09       		.uleb128 0x9
 6098 073d 04       		.byte	0x4
 6099 073e 6D040000 		.4byte	0x46d
 6100 0742 15       		.uleb128 0x15
 6101 0743 31040000 		.4byte	.LASF115
 6102 0747 01       		.byte	0x1
 6103 0748 13       		.byte	0x13
 6104 0749 53       		.byte	0x53
 6105 074a 74070000 		.4byte	0x774
 6106 074e 16       		.uleb128 0x16
 6107 074f 71010000 		.4byte	.LASF109
 6108 0753 00       		.sleb128 0
 6109 0754 16       		.uleb128 0x16
 6110 0755 A3030000 		.4byte	.LASF110
 6111 0759 10       		.sleb128 16
 6112 075a 16       		.uleb128 0x16
 6113 075b 71060000 		.4byte	.LASF111
 6114 075f 20       		.sleb128 32
 6115 0760 16       		.uleb128 0x16
 6116 0761 DA0A0000 		.4byte	.LASF112
 6117 0765 21       		.sleb128 33
 6118 0766 16       		.uleb128 0x16
 6119 0767 B6040000 		.4byte	.LASF113
 6120 076b 22       		.sleb128 34
 6121 076c 16       		.uleb128 0x16
 6122 076d 430A0000 		.4byte	.LASF114
 6123 0771 C000     		.sleb128 64
 6124 0773 00       		.byte	0
ARM GAS  /tmp/cc2wa78n.s 			page 109


 6125 0774 15       		.uleb128 0x15
 6126 0775 14070000 		.4byte	.LASF116
 6127 0779 01       		.byte	0x1
 6128 077a 13       		.byte	0x13
 6129 077b 61       		.byte	0x61
 6130 077c 9F070000 		.4byte	0x79f
 6131 0780 16       		.uleb128 0x16
 6132 0781 860B0000 		.4byte	.LASF117
 6133 0785 00       		.sleb128 0
 6134 0786 16       		.uleb128 0x16
 6135 0787 FB010000 		.4byte	.LASF118
 6136 078b 01       		.sleb128 1
 6137 078c 16       		.uleb128 0x16
 6138 078d B40A0000 		.4byte	.LASF119
 6139 0791 02       		.sleb128 2
 6140 0792 16       		.uleb128 0x16
 6141 0793 05080000 		.4byte	.LASF120
 6142 0797 03       		.sleb128 3
 6143 0798 16       		.uleb128 0x16
 6144 0799 A5050000 		.4byte	.LASF121
 6145 079d 04       		.sleb128 4
 6146 079e 00       		.byte	0
 6147 079f 15       		.uleb128 0x15
 6148 07a0 69020000 		.4byte	.LASF122
 6149 07a4 01       		.byte	0x1
 6150 07a5 13       		.byte	0x13
 6151 07a6 6A       		.byte	0x6a
 6152 07a7 CA070000 		.4byte	0x7ca
 6153 07ab 16       		.uleb128 0x16
 6154 07ac 380C0000 		.4byte	.LASF123
 6155 07b0 00       		.sleb128 0
 6156 07b1 16       		.uleb128 0x16
 6157 07b2 9C090000 		.4byte	.LASF124
 6158 07b6 01       		.sleb128 1
 6159 07b7 16       		.uleb128 0x16
 6160 07b8 D1050000 		.4byte	.LASF125
 6161 07bc 02       		.sleb128 2
 6162 07bd 16       		.uleb128 0x16
 6163 07be 2B090000 		.4byte	.LASF126
 6164 07c2 03       		.sleb128 3
 6165 07c3 16       		.uleb128 0x16
 6166 07c4 CA010000 		.4byte	.LASF127
 6167 07c8 04       		.sleb128 4
 6168 07c9 00       		.byte	0
 6169 07ca 03       		.uleb128 0x3
 6170 07cb 030C0000 		.4byte	.LASF128
 6171 07cf 13       		.byte	0x13
 6172 07d0 83       		.byte	0x83
 6173 07d1 D5070000 		.4byte	0x7d5
 6174 07d5 09       		.uleb128 0x9
 6175 07d6 04       		.byte	0x4
 6176 07d7 DB070000 		.4byte	0x7db
 6177 07db 17       		.uleb128 0x17
 6178 07dc 01       		.byte	0x1
 6179 07dd F1070000 		.4byte	0x7f1
 6180 07e1 18       		.uleb128 0x18
 6181 07e2 F1070000 		.4byte	0x7f1
ARM GAS  /tmp/cc2wa78n.s 			page 110


 6182 07e6 18       		.uleb128 0x18
 6183 07e7 9F070000 		.4byte	0x79f
 6184 07eb 18       		.uleb128 0x18
 6185 07ec E1040000 		.4byte	0x4e1
 6186 07f0 00       		.byte	0
 6187 07f1 09       		.uleb128 0x9
 6188 07f2 04       		.byte	0x4
 6189 07f3 F7070000 		.4byte	0x7f7
 6190 07f7 05       		.uleb128 0x5
 6191 07f8 A6010000 		.4byte	.LASF129
 6192 07fc 2C       		.byte	0x2c
 6193 07fd 13       		.byte	0x13
 6194 07fe 86       		.byte	0x86
 6195 07ff AC080000 		.4byte	0x8ac
 6196 0803 06       		.uleb128 0x6
 6197 0804 43010000 		.4byte	.LASF103
 6198 0808 13       		.byte	0x13
 6199 0809 88       		.byte	0x88
 6200 080a 42070000 		.4byte	0x742
 6201 080e 02       		.byte	0x2
 6202 080f 23       		.byte	0x23
 6203 0810 00       		.uleb128 0
 6204 0811 06       		.uleb128 0x6
 6205 0812 20010000 		.4byte	.LASF130
 6206 0816 13       		.byte	0x13
 6207 0817 8A       		.byte	0x8a
 6208 0818 74070000 		.4byte	0x774
 6209 081c 02       		.byte	0x2
 6210 081d 23       		.byte	0x23
 6211 081e 01       		.uleb128 0x1
 6212 081f 07       		.uleb128 0x7
 6213 0820 70636200 		.ascii	"pcb\000"
 6214 0824 13       		.byte	0x13
 6215 0825 91       		.byte	0x91
 6216 0826 AC080000 		.4byte	0x8ac
 6217 082a 02       		.byte	0x2
 6218 082b 23       		.byte	0x23
 6219 082c 04       		.uleb128 0x4
 6220 082d 06       		.uleb128 0x6
 6221 082e FF0C0000 		.4byte	.LASF131
 6222 0832 13       		.byte	0x13
 6223 0833 93       		.byte	0x93
 6224 0834 5D060000 		.4byte	0x65d
 6225 0838 02       		.byte	0x2
 6226 0839 23       		.byte	0x23
 6227 083a 08       		.uleb128 0x8
 6228 083b 06       		.uleb128 0x6
 6229 083c B5010000 		.4byte	.LASF132
 6230 0840 13       		.byte	0x13
 6231 0841 95       		.byte	0x95
 6232 0842 20070000 		.4byte	0x720
 6233 0846 02       		.byte	0x2
 6234 0847 23       		.byte	0x23
 6235 0848 0C       		.uleb128 0xc
 6236 0849 06       		.uleb128 0x6
 6237 084a 2F0C0000 		.4byte	.LASF133
 6238 084e 13       		.byte	0x13
ARM GAS  /tmp/cc2wa78n.s 			page 111


 6239 084f 98       		.byte	0x98
 6240 0850 31070000 		.4byte	0x731
 6241 0854 02       		.byte	0x2
 6242 0855 23       		.byte	0x23
 6243 0856 10       		.uleb128 0x10
 6244 0857 06       		.uleb128 0x6
 6245 0858 0A060000 		.4byte	.LASF134
 6246 085c 13       		.byte	0x13
 6247 085d 9C       		.byte	0x9c
 6248 085e 31070000 		.4byte	0x731
 6249 0862 02       		.byte	0x2
 6250 0863 23       		.byte	0x23
 6251 0864 14       		.uleb128 0x14
 6252 0865 06       		.uleb128 0x6
 6253 0866 B10B0000 		.4byte	.LASF135
 6254 086a 13       		.byte	0x13
 6255 086b A0       		.byte	0xa0
 6256 086c 29000000 		.4byte	0x29
 6257 0870 02       		.byte	0x2
 6258 0871 23       		.byte	0x23
 6259 0872 18       		.uleb128 0x18
 6260 0873 06       		.uleb128 0x6
 6261 0874 55040000 		.4byte	.LASF104
 6262 0878 13       		.byte	0x13
 6263 0879 B1       		.byte	0xb1
 6264 087a CB040000 		.4byte	0x4cb
 6265 087e 02       		.byte	0x2
 6266 087f 23       		.byte	0x23
 6267 0880 1C       		.uleb128 0x1c
 6268 0881 06       		.uleb128 0x6
 6269 0882 0D0A0000 		.4byte	.LASF136
 6270 0886 13       		.byte	0x13
 6271 0887 B5       		.byte	0xb5
 6272 0888 30000000 		.4byte	0x30
 6273 088c 02       		.byte	0x2
 6274 088d 23       		.byte	0x23
 6275 088e 20       		.uleb128 0x20
 6276 088f 06       		.uleb128 0x6
 6277 0890 B3050000 		.4byte	.LASF137
 6278 0894 13       		.byte	0x13
 6279 0895 B9       		.byte	0xb9
 6280 0896 C30D0000 		.4byte	0xdc3
 6281 089a 02       		.byte	0x2
 6282 089b 23       		.byte	0x23
 6283 089c 24       		.uleb128 0x24
 6284 089d 06       		.uleb128 0x6
 6285 089e 15060000 		.4byte	.LASF138
 6286 08a2 13       		.byte	0x13
 6287 08a3 BC       		.byte	0xbc
 6288 08a4 CA070000 		.4byte	0x7ca
 6289 08a8 02       		.byte	0x2
 6290 08a9 23       		.byte	0x23
 6291 08aa 28       		.uleb128 0x28
 6292 08ab 00       		.byte	0
 6293 08ac 0E       		.uleb128 0xe
 6294 08ad 04       		.byte	0x4
 6295 08ae 13       		.byte	0x13
ARM GAS  /tmp/cc2wa78n.s 			page 112


 6296 08af 8C       		.byte	0x8c
 6297 08b0 E0080000 		.4byte	0x8e0
 6298 08b4 19       		.uleb128 0x19
 6299 08b5 697000   		.ascii	"ip\000"
 6300 08b8 13       		.byte	0x13
 6301 08b9 8D       		.byte	0x8d
 6302 08ba 33090000 		.4byte	0x933
 6303 08be 19       		.uleb128 0x19
 6304 08bf 74637000 		.ascii	"tcp\000"
 6305 08c3 13       		.byte	0x13
 6306 08c4 8E       		.byte	0x8e
 6307 08c5 480C0000 		.4byte	0xc48
 6308 08c9 19       		.uleb128 0x19
 6309 08ca 75647000 		.ascii	"udp\000"
 6310 08ce 13       		.byte	0x13
 6311 08cf 8F       		.byte	0x8f
 6312 08d0 F50C0000 		.4byte	0xcf5
 6313 08d4 19       		.uleb128 0x19
 6314 08d5 72617700 		.ascii	"raw\000"
 6315 08d9 13       		.byte	0x13
 6316 08da 90       		.byte	0x90
 6317 08db 860D0000 		.4byte	0xd86
 6318 08df 00       		.byte	0
 6319 08e0 05       		.uleb128 0x5
 6320 08e1 99060000 		.4byte	.LASF139
 6321 08e5 0C       		.byte	0xc
 6322 08e6 14       		.byte	0x14
 6323 08e7 59       		.byte	0x59
 6324 08e8 33090000 		.4byte	0x933
 6325 08ec 06       		.uleb128 0x6
 6326 08ed 0E030000 		.4byte	.LASF140
 6327 08f1 14       		.byte	0x14
 6328 08f2 5B       		.byte	0x5b
 6329 08f3 28050000 		.4byte	0x528
 6330 08f7 02       		.byte	0x2
 6331 08f8 23       		.byte	0x23
 6332 08f9 00       		.uleb128 0
 6333 08fa 06       		.uleb128 0x6
 6334 08fb ED090000 		.4byte	.LASF141
 6335 08ff 14       		.byte	0x14
 6336 0900 5B       		.byte	0x5b
 6337 0901 28050000 		.4byte	0x528
 6338 0905 02       		.byte	0x2
 6339 0906 23       		.byte	0x23
 6340 0907 04       		.uleb128 0x4
 6341 0908 06       		.uleb128 0x6
 6342 0909 EC000000 		.4byte	.LASF142
 6343 090d 14       		.byte	0x14
 6344 090e 5B       		.byte	0x5b
 6345 090f CB040000 		.4byte	0x4cb
 6346 0913 02       		.byte	0x2
 6347 0914 23       		.byte	0x23
 6348 0915 08       		.uleb128 0x8
 6349 0916 07       		.uleb128 0x7
 6350 0917 746F7300 		.ascii	"tos\000"
 6351 091b 14       		.byte	0x14
 6352 091c 5B       		.byte	0x5b
ARM GAS  /tmp/cc2wa78n.s 			page 113


 6353 091d CB040000 		.4byte	0x4cb
 6354 0921 02       		.byte	0x2
 6355 0922 23       		.byte	0x23
 6356 0923 09       		.uleb128 0x9
 6357 0924 07       		.uleb128 0x7
 6358 0925 74746C00 		.ascii	"ttl\000"
 6359 0929 14       		.byte	0x14
 6360 092a 5B       		.byte	0x5b
 6361 092b CB040000 		.4byte	0x4cb
 6362 092f 02       		.byte	0x2
 6363 0930 23       		.byte	0x23
 6364 0931 0A       		.uleb128 0xa
 6365 0932 00       		.byte	0
 6366 0933 09       		.uleb128 0x9
 6367 0934 04       		.byte	0x4
 6368 0935 E0080000 		.4byte	0x8e0
 6369 0939 05       		.uleb128 0x5
 6370 093a 68040000 		.4byte	.LASF143
 6371 093e A4       		.byte	0xa4
 6372 093f 15       		.byte	0x15
 6373 0940 A9       		.byte	0xa9
 6374 0941 480C0000 		.4byte	0xc48
 6375 0945 06       		.uleb128 0x6
 6376 0946 0E030000 		.4byte	.LASF140
 6377 094a 15       		.byte	0x15
 6378 094b AB       		.byte	0xab
 6379 094c 28050000 		.4byte	0x528
 6380 0950 02       		.byte	0x2
 6381 0951 23       		.byte	0x23
 6382 0952 00       		.uleb128 0
 6383 0953 06       		.uleb128 0x6
 6384 0954 ED090000 		.4byte	.LASF141
 6385 0958 15       		.byte	0x15
 6386 0959 AB       		.byte	0xab
 6387 095a 28050000 		.4byte	0x528
 6388 095e 02       		.byte	0x2
 6389 095f 23       		.byte	0x23
 6390 0960 04       		.uleb128 0x4
 6391 0961 06       		.uleb128 0x6
 6392 0962 EC000000 		.4byte	.LASF142
 6393 0966 15       		.byte	0x15
 6394 0967 AB       		.byte	0xab
 6395 0968 CB040000 		.4byte	0x4cb
 6396 096c 02       		.byte	0x2
 6397 096d 23       		.byte	0x23
 6398 096e 08       		.uleb128 0x8
 6399 096f 07       		.uleb128 0x7
 6400 0970 746F7300 		.ascii	"tos\000"
 6401 0974 15       		.byte	0x15
 6402 0975 AB       		.byte	0xab
 6403 0976 CB040000 		.4byte	0x4cb
 6404 097a 02       		.byte	0x2
 6405 097b 23       		.byte	0x23
 6406 097c 09       		.uleb128 0x9
 6407 097d 07       		.uleb128 0x7
 6408 097e 74746C00 		.ascii	"ttl\000"
 6409 0982 15       		.byte	0x15
ARM GAS  /tmp/cc2wa78n.s 			page 114


 6410 0983 AB       		.byte	0xab
 6411 0984 CB040000 		.4byte	0x4cb
 6412 0988 02       		.byte	0x2
 6413 0989 23       		.byte	0x23
 6414 098a 0A       		.uleb128 0xa
 6415 098b 06       		.uleb128 0x6
 6416 098c CA0C0000 		.4byte	.LASF100
 6417 0990 15       		.byte	0x15
 6418 0991 AD       		.byte	0xad
 6419 0992 480C0000 		.4byte	0xc48
 6420 0996 02       		.byte	0x2
 6421 0997 23       		.byte	0x23
 6422 0998 0C       		.uleb128 0xc
 6423 0999 06       		.uleb128 0x6
 6424 099a 20010000 		.4byte	.LASF130
 6425 099e 15       		.byte	0x15
 6426 099f AD       		.byte	0xad
 6427 09a0 A80E0000 		.4byte	0xea8
 6428 09a4 02       		.byte	0x2
 6429 09a5 23       		.byte	0x23
 6430 09a6 10       		.uleb128 0x10
 6431 09a7 06       		.uleb128 0x6
 6432 09a8 81010000 		.4byte	.LASF144
 6433 09ac 15       		.byte	0x15
 6434 09ad AD       		.byte	0xad
 6435 09ae CB040000 		.4byte	0x4cb
 6436 09b2 02       		.byte	0x2
 6437 09b3 23       		.byte	0x23
 6438 09b4 11       		.uleb128 0x11
 6439 09b5 06       		.uleb128 0x6
 6440 09b6 1B0B0000 		.4byte	.LASF145
 6441 09ba 15       		.byte	0x15
 6442 09bb AD       		.byte	0xad
 6443 09bc CB020000 		.4byte	0x2cb
 6444 09c0 02       		.byte	0x2
 6445 09c1 23       		.byte	0x23
 6446 09c2 14       		.uleb128 0x14
 6447 09c3 06       		.uleb128 0x6
 6448 09c4 440B0000 		.4byte	.LASF146
 6449 09c8 15       		.byte	0x15
 6450 09c9 AD       		.byte	0xad
 6451 09ca CF0D0000 		.4byte	0xdcf
 6452 09ce 02       		.byte	0x2
 6453 09cf 23       		.byte	0x23
 6454 09d0 18       		.uleb128 0x18
 6455 09d1 06       		.uleb128 0x6
 6456 09d2 1D040000 		.4byte	.LASF147
 6457 09d6 15       		.byte	0x15
 6458 09d7 AD       		.byte	0xad
 6459 09d8 E1040000 		.4byte	0x4e1
 6460 09dc 02       		.byte	0x2
 6461 09dd 23       		.byte	0x23
 6462 09de 1C       		.uleb128 0x1c
 6463 09df 06       		.uleb128 0x6
 6464 09e0 D5080000 		.4byte	.LASF148
 6465 09e4 15       		.byte	0x15
 6466 09e5 B0       		.byte	0xb0
ARM GAS  /tmp/cc2wa78n.s 			page 115


 6467 09e6 E1040000 		.4byte	0x4e1
 6468 09ea 02       		.byte	0x2
 6469 09eb 23       		.byte	0x23
 6470 09ec 1E       		.uleb128 0x1e
 6471 09ed 06       		.uleb128 0x6
 6472 09ee 55040000 		.4byte	.LASF104
 6473 09f2 15       		.byte	0x15
 6474 09f3 B2       		.byte	0xb2
 6475 09f4 CB040000 		.4byte	0x4cb
 6476 09f8 02       		.byte	0x2
 6477 09f9 23       		.byte	0x23
 6478 09fa 20       		.uleb128 0x20
 6479 09fb 06       		.uleb128 0x6
 6480 09fc 5B070000 		.4byte	.LASF149
 6481 0a00 15       		.byte	0x15
 6482 0a01 BF       		.byte	0xbf
 6483 0a02 F7040000 		.4byte	0x4f7
 6484 0a06 02       		.byte	0x2
 6485 0a07 23       		.byte	0x23
 6486 0a08 24       		.uleb128 0x24
 6487 0a09 06       		.uleb128 0x6
 6488 0a0a E4000000 		.4byte	.LASF150
 6489 0a0e 15       		.byte	0x15
 6490 0a0f C0       		.byte	0xc0
 6491 0a10 E1040000 		.4byte	0x4e1
 6492 0a14 02       		.byte	0x2
 6493 0a15 23       		.byte	0x23
 6494 0a16 28       		.uleb128 0x28
 6495 0a17 06       		.uleb128 0x6
 6496 0a18 33000000 		.4byte	.LASF151
 6497 0a1c 15       		.byte	0x15
 6498 0a1d C1       		.byte	0xc1
 6499 0a1e E1040000 		.4byte	0x4e1
 6500 0a22 02       		.byte	0x2
 6501 0a23 23       		.byte	0x23
 6502 0a24 2A       		.uleb128 0x2a
 6503 0a25 06       		.uleb128 0x6
 6504 0a26 1B050000 		.4byte	.LASF152
 6505 0a2a 15       		.byte	0x15
 6506 0a2b C2       		.byte	0xc2
 6507 0a2c F7040000 		.4byte	0x4f7
 6508 0a30 02       		.byte	0x2
 6509 0a31 23       		.byte	0x23
 6510 0a32 2C       		.uleb128 0x2c
 6511 0a33 07       		.uleb128 0x7
 6512 0a34 746D7200 		.ascii	"tmr\000"
 6513 0a38 15       		.byte	0x15
 6514 0a39 C5       		.byte	0xc5
 6515 0a3a F7040000 		.4byte	0x4f7
 6516 0a3e 02       		.byte	0x2
 6517 0a3f 23       		.byte	0x23
 6518 0a40 30       		.uleb128 0x30
 6519 0a41 06       		.uleb128 0x6
 6520 0a42 8E010000 		.4byte	.LASF153
 6521 0a46 15       		.byte	0x15
 6522 0a47 C6       		.byte	0xc6
 6523 0a48 CB040000 		.4byte	0x4cb
ARM GAS  /tmp/cc2wa78n.s 			page 116


 6524 0a4c 02       		.byte	0x2
 6525 0a4d 23       		.byte	0x23
 6526 0a4e 34       		.uleb128 0x34
 6527 0a4f 06       		.uleb128 0x6
 6528 0a50 FF060000 		.4byte	.LASF154
 6529 0a54 15       		.byte	0x15
 6530 0a55 C6       		.byte	0xc6
 6531 0a56 CB040000 		.4byte	0x4cb
 6532 0a5a 02       		.byte	0x2
 6533 0a5b 23       		.byte	0x23
 6534 0a5c 35       		.uleb128 0x35
 6535 0a5d 06       		.uleb128 0x6
 6536 0a5e CE070000 		.4byte	.LASF155
 6537 0a62 15       		.byte	0x15
 6538 0a63 C9       		.byte	0xc9
 6539 0a64 EC040000 		.4byte	0x4ec
 6540 0a68 02       		.byte	0x2
 6541 0a69 23       		.byte	0x23
 6542 0a6a 36       		.uleb128 0x36
 6543 0a6b 07       		.uleb128 0x7
 6544 0a6c 6D737300 		.ascii	"mss\000"
 6545 0a70 15       		.byte	0x15
 6546 0a71 CB       		.byte	0xcb
 6547 0a72 E1040000 		.4byte	0x4e1
 6548 0a76 02       		.byte	0x2
 6549 0a77 23       		.byte	0x23
 6550 0a78 38       		.uleb128 0x38
 6551 0a79 06       		.uleb128 0x6
 6552 0a7a 99040000 		.4byte	.LASF156
 6553 0a7e 15       		.byte	0x15
 6554 0a7f CE       		.byte	0xce
 6555 0a80 F7040000 		.4byte	0x4f7
 6556 0a84 02       		.byte	0x2
 6557 0a85 23       		.byte	0x23
 6558 0a86 3C       		.uleb128 0x3c
 6559 0a87 06       		.uleb128 0x6
 6560 0a88 50050000 		.4byte	.LASF157
 6561 0a8c 15       		.byte	0x15
 6562 0a8d CF       		.byte	0xcf
 6563 0a8e F7040000 		.4byte	0x4f7
 6564 0a92 02       		.byte	0x2
 6565 0a93 23       		.byte	0x23
 6566 0a94 40       		.uleb128 0x40
 6567 0a95 07       		.uleb128 0x7
 6568 0a96 736100   		.ascii	"sa\000"
 6569 0a99 15       		.byte	0x15
 6570 0a9a D0       		.byte	0xd0
 6571 0a9b EC040000 		.4byte	0x4ec
 6572 0a9f 02       		.byte	0x2
 6573 0aa0 23       		.byte	0x23
 6574 0aa1 44       		.uleb128 0x44
 6575 0aa2 07       		.uleb128 0x7
 6576 0aa3 737600   		.ascii	"sv\000"
 6577 0aa6 15       		.byte	0x15
 6578 0aa7 D0       		.byte	0xd0
 6579 0aa8 EC040000 		.4byte	0x4ec
 6580 0aac 02       		.byte	0x2
ARM GAS  /tmp/cc2wa78n.s 			page 117


 6581 0aad 23       		.byte	0x23
 6582 0aae 46       		.uleb128 0x46
 6583 0aaf 07       		.uleb128 0x7
 6584 0ab0 72746F00 		.ascii	"rto\000"
 6585 0ab4 15       		.byte	0x15
 6586 0ab5 D2       		.byte	0xd2
 6587 0ab6 EC040000 		.4byte	0x4ec
 6588 0aba 02       		.byte	0x2
 6589 0abb 23       		.byte	0x23
 6590 0abc 48       		.uleb128 0x48
 6591 0abd 06       		.uleb128 0x6
 6592 0abe 26060000 		.4byte	.LASF158
 6593 0ac2 15       		.byte	0x15
 6594 0ac3 D3       		.byte	0xd3
 6595 0ac4 CB040000 		.4byte	0x4cb
 6596 0ac8 02       		.byte	0x2
 6597 0ac9 23       		.byte	0x23
 6598 0aca 4A       		.uleb128 0x4a
 6599 0acb 06       		.uleb128 0x6
 6600 0acc 44060000 		.4byte	.LASF159
 6601 0ad0 15       		.byte	0x15
 6602 0ad1 D6       		.byte	0xd6
 6603 0ad2 F7040000 		.4byte	0x4f7
 6604 0ad6 02       		.byte	0x2
 6605 0ad7 23       		.byte	0x23
 6606 0ad8 4C       		.uleb128 0x4c
 6607 0ad9 06       		.uleb128 0x6
 6608 0ada B80B0000 		.4byte	.LASF160
 6609 0ade 15       		.byte	0x15
 6610 0adf D7       		.byte	0xd7
 6611 0ae0 CB040000 		.4byte	0x4cb
 6612 0ae4 02       		.byte	0x2
 6613 0ae5 23       		.byte	0x23
 6614 0ae6 50       		.uleb128 0x50
 6615 0ae7 06       		.uleb128 0x6
 6616 0ae8 08090000 		.4byte	.LASF161
 6617 0aec 15       		.byte	0x15
 6618 0aed DA       		.byte	0xda
 6619 0aee E1040000 		.4byte	0x4e1
 6620 0af2 02       		.byte	0x2
 6621 0af3 23       		.byte	0x23
 6622 0af4 52       		.uleb128 0x52
 6623 0af5 06       		.uleb128 0x6
 6624 0af6 3A010000 		.4byte	.LASF162
 6625 0afa 15       		.byte	0x15
 6626 0afb DB       		.byte	0xdb
 6627 0afc E1040000 		.4byte	0x4e1
 6628 0b00 02       		.byte	0x2
 6629 0b01 23       		.byte	0x23
 6630 0b02 54       		.uleb128 0x54
 6631 0b03 06       		.uleb128 0x6
 6632 0b04 4C060000 		.4byte	.LASF163
 6633 0b08 15       		.byte	0x15
 6634 0b09 DE       		.byte	0xde
 6635 0b0a F7040000 		.4byte	0x4f7
 6636 0b0e 02       		.byte	0x2
 6637 0b0f 23       		.byte	0x23
ARM GAS  /tmp/cc2wa78n.s 			page 118


 6638 0b10 58       		.uleb128 0x58
 6639 0b11 06       		.uleb128 0x6
 6640 0b12 9E0C0000 		.4byte	.LASF164
 6641 0b16 15       		.byte	0x15
 6642 0b17 DF       		.byte	0xdf
 6643 0b18 E1040000 		.4byte	0x4e1
 6644 0b1c 02       		.byte	0x2
 6645 0b1d 23       		.byte	0x23
 6646 0b1e 5C       		.uleb128 0x5c
 6647 0b1f 06       		.uleb128 0x6
 6648 0b20 930B0000 		.4byte	.LASF165
 6649 0b24 15       		.byte	0x15
 6650 0b25 E0       		.byte	0xe0
 6651 0b26 F7040000 		.4byte	0x4f7
 6652 0b2a 02       		.byte	0x2
 6653 0b2b 23       		.byte	0x23
 6654 0b2c 60       		.uleb128 0x60
 6655 0b2d 06       		.uleb128 0x6
 6656 0b2e 9B0B0000 		.4byte	.LASF166
 6657 0b32 15       		.byte	0x15
 6658 0b33 E0       		.byte	0xe0
 6659 0b34 F7040000 		.4byte	0x4f7
 6660 0b38 02       		.byte	0x2
 6661 0b39 23       		.byte	0x23
 6662 0b3a 64       		.uleb128 0x64
 6663 0b3b 06       		.uleb128 0x6
 6664 0b3c D7040000 		.4byte	.LASF167
 6665 0b40 15       		.byte	0x15
 6666 0b41 E2       		.byte	0xe2
 6667 0b42 F7040000 		.4byte	0x4f7
 6668 0b46 02       		.byte	0x2
 6669 0b47 23       		.byte	0x23
 6670 0b48 68       		.uleb128 0x68
 6671 0b49 06       		.uleb128 0x6
 6672 0b4a 820A0000 		.4byte	.LASF168
 6673 0b4e 15       		.byte	0x15
 6674 0b4f E4       		.byte	0xe4
 6675 0b50 E1040000 		.4byte	0x4e1
 6676 0b54 02       		.byte	0x2
 6677 0b55 23       		.byte	0x23
 6678 0b56 6C       		.uleb128 0x6c
 6679 0b57 06       		.uleb128 0x6
 6680 0b58 8F0C0000 		.4byte	.LASF169
 6681 0b5c 15       		.byte	0x15
 6682 0b5d E6       		.byte	0xe6
 6683 0b5e E1040000 		.4byte	0x4e1
 6684 0b62 02       		.byte	0x2
 6685 0b63 23       		.byte	0x23
 6686 0b64 6E       		.uleb128 0x6e
 6687 0b65 06       		.uleb128 0x6
 6688 0b66 53090000 		.4byte	.LASF170
 6689 0b6a 15       		.byte	0x15
 6690 0b6b E8       		.byte	0xe8
 6691 0b6c E1040000 		.4byte	0x4e1
 6692 0b70 02       		.byte	0x2
 6693 0b71 23       		.byte	0x23
 6694 0b72 70       		.uleb128 0x70
ARM GAS  /tmp/cc2wa78n.s 			page 119


 6695 0b73 06       		.uleb128 0x6
 6696 0b74 D1090000 		.4byte	.LASF171
 6697 0b78 15       		.byte	0x15
 6698 0b79 EC       		.byte	0xec
 6699 0b7a E1040000 		.4byte	0x4e1
 6700 0b7e 02       		.byte	0x2
 6701 0b7f 23       		.byte	0x23
 6702 0b80 72       		.uleb128 0x72
 6703 0b81 06       		.uleb128 0x6
 6704 0b82 B1090000 		.4byte	.LASF172
 6705 0b86 15       		.byte	0x15
 6706 0b87 F0       		.byte	0xf0
 6707 0b88 FD0E0000 		.4byte	0xefd
 6708 0b8c 02       		.byte	0x2
 6709 0b8d 23       		.byte	0x23
 6710 0b8e 74       		.uleb128 0x74
 6711 0b8f 06       		.uleb128 0x6
 6712 0b90 0B0B0000 		.4byte	.LASF173
 6713 0b94 15       		.byte	0x15
 6714 0b95 F1       		.byte	0xf1
 6715 0b96 FD0E0000 		.4byte	0xefd
 6716 0b9a 02       		.byte	0x2
 6717 0b9b 23       		.byte	0x23
 6718 0b9c 78       		.uleb128 0x78
 6719 0b9d 06       		.uleb128 0x6
 6720 0b9e 080D0000 		.4byte	.LASF174
 6721 0ba2 15       		.byte	0x15
 6722 0ba3 F3       		.byte	0xf3
 6723 0ba4 FD0E0000 		.4byte	0xefd
 6724 0ba8 02       		.byte	0x2
 6725 0ba9 23       		.byte	0x23
 6726 0baa 7C       		.uleb128 0x7c
 6727 0bab 06       		.uleb128 0x6
 6728 0bac 1E090000 		.4byte	.LASF175
 6729 0bb0 15       		.byte	0x15
 6730 0bb1 F6       		.byte	0xf6
 6731 0bb2 D7060000 		.4byte	0x6d7
 6732 0bb6 03       		.byte	0x3
 6733 0bb7 23       		.byte	0x23
 6734 0bb8 8001     		.uleb128 0x80
 6735 0bba 06       		.uleb128 0x6
 6736 0bbb 86060000 		.4byte	.LASF176
 6737 0bbf 15       		.byte	0x15
 6738 0bc0 FA       		.byte	0xfa
 6739 0bc1 2A0E0000 		.4byte	0xe2a
 6740 0bc5 03       		.byte	0x3
 6741 0bc6 23       		.byte	0x23
 6742 0bc7 8401     		.uleb128 0x84
 6743 0bc9 06       		.uleb128 0x6
 6744 0bca F8070000 		.4byte	.LASF177
 6745 0bce 15       		.byte	0x15
 6746 0bcf FC       		.byte	0xfc
 6747 0bd0 FA0D0000 		.4byte	0xdfa
 6748 0bd4 03       		.byte	0x3
 6749 0bd5 23       		.byte	0x23
 6750 0bd6 8801     		.uleb128 0x88
 6751 0bd8 06       		.uleb128 0x6
ARM GAS  /tmp/cc2wa78n.s 			page 120


 6752 0bd9 E30C0000 		.4byte	.LASF178
 6753 0bdd 15       		.byte	0x15
 6754 0bde FE       		.byte	0xfe
 6755 0bdf 9D0E0000 		.4byte	0xe9d
 6756 0be3 03       		.byte	0x3
 6757 0be4 23       		.byte	0x23
 6758 0be5 8C01     		.uleb128 0x8c
 6759 0be7 13       		.uleb128 0x13
 6760 0be8 B1070000 		.4byte	.LASF179
 6761 0bec 15       		.byte	0x15
 6762 0bed 0001     		.2byte	0x100
 6763 0bef 550E0000 		.4byte	0xe55
 6764 0bf3 03       		.byte	0x3
 6765 0bf4 23       		.byte	0x23
 6766 0bf5 9001     		.uleb128 0x90
 6767 0bf7 13       		.uleb128 0x13
 6768 0bf8 360B0000 		.4byte	.LASF180
 6769 0bfc 15       		.byte	0x15
 6770 0bfd 0201     		.2byte	0x102
 6771 0bff 7B0E0000 		.4byte	0xe7b
 6772 0c03 03       		.byte	0x3
 6773 0c04 23       		.byte	0x23
 6774 0c05 9401     		.uleb128 0x94
 6775 0c07 13       		.uleb128 0x13
 6776 0c08 8F0A0000 		.4byte	.LASF181
 6777 0c0c 15       		.byte	0x15
 6778 0c0d 0B01     		.2byte	0x10b
 6779 0c0f F7040000 		.4byte	0x4f7
 6780 0c13 03       		.byte	0x3
 6781 0c14 23       		.byte	0x23
 6782 0c15 9801     		.uleb128 0x98
 6783 0c17 13       		.uleb128 0x13
 6784 0c18 F5040000 		.4byte	.LASF182
 6785 0c1c 15       		.byte	0x15
 6786 0c1d 1201     		.2byte	0x112
 6787 0c1f F7040000 		.4byte	0x4f7
 6788 0c23 03       		.byte	0x3
 6789 0c24 23       		.byte	0x23
 6790 0c25 9C01     		.uleb128 0x9c
 6791 0c27 13       		.uleb128 0x13
 6792 0c28 F2080000 		.4byte	.LASF183
 6793 0c2c 15       		.byte	0x15
 6794 0c2d 1401     		.2byte	0x114
 6795 0c2f CB040000 		.4byte	0x4cb
 6796 0c33 03       		.byte	0x3
 6797 0c34 23       		.byte	0x23
 6798 0c35 A001     		.uleb128 0xa0
 6799 0c37 13       		.uleb128 0x13
 6800 0c38 C9020000 		.4byte	.LASF184
 6801 0c3c 15       		.byte	0x15
 6802 0c3d 1701     		.2byte	0x117
 6803 0c3f CB040000 		.4byte	0x4cb
 6804 0c43 03       		.byte	0x3
 6805 0c44 23       		.byte	0x23
 6806 0c45 A101     		.uleb128 0xa1
 6807 0c47 00       		.byte	0
 6808 0c48 09       		.uleb128 0x9
ARM GAS  /tmp/cc2wa78n.s 			page 121


 6809 0c49 04       		.byte	0x4
 6810 0c4a 39090000 		.4byte	0x939
 6811 0c4e 05       		.uleb128 0x5
 6812 0c4f 07040000 		.4byte	.LASF185
 6813 0c53 20       		.byte	0x20
 6814 0c54 16       		.byte	0x16
 6815 0c55 5B       		.byte	0x5b
 6816 0c56 F50C0000 		.4byte	0xcf5
 6817 0c5a 06       		.uleb128 0x6
 6818 0c5b 0E030000 		.4byte	.LASF140
 6819 0c5f 16       		.byte	0x16
 6820 0c60 5D       		.byte	0x5d
 6821 0c61 28050000 		.4byte	0x528
 6822 0c65 02       		.byte	0x2
 6823 0c66 23       		.byte	0x23
 6824 0c67 00       		.uleb128 0
 6825 0c68 06       		.uleb128 0x6
 6826 0c69 ED090000 		.4byte	.LASF141
 6827 0c6d 16       		.byte	0x16
 6828 0c6e 5D       		.byte	0x5d
 6829 0c6f 28050000 		.4byte	0x528
 6830 0c73 02       		.byte	0x2
 6831 0c74 23       		.byte	0x23
 6832 0c75 04       		.uleb128 0x4
 6833 0c76 06       		.uleb128 0x6
 6834 0c77 EC000000 		.4byte	.LASF142
 6835 0c7b 16       		.byte	0x16
 6836 0c7c 5D       		.byte	0x5d
 6837 0c7d CB040000 		.4byte	0x4cb
 6838 0c81 02       		.byte	0x2
 6839 0c82 23       		.byte	0x23
 6840 0c83 08       		.uleb128 0x8
 6841 0c84 07       		.uleb128 0x7
 6842 0c85 746F7300 		.ascii	"tos\000"
 6843 0c89 16       		.byte	0x16
 6844 0c8a 5D       		.byte	0x5d
 6845 0c8b CB040000 		.4byte	0x4cb
 6846 0c8f 02       		.byte	0x2
 6847 0c90 23       		.byte	0x23
 6848 0c91 09       		.uleb128 0x9
 6849 0c92 07       		.uleb128 0x7
 6850 0c93 74746C00 		.ascii	"ttl\000"
 6851 0c97 16       		.byte	0x16
 6852 0c98 5D       		.byte	0x5d
 6853 0c99 CB040000 		.4byte	0x4cb
 6854 0c9d 02       		.byte	0x2
 6855 0c9e 23       		.byte	0x23
 6856 0c9f 0A       		.uleb128 0xa
 6857 0ca0 06       		.uleb128 0x6
 6858 0ca1 CA0C0000 		.4byte	.LASF100
 6859 0ca5 16       		.byte	0x16
 6860 0ca6 61       		.byte	0x61
 6861 0ca7 F50C0000 		.4byte	0xcf5
 6862 0cab 02       		.byte	0x2
 6863 0cac 23       		.byte	0x23
 6864 0cad 0C       		.uleb128 0xc
 6865 0cae 06       		.uleb128 0x6
ARM GAS  /tmp/cc2wa78n.s 			page 122


 6866 0caf 55040000 		.4byte	.LASF104
 6867 0cb3 16       		.byte	0x16
 6868 0cb4 63       		.byte	0x63
 6869 0cb5 CB040000 		.4byte	0x4cb
 6870 0cb9 02       		.byte	0x2
 6871 0cba 23       		.byte	0x23
 6872 0cbb 10       		.uleb128 0x10
 6873 0cbc 06       		.uleb128 0x6
 6874 0cbd 1D040000 		.4byte	.LASF147
 6875 0cc1 16       		.byte	0x16
 6876 0cc2 65       		.byte	0x65
 6877 0cc3 E1040000 		.4byte	0x4e1
 6878 0cc7 02       		.byte	0x2
 6879 0cc8 23       		.byte	0x23
 6880 0cc9 12       		.uleb128 0x12
 6881 0cca 06       		.uleb128 0x6
 6882 0ccb D5080000 		.4byte	.LASF148
 6883 0ccf 16       		.byte	0x16
 6884 0cd0 65       		.byte	0x65
 6885 0cd1 E1040000 		.4byte	0x4e1
 6886 0cd5 02       		.byte	0x2
 6887 0cd6 23       		.byte	0x23
 6888 0cd7 14       		.uleb128 0x14
 6889 0cd8 06       		.uleb128 0x6
 6890 0cd9 F8070000 		.4byte	.LASF177
 6891 0cdd 16       		.byte	0x16
 6892 0cde 72       		.byte	0x72
 6893 0cdf 330F0000 		.4byte	0xf33
 6894 0ce3 02       		.byte	0x2
 6895 0ce4 23       		.byte	0x23
 6896 0ce5 18       		.uleb128 0x18
 6897 0ce6 06       		.uleb128 0x6
 6898 0ce7 8A090000 		.4byte	.LASF186
 6899 0ceb 16       		.byte	0x16
 6900 0cec 74       		.byte	0x74
 6901 0ced CB020000 		.4byte	0x2cb
 6902 0cf1 02       		.byte	0x2
 6903 0cf2 23       		.byte	0x23
 6904 0cf3 1C       		.uleb128 0x1c
 6905 0cf4 00       		.byte	0
 6906 0cf5 09       		.uleb128 0x9
 6907 0cf6 04       		.byte	0x4
 6908 0cf7 4E0C0000 		.4byte	0xc4e
 6909 0cfb 05       		.uleb128 0x5
 6910 0cfc E10B0000 		.4byte	.LASF187
 6911 0d00 1C       		.byte	0x1c
 6912 0d01 17       		.byte	0x17
 6913 0d02 3F       		.byte	0x3f
 6914 0d03 860D0000 		.4byte	0xd86
 6915 0d07 06       		.uleb128 0x6
 6916 0d08 0E030000 		.4byte	.LASF140
 6917 0d0c 17       		.byte	0x17
 6918 0d0d 41       		.byte	0x41
 6919 0d0e 28050000 		.4byte	0x528
 6920 0d12 02       		.byte	0x2
 6921 0d13 23       		.byte	0x23
 6922 0d14 00       		.uleb128 0
ARM GAS  /tmp/cc2wa78n.s 			page 123


 6923 0d15 06       		.uleb128 0x6
 6924 0d16 ED090000 		.4byte	.LASF141
 6925 0d1a 17       		.byte	0x17
 6926 0d1b 41       		.byte	0x41
 6927 0d1c 28050000 		.4byte	0x528
 6928 0d20 02       		.byte	0x2
 6929 0d21 23       		.byte	0x23
 6930 0d22 04       		.uleb128 0x4
 6931 0d23 06       		.uleb128 0x6
 6932 0d24 EC000000 		.4byte	.LASF142
 6933 0d28 17       		.byte	0x17
 6934 0d29 41       		.byte	0x41
 6935 0d2a CB040000 		.4byte	0x4cb
 6936 0d2e 02       		.byte	0x2
 6937 0d2f 23       		.byte	0x23
 6938 0d30 08       		.uleb128 0x8
 6939 0d31 07       		.uleb128 0x7
 6940 0d32 746F7300 		.ascii	"tos\000"
 6941 0d36 17       		.byte	0x17
 6942 0d37 41       		.byte	0x41
 6943 0d38 CB040000 		.4byte	0x4cb
 6944 0d3c 02       		.byte	0x2
 6945 0d3d 23       		.byte	0x23
 6946 0d3e 09       		.uleb128 0x9
 6947 0d3f 07       		.uleb128 0x7
 6948 0d40 74746C00 		.ascii	"ttl\000"
 6949 0d44 17       		.byte	0x17
 6950 0d45 41       		.byte	0x41
 6951 0d46 CB040000 		.4byte	0x4cb
 6952 0d4a 02       		.byte	0x2
 6953 0d4b 23       		.byte	0x23
 6954 0d4c 0A       		.uleb128 0xa
 6955 0d4d 06       		.uleb128 0x6
 6956 0d4e CA0C0000 		.4byte	.LASF100
 6957 0d52 17       		.byte	0x17
 6958 0d53 43       		.byte	0x43
 6959 0d54 860D0000 		.4byte	0xd86
 6960 0d58 02       		.byte	0x2
 6961 0d59 23       		.byte	0x23
 6962 0d5a 0C       		.uleb128 0xc
 6963 0d5b 06       		.uleb128 0x6
 6964 0d5c 7D060000 		.4byte	.LASF188
 6965 0d60 17       		.byte	0x17
 6966 0d61 45       		.byte	0x45
 6967 0d62 CB040000 		.4byte	0x4cb
 6968 0d66 02       		.byte	0x2
 6969 0d67 23       		.byte	0x23
 6970 0d68 10       		.uleb128 0x10
 6971 0d69 06       		.uleb128 0x6
 6972 0d6a F8070000 		.4byte	.LASF177
 6973 0d6e 17       		.byte	0x17
 6974 0d6f 48       		.byte	0x48
 6975 0d70 030F0000 		.4byte	0xf03
 6976 0d74 02       		.byte	0x2
 6977 0d75 23       		.byte	0x23
 6978 0d76 14       		.uleb128 0x14
 6979 0d77 06       		.uleb128 0x6
ARM GAS  /tmp/cc2wa78n.s 			page 124


 6980 0d78 8A090000 		.4byte	.LASF186
 6981 0d7c 17       		.byte	0x17
 6982 0d7d 4A       		.byte	0x4a
 6983 0d7e CB020000 		.4byte	0x2cb
 6984 0d82 02       		.byte	0x2
 6985 0d83 23       		.byte	0x23
 6986 0d84 18       		.uleb128 0x18
 6987 0d85 00       		.byte	0
 6988 0d86 09       		.uleb128 0x9
 6989 0d87 04       		.byte	0x4
 6990 0d88 FB0C0000 		.4byte	0xcfb
 6991 0d8c 05       		.uleb128 0x5
 6992 0d8d E1090000 		.4byte	.LASF189
 6993 0d91 14       		.byte	0x14
 6994 0d92 18       		.byte	0x18
 6995 0d93 3E       		.byte	0x3e
 6996 0d94 C30D0000 		.4byte	0xdc3
 6997 0d98 06       		.uleb128 0x6
 6998 0d99 62010000 		.4byte	.LASF190
 6999 0d9d 18       		.byte	0x18
 7000 0d9e 41       		.byte	0x41
 7001 0d9f F1070000 		.4byte	0x7f1
 7002 0da3 02       		.byte	0x2
 7003 0da4 23       		.byte	0x23
 7004 0da5 00       		.uleb128 0
 7005 0da6 07       		.uleb128 0x7
 7006 0da7 65727200 		.ascii	"err\000"
 7007 0dab 18       		.byte	0x18
 7008 0dac 43       		.byte	0x43
 7009 0dad 5D060000 		.4byte	0x65d
 7010 0db1 02       		.byte	0x2
 7011 0db2 23       		.byte	0x23
 7012 0db3 04       		.uleb128 0x4
 7013 0db4 07       		.uleb128 0x7
 7014 0db5 6D736700 		.ascii	"msg\000"
 7015 0db9 18       		.byte	0x18
 7016 0dba 72       		.byte	0x72
 7017 0dbb 41100000 		.4byte	0x1041
 7018 0dbf 02       		.byte	0x2
 7019 0dc0 23       		.byte	0x23
 7020 0dc1 08       		.uleb128 0x8
 7021 0dc2 00       		.byte	0
 7022 0dc3 09       		.uleb128 0x9
 7023 0dc4 04       		.byte	0x4
 7024 0dc5 8C0D0000 		.4byte	0xd8c
 7025 0dc9 09       		.uleb128 0x9
 7026 0dca 04       		.byte	0x4
 7027 0dcb 28050000 		.4byte	0x528
 7028 0dcf 03       		.uleb128 0x3
 7029 0dd0 B50C0000 		.4byte	.LASF191
 7030 0dd4 15       		.byte	0x15
 7031 0dd5 3D       		.byte	0x3d
 7032 0dd6 DA0D0000 		.4byte	0xdda
 7033 0dda 09       		.uleb128 0x9
 7034 0ddb 04       		.byte	0x4
 7035 0ddc E00D0000 		.4byte	0xde0
 7036 0de0 1A       		.uleb128 0x1a
ARM GAS  /tmp/cc2wa78n.s 			page 125


 7037 0de1 01       		.byte	0x1
 7038 0de2 5D060000 		.4byte	0x65d
 7039 0de6 FA0D0000 		.4byte	0xdfa
 7040 0dea 18       		.uleb128 0x18
 7041 0deb CB020000 		.4byte	0x2cb
 7042 0def 18       		.uleb128 0x18
 7043 0df0 480C0000 		.4byte	0xc48
 7044 0df4 18       		.uleb128 0x18
 7045 0df5 5D060000 		.4byte	0x65d
 7046 0df9 00       		.byte	0
 7047 0dfa 03       		.uleb128 0x3
 7048 0dfb 7A0B0000 		.4byte	.LASF192
 7049 0dff 15       		.byte	0x15
 7050 0e00 49       		.byte	0x49
 7051 0e01 050E0000 		.4byte	0xe05
 7052 0e05 09       		.uleb128 0x9
 7053 0e06 04       		.byte	0x4
 7054 0e07 0B0E0000 		.4byte	0xe0b
 7055 0e0b 1A       		.uleb128 0x1a
 7056 0e0c 01       		.byte	0x1
 7057 0e0d 5D060000 		.4byte	0x65d
 7058 0e11 2A0E0000 		.4byte	0xe2a
 7059 0e15 18       		.uleb128 0x18
 7060 0e16 CB020000 		.4byte	0x2cb
 7061 0e1a 18       		.uleb128 0x18
 7062 0e1b 480C0000 		.4byte	0xc48
 7063 0e1f 18       		.uleb128 0x18
 7064 0e20 D7060000 		.4byte	0x6d7
 7065 0e24 18       		.uleb128 0x18
 7066 0e25 5D060000 		.4byte	0x65d
 7067 0e29 00       		.byte	0
 7068 0e2a 03       		.uleb128 0x3
 7069 0e2b 81020000 		.4byte	.LASF193
 7070 0e2f 15       		.byte	0x15
 7071 0e30 57       		.byte	0x57
 7072 0e31 350E0000 		.4byte	0xe35
 7073 0e35 09       		.uleb128 0x9
 7074 0e36 04       		.byte	0x4
 7075 0e37 3B0E0000 		.4byte	0xe3b
 7076 0e3b 1A       		.uleb128 0x1a
 7077 0e3c 01       		.byte	0x1
 7078 0e3d 5D060000 		.4byte	0x65d
 7079 0e41 550E0000 		.4byte	0xe55
 7080 0e45 18       		.uleb128 0x18
 7081 0e46 CB020000 		.4byte	0x2cb
 7082 0e4a 18       		.uleb128 0x18
 7083 0e4b 480C0000 		.4byte	0xc48
 7084 0e4f 18       		.uleb128 0x18
 7085 0e50 E1040000 		.4byte	0x4e1
 7086 0e54 00       		.byte	0
 7087 0e55 03       		.uleb128 0x3
 7088 0e56 FE050000 		.4byte	.LASF194
 7089 0e5a 15       		.byte	0x15
 7090 0e5b 63       		.byte	0x63
 7091 0e5c 600E0000 		.4byte	0xe60
 7092 0e60 09       		.uleb128 0x9
 7093 0e61 04       		.byte	0x4
ARM GAS  /tmp/cc2wa78n.s 			page 126


 7094 0e62 660E0000 		.4byte	0xe66
 7095 0e66 1A       		.uleb128 0x1a
 7096 0e67 01       		.byte	0x1
 7097 0e68 5D060000 		.4byte	0x65d
 7098 0e6c 7B0E0000 		.4byte	0xe7b
 7099 0e70 18       		.uleb128 0x18
 7100 0e71 CB020000 		.4byte	0x2cb
 7101 0e75 18       		.uleb128 0x18
 7102 0e76 480C0000 		.4byte	0xc48
 7103 0e7a 00       		.byte	0
 7104 0e7b 03       		.uleb128 0x3
 7105 0e7c A0020000 		.4byte	.LASF195
 7106 0e80 15       		.byte	0x15
 7107 0e81 6F       		.byte	0x6f
 7108 0e82 860E0000 		.4byte	0xe86
 7109 0e86 09       		.uleb128 0x9
 7110 0e87 04       		.byte	0x4
 7111 0e88 8C0E0000 		.4byte	0xe8c
 7112 0e8c 17       		.uleb128 0x17
 7113 0e8d 01       		.byte	0x1
 7114 0e8e 9D0E0000 		.4byte	0xe9d
 7115 0e92 18       		.uleb128 0x18
 7116 0e93 CB020000 		.4byte	0x2cb
 7117 0e97 18       		.uleb128 0x18
 7118 0e98 5D060000 		.4byte	0x65d
 7119 0e9c 00       		.byte	0
 7120 0e9d 03       		.uleb128 0x3
 7121 0e9e A0080000 		.4byte	.LASF196
 7122 0ea2 15       		.byte	0x15
 7123 0ea3 7D       		.byte	0x7d
 7124 0ea4 DA0D0000 		.4byte	0xdda
 7125 0ea8 15       		.uleb128 0x15
 7126 0ea9 67010000 		.4byte	.LASF197
 7127 0ead 01       		.byte	0x1
 7128 0eae 15       		.byte	0x15
 7129 0eaf 7F       		.byte	0x7f
 7130 0eb0 F70E0000 		.4byte	0xef7
 7131 0eb4 16       		.uleb128 0x16
 7132 0eb5 AA0B0000 		.4byte	.LASF198
 7133 0eb9 00       		.sleb128 0
 7134 0eba 16       		.uleb128 0x16
 7135 0ebb 19010000 		.4byte	.LASF199
 7136 0ebf 01       		.sleb128 1
 7137 0ec0 16       		.uleb128 0x16
 7138 0ec1 AF030000 		.4byte	.LASF200
 7139 0ec5 02       		.sleb128 2
 7140 0ec6 16       		.uleb128 0x16
 7141 0ec7 D4070000 		.4byte	.LASF201
 7142 0ecb 03       		.sleb128 3
 7143 0ecc 16       		.uleb128 0x16
 7144 0ecd 56020000 		.4byte	.LASF202
 7145 0ed1 04       		.sleb128 4
 7146 0ed2 16       		.uleb128 0x16
 7147 0ed3 8D030000 		.4byte	.LASF203
 7148 0ed7 05       		.sleb128 5
 7149 0ed8 16       		.uleb128 0x16
 7150 0ed9 98030000 		.4byte	.LASF204
ARM GAS  /tmp/cc2wa78n.s 			page 127


 7151 0edd 06       		.sleb128 6
 7152 0ede 16       		.uleb128 0x16
 7153 0edf 01050000 		.4byte	.LASF205
 7154 0ee3 07       		.sleb128 7
 7155 0ee4 16       		.uleb128 0x16
 7156 0ee5 870C0000 		.4byte	.LASF206
 7157 0ee9 08       		.sleb128 8
 7158 0eea 16       		.uleb128 0x16
 7159 0eeb D5030000 		.4byte	.LASF207
 7160 0eef 09       		.sleb128 9
 7161 0ef0 16       		.uleb128 0x16
 7162 0ef1 58010000 		.4byte	.LASF208
 7163 0ef5 0A       		.sleb128 10
 7164 0ef6 00       		.byte	0
 7165 0ef7 1B       		.uleb128 0x1b
 7166 0ef8 DB0C0000 		.4byte	.LASF320
 7167 0efc 01       		.byte	0x1
 7168 0efd 09       		.uleb128 0x9
 7169 0efe 04       		.byte	0x4
 7170 0eff F70E0000 		.4byte	0xef7
 7171 0f03 03       		.uleb128 0x3
 7172 0f04 75020000 		.4byte	.LASF209
 7173 0f08 17       		.byte	0x17
 7174 0f09 3C       		.byte	0x3c
 7175 0f0a 0E0F0000 		.4byte	0xf0e
 7176 0f0e 09       		.uleb128 0x9
 7177 0f0f 04       		.byte	0x4
 7178 0f10 140F0000 		.4byte	0xf14
 7179 0f14 1A       		.uleb128 0x1a
 7180 0f15 01       		.byte	0x1
 7181 0f16 CB040000 		.4byte	0x4cb
 7182 0f1a 330F0000 		.4byte	0xf33
 7183 0f1e 18       		.uleb128 0x18
 7184 0f1f CB020000 		.4byte	0x2cb
 7185 0f23 18       		.uleb128 0x18
 7186 0f24 860D0000 		.4byte	0xd86
 7187 0f28 18       		.uleb128 0x18
 7188 0f29 D7060000 		.4byte	0x6d7
 7189 0f2d 18       		.uleb128 0x18
 7190 0f2e C90D0000 		.4byte	0xdc9
 7191 0f32 00       		.byte	0
 7192 0f33 03       		.uleb128 0x3
 7193 0f34 67080000 		.4byte	.LASF210
 7194 0f38 16       		.byte	0x16
 7195 0f39 57       		.byte	0x57
 7196 0f3a 3E0F0000 		.4byte	0xf3e
 7197 0f3e 09       		.uleb128 0x9
 7198 0f3f 04       		.byte	0x4
 7199 0f40 440F0000 		.4byte	0xf44
 7200 0f44 17       		.uleb128 0x17
 7201 0f45 01       		.byte	0x1
 7202 0f46 640F0000 		.4byte	0xf64
 7203 0f4a 18       		.uleb128 0x18
 7204 0f4b CB020000 		.4byte	0x2cb
 7205 0f4f 18       		.uleb128 0x18
 7206 0f50 F50C0000 		.4byte	0xcf5
 7207 0f54 18       		.uleb128 0x18
ARM GAS  /tmp/cc2wa78n.s 			page 128


 7208 0f55 D7060000 		.4byte	0x6d7
 7209 0f59 18       		.uleb128 0x18
 7210 0f5a C90D0000 		.4byte	0xdc9
 7211 0f5e 18       		.uleb128 0x18
 7212 0f5f E1040000 		.4byte	0x4e1
 7213 0f63 00       		.byte	0
 7214 0f64 08       		.uleb128 0x8
 7215 0f65 01       		.byte	0x1
 7216 0f66 18       		.byte	0x18
 7217 0f67 49       		.byte	0x49
 7218 0f68 7B0F0000 		.4byte	0xf7b
 7219 0f6c 06       		.uleb128 0x6
 7220 0f6d 63000000 		.4byte	.LASF211
 7221 0f71 18       		.byte	0x18
 7222 0f72 4A       		.byte	0x4a
 7223 0f73 CB040000 		.4byte	0x4cb
 7224 0f77 02       		.byte	0x2
 7225 0f78 23       		.byte	0x23
 7226 0f79 00       		.uleb128 0
 7227 0f7a 00       		.byte	0
 7228 0f7b 08       		.uleb128 0x8
 7229 0f7c 08       		.byte	0x8
 7230 0f7d 18       		.byte	0x18
 7231 0f7e 4D       		.byte	0x4d
 7232 0f7f A00F0000 		.4byte	0xfa0
 7233 0f83 06       		.uleb128 0x6
 7234 0f84 AE010000 		.4byte	.LASF212
 7235 0f88 18       		.byte	0x18
 7236 0f89 4E       		.byte	0x4e
 7237 0f8a C90D0000 		.4byte	0xdc9
 7238 0f8e 02       		.byte	0x2
 7239 0f8f 23       		.byte	0x23
 7240 0f90 00       		.uleb128 0
 7241 0f91 06       		.uleb128 0x6
 7242 0f92 7D0A0000 		.4byte	.LASF106
 7243 0f96 18       		.byte	0x18
 7244 0f97 4F       		.byte	0x4f
 7245 0f98 E1040000 		.4byte	0x4e1
 7246 0f9c 02       		.byte	0x2
 7247 0f9d 23       		.byte	0x23
 7248 0f9e 04       		.uleb128 0x4
 7249 0f9f 00       		.byte	0
 7250 0fa0 08       		.uleb128 0x8
 7251 0fa1 0C       		.byte	0xc
 7252 0fa2 18       		.byte	0x18
 7253 0fa3 52       		.byte	0x52
 7254 0fa4 D30F0000 		.4byte	0xfd3
 7255 0fa8 06       		.uleb128 0x6
 7256 0fa9 AE010000 		.4byte	.LASF212
 7257 0fad 18       		.byte	0x18
 7258 0fae 53       		.byte	0x53
 7259 0faf C90D0000 		.4byte	0xdc9
 7260 0fb3 02       		.byte	0x2
 7261 0fb4 23       		.byte	0x23
 7262 0fb5 00       		.uleb128 0
 7263 0fb6 06       		.uleb128 0x6
 7264 0fb7 7D0A0000 		.4byte	.LASF106
ARM GAS  /tmp/cc2wa78n.s 			page 129


 7265 0fbb 18       		.byte	0x18
 7266 0fbc 54       		.byte	0x54
 7267 0fbd D30F0000 		.4byte	0xfd3
 7268 0fc1 02       		.byte	0x2
 7269 0fc2 23       		.byte	0x23
 7270 0fc3 04       		.uleb128 0x4
 7271 0fc4 06       		.uleb128 0x6
 7272 0fc5 48010000 		.4byte	.LASF213
 7273 0fc9 18       		.byte	0x18
 7274 0fca 55       		.byte	0x55
 7275 0fcb CB040000 		.4byte	0x4cb
 7276 0fcf 02       		.byte	0x2
 7277 0fd0 23       		.byte	0x23
 7278 0fd1 08       		.uleb128 0x8
 7279 0fd2 00       		.byte	0
 7280 0fd3 09       		.uleb128 0x9
 7281 0fd4 04       		.byte	0x4
 7282 0fd5 E1040000 		.4byte	0x4e1
 7283 0fd9 08       		.uleb128 0x8
 7284 0fda 0C       		.byte	0xc
 7285 0fdb 18       		.byte	0x18
 7286 0fdc 58       		.byte	0x58
 7287 0fdd 0C100000 		.4byte	0x100c
 7288 0fe1 06       		.uleb128 0x6
 7289 0fe2 140C0000 		.4byte	.LASF214
 7290 0fe6 18       		.byte	0x18
 7291 0fe7 59       		.byte	0x59
 7292 0fe8 0C100000 		.4byte	0x100c
 7293 0fec 02       		.byte	0x2
 7294 0fed 23       		.byte	0x23
 7295 0fee 00       		.uleb128 0
 7296 0fef 07       		.uleb128 0x7
 7297 0ff0 6C656E00 		.ascii	"len\000"
 7298 0ff4 18       		.byte	0x18
 7299 0ff5 5A       		.byte	0x5a
 7300 0ff6 30000000 		.4byte	0x30
 7301 0ffa 02       		.byte	0x2
 7302 0ffb 23       		.byte	0x23
 7303 0ffc 04       		.uleb128 0x4
 7304 0ffd 06       		.uleb128 0x6
 7305 0ffe 3B0B0000 		.4byte	.LASF215
 7306 1002 18       		.byte	0x18
 7307 1003 5B       		.byte	0x5b
 7308 1004 CB040000 		.4byte	0x4cb
 7309 1008 02       		.byte	0x2
 7310 1009 23       		.byte	0x23
 7311 100a 08       		.uleb128 0x8
 7312 100b 00       		.byte	0
 7313 100c 09       		.uleb128 0x9
 7314 100d 04       		.byte	0x4
 7315 100e 12100000 		.4byte	0x1012
 7316 1012 1C       		.uleb128 0x1c
 7317 1013 08       		.uleb128 0x8
 7318 1014 04       		.byte	0x4
 7319 1015 18       		.byte	0x18
 7320 1016 5E       		.byte	0x5e
 7321 1017 2A100000 		.4byte	0x102a
ARM GAS  /tmp/cc2wa78n.s 			page 130


 7322 101b 07       		.uleb128 0x7
 7323 101c 6C656E00 		.ascii	"len\000"
 7324 1020 18       		.byte	0x18
 7325 1021 5F       		.byte	0x5f
 7326 1022 F7040000 		.4byte	0x4f7
 7327 1026 02       		.byte	0x2
 7328 1027 23       		.byte	0x23
 7329 1028 00       		.uleb128 0
 7330 1029 00       		.byte	0
 7331 102a 08       		.uleb128 0x8
 7332 102b 01       		.byte	0x1
 7333 102c 18       		.byte	0x18
 7334 102d 62       		.byte	0x62
 7335 102e 41100000 		.4byte	0x1041
 7336 1032 06       		.uleb128 0x6
 7337 1033 A8040000 		.4byte	.LASF216
 7338 1037 18       		.byte	0x18
 7339 1038 63       		.byte	0x63
 7340 1039 CB040000 		.4byte	0x4cb
 7341 103d 02       		.byte	0x2
 7342 103e 23       		.byte	0x23
 7343 103f 00       		.uleb128 0
 7344 1040 00       		.byte	0
 7345 1041 0E       		.uleb128 0xe
 7346 1042 0C       		.byte	0xc
 7347 1043 18       		.byte	0x18
 7348 1044 45       		.byte	0x45
 7349 1045 8C100000 		.4byte	0x108c
 7350 1049 19       		.uleb128 0x19
 7351 104a 6200     		.ascii	"b\000"
 7352 104c 18       		.byte	0x18
 7353 104d 47       		.byte	0x47
 7354 104e 8C100000 		.4byte	0x108c
 7355 1052 19       		.uleb128 0x19
 7356 1053 6E00     		.ascii	"n\000"
 7357 1055 18       		.byte	0x18
 7358 1056 4B       		.byte	0x4b
 7359 1057 640F0000 		.4byte	0xf64
 7360 105b 19       		.uleb128 0x19
 7361 105c 626300   		.ascii	"bc\000"
 7362 105f 18       		.byte	0x18
 7363 1060 50       		.byte	0x50
 7364 1061 7B0F0000 		.4byte	0xf7b
 7365 1065 19       		.uleb128 0x19
 7366 1066 616400   		.ascii	"ad\000"
 7367 1069 18       		.byte	0x18
 7368 106a 56       		.byte	0x56
 7369 106b A00F0000 		.4byte	0xfa0
 7370 106f 19       		.uleb128 0x19
 7371 1070 7700     		.ascii	"w\000"
 7372 1072 18       		.byte	0x18
 7373 1073 5C       		.byte	0x5c
 7374 1074 D90F0000 		.4byte	0xfd9
 7375 1078 19       		.uleb128 0x19
 7376 1079 7200     		.ascii	"r\000"
 7377 107b 18       		.byte	0x18
 7378 107c 60       		.byte	0x60
ARM GAS  /tmp/cc2wa78n.s 			page 131


 7379 107d 13100000 		.4byte	0x1013
 7380 1081 19       		.uleb128 0x19
 7381 1082 736400   		.ascii	"sd\000"
 7382 1085 18       		.byte	0x18
 7383 1086 64       		.byte	0x64
 7384 1087 2A100000 		.4byte	0x102a
 7385 108b 00       		.byte	0
 7386 108c 09       		.uleb128 0x9
 7387 108d 04       		.byte	0x4
 7388 108e DD060000 		.4byte	0x6dd
 7389 1092 05       		.uleb128 0x5
 7390 1093 8F040000 		.4byte	.LASF217
 7391 1097 18       		.byte	0x18
 7392 1098 01       		.byte	0x1
 7393 1099 40       		.byte	0x40
 7394 109a 0F110000 		.4byte	0x110f
 7395 109e 06       		.uleb128 0x6
 7396 109f 62010000 		.4byte	.LASF190
 7397 10a3 01       		.byte	0x1
 7398 10a4 42       		.byte	0x42
 7399 10a5 F1070000 		.4byte	0x7f1
 7400 10a9 02       		.byte	0x2
 7401 10aa 23       		.byte	0x23
 7402 10ab 00       		.uleb128 0
 7403 10ac 06       		.uleb128 0x6
 7404 10ad 31010000 		.4byte	.LASF218
 7405 10b1 01       		.byte	0x1
 7406 10b2 44       		.byte	0x44
 7407 10b3 CB020000 		.4byte	0x2cb
 7408 10b7 02       		.byte	0x2
 7409 10b8 23       		.byte	0x23
 7410 10b9 04       		.uleb128 0x4
 7411 10ba 06       		.uleb128 0x6
 7412 10bb 95020000 		.4byte	.LASF219
 7413 10bf 01       		.byte	0x1
 7414 10c0 46       		.byte	0x46
 7415 10c1 E1040000 		.4byte	0x4e1
 7416 10c5 02       		.byte	0x2
 7417 10c6 23       		.byte	0x23
 7418 10c7 08       		.uleb128 0x8
 7419 10c8 06       		.uleb128 0x6
 7420 10c9 D80B0000 		.4byte	.LASF220
 7421 10cd 01       		.byte	0x1
 7422 10ce 49       		.byte	0x49
 7423 10cf EC040000 		.4byte	0x4ec
 7424 10d3 02       		.byte	0x2
 7425 10d4 23       		.byte	0x23
 7426 10d5 0A       		.uleb128 0xa
 7427 10d6 06       		.uleb128 0x6
 7428 10d7 6F070000 		.4byte	.LASF221
 7429 10db 01       		.byte	0x1
 7430 10dc 4C       		.byte	0x4c
 7431 10dd E1040000 		.4byte	0x4e1
 7432 10e1 02       		.byte	0x2
 7433 10e2 23       		.byte	0x23
 7434 10e3 0C       		.uleb128 0xc
 7435 10e4 06       		.uleb128 0x6
ARM GAS  /tmp/cc2wa78n.s 			page 132


 7436 10e5 84030000 		.4byte	.LASF222
 7437 10e9 01       		.byte	0x1
 7438 10ea 4E       		.byte	0x4e
 7439 10eb E1040000 		.4byte	0x4e1
 7440 10ef 02       		.byte	0x2
 7441 10f0 23       		.byte	0x23
 7442 10f1 0E       		.uleb128 0xe
 7443 10f2 07       		.uleb128 0x7
 7444 10f3 65727200 		.ascii	"err\000"
 7445 10f7 01       		.byte	0x1
 7446 10f8 50       		.byte	0x50
 7447 10f9 29000000 		.4byte	0x29
 7448 10fd 02       		.byte	0x2
 7449 10fe 23       		.byte	0x23
 7450 10ff 10       		.uleb128 0x10
 7451 1100 06       		.uleb128 0x6
 7452 1101 46040000 		.4byte	.LASF223
 7453 1105 01       		.byte	0x1
 7454 1106 52       		.byte	0x52
 7455 1107 29000000 		.4byte	0x29
 7456 110b 02       		.byte	0x2
 7457 110c 23       		.byte	0x23
 7458 110d 14       		.uleb128 0x14
 7459 110e 00       		.byte	0
 7460 110f 05       		.uleb128 0x5
 7461 1110 0C050000 		.4byte	.LASF224
 7462 1114 1C       		.byte	0x1c
 7463 1115 01       		.byte	0x1
 7464 1116 56       		.byte	0x56
 7465 1117 7E110000 		.4byte	0x117e
 7466 111b 06       		.uleb128 0x6
 7467 111c CA0C0000 		.4byte	.LASF100
 7468 1120 01       		.byte	0x1
 7469 1121 58       		.byte	0x58
 7470 1122 7E110000 		.4byte	0x117e
 7471 1126 02       		.byte	0x2
 7472 1127 23       		.byte	0x23
 7473 1128 00       		.uleb128 0
 7474 1129 06       		.uleb128 0x6
 7475 112a F30C0000 		.4byte	.LASF225
 7476 112e 01       		.byte	0x1
 7477 112f 5A       		.byte	0x5a
 7478 1130 7E110000 		.4byte	0x117e
 7479 1134 02       		.byte	0x2
 7480 1135 23       		.byte	0x23
 7481 1136 04       		.uleb128 0x4
 7482 1137 06       		.uleb128 0x6
 7483 1138 F0030000 		.4byte	.LASF226
 7484 113c 01       		.byte	0x1
 7485 113d 5C       		.byte	0x5c
 7486 113e 84110000 		.4byte	0x1184
 7487 1142 02       		.byte	0x2
 7488 1143 23       		.byte	0x23
 7489 1144 08       		.uleb128 0x8
 7490 1145 06       		.uleb128 0x6
 7491 1146 1A0A0000 		.4byte	.LASF227
 7492 114a 01       		.byte	0x1
ARM GAS  /tmp/cc2wa78n.s 			page 133


 7493 114b 5E       		.byte	0x5e
 7494 114c 84110000 		.4byte	0x1184
 7495 1150 02       		.byte	0x2
 7496 1151 23       		.byte	0x23
 7497 1152 0C       		.uleb128 0xc
 7498 1153 06       		.uleb128 0x6
 7499 1154 4E010000 		.4byte	.LASF228
 7500 1158 01       		.byte	0x1
 7501 1159 60       		.byte	0x60
 7502 115a 84110000 		.4byte	0x1184
 7503 115e 02       		.byte	0x2
 7504 115f 23       		.byte	0x23
 7505 1160 10       		.uleb128 0x10
 7506 1161 06       		.uleb128 0x6
 7507 1162 F1060000 		.4byte	.LASF229
 7508 1166 01       		.byte	0x1
 7509 1167 62       		.byte	0x62
 7510 1168 29000000 		.4byte	0x29
 7511 116c 02       		.byte	0x2
 7512 116d 23       		.byte	0x23
 7513 116e 14       		.uleb128 0x14
 7514 116f 07       		.uleb128 0x7
 7515 1170 73656D00 		.ascii	"sem\000"
 7516 1174 01       		.byte	0x1
 7517 1175 64       		.byte	0x64
 7518 1176 20070000 		.4byte	0x720
 7519 117a 02       		.byte	0x2
 7520 117b 23       		.byte	0x23
 7521 117c 18       		.uleb128 0x18
 7522 117d 00       		.byte	0
 7523 117e 09       		.uleb128 0x9
 7524 117f 04       		.byte	0x4
 7525 1180 0F110000 		.4byte	0x110f
 7526 1184 09       		.uleb128 0x9
 7527 1185 04       		.byte	0x4
 7528 1186 25060000 		.4byte	0x625
 7529 118a 05       		.uleb128 0x5
 7530 118b 4B0B0000 		.4byte	.LASF230
 7531 118f 18       		.byte	0x18
 7532 1190 01       		.byte	0x1
 7533 1191 69       		.byte	0x69
 7534 1192 EB110000 		.4byte	0x11eb
 7535 1196 06       		.uleb128 0x6
 7536 1197 63070000 		.4byte	.LASF231
 7537 119b 01       		.byte	0x1
 7538 119c 6B       		.byte	0x6b
 7539 119d EB110000 		.4byte	0x11eb
 7540 11a1 02       		.byte	0x2
 7541 11a2 23       		.byte	0x23
 7542 11a3 00       		.uleb128 0
 7543 11a4 06       		.uleb128 0x6
 7544 11a5 1C0C0000 		.4byte	.LASF232
 7545 11a9 01       		.byte	0x1
 7546 11aa 71       		.byte	0x71
 7547 11ab 29000000 		.4byte	0x29
 7548 11af 02       		.byte	0x2
 7549 11b0 23       		.byte	0x23
ARM GAS  /tmp/cc2wa78n.s 			page 134


 7550 11b1 04       		.uleb128 0x4
 7551 11b2 06       		.uleb128 0x6
 7552 11b3 F0070000 		.4byte	.LASF233
 7553 11b7 01       		.byte	0x1
 7554 11b8 73       		.byte	0x73
 7555 11b9 29000000 		.4byte	0x29
 7556 11bd 02       		.byte	0x2
 7557 11be 23       		.byte	0x23
 7558 11bf 08       		.uleb128 0x8
 7559 11c0 06       		.uleb128 0x6
 7560 11c1 79070000 		.4byte	.LASF234
 7561 11c5 01       		.byte	0x1
 7562 11c6 76       		.byte	0x76
 7563 11c7 CB020000 		.4byte	0x2cb
 7564 11cb 02       		.byte	0x2
 7565 11cc 23       		.byte	0x23
 7566 11cd 0C       		.uleb128 0xc
 7567 11ce 06       		.uleb128 0x6
 7568 11cf 17090000 		.4byte	.LASF235
 7569 11d3 01       		.byte	0x1
 7570 11d4 78       		.byte	0x78
 7571 11d5 F1110000 		.4byte	0x11f1
 7572 11d9 02       		.byte	0x2
 7573 11da 23       		.byte	0x23
 7574 11db 10       		.uleb128 0x10
 7575 11dc 07       		.uleb128 0x7
 7576 11dd 65727200 		.ascii	"err\000"
 7577 11e1 01       		.byte	0x1
 7578 11e2 7A       		.byte	0x7a
 7579 11e3 5D060000 		.4byte	0x65d
 7580 11e7 02       		.byte	0x2
 7581 11e8 23       		.byte	0x23
 7582 11e9 14       		.uleb128 0x14
 7583 11ea 00       		.byte	0
 7584 11eb 09       		.uleb128 0x9
 7585 11ec 04       		.byte	0x4
 7586 11ed 92100000 		.4byte	0x1092
 7587 11f1 09       		.uleb128 0x9
 7588 11f2 04       		.byte	0x4
 7589 11f3 F7040000 		.4byte	0x4f7
 7590 11f7 1D       		.uleb128 0x1d
 7591 11f8 01       		.byte	0x1
 7592 11f9 990A0000 		.4byte	.LASF321
 7593 11fd 01       		.byte	0x1
 7594 11fe B8       		.byte	0xb8
 7595 11ff 01       		.byte	0x1
 7596 1200 00000000 		.4byte	.LFB7
 7597 1204 02000000 		.4byte	.LFE7
 7598 1208 02       		.byte	0x2
 7599 1209 7D       		.byte	0x7d
 7600 120a 00       		.sleb128 0
 7601 120b 1E       		.uleb128 0x1e
 7602 120c 4D000000 		.4byte	.LASF236
 7603 1210 01       		.byte	0x1
 7604 1211 C3       		.byte	0xc3
 7605 1212 01       		.byte	0x1
 7606 1213 EB110000 		.4byte	0x11eb
ARM GAS  /tmp/cc2wa78n.s 			page 135


 7607 1217 00000000 		.4byte	.LFB8
 7608 121b 48000000 		.4byte	.LFE8
 7609 121f 00000000 		.4byte	.LLST0
 7610 1223 42120000 		.4byte	0x1242
 7611 1227 1F       		.uleb128 0x1f
 7612 1228 7300     		.ascii	"s\000"
 7613 122a 01       		.byte	0x1
 7614 122b C3       		.byte	0xc3
 7615 122c 29000000 		.4byte	0x29
 7616 1230 02       		.byte	0x2
 7617 1231 91       		.byte	0x91
 7618 1232 74       		.sleb128 -12
 7619 1233 20       		.uleb128 0x20
 7620 1234 63070000 		.4byte	.LASF231
 7621 1238 01       		.byte	0x1
 7622 1239 C5       		.byte	0xc5
 7623 123a EB110000 		.4byte	0x11eb
 7624 123e 02       		.byte	0x2
 7625 123f 91       		.byte	0x91
 7626 1240 7C       		.sleb128 -4
 7627 1241 00       		.byte	0
 7628 1242 1E       		.uleb128 0x1e
 7629 1243 280B0000 		.4byte	.LASF237
 7630 1247 01       		.byte	0x1
 7631 1248 DF       		.byte	0xdf
 7632 1249 01       		.byte	0x1
 7633 124a EB110000 		.4byte	0x11eb
 7634 124e 00000000 		.4byte	.LFB9
 7635 1252 5A000000 		.4byte	.LFE9
 7636 1256 20000000 		.4byte	.LLST1
 7637 125a 6B120000 		.4byte	0x126b
 7638 125e 1F       		.uleb128 0x1f
 7639 125f 7300     		.ascii	"s\000"
 7640 1261 01       		.byte	0x1
 7641 1262 DF       		.byte	0xdf
 7642 1263 29000000 		.4byte	0x29
 7643 1267 02       		.byte	0x2
 7644 1268 91       		.byte	0x91
 7645 1269 7C       		.sleb128 -4
 7646 126a 00       		.byte	0
 7647 126b 1E       		.uleb128 0x1e
 7648 126c 90050000 		.4byte	.LASF238
 7649 1270 01       		.byte	0x1
 7650 1271 F3       		.byte	0xf3
 7651 1272 01       		.byte	0x1
 7652 1273 29000000 		.4byte	0x29
 7653 1277 00000000 		.4byte	.LFB10
 7654 127b 6E010000 		.4byte	.LFE10
 7655 127f 40000000 		.4byte	.LLST2
 7656 1283 B0120000 		.4byte	0x12b0
 7657 1287 21       		.uleb128 0x21
 7658 1288 EC010000 		.4byte	.LASF239
 7659 128c 01       		.byte	0x1
 7660 128d F3       		.byte	0xf3
 7661 128e F1070000 		.4byte	0x7f1
 7662 1292 02       		.byte	0x2
 7663 1293 91       		.byte	0x91
ARM GAS  /tmp/cc2wa78n.s 			page 136


 7664 1294 74       		.sleb128 -12
 7665 1295 21       		.uleb128 0x21
 7666 1296 30060000 		.4byte	.LASF240
 7667 129a 01       		.byte	0x1
 7668 129b F3       		.byte	0xf3
 7669 129c 29000000 		.4byte	0x29
 7670 12a0 02       		.byte	0x2
 7671 12a1 91       		.byte	0x91
 7672 12a2 70       		.sleb128 -16
 7673 12a3 22       		.uleb128 0x22
 7674 12a4 6900     		.ascii	"i\000"
 7675 12a6 01       		.byte	0x1
 7676 12a7 F5       		.byte	0xf5
 7677 12a8 29000000 		.4byte	0x29
 7678 12ac 02       		.byte	0x2
 7679 12ad 91       		.byte	0x91
 7680 12ae 7C       		.sleb128 -4
 7681 12af 00       		.byte	0
 7682 12b0 23       		.uleb128 0x23
 7683 12b1 230A0000 		.4byte	.LASF294
 7684 12b5 01       		.byte	0x1
 7685 12b6 1801     		.2byte	0x118
 7686 12b8 01       		.byte	0x1
 7687 12b9 00000000 		.4byte	.LFB11
 7688 12bd 4C000000 		.4byte	.LFE11
 7689 12c1 60000000 		.4byte	.LLST3
 7690 12c5 F7120000 		.4byte	0x12f7
 7691 12c9 24       		.uleb128 0x24
 7692 12ca 63070000 		.4byte	.LASF231
 7693 12ce 01       		.byte	0x1
 7694 12cf 1801     		.2byte	0x118
 7695 12d1 EB110000 		.4byte	0x11eb
 7696 12d5 02       		.byte	0x2
 7697 12d6 91       		.byte	0x91
 7698 12d7 6C       		.sleb128 -20
 7699 12d8 24       		.uleb128 0x24
 7700 12d9 970C0000 		.4byte	.LASF241
 7701 12dd 01       		.byte	0x1
 7702 12de 1801     		.2byte	0x118
 7703 12e0 29000000 		.4byte	0x29
 7704 12e4 02       		.byte	0x2
 7705 12e5 91       		.byte	0x91
 7706 12e6 68       		.sleb128 -24
 7707 12e7 25       		.uleb128 0x25
 7708 12e8 31010000 		.4byte	.LASF218
 7709 12ec 01       		.byte	0x1
 7710 12ed 1A01     		.2byte	0x11a
 7711 12ef CB020000 		.4byte	0x2cb
 7712 12f3 02       		.byte	0x2
 7713 12f4 91       		.byte	0x91
 7714 12f5 74       		.sleb128 -12
 7715 12f6 00       		.byte	0
 7716 12f7 26       		.uleb128 0x26
 7717 12f8 01       		.byte	0x1
 7718 12f9 A5070000 		.4byte	.LASF246
 7719 12fd 01       		.byte	0x1
 7720 12fe 3801     		.2byte	0x138
ARM GAS  /tmp/cc2wa78n.s 			page 137


 7721 1300 01       		.byte	0x1
 7722 1301 29000000 		.4byte	0x29
 7723 1305 00000000 		.4byte	.LFB12
 7724 1309 26020000 		.4byte	.LFE12
 7725 130d 8C000000 		.4byte	.LLST4
 7726 1311 BA130000 		.4byte	0x13ba
 7727 1315 27       		.uleb128 0x27
 7728 1316 7300     		.ascii	"s\000"
 7729 1318 01       		.byte	0x1
 7730 1319 3801     		.2byte	0x138
 7731 131b 29000000 		.4byte	0x29
 7732 131f 02       		.byte	0x2
 7733 1320 91       		.byte	0x91
 7734 1321 44       		.sleb128 -60
 7735 1322 24       		.uleb128 0x24
 7736 1323 2C070000 		.4byte	.LASF79
 7737 1327 01       		.byte	0x1
 7738 1328 3801     		.2byte	0x138
 7739 132a BA130000 		.4byte	0x13ba
 7740 132e 02       		.byte	0x2
 7741 132f 91       		.byte	0x91
 7742 1330 40       		.sleb128 -64
 7743 1331 24       		.uleb128 0x24
 7744 1332 56050000 		.4byte	.LASF242
 7745 1336 01       		.byte	0x1
 7746 1337 3801     		.2byte	0x138
 7747 1339 F1110000 		.4byte	0x11f1
 7748 133d 03       		.byte	0x3
 7749 133e 91       		.byte	0x91
 7750 133f BC7F     		.sleb128 -68
 7751 1341 25       		.uleb128 0x25
 7752 1342 63070000 		.4byte	.LASF231
 7753 1346 01       		.byte	0x1
 7754 1347 3A01     		.2byte	0x13a
 7755 1349 EB110000 		.4byte	0x11eb
 7756 134d 02       		.byte	0x2
 7757 134e 91       		.byte	0x91
 7758 134f 74       		.sleb128 -12
 7759 1350 25       		.uleb128 0x25
 7760 1351 DE030000 		.4byte	.LASF243
 7761 1355 01       		.byte	0x1
 7762 1356 3A01     		.2byte	0x13a
 7763 1358 EB110000 		.4byte	0x11eb
 7764 135c 02       		.byte	0x2
 7765 135d 91       		.byte	0x91
 7766 135e 68       		.sleb128 -24
 7767 135f 25       		.uleb128 0x25
 7768 1360 EC010000 		.4byte	.LASF239
 7769 1364 01       		.byte	0x1
 7770 1365 3B01     		.2byte	0x13b
 7771 1367 F1070000 		.4byte	0x7f1
 7772 136b 02       		.byte	0x2
 7773 136c 91       		.byte	0x91
 7774 136d 64       		.sleb128 -28
 7775 136e 25       		.uleb128 0x25
 7776 136f 23000000 		.4byte	.LASF244
 7777 1373 01       		.byte	0x1
ARM GAS  /tmp/cc2wa78n.s 			page 138


 7778 1374 3C01     		.2byte	0x13c
 7779 1376 28050000 		.4byte	0x528
 7780 137a 02       		.byte	0x2
 7781 137b 91       		.byte	0x91
 7782 137c 60       		.sleb128 -32
 7783 137d 25       		.uleb128 0x25
 7784 137e 7D0A0000 		.4byte	.LASF106
 7785 1382 01       		.byte	0x1
 7786 1383 3D01     		.2byte	0x13d
 7787 1385 E1040000 		.4byte	0x4e1
 7788 1389 02       		.byte	0x2
 7789 138a 91       		.byte	0x91
 7790 138b 5E       		.sleb128 -34
 7791 138c 25       		.uleb128 0x25
 7792 138d 77050000 		.4byte	.LASF245
 7793 1391 01       		.byte	0x1
 7794 1392 3E01     		.2byte	0x13e
 7795 1394 29000000 		.4byte	0x29
 7796 1398 02       		.byte	0x2
 7797 1399 91       		.byte	0x91
 7798 139a 6C       		.sleb128 -20
 7799 139b 28       		.uleb128 0x28
 7800 139c 73696E00 		.ascii	"sin\000"
 7801 13a0 01       		.byte	0x1
 7802 13a1 3F01     		.2byte	0x13f
 7803 13a3 4E050000 		.4byte	0x54e
 7804 13a7 02       		.byte	0x2
 7805 13a8 91       		.byte	0x91
 7806 13a9 4C       		.sleb128 -52
 7807 13aa 28       		.uleb128 0x28
 7808 13ab 65727200 		.ascii	"err\000"
 7809 13af 01       		.byte	0x1
 7810 13b0 4001     		.2byte	0x140
 7811 13b2 5D060000 		.4byte	0x65d
 7812 13b6 02       		.byte	0x2
 7813 13b7 91       		.byte	0x91
 7814 13b8 73       		.sleb128 -13
 7815 13b9 00       		.byte	0
 7816 13ba 09       		.uleb128 0x9
 7817 13bb 04       		.byte	0x4
 7818 13bc B1050000 		.4byte	0x5b1
 7819 13c0 26       		.uleb128 0x26
 7820 13c1 01       		.byte	0x1
 7821 13c2 C00B0000 		.4byte	.LASF247
 7822 13c6 01       		.byte	0x1
 7823 13c7 9101     		.2byte	0x191
 7824 13c9 01       		.byte	0x1
 7825 13ca 29000000 		.4byte	0x29
 7826 13ce 00000000 		.4byte	.LFB13
 7827 13d2 CE000000 		.4byte	.LFE13
 7828 13d6 B9000000 		.4byte	.LLST5
 7829 13da 55140000 		.4byte	0x1455
 7830 13de 27       		.uleb128 0x27
 7831 13df 7300     		.ascii	"s\000"
 7832 13e1 01       		.byte	0x1
 7833 13e2 9101     		.2byte	0x191
 7834 13e4 29000000 		.4byte	0x29
ARM GAS  /tmp/cc2wa78n.s 			page 139


 7835 13e8 02       		.byte	0x2
 7836 13e9 91       		.byte	0x91
 7837 13ea 64       		.sleb128 -28
 7838 13eb 24       		.uleb128 0x24
 7839 13ec 700A0000 		.4byte	.LASF248
 7840 13f0 01       		.byte	0x1
 7841 13f1 9101     		.2byte	0x191
 7842 13f3 55140000 		.4byte	0x1455
 7843 13f7 02       		.byte	0x2
 7844 13f8 91       		.byte	0x91
 7845 13f9 60       		.sleb128 -32
 7846 13fa 24       		.uleb128 0x24
 7847 13fb EA020000 		.4byte	.LASF249
 7848 13ff 01       		.byte	0x1
 7849 1400 9101     		.2byte	0x191
 7850 1402 F7040000 		.4byte	0x4f7
 7851 1406 02       		.byte	0x2
 7852 1407 91       		.byte	0x91
 7853 1408 5C       		.sleb128 -36
 7854 1409 25       		.uleb128 0x25
 7855 140a 63070000 		.4byte	.LASF231
 7856 140e 01       		.byte	0x1
 7857 140f 9301     		.2byte	0x193
 7858 1411 EB110000 		.4byte	0x11eb
 7859 1415 02       		.byte	0x2
 7860 1416 91       		.byte	0x91
 7861 1417 74       		.sleb128 -12
 7862 1418 25       		.uleb128 0x25
 7863 1419 7C000000 		.4byte	.LASF250
 7864 141d 01       		.byte	0x1
 7865 141e 9401     		.2byte	0x194
 7866 1420 28050000 		.4byte	0x528
 7867 1424 02       		.byte	0x2
 7868 1425 91       		.byte	0x91
 7869 1426 68       		.sleb128 -24
 7870 1427 25       		.uleb128 0x25
 7871 1428 1D040000 		.4byte	.LASF147
 7872 142c 01       		.byte	0x1
 7873 142d 9501     		.2byte	0x195
 7874 142f E1040000 		.4byte	0x4e1
 7875 1433 02       		.byte	0x2
 7876 1434 91       		.byte	0x91
 7877 1435 6E       		.sleb128 -18
 7878 1436 28       		.uleb128 0x28
 7879 1437 65727200 		.ascii	"err\000"
 7880 143b 01       		.byte	0x1
 7881 143c 9601     		.2byte	0x196
 7882 143e 5D060000 		.4byte	0x65d
 7883 1442 02       		.byte	0x2
 7884 1443 91       		.byte	0x91
 7885 1444 6D       		.sleb128 -19
 7886 1445 25       		.uleb128 0x25
 7887 1446 6A090000 		.4byte	.LASF251
 7888 144a 01       		.byte	0x1
 7889 144b 9701     		.2byte	0x197
 7890 144d 60140000 		.4byte	0x1460
 7891 1451 02       		.byte	0x2
ARM GAS  /tmp/cc2wa78n.s 			page 140


 7892 1452 91       		.byte	0x91
 7893 1453 70       		.sleb128 -16
 7894 1454 00       		.byte	0
 7895 1455 09       		.uleb128 0x9
 7896 1456 04       		.byte	0x4
 7897 1457 5B140000 		.4byte	0x145b
 7898 145b 10       		.uleb128 0x10
 7899 145c B1050000 		.4byte	0x5b1
 7900 1460 09       		.uleb128 0x9
 7901 1461 04       		.byte	0x4
 7902 1462 66140000 		.4byte	0x1466
 7903 1466 10       		.uleb128 0x10
 7904 1467 4E050000 		.4byte	0x54e
 7905 146b 26       		.uleb128 0x26
 7906 146c 01       		.byte	0x1
 7907 146d 90000000 		.4byte	.LASF252
 7908 1471 01       		.byte	0x1
 7909 1472 B901     		.2byte	0x1b9
 7910 1474 01       		.byte	0x1
 7911 1475 29000000 		.4byte	0x29
 7912 1479 00000000 		.4byte	.LFB14
 7913 147d 64000000 		.4byte	.LFE14
 7914 1481 E5000000 		.4byte	.LLST6
 7915 1485 B5140000 		.4byte	0x14b5
 7916 1489 27       		.uleb128 0x27
 7917 148a 7300     		.ascii	"s\000"
 7918 148c 01       		.byte	0x1
 7919 148d B901     		.2byte	0x1b9
 7920 148f 29000000 		.4byte	0x29
 7921 1493 02       		.byte	0x2
 7922 1494 91       		.byte	0x91
 7923 1495 6C       		.sleb128 -20
 7924 1496 25       		.uleb128 0x25
 7925 1497 63070000 		.4byte	.LASF231
 7926 149b 01       		.byte	0x1
 7927 149c BB01     		.2byte	0x1bb
 7928 149e EB110000 		.4byte	0x11eb
 7929 14a2 02       		.byte	0x2
 7930 14a3 91       		.byte	0x91
 7931 14a4 70       		.sleb128 -16
 7932 14a5 25       		.uleb128 0x25
 7933 14a6 970C0000 		.4byte	.LASF241
 7934 14aa 01       		.byte	0x1
 7935 14ab BC01     		.2byte	0x1bc
 7936 14ad 29000000 		.4byte	0x29
 7937 14b1 02       		.byte	0x2
 7938 14b2 91       		.byte	0x91
 7939 14b3 74       		.sleb128 -12
 7940 14b4 00       		.byte	0
 7941 14b5 26       		.uleb128 0x26
 7942 14b6 01       		.byte	0x1
 7943 14b7 5B040000 		.4byte	.LASF253
 7944 14bb 01       		.byte	0x1
 7945 14bc D301     		.2byte	0x1d3
 7946 14be 01       		.byte	0x1
 7947 14bf 29000000 		.4byte	0x29
 7948 14c3 00000000 		.4byte	.LFB15
ARM GAS  /tmp/cc2wa78n.s 			page 141


 7949 14c7 E8000000 		.4byte	.LFE15
 7950 14cb 11010000 		.4byte	.LLST7
 7951 14cf 54150000 		.4byte	0x1554
 7952 14d3 27       		.uleb128 0x27
 7953 14d4 7300     		.ascii	"s\000"
 7954 14d6 01       		.byte	0x1
 7955 14d7 D301     		.2byte	0x1d3
 7956 14d9 29000000 		.4byte	0x29
 7957 14dd 02       		.byte	0x2
 7958 14de 91       		.byte	0x91
 7959 14df 5C       		.sleb128 -36
 7960 14e0 24       		.uleb128 0x24
 7961 14e1 700A0000 		.4byte	.LASF248
 7962 14e5 01       		.byte	0x1
 7963 14e6 D301     		.2byte	0x1d3
 7964 14e8 55140000 		.4byte	0x1455
 7965 14ec 02       		.byte	0x2
 7966 14ed 91       		.byte	0x91
 7967 14ee 58       		.sleb128 -40
 7968 14ef 24       		.uleb128 0x24
 7969 14f0 EA020000 		.4byte	.LASF249
 7970 14f4 01       		.byte	0x1
 7971 14f5 D301     		.2byte	0x1d3
 7972 14f7 F7040000 		.4byte	0x4f7
 7973 14fb 02       		.byte	0x2
 7974 14fc 91       		.byte	0x91
 7975 14fd 54       		.sleb128 -44
 7976 14fe 25       		.uleb128 0x25
 7977 14ff 63070000 		.4byte	.LASF231
 7978 1503 01       		.byte	0x1
 7979 1504 D501     		.2byte	0x1d5
 7980 1506 EB110000 		.4byte	0x11eb
 7981 150a 02       		.byte	0x2
 7982 150b 91       		.byte	0x91
 7983 150c 70       		.sleb128 -16
 7984 150d 28       		.uleb128 0x28
 7985 150e 65727200 		.ascii	"err\000"
 7986 1512 01       		.byte	0x1
 7987 1513 D601     		.2byte	0x1d6
 7988 1515 5D060000 		.4byte	0x65d
 7989 1519 02       		.byte	0x2
 7990 151a 91       		.byte	0x91
 7991 151b 77       		.sleb128 -9
 7992 151c 25       		.uleb128 0x25
 7993 151d 6A090000 		.4byte	.LASF251
 7994 1521 01       		.byte	0x1
 7995 1522 D701     		.2byte	0x1d7
 7996 1524 60140000 		.4byte	0x1460
 7997 1528 02       		.byte	0x2
 7998 1529 91       		.byte	0x91
 7999 152a 6C       		.sleb128 -20
 8000 152b 29       		.uleb128 0x29
 8001 152c 6E000000 		.4byte	.LBB2
 8002 1530 9E000000 		.4byte	.LBE2
 8003 1534 25       		.uleb128 0x25
 8004 1535 F2050000 		.4byte	.LASF254
 8005 1539 01       		.byte	0x1
ARM GAS  /tmp/cc2wa78n.s 			page 142


 8006 153a E801     		.2byte	0x1e8
 8007 153c 28050000 		.4byte	0x528
 8008 1540 02       		.byte	0x2
 8009 1541 91       		.byte	0x91
 8010 1542 64       		.sleb128 -28
 8011 1543 25       		.uleb128 0x25
 8012 1544 D5080000 		.4byte	.LASF148
 8013 1548 01       		.byte	0x1
 8014 1549 E901     		.2byte	0x1e9
 8015 154b E1040000 		.4byte	0x4e1
 8016 154f 02       		.byte	0x2
 8017 1550 91       		.byte	0x91
 8018 1551 6A       		.sleb128 -22
 8019 1552 00       		.byte	0
 8020 1553 00       		.byte	0
 8021 1554 26       		.uleb128 0x26
 8022 1555 01       		.byte	0x1
 8023 1556 54060000 		.4byte	.LASF255
 8024 155a 01       		.byte	0x1
 8025 155b 0902     		.2byte	0x209
 8026 155d 01       		.byte	0x1
 8027 155e 29000000 		.4byte	0x29
 8028 1562 00000000 		.4byte	.LFB16
 8029 1566 92000000 		.4byte	.LFE16
 8030 156a 3D010000 		.4byte	.LLST8
 8031 156e AD150000 		.4byte	0x15ad
 8032 1572 27       		.uleb128 0x27
 8033 1573 7300     		.ascii	"s\000"
 8034 1575 01       		.byte	0x1
 8035 1576 0902     		.2byte	0x209
 8036 1578 29000000 		.4byte	0x29
 8037 157c 02       		.byte	0x2
 8038 157d 91       		.byte	0x91
 8039 157e 6C       		.sleb128 -20
 8040 157f 24       		.uleb128 0x24
 8041 1580 8D020000 		.4byte	.LASF256
 8042 1584 01       		.byte	0x1
 8043 1585 0902     		.2byte	0x209
 8044 1587 29000000 		.4byte	0x29
 8045 158b 02       		.byte	0x2
 8046 158c 91       		.byte	0x91
 8047 158d 68       		.sleb128 -24
 8048 158e 25       		.uleb128 0x25
 8049 158f 63070000 		.4byte	.LASF231
 8050 1593 01       		.byte	0x1
 8051 1594 0B02     		.2byte	0x20b
 8052 1596 EB110000 		.4byte	0x11eb
 8053 159a 02       		.byte	0x2
 8054 159b 91       		.byte	0x91
 8055 159c 74       		.sleb128 -12
 8056 159d 28       		.uleb128 0x28
 8057 159e 65727200 		.ascii	"err\000"
 8058 15a2 01       		.byte	0x1
 8059 15a3 0C02     		.2byte	0x20c
 8060 15a5 5D060000 		.4byte	0x65d
 8061 15a9 02       		.byte	0x2
 8062 15aa 91       		.byte	0x91
ARM GAS  /tmp/cc2wa78n.s 			page 143


 8063 15ab 73       		.sleb128 -13
 8064 15ac 00       		.byte	0
 8065 15ad 26       		.uleb128 0x26
 8066 15ae 01       		.byte	0x1
 8067 15af B1060000 		.4byte	.LASF257
 8068 15b3 01       		.byte	0x1
 8069 15b4 2502     		.2byte	0x225
 8070 15b6 01       		.byte	0x1
 8071 15b7 29000000 		.4byte	0x29
 8072 15bb 00000000 		.4byte	.LFB17
 8073 15bf 54030000 		.4byte	.LFE17
 8074 15c3 69010000 		.4byte	.LLST9
 8075 15c7 EE160000 		.4byte	0x16ee
 8076 15cb 27       		.uleb128 0x27
 8077 15cc 7300     		.ascii	"s\000"
 8078 15ce 01       		.byte	0x1
 8079 15cf 2502     		.2byte	0x225
 8080 15d1 29000000 		.4byte	0x29
 8081 15d5 03       		.byte	0x3
 8082 15d6 91       		.byte	0x91
 8083 15d7 BC7F     		.sleb128 -68
 8084 15d9 27       		.uleb128 0x27
 8085 15da 6D656D00 		.ascii	"mem\000"
 8086 15de 01       		.byte	0x1
 8087 15df 2502     		.2byte	0x225
 8088 15e1 CB020000 		.4byte	0x2cb
 8089 15e5 03       		.byte	0x3
 8090 15e6 91       		.byte	0x91
 8091 15e7 B87F     		.sleb128 -72
 8092 15e9 27       		.uleb128 0x27
 8093 15ea 6C656E00 		.ascii	"len\000"
 8094 15ee 01       		.byte	0x1
 8095 15ef 2502     		.2byte	0x225
 8096 15f1 30000000 		.4byte	0x30
 8097 15f5 03       		.byte	0x3
 8098 15f6 91       		.byte	0x91
 8099 15f7 B47F     		.sleb128 -76
 8100 15f9 24       		.uleb128 0x24
 8101 15fa 55040000 		.4byte	.LASF104
 8102 15fe 01       		.byte	0x1
 8103 15ff 2502     		.2byte	0x225
 8104 1601 29000000 		.4byte	0x29
 8105 1605 03       		.byte	0x3
 8106 1606 91       		.byte	0x91
 8107 1607 B07F     		.sleb128 -80
 8108 1609 24       		.uleb128 0x24
 8109 160a 14010000 		.4byte	.LASF258
 8110 160e 01       		.byte	0x1
 8111 160f 2602     		.2byte	0x226
 8112 1611 BA130000 		.4byte	0x13ba
 8113 1615 02       		.byte	0x2
 8114 1616 91       		.byte	0x91
 8115 1617 00       		.sleb128 0
 8116 1618 24       		.uleb128 0x24
 8117 1619 FD070000 		.4byte	.LASF259
 8118 161d 01       		.byte	0x1
 8119 161e 2602     		.2byte	0x226
ARM GAS  /tmp/cc2wa78n.s 			page 144


 8120 1620 F1110000 		.4byte	0x11f1
 8121 1624 02       		.byte	0x2
 8122 1625 91       		.byte	0x91
 8123 1626 04       		.sleb128 4
 8124 1627 25       		.uleb128 0x25
 8125 1628 63070000 		.4byte	.LASF231
 8126 162c 01       		.byte	0x1
 8127 162d 2802     		.2byte	0x228
 8128 162f EB110000 		.4byte	0x11eb
 8129 1633 02       		.byte	0x2
 8130 1634 91       		.byte	0x91
 8131 1635 60       		.sleb128 -32
 8132 1636 28       		.uleb128 0x28
 8133 1637 62756600 		.ascii	"buf\000"
 8134 163b 01       		.byte	0x1
 8135 163c 2902     		.2byte	0x229
 8136 163e CB020000 		.4byte	0x2cb
 8137 1642 02       		.byte	0x2
 8138 1643 91       		.byte	0x91
 8139 1644 58       		.sleb128 -40
 8140 1645 28       		.uleb128 0x28
 8141 1646 7000     		.ascii	"p\000"
 8142 1648 01       		.byte	0x1
 8143 1649 2A02     		.2byte	0x22a
 8144 164b D7060000 		.4byte	0x6d7
 8145 164f 02       		.byte	0x2
 8146 1650 91       		.byte	0x91
 8147 1651 74       		.sleb128 -12
 8148 1652 25       		.uleb128 0x25
 8149 1653 46070000 		.4byte	.LASF260
 8150 1657 01       		.byte	0x1
 8151 1658 2B02     		.2byte	0x22b
 8152 165a E1040000 		.4byte	0x4e1
 8153 165e 02       		.byte	0x2
 8154 165f 91       		.byte	0x91
 8155 1660 5E       		.sleb128 -34
 8156 1661 25       		.uleb128 0x25
 8157 1662 FE020000 		.4byte	.LASF261
 8158 1666 01       		.byte	0x1
 8159 1667 2B02     		.2byte	0x22b
 8160 1669 E1040000 		.4byte	0x4e1
 8161 166d 02       		.byte	0x2
 8162 166e 91       		.byte	0x91
 8163 166f 72       		.sleb128 -14
 8164 1670 28       		.uleb128 0x28
 8165 1671 6F666600 		.ascii	"off\000"
 8166 1675 01       		.byte	0x1
 8167 1676 2C02     		.2byte	0x22c
 8168 1678 29000000 		.4byte	0x29
 8169 167c 02       		.byte	0x2
 8170 167d 91       		.byte	0x91
 8171 167e 6C       		.sleb128 -20
 8172 167f 25       		.uleb128 0x25
 8173 1680 2C070000 		.4byte	.LASF79
 8174 1684 01       		.byte	0x1
 8175 1685 2D02     		.2byte	0x22d
 8176 1687 C90D0000 		.4byte	0xdc9
ARM GAS  /tmp/cc2wa78n.s 			page 145


 8177 168b 02       		.byte	0x2
 8178 168c 91       		.byte	0x91
 8179 168d 68       		.sleb128 -24
 8180 168e 25       		.uleb128 0x25
 8181 168f 7D0A0000 		.4byte	.LASF106
 8182 1693 01       		.byte	0x1
 8183 1694 2E02     		.2byte	0x22e
 8184 1696 E1040000 		.4byte	0x4e1
 8185 169a 02       		.byte	0x2
 8186 169b 91       		.byte	0x91
 8187 169c 56       		.sleb128 -42
 8188 169d 25       		.uleb128 0x25
 8189 169e B6070000 		.4byte	.LASF262
 8190 16a2 01       		.byte	0x1
 8191 16a3 2F02     		.2byte	0x22f
 8192 16a5 CB040000 		.4byte	0x4cb
 8193 16a9 02       		.byte	0x2
 8194 16aa 91       		.byte	0x91
 8195 16ab 67       		.sleb128 -25
 8196 16ac 28       		.uleb128 0x28
 8197 16ad 65727200 		.ascii	"err\000"
 8198 16b1 01       		.byte	0x1
 8199 16b2 3002     		.2byte	0x230
 8200 16b4 5D060000 		.4byte	0x65d
 8201 16b8 02       		.byte	0x2
 8202 16b9 91       		.byte	0x91
 8203 16ba 66       		.sleb128 -26
 8204 16bb 29       		.uleb128 0x29
 8205 16bc 0C020000 		.4byte	.LBB3
 8206 16c0 C0020000 		.4byte	.LBE3
 8207 16c4 25       		.uleb128 0x25
 8208 16c5 7A080000 		.4byte	.LASF263
 8209 16c9 01       		.byte	0x1
 8210 16ca 9302     		.2byte	0x293
 8211 16cc 28050000 		.4byte	0x528
 8212 16d0 02       		.byte	0x2
 8213 16d1 91       		.byte	0x91
 8214 16d2 50       		.sleb128 -48
 8215 16d3 29       		.uleb128 0x29
 8216 16d4 18020000 		.4byte	.LBB4
 8217 16d8 C0020000 		.4byte	.LBE4
 8218 16dc 28       		.uleb128 0x28
 8219 16dd 73696E00 		.ascii	"sin\000"
 8220 16e1 01       		.byte	0x1
 8221 16e2 9502     		.2byte	0x295
 8222 16e4 4E050000 		.4byte	0x54e
 8223 16e8 02       		.byte	0x2
 8224 16e9 91       		.byte	0x91
 8225 16ea 40       		.sleb128 -64
 8226 16eb 00       		.byte	0
 8227 16ec 00       		.byte	0
 8228 16ed 00       		.byte	0
 8229 16ee 26       		.uleb128 0x26
 8230 16ef 01       		.byte	0x1
 8231 16f0 60090000 		.4byte	.LASF264
 8232 16f4 01       		.byte	0x1
 8233 16f5 DE02     		.2byte	0x2de
ARM GAS  /tmp/cc2wa78n.s 			page 146


 8234 16f7 01       		.byte	0x1
 8235 16f8 29000000 		.4byte	0x29
 8236 16fc 00000000 		.4byte	.LFB18
 8237 1700 2C000000 		.4byte	.LFE18
 8238 1704 96010000 		.4byte	.LLST10
 8239 1708 38170000 		.4byte	0x1738
 8240 170c 27       		.uleb128 0x27
 8241 170d 7300     		.ascii	"s\000"
 8242 170f 01       		.byte	0x1
 8243 1710 DE02     		.2byte	0x2de
 8244 1712 29000000 		.4byte	0x29
 8245 1716 02       		.byte	0x2
 8246 1717 91       		.byte	0x91
 8247 1718 74       		.sleb128 -12
 8248 1719 27       		.uleb128 0x27
 8249 171a 6D656D00 		.ascii	"mem\000"
 8250 171e 01       		.byte	0x1
 8251 171f DE02     		.2byte	0x2de
 8252 1721 CB020000 		.4byte	0x2cb
 8253 1725 02       		.byte	0x2
 8254 1726 91       		.byte	0x91
 8255 1727 70       		.sleb128 -16
 8256 1728 27       		.uleb128 0x27
 8257 1729 6C656E00 		.ascii	"len\000"
 8258 172d 01       		.byte	0x1
 8259 172e DE02     		.2byte	0x2de
 8260 1730 30000000 		.4byte	0x30
 8261 1734 02       		.byte	0x2
 8262 1735 91       		.byte	0x91
 8263 1736 6C       		.sleb128 -20
 8264 1737 00       		.byte	0
 8265 1738 26       		.uleb128 0x26
 8266 1739 01       		.byte	0x1
 8267 173a 4F0A0000 		.4byte	.LASF265
 8268 173e 01       		.byte	0x1
 8269 173f E402     		.2byte	0x2e4
 8270 1741 01       		.byte	0x1
 8271 1742 29000000 		.4byte	0x29
 8272 1746 00000000 		.4byte	.LFB19
 8273 174a 2C000000 		.4byte	.LFE19
 8274 174e C2010000 		.4byte	.LLST11
 8275 1752 91170000 		.4byte	0x1791
 8276 1756 27       		.uleb128 0x27
 8277 1757 7300     		.ascii	"s\000"
 8278 1759 01       		.byte	0x1
 8279 175a E402     		.2byte	0x2e4
 8280 175c 29000000 		.4byte	0x29
 8281 1760 02       		.byte	0x2
 8282 1761 91       		.byte	0x91
 8283 1762 74       		.sleb128 -12
 8284 1763 27       		.uleb128 0x27
 8285 1764 6D656D00 		.ascii	"mem\000"
 8286 1768 01       		.byte	0x1
 8287 1769 E402     		.2byte	0x2e4
 8288 176b CB020000 		.4byte	0x2cb
 8289 176f 02       		.byte	0x2
 8290 1770 91       		.byte	0x91
ARM GAS  /tmp/cc2wa78n.s 			page 147


 8291 1771 70       		.sleb128 -16
 8292 1772 27       		.uleb128 0x27
 8293 1773 6C656E00 		.ascii	"len\000"
 8294 1777 01       		.byte	0x1
 8295 1778 E402     		.2byte	0x2e4
 8296 177a 30000000 		.4byte	0x30
 8297 177e 02       		.byte	0x2
 8298 177f 91       		.byte	0x91
 8299 1780 6C       		.sleb128 -20
 8300 1781 24       		.uleb128 0x24
 8301 1782 55040000 		.4byte	.LASF104
 8302 1786 01       		.byte	0x1
 8303 1787 E402     		.2byte	0x2e4
 8304 1789 29000000 		.4byte	0x29
 8305 178d 02       		.byte	0x2
 8306 178e 91       		.byte	0x91
 8307 178f 68       		.sleb128 -24
 8308 1790 00       		.byte	0
 8309 1791 26       		.uleb128 0x26
 8310 1792 01       		.byte	0x1
 8311 1793 D7020000 		.4byte	.LASF266
 8312 1797 01       		.byte	0x1
 8313 1798 EA02     		.2byte	0x2ea
 8314 179a 01       		.byte	0x1
 8315 179b 29000000 		.4byte	0x29
 8316 179f 00000000 		.4byte	.LFB20
 8317 17a3 08010000 		.4byte	.LFE20
 8318 17a7 EE010000 		.4byte	.LLST12
 8319 17ab 17180000 		.4byte	0x1817
 8320 17af 27       		.uleb128 0x27
 8321 17b0 7300     		.ascii	"s\000"
 8322 17b2 01       		.byte	0x1
 8323 17b3 EA02     		.2byte	0x2ea
 8324 17b5 29000000 		.4byte	0x29
 8325 17b9 02       		.byte	0x2
 8326 17ba 91       		.byte	0x91
 8327 17bb 6C       		.sleb128 -20
 8328 17bc 24       		.uleb128 0x24
 8329 17bd CF0C0000 		.4byte	.LASF267
 8330 17c1 01       		.byte	0x1
 8331 17c2 EA02     		.2byte	0x2ea
 8332 17c4 0C100000 		.4byte	0x100c
 8333 17c8 02       		.byte	0x2
 8334 17c9 91       		.byte	0x91
 8335 17ca 68       		.sleb128 -24
 8336 17cb 24       		.uleb128 0x24
 8337 17cc B9080000 		.4byte	.LASF268
 8338 17d0 01       		.byte	0x1
 8339 17d1 EA02     		.2byte	0x2ea
 8340 17d3 30000000 		.4byte	0x30
 8341 17d7 02       		.byte	0x2
 8342 17d8 91       		.byte	0x91
 8343 17d9 64       		.sleb128 -28
 8344 17da 24       		.uleb128 0x24
 8345 17db 55040000 		.4byte	.LASF104
 8346 17df 01       		.byte	0x1
 8347 17e0 EA02     		.2byte	0x2ea
ARM GAS  /tmp/cc2wa78n.s 			page 148


 8348 17e2 29000000 		.4byte	0x29
 8349 17e6 02       		.byte	0x2
 8350 17e7 91       		.byte	0x91
 8351 17e8 60       		.sleb128 -32
 8352 17e9 25       		.uleb128 0x25
 8353 17ea 63070000 		.4byte	.LASF231
 8354 17ee 01       		.byte	0x1
 8355 17ef EC02     		.2byte	0x2ec
 8356 17f1 EB110000 		.4byte	0x11eb
 8357 17f5 02       		.byte	0x2
 8358 17f6 91       		.byte	0x91
 8359 17f7 74       		.sleb128 -12
 8360 17f8 28       		.uleb128 0x28
 8361 17f9 65727200 		.ascii	"err\000"
 8362 17fd 01       		.byte	0x1
 8363 17fe ED02     		.2byte	0x2ed
 8364 1800 5D060000 		.4byte	0x65d
 8365 1804 02       		.byte	0x2
 8366 1805 91       		.byte	0x91
 8367 1806 72       		.sleb128 -14
 8368 1807 25       		.uleb128 0x25
 8369 1808 26020000 		.4byte	.LASF269
 8370 180c 01       		.byte	0x1
 8371 180d EE02     		.2byte	0x2ee
 8372 180f CB040000 		.4byte	0x4cb
 8373 1813 02       		.byte	0x2
 8374 1814 91       		.byte	0x91
 8375 1815 73       		.sleb128 -13
 8376 1816 00       		.byte	0
 8377 1817 26       		.uleb128 0x26
 8378 1818 01       		.byte	0x1
 8379 1819 640A0000 		.4byte	.LASF270
 8380 181d 01       		.byte	0x1
 8381 181e 1403     		.2byte	0x314
 8382 1820 01       		.byte	0x1
 8383 1821 29000000 		.4byte	0x29
 8384 1825 00000000 		.4byte	.LFB21
 8385 1829 52010000 		.4byte	.LFE21
 8386 182d 1A020000 		.4byte	.LLST13
 8387 1831 E7180000 		.4byte	0x18e7
 8388 1835 27       		.uleb128 0x27
 8389 1836 7300     		.ascii	"s\000"
 8390 1838 01       		.byte	0x1
 8391 1839 1403     		.2byte	0x314
 8392 183b 29000000 		.4byte	0x29
 8393 183f 02       		.byte	0x2
 8394 1840 91       		.byte	0x91
 8395 1841 4C       		.sleb128 -52
 8396 1842 24       		.uleb128 0x24
 8397 1843 CF0C0000 		.4byte	.LASF267
 8398 1847 01       		.byte	0x1
 8399 1848 1403     		.2byte	0x314
 8400 184a 0C100000 		.4byte	0x100c
 8401 184e 02       		.byte	0x2
 8402 184f 91       		.byte	0x91
 8403 1850 48       		.sleb128 -56
 8404 1851 24       		.uleb128 0x24
ARM GAS  /tmp/cc2wa78n.s 			page 149


 8405 1852 B9080000 		.4byte	.LASF268
 8406 1856 01       		.byte	0x1
 8407 1857 1403     		.2byte	0x314
 8408 1859 30000000 		.4byte	0x30
 8409 185d 02       		.byte	0x2
 8410 185e 91       		.byte	0x91
 8411 185f 44       		.sleb128 -60
 8412 1860 24       		.uleb128 0x24
 8413 1861 55040000 		.4byte	.LASF104
 8414 1865 01       		.byte	0x1
 8415 1866 1403     		.2byte	0x314
 8416 1868 29000000 		.4byte	0x29
 8417 186c 02       		.byte	0x2
 8418 186d 91       		.byte	0x91
 8419 186e 40       		.sleb128 -64
 8420 186f 27       		.uleb128 0x27
 8421 1870 746F00   		.ascii	"to\000"
 8422 1873 01       		.byte	0x1
 8423 1874 1503     		.2byte	0x315
 8424 1876 55140000 		.4byte	0x1455
 8425 187a 02       		.byte	0x2
 8426 187b 91       		.byte	0x91
 8427 187c 00       		.sleb128 0
 8428 187d 24       		.uleb128 0x24
 8429 187e ED0C0000 		.4byte	.LASF271
 8430 1882 01       		.byte	0x1
 8431 1883 1503     		.2byte	0x315
 8432 1885 F7040000 		.4byte	0x4f7
 8433 1889 02       		.byte	0x2
 8434 188a 91       		.byte	0x91
 8435 188b 04       		.sleb128 4
 8436 188c 25       		.uleb128 0x25
 8437 188d 63070000 		.4byte	.LASF231
 8438 1891 01       		.byte	0x1
 8439 1892 1703     		.2byte	0x317
 8440 1894 EB110000 		.4byte	0x11eb
 8441 1898 02       		.byte	0x2
 8442 1899 91       		.byte	0x91
 8443 189a 70       		.sleb128 -16
 8444 189b 28       		.uleb128 0x28
 8445 189c 65727200 		.ascii	"err\000"
 8446 18a0 01       		.byte	0x1
 8447 18a1 1803     		.2byte	0x318
 8448 18a3 5D060000 		.4byte	0x65d
 8449 18a7 02       		.byte	0x2
 8450 18a8 91       		.byte	0x91
 8451 18a9 77       		.sleb128 -9
 8452 18aa 25       		.uleb128 0x25
 8453 18ab C6090000 		.4byte	.LASF272
 8454 18af 01       		.byte	0x1
 8455 18b0 1903     		.2byte	0x319
 8456 18b2 E1040000 		.4byte	0x4e1
 8457 18b6 02       		.byte	0x2
 8458 18b7 91       		.byte	0x91
 8459 18b8 6E       		.sleb128 -18
 8460 18b9 25       		.uleb128 0x25
 8461 18ba 15080000 		.4byte	.LASF273
ARM GAS  /tmp/cc2wa78n.s 			page 150


 8462 18be 01       		.byte	0x1
 8463 18bf 1A03     		.2byte	0x31a
 8464 18c1 60140000 		.4byte	0x1460
 8465 18c5 02       		.byte	0x2
 8466 18c6 91       		.byte	0x91
 8467 18c7 68       		.sleb128 -24
 8468 18c8 25       		.uleb128 0x25
 8469 18c9 D5080000 		.4byte	.LASF148
 8470 18cd 01       		.byte	0x1
 8471 18ce 1B03     		.2byte	0x31b
 8472 18d0 E1040000 		.4byte	0x4e1
 8473 18d4 02       		.byte	0x2
 8474 18d5 91       		.byte	0x91
 8475 18d6 66       		.sleb128 -26
 8476 18d7 28       		.uleb128 0x28
 8477 18d8 62756600 		.ascii	"buf\000"
 8478 18dc 01       		.byte	0x1
 8479 18dd 1D03     		.2byte	0x31d
 8480 18df DD060000 		.4byte	0x6dd
 8481 18e3 02       		.byte	0x2
 8482 18e4 91       		.byte	0x91
 8483 18e5 54       		.sleb128 -44
 8484 18e6 00       		.byte	0
 8485 18e7 26       		.uleb128 0x26
 8486 18e8 01       		.byte	0x1
 8487 18e9 DD070000 		.4byte	.LASF274
 8488 18ed 01       		.byte	0x1
 8489 18ee A703     		.2byte	0x3a7
 8490 18f0 01       		.byte	0x1
 8491 18f1 29000000 		.4byte	0x29
 8492 18f5 00000000 		.4byte	.LFB22
 8493 18f9 D0000000 		.4byte	.LFE22
 8494 18fd 47020000 		.4byte	.LLST14
 8495 1901 4F190000 		.4byte	0x194f
 8496 1905 24       		.uleb128 0x24
 8497 1906 62020000 		.4byte	.LASF275
 8498 190a 01       		.byte	0x1
 8499 190b A703     		.2byte	0x3a7
 8500 190d 29000000 		.4byte	0x29
 8501 1911 02       		.byte	0x2
 8502 1912 91       		.byte	0x91
 8503 1913 6C       		.sleb128 -20
 8504 1914 24       		.uleb128 0x24
 8505 1915 43010000 		.4byte	.LASF103
 8506 1919 01       		.byte	0x1
 8507 191a A703     		.2byte	0x3a7
 8508 191c 29000000 		.4byte	0x29
 8509 1920 02       		.byte	0x2
 8510 1921 91       		.byte	0x91
 8511 1922 68       		.sleb128 -24
 8512 1923 24       		.uleb128 0x24
 8513 1924 7D060000 		.4byte	.LASF188
 8514 1928 01       		.byte	0x1
 8515 1929 A703     		.2byte	0x3a7
 8516 192b 29000000 		.4byte	0x29
 8517 192f 02       		.byte	0x2
 8518 1930 91       		.byte	0x91
ARM GAS  /tmp/cc2wa78n.s 			page 151


 8519 1931 64       		.sleb128 -28
 8520 1932 25       		.uleb128 0x25
 8521 1933 62010000 		.4byte	.LASF190
 8522 1937 01       		.byte	0x1
 8523 1938 A903     		.2byte	0x3a9
 8524 193a F1070000 		.4byte	0x7f1
 8525 193e 02       		.byte	0x2
 8526 193f 91       		.byte	0x91
 8527 1940 74       		.sleb128 -12
 8528 1941 28       		.uleb128 0x28
 8529 1942 6900     		.ascii	"i\000"
 8530 1944 01       		.byte	0x1
 8531 1945 AA03     		.2byte	0x3aa
 8532 1947 29000000 		.4byte	0x29
 8533 194b 02       		.byte	0x2
 8534 194c 91       		.byte	0x91
 8535 194d 70       		.sleb128 -16
 8536 194e 00       		.byte	0
 8537 194f 26       		.uleb128 0x26
 8538 1950 01       		.byte	0x1
 8539 1951 590A0000 		.4byte	.LASF276
 8540 1955 01       		.byte	0x1
 8541 1956 DF03     		.2byte	0x3df
 8542 1958 01       		.byte	0x1
 8543 1959 29000000 		.4byte	0x29
 8544 195d 00000000 		.4byte	.LFB23
 8545 1961 20000000 		.4byte	.LFE23
 8546 1965 73020000 		.4byte	.LLST15
 8547 1969 99190000 		.4byte	0x1999
 8548 196d 27       		.uleb128 0x27
 8549 196e 7300     		.ascii	"s\000"
 8550 1970 01       		.byte	0x1
 8551 1971 DF03     		.2byte	0x3df
 8552 1973 29000000 		.4byte	0x29
 8553 1977 02       		.byte	0x2
 8554 1978 91       		.byte	0x91
 8555 1979 74       		.sleb128 -12
 8556 197a 24       		.uleb128 0x24
 8557 197b CF0C0000 		.4byte	.LASF267
 8558 197f 01       		.byte	0x1
 8559 1980 DF03     		.2byte	0x3df
 8560 1982 0C100000 		.4byte	0x100c
 8561 1986 02       		.byte	0x2
 8562 1987 91       		.byte	0x91
 8563 1988 70       		.sleb128 -16
 8564 1989 24       		.uleb128 0x24
 8565 198a B9080000 		.4byte	.LASF268
 8566 198e 01       		.byte	0x1
 8567 198f DF03     		.2byte	0x3df
 8568 1991 30000000 		.4byte	0x30
 8569 1995 02       		.byte	0x2
 8570 1996 91       		.byte	0x91
 8571 1997 6C       		.sleb128 -20
 8572 1998 00       		.byte	0
 8573 1999 2A       		.uleb128 0x2a
 8574 199a 83080000 		.4byte	.LASF277
 8575 199e 01       		.byte	0x1
ARM GAS  /tmp/cc2wa78n.s 			page 152


 8576 199f F503     		.2byte	0x3f5
 8577 19a1 01       		.byte	0x1
 8578 19a2 29000000 		.4byte	0x29
 8579 19a6 00000000 		.4byte	.LFB24
 8580 19aa 1C020000 		.4byte	.LFE24
 8581 19ae 9F020000 		.4byte	.LLST16
 8582 19b2 BE1A0000 		.4byte	0x1abe
 8583 19b6 24       		.uleb128 0x24
 8584 19b7 B1080000 		.4byte	.LASF278
 8585 19bb 01       		.byte	0x1
 8586 19bc F503     		.2byte	0x3f5
 8587 19be 29000000 		.4byte	0x29
 8588 19c2 02       		.byte	0x2
 8589 19c3 91       		.byte	0x91
 8590 19c4 4C       		.sleb128 -52
 8591 19c5 24       		.uleb128 0x24
 8592 19c6 26010000 		.4byte	.LASF279
 8593 19ca 01       		.byte	0x1
 8594 19cb F503     		.2byte	0x3f5
 8595 19cd 84110000 		.4byte	0x1184
 8596 19d1 02       		.byte	0x2
 8597 19d2 91       		.byte	0x91
 8598 19d3 48       		.sleb128 -56
 8599 19d4 24       		.uleb128 0x24
 8600 19d5 C2030000 		.4byte	.LASF280
 8601 19d9 01       		.byte	0x1
 8602 19da F503     		.2byte	0x3f5
 8603 19dc 84110000 		.4byte	0x1184
 8604 19e0 02       		.byte	0x2
 8605 19e1 91       		.byte	0x91
 8606 19e2 44       		.sleb128 -60
 8607 19e3 24       		.uleb128 0x24
 8608 19e4 CA040000 		.4byte	.LASF281
 8609 19e8 01       		.byte	0x1
 8610 19e9 F503     		.2byte	0x3f5
 8611 19eb 84110000 		.4byte	0x1184
 8612 19ef 02       		.byte	0x2
 8613 19f0 91       		.byte	0x91
 8614 19f1 40       		.sleb128 -64
 8615 19f2 24       		.uleb128 0x24
 8616 19f3 4C0C0000 		.4byte	.LASF282
 8617 19f7 01       		.byte	0x1
 8618 19f8 F603     		.2byte	0x3f6
 8619 19fa 84110000 		.4byte	0x1184
 8620 19fe 02       		.byte	0x2
 8621 19ff 91       		.byte	0x91
 8622 1a00 00       		.sleb128 0
 8623 1a01 24       		.uleb128 0x24
 8624 1a02 77040000 		.4byte	.LASF283
 8625 1a06 01       		.byte	0x1
 8626 1a07 F603     		.2byte	0x3f6
 8627 1a09 84110000 		.4byte	0x1184
 8628 1a0d 02       		.byte	0x2
 8629 1a0e 91       		.byte	0x91
 8630 1a0f 04       		.sleb128 4
 8631 1a10 24       		.uleb128 0x24
 8632 1a11 CC0A0000 		.4byte	.LASF284
ARM GAS  /tmp/cc2wa78n.s 			page 153


 8633 1a15 01       		.byte	0x1
 8634 1a16 F603     		.2byte	0x3f6
 8635 1a18 84110000 		.4byte	0x1184
 8636 1a1c 02       		.byte	0x2
 8637 1a1d 91       		.byte	0x91
 8638 1a1e 08       		.sleb128 8
 8639 1a1f 28       		.uleb128 0x28
 8640 1a20 6900     		.ascii	"i\000"
 8641 1a22 01       		.byte	0x1
 8642 1a23 F803     		.2byte	0x3f8
 8643 1a25 29000000 		.4byte	0x29
 8644 1a29 02       		.byte	0x2
 8645 1a2a 91       		.byte	0x91
 8646 1a2b 74       		.sleb128 -12
 8647 1a2c 25       		.uleb128 0x25
 8648 1a2d AE0C0000 		.4byte	.LASF285
 8649 1a31 01       		.byte	0x1
 8650 1a32 F803     		.2byte	0x3f8
 8651 1a34 29000000 		.4byte	0x29
 8652 1a38 02       		.byte	0x2
 8653 1a39 91       		.byte	0x91
 8654 1a3a 70       		.sleb128 -16
 8655 1a3b 25       		.uleb128 0x25
 8656 1a3c 2F0A0000 		.4byte	.LASF286
 8657 1a40 01       		.byte	0x1
 8658 1a41 F903     		.2byte	0x3f9
 8659 1a43 25060000 		.4byte	0x625
 8660 1a47 02       		.byte	0x2
 8661 1a48 91       		.byte	0x91
 8662 1a49 5C       		.sleb128 -36
 8663 1a4a 25       		.uleb128 0x25
 8664 1a4b 90080000 		.4byte	.LASF287
 8665 1a4f 01       		.byte	0x1
 8666 1a50 F903     		.2byte	0x3f9
 8667 1a52 25060000 		.4byte	0x625
 8668 1a56 02       		.byte	0x2
 8669 1a57 91       		.byte	0x91
 8670 1a58 58       		.sleb128 -40
 8671 1a59 25       		.uleb128 0x25
 8672 1a5a 00000000 		.4byte	.LASF288
 8673 1a5e 01       		.byte	0x1
 8674 1a5f F903     		.2byte	0x3f9
 8675 1a61 25060000 		.4byte	0x625
 8676 1a65 02       		.byte	0x2
 8677 1a66 91       		.byte	0x91
 8678 1a67 54       		.sleb128 -44
 8679 1a68 25       		.uleb128 0x25
 8680 1a69 63070000 		.4byte	.LASF231
 8681 1a6d 01       		.byte	0x1
 8682 1a6e FA03     		.2byte	0x3fa
 8683 1a70 EB110000 		.4byte	0x11eb
 8684 1a74 02       		.byte	0x2
 8685 1a75 91       		.byte	0x91
 8686 1a76 60       		.sleb128 -32
 8687 1a77 29       		.uleb128 0x29
 8688 1a78 32000000 		.4byte	.LBB5
 8689 1a7c E0010000 		.4byte	.LBE5
ARM GAS  /tmp/cc2wa78n.s 			page 154


 8690 1a80 25       		.uleb128 0x25
 8691 1a81 31010000 		.4byte	.LASF218
 8692 1a85 01       		.byte	0x1
 8693 1a86 0404     		.2byte	0x404
 8694 1a88 CB020000 		.4byte	0x2cb
 8695 1a8c 02       		.byte	0x2
 8696 1a8d 91       		.byte	0x91
 8697 1a8e 6C       		.sleb128 -20
 8698 1a8f 25       		.uleb128 0x25
 8699 1a90 D80B0000 		.4byte	.LASF220
 8700 1a94 01       		.byte	0x1
 8701 1a95 0504     		.2byte	0x405
 8702 1a97 EC040000 		.4byte	0x4ec
 8703 1a9b 02       		.byte	0x2
 8704 1a9c 91       		.byte	0x91
 8705 1a9d 6A       		.sleb128 -22
 8706 1a9e 25       		.uleb128 0x25
 8707 1a9f 6F070000 		.4byte	.LASF221
 8708 1aa3 01       		.byte	0x1
 8709 1aa4 0604     		.2byte	0x406
 8710 1aa6 E1040000 		.4byte	0x4e1
 8711 1aaa 02       		.byte	0x2
 8712 1aab 91       		.byte	0x91
 8713 1aac 68       		.sleb128 -24
 8714 1aad 25       		.uleb128 0x25
 8715 1aae 84030000 		.4byte	.LASF222
 8716 1ab2 01       		.byte	0x1
 8717 1ab3 0704     		.2byte	0x407
 8718 1ab5 E1040000 		.4byte	0x4e1
 8719 1ab9 02       		.byte	0x2
 8720 1aba 91       		.byte	0x91
 8721 1abb 66       		.sleb128 -26
 8722 1abc 00       		.byte	0
 8723 1abd 00       		.byte	0
 8724 1abe 26       		.uleb128 0x26
 8725 1abf 01       		.byte	0x1
 8726 1ac0 E6050000 		.4byte	.LASF289
 8727 1ac4 01       		.byte	0x1
 8728 1ac5 3304     		.2byte	0x433
 8729 1ac7 01       		.byte	0x1
 8730 1ac8 29000000 		.4byte	0x29
 8731 1acc 00000000 		.4byte	.LFB25
 8732 1ad0 BA030000 		.4byte	.LFE25
 8733 1ad4 CC020000 		.4byte	.LLST17
 8734 1ad8 F41B0000 		.4byte	0x1bf4
 8735 1adc 24       		.uleb128 0x24
 8736 1add B1080000 		.4byte	.LASF278
 8737 1ae1 01       		.byte	0x1
 8738 1ae2 3304     		.2byte	0x433
 8739 1ae4 29000000 		.4byte	0x29
 8740 1ae8 03       		.byte	0x3
 8741 1ae9 91       		.byte	0x91
 8742 1aea AC7F     		.sleb128 -84
 8743 1aec 24       		.uleb128 0x24
 8744 1aed F0030000 		.4byte	.LASF226
 8745 1af1 01       		.byte	0x1
 8746 1af2 3304     		.2byte	0x433
ARM GAS  /tmp/cc2wa78n.s 			page 155


 8747 1af4 84110000 		.4byte	0x1184
 8748 1af8 03       		.byte	0x3
 8749 1af9 91       		.byte	0x91
 8750 1afa A87F     		.sleb128 -88
 8751 1afc 24       		.uleb128 0x24
 8752 1afd 1A0A0000 		.4byte	.LASF227
 8753 1b01 01       		.byte	0x1
 8754 1b02 3304     		.2byte	0x433
 8755 1b04 84110000 		.4byte	0x1184
 8756 1b08 03       		.byte	0x3
 8757 1b09 91       		.byte	0x91
 8758 1b0a A47F     		.sleb128 -92
 8759 1b0c 24       		.uleb128 0x24
 8760 1b0d 4E010000 		.4byte	.LASF228
 8761 1b11 01       		.byte	0x1
 8762 1b12 3304     		.2byte	0x433
 8763 1b14 84110000 		.4byte	0x1184
 8764 1b18 03       		.byte	0x3
 8765 1b19 91       		.byte	0x91
 8766 1b1a A07F     		.sleb128 -96
 8767 1b1c 24       		.uleb128 0x24
 8768 1b1d 0C070000 		.4byte	.LASF290
 8769 1b21 01       		.byte	0x1
 8770 1b22 3404     		.2byte	0x434
 8771 1b24 F41B0000 		.4byte	0x1bf4
 8772 1b28 02       		.byte	0x2
 8773 1b29 91       		.byte	0x91
 8774 1b2a 00       		.sleb128 0
 8775 1b2b 25       		.uleb128 0x25
 8776 1b2c 3E040000 		.4byte	.LASF291
 8777 1b30 01       		.byte	0x1
 8778 1b31 3604     		.2byte	0x436
 8779 1b33 F7040000 		.4byte	0x4f7
 8780 1b37 02       		.byte	0x2
 8781 1b38 91       		.byte	0x91
 8782 1b39 74       		.sleb128 -12
 8783 1b3a 25       		.uleb128 0x25
 8784 1b3b AE0C0000 		.4byte	.LASF285
 8785 1b3f 01       		.byte	0x1
 8786 1b40 3704     		.2byte	0x437
 8787 1b42 29000000 		.4byte	0x29
 8788 1b46 02       		.byte	0x2
 8789 1b47 91       		.byte	0x91
 8790 1b48 70       		.sleb128 -16
 8791 1b49 25       		.uleb128 0x25
 8792 1b4a 2F0A0000 		.4byte	.LASF286
 8793 1b4e 01       		.byte	0x1
 8794 1b4f 3804     		.2byte	0x438
 8795 1b51 25060000 		.4byte	0x625
 8796 1b55 02       		.byte	0x2
 8797 1b56 91       		.byte	0x91
 8798 1b57 58       		.sleb128 -40
 8799 1b58 25       		.uleb128 0x25
 8800 1b59 90080000 		.4byte	.LASF287
 8801 1b5d 01       		.byte	0x1
 8802 1b5e 3804     		.2byte	0x438
 8803 1b60 25060000 		.4byte	0x625
ARM GAS  /tmp/cc2wa78n.s 			page 156


 8804 1b64 02       		.byte	0x2
 8805 1b65 91       		.byte	0x91
 8806 1b66 54       		.sleb128 -44
 8807 1b67 25       		.uleb128 0x25
 8808 1b68 00000000 		.4byte	.LASF288
 8809 1b6c 01       		.byte	0x1
 8810 1b6d 3804     		.2byte	0x438
 8811 1b6f 25060000 		.4byte	0x625
 8812 1b73 02       		.byte	0x2
 8813 1b74 91       		.byte	0x91
 8814 1b75 50       		.sleb128 -48
 8815 1b76 25       		.uleb128 0x25
 8816 1b77 7E090000 		.4byte	.LASF292
 8817 1b7b 01       		.byte	0x1
 8818 1b7c 3904     		.2byte	0x439
 8819 1b7e F7040000 		.4byte	0x4f7
 8820 1b82 02       		.byte	0x2
 8821 1b83 91       		.byte	0x91
 8822 1b84 6C       		.sleb128 -20
 8823 1b85 25       		.uleb128 0x25
 8824 1b86 41090000 		.4byte	.LASF293
 8825 1b8a 01       		.byte	0x1
 8826 1b8b 3A04     		.2byte	0x43a
 8827 1b8d 0F110000 		.4byte	0x110f
 8828 1b91 03       		.byte	0x3
 8829 1b92 91       		.byte	0x91
 8830 1b93 B47F     		.sleb128 -76
 8831 1b95 28       		.uleb128 0x28
 8832 1b96 65727200 		.ascii	"err\000"
 8833 1b9a 01       		.byte	0x1
 8834 1b9b 3B04     		.2byte	0x43b
 8835 1b9d 5D060000 		.4byte	0x65d
 8836 1ba1 02       		.byte	0x2
 8837 1ba2 91       		.byte	0x91
 8838 1ba3 67       		.sleb128 -25
 8839 1ba4 28       		.uleb128 0x28
 8840 1ba5 6900     		.ascii	"i\000"
 8841 1ba7 01       		.byte	0x1
 8842 1ba8 3C04     		.2byte	0x43c
 8843 1baa 29000000 		.4byte	0x29
 8844 1bae 02       		.byte	0x2
 8845 1baf 91       		.byte	0x91
 8846 1bb0 68       		.sleb128 -24
 8847 1bb1 2B       		.uleb128 0x2b
 8848 1bb2 09020000 		.4byte	.LASF297
 8849 1bb6 01       		.byte	0x1
 8850 1bb7 BD04     		.2byte	0x4bd
 8851 1bb9 88030000 		.4byte	.L167
 8852 1bbd 2C       		.uleb128 0x2c
 8853 1bbe 6E010000 		.4byte	.LBB6
 8854 1bc2 9A010000 		.4byte	.LBE6
 8855 1bc6 DA1B0000 		.4byte	0x1bda
 8856 1bca 25       		.uleb128 0x25
 8857 1bcb 63070000 		.4byte	.LASF231
 8858 1bcf 01       		.byte	0x1
 8859 1bd0 7704     		.2byte	0x477
 8860 1bd2 EB110000 		.4byte	0x11eb
ARM GAS  /tmp/cc2wa78n.s 			page 157


 8861 1bd6 02       		.byte	0x2
 8862 1bd7 91       		.byte	0x91
 8863 1bd8 60       		.sleb128 -32
 8864 1bd9 00       		.byte	0
 8865 1bda 29       		.uleb128 0x29
 8866 1bdb B8020000 		.4byte	.LBB7
 8867 1bdf E4020000 		.4byte	.LBE7
 8868 1be3 25       		.uleb128 0x25
 8869 1be4 63070000 		.4byte	.LASF231
 8870 1be8 01       		.byte	0x1
 8871 1be9 9704     		.2byte	0x497
 8872 1beb EB110000 		.4byte	0x11eb
 8873 1bef 02       		.byte	0x2
 8874 1bf0 91       		.byte	0x91
 8875 1bf1 5C       		.sleb128 -36
 8876 1bf2 00       		.byte	0
 8877 1bf3 00       		.byte	0
 8878 1bf4 09       		.uleb128 0x9
 8879 1bf5 04       		.byte	0x4
 8880 1bf6 31060000 		.4byte	0x631
 8881 1bfa 23       		.uleb128 0x23
 8882 1bfb 25030000 		.4byte	.LASF295
 8883 1bff 01       		.byte	0x1
 8884 1c00 D204     		.2byte	0x4d2
 8885 1c02 01       		.byte	0x1
 8886 1c03 00000000 		.4byte	.LFB26
 8887 1c07 16020000 		.4byte	.LFE26
 8888 1c0b F9020000 		.4byte	.LLST18
 8889 1c0f A01C0000 		.4byte	0x1ca0
 8890 1c13 24       		.uleb128 0x24
 8891 1c14 62010000 		.4byte	.LASF190
 8892 1c18 01       		.byte	0x1
 8893 1c19 D204     		.2byte	0x4d2
 8894 1c1b F1070000 		.4byte	0x7f1
 8895 1c1f 02       		.byte	0x2
 8896 1c20 91       		.byte	0x91
 8897 1c21 5C       		.sleb128 -36
 8898 1c22 27       		.uleb128 0x27
 8899 1c23 65767400 		.ascii	"evt\000"
 8900 1c27 01       		.byte	0x1
 8901 1c28 D204     		.2byte	0x4d2
 8902 1c2a 9F070000 		.4byte	0x79f
 8903 1c2e 02       		.byte	0x2
 8904 1c2f 91       		.byte	0x91
 8905 1c30 5B       		.sleb128 -37
 8906 1c31 27       		.uleb128 0x27
 8907 1c32 6C656E00 		.ascii	"len\000"
 8908 1c36 01       		.byte	0x1
 8909 1c37 D204     		.2byte	0x4d2
 8910 1c39 E1040000 		.4byte	0x4e1
 8911 1c3d 02       		.byte	0x2
 8912 1c3e 91       		.byte	0x91
 8913 1c3f 58       		.sleb128 -40
 8914 1c40 28       		.uleb128 0x28
 8915 1c41 7300     		.ascii	"s\000"
 8916 1c43 01       		.byte	0x1
 8917 1c44 D404     		.2byte	0x4d4
ARM GAS  /tmp/cc2wa78n.s 			page 158


 8918 1c46 29000000 		.4byte	0x29
 8919 1c4a 02       		.byte	0x2
 8920 1c4b 91       		.byte	0x91
 8921 1c4c 74       		.sleb128 -12
 8922 1c4d 25       		.uleb128 0x25
 8923 1c4e 63070000 		.4byte	.LASF231
 8924 1c52 01       		.byte	0x1
 8925 1c53 D504     		.2byte	0x4d5
 8926 1c55 EB110000 		.4byte	0x11eb
 8927 1c59 02       		.byte	0x2
 8928 1c5a 91       		.byte	0x91
 8929 1c5b 68       		.sleb128 -24
 8930 1c5c 28       		.uleb128 0x28
 8931 1c5d 73636200 		.ascii	"scb\000"
 8932 1c61 01       		.byte	0x1
 8933 1c62 D604     		.2byte	0x4d6
 8934 1c64 7E110000 		.4byte	0x117e
 8935 1c68 02       		.byte	0x2
 8936 1c69 91       		.byte	0x91
 8937 1c6a 70       		.sleb128 -16
 8938 1c6b 25       		.uleb128 0x25
 8939 1c6c BB070000 		.4byte	.LASF296
 8940 1c70 01       		.byte	0x1
 8941 1c71 D704     		.2byte	0x4d7
 8942 1c73 29000000 		.4byte	0x29
 8943 1c77 02       		.byte	0x2
 8944 1c78 91       		.byte	0x91
 8945 1c79 64       		.sleb128 -28
 8946 1c7a 2B       		.uleb128 0x2b
 8947 1c7b 50080000 		.4byte	.LASF298
 8948 1c7f 01       		.byte	0x1
 8949 1c80 1C05     		.2byte	0x51c
 8950 1c82 D2000000 		.4byte	.L221
 8951 1c86 29       		.uleb128 0x29
 8952 1c87 E8000000 		.4byte	.LBB8
 8953 1c8b D6010000 		.4byte	.LBE8
 8954 1c8f 25       		.uleb128 0x25
 8955 1c90 8C070000 		.4byte	.LASF299
 8956 1c94 01       		.byte	0x1
 8957 1c95 2005     		.2byte	0x520
 8958 1c97 29000000 		.4byte	0x29
 8959 1c9b 02       		.byte	0x2
 8960 1c9c 91       		.byte	0x91
 8961 1c9d 6C       		.sleb128 -20
 8962 1c9e 00       		.byte	0
 8963 1c9f 00       		.byte	0
 8964 1ca0 26       		.uleb128 0x26
 8965 1ca1 01       		.byte	0x1
 8966 1ca2 0F040000 		.4byte	.LASF300
 8967 1ca6 01       		.byte	0x1
 8968 1ca7 4A05     		.2byte	0x54a
 8969 1ca9 01       		.byte	0x1
 8970 1caa 29000000 		.4byte	0x29
 8971 1cae 00000000 		.4byte	.LFB27
 8972 1cb2 00010000 		.4byte	.LFE27
 8973 1cb6 25030000 		.4byte	.LLST19
 8974 1cba 171D0000 		.4byte	0x1d17
ARM GAS  /tmp/cc2wa78n.s 			page 159


 8975 1cbe 27       		.uleb128 0x27
 8976 1cbf 7300     		.ascii	"s\000"
 8977 1cc1 01       		.byte	0x1
 8978 1cc2 4A05     		.2byte	0x54a
 8979 1cc4 29000000 		.4byte	0x29
 8980 1cc8 02       		.byte	0x2
 8981 1cc9 91       		.byte	0x91
 8982 1cca 64       		.sleb128 -28
 8983 1ccb 27       		.uleb128 0x27
 8984 1ccc 686F7700 		.ascii	"how\000"
 8985 1cd0 01       		.byte	0x1
 8986 1cd1 4A05     		.2byte	0x54a
 8987 1cd3 29000000 		.4byte	0x29
 8988 1cd7 02       		.byte	0x2
 8989 1cd8 91       		.byte	0x91
 8990 1cd9 60       		.sleb128 -32
 8991 1cda 25       		.uleb128 0x25
 8992 1cdb 63070000 		.4byte	.LASF231
 8993 1cdf 01       		.byte	0x1
 8994 1ce0 4C05     		.2byte	0x54c
 8995 1ce2 EB110000 		.4byte	0x11eb
 8996 1ce6 02       		.byte	0x2
 8997 1ce7 91       		.byte	0x91
 8998 1ce8 70       		.sleb128 -16
 8999 1ce9 28       		.uleb128 0x28
 9000 1cea 65727200 		.ascii	"err\000"
 9001 1cee 01       		.byte	0x1
 9002 1cef 4D05     		.2byte	0x54d
 9003 1cf1 5D060000 		.4byte	0x65d
 9004 1cf5 02       		.byte	0x2
 9005 1cf6 91       		.byte	0x91
 9006 1cf7 6F       		.sleb128 -17
 9007 1cf8 25       		.uleb128 0x25
 9008 1cf9 23080000 		.4byte	.LASF301
 9009 1cfd 01       		.byte	0x1
 9010 1cfe 4E05     		.2byte	0x54e
 9011 1d00 CB040000 		.4byte	0x4cb
 9012 1d04 02       		.byte	0x2
 9013 1d05 91       		.byte	0x91
 9014 1d06 77       		.sleb128 -9
 9015 1d07 25       		.uleb128 0x25
 9016 1d08 A60C0000 		.4byte	.LASF302
 9017 1d0c 01       		.byte	0x1
 9018 1d0d 4E05     		.2byte	0x54e
 9019 1d0f CB040000 		.4byte	0x4cb
 9020 1d13 02       		.byte	0x2
 9021 1d14 91       		.byte	0x91
 9022 1d15 76       		.sleb128 -10
 9023 1d16 00       		.byte	0
 9024 1d17 2A       		.uleb128 0x2a
 9025 1d18 BF060000 		.4byte	.LASF303
 9026 1d1c 01       		.byte	0x1
 9027 1d1d 7305     		.2byte	0x573
 9028 1d1f 01       		.byte	0x1
 9029 1d20 29000000 		.4byte	0x29
 9030 1d24 00000000 		.4byte	.LFB28
 9031 1d28 BA000000 		.4byte	.LFE28
ARM GAS  /tmp/cc2wa78n.s 			page 160


 9032 1d2c 51030000 		.4byte	.LLST20
 9033 1d30 9C1D0000 		.4byte	0x1d9c
 9034 1d34 27       		.uleb128 0x27
 9035 1d35 7300     		.ascii	"s\000"
 9036 1d37 01       		.byte	0x1
 9037 1d38 7305     		.2byte	0x573
 9038 1d3a 29000000 		.4byte	0x29
 9039 1d3e 02       		.byte	0x2
 9040 1d3f 91       		.byte	0x91
 9041 1d40 5C       		.sleb128 -36
 9042 1d41 24       		.uleb128 0x24
 9043 1d42 700A0000 		.4byte	.LASF248
 9044 1d46 01       		.byte	0x1
 9045 1d47 7305     		.2byte	0x573
 9046 1d49 BA130000 		.4byte	0x13ba
 9047 1d4d 02       		.byte	0x2
 9048 1d4e 91       		.byte	0x91
 9049 1d4f 58       		.sleb128 -40
 9050 1d50 24       		.uleb128 0x24
 9051 1d51 EA020000 		.4byte	.LASF249
 9052 1d55 01       		.byte	0x1
 9053 1d56 7305     		.2byte	0x573
 9054 1d58 F1110000 		.4byte	0x11f1
 9055 1d5c 02       		.byte	0x2
 9056 1d5d 91       		.byte	0x91
 9057 1d5e 54       		.sleb128 -44
 9058 1d5f 24       		.uleb128 0x24
 9059 1d60 48010000 		.4byte	.LASF213
 9060 1d64 01       		.byte	0x1
 9061 1d65 7305     		.2byte	0x573
 9062 1d67 CB040000 		.4byte	0x4cb
 9063 1d6b 02       		.byte	0x2
 9064 1d6c 91       		.byte	0x91
 9065 1d6d 53       		.sleb128 -45
 9066 1d6e 25       		.uleb128 0x25
 9067 1d6f 63070000 		.4byte	.LASF231
 9068 1d73 01       		.byte	0x1
 9069 1d74 7505     		.2byte	0x575
 9070 1d76 EB110000 		.4byte	0x11eb
 9071 1d7a 02       		.byte	0x2
 9072 1d7b 91       		.byte	0x91
 9073 1d7c 74       		.sleb128 -12
 9074 1d7d 28       		.uleb128 0x28
 9075 1d7e 73696E00 		.ascii	"sin\000"
 9076 1d82 01       		.byte	0x1
 9077 1d83 7605     		.2byte	0x576
 9078 1d85 4E050000 		.4byte	0x54e
 9079 1d89 02       		.byte	0x2
 9080 1d8a 91       		.byte	0x91
 9081 1d8b 64       		.sleb128 -28
 9082 1d8c 25       		.uleb128 0x25
 9083 1d8d 23000000 		.4byte	.LASF244
 9084 1d91 01       		.byte	0x1
 9085 1d92 7705     		.2byte	0x577
 9086 1d94 28050000 		.4byte	0x528
 9087 1d98 02       		.byte	0x2
 9088 1d99 91       		.byte	0x91
ARM GAS  /tmp/cc2wa78n.s 			page 161


 9089 1d9a 60       		.sleb128 -32
 9090 1d9b 00       		.byte	0
 9091 1d9c 26       		.uleb128 0x26
 9092 1d9d 01       		.byte	0x1
 9093 1d9e 7F050000 		.4byte	.LASF304
 9094 1da2 01       		.byte	0x1
 9095 1da3 9605     		.2byte	0x596
 9096 1da5 01       		.byte	0x1
 9097 1da6 29000000 		.4byte	0x29
 9098 1daa 00000000 		.4byte	.LFB29
 9099 1dae 20000000 		.4byte	.LFE29
 9100 1db2 7D030000 		.4byte	.LLST21
 9101 1db6 E61D0000 		.4byte	0x1de6
 9102 1dba 27       		.uleb128 0x27
 9103 1dbb 7300     		.ascii	"s\000"
 9104 1dbd 01       		.byte	0x1
 9105 1dbe 9605     		.2byte	0x596
 9106 1dc0 29000000 		.4byte	0x29
 9107 1dc4 02       		.byte	0x2
 9108 1dc5 91       		.byte	0x91
 9109 1dc6 74       		.sleb128 -12
 9110 1dc7 24       		.uleb128 0x24
 9111 1dc8 700A0000 		.4byte	.LASF248
 9112 1dcc 01       		.byte	0x1
 9113 1dcd 9605     		.2byte	0x596
 9114 1dcf BA130000 		.4byte	0x13ba
 9115 1dd3 02       		.byte	0x2
 9116 1dd4 91       		.byte	0x91
 9117 1dd5 70       		.sleb128 -16
 9118 1dd6 24       		.uleb128 0x24
 9119 1dd7 EA020000 		.4byte	.LASF249
 9120 1ddb 01       		.byte	0x1
 9121 1ddc 9605     		.2byte	0x596
 9122 1dde F1110000 		.4byte	0x11f1
 9123 1de2 02       		.byte	0x2
 9124 1de3 91       		.byte	0x91
 9125 1de4 6C       		.sleb128 -20
 9126 1de5 00       		.byte	0
 9127 1de6 26       		.uleb128 0x26
 9128 1de7 01       		.byte	0x1
 9129 1de8 3F080000 		.4byte	.LASF305
 9130 1dec 01       		.byte	0x1
 9131 1ded 9C05     		.2byte	0x59c
 9132 1def 01       		.byte	0x1
 9133 1df0 29000000 		.4byte	0x29
 9134 1df4 00000000 		.4byte	.LFB30
 9135 1df8 20000000 		.4byte	.LFE30
 9136 1dfc A9030000 		.4byte	.LLST22
 9137 1e00 301E0000 		.4byte	0x1e30
 9138 1e04 27       		.uleb128 0x27
 9139 1e05 7300     		.ascii	"s\000"
 9140 1e07 01       		.byte	0x1
 9141 1e08 9C05     		.2byte	0x59c
 9142 1e0a 29000000 		.4byte	0x29
 9143 1e0e 02       		.byte	0x2
 9144 1e0f 91       		.byte	0x91
 9145 1e10 74       		.sleb128 -12
ARM GAS  /tmp/cc2wa78n.s 			page 162


 9146 1e11 24       		.uleb128 0x24
 9147 1e12 700A0000 		.4byte	.LASF248
 9148 1e16 01       		.byte	0x1
 9149 1e17 9C05     		.2byte	0x59c
 9150 1e19 BA130000 		.4byte	0x13ba
 9151 1e1d 02       		.byte	0x2
 9152 1e1e 91       		.byte	0x91
 9153 1e1f 70       		.sleb128 -16
 9154 1e20 24       		.uleb128 0x24
 9155 1e21 EA020000 		.4byte	.LASF249
 9156 1e25 01       		.byte	0x1
 9157 1e26 9C05     		.2byte	0x59c
 9158 1e28 F1110000 		.4byte	0x11f1
 9159 1e2c 02       		.byte	0x2
 9160 1e2d 91       		.byte	0x91
 9161 1e2e 6C       		.sleb128 -20
 9162 1e2f 00       		.byte	0
 9163 1e30 26       		.uleb128 0x26
 9164 1e31 01       		.byte	0x1
 9165 1e32 DF040000 		.4byte	.LASF306
 9166 1e36 01       		.byte	0x1
 9167 1e37 A205     		.2byte	0x5a2
 9168 1e39 01       		.byte	0x1
 9169 1e3a 29000000 		.4byte	0x29
 9170 1e3e 00000000 		.4byte	.LFB31
 9171 1e42 CA010000 		.4byte	.LFE31
 9172 1e46 D5030000 		.4byte	.LLST23
 9173 1e4a C51E0000 		.4byte	0x1ec5
 9174 1e4e 27       		.uleb128 0x27
 9175 1e4f 7300     		.ascii	"s\000"
 9176 1e51 01       		.byte	0x1
 9177 1e52 A205     		.2byte	0x5a2
 9178 1e54 29000000 		.4byte	0x29
 9179 1e58 02       		.byte	0x2
 9180 1e59 91       		.byte	0x91
 9181 1e5a 54       		.sleb128 -44
 9182 1e5b 24       		.uleb128 0x24
 9183 1e5c 1C0C0000 		.4byte	.LASF232
 9184 1e60 01       		.byte	0x1
 9185 1e61 A205     		.2byte	0x5a2
 9186 1e63 29000000 		.4byte	0x29
 9187 1e67 02       		.byte	0x2
 9188 1e68 91       		.byte	0x91
 9189 1e69 50       		.sleb128 -48
 9190 1e6a 24       		.uleb128 0x24
 9191 1e6b F0070000 		.4byte	.LASF233
 9192 1e6f 01       		.byte	0x1
 9193 1e70 A205     		.2byte	0x5a2
 9194 1e72 29000000 		.4byte	0x29
 9195 1e76 02       		.byte	0x2
 9196 1e77 91       		.byte	0x91
 9197 1e78 4C       		.sleb128 -52
 9198 1e79 24       		.uleb128 0x24
 9199 1e7a 79070000 		.4byte	.LASF234
 9200 1e7e 01       		.byte	0x1
 9201 1e7f A205     		.2byte	0x5a2
 9202 1e81 CB020000 		.4byte	0x2cb
ARM GAS  /tmp/cc2wa78n.s 			page 163


 9203 1e85 02       		.byte	0x2
 9204 1e86 91       		.byte	0x91
 9205 1e87 48       		.sleb128 -56
 9206 1e88 24       		.uleb128 0x24
 9207 1e89 17090000 		.4byte	.LASF235
 9208 1e8d 01       		.byte	0x1
 9209 1e8e A205     		.2byte	0x5a2
 9210 1e90 F1110000 		.4byte	0x11f1
 9211 1e94 02       		.byte	0x2
 9212 1e95 91       		.byte	0x91
 9213 1e96 00       		.sleb128 0
 9214 1e97 28       		.uleb128 0x28
 9215 1e98 65727200 		.ascii	"err\000"
 9216 1e9c 01       		.byte	0x1
 9217 1e9d A405     		.2byte	0x5a4
 9218 1e9f 5D060000 		.4byte	0x65d
 9219 1ea3 02       		.byte	0x2
 9220 1ea4 91       		.byte	0x91
 9221 1ea5 77       		.sleb128 -9
 9222 1ea6 25       		.uleb128 0x25
 9223 1ea7 63070000 		.4byte	.LASF231
 9224 1eab 01       		.byte	0x1
 9225 1eac A505     		.2byte	0x5a5
 9226 1eae EB110000 		.4byte	0x11eb
 9227 1eb2 02       		.byte	0x2
 9228 1eb3 91       		.byte	0x91
 9229 1eb4 70       		.sleb128 -16
 9230 1eb5 25       		.uleb128 0x25
 9231 1eb6 CF0C0000 		.4byte	.LASF267
 9232 1eba 01       		.byte	0x1
 9233 1ebb A605     		.2byte	0x5a6
 9234 1ebd 8A110000 		.4byte	0x118a
 9235 1ec1 02       		.byte	0x2
 9236 1ec2 91       		.byte	0x91
 9237 1ec3 58       		.sleb128 -40
 9238 1ec4 00       		.byte	0
 9239 1ec5 23       		.uleb128 0x23
 9240 1ec6 5E050000 		.4byte	.LASF307
 9241 1eca 01       		.byte	0x1
 9242 1ecb 6806     		.2byte	0x668
 9243 1ecd 01       		.byte	0x1
 9244 1ece 00000000 		.4byte	.LFB32
 9245 1ed2 C4010000 		.4byte	.LFE32
 9246 1ed6 01040000 		.4byte	.LLST24
 9247 1eda 391F0000 		.4byte	0x1f39
 9248 1ede 27       		.uleb128 0x27
 9249 1edf 61726700 		.ascii	"arg\000"
 9250 1ee3 01       		.byte	0x1
 9251 1ee4 6806     		.2byte	0x668
 9252 1ee6 CB020000 		.4byte	0x2cb
 9253 1eea 02       		.byte	0x2
 9254 1eeb 91       		.byte	0x91
 9255 1eec 5C       		.sleb128 -36
 9256 1eed 25       		.uleb128 0x25
 9257 1eee 63070000 		.4byte	.LASF231
 9258 1ef2 01       		.byte	0x1
 9259 1ef3 6A06     		.2byte	0x66a
ARM GAS  /tmp/cc2wa78n.s 			page 164


 9260 1ef5 EB110000 		.4byte	0x11eb
 9261 1ef9 02       		.byte	0x2
 9262 1efa 91       		.byte	0x91
 9263 1efb 70       		.sleb128 -16
 9264 1efc 25       		.uleb128 0x25
 9265 1efd 1C0C0000 		.4byte	.LASF232
 9266 1f01 01       		.byte	0x1
 9267 1f02 6E06     		.2byte	0x66e
 9268 1f04 29000000 		.4byte	0x29
 9269 1f08 02       		.byte	0x2
 9270 1f09 91       		.byte	0x91
 9271 1f0a 6C       		.sleb128 -20
 9272 1f0b 25       		.uleb128 0x25
 9273 1f0c F0070000 		.4byte	.LASF233
 9274 1f10 01       		.byte	0x1
 9275 1f11 6E06     		.2byte	0x66e
 9276 1f13 29000000 		.4byte	0x29
 9277 1f17 02       		.byte	0x2
 9278 1f18 91       		.byte	0x91
 9279 1f19 68       		.sleb128 -24
 9280 1f1a 25       		.uleb128 0x25
 9281 1f1b 79070000 		.4byte	.LASF234
 9282 1f1f 01       		.byte	0x1
 9283 1f20 6F06     		.2byte	0x66f
 9284 1f22 CB020000 		.4byte	0x2cb
 9285 1f26 02       		.byte	0x2
 9286 1f27 91       		.byte	0x91
 9287 1f28 64       		.sleb128 -28
 9288 1f29 25       		.uleb128 0x25
 9289 1f2a CF0C0000 		.4byte	.LASF267
 9290 1f2e 01       		.byte	0x1
 9291 1f2f 7006     		.2byte	0x670
 9292 1f31 391F0000 		.4byte	0x1f39
 9293 1f35 02       		.byte	0x2
 9294 1f36 91       		.byte	0x91
 9295 1f37 74       		.sleb128 -12
 9296 1f38 00       		.byte	0
 9297 1f39 09       		.uleb128 0x9
 9298 1f3a 04       		.byte	0x4
 9299 1f3b 8A110000 		.4byte	0x118a
 9300 1f3f 26       		.uleb128 0x26
 9301 1f40 01       		.byte	0x1
 9302 1f41 6A0B0000 		.4byte	.LASF308
 9303 1f45 01       		.byte	0x1
 9304 1f46 3307     		.2byte	0x733
 9305 1f48 01       		.byte	0x1
 9306 1f49 29000000 		.4byte	0x29
 9307 1f4d 00000000 		.4byte	.LFB33
 9308 1f51 A0010000 		.4byte	.LFE33
 9309 1f55 2D040000 		.4byte	.LLST25
 9310 1f59 D41F0000 		.4byte	0x1fd4
 9311 1f5d 27       		.uleb128 0x27
 9312 1f5e 7300     		.ascii	"s\000"
 9313 1f60 01       		.byte	0x1
 9314 1f61 3307     		.2byte	0x733
 9315 1f63 29000000 		.4byte	0x29
 9316 1f67 02       		.byte	0x2
ARM GAS  /tmp/cc2wa78n.s 			page 165


 9317 1f68 91       		.byte	0x91
 9318 1f69 54       		.sleb128 -44
 9319 1f6a 24       		.uleb128 0x24
 9320 1f6b 1C0C0000 		.4byte	.LASF232
 9321 1f6f 01       		.byte	0x1
 9322 1f70 3307     		.2byte	0x733
 9323 1f72 29000000 		.4byte	0x29
 9324 1f76 02       		.byte	0x2
 9325 1f77 91       		.byte	0x91
 9326 1f78 50       		.sleb128 -48
 9327 1f79 24       		.uleb128 0x24
 9328 1f7a F0070000 		.4byte	.LASF233
 9329 1f7e 01       		.byte	0x1
 9330 1f7f 3307     		.2byte	0x733
 9331 1f81 29000000 		.4byte	0x29
 9332 1f85 02       		.byte	0x2
 9333 1f86 91       		.byte	0x91
 9334 1f87 4C       		.sleb128 -52
 9335 1f88 24       		.uleb128 0x24
 9336 1f89 79070000 		.4byte	.LASF234
 9337 1f8d 01       		.byte	0x1
 9338 1f8e 3307     		.2byte	0x733
 9339 1f90 0C100000 		.4byte	0x100c
 9340 1f94 02       		.byte	0x2
 9341 1f95 91       		.byte	0x91
 9342 1f96 48       		.sleb128 -56
 9343 1f97 24       		.uleb128 0x24
 9344 1f98 17090000 		.4byte	.LASF235
 9345 1f9c 01       		.byte	0x1
 9346 1f9d 3307     		.2byte	0x733
 9347 1f9f F7040000 		.4byte	0x4f7
 9348 1fa3 02       		.byte	0x2
 9349 1fa4 91       		.byte	0x91
 9350 1fa5 00       		.sleb128 0
 9351 1fa6 25       		.uleb128 0x25
 9352 1fa7 63070000 		.4byte	.LASF231
 9353 1fab 01       		.byte	0x1
 9354 1fac 3507     		.2byte	0x735
 9355 1fae EB110000 		.4byte	0x11eb
 9356 1fb2 02       		.byte	0x2
 9357 1fb3 91       		.byte	0x91
 9358 1fb4 70       		.sleb128 -16
 9359 1fb5 28       		.uleb128 0x28
 9360 1fb6 65727200 		.ascii	"err\000"
 9361 1fba 01       		.byte	0x1
 9362 1fbb 3607     		.2byte	0x736
 9363 1fbd 5D060000 		.4byte	0x65d
 9364 1fc1 02       		.byte	0x2
 9365 1fc2 91       		.byte	0x91
 9366 1fc3 77       		.sleb128 -9
 9367 1fc4 25       		.uleb128 0x25
 9368 1fc5 CF0C0000 		.4byte	.LASF267
 9369 1fc9 01       		.byte	0x1
 9370 1fca 3707     		.2byte	0x737
 9371 1fcc 8A110000 		.4byte	0x118a
 9372 1fd0 02       		.byte	0x2
 9373 1fd1 91       		.byte	0x91
ARM GAS  /tmp/cc2wa78n.s 			page 166


 9374 1fd2 58       		.sleb128 -40
 9375 1fd3 00       		.byte	0
 9376 1fd4 23       		.uleb128 0x23
 9377 1fd5 D8060000 		.4byte	.LASF309
 9378 1fd9 01       		.byte	0x1
 9379 1fda 0208     		.2byte	0x802
 9380 1fdc 01       		.byte	0x1
 9381 1fdd 00000000 		.4byte	.LFB34
 9382 1fe1 8A010000 		.4byte	.LFE34
 9383 1fe5 59040000 		.4byte	.LLST26
 9384 1fe9 48200000 		.4byte	0x2048
 9385 1fed 27       		.uleb128 0x27
 9386 1fee 61726700 		.ascii	"arg\000"
 9387 1ff2 01       		.byte	0x1
 9388 1ff3 0208     		.2byte	0x802
 9389 1ff5 CB020000 		.4byte	0x2cb
 9390 1ff9 02       		.byte	0x2
 9391 1ffa 91       		.byte	0x91
 9392 1ffb 5C       		.sleb128 -36
 9393 1ffc 25       		.uleb128 0x25
 9394 1ffd 63070000 		.4byte	.LASF231
 9395 2001 01       		.byte	0x1
 9396 2002 0408     		.2byte	0x804
 9397 2004 EB110000 		.4byte	0x11eb
 9398 2008 02       		.byte	0x2
 9399 2009 91       		.byte	0x91
 9400 200a 70       		.sleb128 -16
 9401 200b 25       		.uleb128 0x25
 9402 200c 1C0C0000 		.4byte	.LASF232
 9403 2010 01       		.byte	0x1
 9404 2011 0808     		.2byte	0x808
 9405 2013 29000000 		.4byte	0x29
 9406 2017 02       		.byte	0x2
 9407 2018 91       		.byte	0x91
 9408 2019 6C       		.sleb128 -20
 9409 201a 25       		.uleb128 0x25
 9410 201b F0070000 		.4byte	.LASF233
 9411 201f 01       		.byte	0x1
 9412 2020 0808     		.2byte	0x808
 9413 2022 29000000 		.4byte	0x29
 9414 2026 02       		.byte	0x2
 9415 2027 91       		.byte	0x91
 9416 2028 68       		.sleb128 -24
 9417 2029 25       		.uleb128 0x25
 9418 202a 79070000 		.4byte	.LASF234
 9419 202e 01       		.byte	0x1
 9420 202f 0908     		.2byte	0x809
 9421 2031 0C100000 		.4byte	0x100c
 9422 2035 02       		.byte	0x2
 9423 2036 91       		.byte	0x91
 9424 2037 64       		.sleb128 -28
 9425 2038 25       		.uleb128 0x25
 9426 2039 CF0C0000 		.4byte	.LASF267
 9427 203d 01       		.byte	0x1
 9428 203e 0A08     		.2byte	0x80a
 9429 2040 391F0000 		.4byte	0x1f39
 9430 2044 02       		.byte	0x2
ARM GAS  /tmp/cc2wa78n.s 			page 167


 9431 2045 91       		.byte	0x91
 9432 2046 74       		.sleb128 -12
 9433 2047 00       		.byte	0
 9434 2048 26       		.uleb128 0x26
 9435 2049 01       		.byte	0x1
 9436 204a 79030000 		.4byte	.LASF310
 9437 204e 01       		.byte	0x1
 9438 204f CE08     		.2byte	0x8ce
 9439 2051 01       		.byte	0x1
 9440 2052 29000000 		.4byte	0x29
 9441 2056 00000000 		.4byte	.LFB35
 9442 205a 9A000000 		.4byte	.LFE35
 9443 205e 85040000 		.4byte	.LLST27
 9444 2062 B0200000 		.4byte	0x20b0
 9445 2066 27       		.uleb128 0x27
 9446 2067 7300     		.ascii	"s\000"
 9447 2069 01       		.byte	0x1
 9448 206a CE08     		.2byte	0x8ce
 9449 206c 29000000 		.4byte	0x29
 9450 2070 02       		.byte	0x2
 9451 2071 91       		.byte	0x91
 9452 2072 6C       		.sleb128 -20
 9453 2073 27       		.uleb128 0x27
 9454 2074 636D6400 		.ascii	"cmd\000"
 9455 2078 01       		.byte	0x1
 9456 2079 CE08     		.2byte	0x8ce
 9457 207b 95000000 		.4byte	0x95
 9458 207f 02       		.byte	0x2
 9459 2080 91       		.byte	0x91
 9460 2081 68       		.sleb128 -24
 9461 2082 24       		.uleb128 0x24
 9462 2083 2B060000 		.4byte	.LASF311
 9463 2087 01       		.byte	0x1
 9464 2088 CE08     		.2byte	0x8ce
 9465 208a CB020000 		.4byte	0x2cb
 9466 208e 02       		.byte	0x2
 9467 208f 91       		.byte	0x91
 9468 2090 64       		.sleb128 -28
 9469 2091 25       		.uleb128 0x25
 9470 2092 63070000 		.4byte	.LASF231
 9471 2096 01       		.byte	0x1
 9472 2097 D008     		.2byte	0x8d0
 9473 2099 EB110000 		.4byte	0x11eb
 9474 209d 02       		.byte	0x2
 9475 209e 91       		.byte	0x91
 9476 209f 70       		.sleb128 -16
 9477 20a0 28       		.uleb128 0x28
 9478 20a1 76616C00 		.ascii	"val\000"
 9479 20a5 01       		.byte	0x1
 9480 20a6 D108     		.2byte	0x8d1
 9481 20a8 CB040000 		.4byte	0x4cb
 9482 20ac 02       		.byte	0x2
 9483 20ad 91       		.byte	0x91
 9484 20ae 77       		.sleb128 -9
 9485 20af 00       		.byte	0
 9486 20b0 26       		.uleb128 0x26
 9487 20b1 01       		.byte	0x1
ARM GAS  /tmp/cc2wa78n.s 			page 168


 9488 20b2 380A0000 		.4byte	.LASF312
 9489 20b6 01       		.byte	0x1
 9490 20b7 1009     		.2byte	0x910
 9491 20b9 01       		.byte	0x1
 9492 20ba 29000000 		.4byte	0x29
 9493 20be 00000000 		.4byte	.LFB36
 9494 20c2 A0000000 		.4byte	.LFE36
 9495 20c6 B1040000 		.4byte	.LLST28
 9496 20ca 18210000 		.4byte	0x2118
 9497 20ce 27       		.uleb128 0x27
 9498 20cf 7300     		.ascii	"s\000"
 9499 20d1 01       		.byte	0x1
 9500 20d2 1009     		.2byte	0x910
 9501 20d4 29000000 		.4byte	0x29
 9502 20d8 02       		.byte	0x2
 9503 20d9 91       		.byte	0x91
 9504 20da 6C       		.sleb128 -20
 9505 20db 27       		.uleb128 0x27
 9506 20dc 636D6400 		.ascii	"cmd\000"
 9507 20e0 01       		.byte	0x1
 9508 20e1 1009     		.2byte	0x910
 9509 20e3 29000000 		.4byte	0x29
 9510 20e7 02       		.byte	0x2
 9511 20e8 91       		.byte	0x91
 9512 20e9 68       		.sleb128 -24
 9513 20ea 27       		.uleb128 0x27
 9514 20eb 76616C00 		.ascii	"val\000"
 9515 20ef 01       		.byte	0x1
 9516 20f0 1009     		.2byte	0x910
 9517 20f2 29000000 		.4byte	0x29
 9518 20f6 02       		.byte	0x2
 9519 20f7 91       		.byte	0x91
 9520 20f8 64       		.sleb128 -28
 9521 20f9 25       		.uleb128 0x25
 9522 20fa 63070000 		.4byte	.LASF231
 9523 20fe 01       		.byte	0x1
 9524 20ff 1209     		.2byte	0x912
 9525 2101 EB110000 		.4byte	0x11eb
 9526 2105 02       		.byte	0x2
 9527 2106 91       		.byte	0x91
 9528 2107 70       		.sleb128 -16
 9529 2108 28       		.uleb128 0x28
 9530 2109 72657400 		.ascii	"ret\000"
 9531 210d 01       		.byte	0x1
 9532 210e 1309     		.2byte	0x913
 9533 2110 29000000 		.4byte	0x29
 9534 2114 02       		.byte	0x2
 9535 2115 91       		.byte	0x91
 9536 2116 74       		.sleb128 -12
 9537 2117 00       		.byte	0
 9538 2118 11       		.uleb128 0x11
 9539 2119 92100000 		.4byte	0x1092
 9540 211d 28210000 		.4byte	0x2128
 9541 2121 12       		.uleb128 0x12
 9542 2122 3B000000 		.4byte	0x3b
 9543 2126 03       		.byte	0x3
 9544 2127 00       		.byte	0
ARM GAS  /tmp/cc2wa78n.s 			page 169


 9545 2128 20       		.uleb128 0x20
 9546 2129 35050000 		.4byte	.LASF313
 9547 212d 01       		.byte	0x1
 9548 212e 7E       		.byte	0x7e
 9549 212f 18210000 		.4byte	0x2118
 9550 2133 05       		.byte	0x5
 9551 2134 03       		.byte	0x3
 9552 2135 00000000 		.4byte	sockets
 9553 2139 20       		.uleb128 0x20
 9554 213a 96070000 		.4byte	.LASF314
 9555 213e 01       		.byte	0x1
 9556 213f 80       		.byte	0x80
 9557 2140 7E110000 		.4byte	0x117e
 9558 2144 05       		.byte	0x5
 9559 2145 03       		.byte	0x3
 9560 2146 00000000 		.4byte	select_cb_list
 9561 214a 20       		.uleb128 0x20
 9562 214b B8090000 		.4byte	.LASF315
 9563 214f 01       		.byte	0x1
 9564 2150 83       		.byte	0x83
 9565 2151 5B210000 		.4byte	0x215b
 9566 2155 05       		.byte	0x5
 9567 2156 03       		.byte	0x3
 9568 2157 00000000 		.4byte	select_cb_ctr
 9569 215b 0D       		.uleb128 0xd
 9570 215c 29000000 		.4byte	0x29
 9571 2160 11       		.uleb128 0x11
 9572 2161 29000000 		.4byte	0x29
 9573 2165 70210000 		.4byte	0x2170
 9574 2169 12       		.uleb128 0x12
 9575 216a 3B000000 		.4byte	0x3b
 9576 216e 0F       		.byte	0xf
 9577 216f 00       		.byte	0
 9578 2170 20       		.uleb128 0x20
 9579 2171 F7000000 		.4byte	.LASF316
 9580 2175 01       		.byte	0x1
 9581 2176 87       		.byte	0x87
 9582 2177 81210000 		.4byte	0x2181
 9583 217b 05       		.byte	0x5
 9584 217c 03       		.byte	0x3
 9585 217d 00000000 		.4byte	err_to_errno_table
 9586 2181 10       		.uleb128 0x10
 9587 2182 60210000 		.4byte	0x2160
 9588 2186 00       		.byte	0
 9589              		.section	.debug_abbrev,"",%progbits
 9590              	.Ldebug_abbrev0:
 9591 0000 01       		.uleb128 0x1
 9592 0001 11       		.uleb128 0x11
 9593 0002 01       		.byte	0x1
 9594 0003 25       		.uleb128 0x25
 9595 0004 0E       		.uleb128 0xe
 9596 0005 13       		.uleb128 0x13
 9597 0006 0B       		.uleb128 0xb
 9598 0007 03       		.uleb128 0x3
 9599 0008 0E       		.uleb128 0xe
 9600 0009 1B       		.uleb128 0x1b
 9601 000a 0E       		.uleb128 0xe
ARM GAS  /tmp/cc2wa78n.s 			page 170


 9602 000b 11       		.uleb128 0x11
 9603 000c 01       		.uleb128 0x1
 9604 000d 52       		.uleb128 0x52
 9605 000e 01       		.uleb128 0x1
 9606 000f 55       		.uleb128 0x55
 9607 0010 06       		.uleb128 0x6
 9608 0011 10       		.uleb128 0x10
 9609 0012 06       		.uleb128 0x6
 9610 0013 00       		.byte	0
 9611 0014 00       		.byte	0
 9612 0015 02       		.uleb128 0x2
 9613 0016 24       		.uleb128 0x24
 9614 0017 00       		.byte	0
 9615 0018 0B       		.uleb128 0xb
 9616 0019 0B       		.uleb128 0xb
 9617 001a 3E       		.uleb128 0x3e
 9618 001b 0B       		.uleb128 0xb
 9619 001c 03       		.uleb128 0x3
 9620 001d 08       		.uleb128 0x8
 9621 001e 00       		.byte	0
 9622 001f 00       		.byte	0
 9623 0020 03       		.uleb128 0x3
 9624 0021 16       		.uleb128 0x16
 9625 0022 00       		.byte	0
 9626 0023 03       		.uleb128 0x3
 9627 0024 0E       		.uleb128 0xe
 9628 0025 3A       		.uleb128 0x3a
 9629 0026 0B       		.uleb128 0xb
 9630 0027 3B       		.uleb128 0x3b
 9631 0028 0B       		.uleb128 0xb
 9632 0029 49       		.uleb128 0x49
 9633 002a 13       		.uleb128 0x13
 9634 002b 00       		.byte	0
 9635 002c 00       		.byte	0
 9636 002d 04       		.uleb128 0x4
 9637 002e 24       		.uleb128 0x24
 9638 002f 00       		.byte	0
 9639 0030 0B       		.uleb128 0xb
 9640 0031 0B       		.uleb128 0xb
 9641 0032 3E       		.uleb128 0x3e
 9642 0033 0B       		.uleb128 0xb
 9643 0034 03       		.uleb128 0x3
 9644 0035 0E       		.uleb128 0xe
 9645 0036 00       		.byte	0
 9646 0037 00       		.byte	0
 9647 0038 05       		.uleb128 0x5
 9648 0039 13       		.uleb128 0x13
 9649 003a 01       		.byte	0x1
 9650 003b 03       		.uleb128 0x3
 9651 003c 0E       		.uleb128 0xe
 9652 003d 0B       		.uleb128 0xb
 9653 003e 0B       		.uleb128 0xb
 9654 003f 3A       		.uleb128 0x3a
 9655 0040 0B       		.uleb128 0xb
 9656 0041 3B       		.uleb128 0x3b
 9657 0042 0B       		.uleb128 0xb
 9658 0043 01       		.uleb128 0x1
ARM GAS  /tmp/cc2wa78n.s 			page 171


 9659 0044 13       		.uleb128 0x13
 9660 0045 00       		.byte	0
 9661 0046 00       		.byte	0
 9662 0047 06       		.uleb128 0x6
 9663 0048 0D       		.uleb128 0xd
 9664 0049 00       		.byte	0
 9665 004a 03       		.uleb128 0x3
 9666 004b 0E       		.uleb128 0xe
 9667 004c 3A       		.uleb128 0x3a
 9668 004d 0B       		.uleb128 0xb
 9669 004e 3B       		.uleb128 0x3b
 9670 004f 0B       		.uleb128 0xb
 9671 0050 49       		.uleb128 0x49
 9672 0051 13       		.uleb128 0x13
 9673 0052 38       		.uleb128 0x38
 9674 0053 0A       		.uleb128 0xa
 9675 0054 00       		.byte	0
 9676 0055 00       		.byte	0
 9677 0056 07       		.uleb128 0x7
 9678 0057 0D       		.uleb128 0xd
 9679 0058 00       		.byte	0
 9680 0059 03       		.uleb128 0x3
 9681 005a 08       		.uleb128 0x8
 9682 005b 3A       		.uleb128 0x3a
 9683 005c 0B       		.uleb128 0xb
 9684 005d 3B       		.uleb128 0x3b
 9685 005e 0B       		.uleb128 0xb
 9686 005f 49       		.uleb128 0x49
 9687 0060 13       		.uleb128 0x13
 9688 0061 38       		.uleb128 0x38
 9689 0062 0A       		.uleb128 0xa
 9690 0063 00       		.byte	0
 9691 0064 00       		.byte	0
 9692 0065 08       		.uleb128 0x8
 9693 0066 13       		.uleb128 0x13
 9694 0067 01       		.byte	0x1
 9695 0068 0B       		.uleb128 0xb
 9696 0069 0B       		.uleb128 0xb
 9697 006a 3A       		.uleb128 0x3a
 9698 006b 0B       		.uleb128 0xb
 9699 006c 3B       		.uleb128 0x3b
 9700 006d 0B       		.uleb128 0xb
 9701 006e 01       		.uleb128 0x1
 9702 006f 13       		.uleb128 0x13
 9703 0070 00       		.byte	0
 9704 0071 00       		.byte	0
 9705 0072 09       		.uleb128 0x9
 9706 0073 0F       		.uleb128 0xf
 9707 0074 00       		.byte	0
 9708 0075 0B       		.uleb128 0xb
 9709 0076 0B       		.uleb128 0xb
 9710 0077 49       		.uleb128 0x49
 9711 0078 13       		.uleb128 0x13
 9712 0079 00       		.byte	0
 9713 007a 00       		.byte	0
 9714 007b 0A       		.uleb128 0xa
 9715 007c 0F       		.uleb128 0xf
ARM GAS  /tmp/cc2wa78n.s 			page 172


 9716 007d 00       		.byte	0
 9717 007e 0B       		.uleb128 0xb
 9718 007f 0B       		.uleb128 0xb
 9719 0080 00       		.byte	0
 9720 0081 00       		.byte	0
 9721 0082 0B       		.uleb128 0xb
 9722 0083 13       		.uleb128 0x13
 9723 0084 01       		.byte	0x1
 9724 0085 03       		.uleb128 0x3
 9725 0086 0E       		.uleb128 0xe
 9726 0087 0B       		.uleb128 0xb
 9727 0088 0B       		.uleb128 0xb
 9728 0089 3A       		.uleb128 0x3a
 9729 008a 0B       		.uleb128 0xb
 9730 008b 3B       		.uleb128 0x3b
 9731 008c 05       		.uleb128 0x5
 9732 008d 01       		.uleb128 0x1
 9733 008e 13       		.uleb128 0x13
 9734 008f 00       		.byte	0
 9735 0090 00       		.byte	0
 9736 0091 0C       		.uleb128 0xc
 9737 0092 0D       		.uleb128 0xd
 9738 0093 00       		.byte	0
 9739 0094 03       		.uleb128 0x3
 9740 0095 08       		.uleb128 0x8
 9741 0096 3A       		.uleb128 0x3a
 9742 0097 0B       		.uleb128 0xb
 9743 0098 3B       		.uleb128 0x3b
 9744 0099 05       		.uleb128 0x5
 9745 009a 49       		.uleb128 0x49
 9746 009b 13       		.uleb128 0x13
 9747 009c 38       		.uleb128 0x38
 9748 009d 0A       		.uleb128 0xa
 9749 009e 00       		.byte	0
 9750 009f 00       		.byte	0
 9751 00a0 0D       		.uleb128 0xd
 9752 00a1 35       		.uleb128 0x35
 9753 00a2 00       		.byte	0
 9754 00a3 49       		.uleb128 0x49
 9755 00a4 13       		.uleb128 0x13
 9756 00a5 00       		.byte	0
 9757 00a6 00       		.byte	0
 9758 00a7 0E       		.uleb128 0xe
 9759 00a8 17       		.uleb128 0x17
 9760 00a9 01       		.byte	0x1
 9761 00aa 0B       		.uleb128 0xb
 9762 00ab 0B       		.uleb128 0xb
 9763 00ac 3A       		.uleb128 0x3a
 9764 00ad 0B       		.uleb128 0xb
 9765 00ae 3B       		.uleb128 0x3b
 9766 00af 0B       		.uleb128 0xb
 9767 00b0 01       		.uleb128 0x1
 9768 00b1 13       		.uleb128 0x13
 9769 00b2 00       		.byte	0
 9770 00b3 00       		.byte	0
 9771 00b4 0F       		.uleb128 0xf
 9772 00b5 0D       		.uleb128 0xd
ARM GAS  /tmp/cc2wa78n.s 			page 173


 9773 00b6 00       		.byte	0
 9774 00b7 03       		.uleb128 0x3
 9775 00b8 0E       		.uleb128 0xe
 9776 00b9 3A       		.uleb128 0x3a
 9777 00ba 0B       		.uleb128 0xb
 9778 00bb 3B       		.uleb128 0x3b
 9779 00bc 0B       		.uleb128 0xb
 9780 00bd 49       		.uleb128 0x49
 9781 00be 13       		.uleb128 0x13
 9782 00bf 00       		.byte	0
 9783 00c0 00       		.byte	0
 9784 00c1 10       		.uleb128 0x10
 9785 00c2 26       		.uleb128 0x26
 9786 00c3 00       		.byte	0
 9787 00c4 49       		.uleb128 0x49
 9788 00c5 13       		.uleb128 0x13
 9789 00c6 00       		.byte	0
 9790 00c7 00       		.byte	0
 9791 00c8 11       		.uleb128 0x11
 9792 00c9 01       		.uleb128 0x1
 9793 00ca 01       		.byte	0x1
 9794 00cb 49       		.uleb128 0x49
 9795 00cc 13       		.uleb128 0x13
 9796 00cd 01       		.uleb128 0x1
 9797 00ce 13       		.uleb128 0x13
 9798 00cf 00       		.byte	0
 9799 00d0 00       		.byte	0
 9800 00d1 12       		.uleb128 0x12
 9801 00d2 21       		.uleb128 0x21
 9802 00d3 00       		.byte	0
 9803 00d4 49       		.uleb128 0x49
 9804 00d5 13       		.uleb128 0x13
 9805 00d6 2F       		.uleb128 0x2f
 9806 00d7 0B       		.uleb128 0xb
 9807 00d8 00       		.byte	0
 9808 00d9 00       		.byte	0
 9809 00da 13       		.uleb128 0x13
 9810 00db 0D       		.uleb128 0xd
 9811 00dc 00       		.byte	0
 9812 00dd 03       		.uleb128 0x3
 9813 00de 0E       		.uleb128 0xe
 9814 00df 3A       		.uleb128 0x3a
 9815 00e0 0B       		.uleb128 0xb
 9816 00e1 3B       		.uleb128 0x3b
 9817 00e2 05       		.uleb128 0x5
 9818 00e3 49       		.uleb128 0x49
 9819 00e4 13       		.uleb128 0x13
 9820 00e5 38       		.uleb128 0x38
 9821 00e6 0A       		.uleb128 0xa
 9822 00e7 00       		.byte	0
 9823 00e8 00       		.byte	0
 9824 00e9 14       		.uleb128 0x14
 9825 00ea 16       		.uleb128 0x16
 9826 00eb 00       		.byte	0
 9827 00ec 03       		.uleb128 0x3
 9828 00ed 0E       		.uleb128 0xe
 9829 00ee 3A       		.uleb128 0x3a
ARM GAS  /tmp/cc2wa78n.s 			page 174


 9830 00ef 0B       		.uleb128 0xb
 9831 00f0 3B       		.uleb128 0x3b
 9832 00f1 05       		.uleb128 0x5
 9833 00f2 49       		.uleb128 0x49
 9834 00f3 13       		.uleb128 0x13
 9835 00f4 00       		.byte	0
 9836 00f5 00       		.byte	0
 9837 00f6 15       		.uleb128 0x15
 9838 00f7 04       		.uleb128 0x4
 9839 00f8 01       		.byte	0x1
 9840 00f9 03       		.uleb128 0x3
 9841 00fa 0E       		.uleb128 0xe
 9842 00fb 0B       		.uleb128 0xb
 9843 00fc 0B       		.uleb128 0xb
 9844 00fd 3A       		.uleb128 0x3a
 9845 00fe 0B       		.uleb128 0xb
 9846 00ff 3B       		.uleb128 0x3b
 9847 0100 0B       		.uleb128 0xb
 9848 0101 01       		.uleb128 0x1
 9849 0102 13       		.uleb128 0x13
 9850 0103 00       		.byte	0
 9851 0104 00       		.byte	0
 9852 0105 16       		.uleb128 0x16
 9853 0106 28       		.uleb128 0x28
 9854 0107 00       		.byte	0
 9855 0108 03       		.uleb128 0x3
 9856 0109 0E       		.uleb128 0xe
 9857 010a 1C       		.uleb128 0x1c
 9858 010b 0D       		.uleb128 0xd
 9859 010c 00       		.byte	0
 9860 010d 00       		.byte	0
 9861 010e 17       		.uleb128 0x17
 9862 010f 15       		.uleb128 0x15
 9863 0110 01       		.byte	0x1
 9864 0111 27       		.uleb128 0x27
 9865 0112 0C       		.uleb128 0xc
 9866 0113 01       		.uleb128 0x1
 9867 0114 13       		.uleb128 0x13
 9868 0115 00       		.byte	0
 9869 0116 00       		.byte	0
 9870 0117 18       		.uleb128 0x18
 9871 0118 05       		.uleb128 0x5
 9872 0119 00       		.byte	0
 9873 011a 49       		.uleb128 0x49
 9874 011b 13       		.uleb128 0x13
 9875 011c 00       		.byte	0
 9876 011d 00       		.byte	0
 9877 011e 19       		.uleb128 0x19
 9878 011f 0D       		.uleb128 0xd
 9879 0120 00       		.byte	0
 9880 0121 03       		.uleb128 0x3
 9881 0122 08       		.uleb128 0x8
 9882 0123 3A       		.uleb128 0x3a
 9883 0124 0B       		.uleb128 0xb
 9884 0125 3B       		.uleb128 0x3b
 9885 0126 0B       		.uleb128 0xb
 9886 0127 49       		.uleb128 0x49
ARM GAS  /tmp/cc2wa78n.s 			page 175


 9887 0128 13       		.uleb128 0x13
 9888 0129 00       		.byte	0
 9889 012a 00       		.byte	0
 9890 012b 1A       		.uleb128 0x1a
 9891 012c 15       		.uleb128 0x15
 9892 012d 01       		.byte	0x1
 9893 012e 27       		.uleb128 0x27
 9894 012f 0C       		.uleb128 0xc
 9895 0130 49       		.uleb128 0x49
 9896 0131 13       		.uleb128 0x13
 9897 0132 01       		.uleb128 0x1
 9898 0133 13       		.uleb128 0x13
 9899 0134 00       		.byte	0
 9900 0135 00       		.byte	0
 9901 0136 1B       		.uleb128 0x1b
 9902 0137 13       		.uleb128 0x13
 9903 0138 00       		.byte	0
 9904 0139 03       		.uleb128 0x3
 9905 013a 0E       		.uleb128 0xe
 9906 013b 3C       		.uleb128 0x3c
 9907 013c 0C       		.uleb128 0xc
 9908 013d 00       		.byte	0
 9909 013e 00       		.byte	0
 9910 013f 1C       		.uleb128 0x1c
 9911 0140 26       		.uleb128 0x26
 9912 0141 00       		.byte	0
 9913 0142 00       		.byte	0
 9914 0143 00       		.byte	0
 9915 0144 1D       		.uleb128 0x1d
 9916 0145 2E       		.uleb128 0x2e
 9917 0146 00       		.byte	0
 9918 0147 3F       		.uleb128 0x3f
 9919 0148 0C       		.uleb128 0xc
 9920 0149 03       		.uleb128 0x3
 9921 014a 0E       		.uleb128 0xe
 9922 014b 3A       		.uleb128 0x3a
 9923 014c 0B       		.uleb128 0xb
 9924 014d 3B       		.uleb128 0x3b
 9925 014e 0B       		.uleb128 0xb
 9926 014f 27       		.uleb128 0x27
 9927 0150 0C       		.uleb128 0xc
 9928 0151 11       		.uleb128 0x11
 9929 0152 01       		.uleb128 0x1
 9930 0153 12       		.uleb128 0x12
 9931 0154 01       		.uleb128 0x1
 9932 0155 40       		.uleb128 0x40
 9933 0156 0A       		.uleb128 0xa
 9934 0157 00       		.byte	0
 9935 0158 00       		.byte	0
 9936 0159 1E       		.uleb128 0x1e
 9937 015a 2E       		.uleb128 0x2e
 9938 015b 01       		.byte	0x1
 9939 015c 03       		.uleb128 0x3
 9940 015d 0E       		.uleb128 0xe
 9941 015e 3A       		.uleb128 0x3a
 9942 015f 0B       		.uleb128 0xb
 9943 0160 3B       		.uleb128 0x3b
ARM GAS  /tmp/cc2wa78n.s 			page 176


 9944 0161 0B       		.uleb128 0xb
 9945 0162 27       		.uleb128 0x27
 9946 0163 0C       		.uleb128 0xc
 9947 0164 49       		.uleb128 0x49
 9948 0165 13       		.uleb128 0x13
 9949 0166 11       		.uleb128 0x11
 9950 0167 01       		.uleb128 0x1
 9951 0168 12       		.uleb128 0x12
 9952 0169 01       		.uleb128 0x1
 9953 016a 40       		.uleb128 0x40
 9954 016b 06       		.uleb128 0x6
 9955 016c 01       		.uleb128 0x1
 9956 016d 13       		.uleb128 0x13
 9957 016e 00       		.byte	0
 9958 016f 00       		.byte	0
 9959 0170 1F       		.uleb128 0x1f
 9960 0171 05       		.uleb128 0x5
 9961 0172 00       		.byte	0
 9962 0173 03       		.uleb128 0x3
 9963 0174 08       		.uleb128 0x8
 9964 0175 3A       		.uleb128 0x3a
 9965 0176 0B       		.uleb128 0xb
 9966 0177 3B       		.uleb128 0x3b
 9967 0178 0B       		.uleb128 0xb
 9968 0179 49       		.uleb128 0x49
 9969 017a 13       		.uleb128 0x13
 9970 017b 02       		.uleb128 0x2
 9971 017c 0A       		.uleb128 0xa
 9972 017d 00       		.byte	0
 9973 017e 00       		.byte	0
 9974 017f 20       		.uleb128 0x20
 9975 0180 34       		.uleb128 0x34
 9976 0181 00       		.byte	0
 9977 0182 03       		.uleb128 0x3
 9978 0183 0E       		.uleb128 0xe
 9979 0184 3A       		.uleb128 0x3a
 9980 0185 0B       		.uleb128 0xb
 9981 0186 3B       		.uleb128 0x3b
 9982 0187 0B       		.uleb128 0xb
 9983 0188 49       		.uleb128 0x49
 9984 0189 13       		.uleb128 0x13
 9985 018a 02       		.uleb128 0x2
 9986 018b 0A       		.uleb128 0xa
 9987 018c 00       		.byte	0
 9988 018d 00       		.byte	0
 9989 018e 21       		.uleb128 0x21
 9990 018f 05       		.uleb128 0x5
 9991 0190 00       		.byte	0
 9992 0191 03       		.uleb128 0x3
 9993 0192 0E       		.uleb128 0xe
 9994 0193 3A       		.uleb128 0x3a
 9995 0194 0B       		.uleb128 0xb
 9996 0195 3B       		.uleb128 0x3b
 9997 0196 0B       		.uleb128 0xb
 9998 0197 49       		.uleb128 0x49
 9999 0198 13       		.uleb128 0x13
 10000 0199 02       		.uleb128 0x2
ARM GAS  /tmp/cc2wa78n.s 			page 177


 10001 019a 0A       		.uleb128 0xa
 10002 019b 00       		.byte	0
 10003 019c 00       		.byte	0
 10004 019d 22       		.uleb128 0x22
 10005 019e 34       		.uleb128 0x34
 10006 019f 00       		.byte	0
 10007 01a0 03       		.uleb128 0x3
 10008 01a1 08       		.uleb128 0x8
 10009 01a2 3A       		.uleb128 0x3a
 10010 01a3 0B       		.uleb128 0xb
 10011 01a4 3B       		.uleb128 0x3b
 10012 01a5 0B       		.uleb128 0xb
 10013 01a6 49       		.uleb128 0x49
 10014 01a7 13       		.uleb128 0x13
 10015 01a8 02       		.uleb128 0x2
 10016 01a9 0A       		.uleb128 0xa
 10017 01aa 00       		.byte	0
 10018 01ab 00       		.byte	0
 10019 01ac 23       		.uleb128 0x23
 10020 01ad 2E       		.uleb128 0x2e
 10021 01ae 01       		.byte	0x1
 10022 01af 03       		.uleb128 0x3
 10023 01b0 0E       		.uleb128 0xe
 10024 01b1 3A       		.uleb128 0x3a
 10025 01b2 0B       		.uleb128 0xb
 10026 01b3 3B       		.uleb128 0x3b
 10027 01b4 05       		.uleb128 0x5
 10028 01b5 27       		.uleb128 0x27
 10029 01b6 0C       		.uleb128 0xc
 10030 01b7 11       		.uleb128 0x11
 10031 01b8 01       		.uleb128 0x1
 10032 01b9 12       		.uleb128 0x12
 10033 01ba 01       		.uleb128 0x1
 10034 01bb 40       		.uleb128 0x40
 10035 01bc 06       		.uleb128 0x6
 10036 01bd 01       		.uleb128 0x1
 10037 01be 13       		.uleb128 0x13
 10038 01bf 00       		.byte	0
 10039 01c0 00       		.byte	0
 10040 01c1 24       		.uleb128 0x24
 10041 01c2 05       		.uleb128 0x5
 10042 01c3 00       		.byte	0
 10043 01c4 03       		.uleb128 0x3
 10044 01c5 0E       		.uleb128 0xe
 10045 01c6 3A       		.uleb128 0x3a
 10046 01c7 0B       		.uleb128 0xb
 10047 01c8 3B       		.uleb128 0x3b
 10048 01c9 05       		.uleb128 0x5
 10049 01ca 49       		.uleb128 0x49
 10050 01cb 13       		.uleb128 0x13
 10051 01cc 02       		.uleb128 0x2
 10052 01cd 0A       		.uleb128 0xa
 10053 01ce 00       		.byte	0
 10054 01cf 00       		.byte	0
 10055 01d0 25       		.uleb128 0x25
 10056 01d1 34       		.uleb128 0x34
 10057 01d2 00       		.byte	0
ARM GAS  /tmp/cc2wa78n.s 			page 178


 10058 01d3 03       		.uleb128 0x3
 10059 01d4 0E       		.uleb128 0xe
 10060 01d5 3A       		.uleb128 0x3a
 10061 01d6 0B       		.uleb128 0xb
 10062 01d7 3B       		.uleb128 0x3b
 10063 01d8 05       		.uleb128 0x5
 10064 01d9 49       		.uleb128 0x49
 10065 01da 13       		.uleb128 0x13
 10066 01db 02       		.uleb128 0x2
 10067 01dc 0A       		.uleb128 0xa
 10068 01dd 00       		.byte	0
 10069 01de 00       		.byte	0
 10070 01df 26       		.uleb128 0x26
 10071 01e0 2E       		.uleb128 0x2e
 10072 01e1 01       		.byte	0x1
 10073 01e2 3F       		.uleb128 0x3f
 10074 01e3 0C       		.uleb128 0xc
 10075 01e4 03       		.uleb128 0x3
 10076 01e5 0E       		.uleb128 0xe
 10077 01e6 3A       		.uleb128 0x3a
 10078 01e7 0B       		.uleb128 0xb
 10079 01e8 3B       		.uleb128 0x3b
 10080 01e9 05       		.uleb128 0x5
 10081 01ea 27       		.uleb128 0x27
 10082 01eb 0C       		.uleb128 0xc
 10083 01ec 49       		.uleb128 0x49
 10084 01ed 13       		.uleb128 0x13
 10085 01ee 11       		.uleb128 0x11
 10086 01ef 01       		.uleb128 0x1
 10087 01f0 12       		.uleb128 0x12
 10088 01f1 01       		.uleb128 0x1
 10089 01f2 40       		.uleb128 0x40
 10090 01f3 06       		.uleb128 0x6
 10091 01f4 01       		.uleb128 0x1
 10092 01f5 13       		.uleb128 0x13
 10093 01f6 00       		.byte	0
 10094 01f7 00       		.byte	0
 10095 01f8 27       		.uleb128 0x27
 10096 01f9 05       		.uleb128 0x5
 10097 01fa 00       		.byte	0
 10098 01fb 03       		.uleb128 0x3
 10099 01fc 08       		.uleb128 0x8
 10100 01fd 3A       		.uleb128 0x3a
 10101 01fe 0B       		.uleb128 0xb
 10102 01ff 3B       		.uleb128 0x3b
 10103 0200 05       		.uleb128 0x5
 10104 0201 49       		.uleb128 0x49
 10105 0202 13       		.uleb128 0x13
 10106 0203 02       		.uleb128 0x2
 10107 0204 0A       		.uleb128 0xa
 10108 0205 00       		.byte	0
 10109 0206 00       		.byte	0
 10110 0207 28       		.uleb128 0x28
 10111 0208 34       		.uleb128 0x34
 10112 0209 00       		.byte	0
 10113 020a 03       		.uleb128 0x3
 10114 020b 08       		.uleb128 0x8
ARM GAS  /tmp/cc2wa78n.s 			page 179


 10115 020c 3A       		.uleb128 0x3a
 10116 020d 0B       		.uleb128 0xb
 10117 020e 3B       		.uleb128 0x3b
 10118 020f 05       		.uleb128 0x5
 10119 0210 49       		.uleb128 0x49
 10120 0211 13       		.uleb128 0x13
 10121 0212 02       		.uleb128 0x2
 10122 0213 0A       		.uleb128 0xa
 10123 0214 00       		.byte	0
 10124 0215 00       		.byte	0
 10125 0216 29       		.uleb128 0x29
 10126 0217 0B       		.uleb128 0xb
 10127 0218 01       		.byte	0x1
 10128 0219 11       		.uleb128 0x11
 10129 021a 01       		.uleb128 0x1
 10130 021b 12       		.uleb128 0x12
 10131 021c 01       		.uleb128 0x1
 10132 021d 00       		.byte	0
 10133 021e 00       		.byte	0
 10134 021f 2A       		.uleb128 0x2a
 10135 0220 2E       		.uleb128 0x2e
 10136 0221 01       		.byte	0x1
 10137 0222 03       		.uleb128 0x3
 10138 0223 0E       		.uleb128 0xe
 10139 0224 3A       		.uleb128 0x3a
 10140 0225 0B       		.uleb128 0xb
 10141 0226 3B       		.uleb128 0x3b
 10142 0227 05       		.uleb128 0x5
 10143 0228 27       		.uleb128 0x27
 10144 0229 0C       		.uleb128 0xc
 10145 022a 49       		.uleb128 0x49
 10146 022b 13       		.uleb128 0x13
 10147 022c 11       		.uleb128 0x11
 10148 022d 01       		.uleb128 0x1
 10149 022e 12       		.uleb128 0x12
 10150 022f 01       		.uleb128 0x1
 10151 0230 40       		.uleb128 0x40
 10152 0231 06       		.uleb128 0x6
 10153 0232 01       		.uleb128 0x1
 10154 0233 13       		.uleb128 0x13
 10155 0234 00       		.byte	0
 10156 0235 00       		.byte	0
 10157 0236 2B       		.uleb128 0x2b
 10158 0237 0A       		.uleb128 0xa
 10159 0238 00       		.byte	0
 10160 0239 03       		.uleb128 0x3
 10161 023a 0E       		.uleb128 0xe
 10162 023b 3A       		.uleb128 0x3a
 10163 023c 0B       		.uleb128 0xb
 10164 023d 3B       		.uleb128 0x3b
 10165 023e 05       		.uleb128 0x5
 10166 023f 11       		.uleb128 0x11
 10167 0240 01       		.uleb128 0x1
 10168 0241 00       		.byte	0
 10169 0242 00       		.byte	0
 10170 0243 2C       		.uleb128 0x2c
 10171 0244 0B       		.uleb128 0xb
ARM GAS  /tmp/cc2wa78n.s 			page 180


 10172 0245 01       		.byte	0x1
 10173 0246 11       		.uleb128 0x11
 10174 0247 01       		.uleb128 0x1
 10175 0248 12       		.uleb128 0x12
 10176 0249 01       		.uleb128 0x1
 10177 024a 01       		.uleb128 0x1
 10178 024b 13       		.uleb128 0x13
 10179 024c 00       		.byte	0
 10180 024d 00       		.byte	0
 10181 024e 00       		.byte	0
 10182              		.section	.debug_loc,"",%progbits
 10183              	.Ldebug_loc0:
 10184              	.LLST0:
 10185 0000 00000000 		.4byte	.LFB8
 10186 0004 02000000 		.4byte	.LCFI0
 10187 0008 0200     		.2byte	0x2
 10188 000a 7D       		.byte	0x7d
 10189 000b 00       		.sleb128 0
 10190 000c 02000000 		.4byte	.LCFI0
 10191 0010 48000000 		.4byte	.LFE8
 10192 0014 0200     		.2byte	0x2
 10193 0016 7D       		.byte	0x7d
 10194 0017 10       		.sleb128 16
 10195 0018 00000000 		.4byte	0
 10196 001c 00000000 		.4byte	0
 10197              	.LLST1:
 10198 0020 00000000 		.4byte	.LFB9
 10199 0024 02000000 		.4byte	.LCFI1
 10200 0028 0200     		.2byte	0x2
 10201 002a 7D       		.byte	0x7d
 10202 002b 00       		.sleb128 0
 10203 002c 02000000 		.4byte	.LCFI1
 10204 0030 5A000000 		.4byte	.LFE9
 10205 0034 0200     		.2byte	0x2
 10206 0036 7D       		.byte	0x7d
 10207 0037 08       		.sleb128 8
 10208 0038 00000000 		.4byte	0
 10209 003c 00000000 		.4byte	0
 10210              	.LLST2:
 10211 0040 00000000 		.4byte	.LFB10
 10212 0044 02000000 		.4byte	.LCFI2
 10213 0048 0200     		.2byte	0x2
 10214 004a 7D       		.byte	0x7d
 10215 004b 00       		.sleb128 0
 10216 004c 02000000 		.4byte	.LCFI2
 10217 0050 6E010000 		.4byte	.LFE10
 10218 0054 0200     		.2byte	0x2
 10219 0056 7D       		.byte	0x7d
 10220 0057 10       		.sleb128 16
 10221 0058 00000000 		.4byte	0
 10222 005c 00000000 		.4byte	0
 10223              	.LLST3:
 10224 0060 00000000 		.4byte	.LFB11
 10225 0064 02000000 		.4byte	.LCFI3
 10226 0068 0200     		.2byte	0x2
 10227 006a 7D       		.byte	0x7d
 10228 006b 00       		.sleb128 0
ARM GAS  /tmp/cc2wa78n.s 			page 181


 10229 006c 02000000 		.4byte	.LCFI3
 10230 0070 04000000 		.4byte	.LCFI4
 10231 0074 0200     		.2byte	0x2
 10232 0076 7D       		.byte	0x7d
 10233 0077 04       		.sleb128 4
 10234 0078 04000000 		.4byte	.LCFI4
 10235 007c 4C000000 		.4byte	.LFE11
 10236 0080 0200     		.2byte	0x2
 10237 0082 7D       		.byte	0x7d
 10238 0083 18       		.sleb128 24
 10239 0084 00000000 		.4byte	0
 10240 0088 00000000 		.4byte	0
 10241              	.LLST4:
 10242 008c 00000000 		.4byte	.LFB12
 10243 0090 02000000 		.4byte	.LCFI5
 10244 0094 0200     		.2byte	0x2
 10245 0096 7D       		.byte	0x7d
 10246 0097 00       		.sleb128 0
 10247 0098 02000000 		.4byte	.LCFI5
 10248 009c 04000000 		.4byte	.LCFI6
 10249 00a0 0200     		.2byte	0x2
 10250 00a2 7D       		.byte	0x7d
 10251 00a3 04       		.sleb128 4
 10252 00a4 04000000 		.4byte	.LCFI6
 10253 00a8 26020000 		.4byte	.LFE12
 10254 00ac 0300     		.2byte	0x3
 10255 00ae 7D       		.byte	0x7d
 10256 00af C800     		.sleb128 72
 10257 00b1 00000000 		.4byte	0
 10258 00b5 00000000 		.4byte	0
 10259              	.LLST5:
 10260 00b9 00000000 		.4byte	.LFB13
 10261 00bd 02000000 		.4byte	.LCFI7
 10262 00c1 0200     		.2byte	0x2
 10263 00c3 7D       		.byte	0x7d
 10264 00c4 00       		.sleb128 0
 10265 00c5 02000000 		.4byte	.LCFI7
 10266 00c9 04000000 		.4byte	.LCFI8
 10267 00cd 0200     		.2byte	0x2
 10268 00cf 7D       		.byte	0x7d
 10269 00d0 08       		.sleb128 8
 10270 00d1 04000000 		.4byte	.LCFI8
 10271 00d5 CE000000 		.4byte	.LFE13
 10272 00d9 0200     		.2byte	0x2
 10273 00db 7D       		.byte	0x7d
 10274 00dc 28       		.sleb128 40
 10275 00dd 00000000 		.4byte	0
 10276 00e1 00000000 		.4byte	0
 10277              	.LLST6:
 10278 00e5 00000000 		.4byte	.LFB14
 10279 00e9 02000000 		.4byte	.LCFI9
 10280 00ed 0200     		.2byte	0x2
 10281 00ef 7D       		.byte	0x7d
 10282 00f0 00       		.sleb128 0
 10283 00f1 02000000 		.4byte	.LCFI9
 10284 00f5 04000000 		.4byte	.LCFI10
 10285 00f9 0200     		.2byte	0x2
ARM GAS  /tmp/cc2wa78n.s 			page 182


 10286 00fb 7D       		.byte	0x7d
 10287 00fc 04       		.sleb128 4
 10288 00fd 04000000 		.4byte	.LCFI10
 10289 0101 64000000 		.4byte	.LFE14
 10290 0105 0200     		.2byte	0x2
 10291 0107 7D       		.byte	0x7d
 10292 0108 18       		.sleb128 24
 10293 0109 00000000 		.4byte	0
 10294 010d 00000000 		.4byte	0
 10295              	.LLST7:
 10296 0111 00000000 		.4byte	.LFB15
 10297 0115 02000000 		.4byte	.LCFI11
 10298 0119 0200     		.2byte	0x2
 10299 011b 7D       		.byte	0x7d
 10300 011c 00       		.sleb128 0
 10301 011d 02000000 		.4byte	.LCFI11
 10302 0121 04000000 		.4byte	.LCFI12
 10303 0125 0200     		.2byte	0x2
 10304 0127 7D       		.byte	0x7d
 10305 0128 08       		.sleb128 8
 10306 0129 04000000 		.4byte	.LCFI12
 10307 012d E8000000 		.4byte	.LFE15
 10308 0131 0200     		.2byte	0x2
 10309 0133 7D       		.byte	0x7d
 10310 0134 30       		.sleb128 48
 10311 0135 00000000 		.4byte	0
 10312 0139 00000000 		.4byte	0
 10313              	.LLST8:
 10314 013d 00000000 		.4byte	.LFB16
 10315 0141 02000000 		.4byte	.LCFI13
 10316 0145 0200     		.2byte	0x2
 10317 0147 7D       		.byte	0x7d
 10318 0148 00       		.sleb128 0
 10319 0149 02000000 		.4byte	.LCFI13
 10320 014d 04000000 		.4byte	.LCFI14
 10321 0151 0200     		.2byte	0x2
 10322 0153 7D       		.byte	0x7d
 10323 0154 04       		.sleb128 4
 10324 0155 04000000 		.4byte	.LCFI14
 10325 0159 92000000 		.4byte	.LFE16
 10326 015d 0200     		.2byte	0x2
 10327 015f 7D       		.byte	0x7d
 10328 0160 18       		.sleb128 24
 10329 0161 00000000 		.4byte	0
 10330 0165 00000000 		.4byte	0
 10331              	.LLST9:
 10332 0169 00000000 		.4byte	.LFB17
 10333 016d 02000000 		.4byte	.LCFI15
 10334 0171 0200     		.2byte	0x2
 10335 0173 7D       		.byte	0x7d
 10336 0174 00       		.sleb128 0
 10337 0175 02000000 		.4byte	.LCFI15
 10338 0179 04000000 		.4byte	.LCFI16
 10339 017d 0200     		.2byte	0x2
 10340 017f 7D       		.byte	0x7d
 10341 0180 04       		.sleb128 4
 10342 0181 04000000 		.4byte	.LCFI16
ARM GAS  /tmp/cc2wa78n.s 			page 183


 10343 0185 54030000 		.4byte	.LFE17
 10344 0189 0300     		.2byte	0x3
 10345 018b 7D       		.byte	0x7d
 10346 018c D000     		.sleb128 80
 10347 018e 00000000 		.4byte	0
 10348 0192 00000000 		.4byte	0
 10349              	.LLST10:
 10350 0196 00000000 		.4byte	.LFB18
 10351 019a 02000000 		.4byte	.LCFI17
 10352 019e 0200     		.2byte	0x2
 10353 01a0 7D       		.byte	0x7d
 10354 01a1 00       		.sleb128 0
 10355 01a2 02000000 		.4byte	.LCFI17
 10356 01a6 04000000 		.4byte	.LCFI18
 10357 01aa 0200     		.2byte	0x2
 10358 01ac 7D       		.byte	0x7d
 10359 01ad 04       		.sleb128 4
 10360 01ae 04000000 		.4byte	.LCFI18
 10361 01b2 2C000000 		.4byte	.LFE18
 10362 01b6 0200     		.2byte	0x2
 10363 01b8 7D       		.byte	0x7d
 10364 01b9 20       		.sleb128 32
 10365 01ba 00000000 		.4byte	0
 10366 01be 00000000 		.4byte	0
 10367              	.LLST11:
 10368 01c2 00000000 		.4byte	.LFB19
 10369 01c6 02000000 		.4byte	.LCFI19
 10370 01ca 0200     		.2byte	0x2
 10371 01cc 7D       		.byte	0x7d
 10372 01cd 00       		.sleb128 0
 10373 01ce 02000000 		.4byte	.LCFI19
 10374 01d2 04000000 		.4byte	.LCFI20
 10375 01d6 0200     		.2byte	0x2
 10376 01d8 7D       		.byte	0x7d
 10377 01d9 04       		.sleb128 4
 10378 01da 04000000 		.4byte	.LCFI20
 10379 01de 2C000000 		.4byte	.LFE19
 10380 01e2 0200     		.2byte	0x2
 10381 01e4 7D       		.byte	0x7d
 10382 01e5 20       		.sleb128 32
 10383 01e6 00000000 		.4byte	0
 10384 01ea 00000000 		.4byte	0
 10385              	.LLST12:
 10386 01ee 00000000 		.4byte	.LFB20
 10387 01f2 02000000 		.4byte	.LCFI21
 10388 01f6 0200     		.2byte	0x2
 10389 01f8 7D       		.byte	0x7d
 10390 01f9 00       		.sleb128 0
 10391 01fa 02000000 		.4byte	.LCFI21
 10392 01fe 04000000 		.4byte	.LCFI22
 10393 0202 0200     		.2byte	0x2
 10394 0204 7D       		.byte	0x7d
 10395 0205 04       		.sleb128 4
 10396 0206 04000000 		.4byte	.LCFI22
 10397 020a 08010000 		.4byte	.LFE20
 10398 020e 0200     		.2byte	0x2
 10399 0210 7D       		.byte	0x7d
ARM GAS  /tmp/cc2wa78n.s 			page 184


 10400 0211 28       		.sleb128 40
 10401 0212 00000000 		.4byte	0
 10402 0216 00000000 		.4byte	0
 10403              	.LLST13:
 10404 021a 00000000 		.4byte	.LFB21
 10405 021e 02000000 		.4byte	.LCFI23
 10406 0222 0200     		.2byte	0x2
 10407 0224 7D       		.byte	0x7d
 10408 0225 00       		.sleb128 0
 10409 0226 02000000 		.4byte	.LCFI23
 10410 022a 04000000 		.4byte	.LCFI24
 10411 022e 0200     		.2byte	0x2
 10412 0230 7D       		.byte	0x7d
 10413 0231 04       		.sleb128 4
 10414 0232 04000000 		.4byte	.LCFI24
 10415 0236 52010000 		.4byte	.LFE21
 10416 023a 0300     		.2byte	0x3
 10417 023c 7D       		.byte	0x7d
 10418 023d C000     		.sleb128 64
 10419 023f 00000000 		.4byte	0
 10420 0243 00000000 		.4byte	0
 10421              	.LLST14:
 10422 0247 00000000 		.4byte	.LFB22
 10423 024b 02000000 		.4byte	.LCFI25
 10424 024f 0200     		.2byte	0x2
 10425 0251 7D       		.byte	0x7d
 10426 0252 00       		.sleb128 0
 10427 0253 02000000 		.4byte	.LCFI25
 10428 0257 04000000 		.4byte	.LCFI26
 10429 025b 0200     		.2byte	0x2
 10430 025d 7D       		.byte	0x7d
 10431 025e 04       		.sleb128 4
 10432 025f 04000000 		.4byte	.LCFI26
 10433 0263 D0000000 		.4byte	.LFE22
 10434 0267 0200     		.2byte	0x2
 10435 0269 7D       		.byte	0x7d
 10436 026a 20       		.sleb128 32
 10437 026b 00000000 		.4byte	0
 10438 026f 00000000 		.4byte	0
 10439              	.LLST15:
 10440 0273 00000000 		.4byte	.LFB23
 10441 0277 02000000 		.4byte	.LCFI27
 10442 027b 0200     		.2byte	0x2
 10443 027d 7D       		.byte	0x7d
 10444 027e 00       		.sleb128 0
 10445 027f 02000000 		.4byte	.LCFI27
 10446 0283 04000000 		.4byte	.LCFI28
 10447 0287 0200     		.2byte	0x2
 10448 0289 7D       		.byte	0x7d
 10449 028a 04       		.sleb128 4
 10450 028b 04000000 		.4byte	.LCFI28
 10451 028f 20000000 		.4byte	.LFE23
 10452 0293 0200     		.2byte	0x2
 10453 0295 7D       		.byte	0x7d
 10454 0296 18       		.sleb128 24
 10455 0297 00000000 		.4byte	0
 10456 029b 00000000 		.4byte	0
ARM GAS  /tmp/cc2wa78n.s 			page 185


 10457              	.LLST16:
 10458 029f 00000000 		.4byte	.LFB24
 10459 02a3 02000000 		.4byte	.LCFI29
 10460 02a7 0200     		.2byte	0x2
 10461 02a9 7D       		.byte	0x7d
 10462 02aa 00       		.sleb128 0
 10463 02ab 02000000 		.4byte	.LCFI29
 10464 02af 04000000 		.4byte	.LCFI30
 10465 02b3 0200     		.2byte	0x2
 10466 02b5 7D       		.byte	0x7d
 10467 02b6 04       		.sleb128 4
 10468 02b7 04000000 		.4byte	.LCFI30
 10469 02bb 1C020000 		.4byte	.LFE24
 10470 02bf 0300     		.2byte	0x3
 10471 02c1 7D       		.byte	0x7d
 10472 02c2 C000     		.sleb128 64
 10473 02c4 00000000 		.4byte	0
 10474 02c8 00000000 		.4byte	0
 10475              	.LLST17:
 10476 02cc 00000000 		.4byte	.LFB25
 10477 02d0 02000000 		.4byte	.LCFI31
 10478 02d4 0200     		.2byte	0x2
 10479 02d6 7D       		.byte	0x7d
 10480 02d7 00       		.sleb128 0
 10481 02d8 02000000 		.4byte	.LCFI31
 10482 02dc 04000000 		.4byte	.LCFI32
 10483 02e0 0200     		.2byte	0x2
 10484 02e2 7D       		.byte	0x7d
 10485 02e3 04       		.sleb128 4
 10486 02e4 04000000 		.4byte	.LCFI32
 10487 02e8 BA030000 		.4byte	.LFE25
 10488 02ec 0300     		.2byte	0x3
 10489 02ee 7D       		.byte	0x7d
 10490 02ef F000     		.sleb128 112
 10491 02f1 00000000 		.4byte	0
 10492 02f5 00000000 		.4byte	0
 10493              	.LLST18:
 10494 02f9 00000000 		.4byte	.LFB26
 10495 02fd 02000000 		.4byte	.LCFI33
 10496 0301 0200     		.2byte	0x2
 10497 0303 7D       		.byte	0x7d
 10498 0304 00       		.sleb128 0
 10499 0305 02000000 		.4byte	.LCFI33
 10500 0309 04000000 		.4byte	.LCFI34
 10501 030d 0200     		.2byte	0x2
 10502 030f 7D       		.byte	0x7d
 10503 0310 04       		.sleb128 4
 10504 0311 04000000 		.4byte	.LCFI34
 10505 0315 16020000 		.4byte	.LFE26
 10506 0319 0200     		.2byte	0x2
 10507 031b 7D       		.byte	0x7d
 10508 031c 28       		.sleb128 40
 10509 031d 00000000 		.4byte	0
 10510 0321 00000000 		.4byte	0
 10511              	.LLST19:
 10512 0325 00000000 		.4byte	.LFB27
 10513 0329 02000000 		.4byte	.LCFI35
ARM GAS  /tmp/cc2wa78n.s 			page 186


 10514 032d 0200     		.2byte	0x2
 10515 032f 7D       		.byte	0x7d
 10516 0330 00       		.sleb128 0
 10517 0331 02000000 		.4byte	.LCFI35
 10518 0335 04000000 		.4byte	.LCFI36
 10519 0339 0200     		.2byte	0x2
 10520 033b 7D       		.byte	0x7d
 10521 033c 04       		.sleb128 4
 10522 033d 04000000 		.4byte	.LCFI36
 10523 0341 00010000 		.4byte	.LFE27
 10524 0345 0200     		.2byte	0x2
 10525 0347 7D       		.byte	0x7d
 10526 0348 20       		.sleb128 32
 10527 0349 00000000 		.4byte	0
 10528 034d 00000000 		.4byte	0
 10529              	.LLST20:
 10530 0351 00000000 		.4byte	.LFB28
 10531 0355 02000000 		.4byte	.LCFI37
 10532 0359 0200     		.2byte	0x2
 10533 035b 7D       		.byte	0x7d
 10534 035c 00       		.sleb128 0
 10535 035d 02000000 		.4byte	.LCFI37
 10536 0361 04000000 		.4byte	.LCFI38
 10537 0365 0200     		.2byte	0x2
 10538 0367 7D       		.byte	0x7d
 10539 0368 04       		.sleb128 4
 10540 0369 04000000 		.4byte	.LCFI38
 10541 036d BA000000 		.4byte	.LFE28
 10542 0371 0200     		.2byte	0x2
 10543 0373 7D       		.byte	0x7d
 10544 0374 30       		.sleb128 48
 10545 0375 00000000 		.4byte	0
 10546 0379 00000000 		.4byte	0
 10547              	.LLST21:
 10548 037d 00000000 		.4byte	.LFB29
 10549 0381 02000000 		.4byte	.LCFI39
 10550 0385 0200     		.2byte	0x2
 10551 0387 7D       		.byte	0x7d
 10552 0388 00       		.sleb128 0
 10553 0389 02000000 		.4byte	.LCFI39
 10554 038d 04000000 		.4byte	.LCFI40
 10555 0391 0200     		.2byte	0x2
 10556 0393 7D       		.byte	0x7d
 10557 0394 04       		.sleb128 4
 10558 0395 04000000 		.4byte	.LCFI40
 10559 0399 20000000 		.4byte	.LFE29
 10560 039d 0200     		.2byte	0x2
 10561 039f 7D       		.byte	0x7d
 10562 03a0 18       		.sleb128 24
 10563 03a1 00000000 		.4byte	0
 10564 03a5 00000000 		.4byte	0
 10565              	.LLST22:
 10566 03a9 00000000 		.4byte	.LFB30
 10567 03ad 02000000 		.4byte	.LCFI41
 10568 03b1 0200     		.2byte	0x2
 10569 03b3 7D       		.byte	0x7d
 10570 03b4 00       		.sleb128 0
ARM GAS  /tmp/cc2wa78n.s 			page 187


 10571 03b5 02000000 		.4byte	.LCFI41
 10572 03b9 04000000 		.4byte	.LCFI42
 10573 03bd 0200     		.2byte	0x2
 10574 03bf 7D       		.byte	0x7d
 10575 03c0 04       		.sleb128 4
 10576 03c1 04000000 		.4byte	.LCFI42
 10577 03c5 20000000 		.4byte	.LFE30
 10578 03c9 0200     		.2byte	0x2
 10579 03cb 7D       		.byte	0x7d
 10580 03cc 18       		.sleb128 24
 10581 03cd 00000000 		.4byte	0
 10582 03d1 00000000 		.4byte	0
 10583              	.LLST23:
 10584 03d5 00000000 		.4byte	.LFB31
 10585 03d9 02000000 		.4byte	.LCFI43
 10586 03dd 0200     		.2byte	0x2
 10587 03df 7D       		.byte	0x7d
 10588 03e0 00       		.sleb128 0
 10589 03e1 02000000 		.4byte	.LCFI43
 10590 03e5 04000000 		.4byte	.LCFI44
 10591 03e9 0200     		.2byte	0x2
 10592 03eb 7D       		.byte	0x7d
 10593 03ec 04       		.sleb128 4
 10594 03ed 04000000 		.4byte	.LCFI44
 10595 03f1 CA010000 		.4byte	.LFE31
 10596 03f5 0200     		.2byte	0x2
 10597 03f7 7D       		.byte	0x7d
 10598 03f8 38       		.sleb128 56
 10599 03f9 00000000 		.4byte	0
 10600 03fd 00000000 		.4byte	0
 10601              	.LLST24:
 10602 0401 00000000 		.4byte	.LFB32
 10603 0405 02000000 		.4byte	.LCFI45
 10604 0409 0200     		.2byte	0x2
 10605 040b 7D       		.byte	0x7d
 10606 040c 00       		.sleb128 0
 10607 040d 02000000 		.4byte	.LCFI45
 10608 0411 04000000 		.4byte	.LCFI46
 10609 0415 0200     		.2byte	0x2
 10610 0417 7D       		.byte	0x7d
 10611 0418 04       		.sleb128 4
 10612 0419 04000000 		.4byte	.LCFI46
 10613 041d C4010000 		.4byte	.LFE32
 10614 0421 0200     		.2byte	0x2
 10615 0423 7D       		.byte	0x7d
 10616 0424 28       		.sleb128 40
 10617 0425 00000000 		.4byte	0
 10618 0429 00000000 		.4byte	0
 10619              	.LLST25:
 10620 042d 00000000 		.4byte	.LFB33
 10621 0431 02000000 		.4byte	.LCFI47
 10622 0435 0200     		.2byte	0x2
 10623 0437 7D       		.byte	0x7d
 10624 0438 00       		.sleb128 0
 10625 0439 02000000 		.4byte	.LCFI47
 10626 043d 04000000 		.4byte	.LCFI48
 10627 0441 0200     		.2byte	0x2
ARM GAS  /tmp/cc2wa78n.s 			page 188


 10628 0443 7D       		.byte	0x7d
 10629 0444 04       		.sleb128 4
 10630 0445 04000000 		.4byte	.LCFI48
 10631 0449 A0010000 		.4byte	.LFE33
 10632 044d 0200     		.2byte	0x2
 10633 044f 7D       		.byte	0x7d
 10634 0450 38       		.sleb128 56
 10635 0451 00000000 		.4byte	0
 10636 0455 00000000 		.4byte	0
 10637              	.LLST26:
 10638 0459 00000000 		.4byte	.LFB34
 10639 045d 02000000 		.4byte	.LCFI49
 10640 0461 0200     		.2byte	0x2
 10641 0463 7D       		.byte	0x7d
 10642 0464 00       		.sleb128 0
 10643 0465 02000000 		.4byte	.LCFI49
 10644 0469 04000000 		.4byte	.LCFI50
 10645 046d 0200     		.2byte	0x2
 10646 046f 7D       		.byte	0x7d
 10647 0470 04       		.sleb128 4
 10648 0471 04000000 		.4byte	.LCFI50
 10649 0475 8A010000 		.4byte	.LFE34
 10650 0479 0200     		.2byte	0x2
 10651 047b 7D       		.byte	0x7d
 10652 047c 28       		.sleb128 40
 10653 047d 00000000 		.4byte	0
 10654 0481 00000000 		.4byte	0
 10655              	.LLST27:
 10656 0485 00000000 		.4byte	.LFB35
 10657 0489 02000000 		.4byte	.LCFI51
 10658 048d 0200     		.2byte	0x2
 10659 048f 7D       		.byte	0x7d
 10660 0490 00       		.sleb128 0
 10661 0491 02000000 		.4byte	.LCFI51
 10662 0495 04000000 		.4byte	.LCFI52
 10663 0499 0200     		.2byte	0x2
 10664 049b 7D       		.byte	0x7d
 10665 049c 04       		.sleb128 4
 10666 049d 04000000 		.4byte	.LCFI52
 10667 04a1 9A000000 		.4byte	.LFE35
 10668 04a5 0200     		.2byte	0x2
 10669 04a7 7D       		.byte	0x7d
 10670 04a8 20       		.sleb128 32
 10671 04a9 00000000 		.4byte	0
 10672 04ad 00000000 		.4byte	0
 10673              	.LLST28:
 10674 04b1 00000000 		.4byte	.LFB36
 10675 04b5 02000000 		.4byte	.LCFI53
 10676 04b9 0200     		.2byte	0x2
 10677 04bb 7D       		.byte	0x7d
 10678 04bc 00       		.sleb128 0
 10679 04bd 02000000 		.4byte	.LCFI53
 10680 04c1 04000000 		.4byte	.LCFI54
 10681 04c5 0200     		.2byte	0x2
 10682 04c7 7D       		.byte	0x7d
 10683 04c8 04       		.sleb128 4
 10684 04c9 04000000 		.4byte	.LCFI54
ARM GAS  /tmp/cc2wa78n.s 			page 189


 10685 04cd A0000000 		.4byte	.LFE36
 10686 04d1 0200     		.2byte	0x2
 10687 04d3 7D       		.byte	0x7d
 10688 04d4 20       		.sleb128 32
 10689 04d5 00000000 		.4byte	0
 10690 04d9 00000000 		.4byte	0
 10691              		.section	.debug_aranges,"",%progbits
 10692 0000 04010000 		.4byte	0x104
 10693 0004 0200     		.2byte	0x2
 10694 0006 00000000 		.4byte	.Ldebug_info0
 10695 000a 04       		.byte	0x4
 10696 000b 00       		.byte	0
 10697 000c 0000     		.2byte	0
 10698 000e 0000     		.2byte	0
 10699 0010 00000000 		.4byte	.LFB7
 10700 0014 02000000 		.4byte	.LFE7-.LFB7
 10701 0018 00000000 		.4byte	.LFB8
 10702 001c 48000000 		.4byte	.LFE8-.LFB8
 10703 0020 00000000 		.4byte	.LFB9
 10704 0024 5A000000 		.4byte	.LFE9-.LFB9
 10705 0028 00000000 		.4byte	.LFB10
 10706 002c 6E010000 		.4byte	.LFE10-.LFB10
 10707 0030 00000000 		.4byte	.LFB11
 10708 0034 4C000000 		.4byte	.LFE11-.LFB11
 10709 0038 00000000 		.4byte	.LFB12
 10710 003c 26020000 		.4byte	.LFE12-.LFB12
 10711 0040 00000000 		.4byte	.LFB13
 10712 0044 CE000000 		.4byte	.LFE13-.LFB13
 10713 0048 00000000 		.4byte	.LFB14
 10714 004c 64000000 		.4byte	.LFE14-.LFB14
 10715 0050 00000000 		.4byte	.LFB15
 10716 0054 E8000000 		.4byte	.LFE15-.LFB15
 10717 0058 00000000 		.4byte	.LFB16
 10718 005c 92000000 		.4byte	.LFE16-.LFB16
 10719 0060 00000000 		.4byte	.LFB17
 10720 0064 54030000 		.4byte	.LFE17-.LFB17
 10721 0068 00000000 		.4byte	.LFB18
 10722 006c 2C000000 		.4byte	.LFE18-.LFB18
 10723 0070 00000000 		.4byte	.LFB19
 10724 0074 2C000000 		.4byte	.LFE19-.LFB19
 10725 0078 00000000 		.4byte	.LFB20
 10726 007c 08010000 		.4byte	.LFE20-.LFB20
 10727 0080 00000000 		.4byte	.LFB21
 10728 0084 52010000 		.4byte	.LFE21-.LFB21
 10729 0088 00000000 		.4byte	.LFB22
 10730 008c D0000000 		.4byte	.LFE22-.LFB22
 10731 0090 00000000 		.4byte	.LFB23
 10732 0094 20000000 		.4byte	.LFE23-.LFB23
 10733 0098 00000000 		.4byte	.LFB24
 10734 009c 1C020000 		.4byte	.LFE24-.LFB24
 10735 00a0 00000000 		.4byte	.LFB25
 10736 00a4 BA030000 		.4byte	.LFE25-.LFB25
 10737 00a8 00000000 		.4byte	.LFB26
 10738 00ac 16020000 		.4byte	.LFE26-.LFB26
 10739 00b0 00000000 		.4byte	.LFB27
 10740 00b4 00010000 		.4byte	.LFE27-.LFB27
 10741 00b8 00000000 		.4byte	.LFB28
ARM GAS  /tmp/cc2wa78n.s 			page 190


 10742 00bc BA000000 		.4byte	.LFE28-.LFB28
 10743 00c0 00000000 		.4byte	.LFB29
 10744 00c4 20000000 		.4byte	.LFE29-.LFB29
 10745 00c8 00000000 		.4byte	.LFB30
 10746 00cc 20000000 		.4byte	.LFE30-.LFB30
 10747 00d0 00000000 		.4byte	.LFB31
 10748 00d4 CA010000 		.4byte	.LFE31-.LFB31
 10749 00d8 00000000 		.4byte	.LFB32
 10750 00dc C4010000 		.4byte	.LFE32-.LFB32
 10751 00e0 00000000 		.4byte	.LFB33
 10752 00e4 A0010000 		.4byte	.LFE33-.LFB33
 10753 00e8 00000000 		.4byte	.LFB34
 10754 00ec 8A010000 		.4byte	.LFE34-.LFB34
 10755 00f0 00000000 		.4byte	.LFB35
 10756 00f4 9A000000 		.4byte	.LFE35-.LFB35
 10757 00f8 00000000 		.4byte	.LFB36
 10758 00fc A0000000 		.4byte	.LFE36-.LFB36
 10759 0100 00000000 		.4byte	0
 10760 0104 00000000 		.4byte	0
 10761              		.section	.debug_ranges,"",%progbits
 10762              	.Ldebug_ranges0:
 10763 0000 00000000 		.4byte	.LFB7
 10764 0004 02000000 		.4byte	.LFE7
 10765 0008 00000000 		.4byte	.LFB8
 10766 000c 48000000 		.4byte	.LFE8
 10767 0010 00000000 		.4byte	.LFB9
 10768 0014 5A000000 		.4byte	.LFE9
 10769 0018 00000000 		.4byte	.LFB10
 10770 001c 6E010000 		.4byte	.LFE10
 10771 0020 00000000 		.4byte	.LFB11
 10772 0024 4C000000 		.4byte	.LFE11
 10773 0028 00000000 		.4byte	.LFB12
 10774 002c 26020000 		.4byte	.LFE12
 10775 0030 00000000 		.4byte	.LFB13
 10776 0034 CE000000 		.4byte	.LFE13
 10777 0038 00000000 		.4byte	.LFB14
 10778 003c 64000000 		.4byte	.LFE14
 10779 0040 00000000 		.4byte	.LFB15
 10780 0044 E8000000 		.4byte	.LFE15
 10781 0048 00000000 		.4byte	.LFB16
 10782 004c 92000000 		.4byte	.LFE16
 10783 0050 00000000 		.4byte	.LFB17
 10784 0054 54030000 		.4byte	.LFE17
 10785 0058 00000000 		.4byte	.LFB18
 10786 005c 2C000000 		.4byte	.LFE18
 10787 0060 00000000 		.4byte	.LFB19
 10788 0064 2C000000 		.4byte	.LFE19
 10789 0068 00000000 		.4byte	.LFB20
 10790 006c 08010000 		.4byte	.LFE20
 10791 0070 00000000 		.4byte	.LFB21
 10792 0074 52010000 		.4byte	.LFE21
 10793 0078 00000000 		.4byte	.LFB22
 10794 007c D0000000 		.4byte	.LFE22
 10795 0080 00000000 		.4byte	.LFB23
 10796 0084 20000000 		.4byte	.LFE23
 10797 0088 00000000 		.4byte	.LFB24
 10798 008c 1C020000 		.4byte	.LFE24
ARM GAS  /tmp/cc2wa78n.s 			page 191


 10799 0090 00000000 		.4byte	.LFB25
 10800 0094 BA030000 		.4byte	.LFE25
 10801 0098 00000000 		.4byte	.LFB26
 10802 009c 16020000 		.4byte	.LFE26
 10803 00a0 00000000 		.4byte	.LFB27
 10804 00a4 00010000 		.4byte	.LFE27
 10805 00a8 00000000 		.4byte	.LFB28
 10806 00ac BA000000 		.4byte	.LFE28
 10807 00b0 00000000 		.4byte	.LFB29
 10808 00b4 20000000 		.4byte	.LFE29
 10809 00b8 00000000 		.4byte	.LFB30
 10810 00bc 20000000 		.4byte	.LFE30
 10811 00c0 00000000 		.4byte	.LFB31
 10812 00c4 CA010000 		.4byte	.LFE31
 10813 00c8 00000000 		.4byte	.LFB32
 10814 00cc C4010000 		.4byte	.LFE32
 10815 00d0 00000000 		.4byte	.LFB33
 10816 00d4 A0010000 		.4byte	.LFE33
 10817 00d8 00000000 		.4byte	.LFB34
 10818 00dc 8A010000 		.4byte	.LFE34
 10819 00e0 00000000 		.4byte	.LFB35
 10820 00e4 9A000000 		.4byte	.LFE35
 10821 00e8 00000000 		.4byte	.LFB36
 10822 00ec A0000000 		.4byte	.LFE36
 10823 00f0 00000000 		.4byte	0
 10824 00f4 00000000 		.4byte	0
 10825              		.section	.debug_line,"",%progbits
 10826              	.Ldebug_line0:
 10827 0000 7D0B0000 		.section	.debug_str,"MS",%progbits,1
 10827      0200C902 
 10827      00000201 
 10827      FB0E0D00 
 10827      01010101 
 10828              	.LASF288:
 10829 0000 6C657863 		.ascii	"lexceptset\000"
 10829      65707473 
 10829      657400
 10830              	.LASF2:
 10831 000b 696E7438 		.ascii	"int8_t\000"
 10831      5F7400
 10832              	.LASF1:
 10833 0012 73697A65 		.ascii	"size_t\000"
 10833      5F7400
 10834              	.LASF91:
 10835 0019 73615F66 		.ascii	"sa_family\000"
 10835      616D696C 
 10835      7900
 10836              	.LASF244:
 10837 0023 6E616464 		.ascii	"naddr\000"
 10837      7200
 10838              	.LASF24:
 10839 0029 73797374 		.ascii	"systime_t\000"
 10839      696D655F 
 10839      7400
 10840              	.LASF151:
 10841 0033 7263765F 		.ascii	"rcv_ann_wnd\000"
 10841      616E6E5F 
ARM GAS  /tmp/cc2wa78n.s 			page 192


 10841      776E6400 
 10842              	.LASF30:
 10843 003f 705F6374 		.ascii	"p_ctx\000"
 10843      7800
 10844              	.LASF21:
 10845 0045 74707269 		.ascii	"tprio_t\000"
 10845      6F5F7400 
 10846              	.LASF236:
 10847 004d 6765745F 		.ascii	"get_socket\000"
 10847      736F636B 
 10847      657400
 10848              	.LASF41:
 10849 0058 705F6D73 		.ascii	"p_msgqueue\000"
 10849      67717565 
 10849      756500
 10850              	.LASF211:
 10851 0063 70726F74 		.ascii	"proto\000"
 10851      6F00
 10852              	.LASF10:
 10853 0069 696E7433 		.ascii	"int32_t\000"
 10853      325F7400 
 10854              	.LASF85:
 10855 0071 73696E5F 		.ascii	"sin_family\000"
 10855      66616D69 
 10855      6C7900
 10856              	.LASF250:
 10857 007c 6C6F6361 		.ascii	"local_addr\000"
 10857      6C5F6164 
 10857      647200
 10858              	.LASF87:
 10859 0087 73696E5F 		.ascii	"sin_addr\000"
 10859      61646472 
 10859      00
 10860              	.LASF252:
 10861 0090 6C776970 		.ascii	"lwip_close\000"
 10861      5F636C6F 
 10861      736500
 10862              	.LASF317:
 10863 009b 474E5520 		.ascii	"GNU C 4.6.2 20120613 (release) [ARM/embedded-4_6-br"
 10863      4320342E 
 10863      362E3220 
 10863      32303132 
 10863      30363133 
 10864 00ce 616E6368 		.ascii	"anch revision 188521]\000"
 10864      20726576 
 10864      6973696F 
 10864      6E203138 
 10864      38353231 
 10865              	.LASF150:
 10866 00e4 7263765F 		.ascii	"rcv_wnd\000"
 10866      776E6400 
 10867              	.LASF142:
 10868 00ec 736F5F6F 		.ascii	"so_options\000"
 10868      7074696F 
 10868      6E7300
 10869              	.LASF316:
 10870 00f7 6572725F 		.ascii	"err_to_errno_table\000"
ARM GAS  /tmp/cc2wa78n.s 			page 193


 10870      746F5F65 
 10870      72726E6F 
 10870      5F746162 
 10870      6C6500
 10871              	.LASF60:
 10872 010a 6D625F62 		.ascii	"mb_buffer\000"
 10872      75666665 
 10872      7200
 10873              	.LASF258:
 10874 0114 66726F6D 		.ascii	"from\000"
 10874      00
 10875              	.LASF199:
 10876 0119 4C495354 		.ascii	"LISTEN\000"
 10876      454E00
 10877              	.LASF130:
 10878 0120 73746174 		.ascii	"state\000"
 10878      6500
 10879              	.LASF279:
 10880 0126 72656164 		.ascii	"readset_in\000"
 10880      7365745F 
 10880      696E00
 10881              	.LASF218:
 10882 0131 6C617374 		.ascii	"lastdata\000"
 10882      64617461 
 10882      00
 10883              	.LASF162:
 10884 013a 73737468 		.ascii	"ssthresh\000"
 10884      72657368 
 10884      00
 10885              	.LASF103:
 10886 0143 74797065 		.ascii	"type\000"
 10886      00
 10887              	.LASF213:
 10888 0148 6C6F6361 		.ascii	"local\000"
 10888      6C00
 10889              	.LASF228:
 10890 014e 65786365 		.ascii	"exceptset\000"
 10890      70747365 
 10890      7400
 10891              	.LASF208:
 10892 0158 54494D45 		.ascii	"TIME_WAIT\000"
 10892      5F574149 
 10892      5400
 10893              	.LASF190:
 10894 0162 636F6E6E 		.ascii	"conn\000"
 10894      00
 10895              	.LASF197:
 10896 0167 7463705F 		.ascii	"tcp_state\000"
 10896      73746174 
 10896      6500
 10897              	.LASF109:
 10898 0171 4E455443 		.ascii	"NETCONN_INVALID\000"
 10898      4F4E4E5F 
 10898      494E5641 
 10898      4C494400 
 10899              	.LASF144:
 10900 0181 7072696F 		.ascii	"prio\000"
ARM GAS  /tmp/cc2wa78n.s 			page 194


 10900      00
 10901              	.LASF58:
 10902 0186 6D5F6F77 		.ascii	"m_owner\000"
 10902      6E657200 
 10903              	.LASF153:
 10904 018e 706F6C6C 		.ascii	"polltmr\000"
 10904      746D7200 
 10905              	.LASF68:
 10906 0196 65786974 		.ascii	"exitcode\000"
 10906      636F6465 
 10906      00
 10907              	.LASF70:
 10908 019f 65776D61 		.ascii	"ewmask\000"
 10908      736B00
 10909              	.LASF129:
 10910 01a6 6E657463 		.ascii	"netconn\000"
 10910      6F6E6E00 
 10911              	.LASF212:
 10912 01ae 69706164 		.ascii	"ipaddr\000"
 10912      647200
 10913              	.LASF132:
 10914 01b5 6F705F63 		.ascii	"op_completed\000"
 10914      6F6D706C 
 10914      65746564 
 10914      00
 10915              	.LASF31:
 10916 01c2 705F6E65 		.ascii	"p_newer\000"
 10916      77657200 
 10917              	.LASF127:
 10918 01ca 4E455443 		.ascii	"NETCONN_EVT_ERROR\000"
 10918      4F4E4E5F 
 10918      4556545F 
 10918      4552524F 
 10918      5200
 10919              	.LASF11:
 10920 01dc 6C6F6E67 		.ascii	"long int\000"
 10920      20696E74 
 10920      00
 10921              	.LASF27:
 10922 01e5 705F6E65 		.ascii	"p_next\000"
 10922      787400
 10923              	.LASF239:
 10924 01ec 6E657763 		.ascii	"newconn\000"
 10924      6F6E6E00 
 10925              	.LASF28:
 10926 01f4 705F7072 		.ascii	"p_prev\000"
 10926      657600
 10927              	.LASF118:
 10928 01fb 4E455443 		.ascii	"NETCONN_WRITE\000"
 10928      4F4E4E5F 
 10928      57524954 
 10928      4500
 10929              	.LASF297:
 10930 0209 72657475 		.ascii	"return_copy_fdsets\000"
 10930      726E5F63 
 10930      6F70795F 
 10930      66647365 
ARM GAS  /tmp/cc2wa78n.s 			page 195


 10930      747300
 10931              	.LASF107:
 10932 021c 7379735F 		.ascii	"sys_sem_t\000"
 10932      73656D5F 
 10932      7400
 10933              	.LASF269:
 10934 0226 77726974 		.ascii	"write_flags\000"
 10934      655F666C 
 10934      61677300 
 10935              	.LASF18:
 10936 0232 74737461 		.ascii	"tstate_t\000"
 10936      74655F74 
 10936      00
 10937              	.LASF44:
 10938 023b 705F6D74 		.ascii	"p_mtxlist\000"
 10938      786C6973 
 10938      7400
 10939              	.LASF84:
 10940 0245 73696E5F 		.ascii	"sin_len\000"
 10940      6C656E00 
 10941              	.LASF49:
 10942 024d 72656761 		.ascii	"regarm_t\000"
 10942      726D5F74 
 10942      00
 10943              	.LASF202:
 10944 0256 45535441 		.ascii	"ESTABLISHED\000"
 10944      424C4953 
 10944      48454400 
 10945              	.LASF275:
 10946 0262 646F6D61 		.ascii	"domain\000"
 10946      696E00
 10947              	.LASF122:
 10948 0269 6E657463 		.ascii	"netconn_evt\000"
 10948      6F6E6E5F 
 10948      65767400 
 10949              	.LASF209:
 10950 0275 7261775F 		.ascii	"raw_recv_fn\000"
 10950      72656376 
 10950      5F666E00 
 10951              	.LASF193:
 10952 0281 7463705F 		.ascii	"tcp_sent_fn\000"
 10952      73656E74 
 10952      5F666E00 
 10953              	.LASF256:
 10954 028d 6261636B 		.ascii	"backlog\000"
 10954      6C6F6700 
 10955              	.LASF219:
 10956 0295 6C617374 		.ascii	"lastoffset\000"
 10956      6F666673 
 10956      657400
 10957              	.LASF195:
 10958 02a0 7463705F 		.ascii	"tcp_err_fn\000"
 10958      6572725F 
 10958      666E00
 10959              	.LASF3:
 10960 02ab 7369676E 		.ascii	"signed char\000"
 10960      65642063 
ARM GAS  /tmp/cc2wa78n.s 			page 196


 10960      68617200 
 10961              	.LASF38:
 10962 02b7 705F7072 		.ascii	"p_preempt\000"
 10962      65656D70 
 10962      7400
 10963              	.LASF4:
 10964 02c1 75696E74 		.ascii	"uint8_t\000"
 10964      385F7400 
 10965              	.LASF184:
 10966 02c9 6B656570 		.ascii	"keep_cnt_sent\000"
 10966      5F636E74 
 10966      5F73656E 
 10966      7400
 10967              	.LASF266:
 10968 02d7 6C776970 		.ascii	"lwip_send\000"
 10968      5F73656E 
 10968      6400
 10969              	.LASF63:
 10970 02e1 6D625F72 		.ascii	"mb_rdptr\000"
 10970      64707472 
 10970      00
 10971              	.LASF249:
 10972 02ea 6E616D65 		.ascii	"namelen\000"
 10972      6C656E00 
 10973              	.LASF23:
 10974 02f2 6576656E 		.ascii	"eventmask_t\000"
 10974      746D6173 
 10974      6B5F7400 
 10975              	.LASF261:
 10976 02fe 636F7079 		.ascii	"copylen\000"
 10976      6C656E00 
 10977              	.LASF52:
 10978 0306 636F6E74 		.ascii	"context\000"
 10978      65787400 
 10979              	.LASF140:
 10980 030e 6C6F6361 		.ascii	"local_ip\000"
 10980      6C5F6970 
 10980      00
 10981              	.LASF5:
 10982 0317 756E7369 		.ascii	"unsigned char\000"
 10982      676E6564 
 10982      20636861 
 10982      7200
 10983              	.LASF295:
 10984 0325 6576656E 		.ascii	"event_callback\000"
 10984      745F6361 
 10984      6C6C6261 
 10984      636B00
 10985              	.LASF319:
 10986 0334 2F686F6D 		.ascii	"/home/texzk/ChibiStudio/chibios/demos/ARMCM3-STM32F"
 10986      652F7465 
 10986      787A6B2F 
 10986      43686962 
 10986      69537475 
 10987 0367 3230372D 		.ascii	"207-STM3220G-LWIP\000"
 10987      53544D33 
 10987      32323047 
ARM GAS  /tmp/cc2wa78n.s 			page 197


 10987      2D4C5749 
 10987      5000
 10988              	.LASF310:
 10989 0379 6C776970 		.ascii	"lwip_ioctl\000"
 10989      5F696F63 
 10989      746C00
 10990              	.LASF222:
 10991 0384 65727265 		.ascii	"errevent\000"
 10991      76656E74 
 10991      00
 10992              	.LASF203:
 10993 038d 46494E5F 		.ascii	"FIN_WAIT_1\000"
 10993      57414954 
 10993      5F3100
 10994              	.LASF204:
 10995 0398 46494E5F 		.ascii	"FIN_WAIT_2\000"
 10995      57414954 
 10995      5F3200
 10996              	.LASF110:
 10997 03a3 4E455443 		.ascii	"NETCONN_TCP\000"
 10997      4F4E4E5F 
 10997      54435000 
 10998              	.LASF200:
 10999 03af 53594E5F 		.ascii	"SYN_SENT\000"
 10999      53454E54 
 10999      00
 11000              	.LASF71:
 11001 03b8 63686172 		.ascii	"char\000"
 11001      00
 11002              	.LASF99:
 11003 03bd 70627566 		.ascii	"pbuf\000"
 11003      00
 11004              	.LASF280:
 11005 03c2 77726974 		.ascii	"writeset_in\000"
 11005      65736574 
 11005      5F696E00 
 11006              	.LASF29:
 11007 03ce 705F7072 		.ascii	"p_prio\000"
 11007      696F00
 11008              	.LASF207:
 11009 03d5 4C415354 		.ascii	"LAST_ACK\000"
 11009      5F41434B 
 11009      00
 11010              	.LASF243:
 11011 03de 6E736F63 		.ascii	"nsock\000"
 11011      6B00
 11012              	.LASF65:
 11013 03e4 6D625F65 		.ascii	"mb_emptysem\000"
 11013      6D707479 
 11013      73656D00 
 11014              	.LASF226:
 11015 03f0 72656164 		.ascii	"readset\000"
 11015      73657400 
 11016              	.LASF69:
 11017 03f8 77746F62 		.ascii	"wtobjp\000"
 11017      6A7000
 11018              	.LASF95:
ARM GAS  /tmp/cc2wa78n.s 			page 198


 11019 03ff 74696D65 		.ascii	"timeval\000"
 11019      76616C00 
 11020              	.LASF185:
 11021 0407 7564705F 		.ascii	"udp_pcb\000"
 11021      70636200 
 11022              	.LASF300:
 11023 040f 6C776970 		.ascii	"lwip_shutdown\000"
 11023      5F736875 
 11023      74646F77 
 11023      6E00
 11024              	.LASF147:
 11025 041d 6C6F6361 		.ascii	"local_port\000"
 11025      6C5F706F 
 11025      727400
 11026              	.LASF86:
 11027 0428 73696E5F 		.ascii	"sin_port\000"
 11027      706F7274 
 11027      00
 11028              	.LASF115:
 11029 0431 6E657463 		.ascii	"netconn_type\000"
 11029      6F6E6E5F 
 11029      74797065 
 11029      00
 11030              	.LASF291:
 11031 043e 77616974 		.ascii	"waitres\000"
 11031      72657300 
 11032              	.LASF223:
 11033 0446 73656C65 		.ascii	"select_waiting\000"
 11033      63745F77 
 11033      61697469 
 11033      6E6700
 11034              	.LASF104:
 11035 0455 666C6167 		.ascii	"flags\000"
 11035      7300
 11036              	.LASF253:
 11037 045b 6C776970 		.ascii	"lwip_connect\000"
 11037      5F636F6E 
 11037      6E656374 
 11037      00
 11038              	.LASF143:
 11039 0468 7463705F 		.ascii	"tcp_pcb\000"
 11039      70636200 
 11040              	.LASF105:
 11041 0470 6E657462 		.ascii	"netbuf\000"
 11041      756600
 11042              	.LASF283:
 11043 0477 77726974 		.ascii	"writeset_out\000"
 11043      65736574 
 11043      5F6F7574 
 11043      00
 11044              	.LASF50:
 11045 0484 73746B61 		.ascii	"stkalign_t\000"
 11045      6C69676E 
 11045      5F7400
 11046              	.LASF217:
 11047 048f 6C776970 		.ascii	"lwip_sock\000"
 11047      5F736F63 
ARM GAS  /tmp/cc2wa78n.s 			page 199


 11047      6B00
 11048              	.LASF156:
 11049 0499 72747465 		.ascii	"rttest\000"
 11049      737400
 11050              	.LASF78:
 11051 04a0 69705F61 		.ascii	"ip_addr\000"
 11051      64647200 
 11052              	.LASF216:
 11053 04a8 73687574 		.ascii	"shut\000"
 11053      00
 11054              	.LASF88:
 11055 04ad 73696E5F 		.ascii	"sin_zero\000"
 11055      7A65726F 
 11055      00
 11056              	.LASF113:
 11057 04b6 4E455443 		.ascii	"NETCONN_UDPNOCHKSUM\000"
 11057      4F4E4E5F 
 11057      5544504E 
 11057      4F43484B 
 11057      53554D00 
 11058              	.LASF281:
 11059 04ca 65786365 		.ascii	"exceptset_in\000"
 11059      70747365 
 11059      745F696E 
 11059      00
 11060              	.LASF167:
 11061 04d7 736E645F 		.ascii	"snd_lbb\000"
 11061      6C626200 
 11062              	.LASF306:
 11063 04df 6C776970 		.ascii	"lwip_getsockopt\000"
 11063      5F676574 
 11063      736F636B 
 11063      6F707400 
 11064              	.LASF25:
 11065 04ef 636E745F 		.ascii	"cnt_t\000"
 11065      7400
 11066              	.LASF182:
 11067 04f5 70657273 		.ascii	"persist_cnt\000"
 11067      6973745F 
 11067      636E7400 
 11068              	.LASF205:
 11069 0501 434C4F53 		.ascii	"CLOSE_WAIT\000"
 11069      455F5741 
 11069      495400
 11070              	.LASF224:
 11071 050c 6C776970 		.ascii	"lwip_select_cb\000"
 11071      5F73656C 
 11071      6563745F 
 11071      636200
 11072              	.LASF152:
 11073 051b 7263765F 		.ascii	"rcv_ann_right_edge\000"
 11073      616E6E5F 
 11073      72696768 
 11073      745F6564 
 11073      676500
 11074              	.LASF51:
 11075 052e 696E7463 		.ascii	"intctx\000"
ARM GAS  /tmp/cc2wa78n.s 			page 200


 11075      747800
 11076              	.LASF313:
 11077 0535 736F636B 		.ascii	"sockets\000"
 11077      65747300 
 11078              	.LASF97:
 11079 053d 74765F75 		.ascii	"tv_usec\000"
 11079      73656300 
 11080              	.LASF43:
 11081 0545 705F6570 		.ascii	"p_epending\000"
 11081      656E6469 
 11081      6E6700
 11082              	.LASF157:
 11083 0550 72747365 		.ascii	"rtseq\000"
 11083      7100
 11084              	.LASF242:
 11085 0556 61646472 		.ascii	"addrlen\000"
 11085      6C656E00 
 11086              	.LASF307:
 11087 055e 6C776970 		.ascii	"lwip_getsockopt_internal\000"
 11087      5F676574 
 11087      736F636B 
 11087      6F70745F 
 11087      696E7465 
 11088              	.LASF245:
 11089 0577 6E657773 		.ascii	"newsock\000"
 11089      6F636B00 
 11090              	.LASF304:
 11091 057f 6C776970 		.ascii	"lwip_getpeername\000"
 11091      5F676574 
 11091      70656572 
 11091      6E616D65 
 11091      00
 11092              	.LASF238:
 11093 0590 616C6C6F 		.ascii	"alloc_socket\000"
 11093      635F736F 
 11093      636B6574 
 11093      00
 11094              	.LASF66:
 11095 059d 4D61696C 		.ascii	"Mailbox\000"
 11095      626F7800 
 11096              	.LASF121:
 11097 05a5 4E455443 		.ascii	"NETCONN_CLOSE\000"
 11097      4F4E4E5F 
 11097      434C4F53 
 11097      4500
 11098              	.LASF137:
 11099 05b3 63757272 		.ascii	"current_msg\000"
 11099      656E745F 
 11099      6D736700 
 11100              	.LASF13:
 11101 05bf 6C6F6E67 		.ascii	"long unsigned int\000"
 11101      20756E73 
 11101      69676E65 
 11101      6420696E 
 11101      7400
 11102              	.LASF125:
 11103 05d1 4E455443 		.ascii	"NETCONN_EVT_SENDPLUS\000"
ARM GAS  /tmp/cc2wa78n.s 			page 201


 11103      4F4E4E5F 
 11103      4556545F 
 11103      53454E44 
 11103      504C5553 
 11104              	.LASF289:
 11105 05e6 6C776970 		.ascii	"lwip_select\000"
 11105      5F73656C 
 11105      65637400 
 11106              	.LASF254:
 11107 05f2 72656D6F 		.ascii	"remote_addr\000"
 11107      74655F61 
 11107      64647200 
 11108              	.LASF194:
 11109 05fe 7463705F 		.ascii	"tcp_poll_fn\000"
 11109      706F6C6C 
 11109      5F666E00 
 11110              	.LASF134:
 11111 060a 61636365 		.ascii	"acceptmbox\000"
 11111      70746D62 
 11111      6F7800
 11112              	.LASF138:
 11113 0615 63616C6C 		.ascii	"callback\000"
 11113      6261636B 
 11113      00
 11114              	.LASF101:
 11115 061e 7061796C 		.ascii	"payload\000"
 11115      6F616400 
 11116              	.LASF158:
 11117 0626 6E727478 		.ascii	"nrtx\000"
 11117      00
 11118              	.LASF311:
 11119 062b 61726770 		.ascii	"argp\000"
 11119      00
 11120              	.LASF240:
 11121 0630 61636365 		.ascii	"accepted\000"
 11121      70746564 
 11121      00
 11122              	.LASF64:
 11123 0639 6D625F66 		.ascii	"mb_fullsem\000"
 11123      756C6C73 
 11123      656D00
 11124              	.LASF159:
 11125 0644 6C617374 		.ascii	"lastack\000"
 11125      61636B00 
 11126              	.LASF163:
 11127 064c 736E645F 		.ascii	"snd_nxt\000"
 11127      6E787400 
 11128              	.LASF255:
 11129 0654 6C776970 		.ascii	"lwip_listen\000"
 11129      5F6C6973 
 11129      74656E00 
 11130              	.LASF108:
 11131 0660 7379735F 		.ascii	"sys_mbox_t\000"
 11131      6D626F78 
 11131      5F7400
 11132              	.LASF56:
 11133 066b 4D757465 		.ascii	"Mutex\000"
ARM GAS  /tmp/cc2wa78n.s 			page 202


 11133      7800
 11134              	.LASF111:
 11135 0671 4E455443 		.ascii	"NETCONN_UDP\000"
 11135      4F4E4E5F 
 11135      55445000 
 11136              	.LASF188:
 11137 067d 70726F74 		.ascii	"protocol\000"
 11137      6F636F6C 
 11137      00
 11138              	.LASF176:
 11139 0686 73656E74 		.ascii	"sent\000"
 11139      00
 11140              	.LASF14:
 11141 068b 6C6F6E67 		.ascii	"long long int\000"
 11141      206C6F6E 
 11141      6720696E 
 11141      7400
 11142              	.LASF139:
 11143 0699 69705F70 		.ascii	"ip_pcb\000"
 11143      636200
 11144              	.LASF57:
 11145 06a0 6D5F7175 		.ascii	"m_queue\000"
 11145      65756500 
 11146              	.LASF62:
 11147 06a8 6D625F77 		.ascii	"mb_wrptr\000"
 11147      72707472 
 11147      00
 11148              	.LASF257:
 11149 06b1 6C776970 		.ascii	"lwip_recvfrom\000"
 11149      5F726563 
 11149      7666726F 
 11149      6D00
 11150              	.LASF303:
 11151 06bf 6C776970 		.ascii	"lwip_getaddrname\000"
 11151      5F676574 
 11151      61646472 
 11151      6E616D65 
 11151      00
 11152              	.LASF94:
 11153 06d0 66645F62 		.ascii	"fd_bits\000"
 11153      69747300 
 11154              	.LASF309:
 11155 06d8 6C776970 		.ascii	"lwip_setsockopt_internal\000"
 11155      5F736574 
 11155      736F636B 
 11155      6F70745F 
 11155      696E7465 
 11156              	.LASF229:
 11157 06f1 73656D5F 		.ascii	"sem_signalled\000"
 11157      7369676E 
 11157      616C6C65 
 11157      6400
 11158              	.LASF154:
 11159 06ff 706F6C6C 		.ascii	"pollinterval\000"
 11159      696E7465 
 11159      7276616C 
 11159      00
ARM GAS  /tmp/cc2wa78n.s 			page 203


 11160              	.LASF290:
 11161 070c 74696D65 		.ascii	"timeout\000"
 11161      6F757400 
 11162              	.LASF116:
 11163 0714 6E657463 		.ascii	"netconn_state\000"
 11163      6F6E6E5F 
 11163      73746174 
 11163      6500
 11164              	.LASF40:
 11165 0722 705F7761 		.ascii	"p_waiting\000"
 11165      6974696E 
 11165      6700
 11166              	.LASF79:
 11167 072c 61646472 		.ascii	"addr\000"
 11167      00
 11168              	.LASF36:
 11169 0731 705F666C 		.ascii	"p_flags\000"
 11169      61677300 
 11170              	.LASF0:
 11171 0739 756E7369 		.ascii	"unsigned int\000"
 11171      676E6564 
 11171      20696E74 
 11171      00
 11172              	.LASF260:
 11173 0746 6275666C 		.ascii	"buflen\000"
 11173      656E00
 11174              	.LASF74:
 11175 074d 7531365F 		.ascii	"u16_t\000"
 11175      7400
 11176              	.LASF46:
 11177 0753 705F6D70 		.ascii	"p_mpool\000"
 11177      6F6F6C00 
 11178              	.LASF149:
 11179 075b 7263765F 		.ascii	"rcv_nxt\000"
 11179      6E787400 
 11180              	.LASF231:
 11181 0763 736F636B 		.ascii	"sock\000"
 11181      00
 11182              	.LASF37:
 11183 0768 705F7265 		.ascii	"p_refs\000"
 11183      667300
 11184              	.LASF221:
 11185 076f 73656E64 		.ascii	"sendevent\000"
 11185      6576656E 
 11185      7400
 11186              	.LASF234:
 11187 0779 6F707476 		.ascii	"optval\000"
 11187      616C00
 11188              	.LASF48:
 11189 0780 54687265 		.ascii	"ThreadsList\000"
 11189      6164734C 
 11189      69737400 
 11190              	.LASF299:
 11191 078c 646F5F73 		.ascii	"do_signal\000"
 11191      69676E61 
 11191      6C00
 11192              	.LASF314:
ARM GAS  /tmp/cc2wa78n.s 			page 204


 11193 0796 73656C65 		.ascii	"select_cb_list\000"
 11193      63745F63 
 11193      625F6C69 
 11193      737400
 11194              	.LASF246:
 11195 07a5 6C776970 		.ascii	"lwip_accept\000"
 11195      5F616363 
 11195      65707400 
 11196              	.LASF179:
 11197 07b1 706F6C6C 		.ascii	"poll\000"
 11197      00
 11198              	.LASF262:
 11199 07b6 646F6E65 		.ascii	"done\000"
 11199      00
 11200              	.LASF296:
 11201 07bb 6C617374 		.ascii	"last_select_cb_ctr\000"
 11201      5F73656C 
 11201      6563745F 
 11201      63625F63 
 11201      747200
 11202              	.LASF155:
 11203 07ce 7274696D 		.ascii	"rtime\000"
 11203      6500
 11204              	.LASF201:
 11205 07d4 53594E5F 		.ascii	"SYN_RCVD\000"
 11205      52435644 
 11205      00
 11206              	.LASF274:
 11207 07dd 6C776970 		.ascii	"lwip_socket\000"
 11207      5F736F63 
 11207      6B657400 
 11208              	.LASF39:
 11209 07e9 705F7469 		.ascii	"p_time\000"
 11209      6D6500
 11210              	.LASF233:
 11211 07f0 6F70746E 		.ascii	"optname\000"
 11211      616D6500 
 11212              	.LASF177:
 11213 07f8 72656376 		.ascii	"recv\000"
 11213      00
 11214              	.LASF259:
 11215 07fd 66726F6D 		.ascii	"fromlen\000"
 11215      6C656E00 
 11216              	.LASF120:
 11217 0805 4E455443 		.ascii	"NETCONN_CONNECT\000"
 11217      4F4E4E5F 
 11217      434F4E4E 
 11217      45435400 
 11218              	.LASF273:
 11219 0815 746F5F69 		.ascii	"to_in\000"
 11219      6E00
 11220              	.LASF102:
 11221 081b 746F745F 		.ascii	"tot_len\000"
 11221      6C656E00 
 11222              	.LASF301:
 11223 0823 73687574 		.ascii	"shut_rx\000"
 11223      5F727800 
ARM GAS  /tmp/cc2wa78n.s 			page 205


 11224              	.LASF80:
 11225 082b 69705F61 		.ascii	"ip_addr_t\000"
 11225      6464725F 
 11225      7400
 11226              	.LASF53:
 11227 0835 53656D61 		.ascii	"Semaphore\000"
 11227      70686F72 
 11227      6500
 11228              	.LASF305:
 11229 083f 6C776970 		.ascii	"lwip_getsockname\000"
 11229      5F676574 
 11229      736F636B 
 11229      6E616D65 
 11229      00
 11230              	.LASF298:
 11231 0850 61676169 		.ascii	"again\000"
 11231      6E00
 11232              	.LASF45:
 11233 0856 705F7265 		.ascii	"p_realprio\000"
 11233      616C7072 
 11233      696F00
 11234              	.LASF98:
 11235 0861 6572725F 		.ascii	"err_t\000"
 11235      7400
 11236              	.LASF210:
 11237 0867 7564705F 		.ascii	"udp_recv_fn\000"
 11237      72656376 
 11237      5F666E00 
 11238              	.LASF61:
 11239 0873 6D625F74 		.ascii	"mb_top\000"
 11239      6F7000
 11240              	.LASF263:
 11241 087a 66726F6D 		.ascii	"fromaddr\000"
 11241      61646472 
 11241      00
 11242              	.LASF277:
 11243 0883 6C776970 		.ascii	"lwip_selscan\000"
 11243      5F73656C 
 11243      7363616E 
 11243      00
 11244              	.LASF287:
 11245 0890 6C777269 		.ascii	"lwriteset\000"
 11245      74657365 
 11245      7400
 11246              	.LASF55:
 11247 089a 735F636E 		.ascii	"s_cnt\000"
 11247      7400
 11248              	.LASF196:
 11249 08a0 7463705F 		.ascii	"tcp_connected_fn\000"
 11249      636F6E6E 
 11249      65637465 
 11249      645F666E 
 11249      00
 11250              	.LASF278:
 11251 08b1 6D617866 		.ascii	"maxfdp1\000"
 11251      64703100 
 11252              	.LASF268:
ARM GAS  /tmp/cc2wa78n.s 			page 206


 11253 08b9 73697A65 		.ascii	"size\000"
 11253      00
 11254              	.LASF16:
 11255 08be 6C6F6E67 		.ascii	"long long unsigned int\000"
 11255      206C6F6E 
 11255      6720756E 
 11255      7369676E 
 11255      65642069 
 11256              	.LASF148:
 11257 08d5 72656D6F 		.ascii	"remote_port\000"
 11257      74655F70 
 11257      6F727400 
 11258              	.LASF32:
 11259 08e1 705F6F6C 		.ascii	"p_older\000"
 11259      64657200 
 11260              	.LASF8:
 11261 08e9 75696E74 		.ascii	"uint16_t\000"
 11261      31365F74 
 11261      00
 11262              	.LASF183:
 11263 08f2 70657273 		.ascii	"persist_backoff\000"
 11263      6973745F 
 11263      6261636B 
 11263      6F666600 
 11264              	.LASF22:
 11265 0902 6D73675F 		.ascii	"msg_t\000"
 11265      7400
 11266              	.LASF161:
 11267 0908 63776E64 		.ascii	"cwnd\000"
 11267      00
 11268              	.LASF20:
 11269 090d 74736C69 		.ascii	"tslices_t\000"
 11269      6365735F 
 11269      7400
 11270              	.LASF235:
 11271 0917 6F70746C 		.ascii	"optlen\000"
 11271      656E00
 11272              	.LASF175:
 11273 091e 72656675 		.ascii	"refused_data\000"
 11273      7365645F 
 11273      64617461 
 11273      00
 11274              	.LASF126:
 11275 092b 4E455443 		.ascii	"NETCONN_EVT_SENDMINUS\000"
 11275      4F4E4E5F 
 11275      4556545F 
 11275      53454E44 
 11275      4D494E55 
 11276              	.LASF293:
 11277 0941 73656C65 		.ascii	"select_cb\000"
 11277      63745F63 
 11277      6200
 11278              	.LASF92:
 11279 094b 73615F64 		.ascii	"sa_data\000"
 11279      61746100 
 11280              	.LASF170:
 11281 0953 736E645F 		.ascii	"snd_queuelen\000"
ARM GAS  /tmp/cc2wa78n.s 			page 207


 11281      71756575 
 11281      656C656E 
 11281      00
 11282              	.LASF264:
 11283 0960 6C776970 		.ascii	"lwip_read\000"
 11283      5F726561 
 11283      6400
 11284              	.LASF251:
 11285 096a 6E616D65 		.ascii	"name_in\000"
 11285      5F696E00 
 11286              	.LASF83:
 11287 0972 736F636B 		.ascii	"sockaddr_in\000"
 11287      61646472 
 11287      5F696E00 
 11288              	.LASF292:
 11289 097e 6D736563 		.ascii	"msectimeout\000"
 11289      74696D65 
 11289      6F757400 
 11290              	.LASF186:
 11291 098a 72656376 		.ascii	"recv_arg\000"
 11291      5F617267 
 11291      00
 11292              	.LASF89:
 11293 0993 736F636B 		.ascii	"sockaddr\000"
 11293      61646472 
 11293      00
 11294              	.LASF124:
 11295 099c 4E455443 		.ascii	"NETCONN_EVT_RCVMINUS\000"
 11295      4F4E4E5F 
 11295      4556545F 
 11295      5243564D 
 11295      494E5553 
 11296              	.LASF172:
 11297 09b1 756E7365 		.ascii	"unsent\000"
 11297      6E7400
 11298              	.LASF315:
 11299 09b8 73656C65 		.ascii	"select_cb_ctr\000"
 11299      63745F63 
 11299      625F6374 
 11299      7200
 11300              	.LASF272:
 11301 09c6 73686F72 		.ascii	"short_size\000"
 11301      745F7369 
 11301      7A6500
 11302              	.LASF171:
 11303 09d1 756E7365 		.ascii	"unsent_oversize\000"
 11303      6E745F6F 
 11303      76657273 
 11303      697A6500 
 11304              	.LASF189:
 11305 09e1 6170695F 		.ascii	"api_msg_msg\000"
 11305      6D73675F 
 11305      6D736700 
 11306              	.LASF141:
 11307 09ed 72656D6F 		.ascii	"remote_ip\000"
 11307      74655F69 
 11307      7000
ARM GAS  /tmp/cc2wa78n.s 			page 208


 11308              	.LASF81:
 11309 09f7 696E5F61 		.ascii	"in_addr\000"
 11309      64647200 
 11310              	.LASF76:
 11311 09ff 7533325F 		.ascii	"u32_t\000"
 11311      7400
 11312              	.LASF17:
 11313 0a05 746D6F64 		.ascii	"tmode_t\000"
 11313      655F7400 
 11314              	.LASF136:
 11315 0a0d 77726974 		.ascii	"write_offset\000"
 11315      655F6F66 
 11315      66736574 
 11315      00
 11316              	.LASF227:
 11317 0a1a 77726974 		.ascii	"writeset\000"
 11317      65736574 
 11317      00
 11318              	.LASF294:
 11319 0a23 66726565 		.ascii	"free_socket\000"
 11319      5F736F63 
 11319      6B657400 
 11320              	.LASF286:
 11321 0a2f 6C726561 		.ascii	"lreadset\000"
 11321      64736574 
 11321      00
 11322              	.LASF312:
 11323 0a38 6C776970 		.ascii	"lwip_fcntl\000"
 11323      5F66636E 
 11323      746C00
 11324              	.LASF114:
 11325 0a43 4E455443 		.ascii	"NETCONN_RAW\000"
 11325      4F4E4E5F 
 11325      52415700 
 11326              	.LASF265:
 11327 0a4f 6C776970 		.ascii	"lwip_recv\000"
 11327      5F726563 
 11327      7600
 11328              	.LASF276:
 11329 0a59 6C776970 		.ascii	"lwip_write\000"
 11329      5F777269 
 11329      746500
 11330              	.LASF270:
 11331 0a64 6C776970 		.ascii	"lwip_sendto\000"
 11331      5F73656E 
 11331      64746F00 
 11332              	.LASF248:
 11333 0a70 6E616D65 		.ascii	"name\000"
 11333      00
 11334              	.LASF54:
 11335 0a75 735F7175 		.ascii	"s_queue\000"
 11335      65756500 
 11336              	.LASF106:
 11337 0a7d 706F7274 		.ascii	"port\000"
 11337      00
 11338              	.LASF168:
 11339 0a82 61636B65 		.ascii	"acked\000"
ARM GAS  /tmp/cc2wa78n.s 			page 209


 11339      6400
 11340              	.LASF90:
 11341 0a88 73615F6C 		.ascii	"sa_len\000"
 11341      656E00
 11342              	.LASF181:
 11343 0a8f 6B656570 		.ascii	"keep_idle\000"
 11343      5F69646C 
 11343      6500
 11344              	.LASF321:
 11345 0a99 6C776970 		.ascii	"lwip_socket_init\000"
 11345      5F736F63 
 11345      6B65745F 
 11345      696E6974 
 11345      00
 11346              	.LASF7:
 11347 0aaa 73686F72 		.ascii	"short int\000"
 11347      7420696E 
 11347      7400
 11348              	.LASF119:
 11349 0ab4 4E455443 		.ascii	"NETCONN_LISTEN\000"
 11349      4F4E4E5F 
 11349      4C495354 
 11349      454E00
 11350              	.LASF15:
 11351 0ac3 75696E74 		.ascii	"uint64_t\000"
 11351      36345F74 
 11351      00
 11352              	.LASF284:
 11353 0acc 65786365 		.ascii	"exceptset_out\000"
 11353      70747365 
 11353      745F6F75 
 11353      7400
 11354              	.LASF112:
 11355 0ada 4E455443 		.ascii	"NETCONN_UDPLITE\000"
 11355      4F4E4E5F 
 11355      5544504C 
 11355      49544500 
 11356              	.LASF318:
 11357 0aea 2E2E2F2E 		.ascii	"../../ext/lwip/src/api/sockets.c\000"
 11357      2E2F6578 
 11357      742F6C77 
 11357      69702F73 
 11357      72632F61 
 11358              	.LASF173:
 11359 0b0b 756E6163 		.ascii	"unacked\000"
 11359      6B656400 
 11360              	.LASF6:
 11361 0b13 696E7431 		.ascii	"int16_t\000"
 11361      365F7400 
 11362              	.LASF145:
 11363 0b1b 63616C6C 		.ascii	"callback_arg\000"
 11363      6261636B 
 11363      5F617267 
 11363      00
 11364              	.LASF237:
 11365 0b28 74727967 		.ascii	"tryget_socket\000"
 11365      65745F73 
ARM GAS  /tmp/cc2wa78n.s 			page 210


 11365      6F636B65 
 11365      7400
 11366              	.LASF180:
 11367 0b36 65727266 		.ascii	"errf\000"
 11367      00
 11368              	.LASF215:
 11369 0b3b 61706966 		.ascii	"apiflags\000"
 11369      6C616773 
 11369      00
 11370              	.LASF146:
 11371 0b44 61636365 		.ascii	"accept\000"
 11371      707400
 11372              	.LASF230:
 11373 0b4b 6C776970 		.ascii	"lwip_setgetsockopt_data\000"
 11373      5F736574 
 11373      67657473 
 11373      6F636B6F 
 11373      70745F64 
 11374              	.LASF26:
 11375 0b63 54687265 		.ascii	"Thread\000"
 11375      616400
 11376              	.LASF308:
 11377 0b6a 6C776970 		.ascii	"lwip_setsockopt\000"
 11377      5F736574 
 11377      736F636B 
 11377      6F707400 
 11378              	.LASF192:
 11379 0b7a 7463705F 		.ascii	"tcp_recv_fn\000"
 11379      72656376 
 11379      5F666E00 
 11380              	.LASF117:
 11381 0b86 4E455443 		.ascii	"NETCONN_NONE\000"
 11381      4F4E4E5F 
 11381      4E4F4E45 
 11381      00
 11382              	.LASF165:
 11383 0b93 736E645F 		.ascii	"snd_wl1\000"
 11383      776C3100 
 11384              	.LASF166:
 11385 0b9b 736E645F 		.ascii	"snd_wl2\000"
 11385      776C3200 
 11386              	.LASF93:
 11387 0ba3 66645F73 		.ascii	"fd_set\000"
 11387      657400
 11388              	.LASF198:
 11389 0baa 434C4F53 		.ascii	"CLOSED\000"
 11389      454400
 11390              	.LASF135:
 11391 0bb1 736F636B 		.ascii	"socket\000"
 11391      657400
 11392              	.LASF160:
 11393 0bb8 64757061 		.ascii	"dupacks\000"
 11393      636B7300 
 11394              	.LASF247:
 11395 0bc0 6C776970 		.ascii	"lwip_bind\000"
 11395      5F62696E 
 11395      6400
ARM GAS  /tmp/cc2wa78n.s 			page 211


 11396              	.LASF75:
 11397 0bca 7331365F 		.ascii	"s16_t\000"
 11397      7400
 11398              	.LASF19:
 11399 0bd0 74726566 		.ascii	"trefs_t\000"
 11399      735F7400 
 11400              	.LASF220:
 11401 0bd8 72637665 		.ascii	"rcvevent\000"
 11401      76656E74 
 11401      00
 11402              	.LASF187:
 11403 0be1 7261775F 		.ascii	"raw_pcb\000"
 11403      70636200 
 11404              	.LASF77:
 11405 0be9 6D656D5F 		.ascii	"mem_ptr_t\000"
 11405      7074725F 
 11405      7400
 11406              	.LASF82:
 11407 0bf3 735F6164 		.ascii	"s_addr\000"
 11407      647200
 11408              	.LASF12:
 11409 0bfa 75696E74 		.ascii	"uint32_t\000"
 11409      33325F74 
 11409      00
 11410              	.LASF128:
 11411 0c03 6E657463 		.ascii	"netconn_callback\000"
 11411      6F6E6E5F 
 11411      63616C6C 
 11411      6261636B 
 11411      00
 11412              	.LASF214:
 11413 0c14 64617461 		.ascii	"dataptr\000"
 11413      70747200 
 11414              	.LASF232:
 11415 0c1c 6C657665 		.ascii	"level\000"
 11415      6C00
 11416              	.LASF47:
 11417 0c22 54687265 		.ascii	"ThreadsQueue\000"
 11417      61647351 
 11417      75657565 
 11417      00
 11418              	.LASF133:
 11419 0c2f 72656376 		.ascii	"recvmbox\000"
 11419      6D626F78 
 11419      00
 11420              	.LASF123:
 11421 0c38 4E455443 		.ascii	"NETCONN_EVT_RCVPLUS\000"
 11421      4F4E4E5F 
 11421      4556545F 
 11421      52435650 
 11421      4C555300 
 11422              	.LASF282:
 11423 0c4c 72656164 		.ascii	"readset_out\000"
 11423      7365745F 
 11423      6F757400 
 11424              	.LASF67:
 11425 0c58 7264796D 		.ascii	"rdymsg\000"
ARM GAS  /tmp/cc2wa78n.s 			page 212


 11425      736700
 11426              	.LASF9:
 11427 0c5f 73686F72 		.ascii	"short unsigned int\000"
 11427      7420756E 
 11427      7369676E 
 11427      65642069 
 11427      6E7400
 11428              	.LASF73:
 11429 0c72 73385F74 		.ascii	"s8_t\000"
 11429      00
 11430              	.LASF72:
 11431 0c77 75385F74 		.ascii	"u8_t\000"
 11431      00
 11432              	.LASF34:
 11433 0c7c 705F7374 		.ascii	"p_stklimit\000"
 11433      6B6C696D 
 11433      697400
 11434              	.LASF206:
 11435 0c87 434C4F53 		.ascii	"CLOSING\000"
 11435      494E4700 
 11436              	.LASF169:
 11437 0c8f 736E645F 		.ascii	"snd_buf\000"
 11437      62756600 
 11438              	.LASF241:
 11439 0c97 69735F74 		.ascii	"is_tcp\000"
 11439      637000
 11440              	.LASF164:
 11441 0c9e 736E645F 		.ascii	"snd_wnd\000"
 11441      776E6400 
 11442              	.LASF302:
 11443 0ca6 73687574 		.ascii	"shut_tx\000"
 11443      5F747800 
 11444              	.LASF285:
 11445 0cae 6E726561 		.ascii	"nready\000"
 11445      647900
 11446              	.LASF191:
 11447 0cb5 7463705F 		.ascii	"tcp_accept_fn\000"
 11447      61636365 
 11447      70745F66 
 11447      6E00
 11448              	.LASF33:
 11449 0cc3 705F6E61 		.ascii	"p_name\000"
 11449      6D6500
 11450              	.LASF100:
 11451 0cca 6E657874 		.ascii	"next\000"
 11451      00
 11452              	.LASF267:
 11453 0ccf 64617461 		.ascii	"data\000"
 11453      00
 11454              	.LASF59:
 11455 0cd4 6D5F6E65 		.ascii	"m_next\000"
 11455      787400
 11456              	.LASF320:
 11457 0cdb 7463705F 		.ascii	"tcp_seg\000"
 11457      73656700 
 11458              	.LASF178:
 11459 0ce3 636F6E6E 		.ascii	"connected\000"
ARM GAS  /tmp/cc2wa78n.s 			page 213


 11459      65637465 
 11459      6400
 11460              	.LASF271:
 11461 0ced 746F6C65 		.ascii	"tolen\000"
 11461      6E00
 11462              	.LASF225:
 11463 0cf3 70726576 		.ascii	"prev\000"
 11463      00
 11464              	.LASF96:
 11465 0cf8 74765F73 		.ascii	"tv_sec\000"
 11465      656300
 11466              	.LASF131:
 11467 0cff 6C617374 		.ascii	"last_err\000"
 11467      5F657272 
 11467      00
 11468              	.LASF174:
 11469 0d08 6F6F7365 		.ascii	"ooseq\000"
 11469      7100
 11470              	.LASF42:
 11471 0d0e 705F6D73 		.ascii	"p_msg\000"
 11471      6700
 11472              	.LASF35:
 11473 0d14 705F7374 		.ascii	"p_state\000"
 11473      61746500 
 11474              		.ident	"GCC: (GNU Tools for ARM Embedded Processors) 4.6.2 20120613 (release) [ARM/embedded-4_6-br
ARM GAS  /tmp/cc2wa78n.s 			page 214


DEFINED SYMBOLS
                            *ABS*:00000000 sockets.c
     /tmp/cc2wa78n.s:19     .bss.sockets:00000000 $d
     /tmp/cc2wa78n.s:22     .bss.sockets:00000000 sockets
     /tmp/cc2wa78n.s:25     .bss.select_cb_list:00000000 $d
     /tmp/cc2wa78n.s:28     .bss.select_cb_list:00000000 select_cb_list
     /tmp/cc2wa78n.s:31     .bss.select_cb_ctr:00000000 $d
     /tmp/cc2wa78n.s:34     .bss.select_cb_ctr:00000000 select_cb_ctr
     /tmp/cc2wa78n.s:37     .rodata.err_to_errno_table:00000000 $d
     /tmp/cc2wa78n.s:40     .rodata.err_to_errno_table:00000000 err_to_errno_table
     /tmp/cc2wa78n.s:58     .text.lwip_socket_init:00000000 $t
     /tmp/cc2wa78n.s:64     .text.lwip_socket_init:00000000 lwip_socket_init
     /tmp/cc2wa78n.s:78     .text.get_socket:00000000 $t
     /tmp/cc2wa78n.s:83     .text.get_socket:00000000 get_socket
     /tmp/cc2wa78n.s:138    .text.tryget_socket:00000000 $t
     /tmp/cc2wa78n.s:143    .text.tryget_socket:00000000 tryget_socket
     /tmp/cc2wa78n.s:202    .text.alloc_socket:00000000 $t
     /tmp/cc2wa78n.s:207    .text.alloc_socket:00000000 alloc_socket
     /tmp/cc2wa78n.s:372    .text.free_socket:00000000 $t
     /tmp/cc2wa78n.s:377    .text.free_socket:00000000 free_socket
     /tmp/cc2wa78n.s:436    .text.lwip_accept:00000000 $t
     /tmp/cc2wa78n.s:442    .text.lwip_accept:00000000 lwip_accept
     /tmp/cc2wa78n.s:3099   .text.event_callback:00000000 event_callback
     /tmp/cc2wa78n.s:733    .text.lwip_bind:00000000 $t
     /tmp/cc2wa78n.s:739    .text.lwip_bind:00000000 lwip_bind
     /tmp/cc2wa78n.s:861    .text.lwip_close:00000000 $t
     /tmp/cc2wa78n.s:867    .text.lwip_close:00000000 lwip_close
     /tmp/cc2wa78n.s:941    .text.lwip_connect:00000000 $t
     /tmp/cc2wa78n.s:947    .text.lwip_connect:00000000 lwip_connect
     /tmp/cc2wa78n.s:1086   .text.lwip_listen:00000000 $t
     /tmp/cc2wa78n.s:1092   .text.lwip_listen:00000000 lwip_listen
     /tmp/cc2wa78n.s:1186   .text.lwip_recvfrom:00000000 $t
     /tmp/cc2wa78n.s:1192   .text.lwip_recvfrom:00000000 lwip_recvfrom
     /tmp/cc2wa78n.s:1673   .text.lwip_read:00000000 $t
     /tmp/cc2wa78n.s:1679   .text.lwip_read:00000000 lwip_read
     /tmp/cc2wa78n.s:1714   .text.lwip_recv:00000000 $t
     /tmp/cc2wa78n.s:1720   .text.lwip_recv:00000000 lwip_recv
     /tmp/cc2wa78n.s:1756   .text.lwip_send:00000000 $t
     /tmp/cc2wa78n.s:1762   .text.lwip_send:00000000 lwip_send
     /tmp/cc2wa78n.s:1927   .text.lwip_sendto:00000000 lwip_sendto
     /tmp/cc2wa78n.s:1921   .text.lwip_sendto:00000000 $t
     /tmp/cc2wa78n.s:2121   .text.lwip_socket:00000000 $t
     /tmp/cc2wa78n.s:2127   .text.lwip_socket:00000000 lwip_socket
     /tmp/cc2wa78n.s:2257   .text.lwip_write:00000000 $t
     /tmp/cc2wa78n.s:2263   .text.lwip_write:00000000 lwip_write
     /tmp/cc2wa78n.s:2294   .text.lwip_selscan:00000000 $t
     /tmp/cc2wa78n.s:2299   .text.lwip_selscan:00000000 lwip_selscan
     /tmp/cc2wa78n.s:2572   .text.lwip_select:00000000 $t
     /tmp/cc2wa78n.s:2578   .text.lwip_select:00000000 lwip_select
     /tmp/cc2wa78n.s:3094   .text.event_callback:00000000 $t
     /tmp/cc2wa78n.s:3170   .text.event_callback:0000006c $d
     /tmp/cc2wa78n.s:3177   .text.event_callback:00000080 $t
     /tmp/cc2wa78n.s:3412   .text.lwip_shutdown:00000000 $t
     /tmp/cc2wa78n.s:3418   .text.lwip_shutdown:00000000 lwip_shutdown
     /tmp/cc2wa78n.s:3566   .text.lwip_getaddrname:00000000 $t
     /tmp/cc2wa78n.s:3571   .text.lwip_getaddrname:00000000 lwip_getaddrname
     /tmp/cc2wa78n.s:3672   .text.lwip_getpeername:00000000 $t
ARM GAS  /tmp/cc2wa78n.s 			page 215


     /tmp/cc2wa78n.s:3678   .text.lwip_getpeername:00000000 lwip_getpeername
     /tmp/cc2wa78n.s:3709   .text.lwip_getsockname:00000000 $t
     /tmp/cc2wa78n.s:3715   .text.lwip_getsockname:00000000 lwip_getsockname
     /tmp/cc2wa78n.s:3746   .text.lwip_getsockopt:00000000 $t
     /tmp/cc2wa78n.s:3752   .text.lwip_getsockopt:00000000 lwip_getsockopt
     /tmp/cc2wa78n.s:4039   .text.lwip_getsockopt_internal:00000000 lwip_getsockopt_internal
     /tmp/cc2wa78n.s:4034   .text.lwip_getsockopt_internal:00000000 $t
     /tmp/cc2wa78n.s:4337   .text.lwip_setsockopt:00000000 $t
     /tmp/cc2wa78n.s:4343   .text.lwip_setsockopt:00000000 lwip_setsockopt
     /tmp/cc2wa78n.s:4608   .text.lwip_setsockopt_internal:00000000 lwip_setsockopt_internal
     /tmp/cc2wa78n.s:4603   .text.lwip_setsockopt_internal:00000000 $t
     /tmp/cc2wa78n.s:4867   .text.lwip_ioctl:00000000 $t
     /tmp/cc2wa78n.s:4873   .text.lwip_ioctl:00000000 lwip_ioctl
     /tmp/cc2wa78n.s:4973   .text.lwip_fcntl:00000000 $t
     /tmp/cc2wa78n.s:4979   .text.lwip_fcntl:00000000 lwip_fcntl
                     .debug_frame:00000010 $d

UNDEFINED SYMBOLS
pbuf_free
netbuf_delete
netconn_accept
port_halt
netconn_getaddr
netconn_delete
lwip_htons
memcpy
lwip_ntohs
netconn_bind
netconn_disconnect
netconn_connect
netconn_listen_with_backlog
netconn_recved
netconn_recv_tcp_pbuf
netconn_recv
pbuf_copy_partial
netconn_write
netbuf_ref
netconn_send
netbuf_free
netconn_new_with_proto_and_callback
sys_sem_new
sys_arch_sem_wait
sys_sem_free
sys_sem_signal
netconn_shutdown
tcpip_callback_with_block
