ARM GAS  /tmp/ccYskyog.s 			page 1


   1              		.syntax unified
   2              		.cpu cortex-m3
   3              		.fpu softvfp
   4              		.eabi_attribute 20, 1
   5              		.eabi_attribute 21, 1
   6              		.eabi_attribute 23, 3
   7              		.eabi_attribute 24, 1
   8              		.eabi_attribute 25, 1
   9              		.eabi_attribute 26, 1
  10              		.eabi_attribute 30, 6
  11              		.eabi_attribute 34, 1
  12              		.eabi_attribute 18, 4
  13              		.thumb
  14              		.file	"sys_arch.c"
  15              		.text
  16              	.Ltext0:
  17              		.cfi_sections	.debug_frame
  18              		.section	.text.sys_init,"ax",%progbits
  19              		.align	2
  20              		.p2align 4,,15
  21              		.global	sys_init
  22              		.thumb
  23              		.thumb_func
  24              		.type	sys_init, %function
  25              	sys_init:
  26              	.LFB7:
  27              		.file 1 "../../os/various/lwip_bindings/arch/sys_arch.c"
  28              		.loc 1 67 0
  29              		.cfi_startproc
  30              		@ args = 0, pretend = 0, frame = 0
  31              		@ frame_needed = 0, uses_anonymous_args = 0
  32              		@ link register save eliminated.
  33              		.loc 1 69 0
  34 0000 7047     		bx	lr
  35              		.cfi_endproc
  36              	.LFE7:
  37              		.size	sys_init, .-sys_init
  38 0002 00BFAFF3 		.section	.text.sys_sem_new,"ax",%progbits
  38      0080AFF3 
  38      0080AFF3 
  38      0080
  39              		.align	2
  40              		.p2align 4,,15
  41              		.global	sys_sem_new
  42              		.thumb
  43              		.thumb_func
  44              		.type	sys_sem_new, %function
  45              	sys_sem_new:
  46              	.LFB8:
  47              		.loc 1 71 0
  48              		.cfi_startproc
  49              		@ args = 0, pretend = 0, frame = 8
  50              		@ frame_needed = 0, uses_anonymous_args = 0
  51 0000 00B5     		push	{lr}
  52              	.LCFI0:
  53              		.cfi_def_cfa_offset 4
  54              		.cfi_offset 14, -4
ARM GAS  /tmp/ccYskyog.s 			page 2


  55 0002 83B0     		sub	sp, sp, #12
  56              	.LCFI1:
  57              		.cfi_def_cfa_offset 16
  58 0004 0190     		str	r0, [sp, #4]
  59 0006 0B46     		mov	r3, r1
  60 0008 8DF80330 		strb	r3, [sp, #3]
  61              		.loc 1 73 0
  62 000c 4FF00000 		mov	r0, #0
  63 0010 4FF00C01 		mov	r1, #12
  64 0014 FFF7FEFF 		bl	chHeapAlloc
  65 0018 0246     		mov	r2, r0
  66 001a 019B     		ldr	r3, [sp, #4]
  67 001c 1A60     		str	r2, [r3, #0]
  68              		.loc 1 74 0
  69 001e 019B     		ldr	r3, [sp, #4]
  70 0020 1B68     		ldr	r3, [r3, #0]
  71 0022 002B     		cmp	r3, #0
  72 0024 11D1     		bne	.L3
  73              		.loc 1 75 0
  74 0026 40F20003 		movw	r3, #:lower16:lwip_stats
  75 002a C0F20003 		movt	r3, #:upper16:lwip_stats
  76 002e B3F84231 		ldrh	r3, [r3, #322]
  77 0032 03F10103 		add	r3, r3, #1
  78 0036 9AB2     		uxth	r2, r3
  79 0038 40F20003 		movw	r3, #:lower16:lwip_stats
  80 003c C0F20003 		movt	r3, #:upper16:lwip_stats
  81 0040 A3F84221 		strh	r2, [r3, #322]	@ movhi
  82              		.loc 1 76 0
  83 0044 4FF0FF03 		mov	r3, #255
  84 0048 32E0     		b	.L4
  85              	.L3:
  86              		.loc 1 79 0
  87 004a 019B     		ldr	r3, [sp, #4]
  88 004c 1A68     		ldr	r2, [r3, #0]
  89 004e 9DF80330 		ldrb	r3, [sp, #3]	@ zero_extendqisi2
  90 0052 1046     		mov	r0, r2
  91 0054 1946     		mov	r1, r3
  92 0056 FFF7FEFF 		bl	chSemInit
  93              		.loc 1 80 0
  94 005a 40F20003 		movw	r3, #:lower16:lwip_stats
  95 005e C0F20003 		movt	r3, #:upper16:lwip_stats
  96 0062 B3F83E31 		ldrh	r3, [r3, #318]
  97 0066 03F10103 		add	r3, r3, #1
  98 006a 9AB2     		uxth	r2, r3
  99 006c 40F20003 		movw	r3, #:lower16:lwip_stats
 100 0070 C0F20003 		movt	r3, #:upper16:lwip_stats
 101 0074 A3F83E21 		strh	r2, [r3, #318]	@ movhi
 102 0078 40F20003 		movw	r3, #:lower16:lwip_stats
 103 007c C0F20003 		movt	r3, #:upper16:lwip_stats
 104 0080 B3F84021 		ldrh	r2, [r3, #320]
 105 0084 40F20003 		movw	r3, #:lower16:lwip_stats
 106 0088 C0F20003 		movt	r3, #:upper16:lwip_stats
 107 008c B3F83E31 		ldrh	r3, [r3, #318]
 108 0090 9A42     		cmp	r2, r3
 109 0092 0BD2     		bcs	.L5
 110              		.loc 1 80 0 is_stmt 0 discriminator 1
 111 0094 40F20003 		movw	r3, #:lower16:lwip_stats
ARM GAS  /tmp/ccYskyog.s 			page 3


 112 0098 C0F20003 		movt	r3, #:upper16:lwip_stats
 113 009c B3F83E21 		ldrh	r2, [r3, #318]
 114 00a0 40F20003 		movw	r3, #:lower16:lwip_stats
 115 00a4 C0F20003 		movt	r3, #:upper16:lwip_stats
 116 00a8 A3F84021 		strh	r2, [r3, #320]	@ movhi
 117              	.L5:
 118              		.loc 1 81 0 is_stmt 1
 119 00ac 4FF00003 		mov	r3, #0
 120              	.L4:
 121 00b0 5BB2     		sxtb	r3, r3
 122              		.loc 1 83 0
 123 00b2 1846     		mov	r0, r3
 124 00b4 03B0     		add	sp, sp, #12
 125 00b6 00BD     		pop	{pc}
 126              		.cfi_endproc
 127              	.LFE8:
 128              		.size	sys_sem_new, .-sys_sem_new
 129 00b8 AFF30080 		.section	.text.sys_sem_free,"ax",%progbits
 129      AFF30080 
 130              		.align	2
 131              		.p2align 4,,15
 132              		.global	sys_sem_free
 133              		.thumb
 134              		.thumb_func
 135              		.type	sys_sem_free, %function
 136              	sys_sem_free:
 137              	.LFB9:
 138              		.loc 1 85 0
 139              		.cfi_startproc
 140              		@ args = 0, pretend = 0, frame = 8
 141              		@ frame_needed = 0, uses_anonymous_args = 0
 142 0000 00B5     		push	{lr}
 143              	.LCFI2:
 144              		.cfi_def_cfa_offset 4
 145              		.cfi_offset 14, -4
 146 0002 83B0     		sub	sp, sp, #12
 147              	.LCFI3:
 148              		.cfi_def_cfa_offset 16
 149 0004 0190     		str	r0, [sp, #4]
 150              		.loc 1 87 0
 151 0006 019B     		ldr	r3, [sp, #4]
 152 0008 1B68     		ldr	r3, [r3, #0]
 153 000a 1846     		mov	r0, r3
 154 000c FFF7FEFF 		bl	chHeapFree
 155              		.loc 1 88 0
 156 0010 019B     		ldr	r3, [sp, #4]
 157 0012 4FF00002 		mov	r2, #0
 158 0016 1A60     		str	r2, [r3, #0]
 159              		.loc 1 89 0
 160 0018 40F20003 		movw	r3, #:lower16:lwip_stats
 161 001c C0F20003 		movt	r3, #:upper16:lwip_stats
 162 0020 B3F83E31 		ldrh	r3, [r3, #318]
 163 0024 03F1FF33 		add	r3, r3, #-1
 164 0028 9AB2     		uxth	r2, r3
 165 002a 40F20003 		movw	r3, #:lower16:lwip_stats
 166 002e C0F20003 		movt	r3, #:upper16:lwip_stats
 167 0032 A3F83E21 		strh	r2, [r3, #318]	@ movhi
ARM GAS  /tmp/ccYskyog.s 			page 4


 168              		.loc 1 90 0
 169 0036 03B0     		add	sp, sp, #12
 170 0038 00BD     		pop	{pc}
 171              		.cfi_endproc
 172              	.LFE9:
 173              		.size	sys_sem_free, .-sys_sem_free
 174 003a 00BFAFF3 		.section	.text.sys_sem_signal,"ax",%progbits
 174      0080
 175              		.align	2
 176              		.p2align 4,,15
 177              		.global	sys_sem_signal
 178              		.thumb
 179              		.thumb_func
 180              		.type	sys_sem_signal, %function
 181              	sys_sem_signal:
 182              	.LFB10:
 183              		.loc 1 92 0
 184              		.cfi_startproc
 185              		@ args = 0, pretend = 0, frame = 8
 186              		@ frame_needed = 0, uses_anonymous_args = 0
 187 0000 00B5     		push	{lr}
 188              	.LCFI4:
 189              		.cfi_def_cfa_offset 4
 190              		.cfi_offset 14, -4
 191 0002 83B0     		sub	sp, sp, #12
 192              	.LCFI5:
 193              		.cfi_def_cfa_offset 16
 194 0004 0190     		str	r0, [sp, #4]
 195              		.loc 1 94 0
 196 0006 019B     		ldr	r3, [sp, #4]
 197 0008 1B68     		ldr	r3, [r3, #0]
 198 000a 1846     		mov	r0, r3
 199 000c FFF7FEFF 		bl	chSemSignal
 200              		.loc 1 95 0
 201 0010 03B0     		add	sp, sp, #12
 202 0012 00BD     		pop	{pc}
 203              		.cfi_endproc
 204              	.LFE10:
 205              		.size	sys_sem_signal, .-sys_sem_signal
 206 0014 AFF30080 		.section	.text.sys_arch_sem_wait,"ax",%progbits
 206      AFF30080 
 206      AFF30080 
 207              		.align	2
 208              		.p2align 4,,15
 209              		.global	sys_arch_sem_wait
 210              		.thumb
 211              		.thumb_func
 212              		.type	sys_arch_sem_wait, %function
 213              	sys_arch_sem_wait:
 214              	.LFB11:
 215              		.loc 1 97 0
 216              		.cfi_startproc
 217              		@ args = 0, pretend = 0, frame = 16
 218              		@ frame_needed = 0, uses_anonymous_args = 0
 219 0000 00B5     		push	{lr}
 220              	.LCFI6:
 221              		.cfi_def_cfa_offset 4
ARM GAS  /tmp/ccYskyog.s 			page 5


 222              		.cfi_offset 14, -4
 223 0002 85B0     		sub	sp, sp, #20
 224              	.LCFI7:
 225              		.cfi_def_cfa_offset 24
 226 0004 0190     		str	r0, [sp, #4]
 227 0006 0091     		str	r1, [sp, #0]
 228              	.LBB2:
 229              		.loc 1 100 0
 230 0008 4FF02003 		mov	r3, #32
 231              	@ 100 "../../os/various/lwip_bindings/arch/sys_arch.c" 1
 232 000c 83F31188 		msr     BASEPRI, r3
 233              	@ 0 "" 2
 234              		.thumb
 235              	.LBE2:
 236 0010 FFF7FEFF 		bl	dbg_check_lock
 237              		.loc 1 101 0
 238 0014 009B     		ldr	r3, [sp, #0]
 239 0016 002B     		cmp	r3, #0
 240 0018 01D0     		beq	.L9
 241              		.loc 1 101 0 is_stmt 0 discriminator 1
 242 001a 009B     		ldr	r3, [sp, #0]
 243 001c 01E0     		b	.L10
 244              	.L9:
 245              		.loc 1 101 0 discriminator 2
 246 001e 4FF0FF33 		mov	r3, #-1
 247              	.L10:
 248              		.loc 1 101 0 discriminator 3
 249 0022 0293     		str	r3, [sp, #8]
 250              		.loc 1 102 0 is_stmt 1 discriminator 3
 251 0024 40F20003 		movw	r3, #:lower16:vtlist
 252 0028 C0F20003 		movt	r3, #:upper16:vtlist
 253 002c DB68     		ldr	r3, [r3, #12]
 254 002e 0393     		str	r3, [sp, #12]
 255              		.loc 1 103 0 discriminator 3
 256 0030 019B     		ldr	r3, [sp, #4]
 257 0032 1B68     		ldr	r3, [r3, #0]
 258 0034 1846     		mov	r0, r3
 259 0036 0299     		ldr	r1, [sp, #8]
 260 0038 FFF7FEFF 		bl	chSemWaitTimeoutS
 261 003c 0346     		mov	r3, r0
 262 003e 002B     		cmp	r3, #0
 263 0040 03D0     		beq	.L11
 264              		.loc 1 104 0
 265 0042 4FF0FF33 		mov	r3, #-1
 266 0046 0393     		str	r3, [sp, #12]
 267 0048 08E0     		b	.L12
 268              	.L11:
 269              		.loc 1 106 0
 270 004a 40F20003 		movw	r3, #:lower16:vtlist
 271 004e C0F20003 		movt	r3, #:upper16:vtlist
 272 0052 DB68     		ldr	r3, [r3, #12]
 273 0054 1A46     		mov	r2, r3
 274 0056 039B     		ldr	r3, [sp, #12]
 275 0058 D31A     		subs	r3, r2, r3
 276 005a 0393     		str	r3, [sp, #12]
 277              	.L12:
 278              		.loc 1 107 0
ARM GAS  /tmp/ccYskyog.s 			page 6


 279 005c FFF7FEFF 		bl	dbg_check_unlock
 280              	.LBB3:
 281 0060 4FF00003 		mov	r3, #0
 282              	@ 107 "../../os/various/lwip_bindings/arch/sys_arch.c" 1
 283 0064 83F31188 		msr     BASEPRI, r3
 284              	@ 0 "" 2
 285              		.thumb
 286              	.LBE3:
 287              		.loc 1 108 0
 288 0068 039B     		ldr	r3, [sp, #12]
 289              		.loc 1 109 0
 290 006a 1846     		mov	r0, r3
 291 006c 05B0     		add	sp, sp, #20
 292 006e 00BD     		pop	{pc}
 293              		.cfi_endproc
 294              	.LFE11:
 295              		.size	sys_arch_sem_wait, .-sys_arch_sem_wait
 296              		.section	.text.sys_sem_valid,"ax",%progbits
 297              		.align	2
 298              		.p2align 4,,15
 299              		.global	sys_sem_valid
 300              		.thumb
 301              		.thumb_func
 302              		.type	sys_sem_valid, %function
 303              	sys_sem_valid:
 304              	.LFB12:
 305              		.loc 1 111 0
 306              		.cfi_startproc
 307              		@ args = 0, pretend = 0, frame = 8
 308              		@ frame_needed = 0, uses_anonymous_args = 0
 309              		@ link register save eliminated.
 310 0000 82B0     		sub	sp, sp, #8
 311              	.LCFI8:
 312              		.cfi_def_cfa_offset 8
 313 0002 0190     		str	r0, [sp, #4]
 314              		.loc 1 112 0
 315 0004 019B     		ldr	r3, [sp, #4]
 316 0006 1B68     		ldr	r3, [r3, #0]
 317 0008 002B     		cmp	r3, #0
 318 000a 0CBF     		ite	eq
 319 000c 0023     		moveq	r3, #0
 320 000e 0123     		movne	r3, #1
 321              		.loc 1 113 0
 322 0010 1846     		mov	r0, r3
 323 0012 02B0     		add	sp, sp, #8
 324 0014 7047     		bx	lr
 325              		.cfi_endproc
 326              	.LFE12:
 327              		.size	sys_sem_valid, .-sys_sem_valid
 328 0016 00BFAFF3 		.section	.text.sys_sem_set_invalid,"ax",%progbits
 328      0080AFF3 
 328      0080
 329              		.align	2
 330              		.p2align 4,,15
 331              		.global	sys_sem_set_invalid
 332              		.thumb
 333              		.thumb_func
ARM GAS  /tmp/ccYskyog.s 			page 7


 334              		.type	sys_sem_set_invalid, %function
 335              	sys_sem_set_invalid:
 336              	.LFB13:
 337              		.loc 1 117 0
 338              		.cfi_startproc
 339              		@ args = 0, pretend = 0, frame = 8
 340              		@ frame_needed = 0, uses_anonymous_args = 0
 341              		@ link register save eliminated.
 342 0000 82B0     		sub	sp, sp, #8
 343              	.LCFI9:
 344              		.cfi_def_cfa_offset 8
 345 0002 0190     		str	r0, [sp, #4]
 346              		.loc 1 118 0
 347 0004 019B     		ldr	r3, [sp, #4]
 348 0006 4FF00002 		mov	r2, #0
 349 000a 1A60     		str	r2, [r3, #0]
 350              		.loc 1 119 0
 351 000c 02B0     		add	sp, sp, #8
 352 000e 7047     		bx	lr
 353              		.cfi_endproc
 354              	.LFE13:
 355              		.size	sys_sem_set_invalid, .-sys_sem_set_invalid
 356              		.section	.text.sys_mbox_new,"ax",%progbits
 357              		.align	2
 358              		.p2align 4,,15
 359              		.global	sys_mbox_new
 360              		.thumb
 361              		.thumb_func
 362              		.type	sys_mbox_new, %function
 363              	sys_mbox_new:
 364              	.LFB14:
 365              		.loc 1 121 0
 366              		.cfi_startproc
 367              		@ args = 0, pretend = 0, frame = 8
 368              		@ frame_needed = 0, uses_anonymous_args = 0
 369 0000 00B5     		push	{lr}
 370              	.LCFI10:
 371              		.cfi_def_cfa_offset 4
 372              		.cfi_offset 14, -4
 373 0002 83B0     		sub	sp, sp, #12
 374              	.LCFI11:
 375              		.cfi_def_cfa_offset 16
 376 0004 0190     		str	r0, [sp, #4]
 377 0006 0091     		str	r1, [sp, #0]
 378              		.loc 1 123 0
 379 0008 009B     		ldr	r3, [sp, #0]
 380 000a 03F10A03 		add	r3, r3, #10
 381 000e 4FEA8303 		lsl	r3, r3, #2
 382 0012 4FF00000 		mov	r0, #0
 383 0016 1946     		mov	r1, r3
 384 0018 FFF7FEFF 		bl	chHeapAlloc
 385 001c 0246     		mov	r2, r0
 386 001e 019B     		ldr	r3, [sp, #4]
 387 0020 1A60     		str	r2, [r3, #0]
 388              		.loc 1 124 0
 389 0022 019B     		ldr	r3, [sp, #4]
 390 0024 1B68     		ldr	r3, [r3, #0]
ARM GAS  /tmp/ccYskyog.s 			page 8


 391 0026 002B     		cmp	r3, #0
 392 0028 11D1     		bne	.L16
 393              		.loc 1 125 0
 394 002a 40F20003 		movw	r3, #:lower16:lwip_stats
 395 002e C0F20003 		movt	r3, #:upper16:lwip_stats
 396 0032 B3F84E31 		ldrh	r3, [r3, #334]
 397 0036 03F10103 		add	r3, r3, #1
 398 003a 9AB2     		uxth	r2, r3
 399 003c 40F20003 		movw	r3, #:lower16:lwip_stats
 400 0040 C0F20003 		movt	r3, #:upper16:lwip_stats
 401 0044 A3F84E21 		strh	r2, [r3, #334]	@ movhi
 402              		.loc 1 126 0
 403 0048 4FF0FF03 		mov	r3, #255
 404 004c 1BE0     		b	.L17
 405              	.L16:
 406              		.loc 1 129 0
 407 004e 019B     		ldr	r3, [sp, #4]
 408 0050 1A68     		ldr	r2, [r3, #0]
 409 0052 019B     		ldr	r3, [sp, #4]
 410 0054 1B68     		ldr	r3, [r3, #0]
 411 0056 03F12803 		add	r3, r3, #40
 412 005a 1046     		mov	r0, r2
 413 005c 1946     		mov	r1, r3
 414 005e 009A     		ldr	r2, [sp, #0]
 415 0060 FFF7FEFF 		bl	chMBInit
 416              		.loc 1 130 0
 417 0064 40F20003 		movw	r3, #:lower16:lwip_stats
 418 0068 C0F20003 		movt	r3, #:upper16:lwip_stats
 419 006c B3F84A31 		ldrh	r3, [r3, #330]
 420 0070 03F10103 		add	r3, r3, #1
 421 0074 9AB2     		uxth	r2, r3
 422 0076 40F20003 		movw	r3, #:lower16:lwip_stats
 423 007a C0F20003 		movt	r3, #:upper16:lwip_stats
 424 007e A3F84A21 		strh	r2, [r3, #330]	@ movhi
 425              		.loc 1 131 0
 426 0082 4FF00003 		mov	r3, #0
 427              	.L17:
 428 0086 5BB2     		sxtb	r3, r3
 429              		.loc 1 133 0
 430 0088 1846     		mov	r0, r3
 431 008a 03B0     		add	sp, sp, #12
 432 008c 00BD     		pop	{pc}
 433              		.cfi_endproc
 434              	.LFE14:
 435              		.size	sys_mbox_new, .-sys_mbox_new
 436 008e 00BF     		.section	.text.sys_mbox_free,"ax",%progbits
 437              		.align	2
 438              		.p2align 4,,15
 439              		.global	sys_mbox_free
 440              		.thumb
 441              		.thumb_func
 442              		.type	sys_mbox_free, %function
 443              	sys_mbox_free:
 444              	.LFB15:
 445              		.loc 1 135 0
 446              		.cfi_startproc
 447              		@ args = 0, pretend = 0, frame = 8
ARM GAS  /tmp/ccYskyog.s 			page 9


 448              		@ frame_needed = 0, uses_anonymous_args = 0
 449 0000 00B5     		push	{lr}
 450              	.LCFI12:
 451              		.cfi_def_cfa_offset 4
 452              		.cfi_offset 14, -4
 453 0002 83B0     		sub	sp, sp, #12
 454              	.LCFI13:
 455              		.cfi_def_cfa_offset 16
 456 0004 0190     		str	r0, [sp, #4]
 457              		.loc 1 137 0
 458 0006 019B     		ldr	r3, [sp, #4]
 459 0008 1B68     		ldr	r3, [r3, #0]
 460 000a 9B69     		ldr	r3, [r3, #24]
 461 000c 002B     		cmp	r3, #0
 462 000e 13D0     		beq	.L19
 463              		.loc 1 141 0
 464 0010 40F20003 		movw	r3, #:lower16:lwip_stats
 465 0014 C0F20003 		movt	r3, #:upper16:lwip_stats
 466 0018 B3F84E31 		ldrh	r3, [r3, #334]
 467 001c 03F10103 		add	r3, r3, #1
 468 0020 9AB2     		uxth	r2, r3
 469 0022 40F20003 		movw	r3, #:lower16:lwip_stats
 470 0026 C0F20003 		movt	r3, #:upper16:lwip_stats
 471 002a A3F84E21 		strh	r2, [r3, #334]	@ movhi
 472              		.loc 1 142 0
 473 002e 019B     		ldr	r3, [sp, #4]
 474 0030 1B68     		ldr	r3, [r3, #0]
 475 0032 1846     		mov	r0, r3
 476 0034 FFF7FEFF 		bl	chMBReset
 477              	.L19:
 478              		.loc 1 144 0
 479 0038 019B     		ldr	r3, [sp, #4]
 480 003a 1B68     		ldr	r3, [r3, #0]
 481 003c 1846     		mov	r0, r3
 482 003e FFF7FEFF 		bl	chHeapFree
 483              		.loc 1 145 0
 484 0042 019B     		ldr	r3, [sp, #4]
 485 0044 4FF00002 		mov	r2, #0
 486 0048 1A60     		str	r2, [r3, #0]
 487              		.loc 1 146 0
 488 004a 40F20003 		movw	r3, #:lower16:lwip_stats
 489 004e C0F20003 		movt	r3, #:upper16:lwip_stats
 490 0052 B3F84A31 		ldrh	r3, [r3, #330]
 491 0056 03F1FF33 		add	r3, r3, #-1
 492 005a 9AB2     		uxth	r2, r3
 493 005c 40F20003 		movw	r3, #:lower16:lwip_stats
 494 0060 C0F20003 		movt	r3, #:upper16:lwip_stats
 495 0064 A3F84A21 		strh	r2, [r3, #330]	@ movhi
 496              		.loc 1 147 0
 497 0068 03B0     		add	sp, sp, #12
 498 006a 00BD     		pop	{pc}
 499              		.cfi_endproc
 500              	.LFE15:
 501              		.size	sys_mbox_free, .-sys_mbox_free
 502 006c AFF30080 		.section	.text.sys_mbox_post,"ax",%progbits
 503              		.align	2
 504              		.p2align 4,,15
ARM GAS  /tmp/ccYskyog.s 			page 10


 505              		.global	sys_mbox_post
 506              		.thumb
 507              		.thumb_func
 508              		.type	sys_mbox_post, %function
 509              	sys_mbox_post:
 510              	.LFB16:
 511              		.loc 1 149 0
 512              		.cfi_startproc
 513              		@ args = 0, pretend = 0, frame = 8
 514              		@ frame_needed = 0, uses_anonymous_args = 0
 515 0000 00B5     		push	{lr}
 516              	.LCFI14:
 517              		.cfi_def_cfa_offset 4
 518              		.cfi_offset 14, -4
 519 0002 83B0     		sub	sp, sp, #12
 520              	.LCFI15:
 521              		.cfi_def_cfa_offset 16
 522 0004 0190     		str	r0, [sp, #4]
 523 0006 0091     		str	r1, [sp, #0]
 524              		.loc 1 151 0
 525 0008 019B     		ldr	r3, [sp, #4]
 526 000a 1A68     		ldr	r2, [r3, #0]
 527 000c 009B     		ldr	r3, [sp, #0]
 528 000e 1046     		mov	r0, r2
 529 0010 1946     		mov	r1, r3
 530 0012 4FF0FF32 		mov	r2, #-1
 531 0016 FFF7FEFF 		bl	chMBPost
 532              		.loc 1 152 0
 533 001a 03B0     		add	sp, sp, #12
 534 001c 00BD     		pop	{pc}
 535              		.cfi_endproc
 536              	.LFE16:
 537              		.size	sys_mbox_post, .-sys_mbox_post
 538 001e 00BF     		.section	.text.sys_mbox_trypost,"ax",%progbits
 539              		.align	2
 540              		.p2align 4,,15
 541              		.global	sys_mbox_trypost
 542              		.thumb
 543              		.thumb_func
 544              		.type	sys_mbox_trypost, %function
 545              	sys_mbox_trypost:
 546              	.LFB17:
 547              		.loc 1 154 0
 548              		.cfi_startproc
 549              		@ args = 0, pretend = 0, frame = 8
 550              		@ frame_needed = 0, uses_anonymous_args = 0
 551 0000 00B5     		push	{lr}
 552              	.LCFI16:
 553              		.cfi_def_cfa_offset 4
 554              		.cfi_offset 14, -4
 555 0002 83B0     		sub	sp, sp, #12
 556              	.LCFI17:
 557              		.cfi_def_cfa_offset 16
 558 0004 0190     		str	r0, [sp, #4]
 559 0006 0091     		str	r1, [sp, #0]
 560              		.loc 1 156 0
 561 0008 019B     		ldr	r3, [sp, #4]
ARM GAS  /tmp/ccYskyog.s 			page 11


 562 000a 1A68     		ldr	r2, [r3, #0]
 563 000c 009B     		ldr	r3, [sp, #0]
 564 000e 1046     		mov	r0, r2
 565 0010 1946     		mov	r1, r3
 566 0012 4FF00002 		mov	r2, #0
 567 0016 FFF7FEFF 		bl	chMBPost
 568 001a 0346     		mov	r3, r0
 569 001c B3F1FF3F 		cmp	r3, #-1
 570 0020 11D1     		bne	.L22
 571              		.loc 1 157 0
 572 0022 40F20003 		movw	r3, #:lower16:lwip_stats
 573 0026 C0F20003 		movt	r3, #:upper16:lwip_stats
 574 002a B3F84E31 		ldrh	r3, [r3, #334]
 575 002e 03F10103 		add	r3, r3, #1
 576 0032 9AB2     		uxth	r2, r3
 577 0034 40F20003 		movw	r3, #:lower16:lwip_stats
 578 0038 C0F20003 		movt	r3, #:upper16:lwip_stats
 579 003c A3F84E21 		strh	r2, [r3, #334]	@ movhi
 580              		.loc 1 158 0
 581 0040 4FF0FF03 		mov	r3, #255
 582 0044 01E0     		b	.L23
 583              	.L22:
 584              		.loc 1 160 0
 585 0046 4FF00003 		mov	r3, #0
 586              	.L23:
 587 004a 5BB2     		sxtb	r3, r3
 588              		.loc 1 161 0
 589 004c 1846     		mov	r0, r3
 590 004e 03B0     		add	sp, sp, #12
 591 0050 00BD     		pop	{pc}
 592              		.cfi_endproc
 593              	.LFE17:
 594              		.size	sys_mbox_trypost, .-sys_mbox_trypost
 595 0052 00BFAFF3 		.section	.text.sys_arch_mbox_fetch,"ax",%progbits
 595      0080AFF3 
 595      0080AFF3 
 595      0080
 596              		.align	2
 597              		.p2align 4,,15
 598              		.global	sys_arch_mbox_fetch
 599              		.thumb
 600              		.thumb_func
 601              		.type	sys_arch_mbox_fetch, %function
 602              	sys_arch_mbox_fetch:
 603              	.LFB18:
 604              		.loc 1 163 0
 605              		.cfi_startproc
 606              		@ args = 0, pretend = 0, frame = 24
 607              		@ frame_needed = 0, uses_anonymous_args = 0
 608 0000 00B5     		push	{lr}
 609              	.LCFI18:
 610              		.cfi_def_cfa_offset 4
 611              		.cfi_offset 14, -4
 612 0002 87B0     		sub	sp, sp, #28
 613              	.LCFI19:
 614              		.cfi_def_cfa_offset 32
 615 0004 0390     		str	r0, [sp, #12]
ARM GAS  /tmp/ccYskyog.s 			page 12


 616 0006 0291     		str	r1, [sp, #8]
 617 0008 0192     		str	r2, [sp, #4]
 618              	.LBB4:
 619              		.loc 1 166 0
 620 000a 4FF02003 		mov	r3, #32
 621              	@ 166 "../../os/various/lwip_bindings/arch/sys_arch.c" 1
 622 000e 83F31188 		msr     BASEPRI, r3
 623              	@ 0 "" 2
 624              		.thumb
 625              	.LBE4:
 626 0012 FFF7FEFF 		bl	dbg_check_lock
 627              		.loc 1 167 0
 628 0016 019B     		ldr	r3, [sp, #4]
 629 0018 002B     		cmp	r3, #0
 630 001a 01D0     		beq	.L25
 631              		.loc 1 167 0 is_stmt 0 discriminator 1
 632 001c 019B     		ldr	r3, [sp, #4]
 633 001e 01E0     		b	.L26
 634              	.L25:
 635              		.loc 1 167 0 discriminator 2
 636 0020 4FF0FF33 		mov	r3, #-1
 637              	.L26:
 638              		.loc 1 167 0 discriminator 3
 639 0024 0493     		str	r3, [sp, #16]
 640              		.loc 1 168 0 is_stmt 1 discriminator 3
 641 0026 40F20003 		movw	r3, #:lower16:vtlist
 642 002a C0F20003 		movt	r3, #:upper16:vtlist
 643 002e DB68     		ldr	r3, [r3, #12]
 644 0030 0593     		str	r3, [sp, #20]
 645              		.loc 1 169 0 discriminator 3
 646 0032 039B     		ldr	r3, [sp, #12]
 647 0034 1B68     		ldr	r3, [r3, #0]
 648 0036 1846     		mov	r0, r3
 649 0038 0299     		ldr	r1, [sp, #8]
 650 003a 049A     		ldr	r2, [sp, #16]
 651 003c FFF7FEFF 		bl	chMBFetchS
 652 0040 0346     		mov	r3, r0
 653 0042 002B     		cmp	r3, #0
 654 0044 03D0     		beq	.L27
 655              		.loc 1 170 0
 656 0046 4FF0FF33 		mov	r3, #-1
 657 004a 0593     		str	r3, [sp, #20]
 658 004c 08E0     		b	.L28
 659              	.L27:
 660              		.loc 1 172 0
 661 004e 40F20003 		movw	r3, #:lower16:vtlist
 662 0052 C0F20003 		movt	r3, #:upper16:vtlist
 663 0056 DB68     		ldr	r3, [r3, #12]
 664 0058 1A46     		mov	r2, r3
 665 005a 059B     		ldr	r3, [sp, #20]
 666 005c D31A     		subs	r3, r2, r3
 667 005e 0593     		str	r3, [sp, #20]
 668              	.L28:
 669              		.loc 1 173 0
 670 0060 FFF7FEFF 		bl	dbg_check_unlock
 671              	.LBB5:
 672 0064 4FF00003 		mov	r3, #0
ARM GAS  /tmp/ccYskyog.s 			page 13


 673              	@ 173 "../../os/various/lwip_bindings/arch/sys_arch.c" 1
 674 0068 83F31188 		msr     BASEPRI, r3
 675              	@ 0 "" 2
 676              		.thumb
 677              	.LBE5:
 678              		.loc 1 174 0
 679 006c 059B     		ldr	r3, [sp, #20]
 680              		.loc 1 175 0
 681 006e 1846     		mov	r0, r3
 682 0070 07B0     		add	sp, sp, #28
 683 0072 00BD     		pop	{pc}
 684              		.cfi_endproc
 685              	.LFE18:
 686              		.size	sys_arch_mbox_fetch, .-sys_arch_mbox_fetch
 687 0074 AFF30080 		.section	.text.sys_arch_mbox_tryfetch,"ax",%progbits
 687      AFF30080 
 687      AFF30080 
 688              		.align	2
 689              		.p2align 4,,15
 690              		.global	sys_arch_mbox_tryfetch
 691              		.thumb
 692              		.thumb_func
 693              		.type	sys_arch_mbox_tryfetch, %function
 694              	sys_arch_mbox_tryfetch:
 695              	.LFB19:
 696              		.loc 1 177 0
 697              		.cfi_startproc
 698              		@ args = 0, pretend = 0, frame = 8
 699              		@ frame_needed = 0, uses_anonymous_args = 0
 700 0000 00B5     		push	{lr}
 701              	.LCFI20:
 702              		.cfi_def_cfa_offset 4
 703              		.cfi_offset 14, -4
 704 0002 83B0     		sub	sp, sp, #12
 705              	.LCFI21:
 706              		.cfi_def_cfa_offset 16
 707 0004 0190     		str	r0, [sp, #4]
 708 0006 0091     		str	r1, [sp, #0]
 709              		.loc 1 179 0
 710 0008 019B     		ldr	r3, [sp, #4]
 711 000a 1B68     		ldr	r3, [r3, #0]
 712 000c 1846     		mov	r0, r3
 713 000e 0099     		ldr	r1, [sp, #0]
 714 0010 4FF00002 		mov	r2, #0
 715 0014 FFF7FEFF 		bl	chMBFetch
 716 0018 0346     		mov	r3, r0
 717 001a B3F1FF3F 		cmp	r3, #-1
 718 001e 02D1     		bne	.L30
 719              		.loc 1 180 0
 720 0020 4FF0FF33 		mov	r3, #-1
 721 0024 01E0     		b	.L31
 722              	.L30:
 723              		.loc 1 181 0
 724 0026 4FF00003 		mov	r3, #0
 725              	.L31:
 726              		.loc 1 182 0
 727 002a 1846     		mov	r0, r3
ARM GAS  /tmp/ccYskyog.s 			page 14


 728 002c 03B0     		add	sp, sp, #12
 729 002e 00BD     		pop	{pc}
 730              		.cfi_endproc
 731              	.LFE19:
 732              		.size	sys_arch_mbox_tryfetch, .-sys_arch_mbox_tryfetch
 733              		.section	.text.sys_mbox_valid,"ax",%progbits
 734              		.align	2
 735              		.p2align 4,,15
 736              		.global	sys_mbox_valid
 737              		.thumb
 738              		.thumb_func
 739              		.type	sys_mbox_valid, %function
 740              	sys_mbox_valid:
 741              	.LFB20:
 742              		.loc 1 184 0
 743              		.cfi_startproc
 744              		@ args = 0, pretend = 0, frame = 8
 745              		@ frame_needed = 0, uses_anonymous_args = 0
 746              		@ link register save eliminated.
 747 0000 82B0     		sub	sp, sp, #8
 748              	.LCFI22:
 749              		.cfi_def_cfa_offset 8
 750 0002 0190     		str	r0, [sp, #4]
 751              		.loc 1 185 0
 752 0004 019B     		ldr	r3, [sp, #4]
 753 0006 1B68     		ldr	r3, [r3, #0]
 754 0008 002B     		cmp	r3, #0
 755 000a 0CBF     		ite	eq
 756 000c 0023     		moveq	r3, #0
 757 000e 0123     		movne	r3, #1
 758              		.loc 1 186 0
 759 0010 1846     		mov	r0, r3
 760 0012 02B0     		add	sp, sp, #8
 761 0014 7047     		bx	lr
 762              		.cfi_endproc
 763              	.LFE20:
 764              		.size	sys_mbox_valid, .-sys_mbox_valid
 765 0016 00BFAFF3 		.section	.text.sys_mbox_set_invalid,"ax",%progbits
 765      0080AFF3 
 765      0080
 766              		.align	2
 767              		.p2align 4,,15
 768              		.global	sys_mbox_set_invalid
 769              		.thumb
 770              		.thumb_func
 771              		.type	sys_mbox_set_invalid, %function
 772              	sys_mbox_set_invalid:
 773              	.LFB21:
 774              		.loc 1 190 0
 775              		.cfi_startproc
 776              		@ args = 0, pretend = 0, frame = 8
 777              		@ frame_needed = 0, uses_anonymous_args = 0
 778              		@ link register save eliminated.
 779 0000 82B0     		sub	sp, sp, #8
 780              	.LCFI23:
 781              		.cfi_def_cfa_offset 8
 782 0002 0190     		str	r0, [sp, #4]
ARM GAS  /tmp/ccYskyog.s 			page 15


 783              		.loc 1 191 0
 784 0004 019B     		ldr	r3, [sp, #4]
 785 0006 4FF00002 		mov	r2, #0
 786 000a 1A60     		str	r2, [r3, #0]
 787              		.loc 1 192 0
 788 000c 02B0     		add	sp, sp, #8
 789 000e 7047     		bx	lr
 790              		.cfi_endproc
 791              	.LFE21:
 792              		.size	sys_mbox_set_invalid, .-sys_mbox_set_invalid
 793              		.section	.text.sys_thread_new,"ax",%progbits
 794              		.align	2
 795              		.p2align 4,,15
 796              		.global	sys_thread_new
 797              		.thumb
 798              		.thumb_func
 799              		.type	sys_thread_new, %function
 800              	sys_thread_new:
 801              	.LFB22:
 802              		.loc 1 195 0
 803              		.cfi_startproc
 804              		@ args = 4, pretend = 0, frame = 24
 805              		@ frame_needed = 0, uses_anonymous_args = 0
 806 0000 00B5     		push	{lr}
 807              	.LCFI24:
 808              		.cfi_def_cfa_offset 4
 809              		.cfi_offset 14, -4
 810 0002 89B0     		sub	sp, sp, #36
 811              	.LCFI25:
 812              		.cfi_def_cfa_offset 40
 813 0004 0590     		str	r0, [sp, #20]
 814 0006 0491     		str	r1, [sp, #16]
 815 0008 0392     		str	r2, [sp, #12]
 816 000a 0293     		str	r3, [sp, #8]
 817              		.loc 1 198 0
 818 000c 029B     		ldr	r3, [sp, #8]
 819 000e 03F1AF03 		add	r3, r3, #175
 820 0012 43F00703 		orr	r3, r3, #7
 821 0016 03F10103 		add	r3, r3, #1
 822 001a 0793     		str	r3, [sp, #28]
 823              		.loc 1 199 0
 824 001c 0798     		ldr	r0, [sp, #28]
 825 001e FFF7FEFF 		bl	chCoreAlloc
 826 0022 0346     		mov	r3, r0
 827 0024 0693     		str	r3, [sp, #24]
 828              		.loc 1 200 0
 829 0026 069B     		ldr	r3, [sp, #24]
 830 0028 002B     		cmp	r3, #0
 831 002a 02D1     		bne	.L35
 832              		.loc 1 201 0
 833 002c 4FF00003 		mov	r3, #0
 834 0030 08E0     		b	.L36
 835              	.L35:
 836              		.loc 1 202 0
 837 0032 0A9A     		ldr	r2, [sp, #40]
 838 0034 049B     		ldr	r3, [sp, #16]
 839 0036 0399     		ldr	r1, [sp, #12]
ARM GAS  /tmp/ccYskyog.s 			page 16


 840 0038 0091     		str	r1, [sp, #0]
 841 003a 0698     		ldr	r0, [sp, #24]
 842 003c 0799     		ldr	r1, [sp, #28]
 843 003e FFF7FEFF 		bl	chThdCreateStatic
 844 0042 0346     		mov	r3, r0
 845              	.L36:
 846              		.loc 1 203 0
 847 0044 1846     		mov	r0, r3
 848 0046 09B0     		add	sp, sp, #36
 849 0048 00BD     		pop	{pc}
 850              		.cfi_endproc
 851              	.LFE22:
 852              		.size	sys_thread_new, .-sys_thread_new
 853 004a 00BFAFF3 		.section	.text.sys_arch_protect,"ax",%progbits
 853      0080
 854              		.align	2
 855              		.p2align 4,,15
 856              		.global	sys_arch_protect
 857              		.thumb
 858              		.thumb_func
 859              		.type	sys_arch_protect, %function
 860              	sys_arch_protect:
 861              	.LFB23:
 862              		.loc 1 205 0
 863              		.cfi_startproc
 864              		@ args = 0, pretend = 0, frame = 0
 865              		@ frame_needed = 0, uses_anonymous_args = 0
 866 0000 08B5     		push	{r3, lr}
 867              	.LCFI26:
 868              		.cfi_def_cfa_offset 8
 869              		.cfi_offset 14, -4
 870              		.cfi_offset 3, -8
 871              	.LBB6:
 872              		.loc 1 207 0
 873 0002 4FF02003 		mov	r3, #32
 874              	@ 207 "../../os/various/lwip_bindings/arch/sys_arch.c" 1
 875 0006 83F31188 		msr     BASEPRI, r3
 876              	@ 0 "" 2
 877              		.thumb
 878              	.LBE6:
 879 000a FFF7FEFF 		bl	dbg_check_lock
 880              		.loc 1 208 0
 881 000e 4FF00003 		mov	r3, #0
 882              		.loc 1 209 0
 883 0012 1846     		mov	r0, r3
 884 0014 08BD     		pop	{r3, pc}
 885              		.cfi_endproc
 886              	.LFE23:
 887              		.size	sys_arch_protect, .-sys_arch_protect
 888 0016 00BFAFF3 		.section	.text.sys_arch_unprotect,"ax",%progbits
 888      0080AFF3 
 888      0080
 889              		.align	2
 890              		.p2align 4,,15
 891              		.global	sys_arch_unprotect
 892              		.thumb
 893              		.thumb_func
ARM GAS  /tmp/ccYskyog.s 			page 17


 894              		.type	sys_arch_unprotect, %function
 895              	sys_arch_unprotect:
 896              	.LFB24:
 897              		.loc 1 211 0
 898              		.cfi_startproc
 899              		@ args = 0, pretend = 0, frame = 8
 900              		@ frame_needed = 0, uses_anonymous_args = 0
 901 0000 00B5     		push	{lr}
 902              	.LCFI27:
 903              		.cfi_def_cfa_offset 4
 904              		.cfi_offset 14, -4
 905 0002 83B0     		sub	sp, sp, #12
 906              	.LCFI28:
 907              		.cfi_def_cfa_offset 16
 908 0004 0190     		str	r0, [sp, #4]
 909              		.loc 1 214 0
 910 0006 FFF7FEFF 		bl	dbg_check_unlock
 911              	.LBB7:
 912 000a 4FF00003 		mov	r3, #0
 913              	@ 214 "../../os/various/lwip_bindings/arch/sys_arch.c" 1
 914 000e 83F31188 		msr     BASEPRI, r3
 915              	@ 0 "" 2
 916              		.thumb
 917              	.LBE7:
 918              		.loc 1 215 0
 919 0012 03B0     		add	sp, sp, #12
 920 0014 00BD     		pop	{pc}
 921              		.cfi_endproc
 922              	.LFE24:
 923              		.size	sys_arch_unprotect, .-sys_arch_unprotect
 924 0016 00BFAFF3 		.text
 924      0080AFF3 
 924      0080
 925              	.Letext0:
 926              		.file 2 "/home/texzk/ChibiStudio/tools/GNU Tools ARM Embedded/4.6 2012q2/bin/../lib/gcc/arm-none-e
 927              		.file 3 "/home/texzk/ChibiStudio/tools/GNU Tools ARM Embedded/4.6 2012q2/bin/../lib/gcc/arm-none-e
 928              		.file 4 "../../os/ports/GCC/ARMCMx/chtypes.h"
 929              		.file 5 "../../os/kernel/include/chlists.h"
 930              		.file 6 "../../os/kernel/include/chthreads.h"
 931              		.file 7 "../../os/ports/GCC/ARMCMx/chcore_v7m.h"
 932              		.file 8 "../../os/kernel/include/chvt.h"
 933              		.file 9 "../../os/kernel/include/chsem.h"
 934              		.file 10 "../../os/kernel/include/chmtx.h"
 935              		.file 11 "../../os/kernel/include/chmboxes.h"
 936              		.file 12 "../../os/various/lwip_bindings/arch/cc.h"
 937              		.file 13 "../../ext/lwip/src/include/lwip/mem.h"
 938              		.file 14 "../../ext/lwip/src/include/lwip/err.h"
 939              		.file 15 "../../os/various/lwip_bindings/arch/sys_arch.h"
 940              		.file 16 "../../ext/lwip/src/include/lwip/sys.h"
 941              		.file 17 "../../ext/lwip/src/include/lwip/stats.h"