ARM GAS  /tmp/ccgFJ4Zb.s 			page 1


   1              		.syntax unified
   2              		.cpu cortex-m3
   3              		.fpu softvfp
   4              		.eabi_attribute 20, 1
   5              		.eabi_attribute 21, 1
   6              		.eabi_attribute 23, 3
   7              		.eabi_attribute 24, 1
   8              		.eabi_attribute 25, 1
   9              		.eabi_attribute 26, 1
  10              		.eabi_attribute 30, 6
  11              		.eabi_attribute 34, 1
  12              		.eabi_attribute 18, 4
  13              		.thumb
  14              		.file	"tcp.c"
  15              		.text
  16              	.Ltext0:
  17              		.cfi_sections	.debug_frame
  18              		.global	tcp_state_str
  19              		.section	.rodata
  20              		.align	2
  21              	.LC0:
  22 0000 434C4F53 		.ascii	"CLOSED\000"
  22      454400
  23 0007 00       		.align	2
  24              	.LC1:
  25 0008 4C495354 		.ascii	"LISTEN\000"
  25      454E00
  26 000f 00       		.align	2
  27              	.LC2:
  28 0010 53594E5F 		.ascii	"SYN_SENT\000"
  28      53454E54 
  28      00
  29 0019 000000   		.align	2
  30              	.LC3:
  31 001c 53594E5F 		.ascii	"SYN_RCVD\000"
  31      52435644 
  31      00
  32 0025 000000   		.align	2
  33              	.LC4:
  34 0028 45535441 		.ascii	"ESTABLISHED\000"
  34      424C4953 
  34      48454400 
  35              		.align	2
  36              	.LC5:
  37 0034 46494E5F 		.ascii	"FIN_WAIT_1\000"
  37      57414954 
  37      5F3100
  38 003f 00       		.align	2
  39              	.LC6:
  40 0040 46494E5F 		.ascii	"FIN_WAIT_2\000"
  40      57414954 
  40      5F3200
  41 004b 00       		.align	2
  42              	.LC7:
  43 004c 434C4F53 		.ascii	"CLOSE_WAIT\000"
  43      455F5741 
  43      495400
ARM GAS  /tmp/ccgFJ4Zb.s 			page 2


  44 0057 00       		.align	2
  45              	.LC8:
  46 0058 434C4F53 		.ascii	"CLOSING\000"
  46      494E4700 
  47              		.align	2
  48              	.LC9:
  49 0060 4C415354 		.ascii	"LAST_ACK\000"
  49      5F41434B 
  49      00
  50 0069 000000   		.align	2
  51              	.LC10:
  52 006c 54494D45 		.ascii	"TIME_WAIT\000"
  52      5F574149 
  52      5400
  53 0076 0000     		.section	.rodata.tcp_state_str,"a",%progbits
  54              		.align	2
  55              		.type	tcp_state_str, %object
  56              		.size	tcp_state_str, 44
  57              	tcp_state_str:
  58 0000 00000000 		.word	.LC0
  59 0004 08000000 		.word	.LC1
  60 0008 10000000 		.word	.LC2
  61 000c 1C000000 		.word	.LC3
  62 0010 28000000 		.word	.LC4
  63 0014 34000000 		.word	.LC5
  64 0018 40000000 		.word	.LC6
  65 001c 4C000000 		.word	.LC7
  66 0020 58000000 		.word	.LC8
  67 0024 60000000 		.word	.LC9
  68 0028 6C000000 		.word	.LC10
  69              		.global	tcp_ticks
  70              		.section	.bss.tcp_ticks,"aw",%nobits
  71              		.align	2
  72              		.type	tcp_ticks, %object
  73              		.size	tcp_ticks, 4
  74              	tcp_ticks:
  75 0000 00000000 		.space	4
  76              		.global	tcp_backoff
  77              		.section	.rodata.tcp_backoff,"a",%progbits
  78              		.align	2
  79              		.type	tcp_backoff, %object
  80              		.size	tcp_backoff, 13
  81              	tcp_backoff:
  82 0000 01       		.byte	1
  83 0001 02       		.byte	2
  84 0002 03       		.byte	3
  85 0003 04       		.byte	4
  86 0004 05       		.byte	5
  87 0005 06       		.byte	6
  88 0006 07       		.byte	7
  89 0007 07       		.byte	7
  90 0008 07       		.byte	7
  91 0009 07       		.byte	7
  92 000a 07       		.byte	7
  93 000b 07       		.byte	7
  94 000c 07       		.byte	7
  95              		.global	tcp_persist_backoff
ARM GAS  /tmp/ccgFJ4Zb.s 			page 3


  96 000d 000000   		.section	.rodata.tcp_persist_backoff,"a",%progbits
  97              		.align	2
  98              		.type	tcp_persist_backoff, %object
  99              		.size	tcp_persist_backoff, 7
 100              	tcp_persist_backoff:
 101 0000 03       		.byte	3
 102 0001 06       		.byte	6
 103 0002 0C       		.byte	12
 104 0003 18       		.byte	24
 105 0004 30       		.byte	48
 106 0005 60       		.byte	96
 107 0006 78       		.byte	120
 108              		.global	tcp_bound_pcbs
 109 0007 00       		.section	.bss.tcp_bound_pcbs,"aw",%nobits
 110              		.align	2
 111              		.type	tcp_bound_pcbs, %object
 112              		.size	tcp_bound_pcbs, 4
 113              	tcp_bound_pcbs:
 114 0000 00000000 		.space	4
 115              		.global	tcp_listen_pcbs
 116              		.section	.bss.tcp_listen_pcbs,"aw",%nobits
 117              		.align	2
 118              		.type	tcp_listen_pcbs, %object
 119              		.size	tcp_listen_pcbs, 4
 120              	tcp_listen_pcbs:
 121 0000 00000000 		.space	4
 122              		.global	tcp_active_pcbs
 123              		.section	.bss.tcp_active_pcbs,"aw",%nobits
 124              		.align	2
 125              		.type	tcp_active_pcbs, %object
 126              		.size	tcp_active_pcbs, 4
 127              	tcp_active_pcbs:
 128 0000 00000000 		.space	4
 129              		.global	tcp_tw_pcbs
 130              		.section	.bss.tcp_tw_pcbs,"aw",%nobits
 131              		.align	2
 132              		.type	tcp_tw_pcbs, %object
 133              		.size	tcp_tw_pcbs, 4
 134              	tcp_tw_pcbs:
 135 0000 00000000 		.space	4
 136              		.global	tcp_pcb_lists
 137              		.section	.rodata.tcp_pcb_lists,"a",%progbits
 138              		.align	2
 139              		.type	tcp_pcb_lists, %object
 140              		.size	tcp_pcb_lists, 16
 141              	tcp_pcb_lists:
 142 0000 00000000 		.word	tcp_listen_pcbs
 143 0004 00000000 		.word	tcp_bound_pcbs
 144 0008 00000000 		.word	tcp_active_pcbs
 145 000c 00000000 		.word	tcp_tw_pcbs
 146              		.global	tcp_tmp_pcb
 147              		.section	.bss.tcp_tmp_pcb,"aw",%nobits
 148              		.align	2
 149              		.type	tcp_tmp_pcb, %object
 150              		.size	tcp_tmp_pcb, 4
 151              	tcp_tmp_pcb:
 152 0000 00000000 		.space	4
ARM GAS  /tmp/ccgFJ4Zb.s 			page 4


 153              		.section	.bss.tcp_timer,"aw",%nobits
 154              		.type	tcp_timer, %object
 155              		.size	tcp_timer, 1
 156              	tcp_timer:
 157 0000 00       		.space	1
 158              		.section	.text.tcp_tmr,"ax",%progbits
 159              		.align	2
 160              		.p2align 4,,15
 161              		.global	tcp_tmr
 162              		.thumb
 163              		.thumb_func
 164              		.type	tcp_tmr, %function
 165              	tcp_tmr:
 166              	.LFB7:
 167              		.file 1 "../../ext/lwip/src/core/tcp.c"
 168              		.loc 1 110 0
 169              		.cfi_startproc
 170              		@ args = 0, pretend = 0, frame = 0
 171              		@ frame_needed = 0, uses_anonymous_args = 0
 172 0000 08B5     		push	{r3, lr}
 173              	.LCFI0:
 174              		.cfi_def_cfa_offset 8
 175              		.cfi_offset 14, -4
 176              		.cfi_offset 3, -8
 177              		.loc 1 112 0
 178 0002 FFF7FEFF 		bl	tcp_fasttmr
 179              		.loc 1 114 0
 180 0006 40F20003 		movw	r3, #:lower16:tcp_timer
 181 000a C0F20003 		movt	r3, #:upper16:tcp_timer
 182 000e 1B78     		ldrb	r3, [r3, #0]	@ zero_extendqisi2
 183 0010 03F10103 		add	r3, r3, #1
 184 0014 DAB2     		uxtb	r2, r3
 185 0016 40F20003 		movw	r3, #:lower16:tcp_timer
 186 001a C0F20003 		movt	r3, #:upper16:tcp_timer
 187 001e 1A70     		strb	r2, [r3, #0]
 188 0020 40F20003 		movw	r3, #:lower16:tcp_timer
 189 0024 C0F20003 		movt	r3, #:upper16:tcp_timer
 190 0028 1B78     		ldrb	r3, [r3, #0]	@ zero_extendqisi2
 191 002a 03F00103 		and	r3, r3, #1
 192 002e DBB2     		uxtb	r3, r3
 193 0030 002B     		cmp	r3, #0
 194 0032 01D0     		beq	.L1
 195              		.loc 1 117 0
 196 0034 FFF7FEFF 		bl	tcp_slowtmr
 197              	.L1:
 198              		.loc 1 119 0
 199 0038 08BD     		pop	{r3, pc}
 200              		.cfi_endproc
 201              	.LFE7:
 202              		.size	tcp_tmr, .-tcp_tmr
 203 003a 00BFAFF3 		.section	.text.tcp_close_shutdown,"ax",%progbits
 203      0080
 204              		.align	2
 205              		.p2align 4,,15
 206              		.thumb
 207              		.thumb_func
 208              		.type	tcp_close_shutdown, %function
ARM GAS  /tmp/ccgFJ4Zb.s 			page 5


 209              	tcp_close_shutdown:
 210              	.LFB8:
 211              		.loc 1 139 0
 212              		.cfi_startproc
 213              		@ args = 0, pretend = 0, frame = 16
 214              		@ frame_needed = 0, uses_anonymous_args = 0
 215 0000 30B5     		push	{r4, r5, lr}
 216              	.LCFI1:
 217              		.cfi_def_cfa_offset 12
 218              		.cfi_offset 14, -4
 219              		.cfi_offset 5, -8
 220              		.cfi_offset 4, -12
 221 0002 87B0     		sub	sp, sp, #28
 222              	.LCFI2:
 223              		.cfi_def_cfa_offset 40
 224 0004 0390     		str	r0, [sp, #12]
 225 0006 0B46     		mov	r3, r1
 226 0008 8DF80B30 		strb	r3, [sp, #11]
 227              		.loc 1 142 0
 228 000c 9DF80B30 		ldrb	r3, [sp, #11]	@ zero_extendqisi2
 229 0010 002B     		cmp	r3, #0
 230 0012 00F08880 		beq	.L4
 231              		.loc 1 142 0 is_stmt 0 discriminator 1
 232 0016 039B     		ldr	r3, [sp, #12]
 233 0018 1B7C     		ldrb	r3, [r3, #16]	@ zero_extendqisi2
 234 001a 012B     		cmp	r3, #1
 235 001c 00F08380 		beq	.L4
 236              		.loc 1 143 0 is_stmt 1
 237 0020 039B     		ldr	r3, [sp, #12]
 238 0022 D3F88030 		ldr	r3, [r3, #128]
 239 0026 002B     		cmp	r3, #0
 240 0028 04D1     		bne	.L5
 241              		.loc 1 143 0 is_stmt 0 discriminator 1
 242 002a 039B     		ldr	r3, [sp, #12]
 243 002c 1B8D     		ldrh	r3, [r3, #40]
 244 002e B3F5066F 		cmp	r3, #2144
 245 0032 78D0     		beq	.L4
 246              	.L5:
 247              		.loc 1 146 0 is_stmt 1
 248 0034 039B     		ldr	r3, [sp, #12]
 249 0036 93F82030 		ldrb	r3, [r3, #32]	@ zero_extendqisi2
 250 003a 03F01003 		and	r3, r3, #16
 251 003e 002B     		cmp	r3, #0
 252 0040 01D1     		bne	.L6
 253              		.loc 1 146 0 is_stmt 0 discriminator 1
 254 0042 FFF7FEFF 		bl	port_halt
 255              	.L6:
 256              		.loc 1 150 0 is_stmt 1
 257 0046 039B     		ldr	r3, [sp, #12]
 258 0048 986D     		ldr	r0, [r3, #88]
 259 004a 039B     		ldr	r3, [sp, #12]
 260 004c 596A     		ldr	r1, [r3, #36]
 261 004e 039A     		ldr	r2, [sp, #12]
 262 0050 039B     		ldr	r3, [sp, #12]
 263 0052 03F10403 		add	r3, r3, #4
 264              		.loc 1 151 0
 265 0056 039C     		ldr	r4, [sp, #12]
ARM GAS  /tmp/ccgFJ4Zb.s 			page 6


 266              		.loc 1 150 0
 267 0058 A58B     		ldrh	r5, [r4, #28]
 268              		.loc 1 151 0
 269 005a 039C     		ldr	r4, [sp, #12]
 270              		.loc 1 150 0
 271 005c E48B     		ldrh	r4, [r4, #30]
 272 005e 0095     		str	r5, [sp, #0]
 273 0060 0194     		str	r4, [sp, #4]
 274 0062 FFF7FEFF 		bl	tcp_rst
 275              		.loc 1 153 0
 276 0066 0398     		ldr	r0, [sp, #12]
 277 0068 FFF7FEFF 		bl	tcp_pcb_purge
 278              		.loc 1 158 0
 279 006c 40F20003 		movw	r3, #:lower16:tcp_active_pcbs
 280 0070 C0F20003 		movt	r3, #:upper16:tcp_active_pcbs
 281 0074 1A68     		ldr	r2, [r3, #0]
 282 0076 039B     		ldr	r3, [sp, #12]
 283 0078 9A42     		cmp	r2, r3
 284 007a 0BD1     		bne	.L7
 285              		.loc 1 158 0 is_stmt 0 discriminator 1
 286 007c 40F20003 		movw	r3, #:lower16:tcp_active_pcbs
 287 0080 C0F20003 		movt	r3, #:upper16:tcp_active_pcbs
 288 0084 1B68     		ldr	r3, [r3, #0]
 289 0086 DA68     		ldr	r2, [r3, #12]
 290 0088 40F20003 		movw	r3, #:lower16:tcp_active_pcbs
 291 008c C0F20003 		movt	r3, #:upper16:tcp_active_pcbs
 292 0090 1A60     		str	r2, [r3, #0]
 293 0092 2EE0     		b	.L8
 294              	.L7:
 295              		.loc 1 158 0 discriminator 2
 296 0094 40F20003 		movw	r3, #:lower16:tcp_active_pcbs
 297 0098 C0F20003 		movt	r3, #:upper16:tcp_active_pcbs
 298 009c 1A68     		ldr	r2, [r3, #0]
 299 009e 40F20003 		movw	r3, #:lower16:tcp_tmp_pcb
 300 00a2 C0F20003 		movt	r3, #:upper16:tcp_tmp_pcb
 301 00a6 1A60     		str	r2, [r3, #0]
 302 00a8 1CE0     		b	.L9
 303              	.L11:
 304              		.loc 1 158 0 discriminator 7
 305 00aa 40F20003 		movw	r3, #:lower16:tcp_tmp_pcb
 306 00ae C0F20003 		movt	r3, #:upper16:tcp_tmp_pcb
 307 00b2 1B68     		ldr	r3, [r3, #0]
 308 00b4 DA68     		ldr	r2, [r3, #12]
 309 00b6 039B     		ldr	r3, [sp, #12]
 310 00b8 9A42     		cmp	r2, r3
 311 00ba 08D1     		bne	.L10
 312              		.loc 1 158 0 discriminator 4
 313 00bc 40F20003 		movw	r3, #:lower16:tcp_tmp_pcb
 314 00c0 C0F20003 		movt	r3, #:upper16:tcp_tmp_pcb
 315 00c4 1B68     		ldr	r3, [r3, #0]
 316 00c6 039A     		ldr	r2, [sp, #12]
 317 00c8 D268     		ldr	r2, [r2, #12]
 318 00ca DA60     		str	r2, [r3, #12]
 319 00cc 11E0     		b	.L8
 320              	.L10:
 321              		.loc 1 158 0 discriminator 5
 322 00ce 40F20003 		movw	r3, #:lower16:tcp_tmp_pcb
ARM GAS  /tmp/ccgFJ4Zb.s 			page 7


 323 00d2 C0F20003 		movt	r3, #:upper16:tcp_tmp_pcb
 324 00d6 1B68     		ldr	r3, [r3, #0]
 325 00d8 DA68     		ldr	r2, [r3, #12]
 326 00da 40F20003 		movw	r3, #:lower16:tcp_tmp_pcb
 327 00de C0F20003 		movt	r3, #:upper16:tcp_tmp_pcb
 328 00e2 1A60     		str	r2, [r3, #0]
 329              	.L9:
 330              		.loc 1 158 0 discriminator 3
 331 00e4 40F20003 		movw	r3, #:lower16:tcp_tmp_pcb
 332 00e8 C0F20003 		movt	r3, #:upper16:tcp_tmp_pcb
 333 00ec 1B68     		ldr	r3, [r3, #0]
 334 00ee 002B     		cmp	r3, #0
 335 00f0 DBD1     		bne	.L11
 336              	.L8:
 337              		.loc 1 158 0 discriminator 6
 338 00f2 039B     		ldr	r3, [sp, #12]
 339 00f4 4FF00002 		mov	r2, #0
 340 00f8 DA60     		str	r2, [r3, #12]
 341              		.loc 1 159 0 is_stmt 1 discriminator 6
 342 00fa 039B     		ldr	r3, [sp, #12]
 343 00fc 4FF00A02 		mov	r2, #10
 344 0100 1A74     		strb	r2, [r3, #16]
 345              		.loc 1 160 0 discriminator 6
 346 0102 40F20003 		movw	r3, #:lower16:tcp_tw_pcbs
 347 0106 C0F20003 		movt	r3, #:upper16:tcp_tw_pcbs
 348 010a 1A68     		ldr	r2, [r3, #0]
 349 010c 039B     		ldr	r3, [sp, #12]
 350 010e DA60     		str	r2, [r3, #12]
 351 0110 40F20003 		movw	r3, #:lower16:tcp_tw_pcbs
 352 0114 C0F20003 		movt	r3, #:upper16:tcp_tw_pcbs
 353 0118 039A     		ldr	r2, [sp, #12]
 354 011a 1A60     		str	r2, [r3, #0]
 355 011c FFF7FEFF 		bl	tcp_timer_needed
 356              		.loc 1 162 0 discriminator 6
 357 0120 4FF00003 		mov	r3, #0
 358 0124 DEE0     		b	.L12
 359              	.L4:
 360              		.loc 1 166 0
 361 0126 039B     		ldr	r3, [sp, #12]
 362 0128 1B7C     		ldrb	r3, [r3, #16]	@ zero_extendqisi2
 363 012a 072B     		cmp	r3, #7
 364 012c 00F2C180 		bhi	.L13
 365 0130 01A2     		adr	r2, .L20
 366 0132 52F823F0 		ldr	pc, [r2, r3, lsl #2]
 367 0136 00BF     		.align	2
 368              	.L20:
 369 0138 59010000 		.word	.L14+1
 370 013c 09020000 		.word	.L15+1
 371 0140 31020000 		.word	.L16+1
 372 0144 59020000 		.word	.L17+1
 373 0148 77020000 		.word	.L18+1
 374 014c B3020000 		.word	.L13+1
 375 0150 B3020000 		.word	.L13+1
 376 0154 95020000 		.word	.L19+1
 377              	.L14:
 378              		.loc 1 175 0
 379 0158 4FF00003 		mov	r3, #0
ARM GAS  /tmp/ccgFJ4Zb.s 			page 8


 380 015c 8DF81730 		strb	r3, [sp, #23]
 381              		.loc 1 176 0
 382 0160 039B     		ldr	r3, [sp, #12]
 383 0162 9B8B     		ldrh	r3, [r3, #28]
 384 0164 002B     		cmp	r3, #0
 385 0166 46D0     		beq	.L21
 386              		.loc 1 177 0
 387 0168 40F20003 		movw	r3, #:lower16:tcp_bound_pcbs
 388 016c C0F20003 		movt	r3, #:upper16:tcp_bound_pcbs
 389 0170 1A68     		ldr	r2, [r3, #0]
 390 0172 039B     		ldr	r3, [sp, #12]
 391 0174 9A42     		cmp	r2, r3
 392 0176 0BD1     		bne	.L22
 393              		.loc 1 177 0 is_stmt 0 discriminator 1
 394 0178 40F20003 		movw	r3, #:lower16:tcp_bound_pcbs
 395 017c C0F20003 		movt	r3, #:upper16:tcp_bound_pcbs
 396 0180 1B68     		ldr	r3, [r3, #0]
 397 0182 DA68     		ldr	r2, [r3, #12]
 398 0184 40F20003 		movw	r3, #:lower16:tcp_bound_pcbs
 399 0188 C0F20003 		movt	r3, #:upper16:tcp_bound_pcbs
 400 018c 1A60     		str	r2, [r3, #0]
 401 018e 2EE0     		b	.L23
 402              	.L22:
 403              		.loc 1 177 0 discriminator 2
 404 0190 40F20003 		movw	r3, #:lower16:tcp_bound_pcbs
 405 0194 C0F20003 		movt	r3, #:upper16:tcp_bound_pcbs
 406 0198 1A68     		ldr	r2, [r3, #0]
 407 019a 40F20003 		movw	r3, #:lower16:tcp_tmp_pcb
 408 019e C0F20003 		movt	r3, #:upper16:tcp_tmp_pcb
 409 01a2 1A60     		str	r2, [r3, #0]
 410 01a4 1CE0     		b	.L24
 411              	.L26:
 412              		.loc 1 177 0 discriminator 7
 413 01a6 40F20003 		movw	r3, #:lower16:tcp_tmp_pcb
 414 01aa C0F20003 		movt	r3, #:upper16:tcp_tmp_pcb
 415 01ae 1B68     		ldr	r3, [r3, #0]
 416 01b0 DA68     		ldr	r2, [r3, #12]
 417 01b2 039B     		ldr	r3, [sp, #12]
 418 01b4 9A42     		cmp	r2, r3
 419 01b6 08D1     		bne	.L25
 420              		.loc 1 177 0 discriminator 4
 421 01b8 40F20003 		movw	r3, #:lower16:tcp_tmp_pcb
 422 01bc C0F20003 		movt	r3, #:upper16:tcp_tmp_pcb
 423 01c0 1B68     		ldr	r3, [r3, #0]
 424 01c2 039A     		ldr	r2, [sp, #12]
 425 01c4 D268     		ldr	r2, [r2, #12]
 426 01c6 DA60     		str	r2, [r3, #12]
 427 01c8 11E0     		b	.L23
 428              	.L25:
 429              		.loc 1 177 0 discriminator 5
 430 01ca 40F20003 		movw	r3, #:lower16:tcp_tmp_pcb
 431 01ce C0F20003 		movt	r3, #:upper16:tcp_tmp_pcb
 432 01d2 1B68     		ldr	r3, [r3, #0]
 433 01d4 DA68     		ldr	r2, [r3, #12]
 434 01d6 40F20003 		movw	r3, #:lower16:tcp_tmp_pcb
 435 01da C0F20003 		movt	r3, #:upper16:tcp_tmp_pcb
 436 01de 1A60     		str	r2, [r3, #0]
ARM GAS  /tmp/ccgFJ4Zb.s 			page 9


 437              	.L24:
 438              		.loc 1 177 0 discriminator 3
 439 01e0 40F20003 		movw	r3, #:lower16:tcp_tmp_pcb
 440 01e4 C0F20003 		movt	r3, #:upper16:tcp_tmp_pcb
 441 01e8 1B68     		ldr	r3, [r3, #0]
 442 01ea 002B     		cmp	r3, #0
 443 01ec DBD1     		bne	.L26
 444              	.L23:
 445              		.loc 1 177 0 discriminator 6
 446 01ee 039B     		ldr	r3, [sp, #12]
 447 01f0 4FF00002 		mov	r2, #0
 448 01f4 DA60     		str	r2, [r3, #12]
 449              	.L21:
 450              		.loc 1 179 0 is_stmt 1
 451 01f6 4FF00200 		mov	r0, #2
 452 01fa 0399     		ldr	r1, [sp, #12]
 453 01fc FFF7FEFF 		bl	memp_free
 454              		.loc 1 180 0
 455 0200 4FF00003 		mov	r3, #0
 456 0204 0393     		str	r3, [sp, #12]
 457              		.loc 1 181 0
 458 0206 61E0     		b	.L27
 459              	.L15:
 460              		.loc 1 183 0
 461 0208 4FF00003 		mov	r3, #0
 462 020c 8DF81730 		strb	r3, [sp, #23]
 463              		.loc 1 184 0
 464 0210 40F20000 		movw	r0, #:lower16:tcp_listen_pcbs
 465 0214 C0F20000 		movt	r0, #:upper16:tcp_listen_pcbs
 466 0218 0399     		ldr	r1, [sp, #12]
 467 021a FFF7FEFF 		bl	tcp_pcb_remove
 468              		.loc 1 185 0
 469 021e 4FF00300 		mov	r0, #3
 470 0222 0399     		ldr	r1, [sp, #12]
 471 0224 FFF7FEFF 		bl	memp_free
 472              		.loc 1 186 0
 473 0228 4FF00003 		mov	r3, #0
 474 022c 0393     		str	r3, [sp, #12]
 475              		.loc 1 187 0
 476 022e 4DE0     		b	.L27
 477              	.L16:
 478              		.loc 1 189 0
 479 0230 4FF00003 		mov	r3, #0
 480 0234 8DF81730 		strb	r3, [sp, #23]
 481              		.loc 1 190 0
 482 0238 40F20000 		movw	r0, #:lower16:tcp_active_pcbs
 483 023c C0F20000 		movt	r0, #:upper16:tcp_active_pcbs
 484 0240 0399     		ldr	r1, [sp, #12]
 485 0242 FFF7FEFF 		bl	tcp_pcb_remove
 486              		.loc 1 191 0
 487 0246 4FF00200 		mov	r0, #2
 488 024a 0399     		ldr	r1, [sp, #12]
 489 024c FFF7FEFF 		bl	memp_free
 490              		.loc 1 192 0
 491 0250 4FF00003 		mov	r3, #0
 492 0254 0393     		str	r3, [sp, #12]
 493              		.loc 1 194 0
ARM GAS  /tmp/ccgFJ4Zb.s 			page 10


 494 0256 39E0     		b	.L27
 495              	.L17:
 496              		.loc 1 196 0
 497 0258 0398     		ldr	r0, [sp, #12]
 498 025a FFF7FEFF 		bl	tcp_send_fin
 499 025e 0346     		mov	r3, r0
 500 0260 8DF81730 		strb	r3, [sp, #23]
 501              		.loc 1 197 0
 502 0264 9DF91730 		ldrsb	r3, [sp, #23]
 503 0268 002B     		cmp	r3, #0
 504 026a 2AD1     		bne	.L32
 505              		.loc 1 199 0
 506 026c 039B     		ldr	r3, [sp, #12]
 507 026e 4FF00502 		mov	r2, #5
 508 0272 1A74     		strb	r2, [r3, #16]
 509              		.loc 1 201 0
 510 0274 25E0     		b	.L32
 511              	.L18:
 512              		.loc 1 203 0
 513 0276 0398     		ldr	r0, [sp, #12]
 514 0278 FFF7FEFF 		bl	tcp_send_fin
 515 027c 0346     		mov	r3, r0
 516 027e 8DF81730 		strb	r3, [sp, #23]
 517              		.loc 1 204 0
 518 0282 9DF91730 		ldrsb	r3, [sp, #23]
 519 0286 002B     		cmp	r3, #0
 520 0288 1DD1     		bne	.L33
 521              		.loc 1 206 0
 522 028a 039B     		ldr	r3, [sp, #12]
 523 028c 4FF00502 		mov	r2, #5
 524 0290 1A74     		strb	r2, [r3, #16]
 525              		.loc 1 208 0
 526 0292 18E0     		b	.L33
 527              	.L19:
 528              		.loc 1 210 0
 529 0294 0398     		ldr	r0, [sp, #12]
 530 0296 FFF7FEFF 		bl	tcp_send_fin
 531 029a 0346     		mov	r3, r0
 532 029c 8DF81730 		strb	r3, [sp, #23]
 533              		.loc 1 211 0
 534 02a0 9DF91730 		ldrsb	r3, [sp, #23]
 535 02a4 002B     		cmp	r3, #0
 536 02a6 10D1     		bne	.L34
 537              		.loc 1 213 0
 538 02a8 039B     		ldr	r3, [sp, #12]
 539 02aa 4FF00902 		mov	r2, #9
 540 02ae 1A74     		strb	r2, [r3, #16]
 541              		.loc 1 215 0
 542 02b0 0BE0     		b	.L34
 543              	.L13:
 544              		.loc 1 218 0
 545 02b2 4FF00003 		mov	r3, #0
 546 02b6 8DF81730 		strb	r3, [sp, #23]
 547              		.loc 1 219 0
 548 02ba 4FF00003 		mov	r3, #0
 549 02be 0393     		str	r3, [sp, #12]
 550              		.loc 1 220 0
ARM GAS  /tmp/ccgFJ4Zb.s 			page 11


 551 02c0 04E0     		b	.L27
 552              	.L32:
 553              		.loc 1 201 0
 554 02c2 00BF     		nop
 555 02c4 02E0     		b	.L27
 556              	.L33:
 557              		.loc 1 208 0
 558 02c6 00BF     		nop
 559 02c8 00E0     		b	.L27
 560              	.L34:
 561              		.loc 1 215 0
 562 02ca 00BF     		nop
 563              	.L27:
 564              		.loc 1 223 0
 565 02cc 039B     		ldr	r3, [sp, #12]
 566 02ce 002B     		cmp	r3, #0
 567 02d0 06D0     		beq	.L31
 568              		.loc 1 223 0 is_stmt 0 discriminator 1
 569 02d2 9DF91730 		ldrsb	r3, [sp, #23]
 570 02d6 002B     		cmp	r3, #0
 571 02d8 02D1     		bne	.L31
 572              		.loc 1 232 0 is_stmt 1
 573 02da 0398     		ldr	r0, [sp, #12]
 574 02dc FFF7FEFF 		bl	tcp_output
 575              	.L31:
 576              		.loc 1 234 0
 577 02e0 9DF81730 		ldrb	r3, [sp, #23]	@ zero_extendqisi2
 578              	.L12:
 579 02e4 5BB2     		sxtb	r3, r3
 580              		.loc 1 235 0
 581 02e6 1846     		mov	r0, r3
 582 02e8 07B0     		add	sp, sp, #28
 583 02ea 30BD     		pop	{r4, r5, pc}
 584              		.cfi_endproc
 585              	.LFE8:
 586              		.size	tcp_close_shutdown, .-tcp_close_shutdown
 587 02ec AFF30080 		.section	.text.tcp_close,"ax",%progbits
 588              		.align	2
 589              		.p2align 4,,15
 590              		.global	tcp_close
 591              		.thumb
 592              		.thumb_func
 593              		.type	tcp_close, %function
 594              	tcp_close:
 595              	.LFB9:
 596              		.loc 1 253 0
 597              		.cfi_startproc
 598              		@ args = 0, pretend = 0, frame = 8
 599              		@ frame_needed = 0, uses_anonymous_args = 0
 600 0000 00B5     		push	{lr}
 601              	.LCFI3:
 602              		.cfi_def_cfa_offset 4
 603              		.cfi_offset 14, -4
 604 0002 83B0     		sub	sp, sp, #12
 605              	.LCFI4:
 606              		.cfi_def_cfa_offset 16
 607 0004 0190     		str	r0, [sp, #4]
ARM GAS  /tmp/ccgFJ4Zb.s 			page 12


 608              		.loc 1 259 0
 609 0006 019B     		ldr	r3, [sp, #4]
 610 0008 1B7C     		ldrb	r3, [r3, #16]	@ zero_extendqisi2
 611 000a 012B     		cmp	r3, #1
 612 000c 08D0     		beq	.L36
 613              		.loc 1 261 0
 614 000e 019B     		ldr	r3, [sp, #4]
 615 0010 93F82030 		ldrb	r3, [r3, #32]	@ zero_extendqisi2
 616 0014 43F01003 		orr	r3, r3, #16
 617 0018 DAB2     		uxtb	r2, r3
 618 001a 019B     		ldr	r3, [sp, #4]
 619 001c 83F82020 		strb	r2, [r3, #32]
 620              	.L36:
 621              		.loc 1 264 0
 622 0020 0198     		ldr	r0, [sp, #4]
 623 0022 4FF00101 		mov	r1, #1
 624 0026 FFF7FEFF 		bl	tcp_close_shutdown
 625 002a 0346     		mov	r3, r0
 626              		.loc 1 265 0
 627 002c 1846     		mov	r0, r3
 628 002e 03B0     		add	sp, sp, #12
 629 0030 00BD     		pop	{pc}
 630              		.cfi_endproc
 631              	.LFE9:
 632              		.size	tcp_close, .-tcp_close
 633 0032 00BFAFF3 		.section	.text.tcp_shutdown,"ax",%progbits
 633      0080AFF3 
 633      0080AFF3 
 633      0080
 634              		.align	2
 635              		.p2align 4,,15
 636              		.global	tcp_shutdown
 637              		.thumb
 638              		.thumb_func
 639              		.type	tcp_shutdown, %function
 640              	tcp_shutdown:
 641              	.LFB10:
 642              		.loc 1 279 0
 643              		.cfi_startproc
 644              		@ args = 0, pretend = 0, frame = 16
 645              		@ frame_needed = 0, uses_anonymous_args = 0
 646 0000 00B5     		push	{lr}
 647              	.LCFI5:
 648              		.cfi_def_cfa_offset 4
 649              		.cfi_offset 14, -4
 650 0002 85B0     		sub	sp, sp, #20
 651              	.LCFI6:
 652              		.cfi_def_cfa_offset 24
 653 0004 0390     		str	r0, [sp, #12]
 654 0006 0291     		str	r1, [sp, #8]
 655 0008 0192     		str	r2, [sp, #4]
 656              		.loc 1 280 0
 657 000a 039B     		ldr	r3, [sp, #12]
 658 000c 1B7C     		ldrb	r3, [r3, #16]	@ zero_extendqisi2
 659 000e 012B     		cmp	r3, #1
 660 0010 02D1     		bne	.L38
 661              		.loc 1 281 0
ARM GAS  /tmp/ccgFJ4Zb.s 			page 13


 662 0012 4FF0F303 		mov	r3, #243
 663 0016 34E0     		b	.L39
 664              	.L38:
 665              		.loc 1 283 0
 666 0018 029B     		ldr	r3, [sp, #8]
 667 001a 002B     		cmp	r3, #0
 668 001c 18D0     		beq	.L40
 669              		.loc 1 285 0
 670 001e 039B     		ldr	r3, [sp, #12]
 671 0020 D3F88030 		ldr	r3, [r3, #128]
 672 0024 002B     		cmp	r3, #0
 673 0026 0AD0     		beq	.L41
 674              		.loc 1 286 0
 675 0028 039B     		ldr	r3, [sp, #12]
 676 002a D3F88030 		ldr	r3, [r3, #128]
 677 002e 1846     		mov	r0, r3
 678 0030 FFF7FEFF 		bl	pbuf_free
 679              		.loc 1 287 0
 680 0034 039B     		ldr	r3, [sp, #12]
 681 0036 4FF00002 		mov	r2, #0
 682 003a C3F88020 		str	r2, [r3, #128]
 683              	.L41:
 684              		.loc 1 290 0
 685 003e 039B     		ldr	r3, [sp, #12]
 686 0040 93F82030 		ldrb	r3, [r3, #32]	@ zero_extendqisi2
 687 0044 43F01003 		orr	r3, r3, #16
 688 0048 DAB2     		uxtb	r2, r3
 689 004a 039B     		ldr	r3, [sp, #12]
 690 004c 83F82020 		strb	r2, [r3, #32]
 691              	.L40:
 692              		.loc 1 292 0
 693 0050 019B     		ldr	r3, [sp, #4]
 694 0052 002B     		cmp	r3, #0
 695 0054 13D0     		beq	.L42
 696              		.loc 1 295 0
 697 0056 039B     		ldr	r3, [sp, #12]
 698 0058 1B7C     		ldrb	r3, [r3, #16]	@ zero_extendqisi2
 699 005a 072B     		cmp	r3, #7
 700 005c 0ED8     		bhi	.L46
 701 005e 4FF00102 		mov	r2, #1
 702 0062 02FA03F3 		lsl	r3, r2, r3
 703 0066 03F09803 		and	r3, r3, #152
 704 006a 002B     		cmp	r3, #0
 705 006c 06D0     		beq	.L45
 706              	.L44:
 707              		.loc 1 299 0
 708 006e 0398     		ldr	r0, [sp, #12]
 709 0070 4FF00001 		mov	r1, #0
 710 0074 FFF7FEFF 		bl	tcp_close_shutdown
 711 0078 0346     		mov	r3, r0
 712 007a 02E0     		b	.L39
 713              	.L45:
 714              	.L46:
 715              		.loc 1 302 0
 716 007c 00BF     		nop
 717              	.L42:
 718              		.loc 1 306 0
ARM GAS  /tmp/ccgFJ4Zb.s 			page 14


 719 007e 4FF00003 		mov	r3, #0
 720              	.L39:
 721 0082 5BB2     		sxtb	r3, r3
 722              		.loc 1 307 0
 723 0084 1846     		mov	r0, r3
 724 0086 05B0     		add	sp, sp, #20
 725 0088 00BD     		pop	{pc}
 726              		.cfi_endproc
 727              	.LFE10:
 728              		.size	tcp_shutdown, .-tcp_shutdown
 729 008a 00BFAFF3 		.section	.text.tcp_abandon,"ax",%progbits
 729      0080
 730              		.align	2
 731              		.p2align 4,,15
 732              		.global	tcp_abandon
 733              		.thumb
 734              		.thumb_func
 735              		.type	tcp_abandon, %function
 736              	tcp_abandon:
 737              	.LFB11:
 738              		.loc 1 319 0
 739              		.cfi_startproc
 740              		@ args = 0, pretend = 0, frame = 40
 741              		@ frame_needed = 0, uses_anonymous_args = 0
 742 0000 00B5     		push	{lr}
 743              	.LCFI7:
 744              		.cfi_def_cfa_offset 4
 745              		.cfi_offset 14, -4
 746 0002 8DB0     		sub	sp, sp, #52
 747              	.LCFI8:
 748              		.cfi_def_cfa_offset 56
 749 0004 0390     		str	r0, [sp, #12]
 750 0006 0291     		str	r1, [sp, #8]
 751              		.loc 1 329 0
 752 0008 039B     		ldr	r3, [sp, #12]
 753 000a 1B7C     		ldrb	r3, [r3, #16]	@ zero_extendqisi2
 754 000c 012B     		cmp	r3, #1
 755 000e 01D1     		bne	.L48
 756              		.loc 1 329 0 is_stmt 0 discriminator 1
 757 0010 FFF7FEFF 		bl	port_halt
 758              	.L48:
 759              		.loc 1 334 0 is_stmt 1
 760 0014 039B     		ldr	r3, [sp, #12]
 761 0016 1B7C     		ldrb	r3, [r3, #16]	@ zero_extendqisi2
 762 0018 0A2B     		cmp	r3, #10
 763 001a 0CD1     		bne	.L49
 764              		.loc 1 335 0
 765 001c 40F20000 		movw	r0, #:lower16:tcp_tw_pcbs
 766 0020 C0F20000 		movt	r0, #:upper16:tcp_tw_pcbs
 767 0024 0399     		ldr	r1, [sp, #12]
 768 0026 FFF7FEFF 		bl	tcp_pcb_remove
 769              		.loc 1 336 0
 770 002a 4FF00200 		mov	r0, #2
 771 002e 0399     		ldr	r1, [sp, #12]
 772 0030 FFF7FEFF 		bl	memp_free
 773 0034 58E0     		b	.L47
 774              	.L49:
ARM GAS  /tmp/ccgFJ4Zb.s 			page 15


 775              		.loc 1 338 0
 776 0036 039B     		ldr	r3, [sp, #12]
 777 0038 9B6D     		ldr	r3, [r3, #88]
 778 003a 0B93     		str	r3, [sp, #44]
 779              		.loc 1 339 0
 780 003c 039B     		ldr	r3, [sp, #12]
 781 003e 5B6A     		ldr	r3, [r3, #36]
 782 0040 0A93     		str	r3, [sp, #40]
 783              		.loc 1 340 0
 784 0042 039B     		ldr	r3, [sp, #12]
 785 0044 1B68     		ldr	r3, [r3, #0]
 786 0046 0593     		str	r3, [sp, #20]
 787              		.loc 1 341 0
 788 0048 039B     		ldr	r3, [sp, #12]
 789 004a 5B68     		ldr	r3, [r3, #4]
 790 004c 0693     		str	r3, [sp, #24]
 791              		.loc 1 342 0
 792 004e 039B     		ldr	r3, [sp, #12]
 793 0050 9B8B     		ldrh	r3, [r3, #28]	@ movhi
 794 0052 ADF82630 		strh	r3, [sp, #38]	@ movhi
 795              		.loc 1 343 0
 796 0056 039B     		ldr	r3, [sp, #12]
 797 0058 DB8B     		ldrh	r3, [r3, #30]	@ movhi
 798 005a ADF82430 		strh	r3, [sp, #36]	@ movhi
 799              		.loc 1 345 0
 800 005e 039B     		ldr	r3, [sp, #12]
 801 0060 D3F89430 		ldr	r3, [r3, #148]
 802 0064 0893     		str	r3, [sp, #32]
 803              		.loc 1 347 0
 804 0066 039B     		ldr	r3, [sp, #12]
 805 0068 5B69     		ldr	r3, [r3, #20]
 806 006a 0793     		str	r3, [sp, #28]
 807              		.loc 1 348 0
 808 006c 40F20000 		movw	r0, #:lower16:tcp_active_pcbs
 809 0070 C0F20000 		movt	r0, #:upper16:tcp_active_pcbs
 810 0074 0399     		ldr	r1, [sp, #12]
 811 0076 FFF7FEFF 		bl	tcp_pcb_remove
 812              		.loc 1 349 0
 813 007a 039B     		ldr	r3, [sp, #12]
 814 007c 9B6F     		ldr	r3, [r3, #120]
 815 007e 002B     		cmp	r3, #0
 816 0080 04D0     		beq	.L51
 817              		.loc 1 350 0
 818 0082 039B     		ldr	r3, [sp, #12]
 819 0084 9B6F     		ldr	r3, [r3, #120]
 820 0086 1846     		mov	r0, r3
 821 0088 FFF7FEFF 		bl	tcp_segs_free
 822              	.L51:
 823              		.loc 1 352 0
 824 008c 039B     		ldr	r3, [sp, #12]
 825 008e 5B6F     		ldr	r3, [r3, #116]
 826 0090 002B     		cmp	r3, #0
 827 0092 04D0     		beq	.L52
 828              		.loc 1 353 0
 829 0094 039B     		ldr	r3, [sp, #12]
 830 0096 5B6F     		ldr	r3, [r3, #116]
 831 0098 1846     		mov	r0, r3
ARM GAS  /tmp/ccgFJ4Zb.s 			page 16


 832 009a FFF7FEFF 		bl	tcp_segs_free
 833              	.L52:
 834              		.loc 1 356 0
 835 009e 039B     		ldr	r3, [sp, #12]
 836 00a0 DB6F     		ldr	r3, [r3, #124]
 837 00a2 002B     		cmp	r3, #0
 838 00a4 04D0     		beq	.L53
 839              		.loc 1 357 0
 840 00a6 039B     		ldr	r3, [sp, #12]
 841 00a8 DB6F     		ldr	r3, [r3, #124]
 842 00aa 1846     		mov	r0, r3
 843 00ac FFF7FEFF 		bl	tcp_segs_free
 844              	.L53:
 845              		.loc 1 360 0
 846 00b0 4FF00200 		mov	r0, #2
 847 00b4 0399     		ldr	r1, [sp, #12]
 848 00b6 FFF7FEFF 		bl	memp_free
 849              		.loc 1 361 0
 850 00ba 089B     		ldr	r3, [sp, #32]
 851 00bc 002B     		cmp	r3, #0
 852 00be 04D0     		beq	.L54
 853              		.loc 1 361 0 is_stmt 0 discriminator 1
 854 00c0 089B     		ldr	r3, [sp, #32]
 855 00c2 0798     		ldr	r0, [sp, #28]
 856 00c4 6FF00901 		mvn	r1, #9
 857 00c8 9847     		blx	r3
 858              	.L54:
 859              		.loc 1 362 0 is_stmt 1
 860 00ca 029B     		ldr	r3, [sp, #8]
 861 00cc 002B     		cmp	r3, #0
 862 00ce 0BD0     		beq	.L47
 863              		.loc 1 364 0
 864 00d0 05AA     		add	r2, sp, #20
 865 00d2 06AB     		add	r3, sp, #24
 866 00d4 BDF82610 		ldrh	r1, [sp, #38]
 867 00d8 0091     		str	r1, [sp, #0]
 868 00da BDF82410 		ldrh	r1, [sp, #36]
 869 00de 0191     		str	r1, [sp, #4]
 870 00e0 0B98     		ldr	r0, [sp, #44]
 871 00e2 0A99     		ldr	r1, [sp, #40]
 872 00e4 FFF7FEFF 		bl	tcp_rst
 873              	.L47:
 874              		.loc 1 367 0
 875 00e8 0DB0     		add	sp, sp, #52
 876 00ea 00BD     		pop	{pc}
 877              		.cfi_endproc
 878              	.LFE11:
 879              		.size	tcp_abandon, .-tcp_abandon
 880 00ec AFF30080 		.section	.text.tcp_abort,"ax",%progbits
 881              		.align	2
 882              		.p2align 4,,15
 883              		.global	tcp_abort
 884              		.thumb
 885              		.thumb_func
 886              		.type	tcp_abort, %function
 887              	tcp_abort:
 888              	.LFB12:
ARM GAS  /tmp/ccgFJ4Zb.s 			page 17


 889              		.loc 1 381 0
 890              		.cfi_startproc
 891              		@ args = 0, pretend = 0, frame = 8
 892              		@ frame_needed = 0, uses_anonymous_args = 0
 893 0000 00B5     		push	{lr}
 894              	.LCFI9:
 895              		.cfi_def_cfa_offset 4
 896              		.cfi_offset 14, -4
 897 0002 83B0     		sub	sp, sp, #12
 898              	.LCFI10:
 899              		.cfi_def_cfa_offset 16
 900 0004 0190     		str	r0, [sp, #4]
 901              		.loc 1 382 0
 902 0006 0198     		ldr	r0, [sp, #4]
 903 0008 4FF00101 		mov	r1, #1
 904 000c FFF7FEFF 		bl	tcp_abandon
 905              		.loc 1 383 0
 906 0010 03B0     		add	sp, sp, #12
 907 0012 00BD     		pop	{pc}
 908              		.cfi_endproc
 909              	.LFE12:
 910              		.size	tcp_abort, .-tcp_abort
 911 0014 AFF30080 		.section	.text.tcp_bind,"ax",%progbits
 911      AFF30080 
 911      AFF30080 
 912              		.align	2
 913              		.p2align 4,,15
 914              		.global	tcp_bind
 915              		.thumb
 916              		.thumb_func
 917              		.type	tcp_bind, %function
 918              	tcp_bind:
 919              	.LFB13:
 920              		.loc 1 401 0
 921              		.cfi_startproc
 922              		@ args = 0, pretend = 0, frame = 32
 923              		@ frame_needed = 0, uses_anonymous_args = 0
 924 0000 00B5     		push	{lr}
 925              	.LCFI11:
 926              		.cfi_def_cfa_offset 4
 927              		.cfi_offset 14, -4
 928 0002 89B0     		sub	sp, sp, #36
 929              	.LCFI12:
 930              		.cfi_def_cfa_offset 40
 931 0004 0390     		str	r0, [sp, #12]
 932 0006 0291     		str	r1, [sp, #8]
 933 0008 1346     		mov	r3, r2
 934 000a ADF80630 		strh	r3, [sp, #6]	@ movhi
 935              		.loc 1 403 0
 936 000e 4FF00403 		mov	r3, #4
 937 0012 0593     		str	r3, [sp, #20]
 938              		.loc 1 406 0
 939 0014 039B     		ldr	r3, [sp, #12]
 940 0016 1B7C     		ldrb	r3, [r3, #16]	@ zero_extendqisi2
 941 0018 002B     		cmp	r3, #0
 942 001a 04D0     		beq	.L57
 943              		.loc 1 406 0 is_stmt 0 discriminator 1
ARM GAS  /tmp/ccgFJ4Zb.s 			page 18


 944 001c FFF7FEFF 		bl	port_halt
 945 0020 4FF0FA03 		mov	r3, #250
 946 0024 61E0     		b	.L58
 947              	.L57:
 948              		.loc 1 419 0 is_stmt 1
 949 0026 BDF80630 		ldrh	r3, [sp, #6]
 950 002a 002B     		cmp	r3, #0
 951 002c 04D1     		bne	.L59
 952              		.loc 1 420 0
 953 002e FFF7FEFF 		bl	tcp_new_port
 954 0032 0346     		mov	r3, r0
 955 0034 ADF80630 		strh	r3, [sp, #6]	@ movhi
 956              	.L59:
 957              		.loc 1 424 0
 958 0038 4FF00003 		mov	r3, #0
 959 003c 0793     		str	r3, [sp, #28]
 960 003e 30E0     		b	.L60
 961              	.L65:
 962              		.loc 1 425 0
 963 0040 40F20003 		movw	r3, #:lower16:tcp_pcb_lists
 964 0044 C0F20003 		movt	r3, #:upper16:tcp_pcb_lists
 965 0048 079A     		ldr	r2, [sp, #28]
 966 004a 53F82230 		ldr	r3, [r3, r2, lsl #2]
 967 004e 1B68     		ldr	r3, [r3, #0]
 968 0050 0693     		str	r3, [sp, #24]
 969 0052 1FE0     		b	.L61
 970              	.L64:
 971              		.loc 1 426 0
 972 0054 069B     		ldr	r3, [sp, #24]
 973 0056 9B8B     		ldrh	r3, [r3, #28]
 974 0058 BDF80620 		ldrh	r2, [sp, #6]
 975 005c 9A42     		cmp	r2, r3
 976 005e 16D1     		bne	.L62
 977              		.loc 1 435 0
 978 0060 069B     		ldr	r3, [sp, #24]
 979 0062 002B     		cmp	r3, #0
 980 0064 10D0     		beq	.L63
 981              		.loc 1 435 0 is_stmt 0 discriminator 1
 982 0066 069B     		ldr	r3, [sp, #24]
 983 0068 1B68     		ldr	r3, [r3, #0]
 984 006a 002B     		cmp	r3, #0
 985 006c 0CD0     		beq	.L63
 986 006e 029B     		ldr	r3, [sp, #8]
 987 0070 002B     		cmp	r3, #0
 988 0072 09D0     		beq	.L63
 989              		.loc 1 436 0 is_stmt 1
 990 0074 029B     		ldr	r3, [sp, #8]
 991 0076 1B68     		ldr	r3, [r3, #0]
 992 0078 002B     		cmp	r3, #0
 993 007a 05D0     		beq	.L63
 994              		.loc 1 437 0 discriminator 1
 995 007c 069B     		ldr	r3, [sp, #24]
 996 007e 1A68     		ldr	r2, [r3, #0]
 997 0080 029B     		ldr	r3, [sp, #8]
 998 0082 1B68     		ldr	r3, [r3, #0]
 999              		.loc 1 436 0 discriminator 1
 1000 0084 9A42     		cmp	r2, r3
ARM GAS  /tmp/ccgFJ4Zb.s 			page 19


 1001 0086 02D1     		bne	.L62
 1002              	.L63:
 1003              		.loc 1 438 0
 1004 0088 4FF0F803 		mov	r3, #248
 1005 008c 2DE0     		b	.L58
 1006              	.L62:
 1007              		.loc 1 425 0
 1008 008e 069B     		ldr	r3, [sp, #24]
 1009 0090 DB68     		ldr	r3, [r3, #12]
 1010 0092 0693     		str	r3, [sp, #24]
 1011              	.L61:
 1012              		.loc 1 425 0 is_stmt 0 discriminator 1
 1013 0094 069B     		ldr	r3, [sp, #24]
 1014 0096 002B     		cmp	r3, #0
 1015 0098 DCD1     		bne	.L64
 1016              		.loc 1 424 0 is_stmt 1
 1017 009a 079B     		ldr	r3, [sp, #28]
 1018 009c 03F10103 		add	r3, r3, #1
 1019 00a0 0793     		str	r3, [sp, #28]
 1020              	.L60:
 1021              		.loc 1 424 0 is_stmt 0 discriminator 1
 1022 00a2 079A     		ldr	r2, [sp, #28]
 1023 00a4 059B     		ldr	r3, [sp, #20]
 1024 00a6 9A42     		cmp	r2, r3
 1025 00a8 CADB     		blt	.L65
 1026              		.loc 1 445 0 is_stmt 1
 1027 00aa 029B     		ldr	r3, [sp, #8]
 1028 00ac 002B     		cmp	r3, #0
 1029 00ae 07D0     		beq	.L66
 1030              		.loc 1 445 0 is_stmt 0 discriminator 1
 1031 00b0 029B     		ldr	r3, [sp, #8]
 1032 00b2 1B68     		ldr	r3, [r3, #0]
 1033 00b4 002B     		cmp	r3, #0
 1034 00b6 03D0     		beq	.L66
 1035              		.loc 1 446 0 is_stmt 1
 1036 00b8 039B     		ldr	r3, [sp, #12]
 1037 00ba 029A     		ldr	r2, [sp, #8]
 1038 00bc 1268     		ldr	r2, [r2, #0]
 1039 00be 1A60     		str	r2, [r3, #0]
 1040              	.L66:
 1041              		.loc 1 448 0
 1042 00c0 039B     		ldr	r3, [sp, #12]
 1043 00c2 BDF80620 		ldrh	r2, [sp, #6]	@ movhi
 1044 00c6 9A83     		strh	r2, [r3, #28]	@ movhi
 1045              		.loc 1 449 0
 1046 00c8 40F20003 		movw	r3, #:lower16:tcp_bound_pcbs
 1047 00cc C0F20003 		movt	r3, #:upper16:tcp_bound_pcbs
 1048 00d0 1A68     		ldr	r2, [r3, #0]
 1049 00d2 039B     		ldr	r3, [sp, #12]
 1050 00d4 DA60     		str	r2, [r3, #12]
 1051 00d6 40F20003 		movw	r3, #:lower16:tcp_bound_pcbs
 1052 00da C0F20003 		movt	r3, #:upper16:tcp_bound_pcbs
 1053 00de 039A     		ldr	r2, [sp, #12]
 1054 00e0 1A60     		str	r2, [r3, #0]
 1055 00e2 FFF7FEFF 		bl	tcp_timer_needed
 1056              		.loc 1 451 0
 1057 00e6 4FF00003 		mov	r3, #0
ARM GAS  /tmp/ccgFJ4Zb.s 			page 20


 1058              	.L58:
 1059 00ea 5BB2     		sxtb	r3, r3
 1060              		.loc 1 452 0
 1061 00ec 1846     		mov	r0, r3
 1062 00ee 09B0     		add	sp, sp, #36
 1063 00f0 00BD     		pop	{pc}
 1064              		.cfi_endproc
 1065              	.LFE13:
 1066              		.size	tcp_bind, .-tcp_bind
 1067 00f2 00BFAFF3 		.section	.text.tcp_accept_null,"ax",%progbits
 1067      0080AFF3 
 1067      0080AFF3 
 1067      0080
 1068              		.align	2
 1069              		.p2align 4,,15
 1070              		.thumb
 1071              		.thumb_func
 1072              		.type	tcp_accept_null, %function
 1073              	tcp_accept_null:
 1074              	.LFB14:
 1075              		.loc 1 459 0
 1076              		.cfi_startproc
 1077              		@ args = 0, pretend = 0, frame = 16
 1078              		@ frame_needed = 0, uses_anonymous_args = 0
 1079              		@ link register save eliminated.
 1080 0000 84B0     		sub	sp, sp, #16
 1081              	.LCFI13:
 1082              		.cfi_def_cfa_offset 16
 1083 0002 0390     		str	r0, [sp, #12]
 1084 0004 0291     		str	r1, [sp, #8]
 1085 0006 1346     		mov	r3, r2
 1086 0008 8DF80730 		strb	r3, [sp, #7]
 1087              		.loc 1 464 0
 1088 000c 4FF0F603 		mov	r3, #246
 1089 0010 5BB2     		sxtb	r3, r3
 1090              		.loc 1 465 0
 1091 0012 1846     		mov	r0, r3
 1092 0014 04B0     		add	sp, sp, #16
 1093 0016 7047     		bx	lr
 1094              		.cfi_endproc
 1095              	.LFE14:
 1096              		.size	tcp_accept_null, .-tcp_accept_null
 1097 0018 AFF30080 		.section	.text.tcp_listen_with_backlog,"ax",%progbits
 1097      AFF30080 
 1098              		.align	2
 1099              		.p2align 4,,15
 1100              		.global	tcp_listen_with_backlog
 1101              		.thumb
 1102              		.thumb_func
 1103              		.type	tcp_listen_with_backlog, %function
 1104              	tcp_listen_with_backlog:
 1105              	.LFB15:
 1106              		.loc 1 484 0
 1107              		.cfi_startproc
 1108              		@ args = 0, pretend = 0, frame = 16
 1109              		@ frame_needed = 0, uses_anonymous_args = 0
 1110 0000 00B5     		push	{lr}
ARM GAS  /tmp/ccgFJ4Zb.s 			page 21


 1111              	.LCFI14:
 1112              		.cfi_def_cfa_offset 4
 1113              		.cfi_offset 14, -4
 1114 0002 85B0     		sub	sp, sp, #20
 1115              	.LCFI15:
 1116              		.cfi_def_cfa_offset 24
 1117 0004 0190     		str	r0, [sp, #4]
 1118 0006 0B46     		mov	r3, r1
 1119 0008 8DF80330 		strb	r3, [sp, #3]
 1120              		.loc 1 488 0
 1121 000c 019B     		ldr	r3, [sp, #4]
 1122 000e 1B7C     		ldrb	r3, [r3, #16]	@ zero_extendqisi2
 1123 0010 002B     		cmp	r3, #0
 1124 0012 04D0     		beq	.L69
 1125              		.loc 1 488 0 is_stmt 0 discriminator 1
 1126 0014 FFF7FEFF 		bl	port_halt
 1127 0018 4FF00003 		mov	r3, #0
 1128 001c 9EE0     		b	.L70
 1129              	.L69:
 1130              		.loc 1 491 0 is_stmt 1
 1131 001e 019B     		ldr	r3, [sp, #4]
 1132 0020 1B7C     		ldrb	r3, [r3, #16]	@ zero_extendqisi2
 1133 0022 012B     		cmp	r3, #1
 1134 0024 01D1     		bne	.L71
 1135              		.loc 1 492 0
 1136 0026 019B     		ldr	r3, [sp, #4]
 1137 0028 98E0     		b	.L70
 1138              	.L71:
 1139              		.loc 1 509 0
 1140 002a 4FF00300 		mov	r0, #3
 1141 002e FFF7FEFF 		bl	memp_malloc
 1142 0032 0346     		mov	r3, r0
 1143 0034 0393     		str	r3, [sp, #12]
 1144              		.loc 1 510 0
 1145 0036 039B     		ldr	r3, [sp, #12]
 1146 0038 002B     		cmp	r3, #0
 1147 003a 02D1     		bne	.L72
 1148              		.loc 1 511 0
 1149 003c 4FF00003 		mov	r3, #0
 1150 0040 8CE0     		b	.L70
 1151              	.L72:
 1152              		.loc 1 513 0
 1153 0042 019B     		ldr	r3, [sp, #4]
 1154 0044 5A69     		ldr	r2, [r3, #20]
 1155 0046 039B     		ldr	r3, [sp, #12]
 1156 0048 5A61     		str	r2, [r3, #20]
 1157              		.loc 1 514 0
 1158 004a 019B     		ldr	r3, [sp, #4]
 1159 004c 9A8B     		ldrh	r2, [r3, #28]
 1160 004e 039B     		ldr	r3, [sp, #12]
 1161 0050 9A83     		strh	r2, [r3, #28]	@ movhi
 1162              		.loc 1 515 0
 1163 0052 039B     		ldr	r3, [sp, #12]
 1164 0054 4FF00102 		mov	r2, #1
 1165 0058 1A74     		strb	r2, [r3, #16]
 1166              		.loc 1 516 0
 1167 005a 019B     		ldr	r3, [sp, #4]
ARM GAS  /tmp/ccgFJ4Zb.s 			page 22


 1168 005c 5A7C     		ldrb	r2, [r3, #17]	@ zero_extendqisi2
 1169 005e 039B     		ldr	r3, [sp, #12]
 1170 0060 5A74     		strb	r2, [r3, #17]
 1171              		.loc 1 517 0
 1172 0062 019B     		ldr	r3, [sp, #4]
 1173 0064 1A7A     		ldrb	r2, [r3, #8]	@ zero_extendqisi2
 1174 0066 039B     		ldr	r3, [sp, #12]
 1175 0068 1A72     		strb	r2, [r3, #8]
 1176              		.loc 1 518 0
 1177 006a 039B     		ldr	r3, [sp, #12]
 1178 006c 1B7A     		ldrb	r3, [r3, #8]	@ zero_extendqisi2
 1179 006e 43F00203 		orr	r3, r3, #2
 1180 0072 DAB2     		uxtb	r2, r3
 1181 0074 039B     		ldr	r3, [sp, #12]
 1182 0076 1A72     		strb	r2, [r3, #8]
 1183              		.loc 1 519 0
 1184 0078 019B     		ldr	r3, [sp, #4]
 1185 007a 9A7A     		ldrb	r2, [r3, #10]	@ zero_extendqisi2
 1186 007c 039B     		ldr	r3, [sp, #12]
 1187 007e 9A72     		strb	r2, [r3, #10]
 1188              		.loc 1 520 0
 1189 0080 019B     		ldr	r3, [sp, #4]
 1190 0082 5A7A     		ldrb	r2, [r3, #9]	@ zero_extendqisi2
 1191 0084 039B     		ldr	r3, [sp, #12]
 1192 0086 5A72     		strb	r2, [r3, #9]
 1193              		.loc 1 521 0
 1194 0088 019B     		ldr	r3, [sp, #4]
 1195 008a 1A68     		ldr	r2, [r3, #0]
 1196 008c 039B     		ldr	r3, [sp, #12]
 1197 008e 1A60     		str	r2, [r3, #0]
 1198              		.loc 1 522 0
 1199 0090 019B     		ldr	r3, [sp, #4]
 1200 0092 9B8B     		ldrh	r3, [r3, #28]
 1201 0094 002B     		cmp	r3, #0
 1202 0096 46D0     		beq	.L73
 1203              		.loc 1 523 0
 1204 0098 40F20003 		movw	r3, #:lower16:tcp_bound_pcbs
 1205 009c C0F20003 		movt	r3, #:upper16:tcp_bound_pcbs
 1206 00a0 1A68     		ldr	r2, [r3, #0]
 1207 00a2 019B     		ldr	r3, [sp, #4]
 1208 00a4 9A42     		cmp	r2, r3
 1209 00a6 0BD1     		bne	.L74
 1210              		.loc 1 523 0 is_stmt 0 discriminator 1
 1211 00a8 40F20003 		movw	r3, #:lower16:tcp_bound_pcbs
 1212 00ac C0F20003 		movt	r3, #:upper16:tcp_bound_pcbs
 1213 00b0 1B68     		ldr	r3, [r3, #0]
 1214 00b2 DA68     		ldr	r2, [r3, #12]
 1215 00b4 40F20003 		movw	r3, #:lower16:tcp_bound_pcbs
 1216 00b8 C0F20003 		movt	r3, #:upper16:tcp_bound_pcbs
 1217 00bc 1A60     		str	r2, [r3, #0]
 1218 00be 2EE0     		b	.L75
 1219              	.L74:
 1220              		.loc 1 523 0 discriminator 2
 1221 00c0 40F20003 		movw	r3, #:lower16:tcp_bound_pcbs
 1222 00c4 C0F20003 		movt	r3, #:upper16:tcp_bound_pcbs
 1223 00c8 1A68     		ldr	r2, [r3, #0]
 1224 00ca 40F20003 		movw	r3, #:lower16:tcp_tmp_pcb
ARM GAS  /tmp/ccgFJ4Zb.s 			page 23


 1225 00ce C0F20003 		movt	r3, #:upper16:tcp_tmp_pcb
 1226 00d2 1A60     		str	r2, [r3, #0]
 1227 00d4 1CE0     		b	.L76
 1228              	.L78:
 1229              		.loc 1 523 0 discriminator 7
 1230 00d6 40F20003 		movw	r3, #:lower16:tcp_tmp_pcb
 1231 00da C0F20003 		movt	r3, #:upper16:tcp_tmp_pcb
 1232 00de 1B68     		ldr	r3, [r3, #0]
 1233 00e0 DA68     		ldr	r2, [r3, #12]
 1234 00e2 019B     		ldr	r3, [sp, #4]
 1235 00e4 9A42     		cmp	r2, r3
 1236 00e6 08D1     		bne	.L77
 1237              		.loc 1 523 0 discriminator 4
 1238 00e8 40F20003 		movw	r3, #:lower16:tcp_tmp_pcb
 1239 00ec C0F20003 		movt	r3, #:upper16:tcp_tmp_pcb
 1240 00f0 1B68     		ldr	r3, [r3, #0]
 1241 00f2 019A     		ldr	r2, [sp, #4]
 1242 00f4 D268     		ldr	r2, [r2, #12]
 1243 00f6 DA60     		str	r2, [r3, #12]
 1244 00f8 11E0     		b	.L75
 1245              	.L77:
 1246              		.loc 1 523 0 discriminator 5
 1247 00fa 40F20003 		movw	r3, #:lower16:tcp_tmp_pcb
 1248 00fe C0F20003 		movt	r3, #:upper16:tcp_tmp_pcb
 1249 0102 1B68     		ldr	r3, [r3, #0]
 1250 0104 DA68     		ldr	r2, [r3, #12]
 1251 0106 40F20003 		movw	r3, #:lower16:tcp_tmp_pcb
 1252 010a C0F20003 		movt	r3, #:upper16:tcp_tmp_pcb
 1253 010e 1A60     		str	r2, [r3, #0]
 1254              	.L76:
 1255              		.loc 1 523 0 discriminator 3
 1256 0110 40F20003 		movw	r3, #:lower16:tcp_tmp_pcb
 1257 0114 C0F20003 		movt	r3, #:upper16:tcp_tmp_pcb
 1258 0118 1B68     		ldr	r3, [r3, #0]
 1259 011a 002B     		cmp	r3, #0
 1260 011c DBD1     		bne	.L78
 1261              	.L75:
 1262              		.loc 1 523 0 discriminator 6
 1263 011e 019B     		ldr	r3, [sp, #4]
 1264 0120 4FF00002 		mov	r2, #0
 1265 0124 DA60     		str	r2, [r3, #12]
 1266              	.L73:
 1267              		.loc 1 525 0 is_stmt 1
 1268 0126 4FF00200 		mov	r0, #2
 1269 012a 0199     		ldr	r1, [sp, #4]
 1270 012c FFF7FEFF 		bl	memp_free
 1271              		.loc 1 527 0
 1272 0130 039A     		ldr	r2, [sp, #12]
 1273 0132 40F20003 		movw	r3, #:lower16:tcp_accept_null
 1274 0136 C0F20003 		movt	r3, #:upper16:tcp_accept_null
 1275 013a 9361     		str	r3, [r2, #24]
 1276              		.loc 1 533 0
 1277 013c 40F20003 		movw	r3, #:lower16:tcp_listen_pcbs
 1278 0140 C0F20003 		movt	r3, #:upper16:tcp_listen_pcbs
 1279 0144 1A68     		ldr	r2, [r3, #0]
 1280 0146 039B     		ldr	r3, [sp, #12]
 1281 0148 DA60     		str	r2, [r3, #12]
ARM GAS  /tmp/ccgFJ4Zb.s 			page 24


 1282 014a 40F20003 		movw	r3, #:lower16:tcp_listen_pcbs
 1283 014e C0F20003 		movt	r3, #:upper16:tcp_listen_pcbs
 1284 0152 039A     		ldr	r2, [sp, #12]
 1285 0154 1A60     		str	r2, [r3, #0]
 1286 0156 FFF7FEFF 		bl	tcp_timer_needed
 1287              		.loc 1 534 0
 1288 015a 039B     		ldr	r3, [sp, #12]
 1289              	.L70:
 1290              		.loc 1 535 0
 1291 015c 1846     		mov	r0, r3
 1292 015e 05B0     		add	sp, sp, #20
 1293 0160 00BD     		pop	{pc}
 1294              		.cfi_endproc
 1295              	.LFE15:
 1296              		.size	tcp_listen_with_backlog, .-tcp_listen_with_backlog
 1297 0162 00BFAFF3 		.section	.text.tcp_update_rcv_ann_wnd,"ax",%progbits
 1297      0080AFF3 
 1297      0080AFF3 
 1297      0080
 1298              		.align	2
 1299              		.p2align 4,,15
 1300              		.global	tcp_update_rcv_ann_wnd
 1301              		.thumb
 1302              		.thumb_func
 1303              		.type	tcp_update_rcv_ann_wnd, %function
 1304              	tcp_update_rcv_ann_wnd:
 1305              	.LFB16:
 1306              		.loc 1 544 0
 1307              		.cfi_startproc
 1308              		@ args = 0, pretend = 0, frame = 16
 1309              		@ frame_needed = 0, uses_anonymous_args = 0
 1310 0000 00B5     		push	{lr}
 1311              	.LCFI16:
 1312              		.cfi_def_cfa_offset 4
 1313              		.cfi_offset 14, -4
 1314 0002 85B0     		sub	sp, sp, #20
 1315              	.LCFI17:
 1316              		.cfi_def_cfa_offset 24
 1317 0004 0190     		str	r0, [sp, #4]
 1318              		.loc 1 545 0
 1319 0006 019B     		ldr	r3, [sp, #4]
 1320 0008 5A6A     		ldr	r2, [r3, #36]
 1321 000a 019B     		ldr	r3, [sp, #4]
 1322 000c 1B8D     		ldrh	r3, [r3, #40]
 1323 000e D318     		adds	r3, r2, r3
 1324 0010 0393     		str	r3, [sp, #12]
 1325              		.loc 1 547 0
 1326 0012 019B     		ldr	r3, [sp, #4]
 1327 0014 DA6A     		ldr	r2, [r3, #44]
 1328 0016 019B     		ldr	r3, [sp, #4]
 1329 0018 1B8F     		ldrh	r3, [r3, #56]
 1330 001a B3F5866F 		cmp	r3, #1072
 1331 001e 02D8     		bhi	.L80
 1332              		.loc 1 547 0 is_stmt 0 discriminator 1
 1333 0020 019B     		ldr	r3, [sp, #4]
 1334 0022 1B8F     		ldrh	r3, [r3, #56]
 1335 0024 01E0     		b	.L81
ARM GAS  /tmp/ccgFJ4Zb.s 			page 25


 1336              	.L80:
 1337              		.loc 1 547 0 discriminator 2
 1338 0026 4FF48663 		mov	r3, #1072
 1339              	.L81:
 1340              		.loc 1 547 0 discriminator 3
 1341 002a D318     		adds	r3, r2, r3
 1342 002c 039A     		ldr	r2, [sp, #12]
 1343 002e D31A     		subs	r3, r2, r3
 1344 0030 002B     		cmp	r3, #0
 1345 0032 08DB     		blt	.L82
 1346              		.loc 1 549 0 is_stmt 1
 1347 0034 019B     		ldr	r3, [sp, #4]
 1348 0036 1A8D     		ldrh	r2, [r3, #40]
 1349 0038 019B     		ldr	r3, [sp, #4]
 1350 003a 5A85     		strh	r2, [r3, #42]	@ movhi
 1351              		.loc 1 550 0
 1352 003c 019B     		ldr	r3, [sp, #4]
 1353 003e DB6A     		ldr	r3, [r3, #44]
 1354 0040 039A     		ldr	r2, [sp, #12]
 1355 0042 D31A     		subs	r3, r2, r3
 1356 0044 1EE0     		b	.L83
 1357              	.L82:
 1358              		.loc 1 552 0
 1359 0046 019B     		ldr	r3, [sp, #4]
 1360 0048 5A6A     		ldr	r2, [r3, #36]
 1361 004a 019B     		ldr	r3, [sp, #4]
 1362 004c DB6A     		ldr	r3, [r3, #44]
 1363 004e D31A     		subs	r3, r2, r3
 1364 0050 002B     		cmp	r3, #0
 1365 0052 04DD     		ble	.L84
 1366              		.loc 1 555 0
 1367 0054 019B     		ldr	r3, [sp, #4]
 1368 0056 4FF00002 		mov	r2, #0
 1369 005a 5A85     		strh	r2, [r3, #42]	@ movhi
 1370 005c 10E0     		b	.L85
 1371              	.L84:
 1372              	.LBB2:
 1373              		.loc 1 558 0
 1374 005e 019B     		ldr	r3, [sp, #4]
 1375 0060 DA6A     		ldr	r2, [r3, #44]
 1376 0062 019B     		ldr	r3, [sp, #4]
 1377 0064 5B6A     		ldr	r3, [r3, #36]
 1378 0066 D31A     		subs	r3, r2, r3
 1379 0068 0293     		str	r3, [sp, #8]
 1380              		.loc 1 559 0
 1381 006a 029A     		ldr	r2, [sp, #8]
 1382 006c 4FF6FF73 		movw	r3, #65535
 1383 0070 9A42     		cmp	r2, r3
 1384 0072 01D9     		bls	.L86
 1385              		.loc 1 559 0 is_stmt 0 discriminator 1
 1386 0074 FFF7FEFF 		bl	port_halt
 1387              	.L86:
 1388              		.loc 1 560 0 is_stmt 1
 1389 0078 029B     		ldr	r3, [sp, #8]
 1390 007a 9AB2     		uxth	r2, r3
 1391 007c 019B     		ldr	r3, [sp, #4]
 1392 007e 5A85     		strh	r2, [r3, #42]	@ movhi
ARM GAS  /tmp/ccgFJ4Zb.s 			page 26


 1393              	.L85:
 1394              	.LBE2:
 1395              		.loc 1 562 0
 1396 0080 4FF00003 		mov	r3, #0
 1397              	.L83:
 1398              		.loc 1 564 0
 1399 0084 1846     		mov	r0, r3
 1400 0086 05B0     		add	sp, sp, #20
 1401 0088 00BD     		pop	{pc}
 1402              		.cfi_endproc
 1403              	.LFE16:
 1404              		.size	tcp_update_rcv_ann_wnd, .-tcp_update_rcv_ann_wnd
 1405 008a 00BFAFF3 		.section	.text.tcp_recved,"ax",%progbits
 1405      0080
 1406              		.align	2
 1407              		.p2align 4,,15
 1408              		.global	tcp_recved
 1409              		.thumb
 1410              		.thumb_func
 1411              		.type	tcp_recved, %function
 1412              	tcp_recved:
 1413              	.LFB17:
 1414              		.loc 1 576 0
 1415              		.cfi_startproc
 1416              		@ args = 0, pretend = 0, frame = 16
 1417              		@ frame_needed = 0, uses_anonymous_args = 0
 1418 0000 00B5     		push	{lr}
 1419              	.LCFI18:
 1420              		.cfi_def_cfa_offset 4
 1421              		.cfi_offset 14, -4
 1422 0002 85B0     		sub	sp, sp, #20
 1423              	.LCFI19:
 1424              		.cfi_def_cfa_offset 24
 1425 0004 0190     		str	r0, [sp, #4]
 1426 0006 0B46     		mov	r3, r1
 1427 0008 ADF80230 		strh	r3, [sp, #2]	@ movhi
 1428              		.loc 1 579 0
 1429 000c BDF80220 		ldrh	r2, [sp, #2]
 1430 0010 019B     		ldr	r3, [sp, #4]
 1431 0012 1B8D     		ldrh	r3, [r3, #40]
 1432 0014 1946     		mov	r1, r3
 1433 0016 4FF6FF73 		movw	r3, #65535
 1434 001a 5B1A     		subs	r3, r3, r1
 1435 001c 9A42     		cmp	r2, r3
 1436 001e 01DD     		ble	.L88
 1437              		.loc 1 579 0 is_stmt 0 discriminator 1
 1438 0020 FFF7FEFF 		bl	port_halt
 1439              	.L88:
 1440              		.loc 1 582 0 is_stmt 1
 1441 0024 019B     		ldr	r3, [sp, #4]
 1442 0026 1A8D     		ldrh	r2, [r3, #40]
 1443 0028 BDF80230 		ldrh	r3, [sp, #2]	@ movhi
 1444 002c D318     		adds	r3, r2, r3
 1445 002e 9AB2     		uxth	r2, r3
 1446 0030 019B     		ldr	r3, [sp, #4]
 1447 0032 1A85     		strh	r2, [r3, #40]	@ movhi
 1448              		.loc 1 583 0
ARM GAS  /tmp/ccgFJ4Zb.s 			page 27


 1449 0034 019B     		ldr	r3, [sp, #4]
 1450 0036 1B8D     		ldrh	r3, [r3, #40]
 1451 0038 B3F5066F 		cmp	r3, #2144
 1452 003c 03D9     		bls	.L89
 1453              		.loc 1 584 0
 1454 003e 019B     		ldr	r3, [sp, #4]
 1455 0040 4FF40662 		mov	r2, #2144
 1456 0044 1A85     		strh	r2, [r3, #40]	@ movhi
 1457              	.L89:
 1458              		.loc 1 587 0
 1459 0046 0198     		ldr	r0, [sp, #4]
 1460 0048 FFF7FEFF 		bl	tcp_update_rcv_ann_wnd
 1461 004c 0346     		mov	r3, r0
 1462 004e 0393     		str	r3, [sp, #12]
 1463              		.loc 1 593 0
 1464 0050 039A     		ldr	r2, [sp, #12]
 1465 0052 40F21723 		movw	r3, #535
 1466 0056 9A42     		cmp	r2, r3
 1467 0058 0BDD     		ble	.L87
 1468              		.loc 1 594 0
 1469 005a 019B     		ldr	r3, [sp, #4]
 1470 005c 93F82030 		ldrb	r3, [r3, #32]	@ zero_extendqisi2
 1471 0060 43F00203 		orr	r3, r3, #2
 1472 0064 DAB2     		uxtb	r2, r3
 1473 0066 019B     		ldr	r3, [sp, #4]
 1474 0068 83F82020 		strb	r2, [r3, #32]
 1475              		.loc 1 595 0
 1476 006c 0198     		ldr	r0, [sp, #4]
 1477 006e FFF7FEFF 		bl	tcp_output
 1478              	.L87:
 1479              		.loc 1 600 0
 1480 0072 05B0     		add	sp, sp, #20
 1481 0074 00BD     		pop	{pc}
 1482              		.cfi_endproc
 1483              	.LFE17:
 1484              		.size	tcp_recved, .-tcp_recved
 1485 0076 00BFAFF3 		.section	.text.tcp_new_port,"ax",%progbits
 1485      0080AFF3 
 1485      0080
 1486              		.align	2
 1487              		.p2align 4,,15
 1488              		.thumb
 1489              		.thumb_func
 1490              		.type	tcp_new_port, %function
 1491              	tcp_new_port:
 1492              	.LFB18:
 1493              		.loc 1 610 0
 1494              		.cfi_startproc
 1495              		@ args = 0, pretend = 0, frame = 8
 1496              		@ frame_needed = 0, uses_anonymous_args = 0
 1497              		@ link register save eliminated.
 1498 0000 82B0     		sub	sp, sp, #8
 1499              	.LCFI20:
 1500              		.cfi_def_cfa_offset 8
 1501 0002 00E0     		b	.L92
 1502              	.L99:
 1503              		.loc 1 629 0
ARM GAS  /tmp/ccgFJ4Zb.s 			page 28


 1504 0004 00BF     		nop
 1505              	.L92:
 1506              		.loc 1 622 0
 1507 0006 40F20003 		movw	r3, #:lower16:port.5810
 1508 000a C0F20003 		movt	r3, #:upper16:port.5810
 1509 000e 1B88     		ldrh	r3, [r3, #0]
 1510 0010 4FF6FF72 		movw	r2, #65535
 1511 0014 9342     		cmp	r3, r2
 1512 0016 14BF     		ite	ne
 1513 0018 0022     		movne	r2, #0
 1514 001a 0122     		moveq	r2, #1
 1515 001c D2B2     		uxtb	r2, r2
 1516 001e 03F10103 		add	r3, r3, #1
 1517 0022 99B2     		uxth	r1, r3
 1518 0024 40F20003 		movw	r3, #:lower16:port.5810
 1519 0028 C0F20003 		movt	r3, #:upper16:port.5810
 1520 002c 1980     		strh	r1, [r3, #0]	@ movhi
 1521 002e 002A     		cmp	r2, #0
 1522 0030 06D0     		beq	.L93
 1523              		.loc 1 623 0
 1524 0032 40F20003 		movw	r3, #:lower16:port.5810
 1525 0036 C0F20003 		movt	r3, #:upper16:port.5810
 1526 003a 4FF44042 		mov	r2, #49152
 1527 003e 1A80     		strh	r2, [r3, #0]	@ movhi
 1528              	.L93:
 1529              		.loc 1 626 0
 1530 0040 4FF00003 		mov	r3, #0
 1531 0044 0193     		str	r3, [sp, #4]
 1532 0046 1CE0     		b	.L94
 1533              	.L98:
 1534              		.loc 1 627 0
 1535 0048 40F20003 		movw	r3, #:lower16:tcp_pcb_lists
 1536 004c C0F20003 		movt	r3, #:upper16:tcp_pcb_lists
 1537 0050 019A     		ldr	r2, [sp, #4]
 1538 0052 53F82230 		ldr	r3, [r3, r2, lsl #2]
 1539 0056 1B68     		ldr	r3, [r3, #0]
 1540 0058 0093     		str	r3, [sp, #0]
 1541 005a 0BE0     		b	.L95
 1542              	.L97:
 1543              		.loc 1 628 0
 1544 005c 009B     		ldr	r3, [sp, #0]
 1545 005e 9A8B     		ldrh	r2, [r3, #28]
 1546 0060 40F20003 		movw	r3, #:lower16:port.5810
 1547 0064 C0F20003 		movt	r3, #:upper16:port.5810
 1548 0068 1B88     		ldrh	r3, [r3, #0]
 1549 006a 9A42     		cmp	r2, r3
 1550 006c CAD0     		beq	.L99
 1551              	.L96:
 1552              		.loc 1 627 0
 1553 006e 009B     		ldr	r3, [sp, #0]
 1554 0070 DB68     		ldr	r3, [r3, #12]
 1555 0072 0093     		str	r3, [sp, #0]
 1556              	.L95:
 1557              		.loc 1 627 0 is_stmt 0 discriminator 1
 1558 0074 009B     		ldr	r3, [sp, #0]
 1559 0076 002B     		cmp	r3, #0
 1560 0078 F0D1     		bne	.L97
ARM GAS  /tmp/ccgFJ4Zb.s 			page 29


 1561              		.loc 1 626 0 is_stmt 1
 1562 007a 019B     		ldr	r3, [sp, #4]
 1563 007c 03F10103 		add	r3, r3, #1
 1564 0080 0193     		str	r3, [sp, #4]
 1565              	.L94:
 1566              		.loc 1 626 0 is_stmt 0 discriminator 1
 1567 0082 019B     		ldr	r3, [sp, #4]
 1568 0084 032B     		cmp	r3, #3
 1569 0086 DFDD     		ble	.L98
 1570              		.loc 1 633 0 is_stmt 1
 1571 0088 40F20003 		movw	r3, #:lower16:port.5810
 1572 008c C0F20003 		movt	r3, #:upper16:port.5810
 1573 0090 1B88     		ldrh	r3, [r3, #0]
 1574              		.loc 1 634 0
 1575 0092 1846     		mov	r0, r3
 1576 0094 02B0     		add	sp, sp, #8
 1577 0096 7047     		bx	lr
 1578              		.cfi_endproc
 1579              	.LFE18:
 1580              		.size	tcp_new_port, .-tcp_new_port
 1581 0098 AFF30080 		.section	.text.tcp_connect,"ax",%progbits
 1581      AFF30080 
 1582              		.align	2
 1583              		.p2align 4,,15
 1584              		.global	tcp_connect
 1585              		.thumb
 1586              		.thumb_func
 1587              		.type	tcp_connect, %function
 1588              	tcp_connect:
 1589              	.LFB19:
 1590              		.loc 1 651 0
 1591              		.cfi_startproc
 1592              		@ args = 0, pretend = 0, frame = 32
 1593              		@ frame_needed = 0, uses_anonymous_args = 0
 1594 0000 00B5     		push	{lr}
 1595              	.LCFI21:
 1596              		.cfi_def_cfa_offset 4
 1597              		.cfi_offset 14, -4
 1598 0002 89B0     		sub	sp, sp, #36
 1599              	.LCFI22:
 1600              		.cfi_def_cfa_offset 40
 1601 0004 0390     		str	r0, [sp, #12]
 1602 0006 0291     		str	r1, [sp, #8]
 1603 0008 0093     		str	r3, [sp, #0]
 1604 000a 1346     		mov	r3, r2	@ movhi
 1605 000c ADF80630 		strh	r3, [sp, #6]	@ movhi
 1606              		.loc 1 656 0
 1607 0010 039B     		ldr	r3, [sp, #12]
 1608 0012 1B7C     		ldrb	r3, [r3, #16]	@ zero_extendqisi2
 1609 0014 002B     		cmp	r3, #0
 1610 0016 04D0     		beq	.L101
 1611              		.loc 1 656 0 is_stmt 0 discriminator 1
 1612 0018 FFF7FEFF 		bl	port_halt
 1613 001c 4FF0F703 		mov	r3, #247
 1614 0020 EDE0     		b	.L102
 1615              	.L101:
 1616              		.loc 1 659 0 is_stmt 1
ARM GAS  /tmp/ccgFJ4Zb.s 			page 30


 1617 0022 029B     		ldr	r3, [sp, #8]
 1618 0024 002B     		cmp	r3, #0
 1619 0026 0BD0     		beq	.L103
 1620              		.loc 1 660 0
 1621 0028 039B     		ldr	r3, [sp, #12]
 1622 002a 029A     		ldr	r2, [sp, #8]
 1623 002c 1268     		ldr	r2, [r2, #0]
 1624 002e 5A60     		str	r2, [r3, #4]
 1625              		.loc 1 664 0
 1626 0030 039B     		ldr	r3, [sp, #12]
 1627 0032 BDF80620 		ldrh	r2, [sp, #6]	@ movhi
 1628 0036 DA83     		strh	r2, [r3, #30]	@ movhi
 1629              		.loc 1 667 0
 1630 0038 039B     		ldr	r3, [sp, #12]
 1631 003a 002B     		cmp	r3, #0
 1632 003c 07D0     		beq	.L104
 1633 003e 02E0     		b	.L116
 1634              	.L103:
 1635              		.loc 1 662 0
 1636 0040 4FF0FA03 		mov	r3, #250
 1637 0044 DBE0     		b	.L102
 1638              	.L116:
 1639              		.loc 1 667 0 discriminator 1
 1640 0046 039B     		ldr	r3, [sp, #12]
 1641 0048 1B68     		ldr	r3, [r3, #0]
 1642 004a 002B     		cmp	r3, #0
 1643 004c 11D1     		bne	.L106
 1644              	.L104:
 1645              	.LBB3:
 1646              		.loc 1 669 0
 1647 004e 039B     		ldr	r3, [sp, #12]
 1648 0050 03F10403 		add	r3, r3, #4
 1649 0054 1846     		mov	r0, r3
 1650 0056 FFF7FEFF 		bl	ip_route
 1651 005a 0346     		mov	r3, r0
 1652 005c 0793     		str	r3, [sp, #28]
 1653              		.loc 1 670 0
 1654 005e 079B     		ldr	r3, [sp, #28]
 1655 0060 002B     		cmp	r3, #0
 1656 0062 02D1     		bne	.L107
 1657              		.loc 1 673 0
 1658 0064 4FF0FC03 		mov	r3, #252
 1659 0068 C9E0     		b	.L102
 1660              	.L107:
 1661              		.loc 1 676 0
 1662 006a 079B     		ldr	r3, [sp, #28]
 1663 006c 5A68     		ldr	r2, [r3, #4]
 1664 006e 039B     		ldr	r3, [sp, #12]
 1665 0070 1A60     		str	r2, [r3, #0]
 1666              	.L106:
 1667              	.LBE3:
 1668              		.loc 1 679 0
 1669 0072 039B     		ldr	r3, [sp, #12]
 1670 0074 9B8B     		ldrh	r3, [r3, #28]	@ movhi
 1671 0076 ADF81A30 		strh	r3, [sp, #26]	@ movhi
 1672              		.loc 1 680 0
 1673 007a 039B     		ldr	r3, [sp, #12]
ARM GAS  /tmp/ccgFJ4Zb.s 			page 31


 1674 007c 9B8B     		ldrh	r3, [r3, #28]
 1675 007e 002B     		cmp	r3, #0
 1676 0080 05D1     		bne	.L108
 1677              		.loc 1 681 0
 1678 0082 FFF7FEFF 		bl	tcp_new_port
 1679 0086 0346     		mov	r3, r0
 1680 0088 1A46     		mov	r2, r3
 1681 008a 039B     		ldr	r3, [sp, #12]
 1682 008c 9A83     		strh	r2, [r3, #28]	@ movhi
 1683              	.L108:
 1684              		.loc 1 703 0
 1685 008e FFF7FEFF 		bl	tcp_next_iss
 1686 0092 0346     		mov	r3, r0
 1687 0094 0593     		str	r3, [sp, #20]
 1688              		.loc 1 704 0
 1689 0096 039B     		ldr	r3, [sp, #12]
 1690 0098 4FF00002 		mov	r2, #0
 1691 009c 5A62     		str	r2, [r3, #36]
 1692              		.loc 1 705 0
 1693 009e 039B     		ldr	r3, [sp, #12]
 1694 00a0 059A     		ldr	r2, [sp, #20]
 1695 00a2 9A65     		str	r2, [r3, #88]
 1696              		.loc 1 706 0
 1697 00a4 059B     		ldr	r3, [sp, #20]
 1698 00a6 03F1FF32 		add	r2, r3, #-1
 1699 00aa 039B     		ldr	r3, [sp, #12]
 1700 00ac DA64     		str	r2, [r3, #76]
 1701              		.loc 1 707 0
 1702 00ae 059B     		ldr	r3, [sp, #20]
 1703 00b0 03F1FF32 		add	r2, r3, #-1
 1704 00b4 039B     		ldr	r3, [sp, #12]
 1705 00b6 9A66     		str	r2, [r3, #104]
 1706              		.loc 1 708 0
 1707 00b8 039B     		ldr	r3, [sp, #12]
 1708 00ba 4FF40662 		mov	r2, #2144
 1709 00be 1A85     		strh	r2, [r3, #40]	@ movhi
 1710              		.loc 1 709 0
 1711 00c0 039B     		ldr	r3, [sp, #12]
 1712 00c2 4FF40662 		mov	r2, #2144
 1713 00c6 5A85     		strh	r2, [r3, #42]	@ movhi
 1714              		.loc 1 710 0
 1715 00c8 039B     		ldr	r3, [sp, #12]
 1716 00ca 5A6A     		ldr	r2, [r3, #36]
 1717 00cc 039B     		ldr	r3, [sp, #12]
 1718 00ce DA62     		str	r2, [r3, #44]
 1719              		.loc 1 711 0
 1720 00d0 039B     		ldr	r3, [sp, #12]
 1721 00d2 4FF40662 		mov	r2, #2144
 1722 00d6 A3F85C20 		strh	r2, [r3, #92]	@ movhi
 1723              		.loc 1 714 0
 1724 00da 039B     		ldr	r3, [sp, #12]
 1725 00dc 4FF40672 		mov	r2, #536
 1726 00e0 1A87     		strh	r2, [r3, #56]	@ movhi
 1727              		.loc 1 716 0
 1728 00e2 039B     		ldr	r3, [sp, #12]
 1729 00e4 1B8F     		ldrh	r3, [r3, #56]
 1730 00e6 1846     		mov	r0, r3
ARM GAS  /tmp/ccgFJ4Zb.s 			page 32


 1731 00e8 0299     		ldr	r1, [sp, #8]
 1732 00ea FFF7FEFF 		bl	tcp_eff_send_mss
 1733 00ee 0346     		mov	r3, r0
 1734 00f0 1A46     		mov	r2, r3
 1735 00f2 039B     		ldr	r3, [sp, #12]
 1736 00f4 1A87     		strh	r2, [r3, #56]	@ movhi
 1737              		.loc 1 718 0
 1738 00f6 039B     		ldr	r3, [sp, #12]
 1739 00f8 4FF00102 		mov	r2, #1
 1740 00fc A3F85220 		strh	r2, [r3, #82]	@ movhi
 1741              		.loc 1 719 0
 1742 0100 039B     		ldr	r3, [sp, #12]
 1743 0102 1B8F     		ldrh	r3, [r3, #56]
 1744 0104 1A46     		mov	r2, r3	@ movhi
 1745 0106 4FEA8202 		lsl	r2, r2, #2
 1746 010a D318     		adds	r3, r2, r3
 1747 010c 4FEA4303 		lsl	r3, r3, #1
 1748 0110 9AB2     		uxth	r2, r3
 1749 0112 039B     		ldr	r3, [sp, #12]
 1750 0114 A3F85420 		strh	r2, [r3, #84]	@ movhi
 1751              		.loc 1 721 0
 1752 0118 039B     		ldr	r3, [sp, #12]
 1753 011a 009A     		ldr	r2, [sp, #0]
 1754 011c C3F88C20 		str	r2, [r3, #140]
 1755              		.loc 1 727 0
 1756 0120 0398     		ldr	r0, [sp, #12]
 1757 0122 4FF00201 		mov	r1, #2
 1758 0126 FFF7FEFF 		bl	tcp_enqueue_flags
 1759 012a 0346     		mov	r3, r0
 1760 012c 8DF81330 		strb	r3, [sp, #19]
 1761              		.loc 1 728 0
 1762 0130 9DF91330 		ldrsb	r3, [sp, #19]
 1763 0134 002B     		cmp	r3, #0
 1764 0136 60D1     		bne	.L109
 1765              		.loc 1 730 0
 1766 0138 039B     		ldr	r3, [sp, #12]
 1767 013a 4FF00202 		mov	r2, #2
 1768 013e 1A74     		strb	r2, [r3, #16]
 1769              		.loc 1 731 0
 1770 0140 BDF81A30 		ldrh	r3, [sp, #26]
 1771 0144 002B     		cmp	r3, #0
 1772 0146 46D0     		beq	.L110
 1773              		.loc 1 732 0
 1774 0148 40F20003 		movw	r3, #:lower16:tcp_bound_pcbs
 1775 014c C0F20003 		movt	r3, #:upper16:tcp_bound_pcbs
 1776 0150 1A68     		ldr	r2, [r3, #0]
 1777 0152 039B     		ldr	r3, [sp, #12]
 1778 0154 9A42     		cmp	r2, r3
 1779 0156 0BD1     		bne	.L111
 1780              		.loc 1 732 0 is_stmt 0 discriminator 1
 1781 0158 40F20003 		movw	r3, #:lower16:tcp_bound_pcbs
 1782 015c C0F20003 		movt	r3, #:upper16:tcp_bound_pcbs
 1783 0160 1B68     		ldr	r3, [r3, #0]
 1784 0162 DA68     		ldr	r2, [r3, #12]
 1785 0164 40F20003 		movw	r3, #:lower16:tcp_bound_pcbs
 1786 0168 C0F20003 		movt	r3, #:upper16:tcp_bound_pcbs
 1787 016c 1A60     		str	r2, [r3, #0]
ARM GAS  /tmp/ccgFJ4Zb.s 			page 33


 1788 016e 2EE0     		b	.L112
 1789              	.L111:
 1790              		.loc 1 732 0 discriminator 2
 1791 0170 40F20003 		movw	r3, #:lower16:tcp_bound_pcbs
 1792 0174 C0F20003 		movt	r3, #:upper16:tcp_bound_pcbs
 1793 0178 1A68     		ldr	r2, [r3, #0]
 1794 017a 40F20003 		movw	r3, #:lower16:tcp_tmp_pcb
 1795 017e C0F20003 		movt	r3, #:upper16:tcp_tmp_pcb
 1796 0182 1A60     		str	r2, [r3, #0]
 1797 0184 1CE0     		b	.L113
 1798              	.L115:
 1799              		.loc 1 732 0 discriminator 7
 1800 0186 40F20003 		movw	r3, #:lower16:tcp_tmp_pcb
 1801 018a C0F20003 		movt	r3, #:upper16:tcp_tmp_pcb
 1802 018e 1B68     		ldr	r3, [r3, #0]
 1803 0190 DA68     		ldr	r2, [r3, #12]
 1804 0192 039B     		ldr	r3, [sp, #12]
 1805 0194 9A42     		cmp	r2, r3
 1806 0196 08D1     		bne	.L114
 1807              		.loc 1 732 0 discriminator 4
 1808 0198 40F20003 		movw	r3, #:lower16:tcp_tmp_pcb
 1809 019c C0F20003 		movt	r3, #:upper16:tcp_tmp_pcb
 1810 01a0 1B68     		ldr	r3, [r3, #0]
 1811 01a2 039A     		ldr	r2, [sp, #12]
 1812 01a4 D268     		ldr	r2, [r2, #12]
 1813 01a6 DA60     		str	r2, [r3, #12]
 1814 01a8 11E0     		b	.L112
 1815              	.L114:
 1816              		.loc 1 732 0 discriminator 5
 1817 01aa 40F20003 		movw	r3, #:lower16:tcp_tmp_pcb
 1818 01ae C0F20003 		movt	r3, #:upper16:tcp_tmp_pcb
 1819 01b2 1B68     		ldr	r3, [r3, #0]
 1820 01b4 DA68     		ldr	r2, [r3, #12]
 1821 01b6 40F20003 		movw	r3, #:lower16:tcp_tmp_pcb
 1822 01ba C0F20003 		movt	r3, #:upper16:tcp_tmp_pcb
 1823 01be 1A60     		str	r2, [r3, #0]
 1824              	.L113:
 1825              		.loc 1 732 0 discriminator 3
 1826 01c0 40F20003 		movw	r3, #:lower16:tcp_tmp_pcb
 1827 01c4 C0F20003 		movt	r3, #:upper16:tcp_tmp_pcb
 1828 01c8 1B68     		ldr	r3, [r3, #0]
 1829 01ca 002B     		cmp	r3, #0
 1830 01cc DBD1     		bne	.L115
 1831              	.L112:
 1832              		.loc 1 732 0 discriminator 6
 1833 01ce 039B     		ldr	r3, [sp, #12]
 1834 01d0 4FF00002 		mov	r2, #0
 1835 01d4 DA60     		str	r2, [r3, #12]
 1836              	.L110:
 1837              		.loc 1 734 0 is_stmt 1
 1838 01d6 40F20003 		movw	r3, #:lower16:tcp_active_pcbs
 1839 01da C0F20003 		movt	r3, #:upper16:tcp_active_pcbs
 1840 01de 1A68     		ldr	r2, [r3, #0]
 1841 01e0 039B     		ldr	r3, [sp, #12]
 1842 01e2 DA60     		str	r2, [r3, #12]
 1843 01e4 40F20003 		movw	r3, #:lower16:tcp_active_pcbs
 1844 01e8 C0F20003 		movt	r3, #:upper16:tcp_active_pcbs
ARM GAS  /tmp/ccgFJ4Zb.s 			page 34


 1845 01ec 039A     		ldr	r2, [sp, #12]
 1846 01ee 1A60     		str	r2, [r3, #0]
 1847 01f0 FFF7FEFF 		bl	tcp_timer_needed
 1848              		.loc 1 737 0
 1849 01f4 0398     		ldr	r0, [sp, #12]
 1850 01f6 FFF7FEFF 		bl	tcp_output
 1851              	.L109:
 1852              		.loc 1 739 0
 1853 01fa 9DF81330 		ldrb	r3, [sp, #19]	@ zero_extendqisi2
 1854              	.L102:
 1855 01fe 5BB2     		sxtb	r3, r3
 1856              		.loc 1 740 0
 1857 0200 1846     		mov	r0, r3
 1858 0202 09B0     		add	sp, sp, #36
 1859 0204 00BD     		pop	{pc}
 1860              		.cfi_endproc
 1861              	.LFE19:
 1862              		.size	tcp_connect, .-tcp_connect
 1863 0206 00BFAFF3 		.section	.text.tcp_slowtmr,"ax",%progbits
 1863      0080AFF3 
 1863      0080
 1864              		.align	2
 1865              		.p2align 4,,15
 1866              		.global	tcp_slowtmr
 1867              		.thumb
 1868              		.thumb_func
 1869              		.type	tcp_slowtmr, %function
 1870              	tcp_slowtmr:
 1871              	.LFB20:
 1872              		.loc 1 751 0
 1873              		.cfi_startproc
 1874              		@ args = 0, pretend = 0, frame = 24
 1875              		@ frame_needed = 0, uses_anonymous_args = 0
 1876 0000 30B5     		push	{r4, r5, lr}
 1877              	.LCFI23:
 1878              		.cfi_def_cfa_offset 12
 1879              		.cfi_offset 14, -4
 1880              		.cfi_offset 5, -8
 1881              		.cfi_offset 4, -12
 1882 0002 89B0     		sub	sp, sp, #36
 1883              	.LCFI24:
 1884              		.cfi_def_cfa_offset 48
 1885              		.loc 1 758 0
 1886 0004 4FF00003 		mov	r3, #0
 1887 0008 8DF81530 		strb	r3, [sp, #21]
 1888              		.loc 1 760 0
 1889 000c 40F20003 		movw	r3, #:lower16:tcp_ticks
 1890 0010 C0F20003 		movt	r3, #:upper16:tcp_ticks
 1891 0014 1B68     		ldr	r3, [r3, #0]
 1892 0016 03F10102 		add	r2, r3, #1
 1893 001a 40F20003 		movw	r3, #:lower16:tcp_ticks
 1894 001e C0F20003 		movt	r3, #:upper16:tcp_ticks
 1895 0022 1A60     		str	r2, [r3, #0]
 1896              		.loc 1 763 0
 1897 0024 4FF00003 		mov	r3, #0
 1898 0028 0693     		str	r3, [sp, #24]
 1899              		.loc 1 764 0
ARM GAS  /tmp/ccgFJ4Zb.s 			page 35


 1900 002a 40F20003 		movw	r3, #:lower16:tcp_active_pcbs
 1901 002e C0F20003 		movt	r3, #:upper16:tcp_active_pcbs
 1902 0032 1B68     		ldr	r3, [r3, #0]
 1903 0034 0793     		str	r3, [sp, #28]
 1904              		.loc 1 768 0
 1905 0036 1FE2     		b	.L118
 1906              	.L146:
 1907              		.loc 1 770 0
 1908 0038 079B     		ldr	r3, [sp, #28]
 1909 003a 1B7C     		ldrb	r3, [r3, #16]	@ zero_extendqisi2
 1910 003c 002B     		cmp	r3, #0
 1911 003e 01D1     		bne	.L119
 1912              		.loc 1 770 0 is_stmt 0 discriminator 1
 1913 0040 FFF7FEFF 		bl	port_halt
 1914              	.L119:
 1915              		.loc 1 771 0 is_stmt 1
 1916 0044 079B     		ldr	r3, [sp, #28]
 1917 0046 1B7C     		ldrb	r3, [r3, #16]	@ zero_extendqisi2
 1918 0048 012B     		cmp	r3, #1
 1919 004a 01D1     		bne	.L120
 1920              		.loc 1 771 0 is_stmt 0 discriminator 1
 1921 004c FFF7FEFF 		bl	port_halt
 1922              	.L120:
 1923              		.loc 1 772 0 is_stmt 1
 1924 0050 079B     		ldr	r3, [sp, #28]
 1925 0052 1B7C     		ldrb	r3, [r3, #16]	@ zero_extendqisi2
 1926 0054 0A2B     		cmp	r3, #10
 1927 0056 01D1     		bne	.L121
 1928              		.loc 1 772 0 is_stmt 0 discriminator 1
 1929 0058 FFF7FEFF 		bl	port_halt
 1930              	.L121:
 1931              		.loc 1 774 0 is_stmt 1
 1932 005c 4FF00003 		mov	r3, #0
 1933 0060 8DF81730 		strb	r3, [sp, #23]
 1934              		.loc 1 775 0
 1935 0064 4FF00003 		mov	r3, #0
 1936 0068 8DF81630 		strb	r3, [sp, #22]
 1937              		.loc 1 777 0
 1938 006c 079B     		ldr	r3, [sp, #28]
 1939 006e 1B7C     		ldrb	r3, [r3, #16]	@ zero_extendqisi2
 1940 0070 022B     		cmp	r3, #2
 1941 0072 0BD1     		bne	.L122
 1942              		.loc 1 777 0 is_stmt 0 discriminator 1
 1943 0074 079B     		ldr	r3, [sp, #28]
 1944 0076 93F84A30 		ldrb	r3, [r3, #74]	@ zero_extendqisi2
 1945 007a 062B     		cmp	r3, #6
 1946 007c 06D1     		bne	.L122
 1947              		.loc 1 778 0 is_stmt 1
 1948 007e 9DF81730 		ldrb	r3, [sp, #23]
 1949 0082 03F10103 		add	r3, r3, #1
 1950 0086 8DF81730 		strb	r3, [sp, #23]
 1951 008a A9E0     		b	.L123
 1952              	.L122:
 1953              		.loc 1 781 0
 1954 008c 079B     		ldr	r3, [sp, #28]
 1955 008e 93F84A30 		ldrb	r3, [r3, #74]	@ zero_extendqisi2
 1956 0092 0C2B     		cmp	r3, #12
ARM GAS  /tmp/ccgFJ4Zb.s 			page 36


 1957 0094 06D1     		bne	.L124
 1958              		.loc 1 782 0
 1959 0096 9DF81730 		ldrb	r3, [sp, #23]
 1960 009a 03F10103 		add	r3, r3, #1
 1961 009e 8DF81730 		strb	r3, [sp, #23]
 1962 00a2 9DE0     		b	.L123
 1963              	.L124:
 1964              		.loc 1 785 0
 1965 00a4 079B     		ldr	r3, [sp, #28]
 1966 00a6 93F8A030 		ldrb	r3, [r3, #160]	@ zero_extendqisi2
 1967 00aa 002B     		cmp	r3, #0
 1968 00ac 2ED0     		beq	.L125
 1969              		.loc 1 788 0
 1970 00ae 079B     		ldr	r3, [sp, #28]
 1971 00b0 D3F89C30 		ldr	r3, [r3, #156]
 1972 00b4 03F10102 		add	r2, r3, #1
 1973 00b8 079B     		ldr	r3, [sp, #28]
 1974 00ba C3F89C20 		str	r2, [r3, #156]
 1975              		.loc 1 789 0
 1976 00be 079B     		ldr	r3, [sp, #28]
 1977 00c0 D3F89C20 		ldr	r2, [r3, #156]
 1978 00c4 079B     		ldr	r3, [sp, #28]
 1979 00c6 93F8A030 		ldrb	r3, [r3, #160]	@ zero_extendqisi2
 1980 00ca 03F1FF31 		add	r1, r3, #-1
 1981 00ce 40F20003 		movw	r3, #:lower16:tcp_persist_backoff
 1982 00d2 C0F20003 		movt	r3, #:upper16:tcp_persist_backoff
 1983 00d6 5B5C     		ldrb	r3, [r3, r1]	@ zero_extendqisi2
 1984 00d8 9A42     		cmp	r2, r3
 1985 00da C0F08180 		bcc	.L123
 1986              		.loc 1 790 0
 1987 00de 079B     		ldr	r3, [sp, #28]
 1988 00e0 4FF00002 		mov	r2, #0
 1989 00e4 C3F89C20 		str	r2, [r3, #156]
 1990              		.loc 1 791 0
 1991 00e8 079B     		ldr	r3, [sp, #28]
 1992 00ea 93F8A030 		ldrb	r3, [r3, #160]	@ zero_extendqisi2
 1993 00ee 062B     		cmp	r3, #6
 1994 00f0 08D8     		bhi	.L126
 1995              		.loc 1 792 0
 1996 00f2 079B     		ldr	r3, [sp, #28]
 1997 00f4 93F8A030 		ldrb	r3, [r3, #160]	@ zero_extendqisi2
 1998 00f8 03F10103 		add	r3, r3, #1
 1999 00fc DAB2     		uxtb	r2, r3
 2000 00fe 079B     		ldr	r3, [sp, #28]
 2001 0100 83F8A020 		strb	r2, [r3, #160]
 2002              	.L126:
 2003              		.loc 1 794 0
 2004 0104 0798     		ldr	r0, [sp, #28]
 2005 0106 FFF7FEFF 		bl	tcp_zero_window_probe
 2006 010a 69E0     		b	.L123
 2007              	.L125:
 2008              		.loc 1 798 0
 2009 010c 079B     		ldr	r3, [sp, #28]
 2010 010e DB8E     		ldrh	r3, [r3, #54]
 2011 0110 1BB2     		sxth	r3, r3
 2012 0112 002B     		cmp	r3, #0
 2013 0114 06DB     		blt	.L127
ARM GAS  /tmp/ccgFJ4Zb.s 			page 37


 2014              		.loc 1 799 0
 2015 0116 079B     		ldr	r3, [sp, #28]
 2016 0118 DB8E     		ldrh	r3, [r3, #54]
 2017 011a 03F10103 		add	r3, r3, #1
 2018 011e 9AB2     		uxth	r2, r3
 2019 0120 079B     		ldr	r3, [sp, #28]
 2020 0122 DA86     		strh	r2, [r3, #54]	@ movhi
 2021              	.L127:
 2022              		.loc 1 801 0
 2023 0124 079B     		ldr	r3, [sp, #28]
 2024 0126 9B6F     		ldr	r3, [r3, #120]
 2025 0128 002B     		cmp	r3, #0
 2026 012a 59D0     		beq	.L123
 2027              		.loc 1 801 0 is_stmt 0 discriminator 1
 2028 012c 079B     		ldr	r3, [sp, #28]
 2029 012e DA8E     		ldrh	r2, [r3, #54]
 2030 0130 079B     		ldr	r3, [sp, #28]
 2031 0132 B3F84830 		ldrh	r3, [r3, #72]
 2032 0136 12B2     		sxth	r2, r2
 2033 0138 1BB2     		sxth	r3, r3
 2034 013a 9A42     		cmp	r2, r3
 2035 013c 50DB     		blt	.L123
 2036              		.loc 1 809 0 is_stmt 1
 2037 013e 079B     		ldr	r3, [sp, #28]
 2038 0140 1B7C     		ldrb	r3, [r3, #16]	@ zero_extendqisi2
 2039 0142 022B     		cmp	r3, #2
 2040 0144 1BD0     		beq	.L128
 2041              		.loc 1 810 0
 2042 0146 079B     		ldr	r3, [sp, #28]
 2043 0148 B3F84430 		ldrh	r3, [r3, #68]
 2044 014c 1BB2     		sxth	r3, r3
 2045 014e 4FEAE303 		asr	r3, r3, #3
 2046 0152 9BB2     		uxth	r3, r3
 2047 0154 1AB2     		sxth	r2, r3
 2048 0156 079B     		ldr	r3, [sp, #28]
 2049 0158 B3F84630 		ldrh	r3, [r3, #70]
 2050 015c 1BB2     		sxth	r3, r3
 2051 015e D218     		adds	r2, r2, r3
 2052 0160 079B     		ldr	r3, [sp, #28]
 2053 0162 93F84A30 		ldrb	r3, [r3, #74]	@ zero_extendqisi2
 2054 0166 1946     		mov	r1, r3
 2055 0168 40F20003 		movw	r3, #:lower16:tcp_backoff
 2056 016c C0F20003 		movt	r3, #:upper16:tcp_backoff
 2057 0170 5B5C     		ldrb	r3, [r3, r1]	@ zero_extendqisi2
 2058 0172 02FA03F3 		lsl	r3, r2, r3
 2059 0176 9AB2     		uxth	r2, r3
 2060 0178 079B     		ldr	r3, [sp, #28]
 2061 017a A3F84820 		strh	r2, [r3, #72]	@ movhi
 2062              	.L128:
 2063              		.loc 1 814 0
 2064 017e 079B     		ldr	r3, [sp, #28]
 2065 0180 4FF00002 		mov	r2, #0
 2066 0184 DA86     		strh	r2, [r3, #54]	@ movhi
 2067              		.loc 1 817 0
 2068 0186 079B     		ldr	r3, [sp, #28]
 2069 0188 B3F85C20 		ldrh	r2, [r3, #92]
 2070 018c 079B     		ldr	r3, [sp, #28]
ARM GAS  /tmp/ccgFJ4Zb.s 			page 38


 2071 018e B3F85230 		ldrh	r3, [r3, #82]
 2072 0192 9A42     		cmp	r2, r3
 2073 0194 38BF     		it	cc
 2074 0196 1346     		movcc	r3, r2
 2075 0198 ADF81230 		strh	r3, [sp, #18]	@ movhi
 2076              		.loc 1 818 0
 2077 019c BDF81230 		ldrh	r3, [sp, #18]
 2078 01a0 4FEA5303 		lsr	r3, r3, #1
 2079 01a4 9AB2     		uxth	r2, r3
 2080 01a6 079B     		ldr	r3, [sp, #28]
 2081 01a8 A3F85420 		strh	r2, [r3, #84]	@ movhi
 2082              		.loc 1 819 0
 2083 01ac 079B     		ldr	r3, [sp, #28]
 2084 01ae B3F85430 		ldrh	r3, [r3, #84]
 2085 01b2 1A46     		mov	r2, r3
 2086 01b4 079B     		ldr	r3, [sp, #28]
 2087 01b6 1B8F     		ldrh	r3, [r3, #56]
 2088 01b8 4FEA4303 		lsl	r3, r3, #1
 2089 01bc 9A42     		cmp	r2, r3
 2090 01be 07DA     		bge	.L129
 2091              		.loc 1 820 0
 2092 01c0 079B     		ldr	r3, [sp, #28]
 2093 01c2 1B8F     		ldrh	r3, [r3, #56]
 2094 01c4 4FEA4303 		lsl	r3, r3, #1
 2095 01c8 9AB2     		uxth	r2, r3
 2096 01ca 079B     		ldr	r3, [sp, #28]
 2097 01cc A3F85420 		strh	r2, [r3, #84]	@ movhi
 2098              	.L129:
 2099              		.loc 1 822 0
 2100 01d0 079B     		ldr	r3, [sp, #28]
 2101 01d2 1A8F     		ldrh	r2, [r3, #56]
 2102 01d4 079B     		ldr	r3, [sp, #28]
 2103 01d6 A3F85220 		strh	r2, [r3, #82]	@ movhi
 2104              		.loc 1 829 0
 2105 01da 0798     		ldr	r0, [sp, #28]
 2106 01dc FFF7FEFF 		bl	tcp_rexmit_rto
 2107              	.L123:
 2108              		.loc 1 834 0
 2109 01e0 079B     		ldr	r3, [sp, #28]
 2110 01e2 1B7C     		ldrb	r3, [r3, #16]	@ zero_extendqisi2
 2111 01e4 062B     		cmp	r3, #6
 2112 01e6 0FD1     		bne	.L130
 2113              		.loc 1 835 0
 2114 01e8 40F20003 		movw	r3, #:lower16:tcp_ticks
 2115 01ec C0F20003 		movt	r3, #:upper16:tcp_ticks
 2116 01f0 1A68     		ldr	r2, [r3, #0]
 2117 01f2 079B     		ldr	r3, [sp, #28]
 2118 01f4 1B6B     		ldr	r3, [r3, #48]
 2119 01f6 D31A     		subs	r3, r2, r3
 2120 01f8 282B     		cmp	r3, #40
 2121 01fa 05D9     		bls	.L130
 2122              		.loc 1 837 0
 2123 01fc 9DF81730 		ldrb	r3, [sp, #23]
 2124 0200 03F10103 		add	r3, r3, #1
 2125 0204 8DF81730 		strb	r3, [sp, #23]
 2126              	.L130:
 2127              		.loc 1 843 0
ARM GAS  /tmp/ccgFJ4Zb.s 			page 39


 2128 0208 079B     		ldr	r3, [sp, #28]
 2129 020a 1B7A     		ldrb	r3, [r3, #8]	@ zero_extendqisi2
 2130 020c 03F00803 		and	r3, r3, #8
 2131 0210 002B     		cmp	r3, #0
 2132 0212 5AD0     		beq	.L131
 2133              		.loc 1 844 0 discriminator 1
 2134 0214 079B     		ldr	r3, [sp, #28]
 2135 0216 1B7C     		ldrb	r3, [r3, #16]	@ zero_extendqisi2
 2136              		.loc 1 843 0 discriminator 1
 2137 0218 042B     		cmp	r3, #4
 2138 021a 03D0     		beq	.L132
 2139              		.loc 1 845 0
 2140 021c 079B     		ldr	r3, [sp, #28]
 2141 021e 1B7C     		ldrb	r3, [r3, #16]	@ zero_extendqisi2
 2142              		.loc 1 844 0
 2143 0220 072B     		cmp	r3, #7
 2144 0222 52D1     		bne	.L131
 2145              	.L132:
 2146              		.loc 1 851 0
 2147 0224 40F20003 		movw	r3, #:lower16:tcp_ticks
 2148 0228 C0F20003 		movt	r3, #:upper16:tcp_ticks
 2149 022c 1A68     		ldr	r2, [r3, #0]
 2150 022e 079B     		ldr	r3, [sp, #28]
 2151 0230 1B6B     		ldr	r3, [r3, #48]
 2152 0232 D11A     		subs	r1, r2, r3
 2153              		.loc 1 852 0
 2154 0234 079B     		ldr	r3, [sp, #28]
 2155 0236 D3F89820 		ldr	r2, [r3, #152]
 2156 023a 44F6B843 		movw	r3, #19640
 2157 023e C0F20A03 		movt	r3, 10
 2158 0242 D318     		adds	r3, r2, r3
 2159 0244 44F6D352 		movw	r2, #19923
 2160 0248 C1F26202 		movt	r2, 4194
 2161 024c A2FB0303 		umull	r0, r3, r2, r3
 2162 0250 4FEA5313 		lsr	r3, r3, #5
 2163              		.loc 1 851 0
 2164 0254 9942     		cmp	r1, r3
 2165 0256 0CD9     		bls	.L133
 2166              		.loc 1 859 0
 2167 0258 9DF81730 		ldrb	r3, [sp, #23]
 2168 025c 03F10103 		add	r3, r3, #1
 2169 0260 8DF81730 		strb	r3, [sp, #23]
 2170              		.loc 1 860 0
 2171 0264 9DF81630 		ldrb	r3, [sp, #22]
 2172 0268 03F10103 		add	r3, r3, #1
 2173 026c 8DF81630 		strb	r3, [sp, #22]
 2174 0270 2BE0     		b	.L131
 2175              	.L133:
 2176              		.loc 1 867 0
 2177 0272 40F20003 		movw	r3, #:lower16:tcp_ticks
 2178 0276 C0F20003 		movt	r3, #:upper16:tcp_ticks
 2179 027a 1A68     		ldr	r2, [r3, #0]
 2180 027c 079B     		ldr	r3, [sp, #28]
 2181 027e 1B6B     		ldr	r3, [r3, #48]
 2182 0280 D21A     		subs	r2, r2, r3
 2183              		.loc 1 868 0
 2184 0282 079B     		ldr	r3, [sp, #28]
ARM GAS  /tmp/ccgFJ4Zb.s 			page 40


 2185 0284 D3F89810 		ldr	r1, [r3, #152]
 2186 0288 079B     		ldr	r3, [sp, #28]
 2187 028a 93F8A130 		ldrb	r3, [r3, #161]	@ zero_extendqisi2
 2188 028e 1846     		mov	r0, r3
 2189 0290 42F2F843 		movw	r3, #9464
 2190 0294 C0F20103 		movt	r3, 1
 2191 0298 03FB00F3 		mul	r3, r3, r0
 2192 029c C918     		adds	r1, r1, r3
 2193              		.loc 1 869 0
 2194 029e 44F6D353 		movw	r3, #19923
 2195 02a2 C1F26203 		movt	r3, 4194
 2196 02a6 A3FB0103 		umull	r0, r3, r3, r1
 2197 02aa 4FEA5313 		lsr	r3, r3, #5
 2198              		.loc 1 867 0
 2199 02ae 9A42     		cmp	r2, r3
 2200 02b0 0BD9     		bls	.L131
 2201              		.loc 1 872 0
 2202 02b2 0798     		ldr	r0, [sp, #28]
 2203 02b4 FFF7FEFF 		bl	tcp_keepalive
 2204              		.loc 1 873 0
 2205 02b8 079B     		ldr	r3, [sp, #28]
 2206 02ba 93F8A130 		ldrb	r3, [r3, #161]	@ zero_extendqisi2
 2207 02be 03F10103 		add	r3, r3, #1
 2208 02c2 DAB2     		uxtb	r2, r3
 2209 02c4 079B     		ldr	r3, [sp, #28]
 2210 02c6 83F8A120 		strb	r2, [r3, #161]
 2211              	.L131:
 2212              		.loc 1 881 0
 2213 02ca 079B     		ldr	r3, [sp, #28]
 2214 02cc DB6F     		ldr	r3, [r3, #124]
 2215 02ce 002B     		cmp	r3, #0
 2216 02d0 1CD0     		beq	.L134
 2217              		.loc 1 882 0 discriminator 1
 2218 02d2 40F20003 		movw	r3, #:lower16:tcp_ticks
 2219 02d6 C0F20003 		movt	r3, #:upper16:tcp_ticks
 2220 02da 1A68     		ldr	r2, [r3, #0]
 2221 02dc 079B     		ldr	r3, [sp, #28]
 2222 02de 1B6B     		ldr	r3, [r3, #48]
 2223 02e0 D11A     		subs	r1, r2, r3
 2224 02e2 079B     		ldr	r3, [sp, #28]
 2225 02e4 B3F84830 		ldrh	r3, [r3, #72]
 2226 02e8 1AB2     		sxth	r2, r3
 2227 02ea 1346     		mov	r3, r2
 2228 02ec 4FEA4303 		lsl	r3, r3, #1
 2229 02f0 9B18     		adds	r3, r3, r2
 2230 02f2 4FEA4303 		lsl	r3, r3, #1
 2231              		.loc 1 881 0 discriminator 1
 2232 02f6 9942     		cmp	r1, r3
 2233 02f8 08D3     		bcc	.L134
 2234              		.loc 1 883 0
 2235 02fa 079B     		ldr	r3, [sp, #28]
 2236 02fc DB6F     		ldr	r3, [r3, #124]
 2237 02fe 1846     		mov	r0, r3
 2238 0300 FFF7FEFF 		bl	tcp_segs_free
 2239              		.loc 1 884 0
 2240 0304 079B     		ldr	r3, [sp, #28]
 2241 0306 4FF00002 		mov	r2, #0
ARM GAS  /tmp/ccgFJ4Zb.s 			page 41


 2242 030a DA67     		str	r2, [r3, #124]
 2243              	.L134:
 2244              		.loc 1 890 0
 2245 030c 079B     		ldr	r3, [sp, #28]
 2246 030e 1B7C     		ldrb	r3, [r3, #16]	@ zero_extendqisi2
 2247 0310 032B     		cmp	r3, #3
 2248 0312 0FD1     		bne	.L135
 2249              		.loc 1 891 0
 2250 0314 40F20003 		movw	r3, #:lower16:tcp_ticks
 2251 0318 C0F20003 		movt	r3, #:upper16:tcp_ticks
 2252 031c 1A68     		ldr	r2, [r3, #0]
 2253 031e 079B     		ldr	r3, [sp, #28]
 2254 0320 1B6B     		ldr	r3, [r3, #48]
 2255 0322 D31A     		subs	r3, r2, r3
 2256 0324 282B     		cmp	r3, #40
 2257 0326 05D9     		bls	.L135
 2258              		.loc 1 893 0
 2259 0328 9DF81730 		ldrb	r3, [sp, #23]
 2260 032c 03F10103 		add	r3, r3, #1
 2261 0330 8DF81730 		strb	r3, [sp, #23]
 2262              	.L135:
 2263              		.loc 1 899 0
 2264 0334 079B     		ldr	r3, [sp, #28]
 2265 0336 1B7C     		ldrb	r3, [r3, #16]	@ zero_extendqisi2
 2266 0338 092B     		cmp	r3, #9
 2267 033a 0FD1     		bne	.L136
 2268              		.loc 1 900 0
 2269 033c 40F20003 		movw	r3, #:lower16:tcp_ticks
 2270 0340 C0F20003 		movt	r3, #:upper16:tcp_ticks
 2271 0344 1A68     		ldr	r2, [r3, #0]
 2272 0346 079B     		ldr	r3, [sp, #28]
 2273 0348 1B6B     		ldr	r3, [r3, #48]
 2274 034a D31A     		subs	r3, r2, r3
 2275 034c F02B     		cmp	r3, #240
 2276 034e 05D9     		bls	.L136
 2277              		.loc 1 901 0
 2278 0350 9DF81730 		ldrb	r3, [sp, #23]
 2279 0354 03F10103 		add	r3, r3, #1
 2280 0358 8DF81730 		strb	r3, [sp, #23]
 2281              	.L136:
 2282              		.loc 1 907 0
 2283 035c 9DF81730 		ldrb	r3, [sp, #23]	@ zero_extendqisi2
 2284 0360 002B     		cmp	r3, #0
 2285 0362 52D0     		beq	.L137
 2286              	.LBB4:
 2287              		.loc 1 909 0
 2288 0364 0798     		ldr	r0, [sp, #28]
 2289 0366 FFF7FEFF 		bl	tcp_pcb_purge
 2290              		.loc 1 911 0
 2291 036a 069B     		ldr	r3, [sp, #24]
 2292 036c 002B     		cmp	r3, #0
 2293 036e 0ED0     		beq	.L138
 2294              		.loc 1 912 0
 2295 0370 40F20003 		movw	r3, #:lower16:tcp_active_pcbs
 2296 0374 C0F20003 		movt	r3, #:upper16:tcp_active_pcbs
 2297 0378 1B68     		ldr	r3, [r3, #0]
 2298 037a 079A     		ldr	r2, [sp, #28]
ARM GAS  /tmp/ccgFJ4Zb.s 			page 42


 2299 037c 9A42     		cmp	r2, r3
 2300 037e 01D1     		bne	.L139
 2301              		.loc 1 912 0 is_stmt 0 discriminator 1
 2302 0380 FFF7FEFF 		bl	port_halt
 2303              	.L139:
 2304              		.loc 1 913 0 is_stmt 1
 2305 0384 079B     		ldr	r3, [sp, #28]
 2306 0386 DA68     		ldr	r2, [r3, #12]
 2307 0388 069B     		ldr	r3, [sp, #24]
 2308 038a DA60     		str	r2, [r3, #12]
 2309 038c 10E0     		b	.L140
 2310              	.L138:
 2311              		.loc 1 916 0
 2312 038e 40F20003 		movw	r3, #:lower16:tcp_active_pcbs
 2313 0392 C0F20003 		movt	r3, #:upper16:tcp_active_pcbs
 2314 0396 1A68     		ldr	r2, [r3, #0]
 2315 0398 079B     		ldr	r3, [sp, #28]
 2316 039a 9A42     		cmp	r2, r3
 2317 039c 01D0     		beq	.L141
 2318              		.loc 1 916 0 is_stmt 0 discriminator 1
 2319 039e FFF7FEFF 		bl	port_halt
 2320              	.L141:
 2321              		.loc 1 917 0 is_stmt 1
 2322 03a2 079B     		ldr	r3, [sp, #28]
 2323 03a4 DA68     		ldr	r2, [r3, #12]
 2324 03a6 40F20003 		movw	r3, #:lower16:tcp_active_pcbs
 2325 03aa C0F20003 		movt	r3, #:upper16:tcp_active_pcbs
 2326 03ae 1A60     		str	r2, [r3, #0]
 2327              	.L140:
 2328              		.loc 1 920 0
 2329 03b0 079B     		ldr	r3, [sp, #28]
 2330 03b2 D3F89430 		ldr	r3, [r3, #148]
 2331 03b6 002B     		cmp	r3, #0
 2332 03b8 08D0     		beq	.L142
 2333              		.loc 1 920 0 is_stmt 0 discriminator 1
 2334 03ba 079B     		ldr	r3, [sp, #28]
 2335 03bc D3F89430 		ldr	r3, [r3, #148]
 2336 03c0 079A     		ldr	r2, [sp, #28]
 2337 03c2 5269     		ldr	r2, [r2, #20]
 2338 03c4 1046     		mov	r0, r2
 2339 03c6 6FF00901 		mvn	r1, #9
 2340 03ca 9847     		blx	r3
 2341              	.L142:
 2342              		.loc 1 921 0 is_stmt 1
 2343 03cc 9DF81630 		ldrb	r3, [sp, #22]	@ zero_extendqisi2
 2344 03d0 002B     		cmp	r3, #0
 2345 03d2 0FD0     		beq	.L143
 2346              		.loc 1 922 0
 2347 03d4 079B     		ldr	r3, [sp, #28]
 2348 03d6 986D     		ldr	r0, [r3, #88]
 2349 03d8 079B     		ldr	r3, [sp, #28]
 2350 03da 596A     		ldr	r1, [r3, #36]
 2351 03dc 079A     		ldr	r2, [sp, #28]
 2352 03de 079B     		ldr	r3, [sp, #28]
 2353 03e0 03F10403 		add	r3, r3, #4
 2354              		.loc 1 923 0
 2355 03e4 079C     		ldr	r4, [sp, #28]
ARM GAS  /tmp/ccgFJ4Zb.s 			page 43


 2356              		.loc 1 922 0
 2357 03e6 A58B     		ldrh	r5, [r4, #28]
 2358              		.loc 1 923 0
 2359 03e8 079C     		ldr	r4, [sp, #28]
 2360              		.loc 1 922 0
 2361 03ea E48B     		ldrh	r4, [r4, #30]
 2362 03ec 0095     		str	r5, [sp, #0]
 2363 03ee 0194     		str	r4, [sp, #4]
 2364 03f0 FFF7FEFF 		bl	tcp_rst
 2365              	.L143:
 2366              		.loc 1 926 0
 2367 03f4 079B     		ldr	r3, [sp, #28]
 2368 03f6 0393     		str	r3, [sp, #12]
 2369              		.loc 1 927 0
 2370 03f8 079B     		ldr	r3, [sp, #28]
 2371 03fa DB68     		ldr	r3, [r3, #12]
 2372 03fc 0793     		str	r3, [sp, #28]
 2373              		.loc 1 928 0
 2374 03fe 4FF00200 		mov	r0, #2
 2375 0402 0399     		ldr	r1, [sp, #12]
 2376 0404 FFF7FEFF 		bl	memp_free
 2377 0408 36E0     		b	.L118
 2378              	.L137:
 2379              	.LBE4:
 2380              		.loc 1 931 0
 2381 040a 079B     		ldr	r3, [sp, #28]
 2382 040c 0693     		str	r3, [sp, #24]
 2383              		.loc 1 932 0
 2384 040e 079B     		ldr	r3, [sp, #28]
 2385 0410 DB68     		ldr	r3, [r3, #12]
 2386 0412 0793     		str	r3, [sp, #28]
 2387              		.loc 1 935 0
 2388 0414 069B     		ldr	r3, [sp, #24]
 2389 0416 93F83430 		ldrb	r3, [r3, #52]	@ zero_extendqisi2
 2390 041a 03F10103 		add	r3, r3, #1
 2391 041e DAB2     		uxtb	r2, r3
 2392 0420 069B     		ldr	r3, [sp, #24]
 2393 0422 83F83420 		strb	r2, [r3, #52]
 2394              		.loc 1 936 0
 2395 0426 069B     		ldr	r3, [sp, #24]
 2396 0428 93F83420 		ldrb	r2, [r3, #52]	@ zero_extendqisi2
 2397 042c 069B     		ldr	r3, [sp, #24]
 2398 042e 93F83530 		ldrb	r3, [r3, #53]	@ zero_extendqisi2
 2399 0432 9A42     		cmp	r2, r3
 2400 0434 20D3     		bcc	.L118
 2401              		.loc 1 937 0
 2402 0436 069B     		ldr	r3, [sp, #24]
 2403 0438 4FF00002 		mov	r2, #0
 2404 043c 83F83420 		strb	r2, [r3, #52]
 2405              		.loc 1 939 0
 2406 0440 069B     		ldr	r3, [sp, #24]
 2407 0442 D3F89030 		ldr	r3, [r3, #144]
 2408 0446 002B     		cmp	r3, #0
 2409 0448 0BD0     		beq	.L144
 2410              		.loc 1 939 0 is_stmt 0 discriminator 1
 2411 044a 069B     		ldr	r3, [sp, #24]
 2412 044c D3F89030 		ldr	r3, [r3, #144]
ARM GAS  /tmp/ccgFJ4Zb.s 			page 44


 2413 0450 069A     		ldr	r2, [sp, #24]
 2414 0452 5269     		ldr	r2, [r2, #20]
 2415 0454 1046     		mov	r0, r2
 2416 0456 0699     		ldr	r1, [sp, #24]
 2417 0458 9847     		blx	r3
 2418 045a 0346     		mov	r3, r0
 2419 045c 8DF81530 		strb	r3, [sp, #21]
 2420 0460 03E0     		b	.L145
 2421              	.L144:
 2422              		.loc 1 939 0 discriminator 2
 2423 0462 4FF00003 		mov	r3, #0
 2424 0466 8DF81530 		strb	r3, [sp, #21]
 2425              	.L145:
 2426              		.loc 1 941 0 is_stmt 1
 2427 046a 9DF91530 		ldrsb	r3, [sp, #21]
 2428 046e 002B     		cmp	r3, #0
 2429 0470 02D1     		bne	.L118
 2430              		.loc 1 942 0
 2431 0472 0698     		ldr	r0, [sp, #24]
 2432 0474 FFF7FEFF 		bl	tcp_output
 2433              	.L118:
 2434              		.loc 1 768 0 discriminator 1
 2435 0478 079B     		ldr	r3, [sp, #28]
 2436 047a 002B     		cmp	r3, #0
 2437 047c 7FF4DCAD 		bne	.L146
 2438              		.loc 1 950 0
 2439 0480 4FF00003 		mov	r3, #0
 2440 0484 0693     		str	r3, [sp, #24]
 2441              		.loc 1 951 0
 2442 0486 40F20003 		movw	r3, #:lower16:tcp_tw_pcbs
 2443 048a C0F20003 		movt	r3, #:upper16:tcp_tw_pcbs
 2444 048e 1B68     		ldr	r3, [r3, #0]
 2445 0490 0793     		str	r3, [sp, #28]
 2446              		.loc 1 952 0
 2447 0492 53E0     		b	.L147
 2448              	.L155:
 2449              		.loc 1 953 0
 2450 0494 079B     		ldr	r3, [sp, #28]
 2451 0496 1B7C     		ldrb	r3, [r3, #16]	@ zero_extendqisi2
 2452 0498 0A2B     		cmp	r3, #10
 2453 049a 01D0     		beq	.L148
 2454              		.loc 1 953 0 is_stmt 0 discriminator 1
 2455 049c FFF7FEFF 		bl	port_halt
 2456              	.L148:
 2457              		.loc 1 954 0 is_stmt 1
 2458 04a0 4FF00003 		mov	r3, #0
 2459 04a4 8DF81730 		strb	r3, [sp, #23]
 2460              		.loc 1 957 0
 2461 04a8 40F20003 		movw	r3, #:lower16:tcp_ticks
 2462 04ac C0F20003 		movt	r3, #:upper16:tcp_ticks
 2463 04b0 1A68     		ldr	r2, [r3, #0]
 2464 04b2 079B     		ldr	r3, [sp, #28]
 2465 04b4 1B6B     		ldr	r3, [r3, #48]
 2466 04b6 D31A     		subs	r3, r2, r3
 2467 04b8 F02B     		cmp	r3, #240
 2468 04ba 05D9     		bls	.L149
 2469              		.loc 1 958 0
ARM GAS  /tmp/ccgFJ4Zb.s 			page 45


 2470 04bc 9DF81730 		ldrb	r3, [sp, #23]
 2471 04c0 03F10103 		add	r3, r3, #1
 2472 04c4 8DF81730 		strb	r3, [sp, #23]
 2473              	.L149:
 2474              		.loc 1 964 0
 2475 04c8 9DF81730 		ldrb	r3, [sp, #23]	@ zero_extendqisi2
 2476 04cc 002B     		cmp	r3, #0
 2477 04ce 30D0     		beq	.L150
 2478              	.LBB5:
 2479              		.loc 1 966 0
 2480 04d0 0798     		ldr	r0, [sp, #28]
 2481 04d2 FFF7FEFF 		bl	tcp_pcb_purge
 2482              		.loc 1 968 0
 2483 04d6 069B     		ldr	r3, [sp, #24]
 2484 04d8 002B     		cmp	r3, #0
 2485 04da 0ED0     		beq	.L151
 2486              		.loc 1 969 0
 2487 04dc 40F20003 		movw	r3, #:lower16:tcp_tw_pcbs
 2488 04e0 C0F20003 		movt	r3, #:upper16:tcp_tw_pcbs
 2489 04e4 1B68     		ldr	r3, [r3, #0]
 2490 04e6 079A     		ldr	r2, [sp, #28]
 2491 04e8 9A42     		cmp	r2, r3
 2492 04ea 01D1     		bne	.L152
 2493              		.loc 1 969 0 is_stmt 0 discriminator 1
 2494 04ec FFF7FEFF 		bl	port_halt
 2495              	.L152:
 2496              		.loc 1 970 0 is_stmt 1
 2497 04f0 079B     		ldr	r3, [sp, #28]
 2498 04f2 DA68     		ldr	r2, [r3, #12]
 2499 04f4 069B     		ldr	r3, [sp, #24]
 2500 04f6 DA60     		str	r2, [r3, #12]
 2501 04f8 10E0     		b	.L153
 2502              	.L151:
 2503              		.loc 1 973 0
 2504 04fa 40F20003 		movw	r3, #:lower16:tcp_tw_pcbs
 2505 04fe C0F20003 		movt	r3, #:upper16:tcp_tw_pcbs
 2506 0502 1A68     		ldr	r2, [r3, #0]
 2507 0504 079B     		ldr	r3, [sp, #28]
 2508 0506 9A42     		cmp	r2, r3
 2509 0508 01D0     		beq	.L154
 2510              		.loc 1 973 0 is_stmt 0 discriminator 1
 2511 050a FFF7FEFF 		bl	port_halt
 2512              	.L154:
 2513              		.loc 1 974 0 is_stmt 1
 2514 050e 079B     		ldr	r3, [sp, #28]
 2515 0510 DA68     		ldr	r2, [r3, #12]
 2516 0512 40F20003 		movw	r3, #:lower16:tcp_tw_pcbs
 2517 0516 C0F20003 		movt	r3, #:upper16:tcp_tw_pcbs
 2518 051a 1A60     		str	r2, [r3, #0]
 2519              	.L153:
 2520              		.loc 1 976 0
 2521 051c 079B     		ldr	r3, [sp, #28]
 2522 051e 0293     		str	r3, [sp, #8]
 2523              		.loc 1 977 0
 2524 0520 079B     		ldr	r3, [sp, #28]
 2525 0522 DB68     		ldr	r3, [r3, #12]
 2526 0524 0793     		str	r3, [sp, #28]
ARM GAS  /tmp/ccgFJ4Zb.s 			page 46


 2527              		.loc 1 978 0
 2528 0526 4FF00200 		mov	r0, #2
 2529 052a 0299     		ldr	r1, [sp, #8]
 2530 052c FFF7FEFF 		bl	memp_free
 2531 0530 04E0     		b	.L147
 2532              	.L150:
 2533              	.LBE5:
 2534              		.loc 1 980 0
 2535 0532 079B     		ldr	r3, [sp, #28]
 2536 0534 0693     		str	r3, [sp, #24]
 2537              		.loc 1 981 0
 2538 0536 079B     		ldr	r3, [sp, #28]
 2539 0538 DB68     		ldr	r3, [r3, #12]
 2540 053a 0793     		str	r3, [sp, #28]
 2541              	.L147:
 2542              		.loc 1 952 0 discriminator 1
 2543 053c 079B     		ldr	r3, [sp, #28]
 2544 053e 002B     		cmp	r3, #0
 2545 0540 A8D1     		bne	.L155
 2546              		.loc 1 984 0
 2547 0542 09B0     		add	sp, sp, #36
 2548 0544 30BD     		pop	{r4, r5, pc}
 2549              		.cfi_endproc
 2550              	.LFE20:
 2551              		.size	tcp_slowtmr, .-tcp_slowtmr
 2552 0546 00BFAFF3 		.section	.text.tcp_fasttmr,"ax",%progbits
 2552      0080AFF3 
 2552      0080
 2553              		.align	2
 2554              		.p2align 4,,15
 2555              		.global	tcp_fasttmr
 2556              		.thumb
 2557              		.thumb_func
 2558              		.type	tcp_fasttmr, %function
 2559              	tcp_fasttmr:
 2560              	.LFB21:
 2561              		.loc 1 994 0
 2562              		.cfi_startproc
 2563              		@ args = 0, pretend = 0, frame = 16
 2564              		@ frame_needed = 0, uses_anonymous_args = 0
 2565 0000 10B5     		push	{r4, lr}
 2566              	.LCFI25:
 2567              		.cfi_def_cfa_offset 8
 2568              		.cfi_offset 14, -4
 2569              		.cfi_offset 4, -8
 2570 0002 84B0     		sub	sp, sp, #16
 2571              	.LCFI26:
 2572              		.cfi_def_cfa_offset 24
 2573              		.loc 1 995 0
 2574 0004 40F20003 		movw	r3, #:lower16:tcp_active_pcbs
 2575 0008 C0F20003 		movt	r3, #:upper16:tcp_active_pcbs
 2576 000c 1B68     		ldr	r3, [r3, #0]
 2577 000e 0393     		str	r3, [sp, #12]
 2578              		.loc 1 997 0
 2579 0010 60E0     		b	.L157
 2580              	.L163:
 2581              	.LBB6:
ARM GAS  /tmp/ccgFJ4Zb.s 			page 47


 2582              		.loc 1 998 0
 2583 0012 039B     		ldr	r3, [sp, #12]
 2584 0014 DB68     		ldr	r3, [r3, #12]
 2585 0016 0193     		str	r3, [sp, #4]
 2586              		.loc 1 1000 0
 2587 0018 039B     		ldr	r3, [sp, #12]
 2588 001a D3F88030 		ldr	r3, [r3, #128]
 2589 001e 002B     		cmp	r3, #0
 2590 0020 36D0     		beq	.L158
 2591              	.LBB7:
 2592              		.loc 1 1004 0
 2593 0022 039B     		ldr	r3, [sp, #12]
 2594 0024 D3F88830 		ldr	r3, [r3, #136]
 2595 0028 002B     		cmp	r3, #0
 2596 002a 11D0     		beq	.L159
 2597              		.loc 1 1004 0 is_stmt 0 discriminator 1
 2598 002c 039B     		ldr	r3, [sp, #12]
 2599 002e D3F88840 		ldr	r4, [r3, #136]
 2600 0032 039B     		ldr	r3, [sp, #12]
 2601 0034 5A69     		ldr	r2, [r3, #20]
 2602 0036 039B     		ldr	r3, [sp, #12]
 2603 0038 D3F88030 		ldr	r3, [r3, #128]
 2604 003c 1046     		mov	r0, r2
 2605 003e 0399     		ldr	r1, [sp, #12]
 2606 0040 1A46     		mov	r2, r3
 2607 0042 4FF00003 		mov	r3, #0
 2608 0046 A047     		blx	r4
 2609 0048 0346     		mov	r3, r0
 2610 004a 8DF80B30 		strb	r3, [sp, #11]
 2611 004e 0DE0     		b	.L160
 2612              	.L159:
 2613              		.loc 1 1004 0 discriminator 2
 2614 0050 039B     		ldr	r3, [sp, #12]
 2615 0052 D3F88030 		ldr	r3, [r3, #128]
 2616 0056 4FF00000 		mov	r0, #0
 2617 005a 0399     		ldr	r1, [sp, #12]
 2618 005c 1A46     		mov	r2, r3
 2619 005e 4FF00003 		mov	r3, #0
 2620 0062 FFF7FEFF 		bl	tcp_recv_null
 2621 0066 0346     		mov	r3, r0
 2622 0068 8DF80B30 		strb	r3, [sp, #11]
 2623              	.L160:
 2624              		.loc 1 1005 0 is_stmt 1
 2625 006c 9DF90B30 		ldrsb	r3, [sp, #11]
 2626 0070 002B     		cmp	r3, #0
 2627 0072 05D1     		bne	.L161
 2628              		.loc 1 1006 0
 2629 0074 039B     		ldr	r3, [sp, #12]
 2630 0076 4FF00002 		mov	r2, #0
 2631 007a C3F88020 		str	r2, [r3, #128]
 2632 007e 07E0     		b	.L158
 2633              	.L161:
 2634              		.loc 1 1007 0
 2635 0080 9DF90B30 		ldrsb	r3, [sp, #11]
 2636 0084 13F10A0F 		cmn	r3, #10
 2637 0088 02D1     		bne	.L158
 2638              		.loc 1 1009 0
ARM GAS  /tmp/ccgFJ4Zb.s 			page 48


 2639 008a 4FF00003 		mov	r3, #0
 2640 008e 0393     		str	r3, [sp, #12]
 2641              	.L158:
 2642              	.LBE7:
 2643              		.loc 1 1014 0
 2644 0090 039B     		ldr	r3, [sp, #12]
 2645 0092 002B     		cmp	r3, #0
 2646 0094 1CD0     		beq	.L162
 2647              		.loc 1 1014 0 is_stmt 0 discriminator 1
 2648 0096 039B     		ldr	r3, [sp, #12]
 2649 0098 93F82030 		ldrb	r3, [r3, #32]	@ zero_extendqisi2
 2650 009c 03F00103 		and	r3, r3, #1
 2651 00a0 DBB2     		uxtb	r3, r3
 2652 00a2 002B     		cmp	r3, #0
 2653 00a4 14D0     		beq	.L162
 2654              		.loc 1 1016 0 is_stmt 1
 2655 00a6 039B     		ldr	r3, [sp, #12]
 2656 00a8 93F82030 		ldrb	r3, [r3, #32]	@ zero_extendqisi2
 2657 00ac 43F00203 		orr	r3, r3, #2
 2658 00b0 DAB2     		uxtb	r2, r3
 2659 00b2 039B     		ldr	r3, [sp, #12]
 2660 00b4 83F82020 		strb	r2, [r3, #32]
 2661              		.loc 1 1017 0
 2662 00b8 0398     		ldr	r0, [sp, #12]
 2663 00ba FFF7FEFF 		bl	tcp_output
 2664              		.loc 1 1018 0
 2665 00be 039B     		ldr	r3, [sp, #12]
 2666 00c0 93F82030 		ldrb	r3, [r3, #32]	@ zero_extendqisi2
 2667 00c4 23F00303 		bic	r3, r3, #3
 2668 00c8 DAB2     		uxtb	r2, r3
 2669 00ca 039B     		ldr	r3, [sp, #12]
 2670 00cc 83F82020 		strb	r2, [r3, #32]
 2671              	.L162:
 2672              		.loc 1 1021 0
 2673 00d0 019B     		ldr	r3, [sp, #4]
 2674 00d2 0393     		str	r3, [sp, #12]
 2675              	.L157:
 2676              	.LBE6:
 2677              		.loc 1 997 0 discriminator 1
 2678 00d4 039B     		ldr	r3, [sp, #12]
 2679 00d6 002B     		cmp	r3, #0
 2680 00d8 9BD1     		bne	.L163
 2681              		.loc 1 1023 0
 2682 00da 04B0     		add	sp, sp, #16
 2683 00dc 10BD     		pop	{r4, pc}
 2684              		.cfi_endproc
 2685              	.LFE21:
 2686              		.size	tcp_fasttmr, .-tcp_fasttmr
 2687 00de 00BF     		.section	.text.tcp_segs_free,"ax",%progbits
 2688              		.align	2
 2689              		.p2align 4,,15
 2690              		.global	tcp_segs_free
 2691              		.thumb
 2692              		.thumb_func
 2693              		.type	tcp_segs_free, %function
 2694              	tcp_segs_free:
 2695              	.LFB22:
ARM GAS  /tmp/ccgFJ4Zb.s 			page 49


 2696              		.loc 1 1032 0
 2697              		.cfi_startproc
 2698              		@ args = 0, pretend = 0, frame = 16
 2699              		@ frame_needed = 0, uses_anonymous_args = 0
 2700 0000 00B5     		push	{lr}
 2701              	.LCFI27:
 2702              		.cfi_def_cfa_offset 4
 2703              		.cfi_offset 14, -4
 2704 0002 85B0     		sub	sp, sp, #20
 2705              	.LCFI28:
 2706              		.cfi_def_cfa_offset 24
 2707 0004 0190     		str	r0, [sp, #4]
 2708              		.loc 1 1033 0
 2709 0006 07E0     		b	.L165
 2710              	.L166:
 2711              	.LBB8:
 2712              		.loc 1 1034 0
 2713 0008 019B     		ldr	r3, [sp, #4]
 2714 000a 1B68     		ldr	r3, [r3, #0]
 2715 000c 0393     		str	r3, [sp, #12]
 2716              		.loc 1 1035 0
 2717 000e 0198     		ldr	r0, [sp, #4]
 2718 0010 FFF7FEFF 		bl	tcp_seg_free
 2719              		.loc 1 1036 0
 2720 0014 039B     		ldr	r3, [sp, #12]
 2721 0016 0193     		str	r3, [sp, #4]
 2722              	.L165:
 2723              	.LBE8:
 2724              		.loc 1 1033 0 discriminator 1
 2725 0018 019B     		ldr	r3, [sp, #4]
 2726 001a 002B     		cmp	r3, #0
 2727 001c F4D1     		bne	.L166
 2728              		.loc 1 1038 0
 2729 001e 05B0     		add	sp, sp, #20
 2730 0020 00BD     		pop	{pc}
 2731              		.cfi_endproc
 2732              	.LFE22:
 2733              		.size	tcp_segs_free, .-tcp_segs_free
 2734 0022 00BFAFF3 		.section	.text.tcp_seg_free,"ax",%progbits
 2734      0080AFF3 
 2734      0080AFF3 
 2734      0080
 2735              		.align	2
 2736              		.p2align 4,,15
 2737              		.global	tcp_seg_free
 2738              		.thumb
 2739              		.thumb_func
 2740              		.type	tcp_seg_free, %function
 2741              	tcp_seg_free:
 2742              	.LFB23:
 2743              		.loc 1 1047 0
 2744              		.cfi_startproc
 2745              		@ args = 0, pretend = 0, frame = 8
 2746              		@ frame_needed = 0, uses_anonymous_args = 0
 2747 0000 00B5     		push	{lr}
 2748              	.LCFI29:
 2749              		.cfi_def_cfa_offset 4
ARM GAS  /tmp/ccgFJ4Zb.s 			page 50


 2750              		.cfi_offset 14, -4
 2751 0002 83B0     		sub	sp, sp, #12
 2752              	.LCFI30:
 2753              		.cfi_def_cfa_offset 16
 2754 0004 0190     		str	r0, [sp, #4]
 2755              		.loc 1 1048 0
 2756 0006 019B     		ldr	r3, [sp, #4]
 2757 0008 002B     		cmp	r3, #0
 2758 000a 0DD0     		beq	.L167
 2759              		.loc 1 1049 0
 2760 000c 019B     		ldr	r3, [sp, #4]
 2761 000e 5B68     		ldr	r3, [r3, #4]
 2762 0010 002B     		cmp	r3, #0
 2763 0012 04D0     		beq	.L169
 2764              		.loc 1 1050 0
 2765 0014 019B     		ldr	r3, [sp, #4]
 2766 0016 5B68     		ldr	r3, [r3, #4]
 2767 0018 1846     		mov	r0, r3
 2768 001a FFF7FEFF 		bl	pbuf_free
 2769              	.L169:
 2770              		.loc 1 1055 0
 2771 001e 4FF00400 		mov	r0, #4
 2772 0022 0199     		ldr	r1, [sp, #4]
 2773 0024 FFF7FEFF 		bl	memp_free
 2774              	.L167:
 2775              		.loc 1 1057 0
 2776 0028 03B0     		add	sp, sp, #12
 2777 002a 00BD     		pop	{pc}
 2778              		.cfi_endproc
 2779              	.LFE23:
 2780              		.size	tcp_seg_free, .-tcp_seg_free
 2781 002c AFF30080 		.section	.text.tcp_setprio,"ax",%progbits
 2782              		.align	2
 2783              		.p2align 4,,15
 2784              		.global	tcp_setprio
 2785              		.thumb
 2786              		.thumb_func
 2787              		.type	tcp_setprio, %function
 2788              	tcp_setprio:
 2789              	.LFB24:
 2790              		.loc 1 1067 0
 2791              		.cfi_startproc
 2792              		@ args = 0, pretend = 0, frame = 8
 2793              		@ frame_needed = 0, uses_anonymous_args = 0
 2794              		@ link register save eliminated.
 2795 0000 82B0     		sub	sp, sp, #8
 2796              	.LCFI31:
 2797              		.cfi_def_cfa_offset 8
 2798 0002 0190     		str	r0, [sp, #4]
 2799 0004 0B46     		mov	r3, r1
 2800 0006 8DF80330 		strb	r3, [sp, #3]
 2801              		.loc 1 1068 0
 2802 000a 019B     		ldr	r3, [sp, #4]
 2803 000c 9DF80320 		ldrb	r2, [sp, #3]
 2804 0010 5A74     		strb	r2, [r3, #17]
 2805              		.loc 1 1069 0
 2806 0012 02B0     		add	sp, sp, #8
ARM GAS  /tmp/ccgFJ4Zb.s 			page 51


 2807 0014 7047     		bx	lr
 2808              		.cfi_endproc
 2809              	.LFE24:
 2810              		.size	tcp_setprio, .-tcp_setprio
 2811 0016 00BFAFF3 		.section	.text.tcp_seg_copy,"ax",%progbits
 2811      0080AFF3 
 2811      0080
 2812              		.align	2
 2813              		.p2align 4,,15
 2814              		.global	tcp_seg_copy
 2815              		.thumb
 2816              		.thumb_func
 2817              		.type	tcp_seg_copy, %function
 2818              	tcp_seg_copy:
 2819              	.LFB25:
 2820              		.loc 1 1081 0
 2821              		.cfi_startproc
 2822              		@ args = 0, pretend = 0, frame = 16
 2823              		@ frame_needed = 0, uses_anonymous_args = 0
 2824 0000 00B5     		push	{lr}
 2825              	.LCFI32:
 2826              		.cfi_def_cfa_offset 4
 2827              		.cfi_offset 14, -4
 2828 0002 85B0     		sub	sp, sp, #20
 2829              	.LCFI33:
 2830              		.cfi_def_cfa_offset 24
 2831 0004 0190     		str	r0, [sp, #4]
 2832              		.loc 1 1084 0
 2833 0006 4FF00400 		mov	r0, #4
 2834 000a FFF7FEFF 		bl	memp_malloc
 2835 000e 0346     		mov	r3, r0
 2836 0010 0393     		str	r3, [sp, #12]
 2837              		.loc 1 1085 0
 2838 0012 039B     		ldr	r3, [sp, #12]
 2839 0014 002B     		cmp	r3, #0
 2840 0016 02D1     		bne	.L172
 2841              		.loc 1 1086 0
 2842 0018 4FF00003 		mov	r3, #0
 2843 001c 10E0     		b	.L173
 2844              	.L172:
 2845              		.loc 1 1088 0
 2846 001e 039A     		ldr	r2, [sp, #12]
 2847 0020 019B     		ldr	r3, [sp, #4]
 2848 0022 1146     		mov	r1, r2
 2849 0024 1A46     		mov	r2, r3
 2850 0026 4FF01003 		mov	r3, #16
 2851 002a 0846     		mov	r0, r1
 2852 002c 1146     		mov	r1, r2
 2853 002e 1A46     		mov	r2, r3
 2854 0030 FFF7FEFF 		bl	memcpy
 2855              		.loc 1 1089 0
 2856 0034 039B     		ldr	r3, [sp, #12]
 2857 0036 5B68     		ldr	r3, [r3, #4]
 2858 0038 1846     		mov	r0, r3
 2859 003a FFF7FEFF 		bl	pbuf_ref
 2860              		.loc 1 1090 0
 2861 003e 039B     		ldr	r3, [sp, #12]
ARM GAS  /tmp/ccgFJ4Zb.s 			page 52


 2862              	.L173:
 2863              		.loc 1 1091 0
 2864 0040 1846     		mov	r0, r3
 2865 0042 05B0     		add	sp, sp, #20
 2866 0044 00BD     		pop	{pc}
 2867              		.cfi_endproc
 2868              	.LFE25:
 2869              		.size	tcp_seg_copy, .-tcp_seg_copy
 2870 0046 00BFAFF3 		.section	.text.tcp_recv_null,"ax",%progbits
 2870      0080AFF3 
 2870      0080
 2871              		.align	2
 2872              		.p2align 4,,15
 2873              		.global	tcp_recv_null
 2874              		.thumb
 2875              		.thumb_func
 2876              		.type	tcp_recv_null, %function
 2877              	tcp_recv_null:
 2878              	.LFB26:
 2879              		.loc 1 1101 0
 2880              		.cfi_startproc
 2881              		@ args = 0, pretend = 0, frame = 16
 2882              		@ frame_needed = 0, uses_anonymous_args = 0
 2883 0000 00B5     		push	{lr}
 2884              	.LCFI34:
 2885              		.cfi_def_cfa_offset 4
 2886              		.cfi_offset 14, -4
 2887 0002 85B0     		sub	sp, sp, #20
 2888              	.LCFI35:
 2889              		.cfi_def_cfa_offset 24
 2890 0004 0390     		str	r0, [sp, #12]
 2891 0006 0291     		str	r1, [sp, #8]
 2892 0008 0192     		str	r2, [sp, #4]
 2893 000a 8DF80330 		strb	r3, [sp, #3]
 2894              		.loc 1 1103 0
 2895 000e 019B     		ldr	r3, [sp, #4]
 2896 0010 002B     		cmp	r3, #0
 2897 0012 09D0     		beq	.L175
 2898              		.loc 1 1104 0
 2899 0014 019B     		ldr	r3, [sp, #4]
 2900 0016 1B89     		ldrh	r3, [r3, #8]
 2901 0018 0298     		ldr	r0, [sp, #8]
 2902 001a 1946     		mov	r1, r3
 2903 001c FFF7FEFF 		bl	tcp_recved
 2904              		.loc 1 1105 0
 2905 0020 0198     		ldr	r0, [sp, #4]
 2906 0022 FFF7FEFF 		bl	pbuf_free
 2907 0026 08E0     		b	.L176
 2908              	.L175:
 2909              		.loc 1 1106 0
 2910 0028 9DF90330 		ldrsb	r3, [sp, #3]
 2911 002c 002B     		cmp	r3, #0
 2912 002e 04D1     		bne	.L176
 2913              		.loc 1 1107 0
 2914 0030 0298     		ldr	r0, [sp, #8]
 2915 0032 FFF7FEFF 		bl	tcp_close
 2916 0036 0346     		mov	r3, r0
ARM GAS  /tmp/ccgFJ4Zb.s 			page 53


 2917 0038 01E0     		b	.L177
 2918              	.L176:
 2919              		.loc 1 1109 0
 2920 003a 4FF00003 		mov	r3, #0
 2921              	.L177:
 2922 003e 5BB2     		sxtb	r3, r3
 2923              		.loc 1 1110 0
 2924 0040 1846     		mov	r0, r3
 2925 0042 05B0     		add	sp, sp, #20
 2926 0044 00BD     		pop	{pc}
 2927              		.cfi_endproc
 2928              	.LFE26:
 2929              		.size	tcp_recv_null, .-tcp_recv_null
 2930 0046 00BFAFF3 		.section	.text.tcp_kill_prio,"ax",%progbits
 2930      0080AFF3 
 2930      0080
 2931              		.align	2
 2932              		.p2align 4,,15
 2933              		.thumb
 2934              		.thumb_func
 2935              		.type	tcp_kill_prio, %function
 2936              	tcp_kill_prio:
 2937              	.LFB27:
 2938              		.loc 1 1120 0
 2939              		.cfi_startproc
 2940              		@ args = 0, pretend = 0, frame = 24
 2941              		@ frame_needed = 0, uses_anonymous_args = 0
 2942 0000 00B5     		push	{lr}
 2943              	.LCFI36:
 2944              		.cfi_def_cfa_offset 4
 2945              		.cfi_offset 14, -4
 2946 0002 87B0     		sub	sp, sp, #28
 2947              	.LCFI37:
 2948              		.cfi_def_cfa_offset 32
 2949 0004 0346     		mov	r3, r0
 2950 0006 8DF80730 		strb	r3, [sp, #7]
 2951              		.loc 1 1126 0
 2952 000a 4FF07F03 		mov	r3, #127
 2953 000e 8DF80B30 		strb	r3, [sp, #11]
 2954              		.loc 1 1129 0
 2955 0012 4FF00003 		mov	r3, #0
 2956 0016 0393     		str	r3, [sp, #12]
 2957              		.loc 1 1130 0
 2958 0018 4FF00003 		mov	r3, #0
 2959 001c 0493     		str	r3, [sp, #16]
 2960              		.loc 1 1131 0
 2961 001e 40F20003 		movw	r3, #:lower16:tcp_active_pcbs
 2962 0022 C0F20003 		movt	r3, #:upper16:tcp_active_pcbs
 2963 0026 1B68     		ldr	r3, [r3, #0]
 2964 0028 0593     		str	r3, [sp, #20]
 2965 002a 28E0     		b	.L179
 2966              	.L181:
 2967              		.loc 1 1132 0
 2968 002c 059B     		ldr	r3, [sp, #20]
 2969 002e 5B7C     		ldrb	r3, [r3, #17]	@ zero_extendqisi2
 2970 0030 9DF80720 		ldrb	r2, [sp, #7]	@ zero_extendqisi2
 2971 0034 9A42     		cmp	r2, r3
ARM GAS  /tmp/ccgFJ4Zb.s 			page 54


 2972 0036 1FD3     		bcc	.L180
 2973              		.loc 1 1133 0 discriminator 1
 2974 0038 059B     		ldr	r3, [sp, #20]
 2975 003a 5B7C     		ldrb	r3, [r3, #17]	@ zero_extendqisi2
 2976              		.loc 1 1132 0 discriminator 1
 2977 003c 9DF80B20 		ldrb	r2, [sp, #11]	@ zero_extendqisi2
 2978 0040 9A42     		cmp	r2, r3
 2979 0042 19D3     		bcc	.L180
 2980              		.loc 1 1134 0
 2981 0044 40F20003 		movw	r3, #:lower16:tcp_ticks
 2982 0048 C0F20003 		movt	r3, #:upper16:tcp_ticks
 2983 004c 1A68     		ldr	r2, [r3, #0]
 2984 004e 059B     		ldr	r3, [sp, #20]
 2985 0050 1B6B     		ldr	r3, [r3, #48]
 2986 0052 D21A     		subs	r2, r2, r3
 2987              		.loc 1 1133 0
 2988 0054 039B     		ldr	r3, [sp, #12]
 2989 0056 9A42     		cmp	r2, r3
 2990 0058 0ED3     		bcc	.L180
 2991              		.loc 1 1135 0
 2992 005a 40F20003 		movw	r3, #:lower16:tcp_ticks
 2993 005e C0F20003 		movt	r3, #:upper16:tcp_ticks
 2994 0062 1A68     		ldr	r2, [r3, #0]
 2995 0064 059B     		ldr	r3, [sp, #20]
 2996 0066 1B6B     		ldr	r3, [r3, #48]
 2997 0068 D31A     		subs	r3, r2, r3
 2998 006a 0393     		str	r3, [sp, #12]
 2999              		.loc 1 1136 0
 3000 006c 059B     		ldr	r3, [sp, #20]
 3001 006e 0493     		str	r3, [sp, #16]
 3002              		.loc 1 1137 0
 3003 0070 059B     		ldr	r3, [sp, #20]
 3004 0072 5B7C     		ldrb	r3, [r3, #17]
 3005 0074 8DF80B30 		strb	r3, [sp, #11]
 3006              	.L180:
 3007              		.loc 1 1131 0
 3008 0078 059B     		ldr	r3, [sp, #20]
 3009 007a DB68     		ldr	r3, [r3, #12]
 3010 007c 0593     		str	r3, [sp, #20]
 3011              	.L179:
 3012              		.loc 1 1131 0 is_stmt 0 discriminator 1
 3013 007e 059B     		ldr	r3, [sp, #20]
 3014 0080 002B     		cmp	r3, #0
 3015 0082 D3D1     		bne	.L181
 3016              		.loc 1 1140 0 is_stmt 1
 3017 0084 049B     		ldr	r3, [sp, #16]
 3018 0086 002B     		cmp	r3, #0
 3019 0088 02D0     		beq	.L178
 3020              		.loc 1 1143 0
 3021 008a 0498     		ldr	r0, [sp, #16]
 3022 008c FFF7FEFF 		bl	tcp_abort
 3023              	.L178:
 3024              		.loc 1 1145 0
 3025 0090 07B0     		add	sp, sp, #28
 3026 0092 00BD     		pop	{pc}
 3027              		.cfi_endproc
 3028              	.LFE27:
ARM GAS  /tmp/ccgFJ4Zb.s 			page 55


 3029              		.size	tcp_kill_prio, .-tcp_kill_prio
 3030 0094 AFF30080 		.section	.text.tcp_kill_timewait,"ax",%progbits
 3030      AFF30080 
 3030      AFF30080 
 3031              		.align	2
 3032              		.p2align 4,,15
 3033              		.thumb
 3034              		.thumb_func
 3035              		.type	tcp_kill_timewait, %function
 3036              	tcp_kill_timewait:
 3037              	.LFB28:
 3038              		.loc 1 1153 0
 3039              		.cfi_startproc
 3040              		@ args = 0, pretend = 0, frame = 16
 3041              		@ frame_needed = 0, uses_anonymous_args = 0
 3042 0000 00B5     		push	{lr}
 3043              	.LCFI38:
 3044              		.cfi_def_cfa_offset 4
 3045              		.cfi_offset 14, -4
 3046 0002 85B0     		sub	sp, sp, #20
 3047              	.LCFI39:
 3048              		.cfi_def_cfa_offset 24
 3049              		.loc 1 1157 0
 3050 0004 4FF00003 		mov	r3, #0
 3051 0008 0193     		str	r3, [sp, #4]
 3052              		.loc 1 1158 0
 3053 000a 4FF00003 		mov	r3, #0
 3054 000e 0293     		str	r3, [sp, #8]
 3055              		.loc 1 1160 0
 3056 0010 40F20003 		movw	r3, #:lower16:tcp_tw_pcbs
 3057 0014 C0F20003 		movt	r3, #:upper16:tcp_tw_pcbs
 3058 0018 1B68     		ldr	r3, [r3, #0]
 3059 001a 0393     		str	r3, [sp, #12]
 3060 001c 18E0     		b	.L184
 3061              	.L186:
 3062              		.loc 1 1161 0
 3063 001e 40F20003 		movw	r3, #:lower16:tcp_ticks
 3064 0022 C0F20003 		movt	r3, #:upper16:tcp_ticks
 3065 0026 1A68     		ldr	r2, [r3, #0]
 3066 0028 039B     		ldr	r3, [sp, #12]
 3067 002a 1B6B     		ldr	r3, [r3, #48]
 3068 002c D21A     		subs	r2, r2, r3
 3069 002e 019B     		ldr	r3, [sp, #4]
 3070 0030 9A42     		cmp	r2, r3
 3071 0032 0AD3     		bcc	.L185
 3072              		.loc 1 1162 0
 3073 0034 40F20003 		movw	r3, #:lower16:tcp_ticks
 3074 0038 C0F20003 		movt	r3, #:upper16:tcp_ticks
 3075 003c 1A68     		ldr	r2, [r3, #0]
 3076 003e 039B     		ldr	r3, [sp, #12]
 3077 0040 1B6B     		ldr	r3, [r3, #48]
 3078 0042 D31A     		subs	r3, r2, r3
 3079 0044 0193     		str	r3, [sp, #4]
 3080              		.loc 1 1163 0
 3081 0046 039B     		ldr	r3, [sp, #12]
 3082 0048 0293     		str	r3, [sp, #8]
 3083              	.L185:
ARM GAS  /tmp/ccgFJ4Zb.s 			page 56


 3084              		.loc 1 1160 0
 3085 004a 039B     		ldr	r3, [sp, #12]
 3086 004c DB68     		ldr	r3, [r3, #12]
 3087 004e 0393     		str	r3, [sp, #12]
 3088              	.L184:
 3089              		.loc 1 1160 0 is_stmt 0 discriminator 1
 3090 0050 039B     		ldr	r3, [sp, #12]
 3091 0052 002B     		cmp	r3, #0
 3092 0054 E3D1     		bne	.L186
 3093              		.loc 1 1166 0 is_stmt 1
 3094 0056 029B     		ldr	r3, [sp, #8]
 3095 0058 002B     		cmp	r3, #0
 3096 005a 02D0     		beq	.L183
 3097              		.loc 1 1169 0
 3098 005c 0298     		ldr	r0, [sp, #8]
 3099 005e FFF7FEFF 		bl	tcp_abort
 3100              	.L183:
 3101              		.loc 1 1171 0
 3102 0062 05B0     		add	sp, sp, #20
 3103 0064 00BD     		pop	{pc}
 3104              		.cfi_endproc
 3105              	.LFE28:
 3106              		.size	tcp_kill_timewait, .-tcp_kill_timewait
 3107 0066 00BFAFF3 		.section	.text.tcp_alloc,"ax",%progbits
 3107      0080AFF3 
 3107      0080
 3108              		.align	2
 3109              		.p2align 4,,15
 3110              		.global	tcp_alloc
 3111              		.thumb
 3112              		.thumb_func
 3113              		.type	tcp_alloc, %function
 3114              	tcp_alloc:
 3115              	.LFB29:
 3116              		.loc 1 1181 0
 3117              		.cfi_startproc
 3118              		@ args = 0, pretend = 0, frame = 16
 3119              		@ frame_needed = 0, uses_anonymous_args = 0
 3120 0000 00B5     		push	{lr}
 3121              	.LCFI40:
 3122              		.cfi_def_cfa_offset 4
 3123              		.cfi_offset 14, -4
 3124 0002 85B0     		sub	sp, sp, #20
 3125              	.LCFI41:
 3126              		.cfi_def_cfa_offset 24
 3127 0004 0346     		mov	r3, r0
 3128 0006 8DF80730 		strb	r3, [sp, #7]
 3129              		.loc 1 1185 0
 3130 000a 4FF00200 		mov	r0, #2
 3131 000e FFF7FEFF 		bl	memp_malloc
 3132 0012 0346     		mov	r3, r0
 3133 0014 0393     		str	r3, [sp, #12]
 3134              		.loc 1 1186 0
 3135 0016 039B     		ldr	r3, [sp, #12]
 3136 0018 002B     		cmp	r3, #0
 3137 001a 39D1     		bne	.L189
 3138              		.loc 1 1189 0
ARM GAS  /tmp/ccgFJ4Zb.s 			page 57


 3139 001c FFF7FEFF 		bl	tcp_kill_timewait
 3140              		.loc 1 1191 0
 3141 0020 4FF00200 		mov	r0, #2
 3142 0024 FFF7FEFF 		bl	memp_malloc
 3143 0028 0346     		mov	r3, r0
 3144 002a 0393     		str	r3, [sp, #12]
 3145              		.loc 1 1192 0
 3146 002c 039B     		ldr	r3, [sp, #12]
 3147 002e 002B     		cmp	r3, #0
 3148 0030 1CD1     		bne	.L190
 3149              		.loc 1 1195 0
 3150 0032 9DF80730 		ldrb	r3, [sp, #7]	@ zero_extendqisi2
 3151 0036 1846     		mov	r0, r3
 3152 0038 FFF7FEFF 		bl	tcp_kill_prio
 3153              		.loc 1 1197 0
 3154 003c 4FF00200 		mov	r0, #2
 3155 0040 FFF7FEFF 		bl	memp_malloc
 3156 0044 0346     		mov	r3, r0
 3157 0046 0393     		str	r3, [sp, #12]
 3158              		.loc 1 1198 0
 3159 0048 039B     		ldr	r3, [sp, #12]
 3160 004a 002B     		cmp	r3, #0
 3161 004c 0ED0     		beq	.L190
 3162              		.loc 1 1200 0
 3163 004e 40F20003 		movw	r3, #:lower16:lwip_stats
 3164 0052 C0F20003 		movt	r3, #:upper16:lwip_stats
 3165 0056 B3F8CC30 		ldrh	r3, [r3, #204]
 3166 005a 03F1FF33 		add	r3, r3, #-1
 3167 005e 9AB2     		uxth	r2, r3
 3168 0060 40F20003 		movw	r3, #:lower16:lwip_stats
 3169 0064 C0F20003 		movt	r3, #:upper16:lwip_stats
 3170 0068 A3F8CC20 		strh	r2, [r3, #204]	@ movhi
 3171              	.L190:
 3172              		.loc 1 1203 0
 3173 006c 039B     		ldr	r3, [sp, #12]
 3174 006e 002B     		cmp	r3, #0
 3175 0070 0ED0     		beq	.L189
 3176              		.loc 1 1205 0
 3177 0072 40F20003 		movw	r3, #:lower16:lwip_stats
 3178 0076 C0F20003 		movt	r3, #:upper16:lwip_stats
 3179 007a B3F8CC30 		ldrh	r3, [r3, #204]
 3180 007e 03F1FF33 		add	r3, r3, #-1
 3181 0082 9AB2     		uxth	r2, r3
 3182 0084 40F20003 		movw	r3, #:lower16:lwip_stats
 3183 0088 C0F20003 		movt	r3, #:upper16:lwip_stats
 3184 008c A3F8CC20 		strh	r2, [r3, #204]	@ movhi
 3185              	.L189:
 3186              		.loc 1 1208 0
 3187 0090 039B     		ldr	r3, [sp, #12]
 3188 0092 002B     		cmp	r3, #0
 3189 0094 72D0     		beq	.L191
 3190              		.loc 1 1209 0
 3191 0096 039B     		ldr	r3, [sp, #12]
 3192 0098 1A46     		mov	r2, r3
 3193 009a 4FF0A403 		mov	r3, #164
 3194 009e 1046     		mov	r0, r2
 3195 00a0 4FF00001 		mov	r1, #0
ARM GAS  /tmp/ccgFJ4Zb.s 			page 58


 3196 00a4 1A46     		mov	r2, r3
 3197 00a6 FFF7FEFF 		bl	memset
 3198              		.loc 1 1210 0
 3199 00aa 039B     		ldr	r3, [sp, #12]
 3200 00ac 9DF80720 		ldrb	r2, [sp, #7]
 3201 00b0 5A74     		strb	r2, [r3, #17]
 3202              		.loc 1 1211 0
 3203 00b2 039B     		ldr	r3, [sp, #12]
 3204 00b4 4FF48072 		mov	r2, #256
 3205 00b8 A3F86E20 		strh	r2, [r3, #110]	@ movhi
 3206              		.loc 1 1212 0
 3207 00bc 039B     		ldr	r3, [sp, #12]
 3208 00be 4FF00002 		mov	r2, #0
 3209 00c2 A3F87020 		strh	r2, [r3, #112]	@ movhi
 3210              		.loc 1 1213 0
 3211 00c6 039B     		ldr	r3, [sp, #12]
 3212 00c8 4FF40662 		mov	r2, #2144
 3213 00cc 1A85     		strh	r2, [r3, #40]	@ movhi
 3214              		.loc 1 1214 0
 3215 00ce 039B     		ldr	r3, [sp, #12]
 3216 00d0 4FF40662 		mov	r2, #2144
 3217 00d4 5A85     		strh	r2, [r3, #42]	@ movhi
 3218              		.loc 1 1215 0
 3219 00d6 039B     		ldr	r3, [sp, #12]
 3220 00d8 4FF00002 		mov	r2, #0
 3221 00dc 5A72     		strb	r2, [r3, #9]
 3222              		.loc 1 1216 0
 3223 00de 039B     		ldr	r3, [sp, #12]
 3224 00e0 4FF0FF02 		mov	r2, #255
 3225 00e4 9A72     		strb	r2, [r3, #10]
 3226              		.loc 1 1219 0
 3227 00e6 039B     		ldr	r3, [sp, #12]
 3228 00e8 4FF40672 		mov	r2, #536
 3229 00ec 1A87     		strh	r2, [r3, #56]	@ movhi
 3230              		.loc 1 1220 0
 3231 00ee 039B     		ldr	r3, [sp, #12]
 3232 00f0 4FF00602 		mov	r2, #6
 3233 00f4 A3F84820 		strh	r2, [r3, #72]	@ movhi
 3234              		.loc 1 1221 0
 3235 00f8 039B     		ldr	r3, [sp, #12]
 3236 00fa 4FF00002 		mov	r2, #0
 3237 00fe A3F84420 		strh	r2, [r3, #68]	@ movhi
 3238              		.loc 1 1222 0
 3239 0102 039B     		ldr	r3, [sp, #12]
 3240 0104 4FF00602 		mov	r2, #6
 3241 0108 A3F84620 		strh	r2, [r3, #70]	@ movhi
 3242              		.loc 1 1223 0
 3243 010c 039B     		ldr	r3, [sp, #12]
 3244 010e 4FF6FF72 		movw	r2, #65535
 3245 0112 DA86     		strh	r2, [r3, #54]	@ movhi
 3246              		.loc 1 1224 0
 3247 0114 039B     		ldr	r3, [sp, #12]
 3248 0116 4FF00102 		mov	r2, #1
 3249 011a A3F85220 		strh	r2, [r3, #82]	@ movhi
 3250              		.loc 1 1225 0
 3251 011e FFF7FEFF 		bl	tcp_next_iss
 3252 0122 0346     		mov	r3, r0
ARM GAS  /tmp/ccgFJ4Zb.s 			page 59


 3253 0124 0293     		str	r3, [sp, #8]
 3254              		.loc 1 1226 0
 3255 0126 039B     		ldr	r3, [sp, #12]
 3256 0128 029A     		ldr	r2, [sp, #8]
 3257 012a 5A66     		str	r2, [r3, #100]
 3258              		.loc 1 1227 0
 3259 012c 039B     		ldr	r3, [sp, #12]
 3260 012e 029A     		ldr	r2, [sp, #8]
 3261 0130 9A65     		str	r2, [r3, #88]
 3262              		.loc 1 1228 0
 3263 0132 039B     		ldr	r3, [sp, #12]
 3264 0134 029A     		ldr	r2, [sp, #8]
 3265 0136 DA64     		str	r2, [r3, #76]
 3266              		.loc 1 1229 0
 3267 0138 039B     		ldr	r3, [sp, #12]
 3268 013a 029A     		ldr	r2, [sp, #8]
 3269 013c 9A66     		str	r2, [r3, #104]
 3270              		.loc 1 1230 0
 3271 013e 40F20003 		movw	r3, #:lower16:tcp_ticks
 3272 0142 C0F20003 		movt	r3, #:upper16:tcp_ticks
 3273 0146 1A68     		ldr	r2, [r3, #0]
 3274 0148 039B     		ldr	r3, [sp, #12]
 3275 014a 1A63     		str	r2, [r3, #48]
 3276              		.loc 1 1232 0
 3277 014c 039B     		ldr	r3, [sp, #12]
 3278 014e 4FF00002 		mov	r2, #0
 3279 0152 83F83420 		strb	r2, [r3, #52]
 3280              		.loc 1 1235 0
 3281 0156 039A     		ldr	r2, [sp, #12]
 3282 0158 40F20003 		movw	r3, #:lower16:tcp_recv_null
 3283 015c C0F20003 		movt	r3, #:upper16:tcp_recv_null
 3284 0160 C2F88830 		str	r3, [r2, #136]
 3285              		.loc 1 1239 0
 3286 0164 039A     		ldr	r2, [sp, #12]
 3287 0166 4FF45D43 		mov	r3, #56576
 3288 016a C0F26D03 		movt	r3, 109
 3289 016e C2F89830 		str	r3, [r2, #152]
 3290              		.loc 1 1246 0
 3291 0172 039B     		ldr	r3, [sp, #12]
 3292 0174 4FF00002 		mov	r2, #0
 3293 0178 83F8A120 		strb	r2, [r3, #161]
 3294              	.L191:
 3295              		.loc 1 1248 0
 3296 017c 039B     		ldr	r3, [sp, #12]
 3297              		.loc 1 1249 0
 3298 017e 1846     		mov	r0, r3
 3299 0180 05B0     		add	sp, sp, #20
 3300 0182 00BD     		pop	{pc}
 3301              		.cfi_endproc
 3302              	.LFE29:
 3303              		.size	tcp_alloc, .-tcp_alloc
 3304 0184 AFF30080 		.section	.text.tcp_new,"ax",%progbits
 3304      AFF30080 
 3304      AFF30080 
 3305              		.align	2
 3306              		.p2align 4,,15
 3307              		.global	tcp_new
ARM GAS  /tmp/ccgFJ4Zb.s 			page 60


 3308              		.thumb
 3309              		.thumb_func
 3310              		.type	tcp_new, %function
 3311              	tcp_new:
 3312              	.LFB30:
 3313              		.loc 1 1265 0
 3314              		.cfi_startproc
 3315              		@ args = 0, pretend = 0, frame = 0
 3316              		@ frame_needed = 0, uses_anonymous_args = 0
 3317 0000 08B5     		push	{r3, lr}
 3318              	.LCFI42:
 3319              		.cfi_def_cfa_offset 8
 3320              		.cfi_offset 14, -4
 3321              		.cfi_offset 3, -8
 3322              		.loc 1 1266 0
 3323 0002 4FF04000 		mov	r0, #64
 3324 0006 FFF7FEFF 		bl	tcp_alloc
 3325 000a 0346     		mov	r3, r0
 3326              		.loc 1 1267 0
 3327 000c 1846     		mov	r0, r3
 3328 000e 08BD     		pop	{r3, pc}
 3329              		.cfi_endproc
 3330              	.LFE30:
 3331              		.size	tcp_new, .-tcp_new
 3332              		.section	.text.tcp_arg,"ax",%progbits
 3333              		.align	2
 3334              		.p2align 4,,15
 3335              		.global	tcp_arg
 3336              		.thumb
 3337              		.thumb_func
 3338              		.type	tcp_arg, %function
 3339              	tcp_arg:
 3340              	.LFB31:
 3341              		.loc 1 1278 0
 3342              		.cfi_startproc
 3343              		@ args = 0, pretend = 0, frame = 8
 3344              		@ frame_needed = 0, uses_anonymous_args = 0
 3345              		@ link register save eliminated.
 3346 0000 82B0     		sub	sp, sp, #8
 3347              	.LCFI43:
 3348              		.cfi_def_cfa_offset 8
 3349 0002 0190     		str	r0, [sp, #4]
 3350 0004 0091     		str	r1, [sp, #0]
 3351              		.loc 1 1279 0
 3352 0006 019B     		ldr	r3, [sp, #4]
 3353 0008 009A     		ldr	r2, [sp, #0]
 3354 000a 5A61     		str	r2, [r3, #20]
 3355              		.loc 1 1280 0
 3356 000c 02B0     		add	sp, sp, #8
 3357 000e 7047     		bx	lr
 3358              		.cfi_endproc
 3359              	.LFE31:
 3360              		.size	tcp_arg, .-tcp_arg
 3361              		.section	.text.tcp_recv,"ax",%progbits
 3362              		.align	2
 3363              		.p2align 4,,15
 3364              		.global	tcp_recv
ARM GAS  /tmp/ccgFJ4Zb.s 			page 61


 3365              		.thumb
 3366              		.thumb_func
 3367              		.type	tcp_recv, %function
 3368              	tcp_recv:
 3369              	.LFB32:
 3370              		.loc 1 1292 0
 3371              		.cfi_startproc
 3372              		@ args = 0, pretend = 0, frame = 8
 3373              		@ frame_needed = 0, uses_anonymous_args = 0
 3374              		@ link register save eliminated.
 3375 0000 82B0     		sub	sp, sp, #8
 3376              	.LCFI44:
 3377              		.cfi_def_cfa_offset 8
 3378 0002 0190     		str	r0, [sp, #4]
 3379 0004 0091     		str	r1, [sp, #0]
 3380              		.loc 1 1293 0
 3381 0006 019B     		ldr	r3, [sp, #4]
 3382 0008 009A     		ldr	r2, [sp, #0]
 3383 000a C3F88820 		str	r2, [r3, #136]
 3384              		.loc 1 1294 0
 3385 000e 02B0     		add	sp, sp, #8
 3386 0010 7047     		bx	lr
 3387              		.cfi_endproc
 3388              	.LFE32:
 3389              		.size	tcp_recv, .-tcp_recv
 3390 0012 00BFAFF3 		.section	.text.tcp_sent,"ax",%progbits
 3390      0080AFF3 
 3390      0080AFF3 
 3390      0080
 3391              		.align	2
 3392              		.p2align 4,,15
 3393              		.global	tcp_sent
 3394              		.thumb
 3395              		.thumb_func
 3396              		.type	tcp_sent, %function
 3397              	tcp_sent:
 3398              	.LFB33:
 3399              		.loc 1 1305 0
 3400              		.cfi_startproc
 3401              		@ args = 0, pretend = 0, frame = 8
 3402              		@ frame_needed = 0, uses_anonymous_args = 0
 3403              		@ link register save eliminated.
 3404 0000 82B0     		sub	sp, sp, #8
 3405              	.LCFI45:
 3406              		.cfi_def_cfa_offset 8
 3407 0002 0190     		str	r0, [sp, #4]
 3408 0004 0091     		str	r1, [sp, #0]
 3409              		.loc 1 1306 0
 3410 0006 019B     		ldr	r3, [sp, #4]
 3411 0008 009A     		ldr	r2, [sp, #0]
 3412 000a C3F88420 		str	r2, [r3, #132]
 3413              		.loc 1 1307 0
 3414 000e 02B0     		add	sp, sp, #8
 3415 0010 7047     		bx	lr
 3416              		.cfi_endproc
 3417              	.LFE33:
 3418              		.size	tcp_sent, .-tcp_sent
ARM GAS  /tmp/ccgFJ4Zb.s 			page 62


 3419 0012 00BFAFF3 		.section	.text.tcp_err,"ax",%progbits
 3419      0080AFF3 
 3419      0080AFF3 
 3419      0080
 3420              		.align	2
 3421              		.p2align 4,,15
 3422              		.global	tcp_err
 3423              		.thumb
 3424              		.thumb_func
 3425              		.type	tcp_err, %function
 3426              	tcp_err:
 3427              	.LFB34:
 3428              		.loc 1 1319 0
 3429              		.cfi_startproc
 3430              		@ args = 0, pretend = 0, frame = 8
 3431              		@ frame_needed = 0, uses_anonymous_args = 0
 3432              		@ link register save eliminated.
 3433 0000 82B0     		sub	sp, sp, #8
 3434              	.LCFI46:
 3435              		.cfi_def_cfa_offset 8
 3436 0002 0190     		str	r0, [sp, #4]
 3437 0004 0091     		str	r1, [sp, #0]
 3438              		.loc 1 1320 0
 3439 0006 019B     		ldr	r3, [sp, #4]
 3440 0008 009A     		ldr	r2, [sp, #0]
 3441 000a C3F89420 		str	r2, [r3, #148]
 3442              		.loc 1 1321 0
 3443 000e 02B0     		add	sp, sp, #8
 3444 0010 7047     		bx	lr
 3445              		.cfi_endproc
 3446              	.LFE34:
 3447              		.size	tcp_err, .-tcp_err
 3448 0012 00BFAFF3 		.section	.text.tcp_accept,"ax",%progbits
 3448      0080AFF3 
 3448      0080AFF3 
 3448      0080
 3449              		.align	2
 3450              		.p2align 4,,15
 3451              		.global	tcp_accept
 3452              		.thumb
 3453              		.thumb_func
 3454              		.type	tcp_accept, %function
 3455              	tcp_accept:
 3456              	.LFB35:
 3457              		.loc 1 1333 0
 3458              		.cfi_startproc
 3459              		@ args = 0, pretend = 0, frame = 8
 3460              		@ frame_needed = 0, uses_anonymous_args = 0
 3461              		@ link register save eliminated.
 3462 0000 82B0     		sub	sp, sp, #8
 3463              	.LCFI47:
 3464              		.cfi_def_cfa_offset 8
 3465 0002 0190     		str	r0, [sp, #4]
 3466 0004 0091     		str	r1, [sp, #0]
 3467              		.loc 1 1334 0
 3468 0006 019B     		ldr	r3, [sp, #4]
 3469 0008 009A     		ldr	r2, [sp, #0]
ARM GAS  /tmp/ccgFJ4Zb.s 			page 63


 3470 000a 9A61     		str	r2, [r3, #24]
 3471              		.loc 1 1335 0
 3472 000c 02B0     		add	sp, sp, #8
 3473 000e 7047     		bx	lr
 3474              		.cfi_endproc
 3475              	.LFE35:
 3476              		.size	tcp_accept, .-tcp_accept
 3477              		.section	.text.tcp_poll,"ax",%progbits
 3478              		.align	2
 3479              		.p2align 4,,15
 3480              		.global	tcp_poll
 3481              		.thumb
 3482              		.thumb_func
 3483              		.type	tcp_poll, %function
 3484              	tcp_poll:
 3485              	.LFB36:
 3486              		.loc 1 1347 0
 3487              		.cfi_startproc
 3488              		@ args = 0, pretend = 0, frame = 16
 3489              		@ frame_needed = 0, uses_anonymous_args = 0
 3490              		@ link register save eliminated.
 3491 0000 84B0     		sub	sp, sp, #16
 3492              	.LCFI48:
 3493              		.cfi_def_cfa_offset 16
 3494 0002 0390     		str	r0, [sp, #12]
 3495 0004 0291     		str	r1, [sp, #8]
 3496 0006 1346     		mov	r3, r2
 3497 0008 8DF80730 		strb	r3, [sp, #7]
 3498              		.loc 1 1349 0
 3499 000c 039B     		ldr	r3, [sp, #12]
 3500 000e 029A     		ldr	r2, [sp, #8]
 3501 0010 C3F89020 		str	r2, [r3, #144]
 3502              		.loc 1 1353 0
 3503 0014 039B     		ldr	r3, [sp, #12]
 3504 0016 9DF80720 		ldrb	r2, [sp, #7]
 3505 001a 83F83520 		strb	r2, [r3, #53]
 3506              		.loc 1 1354 0
 3507 001e 04B0     		add	sp, sp, #16
 3508 0020 7047     		bx	lr
 3509              		.cfi_endproc
 3510              	.LFE36:
 3511              		.size	tcp_poll, .-tcp_poll
 3512 0022 00BFAFF3 		.section	.text.tcp_pcb_purge,"ax",%progbits
 3512      0080AFF3 
 3512      0080AFF3 
 3512      0080
 3513              		.align	2
 3514              		.p2align 4,,15
 3515              		.global	tcp_pcb_purge
 3516              		.thumb
 3517              		.thumb_func
 3518              		.type	tcp_pcb_purge, %function
 3519              	tcp_pcb_purge:
 3520              	.LFB37:
 3521              		.loc 1 1364 0
 3522              		.cfi_startproc
 3523              		@ args = 0, pretend = 0, frame = 8
ARM GAS  /tmp/ccgFJ4Zb.s 			page 64


 3524              		@ frame_needed = 0, uses_anonymous_args = 0
 3525 0000 00B5     		push	{lr}
 3526              	.LCFI49:
 3527              		.cfi_def_cfa_offset 4
 3528              		.cfi_offset 14, -4
 3529 0002 83B0     		sub	sp, sp, #12
 3530              	.LCFI50:
 3531              		.cfi_def_cfa_offset 16
 3532 0004 0190     		str	r0, [sp, #4]
 3533              		.loc 1 1365 0
 3534 0006 019B     		ldr	r3, [sp, #4]
 3535 0008 1B7C     		ldrb	r3, [r3, #16]	@ zero_extendqisi2
 3536 000a 002B     		cmp	r3, #0
 3537 000c 3BD0     		beq	.L199
 3538              		.loc 1 1366 0 discriminator 1
 3539 000e 019B     		ldr	r3, [sp, #4]
 3540 0010 1B7C     		ldrb	r3, [r3, #16]	@ zero_extendqisi2
 3541              		.loc 1 1365 0 discriminator 1
 3542 0012 0A2B     		cmp	r3, #10
 3543 0014 37D0     		beq	.L199
 3544              		.loc 1 1367 0
 3545 0016 019B     		ldr	r3, [sp, #4]
 3546 0018 1B7C     		ldrb	r3, [r3, #16]	@ zero_extendqisi2
 3547              		.loc 1 1366 0
 3548 001a 012B     		cmp	r3, #1
 3549 001c 33D0     		beq	.L199
 3550              		.loc 1 1392 0
 3551 001e 019B     		ldr	r3, [sp, #4]
 3552 0020 D3F88030 		ldr	r3, [r3, #128]
 3553 0024 002B     		cmp	r3, #0
 3554 0026 0AD0     		beq	.L201
 3555              		.loc 1 1394 0
 3556 0028 019B     		ldr	r3, [sp, #4]
 3557 002a D3F88030 		ldr	r3, [r3, #128]
 3558 002e 1846     		mov	r0, r3
 3559 0030 FFF7FEFF 		bl	pbuf_free
 3560              		.loc 1 1395 0
 3561 0034 019B     		ldr	r3, [sp, #4]
 3562 0036 4FF00002 		mov	r2, #0
 3563 003a C3F88020 		str	r2, [r3, #128]
 3564              	.L201:
 3565              		.loc 1 1407 0
 3566 003e 019B     		ldr	r3, [sp, #4]
 3567 0040 DB6F     		ldr	r3, [r3, #124]
 3568 0042 1846     		mov	r0, r3
 3569 0044 FFF7FEFF 		bl	tcp_segs_free
 3570              		.loc 1 1408 0
 3571 0048 019B     		ldr	r3, [sp, #4]
 3572 004a 4FF00002 		mov	r2, #0
 3573 004e DA67     		str	r2, [r3, #124]
 3574              		.loc 1 1413 0
 3575 0050 019B     		ldr	r3, [sp, #4]
 3576 0052 4FF6FF72 		movw	r2, #65535
 3577 0056 DA86     		strh	r2, [r3, #54]	@ movhi
 3578              		.loc 1 1415 0
 3579 0058 019B     		ldr	r3, [sp, #4]
 3580 005a 5B6F     		ldr	r3, [r3, #116]
ARM GAS  /tmp/ccgFJ4Zb.s 			page 65


 3581 005c 1846     		mov	r0, r3
 3582 005e FFF7FEFF 		bl	tcp_segs_free
 3583              		.loc 1 1416 0
 3584 0062 019B     		ldr	r3, [sp, #4]
 3585 0064 9B6F     		ldr	r3, [r3, #120]
 3586 0066 1846     		mov	r0, r3
 3587 0068 FFF7FEFF 		bl	tcp_segs_free
 3588              		.loc 1 1417 0
 3589 006c 019B     		ldr	r3, [sp, #4]
 3590 006e 4FF00002 		mov	r2, #0
 3591 0072 5A67     		str	r2, [r3, #116]
 3592 0074 019B     		ldr	r3, [sp, #4]
 3593 0076 5A6F     		ldr	r2, [r3, #116]
 3594 0078 019B     		ldr	r3, [sp, #4]
 3595 007a 9A67     		str	r2, [r3, #120]
 3596              		.loc 1 1419 0
 3597 007c 019B     		ldr	r3, [sp, #4]
 3598 007e 4FF00002 		mov	r2, #0
 3599 0082 A3F87220 		strh	r2, [r3, #114]	@ movhi
 3600              	.L199:
 3601              		.loc 1 1422 0
 3602 0086 03B0     		add	sp, sp, #12
 3603 0088 00BD     		pop	{pc}
 3604              		.cfi_endproc
 3605              	.LFE37:
 3606              		.size	tcp_pcb_purge, .-tcp_pcb_purge
 3607 008a 00BFAFF3 		.section	.text.tcp_pcb_remove,"ax",%progbits
 3607      0080
 3608              		.align	2
 3609              		.p2align 4,,15
 3610              		.global	tcp_pcb_remove
 3611              		.thumb
 3612              		.thumb_func
 3613              		.type	tcp_pcb_remove, %function
 3614              	tcp_pcb_remove:
 3615              	.LFB38:
 3616              		.loc 1 1432 0
 3617              		.cfi_startproc
 3618              		@ args = 0, pretend = 0, frame = 8
 3619              		@ frame_needed = 0, uses_anonymous_args = 0
 3620 0000 00B5     		push	{lr}
 3621              	.LCFI51:
 3622              		.cfi_def_cfa_offset 4
 3623              		.cfi_offset 14, -4
 3624 0002 83B0     		sub	sp, sp, #12
 3625              	.LCFI52:
 3626              		.cfi_def_cfa_offset 16
 3627 0004 0190     		str	r0, [sp, #4]
 3628 0006 0091     		str	r1, [sp, #0]
 3629              		.loc 1 1433 0
 3630 0008 019B     		ldr	r3, [sp, #4]
 3631 000a 1A68     		ldr	r2, [r3, #0]
 3632 000c 009B     		ldr	r3, [sp, #0]
 3633 000e 9A42     		cmp	r2, r3
 3634 0010 05D1     		bne	.L203
 3635              		.loc 1 1433 0 is_stmt 0 discriminator 1
 3636 0012 019B     		ldr	r3, [sp, #4]
ARM GAS  /tmp/ccgFJ4Zb.s 			page 66


 3637 0014 1B68     		ldr	r3, [r3, #0]
 3638 0016 DA68     		ldr	r2, [r3, #12]
 3639 0018 019B     		ldr	r3, [sp, #4]
 3640 001a 1A60     		str	r2, [r3, #0]
 3641 001c 2BE0     		b	.L204
 3642              	.L203:
 3643              		.loc 1 1433 0 discriminator 2
 3644 001e 019B     		ldr	r3, [sp, #4]
 3645 0020 1A68     		ldr	r2, [r3, #0]
 3646 0022 40F20003 		movw	r3, #:lower16:tcp_tmp_pcb
 3647 0026 C0F20003 		movt	r3, #:upper16:tcp_tmp_pcb
 3648 002a 1A60     		str	r2, [r3, #0]
 3649 002c 1CE0     		b	.L205
 3650              	.L207:
 3651              		.loc 1 1433 0 discriminator 7
 3652 002e 40F20003 		movw	r3, #:lower16:tcp_tmp_pcb
 3653 0032 C0F20003 		movt	r3, #:upper16:tcp_tmp_pcb
 3654 0036 1B68     		ldr	r3, [r3, #0]
 3655 0038 DA68     		ldr	r2, [r3, #12]
 3656 003a 009B     		ldr	r3, [sp, #0]
 3657 003c 9A42     		cmp	r2, r3
 3658 003e 08D1     		bne	.L206
 3659              		.loc 1 1433 0 discriminator 4
 3660 0040 40F20003 		movw	r3, #:lower16:tcp_tmp_pcb
 3661 0044 C0F20003 		movt	r3, #:upper16:tcp_tmp_pcb
 3662 0048 1B68     		ldr	r3, [r3, #0]
 3663 004a 009A     		ldr	r2, [sp, #0]
 3664 004c D268     		ldr	r2, [r2, #12]
 3665 004e DA60     		str	r2, [r3, #12]
 3666 0050 11E0     		b	.L204
 3667              	.L206:
 3668              		.loc 1 1433 0 discriminator 5
 3669 0052 40F20003 		movw	r3, #:lower16:tcp_tmp_pcb
 3670 0056 C0F20003 		movt	r3, #:upper16:tcp_tmp_pcb
 3671 005a 1B68     		ldr	r3, [r3, #0]
 3672 005c DA68     		ldr	r2, [r3, #12]
 3673 005e 40F20003 		movw	r3, #:lower16:tcp_tmp_pcb
 3674 0062 C0F20003 		movt	r3, #:upper16:tcp_tmp_pcb
 3675 0066 1A60     		str	r2, [r3, #0]
 3676              	.L205:
 3677              		.loc 1 1433 0 discriminator 3
 3678 0068 40F20003 		movw	r3, #:lower16:tcp_tmp_pcb
 3679 006c C0F20003 		movt	r3, #:upper16:tcp_tmp_pcb
 3680 0070 1B68     		ldr	r3, [r3, #0]
 3681 0072 002B     		cmp	r3, #0
 3682 0074 DBD1     		bne	.L207
 3683              	.L204:
 3684              		.loc 1 1433 0 discriminator 6
 3685 0076 009B     		ldr	r3, [sp, #0]
 3686 0078 4FF00002 		mov	r2, #0
 3687 007c DA60     		str	r2, [r3, #12]
 3688              		.loc 1 1435 0 is_stmt 1 discriminator 6
 3689 007e 0098     		ldr	r0, [sp, #0]
 3690 0080 FFF7FEFF 		bl	tcp_pcb_purge
 3691              		.loc 1 1438 0 discriminator 6
 3692 0084 009B     		ldr	r3, [sp, #0]
 3693 0086 1B7C     		ldrb	r3, [r3, #16]	@ zero_extendqisi2
ARM GAS  /tmp/ccgFJ4Zb.s 			page 67


 3694 0088 0A2B     		cmp	r3, #10
 3695 008a 17D0     		beq	.L208
 3696              		.loc 1 1439 0 discriminator 1
 3697 008c 009B     		ldr	r3, [sp, #0]
 3698 008e 1B7C     		ldrb	r3, [r3, #16]	@ zero_extendqisi2
 3699              		.loc 1 1438 0 discriminator 1
 3700 0090 012B     		cmp	r3, #1
 3701 0092 13D0     		beq	.L208
 3702              		.loc 1 1440 0
 3703 0094 009B     		ldr	r3, [sp, #0]
 3704 0096 93F82030 		ldrb	r3, [r3, #32]	@ zero_extendqisi2
 3705              		.loc 1 1439 0
 3706 009a 03F00103 		and	r3, r3, #1
 3707 009e DBB2     		uxtb	r3, r3
 3708 00a0 002B     		cmp	r3, #0
 3709 00a2 0BD0     		beq	.L208
 3710              		.loc 1 1441 0
 3711 00a4 009B     		ldr	r3, [sp, #0]
 3712 00a6 93F82030 		ldrb	r3, [r3, #32]	@ zero_extendqisi2
 3713 00aa 43F00203 		orr	r3, r3, #2
 3714 00ae DAB2     		uxtb	r2, r3
 3715 00b0 009B     		ldr	r3, [sp, #0]
 3716 00b2 83F82020 		strb	r2, [r3, #32]
 3717              		.loc 1 1442 0
 3718 00b6 0098     		ldr	r0, [sp, #0]
 3719 00b8 FFF7FEFF 		bl	tcp_output
 3720              	.L208:
 3721              		.loc 1 1445 0
 3722 00bc 009B     		ldr	r3, [sp, #0]
 3723 00be 1B7C     		ldrb	r3, [r3, #16]	@ zero_extendqisi2
 3724 00c0 012B     		cmp	r3, #1
 3725 00c2 11D0     		beq	.L209
 3726              		.loc 1 1446 0
 3727 00c4 009B     		ldr	r3, [sp, #0]
 3728 00c6 5B6F     		ldr	r3, [r3, #116]
 3729 00c8 002B     		cmp	r3, #0
 3730 00ca 01D0     		beq	.L210
 3731              		.loc 1 1446 0 is_stmt 0 discriminator 1
 3732 00cc FFF7FEFF 		bl	port_halt
 3733              	.L210:
 3734              		.loc 1 1447 0 is_stmt 1
 3735 00d0 009B     		ldr	r3, [sp, #0]
 3736 00d2 9B6F     		ldr	r3, [r3, #120]
 3737 00d4 002B     		cmp	r3, #0
 3738 00d6 01D0     		beq	.L211
 3739              		.loc 1 1447 0 is_stmt 0 discriminator 1
 3740 00d8 FFF7FEFF 		bl	port_halt
 3741              	.L211:
 3742              		.loc 1 1449 0 is_stmt 1
 3743 00dc 009B     		ldr	r3, [sp, #0]
 3744 00de DB6F     		ldr	r3, [r3, #124]
 3745 00e0 002B     		cmp	r3, #0
 3746 00e2 01D0     		beq	.L209
 3747              		.loc 1 1449 0 is_stmt 0 discriminator 1
 3748 00e4 FFF7FEFF 		bl	port_halt
 3749              	.L209:
 3750              		.loc 1 1453 0 is_stmt 1
ARM GAS  /tmp/ccgFJ4Zb.s 			page 68


 3751 00e8 009B     		ldr	r3, [sp, #0]
 3752 00ea 4FF00002 		mov	r2, #0
 3753 00ee 1A74     		strb	r2, [r3, #16]
 3754              		.loc 1 1456 0
 3755 00f0 03B0     		add	sp, sp, #12
 3756 00f2 00BD     		pop	{pc}
 3757              		.cfi_endproc
 3758              	.LFE38:
 3759              		.size	tcp_pcb_remove, .-tcp_pcb_remove
 3760 00f4 AFF30080 		.section	.text.tcp_next_iss,"ax",%progbits
 3760      AFF30080 
 3760      AFF30080 
 3761              		.align	2
 3762              		.p2align 4,,15
 3763              		.global	tcp_next_iss
 3764              		.thumb
 3765              		.thumb_func
 3766              		.type	tcp_next_iss, %function
 3767              	tcp_next_iss:
 3768              	.LFB39:
 3769              		.loc 1 1465 0
 3770              		.cfi_startproc
 3771              		@ args = 0, pretend = 0, frame = 0
 3772              		@ frame_needed = 0, uses_anonymous_args = 0
 3773              		@ link register save eliminated.
 3774              		.loc 1 1468 0
 3775 0000 40F20003 		movw	r3, #:lower16:iss.5946
 3776 0004 C0F20003 		movt	r3, #:upper16:iss.5946
 3777 0008 1A68     		ldr	r2, [r3, #0]
 3778 000a 40F20003 		movw	r3, #:lower16:tcp_ticks
 3779 000e C0F20003 		movt	r3, #:upper16:tcp_ticks
 3780 0012 1B68     		ldr	r3, [r3, #0]
 3781 0014 D218     		adds	r2, r2, r3
 3782 0016 40F20003 		movw	r3, #:lower16:iss.5946
 3783 001a C0F20003 		movt	r3, #:upper16:iss.5946
 3784 001e 1A60     		str	r2, [r3, #0]
 3785              		.loc 1 1469 0
 3786 0020 40F20003 		movw	r3, #:lower16:iss.5946
 3787 0024 C0F20003 		movt	r3, #:upper16:iss.5946
 3788 0028 1B68     		ldr	r3, [r3, #0]
 3789              		.loc 1 1470 0
 3790 002a 1846     		mov	r0, r3
 3791 002c 7047     		bx	lr
 3792              		.cfi_endproc
 3793              	.LFE39:
 3794              		.size	tcp_next_iss, .-tcp_next_iss
 3795 002e 00BF     		.section	.text.tcp_eff_send_mss,"ax",%progbits
 3796              		.align	2
 3797              		.p2align 4,,15
 3798              		.global	tcp_eff_send_mss
 3799              		.thumb
 3800              		.thumb_func
 3801              		.type	tcp_eff_send_mss, %function
 3802              	tcp_eff_send_mss:
 3803              	.LFB40:
 3804              		.loc 1 1480 0
 3805              		.cfi_startproc
ARM GAS  /tmp/ccgFJ4Zb.s 			page 69


 3806              		@ args = 0, pretend = 0, frame = 16
 3807              		@ frame_needed = 0, uses_anonymous_args = 0
 3808 0000 00B5     		push	{lr}
 3809              	.LCFI53:
 3810              		.cfi_def_cfa_offset 4
 3811              		.cfi_offset 14, -4
 3812 0002 85B0     		sub	sp, sp, #20
 3813              	.LCFI54:
 3814              		.cfi_def_cfa_offset 24
 3815 0004 0346     		mov	r3, r0
 3816 0006 0091     		str	r1, [sp, #0]
 3817 0008 ADF80630 		strh	r3, [sp, #6]	@ movhi
 3818              		.loc 1 1484 0
 3819 000c 0098     		ldr	r0, [sp, #0]
 3820 000e FFF7FEFF 		bl	ip_route
 3821 0012 0346     		mov	r3, r0
 3822 0014 0393     		str	r3, [sp, #12]
 3823              		.loc 1 1485 0
 3824 0016 039B     		ldr	r3, [sp, #12]
 3825 0018 002B     		cmp	r3, #0
 3826 001a 12D0     		beq	.L214
 3827              		.loc 1 1485 0 is_stmt 0 discriminator 1
 3828 001c 039B     		ldr	r3, [sp, #12]
 3829 001e 1B8C     		ldrh	r3, [r3, #32]
 3830 0020 002B     		cmp	r3, #0
 3831 0022 0ED0     		beq	.L214
 3832              		.loc 1 1486 0 is_stmt 1
 3833 0024 039B     		ldr	r3, [sp, #12]
 3834 0026 1B8C     		ldrh	r3, [r3, #32]
 3835 0028 A3F12803 		sub	r3, r3, #40
 3836 002c ADF80A30 		strh	r3, [sp, #10]	@ movhi
 3837              		.loc 1 1491 0
 3838 0030 BDF80A20 		ldrh	r2, [sp, #10]
 3839 0034 BDF80630 		ldrh	r3, [sp, #6]
 3840 0038 9A42     		cmp	r2, r3
 3841 003a 38BF     		it	cc
 3842 003c 1346     		movcc	r3, r2
 3843 003e ADF80630 		strh	r3, [sp, #6]	@ movhi
 3844              	.L214:
 3845              		.loc 1 1493 0
 3846 0042 BDF80630 		ldrh	r3, [sp, #6]
 3847              		.loc 1 1494 0
 3848 0046 1846     		mov	r0, r3
 3849 0048 05B0     		add	sp, sp, #20
 3850 004a 00BD     		pop	{pc}
 3851              		.cfi_endproc
 3852              	.LFE40:
 3853              		.size	tcp_eff_send_mss, .-tcp_eff_send_mss
 3854 004c AFF30080 		.section	.text.tcp_debug_state_str,"ax",%progbits
 3855              		.align	2
 3856              		.p2align 4,,15
 3857              		.global	tcp_debug_state_str
 3858              		.thumb
 3859              		.thumb_func
 3860              		.type	tcp_debug_state_str, %function
 3861              	tcp_debug_state_str:
 3862              	.LFB41:
ARM GAS  /tmp/ccgFJ4Zb.s 			page 70


 3863              		.loc 1 1499 0
 3864              		.cfi_startproc
 3865              		@ args = 0, pretend = 0, frame = 8
 3866              		@ frame_needed = 0, uses_anonymous_args = 0
 3867              		@ link register save eliminated.
 3868 0000 82B0     		sub	sp, sp, #8
 3869              	.LCFI55:
 3870              		.cfi_def_cfa_offset 8
 3871 0002 0346     		mov	r3, r0
 3872 0004 8DF80730 		strb	r3, [sp, #7]
 3873              		.loc 1 1500 0
 3874 0008 9DF80720 		ldrb	r2, [sp, #7]	@ zero_extendqisi2
 3875 000c 40F20003 		movw	r3, #:lower16:tcp_state_str
 3876 0010 C0F20003 		movt	r3, #:upper16:tcp_state_str
 3877 0014 53F82230 		ldr	r3, [r3, r2, lsl #2]
 3878              		.loc 1 1501 0
 3879 0018 1846     		mov	r0, r3
 3880 001a 02B0     		add	sp, sp, #8
 3881 001c 7047     		bx	lr
 3882              		.cfi_endproc
 3883              	.LFE41:
 3884              		.size	tcp_debug_state_str, .-tcp_debug_state_str
 3885 001e 00BF     		.section	.data.iss.5946,"aw",%progbits
 3886              		.align	2
 3887              		.type	iss.5946, %object
 3888              		.size	iss.5946, 4
 3889              	iss.5946:
 3890 0000 6E190000 		.word	6510
 3891              		.section	.data.port.5810,"aw",%progbits
 3892              		.align	1
 3893              		.type	port.5810, %object
 3894              		.size	port.5810, 2
 3895              	port.5810:
 3896 0000 00C0     		.short	-16384
 3897              		.text
 3898              	.Letext0:
 3899              		.file 2 "/home/texzk/ChibiStudio/tools/GNU Tools ARM Embedded/4.6 2012q2/bin/../lib/gcc/arm-none-e
 3900              		.file 3 "../../os/various/lwip_bindings/arch/cc.h"
 3901              		.file 4 "../../ext/lwip/src/include/lwip/mem.h"
 3902              		.file 5 "../../ext/lwip/src/include/ipv4/lwip/ip_addr.h"
 3903              		.file 6 "../../ext/lwip/src/include/lwip/err.h"
 3904              		.file 7 "../../ext/lwip/src/include/lwip/pbuf.h"
 3905              		.file 8 "../../ext/lwip/src/include/lwip/netif.h"
 3906              		.file 9 "../../ext/lwip/src/include/lwip/tcp.h"
 3907              		.file 10 "../../ext/lwip/src/include/lwip/tcp_impl.h"
 3908              		.file 11 "../../ext/lwip/src/include/lwip/stats.h"
 3909              		.file 12 "../../ext/lwip/src/include/lwip/memp.h"
 3910              		.section	.debug_info,"",%progbits
 3911              	.Ldebug_info0:
 3912 0000 A6170000 		.4byte	0x17a6
 3913 0004 0200     		.2byte	0x2
 3914 0006 00000000 		.4byte	.Ldebug_abbrev0
 3915 000a 04       		.byte	0x4
 3916 000b 01       		.uleb128 0x1
 3917 000c 7D040000 		.4byte	.LASF232
 3918 0010 01       		.byte	0x1
 3919 0011 5D010000 		.4byte	.LASF233
ARM GAS  /tmp/ccgFJ4Zb.s 			page 71


 3920 0015 A4020000 		.4byte	.LASF234
 3921 0019 00000000 		.4byte	0
 3922 001d 00000000 		.4byte	0
 3923 0021 00000000 		.4byte	.Ldebug_ranges0+0
 3924 0025 00000000 		.4byte	.Ldebug_line0
 3925 0029 02       		.uleb128 0x2
 3926 002a 04       		.byte	0x4
 3927 002b 05       		.byte	0x5
 3928 002c 696E7400 		.ascii	"int\000"
 3929 0030 03       		.uleb128 0x3
 3930 0031 04       		.byte	0x4
 3931 0032 07       		.byte	0x7
 3932 0033 BB000000 		.4byte	.LASF0
 3933 0037 04       		.uleb128 0x4
 3934 0038 08020000 		.4byte	.LASF2
 3935 003c 02       		.byte	0x2
 3936 003d 29       		.byte	0x29
 3937 003e 42000000 		.4byte	0x42
 3938 0042 03       		.uleb128 0x3
 3939 0043 01       		.byte	0x1
 3940 0044 06       		.byte	0x6
 3941 0045 54090000 		.4byte	.LASF1
 3942 0049 04       		.uleb128 0x4
 3943 004a E0040000 		.4byte	.LASF3
 3944 004e 02       		.byte	0x2
 3945 004f 2A       		.byte	0x2a
 3946 0050 54000000 		.4byte	0x54
 3947 0054 03       		.uleb128 0x3
 3948 0055 01       		.byte	0x1
 3949 0056 08       		.byte	0x8
 3950 0057 85080000 		.4byte	.LASF4
 3951 005b 04       		.uleb128 0x4
 3952 005c 64020000 		.4byte	.LASF5
 3953 0060 02       		.byte	0x2
 3954 0061 35       		.byte	0x35
 3955 0062 66000000 		.4byte	0x66
 3956 0066 03       		.uleb128 0x3
 3957 0067 02       		.byte	0x2
 3958 0068 05       		.byte	0x5
 3959 0069 07070000 		.4byte	.LASF6
 3960 006d 04       		.uleb128 0x4
 3961 006e B5060000 		.4byte	.LASF7
 3962 0072 02       		.byte	0x2
 3963 0073 36       		.byte	0x36
 3964 0074 78000000 		.4byte	0x78
 3965 0078 03       		.uleb128 0x3
 3966 0079 02       		.byte	0x2
 3967 007a 07       		.byte	0x7
 3968 007b 68090000 		.4byte	.LASF8
 3969 007f 04       		.uleb128 0x4
 3970 0080 40080000 		.4byte	.LASF9
 3971 0084 02       		.byte	0x2
 3972 0085 4F       		.byte	0x4f
 3973 0086 8A000000 		.4byte	0x8a
 3974 008a 03       		.uleb128 0x3
 3975 008b 04       		.byte	0x4
 3976 008c 05       		.byte	0x5
ARM GAS  /tmp/ccgFJ4Zb.s 			page 72


 3977 008d 16070000 		.4byte	.LASF10
 3978 0091 04       		.uleb128 0x4
 3979 0092 FF010000 		.4byte	.LASF11
 3980 0096 02       		.byte	0x2
 3981 0097 50       		.byte	0x50
 3982 0098 9C000000 		.4byte	0x9c
 3983 009c 03       		.uleb128 0x3
 3984 009d 04       		.byte	0x4
 3985 009e 07       		.byte	0x7
 3986 009f 11080000 		.4byte	.LASF12
 3987 00a3 03       		.uleb128 0x3
 3988 00a4 08       		.byte	0x8
 3989 00a5 05       		.byte	0x5
 3990 00a6 5D050000 		.4byte	.LASF13
 3991 00aa 03       		.uleb128 0x3
 3992 00ab 08       		.byte	0x8
 3993 00ac 07       		.byte	0x7
 3994 00ad 82020000 		.4byte	.LASF14
 3995 00b1 05       		.uleb128 0x5
 3996 00b2 04       		.byte	0x4
 3997 00b3 06       		.uleb128 0x6
 3998 00b4 04       		.byte	0x4
 3999 00b5 B9000000 		.4byte	0xb9
 4000 00b9 07       		.uleb128 0x7
 4001 00ba BE000000 		.4byte	0xbe
 4002 00be 03       		.uleb128 0x3
 4003 00bf 01       		.byte	0x1
 4004 00c0 08       		.byte	0x8
 4005 00c1 41040000 		.4byte	.LASF15
 4006 00c5 04       		.uleb128 0x4
 4007 00c6 C8050000 		.4byte	.LASF16
 4008 00ca 03       		.byte	0x3
 4009 00cb 3C       		.byte	0x3c
 4010 00cc 49000000 		.4byte	0x49
 4011 00d0 04       		.uleb128 0x4
 4012 00d1 EB030000 		.4byte	.LASF17
 4013 00d5 03       		.byte	0x3
 4014 00d6 3D       		.byte	0x3d
 4015 00d7 37000000 		.4byte	0x37
 4016 00db 04       		.uleb128 0x4
 4017 00dc 3A010000 		.4byte	.LASF18
 4018 00e0 03       		.byte	0x3
 4019 00e1 3E       		.byte	0x3e
 4020 00e2 6D000000 		.4byte	0x6d
 4021 00e6 04       		.uleb128 0x4
 4022 00e7 3A080000 		.4byte	.LASF19
 4023 00eb 03       		.byte	0x3
 4024 00ec 3F       		.byte	0x3f
 4025 00ed 5B000000 		.4byte	0x5b
 4026 00f1 04       		.uleb128 0x4
 4027 00f2 01070000 		.4byte	.LASF20
 4028 00f6 03       		.byte	0x3
 4029 00f7 40       		.byte	0x40
 4030 00f8 91000000 		.4byte	0x91
 4031 00fc 04       		.uleb128 0x4
 4032 00fd F0030000 		.4byte	.LASF21
 4033 0101 03       		.byte	0x3
ARM GAS  /tmp/ccgFJ4Zb.s 			page 73


 4034 0102 41       		.byte	0x41
 4035 0103 7F000000 		.4byte	0x7f
 4036 0107 04       		.uleb128 0x4
 4037 0108 46040000 		.4byte	.LASF22
 4038 010c 04       		.byte	0x4
 4039 010d 4B       		.byte	0x4b
 4040 010e DB000000 		.4byte	0xdb
 4041 0112 08       		.uleb128 0x8
 4042 0113 01       		.byte	0x1
 4043 0114 0C       		.byte	0xc
 4044 0115 2B       		.byte	0x2b
 4045 0116 75010000 		.4byte	0x175
 4046 011a 09       		.uleb128 0x9
 4047 011b EA070000 		.4byte	.LASF23
 4048 011f 00       		.sleb128 0
 4049 0120 09       		.uleb128 0x9
 4050 0121 50070000 		.4byte	.LASF24
 4051 0125 01       		.sleb128 1
 4052 0126 09       		.uleb128 0x9
 4053 0127 B6050000 		.4byte	.LASF25
 4054 012b 02       		.sleb128 2
 4055 012c 09       		.uleb128 0x9
 4056 012d 22000000 		.4byte	.LASF26
 4057 0131 03       		.sleb128 3
 4058 0132 09       		.uleb128 0x9
 4059 0133 C0080000 		.4byte	.LASF27
 4060 0137 04       		.sleb128 4
 4061 0138 09       		.uleb128 0x9
 4062 0139 47060000 		.4byte	.LASF28
 4063 013d 05       		.sleb128 5
 4064 013e 09       		.uleb128 0x9
 4065 013f B7070000 		.4byte	.LASF29
 4066 0143 06       		.sleb128 6
 4067 0144 09       		.uleb128 0x9
 4068 0145 49050000 		.4byte	.LASF30
 4069 0149 07       		.sleb128 7
 4070 014a 09       		.uleb128 0x9
 4071 014b F6030000 		.4byte	.LASF31
 4072 014f 08       		.sleb128 8
 4073 0150 09       		.uleb128 0x9
 4074 0151 14020000 		.4byte	.LASF32
 4075 0155 09       		.sleb128 9
 4076 0156 09       		.uleb128 0x9
 4077 0157 28030000 		.4byte	.LASF33
 4078 015b 0A       		.sleb128 10
 4079 015c 09       		.uleb128 0x9
 4080 015d 2B070000 		.4byte	.LASF34
 4081 0161 0B       		.sleb128 11
 4082 0162 09       		.uleb128 0x9
 4083 0163 32040000 		.4byte	.LASF35
 4084 0167 0C       		.sleb128 12
 4085 0168 09       		.uleb128 0x9
 4086 0169 89010000 		.4byte	.LASF36
 4087 016d 0D       		.sleb128 13
 4088 016e 09       		.uleb128 0x9
 4089 016f D8030000 		.4byte	.LASF37
 4090 0173 0E       		.sleb128 14
ARM GAS  /tmp/ccgFJ4Zb.s 			page 74


 4091 0174 00       		.byte	0
 4092 0175 0A       		.uleb128 0xa
 4093 0176 080A0000 		.4byte	.LASF40
 4094 017a 04       		.byte	0x4
 4095 017b 05       		.byte	0x5
 4096 017c 2C       		.byte	0x2c
 4097 017d 90010000 		.4byte	0x190
 4098 0181 0B       		.uleb128 0xb
 4099 0182 03090000 		.4byte	.LASF42
 4100 0186 05       		.byte	0x5
 4101 0187 2D       		.byte	0x2d
 4102 0188 F1000000 		.4byte	0xf1
 4103 018c 02       		.byte	0x2
 4104 018d 23       		.byte	0x23
 4105 018e 00       		.uleb128 0
 4106 018f 00       		.byte	0
 4107 0190 04       		.uleb128 0x4
 4108 0191 BB090000 		.4byte	.LASF38
 4109 0195 05       		.byte	0x5
 4110 0196 40       		.byte	0x40
 4111 0197 75010000 		.4byte	0x175
 4112 019b 04       		.uleb128 0x4
 4113 019c FB000000 		.4byte	.LASF39
 4114 01a0 06       		.byte	0x6
 4115 01a1 2F       		.byte	0x2f
 4116 01a2 D0000000 		.4byte	0xd0
 4117 01a6 0A       		.uleb128 0xa
 4118 01a7 A1030000 		.4byte	.LASF41
 4119 01ab 10       		.byte	0x10
 4120 01ac 07       		.byte	0x7
 4121 01ad 49       		.byte	0x49
 4122 01ae 15020000 		.4byte	0x215
 4123 01b2 0B       		.uleb128 0xb
 4124 01b3 D9000000 		.4byte	.LASF43
 4125 01b7 07       		.byte	0x7
 4126 01b8 4B       		.byte	0x4b
 4127 01b9 15020000 		.4byte	0x215
 4128 01bd 02       		.byte	0x2
 4129 01be 23       		.byte	0x23
 4130 01bf 00       		.uleb128 0
 4131 01c0 0B       		.uleb128 0xb
 4132 01c1 75030000 		.4byte	.LASF44
 4133 01c5 07       		.byte	0x7
 4134 01c6 4E       		.byte	0x4e
 4135 01c7 B1000000 		.4byte	0xb1
 4136 01cb 02       		.byte	0x2
 4137 01cc 23       		.byte	0x23
 4138 01cd 04       		.uleb128 0x4
 4139 01ce 0B       		.uleb128 0xb
 4140 01cf 66030000 		.4byte	.LASF45
 4141 01d3 07       		.byte	0x7
 4142 01d4 57       		.byte	0x57
 4143 01d5 DB000000 		.4byte	0xdb
 4144 01d9 02       		.byte	0x2
 4145 01da 23       		.byte	0x23
 4146 01db 08       		.uleb128 0x8
 4147 01dc 0C       		.uleb128 0xc
ARM GAS  /tmp/ccgFJ4Zb.s 			page 75


 4148 01dd 6C656E00 		.ascii	"len\000"
 4149 01e1 07       		.byte	0x7
 4150 01e2 5A       		.byte	0x5a
 4151 01e3 DB000000 		.4byte	0xdb
 4152 01e7 02       		.byte	0x2
 4153 01e8 23       		.byte	0x23
 4154 01e9 0A       		.uleb128 0xa
 4155 01ea 0B       		.uleb128 0xb
 4156 01eb 76080000 		.4byte	.LASF46
 4157 01ef 07       		.byte	0x7
 4158 01f0 5D       		.byte	0x5d
 4159 01f1 C5000000 		.4byte	0xc5
 4160 01f5 02       		.byte	0x2
 4161 01f6 23       		.byte	0x23
 4162 01f7 0C       		.uleb128 0xc
 4163 01f8 0B       		.uleb128 0xb
 4164 01f9 86000000 		.4byte	.LASF47
 4165 01fd 07       		.byte	0x7
 4166 01fe 60       		.byte	0x60
 4167 01ff C5000000 		.4byte	0xc5
 4168 0203 02       		.byte	0x2
 4169 0204 23       		.byte	0x23
 4170 0205 0D       		.uleb128 0xd
 4171 0206 0C       		.uleb128 0xc
 4172 0207 72656600 		.ascii	"ref\000"
 4173 020b 07       		.byte	0x7
 4174 020c 67       		.byte	0x67
 4175 020d DB000000 		.4byte	0xdb
 4176 0211 02       		.byte	0x2
 4177 0212 23       		.byte	0x23
 4178 0213 0E       		.uleb128 0xe
 4179 0214 00       		.byte	0
 4180 0215 06       		.uleb128 0x6
 4181 0216 04       		.byte	0x4
 4182 0217 A6010000 		.4byte	0x1a6
 4183 021b 06       		.uleb128 0x6
 4184 021c 04       		.byte	0x4
 4185 021d 21020000 		.4byte	0x221
 4186 0221 0A       		.uleb128 0xa
 4187 0222 1C090000 		.4byte	.LASF48
 4188 0226 30       		.byte	0x30
 4189 0227 08       		.byte	0x8
 4190 0228 88       		.byte	0x88
 4191 0229 F1020000 		.4byte	0x2f1
 4192 022d 0B       		.uleb128 0xb
 4193 022e D9000000 		.4byte	.LASF43
 4194 0232 08       		.byte	0x8
 4195 0233 8A       		.byte	0x8a
 4196 0234 1B020000 		.4byte	0x21b
 4197 0238 02       		.byte	0x2
 4198 0239 23       		.byte	0x23
 4199 023a 00       		.uleb128 0
 4200 023b 0B       		.uleb128 0xb
 4201 023c 080A0000 		.4byte	.LASF40
 4202 0240 08       		.byte	0x8
 4203 0241 8D       		.byte	0x8d
 4204 0242 90010000 		.4byte	0x190
ARM GAS  /tmp/ccgFJ4Zb.s 			page 76


 4205 0246 02       		.byte	0x2
 4206 0247 23       		.byte	0x23
 4207 0248 04       		.uleb128 0x4
 4208 0249 0B       		.uleb128 0xb
 4209 024a 55050000 		.4byte	.LASF49
 4210 024e 08       		.byte	0x8
 4211 024f 8E       		.byte	0x8e
 4212 0250 90010000 		.4byte	0x190
 4213 0254 02       		.byte	0x2
 4214 0255 23       		.byte	0x23
 4215 0256 08       		.uleb128 0x8
 4216 0257 0C       		.uleb128 0xc
 4217 0258 677700   		.ascii	"gw\000"
 4218 025b 08       		.byte	0x8
 4219 025c 8F       		.byte	0x8f
 4220 025d 90010000 		.4byte	0x190
 4221 0261 02       		.byte	0x2
 4222 0262 23       		.byte	0x23
 4223 0263 0C       		.uleb128 0xc
 4224 0264 0B       		.uleb128 0xb
 4225 0265 52000000 		.4byte	.LASF50
 4226 0269 08       		.byte	0x8
 4227 026a 93       		.byte	0x93
 4228 026b F1020000 		.4byte	0x2f1
 4229 026f 02       		.byte	0x2
 4230 0270 23       		.byte	0x23
 4231 0271 10       		.uleb128 0x10
 4232 0272 0B       		.uleb128 0xb
 4233 0273 88030000 		.4byte	.LASF51
 4234 0277 08       		.byte	0x8
 4235 0278 97       		.byte	0x97
 4236 0279 17030000 		.4byte	0x317
 4237 027d 02       		.byte	0x2
 4238 027e 23       		.byte	0x23
 4239 027f 14       		.uleb128 0x14
 4240 0280 0B       		.uleb128 0xb
 4241 0281 15010000 		.4byte	.LASF52
 4242 0285 08       		.byte	0x8
 4243 0286 9B       		.byte	0x9b
 4244 0287 48030000 		.4byte	0x348
 4245 028b 02       		.byte	0x2
 4246 028c 23       		.byte	0x23
 4247 028d 18       		.uleb128 0x18
 4248 028e 0B       		.uleb128 0xb
 4249 028f 0D090000 		.4byte	.LASF53
 4250 0293 08       		.byte	0x8
 4251 0294 A8       		.byte	0xa8
 4252 0295 B1000000 		.4byte	0xb1
 4253 0299 02       		.byte	0x2
 4254 029a 23       		.byte	0x23
 4255 029b 1C       		.uleb128 0x1c
 4256 029c 0C       		.uleb128 0xc
 4257 029d 6D747500 		.ascii	"mtu\000"
 4258 02a1 08       		.byte	0x8
 4259 02a2 B6       		.byte	0xb6
 4260 02a3 DB000000 		.4byte	0xdb
 4261 02a7 02       		.byte	0x2
ARM GAS  /tmp/ccgFJ4Zb.s 			page 77


 4262 02a8 23       		.byte	0x23
 4263 02a9 20       		.uleb128 0x20
 4264 02aa 0B       		.uleb128 0xb
 4265 02ab 02030000 		.4byte	.LASF54
 4266 02af 08       		.byte	0x8
 4267 02b0 B8       		.byte	0xb8
 4268 02b1 C5000000 		.4byte	0xc5
 4269 02b5 02       		.byte	0x2
 4270 02b6 23       		.byte	0x23
 4271 02b7 22       		.uleb128 0x22
 4272 02b8 0B       		.uleb128 0xb
 4273 02b9 6C020000 		.4byte	.LASF55
 4274 02bd 08       		.byte	0x8
 4275 02be BA       		.byte	0xba
 4276 02bf 6E030000 		.4byte	0x36e
 4277 02c3 02       		.byte	0x2
 4278 02c4 23       		.byte	0x23
 4279 02c5 23       		.uleb128 0x23
 4280 02c6 0B       		.uleb128 0xb
 4281 02c7 86000000 		.4byte	.LASF47
 4282 02cb 08       		.byte	0x8
 4283 02cc BC       		.byte	0xbc
 4284 02cd C5000000 		.4byte	0xc5
 4285 02d1 02       		.byte	0x2
 4286 02d2 23       		.byte	0x23
 4287 02d3 29       		.uleb128 0x29
 4288 02d4 0B       		.uleb128 0xb
 4289 02d5 9E070000 		.4byte	.LASF56
 4290 02d9 08       		.byte	0x8
 4291 02da BE       		.byte	0xbe
 4292 02db 7E030000 		.4byte	0x37e
 4293 02df 02       		.byte	0x2
 4294 02e0 23       		.byte	0x23
 4295 02e1 2A       		.uleb128 0x2a
 4296 02e2 0C       		.uleb128 0xc
 4297 02e3 6E756D00 		.ascii	"num\000"
 4298 02e7 08       		.byte	0x8
 4299 02e8 C0       		.byte	0xc0
 4300 02e9 C5000000 		.4byte	0xc5
 4301 02ed 02       		.byte	0x2
 4302 02ee 23       		.byte	0x23
 4303 02ef 2C       		.uleb128 0x2c
 4304 02f0 00       		.byte	0
 4305 02f1 04       		.uleb128 0x4
 4306 02f2 E6010000 		.4byte	.LASF57
 4307 02f6 08       		.byte	0x8
 4308 02f7 6D       		.byte	0x6d
 4309 02f8 FC020000 		.4byte	0x2fc
 4310 02fc 06       		.uleb128 0x6
 4311 02fd 04       		.byte	0x4
 4312 02fe 02030000 		.4byte	0x302
 4313 0302 0D       		.uleb128 0xd
 4314 0303 01       		.byte	0x1
 4315 0304 9B010000 		.4byte	0x19b
 4316 0308 17030000 		.4byte	0x317
 4317 030c 0E       		.uleb128 0xe
 4318 030d 15020000 		.4byte	0x215
ARM GAS  /tmp/ccgFJ4Zb.s 			page 78


 4319 0311 0E       		.uleb128 0xe
 4320 0312 1B020000 		.4byte	0x21b
 4321 0316 00       		.byte	0
 4322 0317 04       		.uleb128 0x4
 4323 0318 D6060000 		.4byte	.LASF58
 4324 031c 08       		.byte	0x8
 4325 031d 76       		.byte	0x76
 4326 031e 22030000 		.4byte	0x322
 4327 0322 06       		.uleb128 0x6
 4328 0323 04       		.byte	0x4
 4329 0324 28030000 		.4byte	0x328
 4330 0328 0D       		.uleb128 0xd
 4331 0329 01       		.byte	0x1
 4332 032a 9B010000 		.4byte	0x19b
 4333 032e 42030000 		.4byte	0x342
 4334 0332 0E       		.uleb128 0xe
 4335 0333 1B020000 		.4byte	0x21b
 4336 0337 0E       		.uleb128 0xe
 4337 0338 15020000 		.4byte	0x215
 4338 033c 0E       		.uleb128 0xe
 4339 033d 42030000 		.4byte	0x342
 4340 0341 00       		.byte	0
 4341 0342 06       		.uleb128 0x6
 4342 0343 04       		.byte	0x4
 4343 0344 90010000 		.4byte	0x190
 4344 0348 04       		.uleb128 0x4
 4345 0349 A3070000 		.4byte	.LASF59
 4346 034d 08       		.byte	0x8
 4347 034e 7E       		.byte	0x7e
 4348 034f 53030000 		.4byte	0x353
 4349 0353 06       		.uleb128 0x6
 4350 0354 04       		.byte	0x4
 4351 0355 59030000 		.4byte	0x359
 4352 0359 0D       		.uleb128 0xd
 4353 035a 01       		.byte	0x1
 4354 035b 9B010000 		.4byte	0x19b
 4355 035f 6E030000 		.4byte	0x36e
 4356 0363 0E       		.uleb128 0xe
 4357 0364 1B020000 		.4byte	0x21b
 4358 0368 0E       		.uleb128 0xe
 4359 0369 15020000 		.4byte	0x215
 4360 036d 00       		.byte	0
 4361 036e 0F       		.uleb128 0xf
 4362 036f C5000000 		.4byte	0xc5
 4363 0373 7E030000 		.4byte	0x37e
 4364 0377 10       		.uleb128 0x10
 4365 0378 30000000 		.4byte	0x30
 4366 037c 05       		.byte	0x5
 4367 037d 00       		.byte	0
 4368 037e 0F       		.uleb128 0xf
 4369 037f BE000000 		.4byte	0xbe
 4370 0383 8E030000 		.4byte	0x38e
 4371 0387 10       		.uleb128 0x10
 4372 0388 30000000 		.4byte	0x30
 4373 038c 01       		.byte	0x1
 4374 038d 00       		.byte	0
 4375 038e 04       		.uleb128 0x4
ARM GAS  /tmp/ccgFJ4Zb.s 			page 79


 4376 038f 78000000 		.4byte	.LASF60
 4377 0393 09       		.byte	0x9
 4378 0394 3D       		.byte	0x3d
 4379 0395 99030000 		.4byte	0x399
 4380 0399 06       		.uleb128 0x6
 4381 039a 04       		.byte	0x4
 4382 039b 9F030000 		.4byte	0x39f
 4383 039f 0D       		.uleb128 0xd
 4384 03a0 01       		.byte	0x1
 4385 03a1 9B010000 		.4byte	0x19b
 4386 03a5 B9030000 		.4byte	0x3b9
 4387 03a9 0E       		.uleb128 0xe
 4388 03aa B1000000 		.4byte	0xb1
 4389 03ae 0E       		.uleb128 0xe
 4390 03af B9030000 		.4byte	0x3b9
 4391 03b3 0E       		.uleb128 0xe
 4392 03b4 9B010000 		.4byte	0x19b
 4393 03b8 00       		.byte	0
 4394 03b9 06       		.uleb128 0x6
 4395 03ba 04       		.byte	0x4
 4396 03bb BF030000 		.4byte	0x3bf
 4397 03bf 0A       		.uleb128 0xa
 4398 03c0 60090000 		.4byte	.LASF61
 4399 03c4 A4       		.byte	0xa4
 4400 03c5 09       		.byte	0x9
 4401 03c6 A9       		.byte	0xa9
 4402 03c7 CE060000 		.4byte	0x6ce
 4403 03cb 0B       		.uleb128 0xb
 4404 03cc 5D070000 		.4byte	.LASF62
 4405 03d0 09       		.byte	0x9
 4406 03d1 AB       		.byte	0xab
 4407 03d2 90010000 		.4byte	0x190
 4408 03d6 02       		.byte	0x2
 4409 03d7 23       		.byte	0x23
 4410 03d8 00       		.uleb128 0
 4411 03d9 0B       		.uleb128 0xb
 4412 03da 99090000 		.4byte	.LASF63
 4413 03de 09       		.byte	0x9
 4414 03df AB       		.byte	0xab
 4415 03e0 90010000 		.4byte	0x190
 4416 03e4 02       		.byte	0x2
 4417 03e5 23       		.byte	0x23
 4418 03e6 04       		.uleb128 0x4
 4419 03e7 0B       		.uleb128 0xb
 4420 03e8 3B000000 		.4byte	.LASF64
 4421 03ec 09       		.byte	0x9
 4422 03ed AB       		.byte	0xab
 4423 03ee C5000000 		.4byte	0xc5
 4424 03f2 02       		.byte	0x2
 4425 03f3 23       		.byte	0x23
 4426 03f4 08       		.uleb128 0x8
 4427 03f5 0C       		.uleb128 0xc
 4428 03f6 746F7300 		.ascii	"tos\000"
 4429 03fa 09       		.byte	0x9
 4430 03fb AB       		.byte	0xab
 4431 03fc C5000000 		.4byte	0xc5
 4432 0400 02       		.byte	0x2
ARM GAS  /tmp/ccgFJ4Zb.s 			page 80


 4433 0401 23       		.byte	0x23
 4434 0402 09       		.uleb128 0x9
 4435 0403 0C       		.uleb128 0xc
 4436 0404 74746C00 		.ascii	"ttl\000"
 4437 0408 09       		.byte	0x9
 4438 0409 AB       		.byte	0xab
 4439 040a C5000000 		.4byte	0xc5
 4440 040e 02       		.byte	0x2
 4441 040f 23       		.byte	0x23
 4442 0410 0A       		.uleb128 0xa
 4443 0411 0B       		.uleb128 0xb
 4444 0412 D9000000 		.4byte	.LASF43
 4445 0416 09       		.byte	0x9
 4446 0417 AD       		.byte	0xad
 4447 0418 B9030000 		.4byte	0x3b9
 4448 041c 02       		.byte	0x2
 4449 041d 23       		.byte	0x23
 4450 041e 0C       		.uleb128 0xc
 4451 041f 0B       		.uleb128 0xb
 4452 0420 0D090000 		.4byte	.LASF53
 4453 0424 09       		.byte	0x9
 4454 0425 AD       		.byte	0xad
 4455 0426 7C070000 		.4byte	0x77c
 4456 042a 02       		.byte	0x2
 4457 042b 23       		.byte	0x23
 4458 042c 10       		.uleb128 0x10
 4459 042d 0B       		.uleb128 0xb
 4460 042e 26040000 		.4byte	.LASF65
 4461 0432 09       		.byte	0x9
 4462 0433 AD       		.byte	0xad
 4463 0434 C5000000 		.4byte	0xc5
 4464 0438 02       		.byte	0x2
 4465 0439 23       		.byte	0x23
 4466 043a 11       		.uleb128 0x11
 4467 043b 0B       		.uleb128 0xb
 4468 043c EF080000 		.4byte	.LASF66
 4469 0440 09       		.byte	0x9
 4470 0441 AD       		.byte	0xad
 4471 0442 B1000000 		.4byte	0xb1
 4472 0446 02       		.byte	0x2
 4473 0447 23       		.byte	0x23
 4474 0448 14       		.uleb128 0x14
 4475 0449 0B       		.uleb128 0xb
 4476 044a 2B040000 		.4byte	.LASF67
 4477 044e 09       		.byte	0x9
 4478 044f AD       		.byte	0xad
 4479 0450 8E030000 		.4byte	0x38e
 4480 0454 02       		.byte	0x2
 4481 0455 23       		.byte	0x23
 4482 0456 18       		.uleb128 0x18
 4483 0457 0B       		.uleb128 0xb
 4484 0458 3B020000 		.4byte	.LASF68
 4485 045c 09       		.byte	0x9
 4486 045d AD       		.byte	0xad
 4487 045e DB000000 		.4byte	0xdb
 4488 0462 02       		.byte	0x2
 4489 0463 23       		.byte	0x23
ARM GAS  /tmp/ccgFJ4Zb.s 			page 81


 4490 0464 1C       		.uleb128 0x1c
 4491 0465 0B       		.uleb128 0xb
 4492 0466 0E060000 		.4byte	.LASF69
 4493 046a 09       		.byte	0x9
 4494 046b B0       		.byte	0xb0
 4495 046c DB000000 		.4byte	0xdb
 4496 0470 02       		.byte	0x2
 4497 0471 23       		.byte	0x23
 4498 0472 1E       		.uleb128 0x1e
 4499 0473 0B       		.uleb128 0xb
 4500 0474 86000000 		.4byte	.LASF47
 4501 0478 09       		.byte	0x9
 4502 0479 B2       		.byte	0xb2
 4503 047a C5000000 		.4byte	0xc5
 4504 047e 02       		.byte	0x2
 4505 047f 23       		.byte	0x23
 4506 0480 20       		.uleb128 0x20
 4507 0481 0B       		.uleb128 0xb
 4508 0482 20030000 		.4byte	.LASF70
 4509 0486 09       		.byte	0x9
 4510 0487 BF       		.byte	0xbf
 4511 0488 F1000000 		.4byte	0xf1
 4512 048c 02       		.byte	0x2
 4513 048d 23       		.byte	0x23
 4514 048e 24       		.uleb128 0x24
 4515 048f 0B       		.uleb128 0xb
 4516 0490 3C070000 		.4byte	.LASF71
 4517 0494 09       		.byte	0x9
 4518 0495 C0       		.byte	0xc0
 4519 0496 DB000000 		.4byte	0xdb
 4520 049a 02       		.byte	0x2
 4521 049b 23       		.byte	0x23
 4522 049c 28       		.uleb128 0x28
 4523 049d 0B       		.uleb128 0xb
 4524 049e 34060000 		.4byte	.LASF72
 4525 04a2 09       		.byte	0x9
 4526 04a3 C1       		.byte	0xc1
 4527 04a4 DB000000 		.4byte	0xdb
 4528 04a8 02       		.byte	0x2
 4529 04a9 23       		.byte	0x23
 4530 04aa 2A       		.uleb128 0x2a
 4531 04ab 0B       		.uleb128 0xb
 4532 04ac 40010000 		.4byte	.LASF73
 4533 04b0 09       		.byte	0x9
 4534 04b1 C2       		.byte	0xc2
 4535 04b2 F1000000 		.4byte	0xf1
 4536 04b6 02       		.byte	0x2
 4537 04b7 23       		.byte	0x23
 4538 04b8 2C       		.uleb128 0x2c
 4539 04b9 0C       		.uleb128 0xc
 4540 04ba 746D7200 		.ascii	"tmr\000"
 4541 04be 09       		.byte	0x9
 4542 04bf C5       		.byte	0xc5
 4543 04c0 F1000000 		.4byte	0xf1
 4544 04c4 02       		.byte	0x2
 4545 04c5 23       		.byte	0x23
 4546 04c6 30       		.uleb128 0x30
ARM GAS  /tmp/ccgFJ4Zb.s 			page 82


 4547 04c7 0B       		.uleb128 0xb
 4548 04c8 70000000 		.4byte	.LASF74
 4549 04cc 09       		.byte	0x9
 4550 04cd C6       		.byte	0xc6
 4551 04ce C5000000 		.4byte	0xc5
 4552 04d2 02       		.byte	0x2
 4553 04d3 23       		.byte	0x23
 4554 04d4 34       		.uleb128 0x34
 4555 04d5 0B       		.uleb128 0xb
 4556 04d6 DD070000 		.4byte	.LASF75
 4557 04da 09       		.byte	0x9
 4558 04db C6       		.byte	0xc6
 4559 04dc C5000000 		.4byte	0xc5
 4560 04e0 02       		.byte	0x2
 4561 04e1 23       		.byte	0x23
 4562 04e2 35       		.uleb128 0x35
 4563 04e3 0B       		.uleb128 0xb
 4564 04e4 FC020000 		.4byte	.LASF76
 4565 04e8 09       		.byte	0x9
 4566 04e9 C9       		.byte	0xc9
 4567 04ea E6000000 		.4byte	0xe6
 4568 04ee 02       		.byte	0x2
 4569 04ef 23       		.byte	0x23
 4570 04f0 36       		.uleb128 0x36
 4571 04f1 0C       		.uleb128 0xc
 4572 04f2 6D737300 		.ascii	"mss\000"
 4573 04f6 09       		.byte	0x9
 4574 04f7 CB       		.byte	0xcb
 4575 04f8 DB000000 		.4byte	0xdb
 4576 04fc 02       		.byte	0x2
 4577 04fd 23       		.byte	0x23
 4578 04fe 38       		.uleb128 0x38
 4579 04ff 0B       		.uleb128 0xb
 4580 0500 44070000 		.4byte	.LASF77
 4581 0504 09       		.byte	0x9
 4582 0505 CE       		.byte	0xce
 4583 0506 F1000000 		.4byte	0xf1
 4584 050a 02       		.byte	0x2
 4585 050b 23       		.byte	0x23
 4586 050c 3C       		.uleb128 0x3c
 4587 050d 0B       		.uleb128 0xb
 4588 050e 08040000 		.4byte	.LASF78
 4589 0512 09       		.byte	0x9
 4590 0513 CF       		.byte	0xcf
 4591 0514 F1000000 		.4byte	0xf1
 4592 0518 02       		.byte	0x2
 4593 0519 23       		.byte	0x23
 4594 051a 40       		.uleb128 0x40
 4595 051b 0C       		.uleb128 0xc
 4596 051c 736100   		.ascii	"sa\000"
 4597 051f 09       		.byte	0x9
 4598 0520 D0       		.byte	0xd0
 4599 0521 E6000000 		.4byte	0xe6
 4600 0525 02       		.byte	0x2
 4601 0526 23       		.byte	0x23
 4602 0527 44       		.uleb128 0x44
 4603 0528 0C       		.uleb128 0xc
ARM GAS  /tmp/ccgFJ4Zb.s 			page 83


 4604 0529 737600   		.ascii	"sv\000"
 4605 052c 09       		.byte	0x9
 4606 052d D0       		.byte	0xd0
 4607 052e E6000000 		.4byte	0xe6
 4608 0532 02       		.byte	0x2
 4609 0533 23       		.byte	0x23
 4610 0534 46       		.uleb128 0x46
 4611 0535 0C       		.uleb128 0xc
 4612 0536 72746F00 		.ascii	"rto\000"
 4613 053a 09       		.byte	0x9
 4614 053b D2       		.byte	0xd2
 4615 053c E6000000 		.4byte	0xe6
 4616 0540 02       		.byte	0x2
 4617 0541 23       		.byte	0x23
 4618 0542 48       		.uleb128 0x48
 4619 0543 0B       		.uleb128 0xb
 4620 0544 ED090000 		.4byte	.LASF79
 4621 0548 09       		.byte	0x9
 4622 0549 D3       		.byte	0xd3
 4623 054a C5000000 		.4byte	0xc5
 4624 054e 02       		.byte	0x2
 4625 054f 23       		.byte	0x23
 4626 0550 4A       		.uleb128 0x4a
 4627 0551 0B       		.uleb128 0xb
 4628 0552 D0030000 		.4byte	.LASF80
 4629 0556 09       		.byte	0x9
 4630 0557 D6       		.byte	0xd6
 4631 0558 F1000000 		.4byte	0xf1
 4632 055c 02       		.byte	0x2
 4633 055d 23       		.byte	0x23
 4634 055e 4C       		.uleb128 0x4c
 4635 055f 0B       		.uleb128 0xb
 4636 0560 1E040000 		.4byte	.LASF81
 4637 0564 09       		.byte	0x9
 4638 0565 D7       		.byte	0xd7
 4639 0566 C5000000 		.4byte	0xc5
 4640 056a 02       		.byte	0x2
 4641 056b 23       		.byte	0x23
 4642 056c 50       		.uleb128 0x50
 4643 056d 0B       		.uleb128 0xb
 4644 056e 0F020000 		.4byte	.LASF82
 4645 0572 09       		.byte	0x9
 4646 0573 DA       		.byte	0xda
 4647 0574 DB000000 		.4byte	0xdb
 4648 0578 02       		.byte	0x2
 4649 0579 23       		.byte	0x23
 4650 057a 52       		.uleb128 0x52
 4651 057b 0B       		.uleb128 0xb
 4652 057c CC070000 		.4byte	.LASF83
 4653 0580 09       		.byte	0x9
 4654 0581 DB       		.byte	0xdb
 4655 0582 DB000000 		.4byte	0xdb
 4656 0586 02       		.byte	0x2
 4657 0587 23       		.byte	0x23
 4658 0588 54       		.uleb128 0x54
 4659 0589 0B       		.uleb128 0xb
 4660 058a 81070000 		.4byte	.LASF84
ARM GAS  /tmp/ccgFJ4Zb.s 			page 84


 4661 058e 09       		.byte	0x9
 4662 058f DE       		.byte	0xde
 4663 0590 F1000000 		.4byte	0xf1
 4664 0594 02       		.byte	0x2
 4665 0595 23       		.byte	0x23
 4666 0596 58       		.uleb128 0x58
 4667 0597 0B       		.uleb128 0xb
 4668 0598 C3060000 		.4byte	.LASF85
 4669 059c 09       		.byte	0x9
 4670 059d DF       		.byte	0xdf
 4671 059e DB000000 		.4byte	0xdb
 4672 05a2 02       		.byte	0x2
 4673 05a3 23       		.byte	0x23
 4674 05a4 5C       		.uleb128 0x5c
 4675 05a5 0B       		.uleb128 0xb
 4676 05a6 E8040000 		.4byte	.LASF86
 4677 05aa 09       		.byte	0x9
 4678 05ab E0       		.byte	0xe0
 4679 05ac F1000000 		.4byte	0xf1
 4680 05b0 02       		.byte	0x2
 4681 05b1 23       		.byte	0x23
 4682 05b2 60       		.uleb128 0x60
 4683 05b3 0B       		.uleb128 0xb
 4684 05b4 F0040000 		.4byte	.LASF87
 4685 05b8 09       		.byte	0x9
 4686 05b9 E0       		.byte	0xe0
 4687 05ba F1000000 		.4byte	0xf1
 4688 05be 02       		.byte	0x2
 4689 05bf 23       		.byte	0x23
 4690 05c0 64       		.uleb128 0x64
 4691 05c1 0B       		.uleb128 0xb
 4692 05c2 2A050000 		.4byte	.LASF88
 4693 05c6 09       		.byte	0x9
 4694 05c7 E2       		.byte	0xe2
 4695 05c8 F1000000 		.4byte	0xf1
 4696 05cc 02       		.byte	0x2
 4697 05cd 23       		.byte	0x23
 4698 05ce 68       		.uleb128 0x68
 4699 05cf 0B       		.uleb128 0xb
 4700 05d0 5D040000 		.4byte	.LASF89
 4701 05d4 09       		.byte	0x9
 4702 05d5 E4       		.byte	0xe4
 4703 05d6 DB000000 		.4byte	0xdb
 4704 05da 02       		.byte	0x2
 4705 05db 23       		.byte	0x23
 4706 05dc 6C       		.uleb128 0x6c
 4707 05dd 0B       		.uleb128 0xb
 4708 05de D5070000 		.4byte	.LASF90
 4709 05e2 09       		.byte	0x9
 4710 05e3 E6       		.byte	0xe6
 4711 05e4 DB000000 		.4byte	0xdb
 4712 05e8 02       		.byte	0x2
 4713 05e9 23       		.byte	0x23
 4714 05ea 6E       		.uleb128 0x6e
 4715 05eb 0B       		.uleb128 0xb
 4716 05ec 30090000 		.4byte	.LASF91
 4717 05f0 09       		.byte	0x9
ARM GAS  /tmp/ccgFJ4Zb.s 			page 85


 4718 05f1 E8       		.byte	0xe8
 4719 05f2 DB000000 		.4byte	0xdb
 4720 05f6 02       		.byte	0x2
 4721 05f7 23       		.byte	0x23
 4722 05f8 70       		.uleb128 0x70
 4723 05f9 0B       		.uleb128 0xb
 4724 05fa 6B070000 		.4byte	.LASF92
 4725 05fe 09       		.byte	0x9
 4726 05ff EC       		.byte	0xec
 4727 0600 DB000000 		.4byte	0xdb
 4728 0604 02       		.byte	0x2
 4729 0605 23       		.byte	0x23
 4730 0606 72       		.uleb128 0x72
 4731 0607 0B       		.uleb128 0xb
 4732 0608 D4040000 		.4byte	.LASF93
 4733 060c 09       		.byte	0x9
 4734 060d F0       		.byte	0xf0
 4735 060e 22080000 		.4byte	0x822
 4736 0612 02       		.byte	0x2
 4737 0613 23       		.byte	0x23
 4738 0614 74       		.uleb128 0x74
 4739 0615 0B       		.uleb128 0xb
 4740 0616 42030000 		.4byte	.LASF94
 4741 061a 09       		.byte	0x9
 4742 061b F1       		.byte	0xf1
 4743 061c 22080000 		.4byte	0x822
 4744 0620 02       		.byte	0x2
 4745 0621 23       		.byte	0x23
 4746 0622 78       		.uleb128 0x78
 4747 0623 0B       		.uleb128 0xb
 4748 0624 F4060000 		.4byte	.LASF95
 4749 0628 09       		.byte	0x9
 4750 0629 F3       		.byte	0xf3
 4751 062a 22080000 		.4byte	0x822
 4752 062e 02       		.byte	0x2
 4753 062f 23       		.byte	0x23
 4754 0630 7C       		.uleb128 0x7c
 4755 0631 0B       		.uleb128 0xb
 4756 0632 4D080000 		.4byte	.LASF96
 4757 0636 09       		.byte	0x9
 4758 0637 F6       		.byte	0xf6
 4759 0638 15020000 		.4byte	0x215
 4760 063c 03       		.byte	0x3
 4761 063d 23       		.byte	0x23
 4762 063e 8001     		.uleb128 0x80
 4763 0640 0B       		.uleb128 0xb
 4764 0641 DB040000 		.4byte	.LASF97
 4765 0645 09       		.byte	0x9
 4766 0646 FA       		.byte	0xfa
 4767 0647 FE060000 		.4byte	0x6fe
 4768 064b 03       		.byte	0x3
 4769 064c 23       		.byte	0x23
 4770 064d 8401     		.uleb128 0x84
 4771 064f 0B       		.uleb128 0xb
 4772 0650 4F090000 		.4byte	.LASF98
 4773 0654 09       		.byte	0x9
 4774 0655 FC       		.byte	0xfc
ARM GAS  /tmp/ccgFJ4Zb.s 			page 86


 4775 0656 CE060000 		.4byte	0x6ce
 4776 065a 03       		.byte	0x3
 4777 065b 23       		.byte	0x23
 4778 065c 8801     		.uleb128 0x88
 4779 065e 0B       		.uleb128 0xb
 4780 065f 97030000 		.4byte	.LASF99
 4781 0663 09       		.byte	0x9
 4782 0664 FE       		.byte	0xfe
 4783 0665 71070000 		.4byte	0x771
 4784 0669 03       		.byte	0x3
 4785 066a 23       		.byte	0x23
 4786 066b 8C01     		.uleb128 0x8c
 4787 066d 11       		.uleb128 0x11
 4788 066e 3C040000 		.4byte	.LASF100
 4789 0672 09       		.byte	0x9
 4790 0673 0001     		.2byte	0x100
 4791 0675 29070000 		.4byte	0x729
 4792 0679 03       		.byte	0x3
 4793 067a 23       		.byte	0x23
 4794 067b 9001     		.uleb128 0x90
 4795 067d 11       		.uleb128 0x11
 4796 067e BE060000 		.4byte	.LASF101
 4797 0682 09       		.byte	0x9
 4798 0683 0201     		.2byte	0x102
 4799 0685 4F070000 		.4byte	0x74f
 4800 0689 03       		.byte	0x3
 4801 068a 23       		.byte	0x23
 4802 068b 9401     		.uleb128 0x94
 4803 068d 11       		.uleb128 0x11
 4804 068e E5080000 		.4byte	.LASF102
 4805 0692 09       		.byte	0x9
 4806 0693 0B01     		.2byte	0x10b
 4807 0695 F1000000 		.4byte	0xf1
 4808 0699 03       		.byte	0x3
 4809 069a 23       		.byte	0x23
 4810 069b 9801     		.uleb128 0x98
 4811 069d 11       		.uleb128 0x11
 4812 069e 8D090000 		.4byte	.LASF103
 4813 06a2 09       		.byte	0x9
 4814 06a3 1201     		.2byte	0x112
 4815 06a5 F1000000 		.4byte	0xf1
 4816 06a9 03       		.byte	0x3
 4817 06aa 23       		.byte	0x23
 4818 06ab 9C01     		.uleb128 0x9c
 4819 06ad 11       		.uleb128 0x11
 4820 06ae 94050000 		.4byte	.LASF104
 4821 06b2 09       		.byte	0x9
 4822 06b3 1401     		.2byte	0x114
 4823 06b5 C5000000 		.4byte	0xc5
 4824 06b9 03       		.byte	0x3
 4825 06ba 23       		.byte	0x23
 4826 06bb A001     		.uleb128 0xa0
 4827 06bd 11       		.uleb128 0x11
 4828 06be 7B010000 		.4byte	.LASF105
 4829 06c2 09       		.byte	0x9
 4830 06c3 1701     		.2byte	0x117
 4831 06c5 C5000000 		.4byte	0xc5
ARM GAS  /tmp/ccgFJ4Zb.s 			page 87


 4832 06c9 03       		.byte	0x3
 4833 06ca 23       		.byte	0x23
 4834 06cb A101     		.uleb128 0xa1
 4835 06cd 00       		.byte	0
 4836 06ce 04       		.uleb128 0x4
 4837 06cf 56060000 		.4byte	.LASF106
 4838 06d3 09       		.byte	0x9
 4839 06d4 49       		.byte	0x49
 4840 06d5 D9060000 		.4byte	0x6d9
 4841 06d9 06       		.uleb128 0x6
 4842 06da 04       		.byte	0x4
 4843 06db DF060000 		.4byte	0x6df
 4844 06df 0D       		.uleb128 0xd
 4845 06e0 01       		.byte	0x1
 4846 06e1 9B010000 		.4byte	0x19b
 4847 06e5 FE060000 		.4byte	0x6fe
 4848 06e9 0E       		.uleb128 0xe
 4849 06ea B1000000 		.4byte	0xb1
 4850 06ee 0E       		.uleb128 0xe
 4851 06ef B9030000 		.4byte	0x3b9
 4852 06f3 0E       		.uleb128 0xe
 4853 06f4 15020000 		.4byte	0x215
 4854 06f8 0E       		.uleb128 0xe
 4855 06f9 9B010000 		.4byte	0x19b
 4856 06fd 00       		.byte	0
 4857 06fe 04       		.uleb128 0x4
 4858 06ff A3010000 		.4byte	.LASF107
 4859 0703 09       		.byte	0x9
 4860 0704 57       		.byte	0x57
 4861 0705 09070000 		.4byte	0x709
 4862 0709 06       		.uleb128 0x6
 4863 070a 04       		.byte	0x4
 4864 070b 0F070000 		.4byte	0x70f
 4865 070f 0D       		.uleb128 0xd
 4866 0710 01       		.byte	0x1
 4867 0711 9B010000 		.4byte	0x19b
 4868 0715 29070000 		.4byte	0x729
 4869 0719 0E       		.uleb128 0xe
 4870 071a B1000000 		.4byte	0xb1
 4871 071e 0E       		.uleb128 0xe
 4872 071f B9030000 		.4byte	0x3b9
 4873 0723 0E       		.uleb128 0xe
 4874 0724 DB000000 		.4byte	0xdb
 4875 0728 00       		.byte	0
 4876 0729 04       		.uleb128 0x4
 4877 072a 98060000 		.4byte	.LASF108
 4878 072e 09       		.byte	0x9
 4879 072f 63       		.byte	0x63
 4880 0730 34070000 		.4byte	0x734
 4881 0734 06       		.uleb128 0x6
 4882 0735 04       		.byte	0x4
 4883 0736 3A070000 		.4byte	0x73a
 4884 073a 0D       		.uleb128 0xd
 4885 073b 01       		.byte	0x1
 4886 073c 9B010000 		.4byte	0x19b
 4887 0740 4F070000 		.4byte	0x74f
 4888 0744 0E       		.uleb128 0xe
ARM GAS  /tmp/ccgFJ4Zb.s 			page 88


 4889 0745 B1000000 		.4byte	0xb1
 4890 0749 0E       		.uleb128 0xe
 4891 074a B9030000 		.4byte	0x3b9
 4892 074e 00       		.byte	0
 4893 074f 04       		.uleb128 0x4
 4894 0750 0D050000 		.4byte	.LASF109
 4895 0754 09       		.byte	0x9
 4896 0755 6F       		.byte	0x6f
 4897 0756 5A070000 		.4byte	0x75a
 4898 075a 06       		.uleb128 0x6
 4899 075b 04       		.byte	0x4
 4900 075c 60070000 		.4byte	0x760
 4901 0760 12       		.uleb128 0x12
 4902 0761 01       		.byte	0x1
 4903 0762 71070000 		.4byte	0x771
 4904 0766 0E       		.uleb128 0xe
 4905 0767 B1000000 		.4byte	0xb1
 4906 076b 0E       		.uleb128 0xe
 4907 076c 9B010000 		.4byte	0x19b
 4908 0770 00       		.byte	0
 4909 0771 04       		.uleb128 0x4
 4910 0772 C8000000 		.4byte	.LASF110
 4911 0776 09       		.byte	0x9
 4912 0777 7D       		.byte	0x7d
 4913 0778 99030000 		.4byte	0x399
 4914 077c 13       		.uleb128 0x13
 4915 077d F2020000 		.4byte	.LASF235
 4916 0781 01       		.byte	0x1
 4917 0782 09       		.byte	0x9
 4918 0783 7F       		.byte	0x7f
 4919 0784 CB070000 		.4byte	0x7cb
 4920 0788 09       		.uleb128 0x9
 4921 0789 FA060000 		.4byte	.LASF111
 4922 078d 00       		.sleb128 0
 4923 078e 09       		.uleb128 0x9
 4924 078f FC080000 		.4byte	.LASF112
 4925 0793 01       		.sleb128 1
 4926 0794 09       		.uleb128 0x9
 4927 0795 CD080000 		.4byte	.LASF113
 4928 0799 02       		.sleb128 2
 4929 079a 09       		.uleb128 0x9
 4930 079b FF090000 		.4byte	.LASF114
 4931 079f 03       		.sleb128 3
 4932 07a0 09       		.uleb128 0x9
 4933 07a1 89070000 		.4byte	.LASF115
 4934 07a5 04       		.sleb128 4
 4935 07a6 09       		.uleb128 0x9
 4936 07a7 A3080000 		.4byte	.LASF116
 4937 07ab 05       		.sleb128 5
 4938 07ac 09       		.uleb128 0x9
 4939 07ad AE080000 		.4byte	.LASF117
 4940 07b1 06       		.sleb128 6
 4941 07b2 09       		.uleb128 0x9
 4942 07b3 63040000 		.4byte	.LASF118
 4943 07b7 07       		.sleb128 7
 4944 07b8 09       		.uleb128 0x9
 4945 07b9 C0030000 		.4byte	.LASF119
ARM GAS  /tmp/ccgFJ4Zb.s 			page 89


 4946 07bd 08       		.sleb128 8
 4947 07be 09       		.uleb128 0x9
 4948 07bf 5D030000 		.4byte	.LASF120
 4949 07c3 09       		.sleb128 9
 4950 07c4 09       		.uleb128 0x9
 4951 07c5 A8000000 		.4byte	.LASF121
 4952 07c9 0A       		.sleb128 10
 4953 07ca 00       		.byte	0
 4954 07cb 14       		.uleb128 0x14
 4955 07cc 7A020000 		.4byte	.LASF122
 4956 07d0 10       		.byte	0x10
 4957 07d1 0A       		.byte	0xa
 4958 07d2 1601     		.2byte	0x116
 4959 07d4 22080000 		.4byte	0x822
 4960 07d8 11       		.uleb128 0x11
 4961 07d9 D9000000 		.4byte	.LASF43
 4962 07dd 0A       		.byte	0xa
 4963 07de 1701     		.2byte	0x117
 4964 07e0 22080000 		.4byte	0x822
 4965 07e4 02       		.byte	0x2
 4966 07e5 23       		.byte	0x23
 4967 07e6 00       		.uleb128 0
 4968 07e7 15       		.uleb128 0x15
 4969 07e8 7000     		.ascii	"p\000"
 4970 07ea 0A       		.byte	0xa
 4971 07eb 1801     		.2byte	0x118
 4972 07ed 15020000 		.4byte	0x215
 4973 07f1 02       		.byte	0x2
 4974 07f2 23       		.byte	0x23
 4975 07f3 04       		.uleb128 0x4
 4976 07f4 15       		.uleb128 0x15
 4977 07f5 6C656E00 		.ascii	"len\000"
 4978 07f9 0A       		.byte	0xa
 4979 07fa 1901     		.2byte	0x119
 4980 07fc DB000000 		.4byte	0xdb
 4981 0800 02       		.byte	0x2
 4982 0801 23       		.byte	0x23
 4983 0802 08       		.uleb128 0x8
 4984 0803 11       		.uleb128 0x11
 4985 0804 86000000 		.4byte	.LASF47
 4986 0808 0A       		.byte	0xa
 4987 0809 2301     		.2byte	0x123
 4988 080b C5000000 		.4byte	0xc5
 4989 080f 02       		.byte	0x2
 4990 0810 23       		.byte	0x23
 4991 0811 0A       		.uleb128 0xa
 4992 0812 11       		.uleb128 0x11
 4993 0813 33080000 		.4byte	.LASF123
 4994 0817 0A       		.byte	0xa
 4995 0818 2801     		.2byte	0x128
 4996 081a 5E090000 		.4byte	0x95e
 4997 081e 02       		.byte	0x2
 4998 081f 23       		.byte	0x23
 4999 0820 0C       		.uleb128 0xc
 5000 0821 00       		.byte	0
 5001 0822 06       		.uleb128 0x6
 5002 0823 04       		.byte	0x4
ARM GAS  /tmp/ccgFJ4Zb.s 			page 90


 5003 0824 CB070000 		.4byte	0x7cb
 5004 0828 14       		.uleb128 0x14
 5005 0829 6B050000 		.4byte	.LASF124
 5006 082d 20       		.byte	0x20
 5007 082e 09       		.byte	0x9
 5008 082f 1A01     		.2byte	0x11a
 5009 0831 DB080000 		.4byte	0x8db
 5010 0835 11       		.uleb128 0x11
 5011 0836 5D070000 		.4byte	.LASF62
 5012 083a 09       		.byte	0x9
 5013 083b 1C01     		.2byte	0x11c
 5014 083d 90010000 		.4byte	0x190
 5015 0841 02       		.byte	0x2
 5016 0842 23       		.byte	0x23
 5017 0843 00       		.uleb128 0
 5018 0844 11       		.uleb128 0x11
 5019 0845 99090000 		.4byte	.LASF63
 5020 0849 09       		.byte	0x9
 5021 084a 1C01     		.2byte	0x11c
 5022 084c 90010000 		.4byte	0x190
 5023 0850 02       		.byte	0x2
 5024 0851 23       		.byte	0x23
 5025 0852 04       		.uleb128 0x4
 5026 0853 11       		.uleb128 0x11
 5027 0854 3B000000 		.4byte	.LASF64
 5028 0858 09       		.byte	0x9
 5029 0859 1C01     		.2byte	0x11c
 5030 085b C5000000 		.4byte	0xc5
 5031 085f 02       		.byte	0x2
 5032 0860 23       		.byte	0x23
 5033 0861 08       		.uleb128 0x8
 5034 0862 15       		.uleb128 0x15
 5035 0863 746F7300 		.ascii	"tos\000"
 5036 0867 09       		.byte	0x9
 5037 0868 1C01     		.2byte	0x11c
 5038 086a C5000000 		.4byte	0xc5
 5039 086e 02       		.byte	0x2
 5040 086f 23       		.byte	0x23
 5041 0870 09       		.uleb128 0x9
 5042 0871 15       		.uleb128 0x15
 5043 0872 74746C00 		.ascii	"ttl\000"
 5044 0876 09       		.byte	0x9
 5045 0877 1C01     		.2byte	0x11c
 5046 0879 C5000000 		.4byte	0xc5
 5047 087d 02       		.byte	0x2
 5048 087e 23       		.byte	0x23
 5049 087f 0A       		.uleb128 0xa
 5050 0880 11       		.uleb128 0x11
 5051 0881 D9000000 		.4byte	.LASF43
 5052 0885 09       		.byte	0x9
 5053 0886 1E01     		.2byte	0x11e
 5054 0888 DB080000 		.4byte	0x8db
 5055 088c 02       		.byte	0x2
 5056 088d 23       		.byte	0x23
 5057 088e 0C       		.uleb128 0xc
 5058 088f 11       		.uleb128 0x11
 5059 0890 0D090000 		.4byte	.LASF53
ARM GAS  /tmp/ccgFJ4Zb.s 			page 91


 5060 0894 09       		.byte	0x9
 5061 0895 1E01     		.2byte	0x11e
 5062 0897 7C070000 		.4byte	0x77c
 5063 089b 02       		.byte	0x2
 5064 089c 23       		.byte	0x23
 5065 089d 10       		.uleb128 0x10
 5066 089e 11       		.uleb128 0x11
 5067 089f 26040000 		.4byte	.LASF65
 5068 08a3 09       		.byte	0x9
 5069 08a4 1E01     		.2byte	0x11e
 5070 08a6 C5000000 		.4byte	0xc5
 5071 08aa 02       		.byte	0x2
 5072 08ab 23       		.byte	0x23
 5073 08ac 11       		.uleb128 0x11
 5074 08ad 11       		.uleb128 0x11
 5075 08ae EF080000 		.4byte	.LASF66
 5076 08b2 09       		.byte	0x9
 5077 08b3 1E01     		.2byte	0x11e
 5078 08b5 B1000000 		.4byte	0xb1
 5079 08b9 02       		.byte	0x2
 5080 08ba 23       		.byte	0x23
 5081 08bb 14       		.uleb128 0x14
 5082 08bc 11       		.uleb128 0x11
 5083 08bd 2B040000 		.4byte	.LASF67
 5084 08c1 09       		.byte	0x9
 5085 08c2 1E01     		.2byte	0x11e
 5086 08c4 8E030000 		.4byte	0x38e
 5087 08c8 02       		.byte	0x2
 5088 08c9 23       		.byte	0x23
 5089 08ca 18       		.uleb128 0x18
 5090 08cb 11       		.uleb128 0x11
 5091 08cc 3B020000 		.4byte	.LASF68
 5092 08d0 09       		.byte	0x9
 5093 08d1 1E01     		.2byte	0x11e
 5094 08d3 DB000000 		.4byte	0xdb
 5095 08d7 02       		.byte	0x2
 5096 08d8 23       		.byte	0x23
 5097 08d9 1C       		.uleb128 0x1c
 5098 08da 00       		.byte	0
 5099 08db 06       		.uleb128 0x6
 5100 08dc 04       		.byte	0x4
 5101 08dd 28080000 		.4byte	0x828
 5102 08e1 0A       		.uleb128 0xa
 5103 08e2 6E080000 		.4byte	.LASF125
 5104 08e6 14       		.byte	0x14
 5105 08e7 0A       		.byte	0xa
 5106 08e8 9E       		.byte	0x9e
 5107 08e9 5E090000 		.4byte	0x95e
 5108 08ed 0C       		.uleb128 0xc
 5109 08ee 73726300 		.ascii	"src\000"
 5110 08f2 0A       		.byte	0xa
 5111 08f3 9F       		.byte	0x9f
 5112 08f4 DB000000 		.4byte	0xdb
 5113 08f8 02       		.byte	0x2
 5114 08f9 23       		.byte	0x23
 5115 08fa 00       		.uleb128 0
 5116 08fb 0B       		.uleb128 0xb
ARM GAS  /tmp/ccgFJ4Zb.s 			page 92


 5117 08fc F2090000 		.4byte	.LASF126
 5118 0900 0A       		.byte	0xa
 5119 0901 A0       		.byte	0xa0
 5120 0902 DB000000 		.4byte	0xdb
 5121 0906 02       		.byte	0x2
 5122 0907 23       		.byte	0x23
 5123 0908 02       		.uleb128 0x2
 5124 0909 0B       		.uleb128 0xb
 5125 090a E0010000 		.4byte	.LASF127
 5126 090e 0A       		.byte	0xa
 5127 090f A1       		.byte	0xa1
 5128 0910 F1000000 		.4byte	0xf1
 5129 0914 02       		.byte	0x2
 5130 0915 23       		.byte	0x23
 5131 0916 04       		.uleb128 0x4
 5132 0917 0B       		.uleb128 0xb
 5133 0918 7A050000 		.4byte	.LASF128
 5134 091c 0A       		.byte	0xa
 5135 091d A2       		.byte	0xa2
 5136 091e F1000000 		.4byte	0xf1
 5137 0922 02       		.byte	0x2
 5138 0923 23       		.byte	0x23
 5139 0924 08       		.uleb128 0x8
 5140 0925 0B       		.uleb128 0xb
 5141 0926 F7070000 		.4byte	.LASF129
 5142 092a 0A       		.byte	0xa
 5143 092b A3       		.byte	0xa3
 5144 092c DB000000 		.4byte	0xdb
 5145 0930 02       		.byte	0x2
 5146 0931 23       		.byte	0x23
 5147 0932 0C       		.uleb128 0xc
 5148 0933 0C       		.uleb128 0xc
 5149 0934 776E6400 		.ascii	"wnd\000"
 5150 0938 0A       		.byte	0xa
 5151 0939 A4       		.byte	0xa4
 5152 093a DB000000 		.4byte	0xdb
 5153 093e 02       		.byte	0x2
 5154 093f 23       		.byte	0x23
 5155 0940 0E       		.uleb128 0xe
 5156 0941 0B       		.uleb128 0xb
 5157 0942 3D090000 		.4byte	.LASF130
 5158 0946 0A       		.byte	0xa
 5159 0947 A5       		.byte	0xa5
 5160 0948 DB000000 		.4byte	0xdb
 5161 094c 02       		.byte	0x2
 5162 094d 23       		.byte	0x23
 5163 094e 10       		.uleb128 0x10
 5164 094f 0B       		.uleb128 0xb
 5165 0950 6B000000 		.4byte	.LASF131
 5166 0954 0A       		.byte	0xa
 5167 0955 A6       		.byte	0xa6
 5168 0956 DB000000 		.4byte	0xdb
 5169 095a 02       		.byte	0x2
 5170 095b 23       		.byte	0x23
 5171 095c 12       		.uleb128 0x12
 5172 095d 00       		.byte	0
 5173 095e 06       		.uleb128 0x6
ARM GAS  /tmp/ccgFJ4Zb.s 			page 93


 5174 095f 04       		.byte	0x4
 5175 0960 E1080000 		.4byte	0x8e1
 5176 0964 16       		.uleb128 0x16
 5177 0965 18050000 		.4byte	.LASF236
 5178 0969 04       		.byte	0x4
 5179 096a 0A       		.byte	0xa
 5180 096b 3A01     		.2byte	0x13a
 5181 096d 8A090000 		.4byte	0x98a
 5182 0971 17       		.uleb128 0x17
 5183 0972 0D000000 		.4byte	.LASF132
 5184 0976 0A       		.byte	0xa
 5185 0977 3B01     		.2byte	0x13b
 5186 0979 DB080000 		.4byte	0x8db
 5187 097d 17       		.uleb128 0x17
 5188 097e 100A0000 		.4byte	.LASF133
 5189 0982 0A       		.byte	0xa
 5190 0983 3C01     		.2byte	0x13c
 5191 0985 B9030000 		.4byte	0x3b9
 5192 0989 00       		.byte	0
 5193 098a 0A       		.uleb128 0xa
 5194 098b 51040000 		.4byte	.LASF134
 5195 098f 18       		.byte	0x18
 5196 0990 0B       		.byte	0xb
 5197 0991 3A       		.byte	0x3a
 5198 0992 3E0A0000 		.4byte	0xa3e
 5199 0996 0B       		.uleb128 0xb
 5200 0997 7B090000 		.4byte	.LASF135
 5201 099b 0B       		.byte	0xb
 5202 099c 3B       		.byte	0x3b
 5203 099d DB000000 		.4byte	0xdb
 5204 09a1 02       		.byte	0x2
 5205 09a2 23       		.byte	0x23
 5206 09a3 00       		.uleb128 0
 5207 09a4 0B       		.uleb128 0xb
 5208 09a5 4F090000 		.4byte	.LASF98
 5209 09a9 0B       		.byte	0xb
 5210 09aa 3C       		.byte	0x3c
 5211 09ab DB000000 		.4byte	0xdb
 5212 09af 02       		.byte	0x2
 5213 09b0 23       		.byte	0x23
 5214 09b1 02       		.uleb128 0x2
 5215 09b2 0C       		.uleb128 0xc
 5216 09b3 667700   		.ascii	"fw\000"
 5217 09b6 0B       		.byte	0xb
 5218 09b7 3D       		.byte	0x3d
 5219 09b8 DB000000 		.4byte	0xdb
 5220 09bc 02       		.byte	0x2
 5221 09bd 23       		.byte	0x23
 5222 09be 04       		.uleb128 0x4
 5223 09bf 0B       		.uleb128 0xb
 5224 09c0 08090000 		.4byte	.LASF136
 5225 09c4 0B       		.byte	0xb
 5226 09c5 3E       		.byte	0x3e
 5227 09c6 DB000000 		.4byte	0xdb
 5228 09ca 02       		.byte	0x2
 5229 09cb 23       		.byte	0x23
 5230 09cc 06       		.uleb128 0x6
ARM GAS  /tmp/ccgFJ4Zb.s 			page 94


 5231 09cd 0B       		.uleb128 0xb
 5232 09ce 40060000 		.4byte	.LASF137
 5233 09d2 0B       		.byte	0xb
 5234 09d3 3F       		.byte	0x3f
 5235 09d4 DB000000 		.4byte	0xdb
 5236 09d8 02       		.byte	0x2
 5237 09d9 23       		.byte	0x23
 5238 09da 08       		.uleb128 0x8
 5239 09db 0B       		.uleb128 0xb
 5240 09dc 0A080000 		.4byte	.LASF138
 5241 09e0 0B       		.byte	0xb
 5242 09e1 40       		.byte	0x40
 5243 09e2 DB000000 		.4byte	0xdb
 5244 09e6 02       		.byte	0x2
 5245 09e7 23       		.byte	0x23
 5246 09e8 0A       		.uleb128 0xa
 5247 09e9 0B       		.uleb128 0xb
 5248 09ea B9080000 		.4byte	.LASF139
 5249 09ee 0B       		.byte	0xb
 5250 09ef 41       		.byte	0x41
 5251 09f0 DB000000 		.4byte	0xdb
 5252 09f4 02       		.byte	0x2
 5253 09f5 23       		.byte	0x23
 5254 09f6 0C       		.uleb128 0xc
 5255 09f7 0B       		.uleb128 0xb
 5256 09f8 1F070000 		.4byte	.LASF140
 5257 09fc 0B       		.byte	0xb
 5258 09fd 42       		.byte	0x42
 5259 09fe DB000000 		.4byte	0xdb
 5260 0a02 02       		.byte	0x2
 5261 0a03 23       		.byte	0x23
 5262 0a04 0E       		.uleb128 0xe
 5263 0a05 0B       		.uleb128 0xb
 5264 0a06 5A080000 		.4byte	.LASF141
 5265 0a0a 0B       		.byte	0xb
 5266 0a0b 43       		.byte	0x43
 5267 0a0c DB000000 		.4byte	0xdb
 5268 0a10 02       		.byte	0x2
 5269 0a11 23       		.byte	0x23
 5270 0a12 10       		.uleb128 0x10
 5271 0a13 0B       		.uleb128 0xb
 5272 0a14 34020000 		.4byte	.LASF142
 5273 0a18 0B       		.byte	0xb
 5274 0a19 44       		.byte	0x44
 5275 0a1a DB000000 		.4byte	0xdb
 5276 0a1e 02       		.byte	0x2
 5277 0a1f 23       		.byte	0x23
 5278 0a20 12       		.uleb128 0x12
 5279 0a21 0C       		.uleb128 0xc
 5280 0a22 65727200 		.ascii	"err\000"
 5281 0a26 0B       		.byte	0xb
 5282 0a27 45       		.byte	0x45
 5283 0a28 DB000000 		.4byte	0xdb
 5284 0a2c 02       		.byte	0x2
 5285 0a2d 23       		.byte	0x23
 5286 0a2e 14       		.uleb128 0x14
 5287 0a2f 0B       		.uleb128 0xb
ARM GAS  /tmp/ccgFJ4Zb.s 			page 95


 5288 0a30 95070000 		.4byte	.LASF143
 5289 0a34 0B       		.byte	0xb
 5290 0a35 46       		.byte	0x46
 5291 0a36 DB000000 		.4byte	0xdb
 5292 0a3a 02       		.byte	0x2
 5293 0a3b 23       		.byte	0x23
 5294 0a3c 16       		.uleb128 0x16
 5295 0a3d 00       		.byte	0
 5296 0a3e 0A       		.uleb128 0xa
 5297 0a3f 53010000 		.4byte	.LASF144
 5298 0a43 0A       		.byte	0xa
 5299 0a44 0B       		.byte	0xb
 5300 0a45 5A       		.byte	0x5a
 5301 0a46 910A0000 		.4byte	0xa91
 5302 0a4a 0B       		.uleb128 0xb
 5303 0a4b 25070000 		.4byte	.LASF145
 5304 0a4f 0B       		.byte	0xb
 5305 0a50 5E       		.byte	0x5e
 5306 0a51 07010000 		.4byte	0x107
 5307 0a55 02       		.byte	0x2
 5308 0a56 23       		.byte	0x23
 5309 0a57 00       		.uleb128 0
 5310 0a58 0B       		.uleb128 0xb
 5311 0a59 3D030000 		.4byte	.LASF146
 5312 0a5d 0B       		.byte	0xb
 5313 0a5e 5F       		.byte	0x5f
 5314 0a5f 07010000 		.4byte	0x107
 5315 0a63 02       		.byte	0x2
 5316 0a64 23       		.byte	0x23
 5317 0a65 02       		.uleb128 0x2
 5318 0a66 0C       		.uleb128 0xc
 5319 0a67 6D617800 		.ascii	"max\000"
 5320 0a6b 0B       		.byte	0xb
 5321 0a6c 60       		.byte	0x60
 5322 0a6d 07010000 		.4byte	0x107
 5323 0a71 02       		.byte	0x2
 5324 0a72 23       		.byte	0x23
 5325 0a73 04       		.uleb128 0x4
 5326 0a74 0C       		.uleb128 0xc
 5327 0a75 65727200 		.ascii	"err\000"
 5328 0a79 0B       		.byte	0xb
 5329 0a7a 61       		.byte	0x61
 5330 0a7b DB000000 		.4byte	0xdb
 5331 0a7f 02       		.byte	0x2
 5332 0a80 23       		.byte	0x23
 5333 0a81 06       		.uleb128 0x6
 5334 0a82 0B       		.uleb128 0xb
 5335 0a83 5C020000 		.4byte	.LASF147
 5336 0a87 0B       		.byte	0xb
 5337 0a88 62       		.byte	0x62
 5338 0a89 DB000000 		.4byte	0xdb
 5339 0a8d 02       		.byte	0x2
 5340 0a8e 23       		.byte	0x23
 5341 0a8f 08       		.uleb128 0x8
 5342 0a90 00       		.byte	0
 5343 0a91 0A       		.uleb128 0xa
 5344 0a92 D2010000 		.4byte	.LASF148
ARM GAS  /tmp/ccgFJ4Zb.s 			page 96


 5345 0a96 06       		.byte	0x6
 5346 0a97 0B       		.byte	0xb
 5347 0a98 65       		.byte	0x65
 5348 0a99 C80A0000 		.4byte	0xac8
 5349 0a9d 0B       		.uleb128 0xb
 5350 0a9e 3D030000 		.4byte	.LASF146
 5351 0aa2 0B       		.byte	0xb
 5352 0aa3 66       		.byte	0x66
 5353 0aa4 DB000000 		.4byte	0xdb
 5354 0aa8 02       		.byte	0x2
 5355 0aa9 23       		.byte	0x23
 5356 0aaa 00       		.uleb128 0
 5357 0aab 0C       		.uleb128 0xc
 5358 0aac 6D617800 		.ascii	"max\000"
 5359 0ab0 0B       		.byte	0xb
 5360 0ab1 67       		.byte	0x67
 5361 0ab2 DB000000 		.4byte	0xdb
 5362 0ab6 02       		.byte	0x2
 5363 0ab7 23       		.byte	0x23
 5364 0ab8 02       		.uleb128 0x2
 5365 0ab9 0C       		.uleb128 0xc
 5366 0aba 65727200 		.ascii	"err\000"
 5367 0abe 0B       		.byte	0xb
 5368 0abf 68       		.byte	0x68
 5369 0ac0 DB000000 		.4byte	0xdb
 5370 0ac4 02       		.byte	0x2
 5371 0ac5 23       		.byte	0x23
 5372 0ac6 04       		.uleb128 0x4
 5373 0ac7 00       		.byte	0
 5374 0ac8 0A       		.uleb128 0xa
 5375 0ac9 7B080000 		.4byte	.LASF149
 5376 0acd 12       		.byte	0x12
 5377 0ace 0B       		.byte	0xb
 5378 0acf 6B       		.byte	0x6b
 5379 0ad0 FF0A0000 		.4byte	0xaff
 5380 0ad4 0C       		.uleb128 0xc
 5381 0ad5 73656D00 		.ascii	"sem\000"
 5382 0ad9 0B       		.byte	0xb
 5383 0ada 6C       		.byte	0x6c
 5384 0adb 910A0000 		.4byte	0xa91
 5385 0adf 02       		.byte	0x2
 5386 0ae0 23       		.byte	0x23
 5387 0ae1 00       		.uleb128 0
 5388 0ae2 0B       		.uleb128 0xb
 5389 0ae3 46020000 		.4byte	.LASF150
 5390 0ae7 0B       		.byte	0xb
 5391 0ae8 6D       		.byte	0x6d
 5392 0ae9 910A0000 		.4byte	0xa91
 5393 0aed 02       		.byte	0x2
 5394 0aee 23       		.byte	0x23
 5395 0aef 06       		.uleb128 0x6
 5396 0af0 0B       		.uleb128 0xb
 5397 0af1 66070000 		.4byte	.LASF151
 5398 0af5 0B       		.byte	0xb
 5399 0af6 6E       		.byte	0x6e
 5400 0af7 910A0000 		.4byte	0xa91
 5401 0afb 02       		.byte	0x2
ARM GAS  /tmp/ccgFJ4Zb.s 			page 97


 5402 0afc 23       		.byte	0x23
 5403 0afd 0C       		.uleb128 0xc
 5404 0afe 00       		.byte	0
 5405 0aff 18       		.uleb128 0x18
 5406 0b00 4A030000 		.4byte	.LASF152
 5407 0b04 5001     		.2byte	0x150
 5408 0b06 0B       		.byte	0xb
 5409 0b07 71       		.byte	0x71
 5410 0b08 9C0B0000 		.4byte	0xb9c
 5411 0b0c 0B       		.uleb128 0xb
 5412 0b0d 03040000 		.4byte	.LASF153
 5413 0b11 0B       		.byte	0xb
 5414 0b12 73       		.byte	0x73
 5415 0b13 8A090000 		.4byte	0x98a
 5416 0b17 02       		.byte	0x2
 5417 0b18 23       		.byte	0x23
 5418 0b19 00       		.uleb128 0
 5419 0b1a 0B       		.uleb128 0xb
 5420 0b1b 73020000 		.4byte	.LASF154
 5421 0b1f 0B       		.byte	0xb
 5422 0b20 76       		.byte	0x76
 5423 0b21 8A090000 		.4byte	0x98a
 5424 0b25 02       		.byte	0x2
 5425 0b26 23       		.byte	0x23
 5426 0b27 18       		.uleb128 0x18
 5427 0b28 0B       		.uleb128 0xb
 5428 0b29 4C020000 		.4byte	.LASF155
 5429 0b2d 0B       		.byte	0xb
 5430 0b2e 79       		.byte	0x79
 5431 0b2f 8A090000 		.4byte	0x98a
 5432 0b33 02       		.byte	0x2
 5433 0b34 23       		.byte	0x23
 5434 0b35 30       		.uleb128 0x30
 5435 0b36 0C       		.uleb128 0xc
 5436 0b37 697000   		.ascii	"ip\000"
 5437 0b3a 0B       		.byte	0xb
 5438 0b3b 7C       		.byte	0x7c
 5439 0b3c 8A090000 		.4byte	0x98a
 5440 0b40 02       		.byte	0x2
 5441 0b41 23       		.byte	0x23
 5442 0b42 48       		.uleb128 0x48
 5443 0b43 0B       		.uleb128 0xb
 5444 0b44 11070000 		.4byte	.LASF156
 5445 0b48 0B       		.byte	0xb
 5446 0b49 7F       		.byte	0x7f
 5447 0b4a 8A090000 		.4byte	0x98a
 5448 0b4e 02       		.byte	0x2
 5449 0b4f 23       		.byte	0x23
 5450 0b50 60       		.uleb128 0x60
 5451 0b51 0C       		.uleb128 0xc
 5452 0b52 75647000 		.ascii	"udp\000"
 5453 0b56 0B       		.byte	0xb
 5454 0b57 85       		.byte	0x85
 5455 0b58 8A090000 		.4byte	0x98a
 5456 0b5c 02       		.byte	0x2
 5457 0b5d 23       		.byte	0x23
 5458 0b5e 78       		.uleb128 0x78
ARM GAS  /tmp/ccgFJ4Zb.s 			page 98


 5459 0b5f 0C       		.uleb128 0xc
 5460 0b60 74637000 		.ascii	"tcp\000"
 5461 0b64 0B       		.byte	0xb
 5462 0b65 88       		.byte	0x88
 5463 0b66 8A090000 		.4byte	0x98a
 5464 0b6a 03       		.byte	0x3
 5465 0b6b 23       		.byte	0x23
 5466 0b6c 9001     		.uleb128 0x90
 5467 0b6e 0C       		.uleb128 0xc
 5468 0b6f 6D656D00 		.ascii	"mem\000"
 5469 0b73 0B       		.byte	0xb
 5470 0b74 8B       		.byte	0x8b
 5471 0b75 3E0A0000 		.4byte	0xa3e
 5472 0b79 03       		.byte	0x3
 5473 0b7a 23       		.byte	0x23
 5474 0b7b A801     		.uleb128 0xa8
 5475 0b7d 0B       		.uleb128 0xb
 5476 0b7e C3050000 		.4byte	.LASF157
 5477 0b82 0B       		.byte	0xb
 5478 0b83 8E       		.byte	0x8e
 5479 0b84 9C0B0000 		.4byte	0xb9c
 5480 0b88 03       		.byte	0x3
 5481 0b89 23       		.byte	0x23
 5482 0b8a B201     		.uleb128 0xb2
 5483 0b8c 0C       		.uleb128 0xc
 5484 0b8d 73797300 		.ascii	"sys\000"
 5485 0b91 0B       		.byte	0xb
 5486 0b92 91       		.byte	0x91
 5487 0b93 C80A0000 		.4byte	0xac8
 5488 0b97 03       		.byte	0x3
 5489 0b98 23       		.byte	0x23
 5490 0b99 BE02     		.uleb128 0x13e
 5491 0b9b 00       		.byte	0
 5492 0b9c 0F       		.uleb128 0xf
 5493 0b9d 3E0A0000 		.4byte	0xa3e
 5494 0ba1 AC0B0000 		.4byte	0xbac
 5495 0ba5 10       		.uleb128 0x10
 5496 0ba6 30000000 		.4byte	0x30
 5497 0baa 0D       		.byte	0xd
 5498 0bab 00       		.byte	0
 5499 0bac 19       		.uleb128 0x19
 5500 0bad 01       		.byte	0x1
 5501 0bae F8040000 		.4byte	.LASF237
 5502 0bb2 01       		.byte	0x1
 5503 0bb3 6D       		.byte	0x6d
 5504 0bb4 01       		.byte	0x1
 5505 0bb5 00000000 		.4byte	.LFB7
 5506 0bb9 3A000000 		.4byte	.LFE7
 5507 0bbd 00000000 		.4byte	.LLST0
 5508 0bc1 1A       		.uleb128 0x1a
 5509 0bc2 95000000 		.4byte	.LASF172
 5510 0bc6 01       		.byte	0x1
 5511 0bc7 8A       		.byte	0x8a
 5512 0bc8 01       		.byte	0x1
 5513 0bc9 9B010000 		.4byte	0x19b
 5514 0bcd 00000000 		.4byte	.LFB8
 5515 0bd1 EC020000 		.4byte	.LFE8
ARM GAS  /tmp/ccgFJ4Zb.s 			page 99


 5516 0bd5 20000000 		.4byte	.LLST1
 5517 0bd9 080C0000 		.4byte	0xc08
 5518 0bdd 1B       		.uleb128 0x1b
 5519 0bde 70636200 		.ascii	"pcb\000"
 5520 0be2 01       		.byte	0x1
 5521 0be3 8A       		.byte	0x8a
 5522 0be4 B9030000 		.4byte	0x3b9
 5523 0be8 02       		.byte	0x2
 5524 0be9 91       		.byte	0x91
 5525 0bea 64       		.sleb128 -28
 5526 0beb 1C       		.uleb128 0x1c
 5527 0bec AF010000 		.4byte	.LASF158
 5528 0bf0 01       		.byte	0x1
 5529 0bf1 8A       		.byte	0x8a
 5530 0bf2 C5000000 		.4byte	0xc5
 5531 0bf6 02       		.byte	0x2
 5532 0bf7 91       		.byte	0x91
 5533 0bf8 63       		.sleb128 -29
 5534 0bf9 1D       		.uleb128 0x1d
 5535 0bfa 65727200 		.ascii	"err\000"
 5536 0bfe 01       		.byte	0x1
 5537 0bff 8C       		.byte	0x8c
 5538 0c00 9B010000 		.4byte	0x19b
 5539 0c04 02       		.byte	0x2
 5540 0c05 91       		.byte	0x91
 5541 0c06 6F       		.sleb128 -17
 5542 0c07 00       		.byte	0
 5543 0c08 1E       		.uleb128 0x1e
 5544 0c09 01       		.byte	0x1
 5545 0c0a 1A060000 		.4byte	.LASF159
 5546 0c0e 01       		.byte	0x1
 5547 0c0f FC       		.byte	0xfc
 5548 0c10 01       		.byte	0x1
 5549 0c11 9B010000 		.4byte	0x19b
 5550 0c15 00000000 		.4byte	.LFB9
 5551 0c19 32000000 		.4byte	.LFE9
 5552 0c1d 4C000000 		.4byte	.LLST2
 5553 0c21 340C0000 		.4byte	0xc34
 5554 0c25 1B       		.uleb128 0x1b
 5555 0c26 70636200 		.ascii	"pcb\000"
 5556 0c2a 01       		.byte	0x1
 5557 0c2b FC       		.byte	0xfc
 5558 0c2c B9030000 		.4byte	0x3b9
 5559 0c30 02       		.byte	0x2
 5560 0c31 91       		.byte	0x91
 5561 0c32 74       		.sleb128 -12
 5562 0c33 00       		.byte	0
 5563 0c34 1F       		.uleb128 0x1f
 5564 0c35 01       		.byte	0x1
 5565 0c36 58000000 		.4byte	.LASF160
 5566 0c3a 01       		.byte	0x1
 5567 0c3b 1601     		.2byte	0x116
 5568 0c3d 01       		.byte	0x1
 5569 0c3e 9B010000 		.4byte	0x19b
 5570 0c42 00000000 		.4byte	.LFB10
 5571 0c46 8A000000 		.4byte	.LFE10
 5572 0c4a 78000000 		.4byte	.LLST3
ARM GAS  /tmp/ccgFJ4Zb.s 			page 100


 5573 0c4e 800C0000 		.4byte	0xc80
 5574 0c52 20       		.uleb128 0x20
 5575 0c53 70636200 		.ascii	"pcb\000"
 5576 0c57 01       		.byte	0x1
 5577 0c58 1601     		.2byte	0x116
 5578 0c5a B9030000 		.4byte	0x3b9
 5579 0c5e 02       		.byte	0x2
 5580 0c5f 91       		.byte	0x91
 5581 0c60 74       		.sleb128 -12
 5582 0c61 21       		.uleb128 0x21
 5583 0c62 E5090000 		.4byte	.LASF161
 5584 0c66 01       		.byte	0x1
 5585 0c67 1601     		.2byte	0x116
 5586 0c69 29000000 		.4byte	0x29
 5587 0c6d 02       		.byte	0x2
 5588 0c6e 91       		.byte	0x91
 5589 0c6f 70       		.sleb128 -16
 5590 0c70 21       		.uleb128 0x21
 5591 0c71 2D010000 		.4byte	.LASF162
 5592 0c75 01       		.byte	0x1
 5593 0c76 1601     		.2byte	0x116
 5594 0c78 29000000 		.4byte	0x29
 5595 0c7c 02       		.byte	0x2
 5596 0c7d 91       		.byte	0x91
 5597 0c7e 6C       		.sleb128 -20
 5598 0c7f 00       		.byte	0
 5599 0c80 22       		.uleb128 0x22
 5600 0c81 01       		.byte	0x1
 5601 0c82 AF090000 		.4byte	.LASF165
 5602 0c86 01       		.byte	0x1
 5603 0c87 3E01     		.2byte	0x13e
 5604 0c89 01       		.byte	0x1
 5605 0c8a 00000000 		.4byte	.LFB11
 5606 0c8e EC000000 		.4byte	.LFE11
 5607 0c92 A4000000 		.4byte	.LLST4
 5608 0c96 310D0000 		.4byte	0xd31
 5609 0c9a 20       		.uleb128 0x20
 5610 0c9b 70636200 		.ascii	"pcb\000"
 5611 0c9f 01       		.byte	0x1
 5612 0ca0 3E01     		.2byte	0x13e
 5613 0ca2 B9030000 		.4byte	0x3b9
 5614 0ca6 02       		.byte	0x2
 5615 0ca7 91       		.byte	0x91
 5616 0ca8 54       		.sleb128 -44
 5617 0ca9 21       		.uleb128 0x21
 5618 0caa 7B070000 		.4byte	.LASF163
 5619 0cae 01       		.byte	0x1
 5620 0caf 3E01     		.2byte	0x13e
 5621 0cb1 29000000 		.4byte	0x29
 5622 0cb5 02       		.byte	0x2
 5623 0cb6 91       		.byte	0x91
 5624 0cb7 50       		.sleb128 -48
 5625 0cb8 23       		.uleb128 0x23
 5626 0cb9 E0010000 		.4byte	.LASF127
 5627 0cbd 01       		.byte	0x1
 5628 0cbe 4001     		.2byte	0x140
 5629 0cc0 F1000000 		.4byte	0xf1
ARM GAS  /tmp/ccgFJ4Zb.s 			page 101


 5630 0cc4 02       		.byte	0x2
 5631 0cc5 91       		.byte	0x91
 5632 0cc6 74       		.sleb128 -12
 5633 0cc7 23       		.uleb128 0x23
 5634 0cc8 7A050000 		.4byte	.LASF128
 5635 0ccc 01       		.byte	0x1
 5636 0ccd 4001     		.2byte	0x140
 5637 0ccf F1000000 		.4byte	0xf1
 5638 0cd3 02       		.byte	0x2
 5639 0cd4 91       		.byte	0x91
 5640 0cd5 70       		.sleb128 -16
 5641 0cd6 23       		.uleb128 0x23
 5642 0cd7 0E060000 		.4byte	.LASF69
 5643 0cdb 01       		.byte	0x1
 5644 0cdc 4101     		.2byte	0x141
 5645 0cde DB000000 		.4byte	0xdb
 5646 0ce2 02       		.byte	0x2
 5647 0ce3 91       		.byte	0x91
 5648 0ce4 6C       		.sleb128 -20
 5649 0ce5 23       		.uleb128 0x23
 5650 0ce6 3B020000 		.4byte	.LASF68
 5651 0cea 01       		.byte	0x1
 5652 0ceb 4101     		.2byte	0x141
 5653 0ced DB000000 		.4byte	0xdb
 5654 0cf1 02       		.byte	0x2
 5655 0cf2 91       		.byte	0x91
 5656 0cf3 6E       		.sleb128 -18
 5657 0cf4 23       		.uleb128 0x23
 5658 0cf5 99090000 		.4byte	.LASF63
 5659 0cf9 01       		.byte	0x1
 5660 0cfa 4201     		.2byte	0x142
 5661 0cfc 90010000 		.4byte	0x190
 5662 0d00 02       		.byte	0x2
 5663 0d01 91       		.byte	0x91
 5664 0d02 60       		.sleb128 -32
 5665 0d03 23       		.uleb128 0x23
 5666 0d04 5D070000 		.4byte	.LASF62
 5667 0d08 01       		.byte	0x1
 5668 0d09 4201     		.2byte	0x142
 5669 0d0b 90010000 		.4byte	0x190
 5670 0d0f 02       		.byte	0x2
 5671 0d10 91       		.byte	0x91
 5672 0d11 5C       		.sleb128 -36
 5673 0d12 23       		.uleb128 0x23
 5674 0d13 BE060000 		.4byte	.LASF101
 5675 0d17 01       		.byte	0x1
 5676 0d18 4401     		.2byte	0x144
 5677 0d1a 4F070000 		.4byte	0x74f
 5678 0d1e 02       		.byte	0x2
 5679 0d1f 91       		.byte	0x91
 5680 0d20 68       		.sleb128 -24
 5681 0d21 23       		.uleb128 0x23
 5682 0d22 B2000000 		.4byte	.LASF164
 5683 0d26 01       		.byte	0x1
 5684 0d27 4601     		.2byte	0x146
 5685 0d29 B1000000 		.4byte	0xb1
 5686 0d2d 02       		.byte	0x2
ARM GAS  /tmp/ccgFJ4Zb.s 			page 102


 5687 0d2e 91       		.byte	0x91
 5688 0d2f 64       		.sleb128 -28
 5689 0d30 00       		.byte	0
 5690 0d31 22       		.uleb128 0x22
 5691 0d32 01       		.byte	0x1
 5692 0d33 77060000 		.4byte	.LASF166
 5693 0d37 01       		.byte	0x1
 5694 0d38 7C01     		.2byte	0x17c
 5695 0d3a 01       		.byte	0x1
 5696 0d3b 00000000 		.4byte	.LFB12
 5697 0d3f 14000000 		.4byte	.LFE12
 5698 0d43 D0000000 		.4byte	.LLST5
 5699 0d47 5B0D0000 		.4byte	0xd5b
 5700 0d4b 20       		.uleb128 0x20
 5701 0d4c 70636200 		.ascii	"pcb\000"
 5702 0d50 01       		.byte	0x1
 5703 0d51 7C01     		.2byte	0x17c
 5704 0d53 B9030000 		.4byte	0x3b9
 5705 0d57 02       		.byte	0x2
 5706 0d58 91       		.byte	0x91
 5707 0d59 74       		.sleb128 -12
 5708 0d5a 00       		.byte	0
 5709 0d5b 1F       		.uleb128 0x1f
 5710 0d5c 01       		.byte	0x1
 5711 0d5d 8C000000 		.4byte	.LASF167
 5712 0d61 01       		.byte	0x1
 5713 0d62 9001     		.2byte	0x190
 5714 0d64 01       		.byte	0x1
 5715 0d65 9B010000 		.4byte	0x19b
 5716 0d69 00000000 		.4byte	.LFB13
 5717 0d6d F2000000 		.4byte	.LFE13
 5718 0d71 FC000000 		.4byte	.LLST6
 5719 0d75 D20D0000 		.4byte	0xdd2
 5720 0d79 20       		.uleb128 0x20
 5721 0d7a 70636200 		.ascii	"pcb\000"
 5722 0d7e 01       		.byte	0x1
 5723 0d7f 9001     		.2byte	0x190
 5724 0d81 B9030000 		.4byte	0x3b9
 5725 0d85 02       		.byte	0x2
 5726 0d86 91       		.byte	0x91
 5727 0d87 64       		.sleb128 -28
 5728 0d88 21       		.uleb128 0x21
 5729 0d89 6E030000 		.4byte	.LASF168
 5730 0d8d 01       		.byte	0x1
 5731 0d8e 9001     		.2byte	0x190
 5732 0d90 42030000 		.4byte	0x342
 5733 0d94 02       		.byte	0x2
 5734 0d95 91       		.byte	0x91
 5735 0d96 60       		.sleb128 -32
 5736 0d97 21       		.uleb128 0x21
 5737 0d98 48080000 		.4byte	.LASF169
 5738 0d9c 01       		.byte	0x1
 5739 0d9d 9001     		.2byte	0x190
 5740 0d9f DB000000 		.4byte	0xdb
 5741 0da3 02       		.byte	0x2
 5742 0da4 91       		.byte	0x91
 5743 0da5 5E       		.sleb128 -34
ARM GAS  /tmp/ccgFJ4Zb.s 			page 103


 5744 0da6 24       		.uleb128 0x24
 5745 0da7 6900     		.ascii	"i\000"
 5746 0da9 01       		.byte	0x1
 5747 0daa 9201     		.2byte	0x192
 5748 0dac 29000000 		.4byte	0x29
 5749 0db0 02       		.byte	0x2
 5750 0db1 91       		.byte	0x91
 5751 0db2 74       		.sleb128 -12
 5752 0db3 23       		.uleb128 0x23
 5753 0db4 27020000 		.4byte	.LASF170
 5754 0db8 01       		.byte	0x1
 5755 0db9 9301     		.2byte	0x193
 5756 0dbb 29000000 		.4byte	0x29
 5757 0dbf 02       		.byte	0x2
 5758 0dc0 91       		.byte	0x91
 5759 0dc1 6C       		.sleb128 -20
 5760 0dc2 23       		.uleb128 0x23
 5761 0dc3 4B070000 		.4byte	.LASF171
 5762 0dc7 01       		.byte	0x1
 5763 0dc8 9401     		.2byte	0x194
 5764 0dca B9030000 		.4byte	0x3b9
 5765 0dce 02       		.byte	0x2
 5766 0dcf 91       		.byte	0x91
 5767 0dd0 70       		.sleb128 -16
 5768 0dd1 00       		.byte	0
 5769 0dd2 25       		.uleb128 0x25
 5770 0dd3 CD050000 		.4byte	.LASF173
 5771 0dd7 01       		.byte	0x1
 5772 0dd8 CA01     		.2byte	0x1ca
 5773 0dda 01       		.byte	0x1
 5774 0ddb 9B010000 		.4byte	0x19b
 5775 0ddf 00000000 		.4byte	.LFB14
 5776 0de3 18000000 		.4byte	.LFE14
 5777 0de7 28010000 		.4byte	.LLST7
 5778 0deb 1D0E0000 		.4byte	0xe1d
 5779 0def 20       		.uleb128 0x20
 5780 0df0 61726700 		.ascii	"arg\000"
 5781 0df4 01       		.byte	0x1
 5782 0df5 CA01     		.2byte	0x1ca
 5783 0df7 B1000000 		.4byte	0xb1
 5784 0dfb 02       		.byte	0x2
 5785 0dfc 91       		.byte	0x91
 5786 0dfd 7C       		.sleb128 -4
 5787 0dfe 20       		.uleb128 0x20
 5788 0dff 70636200 		.ascii	"pcb\000"
 5789 0e03 01       		.byte	0x1
 5790 0e04 CA01     		.2byte	0x1ca
 5791 0e06 B9030000 		.4byte	0x3b9
 5792 0e0a 02       		.byte	0x2
 5793 0e0b 91       		.byte	0x91
 5794 0e0c 78       		.sleb128 -8
 5795 0e0d 20       		.uleb128 0x20
 5796 0e0e 65727200 		.ascii	"err\000"
 5797 0e12 01       		.byte	0x1
 5798 0e13 CA01     		.2byte	0x1ca
 5799 0e15 9B010000 		.4byte	0x19b
 5800 0e19 02       		.byte	0x2
ARM GAS  /tmp/ccgFJ4Zb.s 			page 104


 5801 0e1a 91       		.byte	0x91
 5802 0e1b 77       		.sleb128 -9
 5803 0e1c 00       		.byte	0
 5804 0e1d 1F       		.uleb128 0x1f
 5805 0e1e 01       		.byte	0x1
 5806 0e1f EE050000 		.4byte	.LASF174
 5807 0e23 01       		.byte	0x1
 5808 0e24 E301     		.2byte	0x1e3
 5809 0e26 01       		.byte	0x1
 5810 0e27 B9030000 		.4byte	0x3b9
 5811 0e2b 00000000 		.4byte	.LFB15
 5812 0e2f 62010000 		.4byte	.LFE15
 5813 0e33 48010000 		.4byte	.LLST8
 5814 0e37 690E0000 		.4byte	0xe69
 5815 0e3b 20       		.uleb128 0x20
 5816 0e3c 70636200 		.ascii	"pcb\000"
 5817 0e40 01       		.byte	0x1
 5818 0e41 E301     		.2byte	0x1e3
 5819 0e43 B9030000 		.4byte	0x3b9
 5820 0e47 02       		.byte	0x2
 5821 0e48 91       		.byte	0x91
 5822 0e49 6C       		.sleb128 -20
 5823 0e4a 21       		.uleb128 0x21
 5824 0e4b C8030000 		.4byte	.LASF175
 5825 0e4f 01       		.byte	0x1
 5826 0e50 E301     		.2byte	0x1e3
 5827 0e52 C5000000 		.4byte	0xc5
 5828 0e56 02       		.byte	0x2
 5829 0e57 91       		.byte	0x91
 5830 0e58 6B       		.sleb128 -21
 5831 0e59 23       		.uleb128 0x23
 5832 0e5a 44090000 		.4byte	.LASF176
 5833 0e5e 01       		.byte	0x1
 5834 0e5f E501     		.2byte	0x1e5
 5835 0e61 DB080000 		.4byte	0x8db
 5836 0e65 02       		.byte	0x2
 5837 0e66 91       		.byte	0x91
 5838 0e67 74       		.sleb128 -12
 5839 0e68 00       		.byte	0
 5840 0e69 1F       		.uleb128 0x1f
 5841 0e6a 01       		.byte	0x1
 5842 0e6b 81060000 		.4byte	.LASF177
 5843 0e6f 01       		.byte	0x1
 5844 0e70 1F02     		.2byte	0x21f
 5845 0e72 01       		.byte	0x1
 5846 0e73 F1000000 		.4byte	0xf1
 5847 0e77 00000000 		.4byte	.LFB16
 5848 0e7b 8A000000 		.4byte	.LFE16
 5849 0e7f 74010000 		.4byte	.LLST9
 5850 0e83 BF0E0000 		.4byte	0xebf
 5851 0e87 20       		.uleb128 0x20
 5852 0e88 70636200 		.ascii	"pcb\000"
 5853 0e8c 01       		.byte	0x1
 5854 0e8d 1F02     		.2byte	0x21f
 5855 0e8f B9030000 		.4byte	0x3b9
 5856 0e93 02       		.byte	0x2
 5857 0e94 91       		.byte	0x91
ARM GAS  /tmp/ccgFJ4Zb.s 			page 105


 5858 0e95 6C       		.sleb128 -20
 5859 0e96 23       		.uleb128 0x23
 5860 0e97 EC000000 		.4byte	.LASF178
 5861 0e9b 01       		.byte	0x1
 5862 0e9c 2102     		.2byte	0x221
 5863 0e9e F1000000 		.4byte	0xf1
 5864 0ea2 02       		.byte	0x2
 5865 0ea3 91       		.byte	0x91
 5866 0ea4 74       		.sleb128 -12
 5867 0ea5 26       		.uleb128 0x26
 5868 0ea6 5E000000 		.4byte	.LBB2
 5869 0eaa 80000000 		.4byte	.LBE2
 5870 0eae 23       		.uleb128 0x23
 5871 0eaf 93080000 		.4byte	.LASF179
 5872 0eb3 01       		.byte	0x1
 5873 0eb4 2E02     		.2byte	0x22e
 5874 0eb6 F1000000 		.4byte	0xf1
 5875 0eba 02       		.byte	0x2
 5876 0ebb 91       		.byte	0x91
 5877 0ebc 70       		.sleb128 -16
 5878 0ebd 00       		.byte	0
 5879 0ebe 00       		.byte	0
 5880 0ebf 22       		.uleb128 0x22
 5881 0ec0 01       		.byte	0x1
 5882 0ec1 15030000 		.4byte	.LASF180
 5883 0ec5 01       		.byte	0x1
 5884 0ec6 3F02     		.2byte	0x23f
 5885 0ec8 01       		.byte	0x1
 5886 0ec9 00000000 		.4byte	.LFB17
 5887 0ecd 76000000 		.4byte	.LFE17
 5888 0ed1 A0010000 		.4byte	.LLST10
 5889 0ed5 070F0000 		.4byte	0xf07
 5890 0ed9 20       		.uleb128 0x20
 5891 0eda 70636200 		.ascii	"pcb\000"
 5892 0ede 01       		.byte	0x1
 5893 0edf 3F02     		.2byte	0x23f
 5894 0ee1 B9030000 		.4byte	0x3b9
 5895 0ee5 02       		.byte	0x2
 5896 0ee6 91       		.byte	0x91
 5897 0ee7 6C       		.sleb128 -20
 5898 0ee8 20       		.uleb128 0x20
 5899 0ee9 6C656E00 		.ascii	"len\000"
 5900 0eed 01       		.byte	0x1
 5901 0eee 3F02     		.2byte	0x23f
 5902 0ef0 DB000000 		.4byte	0xdb
 5903 0ef4 02       		.byte	0x2
 5904 0ef5 91       		.byte	0x91
 5905 0ef6 6A       		.sleb128 -22
 5906 0ef7 23       		.uleb128 0x23
 5907 0ef8 C6040000 		.4byte	.LASF181
 5908 0efc 01       		.byte	0x1
 5909 0efd 4102     		.2byte	0x241
 5910 0eff 29000000 		.4byte	0x29
 5911 0f03 02       		.byte	0x2
 5912 0f04 91       		.byte	0x91
 5913 0f05 74       		.sleb128 -12
 5914 0f06 00       		.byte	0
ARM GAS  /tmp/ccgFJ4Zb.s 			page 106


 5915 0f07 25       		.uleb128 0x25
 5916 0f08 00000000 		.4byte	.LASF182
 5917 0f0c 01       		.byte	0x1
 5918 0f0d 6102     		.2byte	0x261
 5919 0f0f 01       		.byte	0x1
 5920 0f10 DB000000 		.4byte	0xdb
 5921 0f14 00000000 		.4byte	.LFB18
 5922 0f18 98000000 		.4byte	.LFE18
 5923 0f1c CC010000 		.4byte	.LLST11
 5924 0f20 5F0F0000 		.4byte	0xf5f
 5925 0f24 24       		.uleb128 0x24
 5926 0f25 6900     		.ascii	"i\000"
 5927 0f27 01       		.byte	0x1
 5928 0f28 6302     		.2byte	0x263
 5929 0f2a 29000000 		.4byte	0x29
 5930 0f2e 02       		.byte	0x2
 5931 0f2f 91       		.byte	0x91
 5932 0f30 7C       		.sleb128 -4
 5933 0f31 24       		.uleb128 0x24
 5934 0f32 70636200 		.ascii	"pcb\000"
 5935 0f36 01       		.byte	0x1
 5936 0f37 6402     		.2byte	0x264
 5937 0f39 B9030000 		.4byte	0x3b9
 5938 0f3d 02       		.byte	0x2
 5939 0f3e 91       		.byte	0x91
 5940 0f3f 78       		.sleb128 -8
 5941 0f40 23       		.uleb128 0x23
 5942 0f41 48080000 		.4byte	.LASF169
 5943 0f45 01       		.byte	0x1
 5944 0f46 6B02     		.2byte	0x26b
 5945 0f48 DB000000 		.4byte	0xdb
 5946 0f4c 05       		.byte	0x5
 5947 0f4d 03       		.byte	0x3
 5948 0f4e 00000000 		.4byte	port.5810
 5949 0f52 27       		.uleb128 0x27
 5950 0f53 65000000 		.4byte	.LASF238
 5951 0f57 01       		.byte	0x1
 5952 0f58 6D02     		.2byte	0x26d
 5953 0f5a 06000000 		.4byte	.L92
 5954 0f5e 00       		.byte	0
 5955 0f5f 1F       		.uleb128 0x1f
 5956 0f60 01       		.byte	0x1
 5957 0f61 46000000 		.4byte	.LASF183
 5958 0f65 01       		.byte	0x1
 5959 0f66 8902     		.2byte	0x289
 5960 0f68 01       		.byte	0x1
 5961 0f69 9B010000 		.4byte	0x19b
 5962 0f6d 00000000 		.4byte	.LFB19
 5963 0f71 06020000 		.4byte	.LFE19
 5964 0f75 EC010000 		.4byte	.LLST12
 5965 0f79 00100000 		.4byte	0x1000
 5966 0f7d 20       		.uleb128 0x20
 5967 0f7e 70636200 		.ascii	"pcb\000"
 5968 0f82 01       		.byte	0x1
 5969 0f83 8902     		.2byte	0x289
 5970 0f85 B9030000 		.4byte	0x3b9
 5971 0f89 02       		.byte	0x2
ARM GAS  /tmp/ccgFJ4Zb.s 			page 107


 5972 0f8a 91       		.byte	0x91
 5973 0f8b 64       		.sleb128 -28
 5974 0f8c 21       		.uleb128 0x21
 5975 0f8d 6E030000 		.4byte	.LASF168
 5976 0f91 01       		.byte	0x1
 5977 0f92 8902     		.2byte	0x289
 5978 0f94 42030000 		.4byte	0x342
 5979 0f98 02       		.byte	0x2
 5980 0f99 91       		.byte	0x91
 5981 0f9a 60       		.sleb128 -32
 5982 0f9b 21       		.uleb128 0x21
 5983 0f9c 48080000 		.4byte	.LASF169
 5984 0fa0 01       		.byte	0x1
 5985 0fa1 8902     		.2byte	0x289
 5986 0fa3 DB000000 		.4byte	0xdb
 5987 0fa7 02       		.byte	0x2
 5988 0fa8 91       		.byte	0x91
 5989 0fa9 5E       		.sleb128 -34
 5990 0faa 21       		.uleb128 0x21
 5991 0fab 97030000 		.4byte	.LASF99
 5992 0faf 01       		.byte	0x1
 5993 0fb0 8A02     		.2byte	0x28a
 5994 0fb2 71070000 		.4byte	0x771
 5995 0fb6 02       		.byte	0x2
 5996 0fb7 91       		.byte	0x91
 5997 0fb8 58       		.sleb128 -40
 5998 0fb9 24       		.uleb128 0x24
 5999 0fba 72657400 		.ascii	"ret\000"
 6000 0fbe 01       		.byte	0x1
 6001 0fbf 8C02     		.2byte	0x28c
 6002 0fc1 9B010000 		.4byte	0x19b
 6003 0fc5 02       		.byte	0x2
 6004 0fc6 91       		.byte	0x91
 6005 0fc7 6B       		.sleb128 -21
 6006 0fc8 24       		.uleb128 0x24
 6007 0fc9 69737300 		.ascii	"iss\000"
 6008 0fcd 01       		.byte	0x1
 6009 0fce 8D02     		.2byte	0x28d
 6010 0fd0 F1000000 		.4byte	0xf1
 6011 0fd4 02       		.byte	0x2
 6012 0fd5 91       		.byte	0x91
 6013 0fd6 6C       		.sleb128 -20
 6014 0fd7 23       		.uleb128 0x23
 6015 0fd8 6E040000 		.4byte	.LASF184
 6016 0fdc 01       		.byte	0x1
 6017 0fdd 8E02     		.2byte	0x28e
 6018 0fdf DB000000 		.4byte	0xdb
 6019 0fe3 02       		.byte	0x2
 6020 0fe4 91       		.byte	0x91
 6021 0fe5 72       		.sleb128 -14
 6022 0fe6 26       		.uleb128 0x26
 6023 0fe7 4E000000 		.4byte	.LBB3
 6024 0feb 72000000 		.4byte	.LBE3
 6025 0fef 23       		.uleb128 0x23
 6026 0ff0 1C090000 		.4byte	.LASF48
 6027 0ff4 01       		.byte	0x1
 6028 0ff5 9D02     		.2byte	0x29d
ARM GAS  /tmp/ccgFJ4Zb.s 			page 108


 6029 0ff7 1B020000 		.4byte	0x21b
 6030 0ffb 02       		.byte	0x2
 6031 0ffc 91       		.byte	0x91
 6032 0ffd 74       		.sleb128 -12
 6033 0ffe 00       		.byte	0
 6034 0fff 00       		.byte	0
 6035 1000 22       		.uleb128 0x22
 6036 1001 01       		.byte	0x1
 6037 1002 6B060000 		.4byte	.LASF185
 6038 1006 01       		.byte	0x1
 6039 1007 EE02     		.2byte	0x2ee
 6040 1009 01       		.byte	0x1
 6041 100a 00000000 		.4byte	.LFB20
 6042 100e 46050000 		.4byte	.LFE20
 6043 1012 18020000 		.4byte	.LLST13
 6044 1016 AB100000 		.4byte	0x10ab
 6045 101a 24       		.uleb128 0x24
 6046 101b 70636200 		.ascii	"pcb\000"
 6047 101f 01       		.byte	0x1
 6048 1020 F002     		.2byte	0x2f0
 6049 1022 B9030000 		.4byte	0x3b9
 6050 1026 02       		.byte	0x2
 6051 1027 91       		.byte	0x91
 6052 1028 6C       		.sleb128 -20
 6053 1029 23       		.uleb128 0x23
 6054 102a 35010000 		.4byte	.LASF186
 6055 102e 01       		.byte	0x1
 6056 102f F002     		.2byte	0x2f0
 6057 1031 B9030000 		.4byte	0x3b9
 6058 1035 02       		.byte	0x2
 6059 1036 91       		.byte	0x91
 6060 1037 68       		.sleb128 -24
 6061 1038 23       		.uleb128 0x23
 6062 1039 54020000 		.4byte	.LASF187
 6063 103d 01       		.byte	0x1
 6064 103e F102     		.2byte	0x2f1
 6065 1040 DB000000 		.4byte	0xdb
 6066 1044 02       		.byte	0x2
 6067 1045 91       		.byte	0x91
 6068 1046 62       		.sleb128 -30
 6069 1047 23       		.uleb128 0x23
 6070 1048 7D030000 		.4byte	.LASF188
 6071 104c 01       		.byte	0x1
 6072 104d F202     		.2byte	0x2f2
 6073 104f C5000000 		.4byte	0xc5
 6074 1053 02       		.byte	0x2
 6075 1054 91       		.byte	0x91
 6076 1055 67       		.sleb128 -25
 6077 1056 23       		.uleb128 0x23
 6078 1057 F5010000 		.4byte	.LASF189
 6079 105b 01       		.byte	0x1
 6080 105c F302     		.2byte	0x2f3
 6081 105e C5000000 		.4byte	0xc5
 6082 1062 02       		.byte	0x2
 6083 1063 91       		.byte	0x91
 6084 1064 66       		.sleb128 -26
 6085 1065 24       		.uleb128 0x24
ARM GAS  /tmp/ccgFJ4Zb.s 			page 109


 6086 1066 65727200 		.ascii	"err\000"
 6087 106a 01       		.byte	0x1
 6088 106b F402     		.2byte	0x2f4
 6089 106d 9B010000 		.4byte	0x19b
 6090 1071 02       		.byte	0x2
 6091 1072 91       		.byte	0x91
 6092 1073 65       		.sleb128 -27
 6093 1074 28       		.uleb128 0x28
 6094 1075 64030000 		.4byte	.LBB4
 6095 1079 0A040000 		.4byte	.LBE4
 6096 107d 91100000 		.4byte	0x1091
 6097 1081 23       		.uleb128 0x23
 6098 1082 E9050000 		.4byte	.LASF190
 6099 1086 01       		.byte	0x1
 6100 1087 8C03     		.2byte	0x38c
 6101 1089 B9030000 		.4byte	0x3b9
 6102 108d 02       		.byte	0x2
 6103 108e 91       		.byte	0x91
 6104 108f 5C       		.sleb128 -36
 6105 1090 00       		.byte	0
 6106 1091 26       		.uleb128 0x26
 6107 1092 D0040000 		.4byte	.LBB5
 6108 1096 32050000 		.4byte	.LBE5
 6109 109a 23       		.uleb128 0x23
 6110 109b E9050000 		.4byte	.LASF190
 6111 109f 01       		.byte	0x1
 6112 10a0 C503     		.2byte	0x3c5
 6113 10a2 B9030000 		.4byte	0x3b9
 6114 10a6 02       		.byte	0x2
 6115 10a7 91       		.byte	0x91
 6116 10a8 58       		.sleb128 -40
 6117 10a9 00       		.byte	0
 6118 10aa 00       		.byte	0
 6119 10ab 22       		.uleb128 0x22
 6120 10ac 01       		.byte	0x1
 6121 10ad DD050000 		.4byte	.LASF191
 6122 10b1 01       		.byte	0x1
 6123 10b2 E103     		.2byte	0x3e1
 6124 10b4 01       		.byte	0x1
 6125 10b5 00000000 		.4byte	.LFB21
 6126 10b9 DE000000 		.4byte	.LFE21
 6127 10bd 44020000 		.4byte	.LLST14
 6128 10c1 07110000 		.4byte	0x1107
 6129 10c5 24       		.uleb128 0x24
 6130 10c6 70636200 		.ascii	"pcb\000"
 6131 10ca 01       		.byte	0x1
 6132 10cb E303     		.2byte	0x3e3
 6133 10cd B9030000 		.4byte	0x3b9
 6134 10d1 02       		.byte	0x2
 6135 10d2 91       		.byte	0x91
 6136 10d3 74       		.sleb128 -12
 6137 10d4 26       		.uleb128 0x26
 6138 10d5 12000000 		.4byte	.LBB6
 6139 10d9 D4000000 		.4byte	.LBE6
 6140 10dd 23       		.uleb128 0x23
 6141 10de D9000000 		.4byte	.LASF43
 6142 10e2 01       		.byte	0x1
ARM GAS  /tmp/ccgFJ4Zb.s 			page 110


 6143 10e3 E603     		.2byte	0x3e6
 6144 10e5 B9030000 		.4byte	0x3b9
 6145 10e9 02       		.byte	0x2
 6146 10ea 91       		.byte	0x91
 6147 10eb 6C       		.sleb128 -20
 6148 10ec 26       		.uleb128 0x26
 6149 10ed 22000000 		.4byte	.LBB7
 6150 10f1 90000000 		.4byte	.LBE7
 6151 10f5 24       		.uleb128 0x24
 6152 10f6 65727200 		.ascii	"err\000"
 6153 10fa 01       		.byte	0x1
 6154 10fb EA03     		.2byte	0x3ea
 6155 10fd 9B010000 		.4byte	0x19b
 6156 1101 02       		.byte	0x2
 6157 1102 91       		.byte	0x91
 6158 1103 73       		.sleb128 -13
 6159 1104 00       		.byte	0
 6160 1105 00       		.byte	0
 6161 1106 00       		.byte	0
 6162 1107 22       		.uleb128 0x22
 6163 1108 01       		.byte	0x1
 6164 1109 C5090000 		.4byte	.LASF192
 6165 110d 01       		.byte	0x1
 6166 110e 0704     		.2byte	0x407
 6167 1110 01       		.byte	0x1
 6168 1111 00000000 		.4byte	.LFB22
 6169 1115 22000000 		.4byte	.LFE22
 6170 1119 70020000 		.4byte	.LLST15
 6171 111d 4A110000 		.4byte	0x114a
 6172 1121 20       		.uleb128 0x20
 6173 1122 73656700 		.ascii	"seg\000"
 6174 1126 01       		.byte	0x1
 6175 1127 0704     		.2byte	0x407
 6176 1129 22080000 		.4byte	0x822
 6177 112d 02       		.byte	0x2
 6178 112e 91       		.byte	0x91
 6179 112f 6C       		.sleb128 -20
 6180 1130 26       		.uleb128 0x26
 6181 1131 08000000 		.4byte	.LBB8
 6182 1135 18000000 		.4byte	.LBE8
 6183 1139 23       		.uleb128 0x23
 6184 113a D9000000 		.4byte	.LASF43
 6185 113e 01       		.byte	0x1
 6186 113f 0A04     		.2byte	0x40a
 6187 1141 22080000 		.4byte	0x822
 6188 1145 02       		.byte	0x2
 6189 1146 91       		.byte	0x91
 6190 1147 74       		.sleb128 -12
 6191 1148 00       		.byte	0
 6192 1149 00       		.byte	0
 6193 114a 22       		.uleb128 0x22
 6194 114b 01       		.byte	0x1
 6195 114c 80090000 		.4byte	.LASF193
 6196 1150 01       		.byte	0x1
 6197 1151 1604     		.2byte	0x416
 6198 1153 01       		.byte	0x1
 6199 1154 00000000 		.4byte	.LFB23
ARM GAS  /tmp/ccgFJ4Zb.s 			page 111


 6200 1158 2C000000 		.4byte	.LFE23
 6201 115c 9C020000 		.4byte	.LLST16
 6202 1160 74110000 		.4byte	0x1174
 6203 1164 20       		.uleb128 0x20
 6204 1165 73656700 		.ascii	"seg\000"
 6205 1169 01       		.byte	0x1
 6206 116a 1604     		.2byte	0x416
 6207 116c 22080000 		.4byte	0x822
 6208 1170 02       		.byte	0x2
 6209 1171 91       		.byte	0x91
 6210 1172 74       		.sleb128 -12
 6211 1173 00       		.byte	0
 6212 1174 22       		.uleb128 0x22
 6213 1175 01       		.byte	0x1
 6214 1176 62080000 		.4byte	.LASF194
 6215 117a 01       		.byte	0x1
 6216 117b 2A04     		.2byte	0x42a
 6217 117d 01       		.byte	0x1
 6218 117e 00000000 		.4byte	.LFB24
 6219 1182 16000000 		.4byte	.LFE24
 6220 1186 C8020000 		.4byte	.LLST17
 6221 118a AD110000 		.4byte	0x11ad
 6222 118e 20       		.uleb128 0x20
 6223 118f 70636200 		.ascii	"pcb\000"
 6224 1193 01       		.byte	0x1
 6225 1194 2A04     		.2byte	0x42a
 6226 1196 B9030000 		.4byte	0x3b9
 6227 119a 02       		.byte	0x2
 6228 119b 91       		.byte	0x91
 6229 119c 7C       		.sleb128 -4
 6230 119d 21       		.uleb128 0x21
 6231 119e 26040000 		.4byte	.LASF65
 6232 11a2 01       		.byte	0x1
 6233 11a3 2A04     		.2byte	0x42a
 6234 11a5 C5000000 		.4byte	0xc5
 6235 11a9 02       		.byte	0x2
 6236 11aa 91       		.byte	0x91
 6237 11ab 7B       		.sleb128 -5
 6238 11ac 00       		.byte	0
 6239 11ad 1F       		.uleb128 0x1f
 6240 11ae 01       		.byte	0x1
 6241 11af 00050000 		.4byte	.LASF195
 6242 11b3 01       		.byte	0x1
 6243 11b4 3804     		.2byte	0x438
 6244 11b6 01       		.byte	0x1
 6245 11b7 22080000 		.4byte	0x822
 6246 11bb 00000000 		.4byte	.LFB25
 6247 11bf 46000000 		.4byte	.LFE25
 6248 11c3 E8020000 		.4byte	.LLST18
 6249 11c7 EA110000 		.4byte	0x11ea
 6250 11cb 20       		.uleb128 0x20
 6251 11cc 73656700 		.ascii	"seg\000"
 6252 11d0 01       		.byte	0x1
 6253 11d1 3804     		.2byte	0x438
 6254 11d3 22080000 		.4byte	0x822
 6255 11d7 02       		.byte	0x2
 6256 11d8 91       		.byte	0x91
ARM GAS  /tmp/ccgFJ4Zb.s 			page 112


 6257 11d9 6C       		.sleb128 -20
 6258 11da 23       		.uleb128 0x23
 6259 11db 36000000 		.4byte	.LASF196
 6260 11df 01       		.byte	0x1
 6261 11e0 3A04     		.2byte	0x43a
 6262 11e2 22080000 		.4byte	0x822
 6263 11e6 02       		.byte	0x2
 6264 11e7 91       		.byte	0x91
 6265 11e8 74       		.sleb128 -12
 6266 11e9 00       		.byte	0
 6267 11ea 1F       		.uleb128 0x1f
 6268 11eb 01       		.byte	0x1
 6269 11ec 3B050000 		.4byte	.LASF197
 6270 11f0 01       		.byte	0x1
 6271 11f1 4C04     		.2byte	0x44c
 6272 11f3 01       		.byte	0x1
 6273 11f4 9B010000 		.4byte	0x19b
 6274 11f8 00000000 		.4byte	.LFB26
 6275 11fc 46000000 		.4byte	.LFE26
 6276 1200 14030000 		.4byte	.LLST19
 6277 1204 43120000 		.4byte	0x1243
 6278 1208 20       		.uleb128 0x20
 6279 1209 61726700 		.ascii	"arg\000"
 6280 120d 01       		.byte	0x1
 6281 120e 4C04     		.2byte	0x44c
 6282 1210 B1000000 		.4byte	0xb1
 6283 1214 02       		.byte	0x2
 6284 1215 91       		.byte	0x91
 6285 1216 74       		.sleb128 -12
 6286 1217 20       		.uleb128 0x20
 6287 1218 70636200 		.ascii	"pcb\000"
 6288 121c 01       		.byte	0x1
 6289 121d 4C04     		.2byte	0x44c
 6290 121f B9030000 		.4byte	0x3b9
 6291 1223 02       		.byte	0x2
 6292 1224 91       		.byte	0x91
 6293 1225 70       		.sleb128 -16
 6294 1226 20       		.uleb128 0x20
 6295 1227 7000     		.ascii	"p\000"
 6296 1229 01       		.byte	0x1
 6297 122a 4C04     		.2byte	0x44c
 6298 122c 15020000 		.4byte	0x215
 6299 1230 02       		.byte	0x2
 6300 1231 91       		.byte	0x91
 6301 1232 6C       		.sleb128 -20
 6302 1233 20       		.uleb128 0x20
 6303 1234 65727200 		.ascii	"err\000"
 6304 1238 01       		.byte	0x1
 6305 1239 4C04     		.2byte	0x44c
 6306 123b 9B010000 		.4byte	0x19b
 6307 123f 02       		.byte	0x2
 6308 1240 91       		.byte	0x91
 6309 1241 6B       		.sleb128 -21
 6310 1242 00       		.byte	0
 6311 1243 29       		.uleb128 0x29
 6312 1244 E6060000 		.4byte	.LASF201
 6313 1248 01       		.byte	0x1
ARM GAS  /tmp/ccgFJ4Zb.s 			page 113


 6314 1249 5F04     		.2byte	0x45f
 6315 124b 01       		.byte	0x1
 6316 124c 00000000 		.4byte	.LFB27
 6317 1250 94000000 		.4byte	.LFE27
 6318 1254 40030000 		.4byte	.LLST20
 6319 1258 A8120000 		.4byte	0x12a8
 6320 125c 21       		.uleb128 0x21
 6321 125d 26040000 		.4byte	.LASF65
 6322 1261 01       		.byte	0x1
 6323 1262 5F04     		.2byte	0x45f
 6324 1264 C5000000 		.4byte	0xc5
 6325 1268 02       		.byte	0x2
 6326 1269 91       		.byte	0x91
 6327 126a 67       		.sleb128 -25
 6328 126b 24       		.uleb128 0x24
 6329 126c 70636200 		.ascii	"pcb\000"
 6330 1270 01       		.byte	0x1
 6331 1271 6104     		.2byte	0x461
 6332 1273 B9030000 		.4byte	0x3b9
 6333 1277 02       		.byte	0x2
 6334 1278 91       		.byte	0x91
 6335 1279 74       		.sleb128 -12
 6336 127a 23       		.uleb128 0x23
 6337 127b 62060000 		.4byte	.LASF198
 6338 127f 01       		.byte	0x1
 6339 1280 6104     		.2byte	0x461
 6340 1282 B9030000 		.4byte	0x3b9
 6341 1286 02       		.byte	0x2
 6342 1287 91       		.byte	0x91
 6343 1288 70       		.sleb128 -16
 6344 1289 23       		.uleb128 0x23
 6345 128a 99020000 		.4byte	.LASF199
 6346 128e 01       		.byte	0x1
 6347 128f 6204     		.2byte	0x462
 6348 1291 F1000000 		.4byte	0xf1
 6349 1295 02       		.byte	0x2
 6350 1296 91       		.byte	0x91
 6351 1297 6C       		.sleb128 -20
 6352 1298 23       		.uleb128 0x23
 6353 1299 2D080000 		.4byte	.LASF200
 6354 129d 01       		.byte	0x1
 6355 129e 6304     		.2byte	0x463
 6356 12a0 C5000000 		.4byte	0xc5
 6357 12a4 02       		.byte	0x2
 6358 12a5 91       		.byte	0x91
 6359 12a6 6B       		.sleb128 -21
 6360 12a7 00       		.byte	0
 6361 12a8 29       		.uleb128 0x29
 6362 12a9 A4050000 		.4byte	.LASF202
 6363 12ad 01       		.byte	0x1
 6364 12ae 8004     		.2byte	0x480
 6365 12b0 01       		.byte	0x1
 6366 12b1 00000000 		.4byte	.LFB28
 6367 12b5 66000000 		.4byte	.LFE28
 6368 12b9 6C030000 		.4byte	.LLST21
 6369 12bd EF120000 		.4byte	0x12ef
 6370 12c1 24       		.uleb128 0x24
ARM GAS  /tmp/ccgFJ4Zb.s 			page 114


 6371 12c2 70636200 		.ascii	"pcb\000"
 6372 12c6 01       		.byte	0x1
 6373 12c7 8204     		.2byte	0x482
 6374 12c9 B9030000 		.4byte	0x3b9
 6375 12cd 02       		.byte	0x2
 6376 12ce 91       		.byte	0x91
 6377 12cf 74       		.sleb128 -12
 6378 12d0 23       		.uleb128 0x23
 6379 12d1 62060000 		.4byte	.LASF198
 6380 12d5 01       		.byte	0x1
 6381 12d6 8204     		.2byte	0x482
 6382 12d8 B9030000 		.4byte	0x3b9
 6383 12dc 02       		.byte	0x2
 6384 12dd 91       		.byte	0x91
 6385 12de 70       		.sleb128 -16
 6386 12df 23       		.uleb128 0x23
 6387 12e0 99020000 		.4byte	.LASF199
 6388 12e4 01       		.byte	0x1
 6389 12e5 8304     		.2byte	0x483
 6390 12e7 F1000000 		.4byte	0xf1
 6391 12eb 02       		.byte	0x2
 6392 12ec 91       		.byte	0x91
 6393 12ed 6C       		.sleb128 -20
 6394 12ee 00       		.byte	0
 6395 12ef 1F       		.uleb128 0x1f
 6396 12f0 01       		.byte	0x1
 6397 12f1 DB090000 		.4byte	.LASF203
 6398 12f5 01       		.byte	0x1
 6399 12f6 9C04     		.2byte	0x49c
 6400 12f8 01       		.byte	0x1
 6401 12f9 B9030000 		.4byte	0x3b9
 6402 12fd 00000000 		.4byte	.LFB29
 6403 1301 84010000 		.4byte	.LFE29
 6404 1305 98030000 		.4byte	.LLST22
 6405 1309 3B130000 		.4byte	0x133b
 6406 130d 21       		.uleb128 0x21
 6407 130e 26040000 		.4byte	.LASF65
 6408 1312 01       		.byte	0x1
 6409 1313 9C04     		.2byte	0x49c
 6410 1315 C5000000 		.4byte	0xc5
 6411 1319 02       		.byte	0x2
 6412 131a 91       		.byte	0x91
 6413 131b 6F       		.sleb128 -17
 6414 131c 24       		.uleb128 0x24
 6415 131d 70636200 		.ascii	"pcb\000"
 6416 1321 01       		.byte	0x1
 6417 1322 9E04     		.2byte	0x49e
 6418 1324 B9030000 		.4byte	0x3b9
 6419 1328 02       		.byte	0x2
 6420 1329 91       		.byte	0x91
 6421 132a 74       		.sleb128 -12
 6422 132b 24       		.uleb128 0x24
 6423 132c 69737300 		.ascii	"iss\000"
 6424 1330 01       		.byte	0x1
 6425 1331 9F04     		.2byte	0x49f
 6426 1333 F1000000 		.4byte	0xf1
 6427 1337 02       		.byte	0x2
ARM GAS  /tmp/ccgFJ4Zb.s 			page 115


 6428 1338 91       		.byte	0x91
 6429 1339 70       		.sleb128 -16
 6430 133a 00       		.byte	0
 6431 133b 2A       		.uleb128 0x2a
 6432 133c 01       		.byte	0x1
 6433 133d 0D030000 		.4byte	.LASF239
 6434 1341 01       		.byte	0x1
 6435 1342 F004     		.2byte	0x4f0
 6436 1344 01       		.byte	0x1
 6437 1345 B9030000 		.4byte	0x3b9
 6438 1349 00000000 		.4byte	.LFB30
 6439 134d 10000000 		.4byte	.LFE30
 6440 1351 C4030000 		.4byte	.LLST23
 6441 1355 22       		.uleb128 0x22
 6442 1356 01       		.byte	0x1
 6443 1357 D3090000 		.4byte	.LASF204
 6444 135b 01       		.byte	0x1
 6445 135c FD04     		.2byte	0x4fd
 6446 135e 01       		.byte	0x1
 6447 135f 00000000 		.4byte	.LFB31
 6448 1363 10000000 		.4byte	.LFE31
 6449 1367 E4030000 		.4byte	.LLST24
 6450 136b 8E130000 		.4byte	0x138e
 6451 136f 20       		.uleb128 0x20
 6452 1370 70636200 		.ascii	"pcb\000"
 6453 1374 01       		.byte	0x1
 6454 1375 FD04     		.2byte	0x4fd
 6455 1377 B9030000 		.4byte	0x3b9
 6456 137b 02       		.byte	0x2
 6457 137c 91       		.byte	0x91
 6458 137d 7C       		.sleb128 -4
 6459 137e 20       		.uleb128 0x20
 6460 137f 61726700 		.ascii	"arg\000"
 6461 1383 01       		.byte	0x1
 6462 1384 FD04     		.2byte	0x4fd
 6463 1386 B1000000 		.4byte	0xb1
 6464 138a 02       		.byte	0x2
 6465 138b 91       		.byte	0x91
 6466 138c 78       		.sleb128 -8
 6467 138d 00       		.byte	0
 6468 138e 22       		.uleb128 0x22
 6469 138f 01       		.byte	0x1
 6470 1390 13090000 		.4byte	.LASF205
 6471 1394 01       		.byte	0x1
 6472 1395 0B05     		.2byte	0x50b
 6473 1397 01       		.byte	0x1
 6474 1398 00000000 		.4byte	.LFB32
 6475 139c 12000000 		.4byte	.LFE32
 6476 13a0 04040000 		.4byte	.LLST25
 6477 13a4 C7130000 		.4byte	0x13c7
 6478 13a8 20       		.uleb128 0x20
 6479 13a9 70636200 		.ascii	"pcb\000"
 6480 13ad 01       		.byte	0x1
 6481 13ae 0B05     		.2byte	0x50b
 6482 13b0 B9030000 		.4byte	0x3b9
 6483 13b4 02       		.byte	0x2
 6484 13b5 91       		.byte	0x91
ARM GAS  /tmp/ccgFJ4Zb.s 			page 116


 6485 13b6 7C       		.sleb128 -4
 6486 13b7 21       		.uleb128 0x21
 6487 13b8 4F090000 		.4byte	.LASF98
 6488 13bc 01       		.byte	0x1
 6489 13bd 0B05     		.2byte	0x50b
 6490 13bf CE060000 		.4byte	0x6ce
 6491 13c3 02       		.byte	0x2
 6492 13c4 91       		.byte	0x91
 6493 13c5 78       		.sleb128 -8
 6494 13c6 00       		.byte	0
 6495 13c7 22       		.uleb128 0x22
 6496 13c8 01       		.byte	0x1
 6497 13c9 32050000 		.4byte	.LASF206
 6498 13cd 01       		.byte	0x1
 6499 13ce 1805     		.2byte	0x518
 6500 13d0 01       		.byte	0x1
 6501 13d1 00000000 		.4byte	.LFB33
 6502 13d5 12000000 		.4byte	.LFE33
 6503 13d9 24040000 		.4byte	.LLST26
 6504 13dd 00140000 		.4byte	0x1400
 6505 13e1 20       		.uleb128 0x20
 6506 13e2 70636200 		.ascii	"pcb\000"
 6507 13e6 01       		.byte	0x1
 6508 13e7 1805     		.2byte	0x518
 6509 13e9 B9030000 		.4byte	0x3b9
 6510 13ed 02       		.byte	0x2
 6511 13ee 91       		.byte	0x91
 6512 13ef 7C       		.sleb128 -4
 6513 13f0 21       		.uleb128 0x21
 6514 13f1 DB040000 		.4byte	.LASF97
 6515 13f5 01       		.byte	0x1
 6516 13f6 1805     		.2byte	0x518
 6517 13f8 FE060000 		.4byte	0x6fe
 6518 13fc 02       		.byte	0x2
 6519 13fd 91       		.byte	0x91
 6520 13fe 78       		.sleb128 -8
 6521 13ff 00       		.byte	0
 6522 1400 22       		.uleb128 0x22
 6523 1401 01       		.byte	0x1
 6524 1402 06060000 		.4byte	.LASF207
 6525 1406 01       		.byte	0x1
 6526 1407 2605     		.2byte	0x526
 6527 1409 01       		.byte	0x1
 6528 140a 00000000 		.4byte	.LFB34
 6529 140e 12000000 		.4byte	.LFE34
 6530 1412 44040000 		.4byte	.LLST27
 6531 1416 39140000 		.4byte	0x1439
 6532 141a 20       		.uleb128 0x20
 6533 141b 70636200 		.ascii	"pcb\000"
 6534 141f 01       		.byte	0x1
 6535 1420 2605     		.2byte	0x526
 6536 1422 B9030000 		.4byte	0x3b9
 6537 1426 02       		.byte	0x2
 6538 1427 91       		.byte	0x91
 6539 1428 7C       		.sleb128 -4
 6540 1429 20       		.uleb128 0x20
 6541 142a 65727200 		.ascii	"err\000"
ARM GAS  /tmp/ccgFJ4Zb.s 			page 117


 6542 142e 01       		.byte	0x1
 6543 142f 2605     		.2byte	0x526
 6544 1431 4F070000 		.4byte	0x74f
 6545 1435 02       		.byte	0x2
 6546 1436 91       		.byte	0x91
 6547 1437 78       		.sleb128 -8
 6548 1438 00       		.byte	0
 6549 1439 22       		.uleb128 0x22
 6550 143a 01       		.byte	0x1
 6551 143b CB060000 		.4byte	.LASF208
 6552 143f 01       		.byte	0x1
 6553 1440 3405     		.2byte	0x534
 6554 1442 01       		.byte	0x1
 6555 1443 00000000 		.4byte	.LFB35
 6556 1447 10000000 		.4byte	.LFE35
 6557 144b 64040000 		.4byte	.LLST28
 6558 144f 72140000 		.4byte	0x1472
 6559 1453 20       		.uleb128 0x20
 6560 1454 70636200 		.ascii	"pcb\000"
 6561 1458 01       		.byte	0x1
 6562 1459 3405     		.2byte	0x534
 6563 145b B9030000 		.4byte	0x3b9
 6564 145f 02       		.byte	0x2
 6565 1460 91       		.byte	0x91
 6566 1461 7C       		.sleb128 -4
 6567 1462 21       		.uleb128 0x21
 6568 1463 2B040000 		.4byte	.LASF67
 6569 1467 01       		.byte	0x1
 6570 1468 3405     		.2byte	0x534
 6571 146a 8E030000 		.4byte	0x38e
 6572 146e 02       		.byte	0x2
 6573 146f 91       		.byte	0x91
 6574 1470 78       		.sleb128 -8
 6575 1471 00       		.byte	0
 6576 1472 22       		.uleb128 0x22
 6577 1473 01       		.byte	0x1
 6578 1474 E9020000 		.4byte	.LASF209
 6579 1478 01       		.byte	0x1
 6580 1479 4205     		.2byte	0x542
 6581 147b 01       		.byte	0x1
 6582 147c 00000000 		.4byte	.LFB36
 6583 1480 22000000 		.4byte	.LFE36
 6584 1484 84040000 		.4byte	.LLST29
 6585 1488 BA140000 		.4byte	0x14ba
 6586 148c 20       		.uleb128 0x20
 6587 148d 70636200 		.ascii	"pcb\000"
 6588 1491 01       		.byte	0x1
 6589 1492 4205     		.2byte	0x542
 6590 1494 B9030000 		.4byte	0x3b9
 6591 1498 02       		.byte	0x2
 6592 1499 91       		.byte	0x91
 6593 149a 7C       		.sleb128 -4
 6594 149b 21       		.uleb128 0x21
 6595 149c 3C040000 		.4byte	.LASF100
 6596 14a0 01       		.byte	0x1
 6597 14a1 4205     		.2byte	0x542
 6598 14a3 29070000 		.4byte	0x729
ARM GAS  /tmp/ccgFJ4Zb.s 			page 118


 6599 14a7 02       		.byte	0x2
 6600 14a8 91       		.byte	0x91
 6601 14a9 78       		.sleb128 -8
 6602 14aa 21       		.uleb128 0x21
 6603 14ab 19000000 		.4byte	.LASF210
 6604 14af 01       		.byte	0x1
 6605 14b0 4205     		.2byte	0x542
 6606 14b2 C5000000 		.4byte	0xc5
 6607 14b6 02       		.byte	0x2
 6608 14b7 91       		.byte	0x91
 6609 14b8 77       		.sleb128 -9
 6610 14b9 00       		.byte	0
 6611 14ba 22       		.uleb128 0x22
 6612 14bb 01       		.byte	0x1
 6613 14bc B2030000 		.4byte	.LASF211
 6614 14c0 01       		.byte	0x1
 6615 14c1 5305     		.2byte	0x553
 6616 14c3 01       		.byte	0x1
 6617 14c4 00000000 		.4byte	.LFB37
 6618 14c8 8A000000 		.4byte	.LFE37
 6619 14cc A4040000 		.4byte	.LLST30
 6620 14d0 E4140000 		.4byte	0x14e4
 6621 14d4 20       		.uleb128 0x20
 6622 14d5 70636200 		.ascii	"pcb\000"
 6623 14d9 01       		.byte	0x1
 6624 14da 5305     		.2byte	0x553
 6625 14dc B9030000 		.4byte	0x3b9
 6626 14e0 02       		.byte	0x2
 6627 14e1 91       		.byte	0x91
 6628 14e2 74       		.sleb128 -12
 6629 14e3 00       		.byte	0
 6630 14e4 22       		.uleb128 0x22
 6631 14e5 01       		.byte	0x1
 6632 14e6 C3010000 		.4byte	.LASF212
 6633 14ea 01       		.byte	0x1
 6634 14eb 9705     		.2byte	0x597
 6635 14ed 01       		.byte	0x1
 6636 14ee 00000000 		.4byte	.LFB38
 6637 14f2 F4000000 		.4byte	.LFE38
 6638 14f6 D0040000 		.4byte	.LLST31
 6639 14fa 1D150000 		.4byte	0x151d
 6640 14fe 21       		.uleb128 0x21
 6641 14ff 8F030000 		.4byte	.LASF213
 6642 1503 01       		.byte	0x1
 6643 1504 9705     		.2byte	0x597
 6644 1506 1D150000 		.4byte	0x151d
 6645 150a 02       		.byte	0x2
 6646 150b 91       		.byte	0x91
 6647 150c 74       		.sleb128 -12
 6648 150d 20       		.uleb128 0x20
 6649 150e 70636200 		.ascii	"pcb\000"
 6650 1512 01       		.byte	0x1
 6651 1513 9705     		.2byte	0x597
 6652 1515 B9030000 		.4byte	0x3b9
 6653 1519 02       		.byte	0x2
 6654 151a 91       		.byte	0x91
 6655 151b 70       		.sleb128 -16
ARM GAS  /tmp/ccgFJ4Zb.s 			page 119


 6656 151c 00       		.byte	0
 6657 151d 06       		.uleb128 0x6
 6658 151e 04       		.byte	0x4
 6659 151f B9030000 		.4byte	0x3b9
 6660 1523 2B       		.uleb128 0x2b
 6661 1524 01       		.byte	0x1
 6662 1525 20010000 		.4byte	.LASF214
 6663 1529 01       		.byte	0x1
 6664 152a B805     		.2byte	0x5b8
 6665 152c 01       		.byte	0x1
 6666 152d F1000000 		.4byte	0xf1
 6667 1531 00000000 		.4byte	.LFB39
 6668 1535 2E000000 		.4byte	.LFE39
 6669 1539 02       		.byte	0x2
 6670 153a 7D       		.byte	0x7d
 6671 153b 00       		.sleb128 0
 6672 153c 53150000 		.4byte	0x1553
 6673 1540 24       		.uleb128 0x24
 6674 1541 69737300 		.ascii	"iss\000"
 6675 1545 01       		.byte	0x1
 6676 1546 BA05     		.2byte	0x5ba
 6677 1548 F1000000 		.4byte	0xf1
 6678 154c 05       		.byte	0x5
 6679 154d 03       		.byte	0x3
 6680 154e 00000000 		.4byte	iss.5946
 6681 1552 00       		.byte	0
 6682 1553 1F       		.uleb128 0x1f
 6683 1554 01       		.byte	0x1
 6684 1555 A4060000 		.4byte	.LASF215
 6685 1559 01       		.byte	0x1
 6686 155a C705     		.2byte	0x5c7
 6687 155c 01       		.byte	0x1
 6688 155d DB000000 		.4byte	0xdb
 6689 1561 00000000 		.4byte	.LFB40
 6690 1565 4C000000 		.4byte	.LFE40
 6691 1569 FC040000 		.4byte	.LLST32
 6692 156d AE150000 		.4byte	0x15ae
 6693 1571 21       		.uleb128 0x21
 6694 1572 F7090000 		.4byte	.LASF216
 6695 1576 01       		.byte	0x1
 6696 1577 C705     		.2byte	0x5c7
 6697 1579 DB000000 		.4byte	0xdb
 6698 157d 02       		.byte	0x2
 6699 157e 91       		.byte	0x91
 6700 157f 6E       		.sleb128 -18
 6701 1580 21       		.uleb128 0x21
 6702 1581 03090000 		.4byte	.LASF42
 6703 1585 01       		.byte	0x1
 6704 1586 C705     		.2byte	0x5c7
 6705 1588 42030000 		.4byte	0x342
 6706 158c 02       		.byte	0x2
 6707 158d 91       		.byte	0x91
 6708 158e 68       		.sleb128 -24
 6709 158f 23       		.uleb128 0x23
 6710 1590 49090000 		.4byte	.LASF217
 6711 1594 01       		.byte	0x1
 6712 1595 C905     		.2byte	0x5c9
ARM GAS  /tmp/ccgFJ4Zb.s 			page 120


 6713 1597 DB000000 		.4byte	0xdb
 6714 159b 02       		.byte	0x2
 6715 159c 91       		.byte	0x91
 6716 159d 72       		.sleb128 -14
 6717 159e 23       		.uleb128 0x23
 6718 159f C6070000 		.4byte	.LASF218
 6719 15a3 01       		.byte	0x1
 6720 15a4 CA05     		.2byte	0x5ca
 6721 15a6 1B020000 		.4byte	0x21b
 6722 15aa 02       		.byte	0x2
 6723 15ab 91       		.byte	0x91
 6724 15ac 74       		.sleb128 -12
 6725 15ad 00       		.byte	0
 6726 15ae 1F       		.uleb128 0x1f
 6727 15af 01       		.byte	0x1
 6728 15b0 80050000 		.4byte	.LASF219
 6729 15b4 01       		.byte	0x1
 6730 15b5 DA05     		.2byte	0x5da
 6731 15b7 01       		.byte	0x1
 6732 15b8 B3000000 		.4byte	0xb3
 6733 15bc 00000000 		.4byte	.LFB41
 6734 15c0 1E000000 		.4byte	.LFE41
 6735 15c4 28050000 		.4byte	.LLST33
 6736 15c8 DA150000 		.4byte	0x15da
 6737 15cc 20       		.uleb128 0x20
 6738 15cd 7300     		.ascii	"s\000"
 6739 15cf 01       		.byte	0x1
 6740 15d0 DA05     		.2byte	0x5da
 6741 15d2 7C070000 		.4byte	0x77c
 6742 15d6 02       		.byte	0x2
 6743 15d7 91       		.byte	0x91
 6744 15d8 7F       		.sleb128 -1
 6745 15d9 00       		.byte	0
 6746 15da 2C       		.uleb128 0x2c
 6747 15db 23080000 		.4byte	.LASF220
 6748 15df 0A       		.byte	0xa
 6749 15e0 3701     		.2byte	0x137
 6750 15e2 F1000000 		.4byte	0xf1
 6751 15e6 01       		.byte	0x1
 6752 15e7 01       		.byte	0x1
 6753 15e8 2C       		.uleb128 0x2c
 6754 15e9 D6080000 		.4byte	.LASF221
 6755 15ed 0A       		.byte	0xa
 6756 15ee 3E01     		.2byte	0x13e
 6757 15f0 B9030000 		.4byte	0x3b9
 6758 15f4 01       		.byte	0x1
 6759 15f5 01       		.byte	0x1
 6760 15f6 2C       		.uleb128 0x2c
 6761 15f7 24060000 		.4byte	.LASF222
 6762 15fb 0A       		.byte	0xa
 6763 15fc 3F01     		.2byte	0x13f
 6764 15fe 64090000 		.4byte	0x964
 6765 1602 01       		.byte	0x1
 6766 1603 01       		.byte	0x1
 6767 1604 2C       		.uleb128 0x2c
 6768 1605 0E040000 		.4byte	.LASF223
 6769 1609 0A       		.byte	0xa
ARM GAS  /tmp/ccgFJ4Zb.s 			page 121


 6770 160a 4001     		.2byte	0x140
 6771 160c B9030000 		.4byte	0x3b9
 6772 1610 01       		.byte	0x1
 6773 1611 01       		.byte	0x1
 6774 1612 2C       		.uleb128 0x2c
 6775 1613 A3090000 		.4byte	.LASF224
 6776 1617 0A       		.byte	0xa
 6777 1618 4301     		.2byte	0x143
 6778 161a B9030000 		.4byte	0x3b9
 6779 161e 01       		.byte	0x1
 6780 161f 01       		.byte	0x1
 6781 1620 2C       		.uleb128 0x2c
 6782 1621 A6030000 		.4byte	.LASF225
 6783 1625 0A       		.byte	0xa
 6784 1626 4501     		.2byte	0x145
 6785 1628 B9030000 		.4byte	0x3b9
 6786 162c 01       		.byte	0x1
 6787 162d 01       		.byte	0x1
 6788 162e 2D       		.uleb128 0x2d
 6789 162f 98010000 		.4byte	.LASF226
 6790 1633 0B       		.byte	0xb
 6791 1634 95       		.byte	0x95
 6792 1635 FF0A0000 		.4byte	0xaff
 6793 1639 01       		.byte	0x1
 6794 163a 01       		.byte	0x1
 6795 163b 0F       		.uleb128 0xf
 6796 163c B3000000 		.4byte	0xb3
 6797 1640 4B160000 		.4byte	0x164b
 6798 1644 10       		.uleb128 0x10
 6799 1645 30000000 		.4byte	0x30
 6800 1649 0A       		.byte	0xa
 6801 164a 00       		.byte	0
 6802 164b 2D       		.uleb128 0x2d
 6803 164c 22090000 		.4byte	.LASF227
 6804 1650 01       		.byte	0x1
 6805 1651 3A       		.byte	0x3a
 6806 1652 58160000 		.4byte	0x1658
 6807 1656 01       		.byte	0x1
 6808 1657 01       		.byte	0x1
 6809 1658 07       		.uleb128 0x7
 6810 1659 3B160000 		.4byte	0x163b
 6811 165d 0F       		.uleb128 0xf
 6812 165e C5000000 		.4byte	0xc5
 6813 1662 6D160000 		.4byte	0x166d
 6814 1666 10       		.uleb128 0x10
 6815 1667 30000000 		.4byte	0x30
 6816 166b 0C       		.byte	0xc
 6817 166c 00       		.byte	0
 6818 166d 2D       		.uleb128 0x2d
 6819 166e 51030000 		.4byte	.LASF228
 6820 1672 01       		.byte	0x1
 6821 1673 4A       		.byte	0x4a
 6822 1674 7A160000 		.4byte	0x167a
 6823 1678 01       		.byte	0x1
 6824 1679 01       		.byte	0x1
 6825 167a 07       		.uleb128 0x7
 6826 167b 5D160000 		.4byte	0x165d
ARM GAS  /tmp/ccgFJ4Zb.s 			page 122


 6827 167f 0F       		.uleb128 0xf
 6828 1680 C5000000 		.4byte	0xc5
 6829 1684 8F160000 		.4byte	0x168f
 6830 1688 10       		.uleb128 0x10
 6831 1689 30000000 		.4byte	0x30
 6832 168d 06       		.byte	0x6
 6833 168e 00       		.byte	0
 6834 168f 2D       		.uleb128 0x2d
 6835 1690 01010000 		.4byte	.LASF229
 6836 1694 01       		.byte	0x1
 6837 1695 4D       		.byte	0x4d
 6838 1696 9C160000 		.4byte	0x169c
 6839 169a 01       		.byte	0x1
 6840 169b 01       		.byte	0x1
 6841 169c 07       		.uleb128 0x7
 6842 169d 7F160000 		.4byte	0x167f
 6843 16a1 0F       		.uleb128 0xf
 6844 16a2 1D150000 		.4byte	0x151d
 6845 16a6 B1160000 		.4byte	0x16b1
 6846 16aa 10       		.uleb128 0x10
 6847 16ab 30000000 		.4byte	0x30
 6848 16af 03       		.byte	0x3
 6849 16b0 00       		.byte	0
 6850 16b1 2D       		.uleb128 0x2d
 6851 16b2 DE000000 		.4byte	.LASF230
 6852 16b6 01       		.byte	0x1
 6853 16b7 5E       		.byte	0x5e
 6854 16b8 BE160000 		.4byte	0x16be
 6855 16bc 01       		.byte	0x1
 6856 16bd 01       		.byte	0x1
 6857 16be 07       		.uleb128 0x7
 6858 16bf A1160000 		.4byte	0x16a1
 6859 16c3 2E       		.uleb128 0x2e
 6860 16c4 E1030000 		.4byte	.LASF231
 6861 16c8 01       		.byte	0x1
 6862 16c9 65       		.byte	0x65
 6863 16ca C5000000 		.4byte	0xc5
 6864 16ce 05       		.byte	0x5
 6865 16cf 03       		.byte	0x3
 6866 16d0 00000000 		.4byte	tcp_timer
 6867 16d4 2F       		.uleb128 0x2f
 6868 16d5 23080000 		.4byte	.LASF220
 6869 16d9 01       		.byte	0x1
 6870 16da 49       		.byte	0x49
 6871 16db F1000000 		.4byte	0xf1
 6872 16df 01       		.byte	0x1
 6873 16e0 05       		.byte	0x5
 6874 16e1 03       		.byte	0x3
 6875 16e2 00000000 		.4byte	tcp_ticks
 6876 16e6 2F       		.uleb128 0x2f
 6877 16e7 D6080000 		.4byte	.LASF221
 6878 16eb 01       		.byte	0x1
 6879 16ec 52       		.byte	0x52
 6880 16ed B9030000 		.4byte	0x3b9
 6881 16f1 01       		.byte	0x1
 6882 16f2 05       		.byte	0x5
 6883 16f3 03       		.byte	0x3
ARM GAS  /tmp/ccgFJ4Zb.s 			page 123


 6884 16f4 00000000 		.4byte	tcp_bound_pcbs
 6885 16f8 2F       		.uleb128 0x2f
 6886 16f9 24060000 		.4byte	.LASF222
 6887 16fd 01       		.byte	0x1
 6888 16fe 54       		.byte	0x54
 6889 16ff 64090000 		.4byte	0x964
 6890 1703 01       		.byte	0x1
 6891 1704 05       		.byte	0x5
 6892 1705 03       		.byte	0x3
 6893 1706 00000000 		.4byte	tcp_listen_pcbs
 6894 170a 2F       		.uleb128 0x2f
 6895 170b 0E040000 		.4byte	.LASF223
 6896 170f 01       		.byte	0x1
 6897 1710 57       		.byte	0x57
 6898 1711 B9030000 		.4byte	0x3b9
 6899 1715 01       		.byte	0x1
 6900 1716 05       		.byte	0x5
 6901 1717 03       		.byte	0x3
 6902 1718 00000000 		.4byte	tcp_active_pcbs
 6903 171c 2F       		.uleb128 0x2f
 6904 171d A3090000 		.4byte	.LASF224
 6905 1721 01       		.byte	0x1
 6906 1722 59       		.byte	0x59
 6907 1723 B9030000 		.4byte	0x3b9
 6908 1727 01       		.byte	0x1
 6909 1728 05       		.byte	0x5
 6910 1729 03       		.byte	0x3
 6911 172a 00000000 		.4byte	tcp_tw_pcbs
 6912 172e 2F       		.uleb128 0x2f
 6913 172f A6030000 		.4byte	.LASF225
 6914 1733 01       		.byte	0x1
 6915 1734 62       		.byte	0x62
 6916 1735 B9030000 		.4byte	0x3b9
 6917 1739 01       		.byte	0x1
 6918 173a 05       		.byte	0x5
 6919 173b 03       		.byte	0x3
 6920 173c 00000000 		.4byte	tcp_tmp_pcb
 6921 1740 2D       		.uleb128 0x2d
 6922 1741 98010000 		.4byte	.LASF226
 6923 1745 0B       		.byte	0xb
 6924 1746 95       		.byte	0x95
 6925 1747 FF0A0000 		.4byte	0xaff
 6926 174b 01       		.byte	0x1
 6927 174c 01       		.byte	0x1
 6928 174d 2F       		.uleb128 0x2f
 6929 174e 22090000 		.4byte	.LASF227
 6930 1752 01       		.byte	0x1
 6931 1753 3A       		.byte	0x3a
 6932 1754 5F170000 		.4byte	0x175f
 6933 1758 01       		.byte	0x1
 6934 1759 05       		.byte	0x5
 6935 175a 03       		.byte	0x3
 6936 175b 00000000 		.4byte	tcp_state_str
 6937 175f 07       		.uleb128 0x7
 6938 1760 3B160000 		.4byte	0x163b
 6939 1764 2F       		.uleb128 0x2f
 6940 1765 51030000 		.4byte	.LASF228
ARM GAS  /tmp/ccgFJ4Zb.s 			page 124


 6941 1769 01       		.byte	0x1
 6942 176a 4A       		.byte	0x4a
 6943 176b 76170000 		.4byte	0x1776
 6944 176f 01       		.byte	0x1
 6945 1770 05       		.byte	0x5
 6946 1771 03       		.byte	0x3
 6947 1772 00000000 		.4byte	tcp_backoff
 6948 1776 07       		.uleb128 0x7
 6949 1777 5D160000 		.4byte	0x165d
 6950 177b 2F       		.uleb128 0x2f
 6951 177c 01010000 		.4byte	.LASF229
 6952 1780 01       		.byte	0x1
 6953 1781 4D       		.byte	0x4d
 6954 1782 8D170000 		.4byte	0x178d
 6955 1786 01       		.byte	0x1
 6956 1787 05       		.byte	0x5
 6957 1788 03       		.byte	0x3
 6958 1789 00000000 		.4byte	tcp_persist_backoff
 6959 178d 07       		.uleb128 0x7
 6960 178e 7F160000 		.4byte	0x167f
 6961 1792 2F       		.uleb128 0x2f
 6962 1793 DE000000 		.4byte	.LASF230
 6963 1797 01       		.byte	0x1
 6964 1798 5E       		.byte	0x5e
 6965 1799 A4170000 		.4byte	0x17a4
 6966 179d 01       		.byte	0x1
 6967 179e 05       		.byte	0x5
 6968 179f 03       		.byte	0x3
 6969 17a0 00000000 		.4byte	tcp_pcb_lists
 6970 17a4 07       		.uleb128 0x7
 6971 17a5 A1160000 		.4byte	0x16a1
 6972 17a9 00       		.byte	0
 6973              		.section	.debug_abbrev,"",%progbits
 6974              	.Ldebug_abbrev0:
 6975 0000 01       		.uleb128 0x1
 6976 0001 11       		.uleb128 0x11
 6977 0002 01       		.byte	0x1
 6978 0003 25       		.uleb128 0x25
 6979 0004 0E       		.uleb128 0xe
 6980 0005 13       		.uleb128 0x13
 6981 0006 0B       		.uleb128 0xb
 6982 0007 03       		.uleb128 0x3
 6983 0008 0E       		.uleb128 0xe
 6984 0009 1B       		.uleb128 0x1b
 6985 000a 0E       		.uleb128 0xe
 6986 000b 11       		.uleb128 0x11
 6987 000c 01       		.uleb128 0x1
 6988 000d 52       		.uleb128 0x52
 6989 000e 01       		.uleb128 0x1
 6990 000f 55       		.uleb128 0x55
 6991 0010 06       		.uleb128 0x6
 6992 0011 10       		.uleb128 0x10
 6993 0012 06       		.uleb128 0x6
 6994 0013 00       		.byte	0
 6995 0014 00       		.byte	0
 6996 0015 02       		.uleb128 0x2
 6997 0016 24       		.uleb128 0x24
ARM GAS  /tmp/ccgFJ4Zb.s 			page 125


 6998 0017 00       		.byte	0
 6999 0018 0B       		.uleb128 0xb
 7000 0019 0B       		.uleb128 0xb
 7001 001a 3E       		.uleb128 0x3e
 7002 001b 0B       		.uleb128 0xb
 7003 001c 03       		.uleb128 0x3
 7004 001d 08       		.uleb128 0x8
 7005 001e 00       		.byte	0
 7006 001f 00       		.byte	0
 7007 0020 03       		.uleb128 0x3
 7008 0021 24       		.uleb128 0x24
 7009 0022 00       		.byte	0
 7010 0023 0B       		.uleb128 0xb
 7011 0024 0B       		.uleb128 0xb
 7012 0025 3E       		.uleb128 0x3e
 7013 0026 0B       		.uleb128 0xb
 7014 0027 03       		.uleb128 0x3
 7015 0028 0E       		.uleb128 0xe
 7016 0029 00       		.byte	0
 7017 002a 00       		.byte	0
 7018 002b 04       		.uleb128 0x4
 7019 002c 16       		.uleb128 0x16
 7020 002d 00       		.byte	0
 7021 002e 03       		.uleb128 0x3
 7022 002f 0E       		.uleb128 0xe
 7023 0030 3A       		.uleb128 0x3a
 7024 0031 0B       		.uleb128 0xb
 7025 0032 3B       		.uleb128 0x3b
 7026 0033 0B       		.uleb128 0xb
 7027 0034 49       		.uleb128 0x49
 7028 0035 13       		.uleb128 0x13
 7029 0036 00       		.byte	0
 7030 0037 00       		.byte	0
 7031 0038 05       		.uleb128 0x5
 7032 0039 0F       		.uleb128 0xf
 7033 003a 00       		.byte	0
 7034 003b 0B       		.uleb128 0xb
 7035 003c 0B       		.uleb128 0xb
 7036 003d 00       		.byte	0
 7037 003e 00       		.byte	0
 7038 003f 06       		.uleb128 0x6
 7039 0040 0F       		.uleb128 0xf
 7040 0041 00       		.byte	0
 7041 0042 0B       		.uleb128 0xb
 7042 0043 0B       		.uleb128 0xb
 7043 0044 49       		.uleb128 0x49
 7044 0045 13       		.uleb128 0x13
 7045 0046 00       		.byte	0
 7046 0047 00       		.byte	0
 7047 0048 07       		.uleb128 0x7
 7048 0049 26       		.uleb128 0x26
 7049 004a 00       		.byte	0
 7050 004b 49       		.uleb128 0x49
 7051 004c 13       		.uleb128 0x13
 7052 004d 00       		.byte	0
 7053 004e 00       		.byte	0
 7054 004f 08       		.uleb128 0x8
ARM GAS  /tmp/ccgFJ4Zb.s 			page 126


 7055 0050 04       		.uleb128 0x4
 7056 0051 01       		.byte	0x1
 7057 0052 0B       		.uleb128 0xb
 7058 0053 0B       		.uleb128 0xb
 7059 0054 3A       		.uleb128 0x3a
 7060 0055 0B       		.uleb128 0xb
 7061 0056 3B       		.uleb128 0x3b
 7062 0057 0B       		.uleb128 0xb
 7063 0058 01       		.uleb128 0x1
 7064 0059 13       		.uleb128 0x13
 7065 005a 00       		.byte	0
 7066 005b 00       		.byte	0
 7067 005c 09       		.uleb128 0x9
 7068 005d 28       		.uleb128 0x28
 7069 005e 00       		.byte	0
 7070 005f 03       		.uleb128 0x3
 7071 0060 0E       		.uleb128 0xe
 7072 0061 1C       		.uleb128 0x1c
 7073 0062 0D       		.uleb128 0xd
 7074 0063 00       		.byte	0
 7075 0064 00       		.byte	0
 7076 0065 0A       		.uleb128 0xa
 7077 0066 13       		.uleb128 0x13
 7078 0067 01       		.byte	0x1
 7079 0068 03       		.uleb128 0x3
 7080 0069 0E       		.uleb128 0xe
 7081 006a 0B       		.uleb128 0xb
 7082 006b 0B       		.uleb128 0xb
 7083 006c 3A       		.uleb128 0x3a
 7084 006d 0B       		.uleb128 0xb
 7085 006e 3B       		.uleb128 0x3b
 7086 006f 0B       		.uleb128 0xb
 7087 0070 01       		.uleb128 0x1
 7088 0071 13       		.uleb128 0x13
 7089 0072 00       		.byte	0
 7090 0073 00       		.byte	0
 7091 0074 0B       		.uleb128 0xb
 7092 0075 0D       		.uleb128 0xd
 7093 0076 00       		.byte	0
 7094 0077 03       		.uleb128 0x3
 7095 0078 0E       		.uleb128 0xe
 7096 0079 3A       		.uleb128 0x3a
 7097 007a 0B       		.uleb128 0xb
 7098 007b 3B       		.uleb128 0x3b
 7099 007c 0B       		.uleb128 0xb
 7100 007d 49       		.uleb128 0x49
 7101 007e 13       		.uleb128 0x13
 7102 007f 38       		.uleb128 0x38
 7103 0080 0A       		.uleb128 0xa
 7104 0081 00       		.byte	0
 7105 0082 00       		.byte	0
 7106 0083 0C       		.uleb128 0xc
 7107 0084 0D       		.uleb128 0xd
 7108 0085 00       		.byte	0
 7109 0086 03       		.uleb128 0x3
 7110 0087 08       		.uleb128 0x8
 7111 0088 3A       		.uleb128 0x3a
ARM GAS  /tmp/ccgFJ4Zb.s 			page 127


 7112 0089 0B       		.uleb128 0xb
 7113 008a 3B       		.uleb128 0x3b
 7114 008b 0B       		.uleb128 0xb
 7115 008c 49       		.uleb128 0x49
 7116 008d 13       		.uleb128 0x13
 7117 008e 38       		.uleb128 0x38
 7118 008f 0A       		.uleb128 0xa
 7119 0090 00       		.byte	0
 7120 0091 00       		.byte	0
 7121 0092 0D       		.uleb128 0xd
 7122 0093 15       		.uleb128 0x15
 7123 0094 01       		.byte	0x1
 7124 0095 27       		.uleb128 0x27
 7125 0096 0C       		.uleb128 0xc
 7126 0097 49       		.uleb128 0x49
 7127 0098 13       		.uleb128 0x13
 7128 0099 01       		.uleb128 0x1
 7129 009a 13       		.uleb128 0x13
 7130 009b 00       		.byte	0
 7131 009c 00       		.byte	0
 7132 009d 0E       		.uleb128 0xe
 7133 009e 05       		.uleb128 0x5
 7134 009f 00       		.byte	0
 7135 00a0 49       		.uleb128 0x49
 7136 00a1 13       		.uleb128 0x13
 7137 00a2 00       		.byte	0
 7138 00a3 00       		.byte	0
 7139 00a4 0F       		.uleb128 0xf
 7140 00a5 01       		.uleb128 0x1
 7141 00a6 01       		.byte	0x1
 7142 00a7 49       		.uleb128 0x49
 7143 00a8 13       		.uleb128 0x13
 7144 00a9 01       		.uleb128 0x1
 7145 00aa 13       		.uleb128 0x13
 7146 00ab 00       		.byte	0
 7147 00ac 00       		.byte	0
 7148 00ad 10       		.uleb128 0x10
 7149 00ae 21       		.uleb128 0x21
 7150 00af 00       		.byte	0
 7151 00b0 49       		.uleb128 0x49
 7152 00b1 13       		.uleb128 0x13
 7153 00b2 2F       		.uleb128 0x2f
 7154 00b3 0B       		.uleb128 0xb
 7155 00b4 00       		.byte	0
 7156 00b5 00       		.byte	0
 7157 00b6 11       		.uleb128 0x11
 7158 00b7 0D       		.uleb128 0xd
 7159 00b8 00       		.byte	0
 7160 00b9 03       		.uleb128 0x3
 7161 00ba 0E       		.uleb128 0xe
 7162 00bb 3A       		.uleb128 0x3a
 7163 00bc 0B       		.uleb128 0xb
 7164 00bd 3B       		.uleb128 0x3b
 7165 00be 05       		.uleb128 0x5
 7166 00bf 49       		.uleb128 0x49
 7167 00c0 13       		.uleb128 0x13
 7168 00c1 38       		.uleb128 0x38
ARM GAS  /tmp/ccgFJ4Zb.s 			page 128


 7169 00c2 0A       		.uleb128 0xa
 7170 00c3 00       		.byte	0
 7171 00c4 00       		.byte	0
 7172 00c5 12       		.uleb128 0x12
 7173 00c6 15       		.uleb128 0x15
 7174 00c7 01       		.byte	0x1
 7175 00c8 27       		.uleb128 0x27
 7176 00c9 0C       		.uleb128 0xc
 7177 00ca 01       		.uleb128 0x1
 7178 00cb 13       		.uleb128 0x13
 7179 00cc 00       		.byte	0
 7180 00cd 00       		.byte	0
 7181 00ce 13       		.uleb128 0x13
 7182 00cf 04       		.uleb128 0x4
 7183 00d0 01       		.byte	0x1
 7184 00d1 03       		.uleb128 0x3
 7185 00d2 0E       		.uleb128 0xe
 7186 00d3 0B       		.uleb128 0xb
 7187 00d4 0B       		.uleb128 0xb
 7188 00d5 3A       		.uleb128 0x3a
 7189 00d6 0B       		.uleb128 0xb
 7190 00d7 3B       		.uleb128 0x3b
 7191 00d8 0B       		.uleb128 0xb
 7192 00d9 01       		.uleb128 0x1
 7193 00da 13       		.uleb128 0x13
 7194 00db 00       		.byte	0
 7195 00dc 00       		.byte	0
 7196 00dd 14       		.uleb128 0x14
 7197 00de 13       		.uleb128 0x13
 7198 00df 01       		.byte	0x1
 7199 00e0 03       		.uleb128 0x3
 7200 00e1 0E       		.uleb128 0xe
 7201 00e2 0B       		.uleb128 0xb
 7202 00e3 0B       		.uleb128 0xb
 7203 00e4 3A       		.uleb128 0x3a
 7204 00e5 0B       		.uleb128 0xb
 7205 00e6 3B       		.uleb128 0x3b
 7206 00e7 05       		.uleb128 0x5
 7207 00e8 01       		.uleb128 0x1
 7208 00e9 13       		.uleb128 0x13
 7209 00ea 00       		.byte	0
 7210 00eb 00       		.byte	0
 7211 00ec 15       		.uleb128 0x15
 7212 00ed 0D       		.uleb128 0xd
 7213 00ee 00       		.byte	0
 7214 00ef 03       		.uleb128 0x3
 7215 00f0 08       		.uleb128 0x8
 7216 00f1 3A       		.uleb128 0x3a
 7217 00f2 0B       		.uleb128 0xb
 7218 00f3 3B       		.uleb128 0x3b
 7219 00f4 05       		.uleb128 0x5
 7220 00f5 49       		.uleb128 0x49
 7221 00f6 13       		.uleb128 0x13
 7222 00f7 38       		.uleb128 0x38
 7223 00f8 0A       		.uleb128 0xa
 7224 00f9 00       		.byte	0
 7225 00fa 00       		.byte	0
ARM GAS  /tmp/ccgFJ4Zb.s 			page 129


 7226 00fb 16       		.uleb128 0x16
 7227 00fc 17       		.uleb128 0x17
 7228 00fd 01       		.byte	0x1
 7229 00fe 03       		.uleb128 0x3
 7230 00ff 0E       		.uleb128 0xe
 7231 0100 0B       		.uleb128 0xb
 7232 0101 0B       		.uleb128 0xb
 7233 0102 3A       		.uleb128 0x3a
 7234 0103 0B       		.uleb128 0xb
 7235 0104 3B       		.uleb128 0x3b
 7236 0105 05       		.uleb128 0x5
 7237 0106 01       		.uleb128 0x1
 7238 0107 13       		.uleb128 0x13
 7239 0108 00       		.byte	0
 7240 0109 00       		.byte	0
 7241 010a 17       		.uleb128 0x17
 7242 010b 0D       		.uleb128 0xd
 7243 010c 00       		.byte	0
 7244 010d 03       		.uleb128 0x3
 7245 010e 0E       		.uleb128 0xe
 7246 010f 3A       		.uleb128 0x3a
 7247 0110 0B       		.uleb128 0xb
 7248 0111 3B       		.uleb128 0x3b
 7249 0112 05       		.uleb128 0x5
 7250 0113 49       		.uleb128 0x49
 7251 0114 13       		.uleb128 0x13
 7252 0115 00       		.byte	0
 7253 0116 00       		.byte	0
 7254 0117 18       		.uleb128 0x18
 7255 0118 13       		.uleb128 0x13
 7256 0119 01       		.byte	0x1
 7257 011a 03       		.uleb128 0x3
 7258 011b 0E       		.uleb128 0xe
 7259 011c 0B       		.uleb128 0xb
 7260 011d 05       		.uleb128 0x5
 7261 011e 3A       		.uleb128 0x3a
 7262 011f 0B       		.uleb128 0xb
 7263 0120 3B       		.uleb128 0x3b
 7264 0121 0B       		.uleb128 0xb
 7265 0122 01       		.uleb128 0x1
 7266 0123 13       		.uleb128 0x13
 7267 0124 00       		.byte	0
 7268 0125 00       		.byte	0
 7269 0126 19       		.uleb128 0x19
 7270 0127 2E       		.uleb128 0x2e
 7271 0128 00       		.byte	0
 7272 0129 3F       		.uleb128 0x3f
 7273 012a 0C       		.uleb128 0xc
 7274 012b 03       		.uleb128 0x3
 7275 012c 0E       		.uleb128 0xe
 7276 012d 3A       		.uleb128 0x3a
 7277 012e 0B       		.uleb128 0xb
 7278 012f 3B       		.uleb128 0x3b
 7279 0130 0B       		.uleb128 0xb
 7280 0131 27       		.uleb128 0x27
 7281 0132 0C       		.uleb128 0xc
 7282 0133 11       		.uleb128 0x11
ARM GAS  /tmp/ccgFJ4Zb.s 			page 130


 7283 0134 01       		.uleb128 0x1
 7284 0135 12       		.uleb128 0x12
 7285 0136 01       		.uleb128 0x1
 7286 0137 40       		.uleb128 0x40
 7287 0138 06       		.uleb128 0x6
 7288 0139 00       		.byte	0
 7289 013a 00       		.byte	0
 7290 013b 1A       		.uleb128 0x1a
 7291 013c 2E       		.uleb128 0x2e
 7292 013d 01       		.byte	0x1
 7293 013e 03       		.uleb128 0x3
 7294 013f 0E       		.uleb128 0xe
 7295 0140 3A       		.uleb128 0x3a
 7296 0141 0B       		.uleb128 0xb
 7297 0142 3B       		.uleb128 0x3b
 7298 0143 0B       		.uleb128 0xb
 7299 0144 27       		.uleb128 0x27
 7300 0145 0C       		.uleb128 0xc
 7301 0146 49       		.uleb128 0x49
 7302 0147 13       		.uleb128 0x13
 7303 0148 11       		.uleb128 0x11
 7304 0149 01       		.uleb128 0x1
 7305 014a 12       		.uleb128 0x12
 7306 014b 01       		.uleb128 0x1
 7307 014c 40       		.uleb128 0x40
 7308 014d 06       		.uleb128 0x6
 7309 014e 01       		.uleb128 0x1
 7310 014f 13       		.uleb128 0x13
 7311 0150 00       		.byte	0
 7312 0151 00       		.byte	0
 7313 0152 1B       		.uleb128 0x1b
 7314 0153 05       		.uleb128 0x5
 7315 0154 00       		.byte	0
 7316 0155 03       		.uleb128 0x3
 7317 0156 08       		.uleb128 0x8
 7318 0157 3A       		.uleb128 0x3a
 7319 0158 0B       		.uleb128 0xb
 7320 0159 3B       		.uleb128 0x3b
 7321 015a 0B       		.uleb128 0xb
 7322 015b 49       		.uleb128 0x49
 7323 015c 13       		.uleb128 0x13
 7324 015d 02       		.uleb128 0x2
 7325 015e 0A       		.uleb128 0xa
 7326 015f 00       		.byte	0
 7327 0160 00       		.byte	0
 7328 0161 1C       		.uleb128 0x1c
 7329 0162 05       		.uleb128 0x5
 7330 0163 00       		.byte	0
 7331 0164 03       		.uleb128 0x3
 7332 0165 0E       		.uleb128 0xe
 7333 0166 3A       		.uleb128 0x3a
 7334 0167 0B       		.uleb128 0xb
 7335 0168 3B       		.uleb128 0x3b
 7336 0169 0B       		.uleb128 0xb
 7337 016a 49       		.uleb128 0x49
 7338 016b 13       		.uleb128 0x13
 7339 016c 02       		.uleb128 0x2
ARM GAS  /tmp/ccgFJ4Zb.s 			page 131


 7340 016d 0A       		.uleb128 0xa
 7341 016e 00       		.byte	0
 7342 016f 00       		.byte	0
 7343 0170 1D       		.uleb128 0x1d
 7344 0171 34       		.uleb128 0x34
 7345 0172 00       		.byte	0
 7346 0173 03       		.uleb128 0x3
 7347 0174 08       		.uleb128 0x8
 7348 0175 3A       		.uleb128 0x3a
 7349 0176 0B       		.uleb128 0xb
 7350 0177 3B       		.uleb128 0x3b
 7351 0178 0B       		.uleb128 0xb
 7352 0179 49       		.uleb128 0x49
 7353 017a 13       		.uleb128 0x13
 7354 017b 02       		.uleb128 0x2
 7355 017c 0A       		.uleb128 0xa
 7356 017d 00       		.byte	0
 7357 017e 00       		.byte	0
 7358 017f 1E       		.uleb128 0x1e
 7359 0180 2E       		.uleb128 0x2e
 7360 0181 01       		.byte	0x1
 7361 0182 3F       		.uleb128 0x3f
 7362 0183 0C       		.uleb128 0xc
 7363 0184 03       		.uleb128 0x3
 7364 0185 0E       		.uleb128 0xe
 7365 0186 3A       		.uleb128 0x3a
 7366 0187 0B       		.uleb128 0xb
 7367 0188 3B       		.uleb128 0x3b
 7368 0189 0B       		.uleb128 0xb
 7369 018a 27       		.uleb128 0x27
 7370 018b 0C       		.uleb128 0xc
 7371 018c 49       		.uleb128 0x49
 7372 018d 13       		.uleb128 0x13
 7373 018e 11       		.uleb128 0x11
 7374 018f 01       		.uleb128 0x1
 7375 0190 12       		.uleb128 0x12
 7376 0191 01       		.uleb128 0x1
 7377 0192 40       		.uleb128 0x40
 7378 0193 06       		.uleb128 0x6
 7379 0194 01       		.uleb128 0x1
 7380 0195 13       		.uleb128 0x13
 7381 0196 00       		.byte	0
 7382 0197 00       		.byte	0
 7383 0198 1F       		.uleb128 0x1f
 7384 0199 2E       		.uleb128 0x2e
 7385 019a 01       		.byte	0x1
 7386 019b 3F       		.uleb128 0x3f
 7387 019c 0C       		.uleb128 0xc
 7388 019d 03       		.uleb128 0x3
 7389 019e 0E       		.uleb128 0xe
 7390 019f 3A       		.uleb128 0x3a
 7391 01a0 0B       		.uleb128 0xb
 7392 01a1 3B       		.uleb128 0x3b
 7393 01a2 05       		.uleb128 0x5
 7394 01a3 27       		.uleb128 0x27
 7395 01a4 0C       		.uleb128 0xc
 7396 01a5 49       		.uleb128 0x49
ARM GAS  /tmp/ccgFJ4Zb.s 			page 132


 7397 01a6 13       		.uleb128 0x13
 7398 01a7 11       		.uleb128 0x11
 7399 01a8 01       		.uleb128 0x1
 7400 01a9 12       		.uleb128 0x12
 7401 01aa 01       		.uleb128 0x1
 7402 01ab 40       		.uleb128 0x40
 7403 01ac 06       		.uleb128 0x6
 7404 01ad 01       		.uleb128 0x1
 7405 01ae 13       		.uleb128 0x13
 7406 01af 00       		.byte	0
 7407 01b0 00       		.byte	0
 7408 01b1 20       		.uleb128 0x20
 7409 01b2 05       		.uleb128 0x5
 7410 01b3 00       		.byte	0
 7411 01b4 03       		.uleb128 0x3
 7412 01b5 08       		.uleb128 0x8
 7413 01b6 3A       		.uleb128 0x3a
 7414 01b7 0B       		.uleb128 0xb
 7415 01b8 3B       		.uleb128 0x3b
 7416 01b9 05       		.uleb128 0x5
 7417 01ba 49       		.uleb128 0x49
 7418 01bb 13       		.uleb128 0x13
 7419 01bc 02       		.uleb128 0x2
 7420 01bd 0A       		.uleb128 0xa
 7421 01be 00       		.byte	0
 7422 01bf 00       		.byte	0
 7423 01c0 21       		.uleb128 0x21
 7424 01c1 05       		.uleb128 0x5
 7425 01c2 00       		.byte	0
 7426 01c3 03       		.uleb128 0x3
 7427 01c4 0E       		.uleb128 0xe
 7428 01c5 3A       		.uleb128 0x3a
 7429 01c6 0B       		.uleb128 0xb
 7430 01c7 3B       		.uleb128 0x3b
 7431 01c8 05       		.uleb128 0x5
 7432 01c9 49       		.uleb128 0x49
 7433 01ca 13       		.uleb128 0x13
 7434 01cb 02       		.uleb128 0x2
 7435 01cc 0A       		.uleb128 0xa
 7436 01cd 00       		.byte	0
 7437 01ce 00       		.byte	0
 7438 01cf 22       		.uleb128 0x22
 7439 01d0 2E       		.uleb128 0x2e
 7440 01d1 01       		.byte	0x1
 7441 01d2 3F       		.uleb128 0x3f
 7442 01d3 0C       		.uleb128 0xc
 7443 01d4 03       		.uleb128 0x3
 7444 01d5 0E       		.uleb128 0xe
 7445 01d6 3A       		.uleb128 0x3a
 7446 01d7 0B       		.uleb128 0xb
 7447 01d8 3B       		.uleb128 0x3b
 7448 01d9 05       		.uleb128 0x5
 7449 01da 27       		.uleb128 0x27
 7450 01db 0C       		.uleb128 0xc
 7451 01dc 11       		.uleb128 0x11
 7452 01dd 01       		.uleb128 0x1
 7453 01de 12       		.uleb128 0x12
ARM GAS  /tmp/ccgFJ4Zb.s 			page 133


 7454 01df 01       		.uleb128 0x1
 7455 01e0 40       		.uleb128 0x40
 7456 01e1 06       		.uleb128 0x6
 7457 01e2 01       		.uleb128 0x1
 7458 01e3 13       		.uleb128 0x13
 7459 01e4 00       		.byte	0
 7460 01e5 00       		.byte	0
 7461 01e6 23       		.uleb128 0x23
 7462 01e7 34       		.uleb128 0x34
 7463 01e8 00       		.byte	0
 7464 01e9 03       		.uleb128 0x3
 7465 01ea 0E       		.uleb128 0xe
 7466 01eb 3A       		.uleb128 0x3a
 7467 01ec 0B       		.uleb128 0xb
 7468 01ed 3B       		.uleb128 0x3b
 7469 01ee 05       		.uleb128 0x5
 7470 01ef 49       		.uleb128 0x49
 7471 01f0 13       		.uleb128 0x13
 7472 01f1 02       		.uleb128 0x2
 7473 01f2 0A       		.uleb128 0xa
 7474 01f3 00       		.byte	0
 7475 01f4 00       		.byte	0
 7476 01f5 24       		.uleb128 0x24
 7477 01f6 34       		.uleb128 0x34
 7478 01f7 00       		.byte	0
 7479 01f8 03       		.uleb128 0x3
 7480 01f9 08       		.uleb128 0x8
 7481 01fa 3A       		.uleb128 0x3a
 7482 01fb 0B       		.uleb128 0xb
 7483 01fc 3B       		.uleb128 0x3b
 7484 01fd 05       		.uleb128 0x5
 7485 01fe 49       		.uleb128 0x49
 7486 01ff 13       		.uleb128 0x13
 7487 0200 02       		.uleb128 0x2
 7488 0201 0A       		.uleb128 0xa
 7489 0202 00       		.byte	0
 7490 0203 00       		.byte	0
 7491 0204 25       		.uleb128 0x25
 7492 0205 2E       		.uleb128 0x2e
 7493 0206 01       		.byte	0x1
 7494 0207 03       		.uleb128 0x3
 7495 0208 0E       		.uleb128 0xe
 7496 0209 3A       		.uleb128 0x3a
 7497 020a 0B       		.uleb128 0xb
 7498 020b 3B       		.uleb128 0x3b
 7499 020c 05       		.uleb128 0x5
 7500 020d 27       		.uleb128 0x27
 7501 020e 0C       		.uleb128 0xc
 7502 020f 49       		.uleb128 0x49
 7503 0210 13       		.uleb128 0x13
 7504 0211 11       		.uleb128 0x11
 7505 0212 01       		.uleb128 0x1
 7506 0213 12       		.uleb128 0x12
 7507 0214 01       		.uleb128 0x1
 7508 0215 40       		.uleb128 0x40
 7509 0216 06       		.uleb128 0x6
 7510 0217 01       		.uleb128 0x1
ARM GAS  /tmp/ccgFJ4Zb.s 			page 134


 7511 0218 13       		.uleb128 0x13
 7512 0219 00       		.byte	0
 7513 021a 00       		.byte	0
 7514 021b 26       		.uleb128 0x26
 7515 021c 0B       		.uleb128 0xb
 7516 021d 01       		.byte	0x1
 7517 021e 11       		.uleb128 0x11
 7518 021f 01       		.uleb128 0x1
 7519 0220 12       		.uleb128 0x12
 7520 0221 01       		.uleb128 0x1
 7521 0222 00       		.byte	0
 7522 0223 00       		.byte	0
 7523 0224 27       		.uleb128 0x27
 7524 0225 0A       		.uleb128 0xa
 7525 0226 00       		.byte	0
 7526 0227 03       		.uleb128 0x3
 7527 0228 0E       		.uleb128 0xe
 7528 0229 3A       		.uleb128 0x3a
 7529 022a 0B       		.uleb128 0xb
 7530 022b 3B       		.uleb128 0x3b
 7531 022c 05       		.uleb128 0x5
 7532 022d 11       		.uleb128 0x11
 7533 022e 01       		.uleb128 0x1
 7534 022f 00       		.byte	0
 7535 0230 00       		.byte	0
 7536 0231 28       		.uleb128 0x28
 7537 0232 0B       		.uleb128 0xb
 7538 0233 01       		.byte	0x1
 7539 0234 11       		.uleb128 0x11
 7540 0235 01       		.uleb128 0x1
 7541 0236 12       		.uleb128 0x12
 7542 0237 01       		.uleb128 0x1
 7543 0238 01       		.uleb128 0x1
 7544 0239 13       		.uleb128 0x13
 7545 023a 00       		.byte	0
 7546 023b 00       		.byte	0
 7547 023c 29       		.uleb128 0x29
 7548 023d 2E       		.uleb128 0x2e
 7549 023e 01       		.byte	0x1
 7550 023f 03       		.uleb128 0x3
 7551 0240 0E       		.uleb128 0xe
 7552 0241 3A       		.uleb128 0x3a
 7553 0242 0B       		.uleb128 0xb
 7554 0243 3B       		.uleb128 0x3b
 7555 0244 05       		.uleb128 0x5
 7556 0245 27       		.uleb128 0x27
 7557 0246 0C       		.uleb128 0xc
 7558 0247 11       		.uleb128 0x11
 7559 0248 01       		.uleb128 0x1
 7560 0249 12       		.uleb128 0x12
 7561 024a 01       		.uleb128 0x1
 7562 024b 40       		.uleb128 0x40
 7563 024c 06       		.uleb128 0x6
 7564 024d 01       		.uleb128 0x1
 7565 024e 13       		.uleb128 0x13
 7566 024f 00       		.byte	0
 7567 0250 00       		.byte	0
ARM GAS  /tmp/ccgFJ4Zb.s 			page 135


 7568 0251 2A       		.uleb128 0x2a
 7569 0252 2E       		.uleb128 0x2e
 7570 0253 00       		.byte	0
 7571 0254 3F       		.uleb128 0x3f
 7572 0255 0C       		.uleb128 0xc
 7573 0256 03       		.uleb128 0x3
 7574 0257 0E       		.uleb128 0xe
 7575 0258 3A       		.uleb128 0x3a
 7576 0259 0B       		.uleb128 0xb
 7577 025a 3B       		.uleb128 0x3b
 7578 025b 05       		.uleb128 0x5
 7579 025c 27       		.uleb128 0x27
 7580 025d 0C       		.uleb128 0xc
 7581 025e 49       		.uleb128 0x49
 7582 025f 13       		.uleb128 0x13
 7583 0260 11       		.uleb128 0x11
 7584 0261 01       		.uleb128 0x1
 7585 0262 12       		.uleb128 0x12
 7586 0263 01       		.uleb128 0x1
 7587 0264 40       		.uleb128 0x40
 7588 0265 06       		.uleb128 0x6
 7589 0266 00       		.byte	0
 7590 0267 00       		.byte	0
 7591 0268 2B       		.uleb128 0x2b
 7592 0269 2E       		.uleb128 0x2e
 7593 026a 01       		.byte	0x1
 7594 026b 3F       		.uleb128 0x3f
 7595 026c 0C       		.uleb128 0xc
 7596 026d 03       		.uleb128 0x3
 7597 026e 0E       		.uleb128 0xe
 7598 026f 3A       		.uleb128 0x3a
 7599 0270 0B       		.uleb128 0xb
 7600 0271 3B       		.uleb128 0x3b
 7601 0272 05       		.uleb128 0x5
 7602 0273 27       		.uleb128 0x27
 7603 0274 0C       		.uleb128 0xc
 7604 0275 49       		.uleb128 0x49
 7605 0276 13       		.uleb128 0x13
 7606 0277 11       		.uleb128 0x11
 7607 0278 01       		.uleb128 0x1
 7608 0279 12       		.uleb128 0x12
 7609 027a 01       		.uleb128 0x1
 7610 027b 40       		.uleb128 0x40
 7611 027c 0A       		.uleb128 0xa
 7612 027d 01       		.uleb128 0x1
 7613 027e 13       		.uleb128 0x13
 7614 027f 00       		.byte	0
 7615 0280 00       		.byte	0
 7616 0281 2C       		.uleb128 0x2c
 7617 0282 34       		.uleb128 0x34
 7618 0283 00       		.byte	0
 7619 0284 03       		.uleb128 0x3
 7620 0285 0E       		.uleb128 0xe
 7621 0286 3A       		.uleb128 0x3a
 7622 0287 0B       		.uleb128 0xb
 7623 0288 3B       		.uleb128 0x3b
 7624 0289 05       		.uleb128 0x5
ARM GAS  /tmp/ccgFJ4Zb.s 			page 136


 7625 028a 49       		.uleb128 0x49
 7626 028b 13       		.uleb128 0x13
 7627 028c 3F       		.uleb128 0x3f
 7628 028d 0C       		.uleb128 0xc
 7629 028e 3C       		.uleb128 0x3c
 7630 028f 0C       		.uleb128 0xc
 7631 0290 00       		.byte	0
 7632 0291 00       		.byte	0
 7633 0292 2D       		.uleb128 0x2d
 7634 0293 34       		.uleb128 0x34
 7635 0294 00       		.byte	0
 7636 0295 03       		.uleb128 0x3
 7637 0296 0E       		.uleb128 0xe
 7638 0297 3A       		.uleb128 0x3a
 7639 0298 0B       		.uleb128 0xb
 7640 0299 3B       		.uleb128 0x3b
 7641 029a 0B       		.uleb128 0xb
 7642 029b 49       		.uleb128 0x49
 7643 029c 13       		.uleb128 0x13
 7644 029d 3F       		.uleb128 0x3f
 7645 029e 0C       		.uleb128 0xc
 7646 029f 3C       		.uleb128 0x3c
 7647 02a0 0C       		.uleb128 0xc
 7648 02a1 00       		.byte	0
 7649 02a2 00       		.byte	0
 7650 02a3 2E       		.uleb128 0x2e
 7651 02a4 34       		.uleb128 0x34
 7652 02a5 00       		.byte	0
 7653 02a6 03       		.uleb128 0x3
 7654 02a7 0E       		.uleb128 0xe
 7655 02a8 3A       		.uleb128 0x3a
 7656 02a9 0B       		.uleb128 0xb
 7657 02aa 3B       		.uleb128 0x3b
 7658 02ab 0B       		.uleb128 0xb
 7659 02ac 49       		.uleb128 0x49
 7660 02ad 13       		.uleb128 0x13
 7661 02ae 02       		.uleb128 0x2
 7662 02af 0A       		.uleb128 0xa
 7663 02b0 00       		.byte	0
 7664 02b1 00       		.byte	0
 7665 02b2 2F       		.uleb128 0x2f
 7666 02b3 34       		.uleb128 0x34
 7667 02b4 00       		.byte	0
 7668 02b5 03       		.uleb128 0x3
 7669 02b6 0E       		.uleb128 0xe
 7670 02b7 3A       		.uleb128 0x3a
 7671 02b8 0B       		.uleb128 0xb
 7672 02b9 3B       		.uleb128 0x3b
 7673 02ba 0B       		.uleb128 0xb
 7674 02bb 49       		.uleb128 0x49
 7675 02bc 13       		.uleb128 0x13
 7676 02bd 3F       		.uleb128 0x3f
 7677 02be 0C       		.uleb128 0xc
 7678 02bf 02       		.uleb128 0x2
 7679 02c0 0A       		.uleb128 0xa
 7680 02c1 00       		.byte	0
 7681 02c2 00       		.byte	0
ARM GAS  /tmp/ccgFJ4Zb.s 			page 137


 7682 02c3 00       		.byte	0
 7683              		.section	.debug_loc,"",%progbits
 7684              	.Ldebug_loc0:
 7685              	.LLST0:
 7686 0000 00000000 		.4byte	.LFB7
 7687 0004 02000000 		.4byte	.LCFI0
 7688 0008 0200     		.2byte	0x2
 7689 000a 7D       		.byte	0x7d
 7690 000b 00       		.sleb128 0
 7691 000c 02000000 		.4byte	.LCFI0
 7692 0010 3A000000 		.4byte	.LFE7
 7693 0014 0200     		.2byte	0x2
 7694 0016 7D       		.byte	0x7d
 7695 0017 08       		.sleb128 8
 7696 0018 00000000 		.4byte	0
 7697 001c 00000000 		.4byte	0
 7698              	.LLST1:
 7699 0020 00000000 		.4byte	.LFB8
 7700 0024 02000000 		.4byte	.LCFI1
 7701 0028 0200     		.2byte	0x2
 7702 002a 7D       		.byte	0x7d
 7703 002b 00       		.sleb128 0
 7704 002c 02000000 		.4byte	.LCFI1
 7705 0030 04000000 		.4byte	.LCFI2
 7706 0034 0200     		.2byte	0x2
 7707 0036 7D       		.byte	0x7d
 7708 0037 0C       		.sleb128 12
 7709 0038 04000000 		.4byte	.LCFI2
 7710 003c EC020000 		.4byte	.LFE8
 7711 0040 0200     		.2byte	0x2
 7712 0042 7D       		.byte	0x7d
 7713 0043 28       		.sleb128 40
 7714 0044 00000000 		.4byte	0
 7715 0048 00000000 		.4byte	0
 7716              	.LLST2:
 7717 004c 00000000 		.4byte	.LFB9
 7718 0050 02000000 		.4byte	.LCFI3
 7719 0054 0200     		.2byte	0x2
 7720 0056 7D       		.byte	0x7d
 7721 0057 00       		.sleb128 0
 7722 0058 02000000 		.4byte	.LCFI3
 7723 005c 04000000 		.4byte	.LCFI4
 7724 0060 0200     		.2byte	0x2
 7725 0062 7D       		.byte	0x7d
 7726 0063 04       		.sleb128 4
 7727 0064 04000000 		.4byte	.LCFI4
 7728 0068 32000000 		.4byte	.LFE9
 7729 006c 0200     		.2byte	0x2
 7730 006e 7D       		.byte	0x7d
 7731 006f 10       		.sleb128 16
 7732 0070 00000000 		.4byte	0
 7733 0074 00000000 		.4byte	0
 7734              	.LLST3:
 7735 0078 00000000 		.4byte	.LFB10
 7736 007c 02000000 		.4byte	.LCFI5
 7737 0080 0200     		.2byte	0x2
 7738 0082 7D       		.byte	0x7d
ARM GAS  /tmp/ccgFJ4Zb.s 			page 138


 7739 0083 00       		.sleb128 0
 7740 0084 02000000 		.4byte	.LCFI5
 7741 0088 04000000 		.4byte	.LCFI6
 7742 008c 0200     		.2byte	0x2
 7743 008e 7D       		.byte	0x7d
 7744 008f 04       		.sleb128 4
 7745 0090 04000000 		.4byte	.LCFI6
 7746 0094 8A000000 		.4byte	.LFE10
 7747 0098 0200     		.2byte	0x2
 7748 009a 7D       		.byte	0x7d
 7749 009b 18       		.sleb128 24
 7750 009c 00000000 		.4byte	0
 7751 00a0 00000000 		.4byte	0
 7752              	.LLST4:
 7753 00a4 00000000 		.4byte	.LFB11
 7754 00a8 02000000 		.4byte	.LCFI7
 7755 00ac 0200     		.2byte	0x2
 7756 00ae 7D       		.byte	0x7d
 7757 00af 00       		.sleb128 0
 7758 00b0 02000000 		.4byte	.LCFI7
 7759 00b4 04000000 		.4byte	.LCFI8
 7760 00b8 0200     		.2byte	0x2
 7761 00ba 7D       		.byte	0x7d
 7762 00bb 04       		.sleb128 4
 7763 00bc 04000000 		.4byte	.LCFI8
 7764 00c0 EC000000 		.4byte	.LFE11
 7765 00c4 0200     		.2byte	0x2
 7766 00c6 7D       		.byte	0x7d
 7767 00c7 38       		.sleb128 56
 7768 00c8 00000000 		.4byte	0
 7769 00cc 00000000 		.4byte	0
 7770              	.LLST5:
 7771 00d0 00000000 		.4byte	.LFB12
 7772 00d4 02000000 		.4byte	.LCFI9
 7773 00d8 0200     		.2byte	0x2
 7774 00da 7D       		.byte	0x7d
 7775 00db 00       		.sleb128 0
 7776 00dc 02000000 		.4byte	.LCFI9
 7777 00e0 04000000 		.4byte	.LCFI10
 7778 00e4 0200     		.2byte	0x2
 7779 00e6 7D       		.byte	0x7d
 7780 00e7 04       		.sleb128 4
 7781 00e8 04000000 		.4byte	.LCFI10
 7782 00ec 14000000 		.4byte	.LFE12
 7783 00f0 0200     		.2byte	0x2
 7784 00f2 7D       		.byte	0x7d
 7785 00f3 10       		.sleb128 16
 7786 00f4 00000000 		.4byte	0
 7787 00f8 00000000 		.4byte	0
 7788              	.LLST6:
 7789 00fc 00000000 		.4byte	.LFB13
 7790 0100 02000000 		.4byte	.LCFI11
 7791 0104 0200     		.2byte	0x2
 7792 0106 7D       		.byte	0x7d
 7793 0107 00       		.sleb128 0
 7794 0108 02000000 		.4byte	.LCFI11
 7795 010c 04000000 		.4byte	.LCFI12
ARM GAS  /tmp/ccgFJ4Zb.s 			page 139


 7796 0110 0200     		.2byte	0x2
 7797 0112 7D       		.byte	0x7d
 7798 0113 04       		.sleb128 4
 7799 0114 04000000 		.4byte	.LCFI12
 7800 0118 F2000000 		.4byte	.LFE13
 7801 011c 0200     		.2byte	0x2
 7802 011e 7D       		.byte	0x7d
 7803 011f 28       		.sleb128 40
 7804 0120 00000000 		.4byte	0
 7805 0124 00000000 		.4byte	0
 7806              	.LLST7:
 7807 0128 00000000 		.4byte	.LFB14
 7808 012c 02000000 		.4byte	.LCFI13
 7809 0130 0200     		.2byte	0x2
 7810 0132 7D       		.byte	0x7d
 7811 0133 00       		.sleb128 0
 7812 0134 02000000 		.4byte	.LCFI13
 7813 0138 18000000 		.4byte	.LFE14
 7814 013c 0200     		.2byte	0x2
 7815 013e 7D       		.byte	0x7d
 7816 013f 10       		.sleb128 16
 7817 0140 00000000 		.4byte	0
 7818 0144 00000000 		.4byte	0
 7819              	.LLST8:
 7820 0148 00000000 		.4byte	.LFB15
 7821 014c 02000000 		.4byte	.LCFI14
 7822 0150 0200     		.2byte	0x2
 7823 0152 7D       		.byte	0x7d
 7824 0153 00       		.sleb128 0
 7825 0154 02000000 		.4byte	.LCFI14
 7826 0158 04000000 		.4byte	.LCFI15
 7827 015c 0200     		.2byte	0x2
 7828 015e 7D       		.byte	0x7d
 7829 015f 04       		.sleb128 4
 7830 0160 04000000 		.4byte	.LCFI15
 7831 0164 62010000 		.4byte	.LFE15
 7832 0168 0200     		.2byte	0x2
 7833 016a 7D       		.byte	0x7d
 7834 016b 18       		.sleb128 24
 7835 016c 00000000 		.4byte	0
 7836 0170 00000000 		.4byte	0
 7837              	.LLST9:
 7838 0174 00000000 		.4byte	.LFB16
 7839 0178 02000000 		.4byte	.LCFI16
 7840 017c 0200     		.2byte	0x2
 7841 017e 7D       		.byte	0x7d
 7842 017f 00       		.sleb128 0
 7843 0180 02000000 		.4byte	.LCFI16
 7844 0184 04000000 		.4byte	.LCFI17
 7845 0188 0200     		.2byte	0x2
 7846 018a 7D       		.byte	0x7d
 7847 018b 04       		.sleb128 4
 7848 018c 04000000 		.4byte	.LCFI17
 7849 0190 8A000000 		.4byte	.LFE16
 7850 0194 0200     		.2byte	0x2
 7851 0196 7D       		.byte	0x7d
 7852 0197 18       		.sleb128 24
ARM GAS  /tmp/ccgFJ4Zb.s 			page 140


 7853 0198 00000000 		.4byte	0
 7854 019c 00000000 		.4byte	0
 7855              	.LLST10:
 7856 01a0 00000000 		.4byte	.LFB17
 7857 01a4 02000000 		.4byte	.LCFI18
 7858 01a8 0200     		.2byte	0x2
 7859 01aa 7D       		.byte	0x7d
 7860 01ab 00       		.sleb128 0
 7861 01ac 02000000 		.4byte	.LCFI18
 7862 01b0 04000000 		.4byte	.LCFI19
 7863 01b4 0200     		.2byte	0x2
 7864 01b6 7D       		.byte	0x7d
 7865 01b7 04       		.sleb128 4
 7866 01b8 04000000 		.4byte	.LCFI19
 7867 01bc 76000000 		.4byte	.LFE17
 7868 01c0 0200     		.2byte	0x2
 7869 01c2 7D       		.byte	0x7d
 7870 01c3 18       		.sleb128 24
 7871 01c4 00000000 		.4byte	0
 7872 01c8 00000000 		.4byte	0
 7873              	.LLST11:
 7874 01cc 00000000 		.4byte	.LFB18
 7875 01d0 02000000 		.4byte	.LCFI20
 7876 01d4 0200     		.2byte	0x2
 7877 01d6 7D       		.byte	0x7d
 7878 01d7 00       		.sleb128 0
 7879 01d8 02000000 		.4byte	.LCFI20
 7880 01dc 98000000 		.4byte	.LFE18
 7881 01e0 0200     		.2byte	0x2
 7882 01e2 7D       		.byte	0x7d
 7883 01e3 08       		.sleb128 8
 7884 01e4 00000000 		.4byte	0
 7885 01e8 00000000 		.4byte	0
 7886              	.LLST12:
 7887 01ec 00000000 		.4byte	.LFB19
 7888 01f0 02000000 		.4byte	.LCFI21
 7889 01f4 0200     		.2byte	0x2
 7890 01f6 7D       		.byte	0x7d
 7891 01f7 00       		.sleb128 0
 7892 01f8 02000000 		.4byte	.LCFI21
 7893 01fc 04000000 		.4byte	.LCFI22
 7894 0200 0200     		.2byte	0x2
 7895 0202 7D       		.byte	0x7d
 7896 0203 04       		.sleb128 4
 7897 0204 04000000 		.4byte	.LCFI22
 7898 0208 06020000 		.4byte	.LFE19
 7899 020c 0200     		.2byte	0x2
 7900 020e 7D       		.byte	0x7d
 7901 020f 28       		.sleb128 40
 7902 0210 00000000 		.4byte	0
 7903 0214 00000000 		.4byte	0
 7904              	.LLST13:
 7905 0218 00000000 		.4byte	.LFB20
 7906 021c 02000000 		.4byte	.LCFI23
 7907 0220 0200     		.2byte	0x2
 7908 0222 7D       		.byte	0x7d
 7909 0223 00       		.sleb128 0
ARM GAS  /tmp/ccgFJ4Zb.s 			page 141


 7910 0224 02000000 		.4byte	.LCFI23
 7911 0228 04000000 		.4byte	.LCFI24
 7912 022c 0200     		.2byte	0x2
 7913 022e 7D       		.byte	0x7d
 7914 022f 0C       		.sleb128 12
 7915 0230 04000000 		.4byte	.LCFI24
 7916 0234 46050000 		.4byte	.LFE20
 7917 0238 0200     		.2byte	0x2
 7918 023a 7D       		.byte	0x7d
 7919 023b 30       		.sleb128 48
 7920 023c 00000000 		.4byte	0
 7921 0240 00000000 		.4byte	0
 7922              	.LLST14:
 7923 0244 00000000 		.4byte	.LFB21
 7924 0248 02000000 		.4byte	.LCFI25
 7925 024c 0200     		.2byte	0x2
 7926 024e 7D       		.byte	0x7d
 7927 024f 00       		.sleb128 0
 7928 0250 02000000 		.4byte	.LCFI25
 7929 0254 04000000 		.4byte	.LCFI26
 7930 0258 0200     		.2byte	0x2
 7931 025a 7D       		.byte	0x7d
 7932 025b 08       		.sleb128 8
 7933 025c 04000000 		.4byte	.LCFI26
 7934 0260 DE000000 		.4byte	.LFE21
 7935 0264 0200     		.2byte	0x2
 7936 0266 7D       		.byte	0x7d
 7937 0267 18       		.sleb128 24
 7938 0268 00000000 		.4byte	0
 7939 026c 00000000 		.4byte	0
 7940              	.LLST15:
 7941 0270 00000000 		.4byte	.LFB22
 7942 0274 02000000 		.4byte	.LCFI27
 7943 0278 0200     		.2byte	0x2
 7944 027a 7D       		.byte	0x7d
 7945 027b 00       		.sleb128 0
 7946 027c 02000000 		.4byte	.LCFI27
 7947 0280 04000000 		.4byte	.LCFI28
 7948 0284 0200     		.2byte	0x2
 7949 0286 7D       		.byte	0x7d
 7950 0287 04       		.sleb128 4
 7951 0288 04000000 		.4byte	.LCFI28
 7952 028c 22000000 		.4byte	.LFE22
 7953 0290 0200     		.2byte	0x2
 7954 0292 7D       		.byte	0x7d
 7955 0293 18       		.sleb128 24
 7956 0294 00000000 		.4byte	0
 7957 0298 00000000 		.4byte	0
 7958              	.LLST16:
 7959 029c 00000000 		.4byte	.LFB23
 7960 02a0 02000000 		.4byte	.LCFI29
 7961 02a4 0200     		.2byte	0x2
 7962 02a6 7D       		.byte	0x7d
 7963 02a7 00       		.sleb128 0
 7964 02a8 02000000 		.4byte	.LCFI29
 7965 02ac 04000000 		.4byte	.LCFI30
 7966 02b0 0200     		.2byte	0x2
ARM GAS  /tmp/ccgFJ4Zb.s 			page 142


 7967 02b2 7D       		.byte	0x7d
 7968 02b3 04       		.sleb128 4
 7969 02b4 04000000 		.4byte	.LCFI30
 7970 02b8 2C000000 		.4byte	.LFE23
 7971 02bc 0200     		.2byte	0x2
 7972 02be 7D       		.byte	0x7d
 7973 02bf 10       		.sleb128 16
 7974 02c0 00000000 		.4byte	0
 7975 02c4 00000000 		.4byte	0
 7976              	.LLST17:
 7977 02c8 00000000 		.4byte	.LFB24
 7978 02cc 02000000 		.4byte	.LCFI31
 7979 02d0 0200     		.2byte	0x2
 7980 02d2 7D       		.byte	0x7d
 7981 02d3 00       		.sleb128 0
 7982 02d4 02000000 		.4byte	.LCFI31
 7983 02d8 16000000 		.4byte	.LFE24
 7984 02dc 0200     		.2byte	0x2
 7985 02de 7D       		.byte	0x7d
 7986 02df 08       		.sleb128 8
 7987 02e0 00000000 		.4byte	0
 7988 02e4 00000000 		.4byte	0
 7989              	.LLST18:
 7990 02e8 00000000 		.4byte	.LFB25
 7991 02ec 02000000 		.4byte	.LCFI32
 7992 02f0 0200     		.2byte	0x2
 7993 02f2 7D       		.byte	0x7d
 7994 02f3 00       		.sleb128 0
 7995 02f4 02000000 		.4byte	.LCFI32
 7996 02f8 04000000 		.4byte	.LCFI33
 7997 02fc 0200     		.2byte	0x2
 7998 02fe 7D       		.byte	0x7d
 7999 02ff 04       		.sleb128 4
 8000 0300 04000000 		.4byte	.LCFI33
 8001 0304 46000000 		.4byte	.LFE25
 8002 0308 0200     		.2byte	0x2
 8003 030a 7D       		.byte	0x7d
 8004 030b 18       		.sleb128 24
 8005 030c 00000000 		.4byte	0
 8006 0310 00000000 		.4byte	0
 8007              	.LLST19:
 8008 0314 00000000 		.4byte	.LFB26
 8009 0318 02000000 		.4byte	.LCFI34
 8010 031c 0200     		.2byte	0x2
 8011 031e 7D       		.byte	0x7d
 8012 031f 00       		.sleb128 0
 8013 0320 02000000 		.4byte	.LCFI34
 8014 0324 04000000 		.4byte	.LCFI35
 8015 0328 0200     		.2byte	0x2
 8016 032a 7D       		.byte	0x7d
 8017 032b 04       		.sleb128 4
 8018 032c 04000000 		.4byte	.LCFI35
 8019 0330 46000000 		.4byte	.LFE26
 8020 0334 0200     		.2byte	0x2
 8021 0336 7D       		.byte	0x7d
 8022 0337 18       		.sleb128 24
 8023 0338 00000000 		.4byte	0
ARM GAS  /tmp/ccgFJ4Zb.s 			page 143


 8024 033c 00000000 		.4byte	0
 8025              	.LLST20:
 8026 0340 00000000 		.4byte	.LFB27
 8027 0344 02000000 		.4byte	.LCFI36
 8028 0348 0200     		.2byte	0x2
 8029 034a 7D       		.byte	0x7d
 8030 034b 00       		.sleb128 0
 8031 034c 02000000 		.4byte	.LCFI36
 8032 0350 04000000 		.4byte	.LCFI37
 8033 0354 0200     		.2byte	0x2
 8034 0356 7D       		.byte	0x7d
 8035 0357 04       		.sleb128 4
 8036 0358 04000000 		.4byte	.LCFI37
 8037 035c 94000000 		.4byte	.LFE27
 8038 0360 0200     		.2byte	0x2
 8039 0362 7D       		.byte	0x7d
 8040 0363 20       		.sleb128 32
 8041 0364 00000000 		.4byte	0
 8042 0368 00000000 		.4byte	0
 8043              	.LLST21:
 8044 036c 00000000 		.4byte	.LFB28
 8045 0370 02000000 		.4byte	.LCFI38
 8046 0374 0200     		.2byte	0x2
 8047 0376 7D       		.byte	0x7d
 8048 0377 00       		.sleb128 0
 8049 0378 02000000 		.4byte	.LCFI38
 8050 037c 04000000 		.4byte	.LCFI39
 8051 0380 0200     		.2byte	0x2
 8052 0382 7D       		.byte	0x7d
 8053 0383 04       		.sleb128 4
 8054 0384 04000000 		.4byte	.LCFI39
 8055 0388 66000000 		.4byte	.LFE28
 8056 038c 0200     		.2byte	0x2
 8057 038e 7D       		.byte	0x7d
 8058 038f 18       		.sleb128 24
 8059 0390 00000000 		.4byte	0
 8060 0394 00000000 		.4byte	0
 8061              	.LLST22:
 8062 0398 00000000 		.4byte	.LFB29
 8063 039c 02000000 		.4byte	.LCFI40
 8064 03a0 0200     		.2byte	0x2
 8065 03a2 7D       		.byte	0x7d
 8066 03a3 00       		.sleb128 0
 8067 03a4 02000000 		.4byte	.LCFI40
 8068 03a8 04000000 		.4byte	.LCFI41
 8069 03ac 0200     		.2byte	0x2
 8070 03ae 7D       		.byte	0x7d
 8071 03af 04       		.sleb128 4
 8072 03b0 04000000 		.4byte	.LCFI41
 8073 03b4 84010000 		.4byte	.LFE29
 8074 03b8 0200     		.2byte	0x2
 8075 03ba 7D       		.byte	0x7d
 8076 03bb 18       		.sleb128 24
 8077 03bc 00000000 		.4byte	0
 8078 03c0 00000000 		.4byte	0
 8079              	.LLST23:
 8080 03c4 00000000 		.4byte	.LFB30
ARM GAS  /tmp/ccgFJ4Zb.s 			page 144


 8081 03c8 02000000 		.4byte	.LCFI42
 8082 03cc 0200     		.2byte	0x2
 8083 03ce 7D       		.byte	0x7d
 8084 03cf 00       		.sleb128 0
 8085 03d0 02000000 		.4byte	.LCFI42
 8086 03d4 10000000 		.4byte	.LFE30
 8087 03d8 0200     		.2byte	0x2
 8088 03da 7D       		.byte	0x7d
 8089 03db 08       		.sleb128 8
 8090 03dc 00000000 		.4byte	0
 8091 03e0 00000000 		.4byte	0
 8092              	.LLST24:
 8093 03e4 00000000 		.4byte	.LFB31
 8094 03e8 02000000 		.4byte	.LCFI43
 8095 03ec 0200     		.2byte	0x2
 8096 03ee 7D       		.byte	0x7d
 8097 03ef 00       		.sleb128 0
 8098 03f0 02000000 		.4byte	.LCFI43
 8099 03f4 10000000 		.4byte	.LFE31
 8100 03f8 0200     		.2byte	0x2
 8101 03fa 7D       		.byte	0x7d
 8102 03fb 08       		.sleb128 8
 8103 03fc 00000000 		.4byte	0
 8104 0400 00000000 		.4byte	0
 8105              	.LLST25:
 8106 0404 00000000 		.4byte	.LFB32
 8107 0408 02000000 		.4byte	.LCFI44
 8108 040c 0200     		.2byte	0x2
 8109 040e 7D       		.byte	0x7d
 8110 040f 00       		.sleb128 0
 8111 0410 02000000 		.4byte	.LCFI44
 8112 0414 12000000 		.4byte	.LFE32
 8113 0418 0200     		.2byte	0x2
 8114 041a 7D       		.byte	0x7d
 8115 041b 08       		.sleb128 8
 8116 041c 00000000 		.4byte	0
 8117 0420 00000000 		.4byte	0
 8118              	.LLST26:
 8119 0424 00000000 		.4byte	.LFB33
 8120 0428 02000000 		.4byte	.LCFI45
 8121 042c 0200     		.2byte	0x2
 8122 042e 7D       		.byte	0x7d
 8123 042f 00       		.sleb128 0
 8124 0430 02000000 		.4byte	.LCFI45
 8125 0434 12000000 		.4byte	.LFE33
 8126 0438 0200     		.2byte	0x2
 8127 043a 7D       		.byte	0x7d
 8128 043b 08       		.sleb128 8
 8129 043c 00000000 		.4byte	0
 8130 0440 00000000 		.4byte	0
 8131              	.LLST27:
 8132 0444 00000000 		.4byte	.LFB34
 8133 0448 02000000 		.4byte	.LCFI46
 8134 044c 0200     		.2byte	0x2
 8135 044e 7D       		.byte	0x7d
 8136 044f 00       		.sleb128 0
 8137 0450 02000000 		.4byte	.LCFI46
ARM GAS  /tmp/ccgFJ4Zb.s 			page 145


 8138 0454 12000000 		.4byte	.LFE34
 8139 0458 0200     		.2byte	0x2
 8140 045a 7D       		.byte	0x7d
 8141 045b 08       		.sleb128 8
 8142 045c 00000000 		.4byte	0
 8143 0460 00000000 		.4byte	0
 8144              	.LLST28:
 8145 0464 00000000 		.4byte	.LFB35
 8146 0468 02000000 		.4byte	.LCFI47
 8147 046c 0200     		.2byte	0x2
 8148 046e 7D       		.byte	0x7d
 8149 046f 00       		.sleb128 0
 8150 0470 02000000 		.4byte	.LCFI47
 8151 0474 10000000 		.4byte	.LFE35
 8152 0478 0200     		.2byte	0x2
 8153 047a 7D       		.byte	0x7d
 8154 047b 08       		.sleb128 8
 8155 047c 00000000 		.4byte	0
 8156 0480 00000000 		.4byte	0
 8157              	.LLST29:
 8158 0484 00000000 		.4byte	.LFB36
 8159 0488 02000000 		.4byte	.LCFI48
 8160 048c 0200     		.2byte	0x2
 8161 048e 7D       		.byte	0x7d
 8162 048f 00       		.sleb128 0
 8163 0490 02000000 		.4byte	.LCFI48
 8164 0494 22000000 		.4byte	.LFE36
 8165 0498 0200     		.2byte	0x2
 8166 049a 7D       		.byte	0x7d
 8167 049b 10       		.sleb128 16
 8168 049c 00000000 		.4byte	0
 8169 04a0 00000000 		.4byte	0
 8170              	.LLST30:
 8171 04a4 00000000 		.4byte	.LFB37
 8172 04a8 02000000 		.4byte	.LCFI49
 8173 04ac 0200     		.2byte	0x2
 8174 04ae 7D       		.byte	0x7d
 8175 04af 00       		.sleb128 0
 8176 04b0 02000000 		.4byte	.LCFI49
 8177 04b4 04000000 		.4byte	.LCFI50
 8178 04b8 0200     		.2byte	0x2
 8179 04ba 7D       		.byte	0x7d
 8180 04bb 04       		.sleb128 4
 8181 04bc 04000000 		.4byte	.LCFI50
 8182 04c0 8A000000 		.4byte	.LFE37
 8183 04c4 0200     		.2byte	0x2
 8184 04c6 7D       		.byte	0x7d
 8185 04c7 10       		.sleb128 16
 8186 04c8 00000000 		.4byte	0
 8187 04cc 00000000 		.4byte	0
 8188              	.LLST31:
 8189 04d0 00000000 		.4byte	.LFB38
 8190 04d4 02000000 		.4byte	.LCFI51
 8191 04d8 0200     		.2byte	0x2
 8192 04da 7D       		.byte	0x7d
 8193 04db 00       		.sleb128 0
 8194 04dc 02000000 		.4byte	.LCFI51
ARM GAS  /tmp/ccgFJ4Zb.s 			page 146


 8195 04e0 04000000 		.4byte	.LCFI52
 8196 04e4 0200     		.2byte	0x2
 8197 04e6 7D       		.byte	0x7d
 8198 04e7 04       		.sleb128 4
 8199 04e8 04000000 		.4byte	.LCFI52
 8200 04ec F4000000 		.4byte	.LFE38
 8201 04f0 0200     		.2byte	0x2
 8202 04f2 7D       		.byte	0x7d
 8203 04f3 10       		.sleb128 16
 8204 04f4 00000000 		.4byte	0
 8205 04f8 00000000 		.4byte	0
 8206              	.LLST32:
 8207 04fc 00000000 		.4byte	.LFB40
 8208 0500 02000000 		.4byte	.LCFI53
 8209 0504 0200     		.2byte	0x2
 8210 0506 7D       		.byte	0x7d
 8211 0507 00       		.sleb128 0
 8212 0508 02000000 		.4byte	.LCFI53
 8213 050c 04000000 		.4byte	.LCFI54
 8214 0510 0200     		.2byte	0x2
 8215 0512 7D       		.byte	0x7d
 8216 0513 04       		.sleb128 4
 8217 0514 04000000 		.4byte	.LCFI54
 8218 0518 4C000000 		.4byte	.LFE40
 8219 051c 0200     		.2byte	0x2
 8220 051e 7D       		.byte	0x7d
 8221 051f 18       		.sleb128 24
 8222 0520 00000000 		.4byte	0
 8223 0524 00000000 		.4byte	0
 8224              	.LLST33:
 8225 0528 00000000 		.4byte	.LFB41
 8226 052c 02000000 		.4byte	.LCFI55
 8227 0530 0200     		.2byte	0x2
 8228 0532 7D       		.byte	0x7d
 8229 0533 00       		.sleb128 0
 8230 0534 02000000 		.4byte	.LCFI55
 8231 0538 1E000000 		.4byte	.LFE41
 8232 053c 0200     		.2byte	0x2
 8233 053e 7D       		.byte	0x7d
 8234 053f 08       		.sleb128 8
 8235 0540 00000000 		.4byte	0
 8236 0544 00000000 		.4byte	0
 8237              		.section	.debug_aranges,"",%progbits
 8238 0000 2C010000 		.4byte	0x12c
 8239 0004 0200     		.2byte	0x2
 8240 0006 00000000 		.4byte	.Ldebug_info0
 8241 000a 04       		.byte	0x4
 8242 000b 00       		.byte	0
 8243 000c 0000     		.2byte	0
 8244 000e 0000     		.2byte	0
 8245 0010 00000000 		.4byte	.LFB7
 8246 0014 3A000000 		.4byte	.LFE7-.LFB7
 8247 0018 00000000 		.4byte	.LFB8
 8248 001c EC020000 		.4byte	.LFE8-.LFB8
 8249 0020 00000000 		.4byte	.LFB9
 8250 0024 32000000 		.4byte	.LFE9-.LFB9
 8251 0028 00000000 		.4byte	.LFB10
ARM GAS  /tmp/ccgFJ4Zb.s 			page 147


 8252 002c 8A000000 		.4byte	.LFE10-.LFB10
 8253 0030 00000000 		.4byte	.LFB11
 8254 0034 EC000000 		.4byte	.LFE11-.LFB11
 8255 0038 00000000 		.4byte	.LFB12
 8256 003c 14000000 		.4byte	.LFE12-.LFB12
 8257 0040 00000000 		.4byte	.LFB13
 8258 0044 F2000000 		.4byte	.LFE13-.LFB13
 8259 0048 00000000 		.4byte	.LFB14
 8260 004c 18000000 		.4byte	.LFE14-.LFB14
 8261 0050 00000000 		.4byte	.LFB15
 8262 0054 62010000 		.4byte	.LFE15-.LFB15
 8263 0058 00000000 		.4byte	.LFB16
 8264 005c 8A000000 		.4byte	.LFE16-.LFB16
 8265 0060 00000000 		.4byte	.LFB17
 8266 0064 76000000 		.4byte	.LFE17-.LFB17
 8267 0068 00000000 		.4byte	.LFB18
 8268 006c 98000000 		.4byte	.LFE18-.LFB18
 8269 0070 00000000 		.4byte	.LFB19
 8270 0074 06020000 		.4byte	.LFE19-.LFB19
 8271 0078 00000000 		.4byte	.LFB20
 8272 007c 46050000 		.4byte	.LFE20-.LFB20
 8273 0080 00000000 		.4byte	.LFB21
 8274 0084 DE000000 		.4byte	.LFE21-.LFB21
 8275 0088 00000000 		.4byte	.LFB22
 8276 008c 22000000 		.4byte	.LFE22-.LFB22
 8277 0090 00000000 		.4byte	.LFB23
 8278 0094 2C000000 		.4byte	.LFE23-.LFB23
 8279 0098 00000000 		.4byte	.LFB24
 8280 009c 16000000 		.4byte	.LFE24-.LFB24
 8281 00a0 00000000 		.4byte	.LFB25
 8282 00a4 46000000 		.4byte	.LFE25-.LFB25
 8283 00a8 00000000 		.4byte	.LFB26
 8284 00ac 46000000 		.4byte	.LFE26-.LFB26
 8285 00b0 00000000 		.4byte	.LFB27
 8286 00b4 94000000 		.4byte	.LFE27-.LFB27
 8287 00b8 00000000 		.4byte	.LFB28
 8288 00bc 66000000 		.4byte	.LFE28-.LFB28
 8289 00c0 00000000 		.4byte	.LFB29
 8290 00c4 84010000 		.4byte	.LFE29-.LFB29
 8291 00c8 00000000 		.4byte	.LFB30
 8292 00cc 10000000 		.4byte	.LFE30-.LFB30
 8293 00d0 00000000 		.4byte	.LFB31
 8294 00d4 10000000 		.4byte	.LFE31-.LFB31
 8295 00d8 00000000 		.4byte	.LFB32
 8296 00dc 12000000 		.4byte	.LFE32-.LFB32
 8297 00e0 00000000 		.4byte	.LFB33
 8298 00e4 12000000 		.4byte	.LFE33-.LFB33
 8299 00e8 00000000 		.4byte	.LFB34
 8300 00ec 12000000 		.4byte	.LFE34-.LFB34
 8301 00f0 00000000 		.4byte	.LFB35
 8302 00f4 10000000 		.4byte	.LFE35-.LFB35
 8303 00f8 00000000 		.4byte	.LFB36
 8304 00fc 22000000 		.4byte	.LFE36-.LFB36
 8305 0100 00000000 		.4byte	.LFB37
 8306 0104 8A000000 		.4byte	.LFE37-.LFB37
 8307 0108 00000000 		.4byte	.LFB38
 8308 010c F4000000 		.4byte	.LFE38-.LFB38
ARM GAS  /tmp/ccgFJ4Zb.s 			page 148


 8309 0110 00000000 		.4byte	.LFB39
 8310 0114 2E000000 		.4byte	.LFE39-.LFB39
 8311 0118 00000000 		.4byte	.LFB40
 8312 011c 4C000000 		.4byte	.LFE40-.LFB40
 8313 0120 00000000 		.4byte	.LFB41
 8314 0124 1E000000 		.4byte	.LFE41-.LFB41
 8315 0128 00000000 		.4byte	0
 8316 012c 00000000 		.4byte	0
 8317              		.section	.debug_ranges,"",%progbits
 8318              	.Ldebug_ranges0:
 8319 0000 00000000 		.4byte	.LFB7
 8320 0004 3A000000 		.4byte	.LFE7
 8321 0008 00000000 		.4byte	.LFB8
 8322 000c EC020000 		.4byte	.LFE8
 8323 0010 00000000 		.4byte	.LFB9
 8324 0014 32000000 		.4byte	.LFE9
 8325 0018 00000000 		.4byte	.LFB10
 8326 001c 8A000000 		.4byte	.LFE10
 8327 0020 00000000 		.4byte	.LFB11
 8328 0024 EC000000 		.4byte	.LFE11
 8329 0028 00000000 		.4byte	.LFB12
 8330 002c 14000000 		.4byte	.LFE12
 8331 0030 00000000 		.4byte	.LFB13
 8332 0034 F2000000 		.4byte	.LFE13
 8333 0038 00000000 		.4byte	.LFB14
 8334 003c 18000000 		.4byte	.LFE14
 8335 0040 00000000 		.4byte	.LFB15
 8336 0044 62010000 		.4byte	.LFE15
 8337 0048 00000000 		.4byte	.LFB16
 8338 004c 8A000000 		.4byte	.LFE16
 8339 0050 00000000 		.4byte	.LFB17
 8340 0054 76000000 		.4byte	.LFE17
 8341 0058 00000000 		.4byte	.LFB18
 8342 005c 98000000 		.4byte	.LFE18
 8343 0060 00000000 		.4byte	.LFB19
 8344 0064 06020000 		.4byte	.LFE19
 8345 0068 00000000 		.4byte	.LFB20
 8346 006c 46050000 		.4byte	.LFE20
 8347 0070 00000000 		.4byte	.LFB21
 8348 0074 DE000000 		.4byte	.LFE21
 8349 0078 00000000 		.4byte	.LFB22
 8350 007c 22000000 		.4byte	.LFE22
 8351 0080 00000000 		.4byte	.LFB23
 8352 0084 2C000000 		.4byte	.LFE23
 8353 0088 00000000 		.4byte	.LFB24
 8354 008c 16000000 		.4byte	.LFE24
 8355 0090 00000000 		.4byte	.LFB25
 8356 0094 46000000 		.4byte	.LFE25
 8357 0098 00000000 		.4byte	.LFB26
 8358 009c 46000000 		.4byte	.LFE26
 8359 00a0 00000000 		.4byte	.LFB27
 8360 00a4 94000000 		.4byte	.LFE27
 8361 00a8 00000000 		.4byte	.LFB28
 8362 00ac 66000000 		.4byte	.LFE28
 8363 00b0 00000000 		.4byte	.LFB29
 8364 00b4 84010000 		.4byte	.LFE29
 8365 00b8 00000000 		.4byte	.LFB30
ARM GAS  /tmp/ccgFJ4Zb.s 			page 149


 8366 00bc 10000000 		.4byte	.LFE30
 8367 00c0 00000000 		.4byte	.LFB31
 8368 00c4 10000000 		.4byte	.LFE31
 8369 00c8 00000000 		.4byte	.LFB32
 8370 00cc 12000000 		.4byte	.LFE32
 8371 00d0 00000000 		.4byte	.LFB33
 8372 00d4 12000000 		.4byte	.LFE33
 8373 00d8 00000000 		.4byte	.LFB34
 8374 00dc 12000000 		.4byte	.LFE34
 8375 00e0 00000000 		.4byte	.LFB35
 8376 00e4 10000000 		.4byte	.LFE35
 8377 00e8 00000000 		.4byte	.LFB36
 8378 00ec 22000000 		.4byte	.LFE36
 8379 00f0 00000000 		.4byte	.LFB37
 8380 00f4 8A000000 		.4byte	.LFE37
 8381 00f8 00000000 		.4byte	.LFB38
 8382 00fc F4000000 		.4byte	.LFE38
 8383 0100 00000000 		.4byte	.LFB39
 8384 0104 2E000000 		.4byte	.LFE39
 8385 0108 00000000 		.4byte	.LFB40
 8386 010c 4C000000 		.4byte	.LFE40
 8387 0110 00000000 		.4byte	.LFB41
 8388 0114 1E000000 		.4byte	.LFE41
 8389 0118 00000000 		.4byte	0
 8390 011c 00000000 		.4byte	0
 8391              		.section	.debug_line,"",%progbits
 8392              	.Ldebug_line0:
 8393 0000 13080000 		.section	.debug_str,"MS",%progbits,1
 8393      02009601 
 8393      00000201 
 8393      FB0E0D00 
 8393      01010101 
 8394              	.LASF182:
 8395 0000 7463705F 		.ascii	"tcp_new_port\000"
 8395      6E65775F 
 8395      706F7274 
 8395      00
 8396              	.LASF132:
 8397 000d 6C697374 		.ascii	"listen_pcbs\000"
 8397      656E5F70 
 8397      63627300 
 8398              	.LASF210:
 8399 0019 696E7465 		.ascii	"interval\000"
 8399      7276616C 
 8399      00
 8400              	.LASF26:
 8401 0022 4D454D50 		.ascii	"MEMP_TCP_PCB_LISTEN\000"
 8401      5F544350 
 8401      5F504342 
 8401      5F4C4953 
 8401      54454E00 
 8402              	.LASF196:
 8403 0036 63736567 		.ascii	"cseg\000"
 8403      00
 8404              	.LASF64:
 8405 003b 736F5F6F 		.ascii	"so_options\000"
 8405      7074696F 
ARM GAS  /tmp/ccgFJ4Zb.s 			page 150


 8405      6E7300
 8406              	.LASF183:
 8407 0046 7463705F 		.ascii	"tcp_connect\000"
 8407      636F6E6E 
 8407      65637400 
 8408              	.LASF50:
 8409 0052 696E7075 		.ascii	"input\000"
 8409      7400
 8410              	.LASF160:
 8411 0058 7463705F 		.ascii	"tcp_shutdown\000"
 8411      73687574 
 8411      646F776E 
 8411      00
 8412              	.LASF238:
 8413 0065 61676169 		.ascii	"again\000"
 8413      6E00
 8414              	.LASF131:
 8415 006b 75726770 		.ascii	"urgp\000"
 8415      00
 8416              	.LASF74:
 8417 0070 706F6C6C 		.ascii	"polltmr\000"
 8417      746D7200 
 8418              	.LASF60:
 8419 0078 7463705F 		.ascii	"tcp_accept_fn\000"
 8419      61636365 
 8419      70745F66 
 8419      6E00
 8420              	.LASF47:
 8421 0086 666C6167 		.ascii	"flags\000"
 8421      7300
 8422              	.LASF167:
 8423 008c 7463705F 		.ascii	"tcp_bind\000"
 8423      62696E64 
 8423      00
 8424              	.LASF172:
 8425 0095 7463705F 		.ascii	"tcp_close_shutdown\000"
 8425      636C6F73 
 8425      655F7368 
 8425      7574646F 
 8425      776E00
 8426              	.LASF121:
 8427 00a8 54494D45 		.ascii	"TIME_WAIT\000"
 8427      5F574149 
 8427      5400
 8428              	.LASF164:
 8429 00b2 65727266 		.ascii	"errf_arg\000"
 8429      5F617267 
 8429      00
 8430              	.LASF0:
 8431 00bb 756E7369 		.ascii	"unsigned int\000"
 8431      676E6564 
 8431      20696E74 
 8431      00
 8432              	.LASF110:
 8433 00c8 7463705F 		.ascii	"tcp_connected_fn\000"
 8433      636F6E6E 
 8433      65637465 
ARM GAS  /tmp/ccgFJ4Zb.s 			page 151


 8433      645F666E 
 8433      00
 8434              	.LASF43:
 8435 00d9 6E657874 		.ascii	"next\000"
 8435      00
 8436              	.LASF230:
 8437 00de 7463705F 		.ascii	"tcp_pcb_lists\000"
 8437      7063625F 
 8437      6C697374 
 8437      7300
 8438              	.LASF178:
 8439 00ec 6E65775F 		.ascii	"new_right_edge\000"
 8439      72696768 
 8439      745F6564 
 8439      676500
 8440              	.LASF39:
 8441 00fb 6572725F 		.ascii	"err_t\000"
 8441      7400
 8442              	.LASF229:
 8443 0101 7463705F 		.ascii	"tcp_persist_backoff\000"
 8443      70657273 
 8443      6973745F 
 8443      6261636B 
 8443      6F666600 
 8444              	.LASF52:
 8445 0115 6C696E6B 		.ascii	"linkoutput\000"
 8445      6F757470 
 8445      757400
 8446              	.LASF214:
 8447 0120 7463705F 		.ascii	"tcp_next_iss\000"
 8447      6E657874 
 8447      5F697373 
 8447      00
 8448              	.LASF162:
 8449 012d 73687574 		.ascii	"shut_tx\000"
 8449      5F747800 
 8450              	.LASF186:
 8451 0135 70726576 		.ascii	"prev\000"
 8451      00
 8452              	.LASF18:
 8453 013a 7531365F 		.ascii	"u16_t\000"
 8453      7400
 8454              	.LASF73:
 8455 0140 7263765F 		.ascii	"rcv_ann_right_edge\000"
 8455      616E6E5F 
 8455      72696768 
 8455      745F6564 
 8455      676500
 8456              	.LASF144:
 8457 0153 73746174 		.ascii	"stats_mem\000"
 8457      735F6D65 
 8457      6D00
 8458              	.LASF233:
 8459 015d 2E2E2F2E 		.ascii	"../../ext/lwip/src/core/tcp.c\000"
 8459      2E2F6578 
 8459      742F6C77 
 8459      69702F73 
ARM GAS  /tmp/ccgFJ4Zb.s 			page 152


 8459      72632F63 
 8460              	.LASF105:
 8461 017b 6B656570 		.ascii	"keep_cnt_sent\000"
 8461      5F636E74 
 8461      5F73656E 
 8461      7400
 8462              	.LASF36:
 8463 0189 4D454D50 		.ascii	"MEMP_PBUF_POOL\000"
 8463      5F504255 
 8463      465F504F 
 8463      4F4C00
 8464              	.LASF226:
 8465 0198 6C776970 		.ascii	"lwip_stats\000"
 8465      5F737461 
 8465      747300
 8466              	.LASF107:
 8467 01a3 7463705F 		.ascii	"tcp_sent_fn\000"
 8467      73656E74 
 8467      5F666E00 
 8468              	.LASF158:
 8469 01af 7273745F 		.ascii	"rst_on_unacked_data\000"
 8469      6F6E5F75 
 8469      6E61636B 
 8469      65645F64 
 8469      61746100 
 8470              	.LASF212:
 8471 01c3 7463705F 		.ascii	"tcp_pcb_remove\000"
 8471      7063625F 
 8471      72656D6F 
 8471      766500
 8472              	.LASF148:
 8473 01d2 73746174 		.ascii	"stats_syselem\000"
 8473      735F7379 
 8473      73656C65 
 8473      6D00
 8474              	.LASF127:
 8475 01e0 7365716E 		.ascii	"seqno\000"
 8475      6F00
 8476              	.LASF57:
 8477 01e6 6E657469 		.ascii	"netif_input_fn\000"
 8477      665F696E 
 8477      7075745F 
 8477      666E00
 8478              	.LASF189:
 8479 01f5 7063625F 		.ascii	"pcb_reset\000"
 8479      72657365 
 8479      7400
 8480              	.LASF11:
 8481 01ff 75696E74 		.ascii	"uint32_t\000"
 8481      33325F74 
 8481      00
 8482              	.LASF2:
 8483 0208 696E7438 		.ascii	"int8_t\000"
 8483      5F7400
 8484              	.LASF82:
 8485 020f 63776E64 		.ascii	"cwnd\000"
 8485      00
ARM GAS  /tmp/ccgFJ4Zb.s 			page 153


 8486              	.LASF32:
 8487 0214 4D454D50 		.ascii	"MEMP_TCPIP_MSG_API\000"
 8487      5F544350 
 8487      49505F4D 
 8487      53475F41 
 8487      504900
 8488              	.LASF170:
 8489 0227 6D61785F 		.ascii	"max_pcb_list\000"
 8489      7063625F 
 8489      6C697374 
 8489      00
 8490              	.LASF142:
 8491 0234 6F707465 		.ascii	"opterr\000"
 8491      727200
 8492              	.LASF68:
 8493 023b 6C6F6361 		.ascii	"local_port\000"
 8493      6C5F706F 
 8493      727400
 8494              	.LASF150:
 8495 0246 6D757465 		.ascii	"mutex\000"
 8495      7800
 8496              	.LASF155:
 8497 024c 69705F66 		.ascii	"ip_frag\000"
 8497      72616700 
 8498              	.LASF187:
 8499 0254 6566665F 		.ascii	"eff_wnd\000"
 8499      776E6400 
 8500              	.LASF147:
 8501 025c 696C6C65 		.ascii	"illegal\000"
 8501      67616C00 
 8502              	.LASF5:
 8503 0264 696E7431 		.ascii	"int16_t\000"
 8503      365F7400 
 8504              	.LASF55:
 8505 026c 68776164 		.ascii	"hwaddr\000"
 8505      647200
 8506              	.LASF154:
 8507 0273 65746861 		.ascii	"etharp\000"
 8507      727000
 8508              	.LASF122:
 8509 027a 7463705F 		.ascii	"tcp_seg\000"
 8509      73656700 
 8510              	.LASF14:
 8511 0282 6C6F6E67 		.ascii	"long long unsigned int\000"
 8511      206C6F6E 
 8511      6720756E 
 8511      7369676E 
 8511      65642069 
 8512              	.LASF199:
 8513 0299 696E6163 		.ascii	"inactivity\000"
 8513      74697669 
 8513      747900
 8514              	.LASF234:
 8515 02a4 2F686F6D 		.ascii	"/home/texzk/ChibiStudio/chibios/demos/ARMCM3-STM32F"
 8515      652F7465 
 8515      787A6B2F 
 8515      43686962 
ARM GAS  /tmp/ccgFJ4Zb.s 			page 154


 8515      69537475 
 8516 02d7 3230372D 		.ascii	"207-STM3220G-LWIP\000"
 8516      53544D33 
 8516      32323047 
 8516      2D4C5749 
 8516      5000
 8517              	.LASF209:
 8518 02e9 7463705F 		.ascii	"tcp_poll\000"
 8518      706F6C6C 
 8518      00
 8519              	.LASF235:
 8520 02f2 7463705F 		.ascii	"tcp_state\000"
 8520      73746174 
 8520      6500
 8521              	.LASF76:
 8522 02fc 7274696D 		.ascii	"rtime\000"
 8522      6500
 8523              	.LASF54:
 8524 0302 68776164 		.ascii	"hwaddr_len\000"
 8524      64725F6C 
 8524      656E00
 8525              	.LASF239:
 8526 030d 7463705F 		.ascii	"tcp_new\000"
 8526      6E657700 
 8527              	.LASF180:
 8528 0315 7463705F 		.ascii	"tcp_recved\000"
 8528      72656376 
 8528      656400
 8529              	.LASF70:
 8530 0320 7263765F 		.ascii	"rcv_nxt\000"
 8530      6E787400 
 8531              	.LASF33:
 8532 0328 4D454D50 		.ascii	"MEMP_TCPIP_MSG_INPKT\000"
 8532      5F544350 
 8532      49505F4D 
 8532      53475F49 
 8532      4E504B54 
 8533              	.LASF146:
 8534 033d 75736564 		.ascii	"used\000"
 8534      00
 8535              	.LASF94:
 8536 0342 756E6163 		.ascii	"unacked\000"
 8536      6B656400 
 8537              	.LASF152:
 8538 034a 73746174 		.ascii	"stats_\000"
 8538      735F00
 8539              	.LASF228:
 8540 0351 7463705F 		.ascii	"tcp_backoff\000"
 8540      6261636B 
 8540      6F666600 
 8541              	.LASF120:
 8542 035d 4C415354 		.ascii	"LAST_ACK\000"
 8542      5F41434B 
 8542      00
 8543              	.LASF45:
 8544 0366 746F745F 		.ascii	"tot_len\000"
 8544      6C656E00 
ARM GAS  /tmp/ccgFJ4Zb.s 			page 155


 8545              	.LASF168:
 8546 036e 69706164 		.ascii	"ipaddr\000"
 8546      647200
 8547              	.LASF44:
 8548 0375 7061796C 		.ascii	"payload\000"
 8548      6F616400 
 8549              	.LASF188:
 8550 037d 7063625F 		.ascii	"pcb_remove\000"
 8550      72656D6F 
 8550      766500
 8551              	.LASF51:
 8552 0388 6F757470 		.ascii	"output\000"
 8552      757400
 8553              	.LASF213:
 8554 038f 7063626C 		.ascii	"pcblist\000"
 8554      69737400 
 8555              	.LASF99:
 8556 0397 636F6E6E 		.ascii	"connected\000"
 8556      65637465 
 8556      6400
 8557              	.LASF41:
 8558 03a1 70627566 		.ascii	"pbuf\000"
 8558      00
 8559              	.LASF225:
 8560 03a6 7463705F 		.ascii	"tcp_tmp_pcb\000"
 8560      746D705F 
 8560      70636200 
 8561              	.LASF211:
 8562 03b2 7463705F 		.ascii	"tcp_pcb_purge\000"
 8562      7063625F 
 8562      70757267 
 8562      6500
 8563              	.LASF119:
 8564 03c0 434C4F53 		.ascii	"CLOSING\000"
 8564      494E4700 
 8565              	.LASF175:
 8566 03c8 6261636B 		.ascii	"backlog\000"
 8566      6C6F6700 
 8567              	.LASF80:
 8568 03d0 6C617374 		.ascii	"lastack\000"
 8568      61636B00 
 8569              	.LASF37:
 8570 03d8 4D454D50 		.ascii	"MEMP_MAX\000"
 8570      5F4D4158 
 8570      00
 8571              	.LASF231:
 8572 03e1 7463705F 		.ascii	"tcp_timer\000"
 8572      74696D65 
 8572      7200
 8573              	.LASF17:
 8574 03eb 73385F74 		.ascii	"s8_t\000"
 8574      00
 8575              	.LASF21:
 8576 03f0 7333325F 		.ascii	"s32_t\000"
 8576      7400
 8577              	.LASF31:
 8578 03f6 4D454D50 		.ascii	"MEMP_NETCONN\000"
ARM GAS  /tmp/ccgFJ4Zb.s 			page 156


 8578      5F4E4554 
 8578      434F4E4E 
 8578      00
 8579              	.LASF153:
 8580 0403 6C696E6B 		.ascii	"link\000"
 8580      00
 8581              	.LASF78:
 8582 0408 72747365 		.ascii	"rtseq\000"
 8582      7100
 8583              	.LASF223:
 8584 040e 7463705F 		.ascii	"tcp_active_pcbs\000"
 8584      61637469 
 8584      76655F70 
 8584      63627300 
 8585              	.LASF81:
 8586 041e 64757061 		.ascii	"dupacks\000"
 8586      636B7300 
 8587              	.LASF65:
 8588 0426 7072696F 		.ascii	"prio\000"
 8588      00
 8589              	.LASF67:
 8590 042b 61636365 		.ascii	"accept\000"
 8590      707400
 8591              	.LASF35:
 8592 0432 4D454D50 		.ascii	"MEMP_PBUF\000"
 8592      5F504255 
 8592      4600
 8593              	.LASF100:
 8594 043c 706F6C6C 		.ascii	"poll\000"
 8594      00
 8595              	.LASF15:
 8596 0441 63686172 		.ascii	"char\000"
 8596      00
 8597              	.LASF22:
 8598 0446 6D656D5F 		.ascii	"mem_size_t\000"
 8598      73697A65 
 8598      5F7400
 8599              	.LASF134:
 8600 0451 73746174 		.ascii	"stats_proto\000"
 8600      735F7072 
 8600      6F746F00 
 8601              	.LASF89:
 8602 045d 61636B65 		.ascii	"acked\000"
 8602      6400
 8603              	.LASF118:
 8604 0463 434C4F53 		.ascii	"CLOSE_WAIT\000"
 8604      455F5741 
 8604      495400
 8605              	.LASF184:
 8606 046e 6F6C645F 		.ascii	"old_local_port\000"
 8606      6C6F6361 
 8606      6C5F706F 
 8606      727400
 8607              	.LASF232:
 8608 047d 474E5520 		.ascii	"GNU C 4.6.2 20120613 (release) [ARM/embedded-4_6-br"
 8608      4320342E 
 8608      362E3220 
ARM GAS  /tmp/ccgFJ4Zb.s 			page 157


 8608      32303132 
 8608      30363133 
 8609 04b0 616E6368 		.ascii	"anch revision 188521]\000"
 8609      20726576 
 8609      6973696F 
 8609      6E203138 
 8609      38353231 
 8610              	.LASF181:
 8611 04c6 776E645F 		.ascii	"wnd_inflation\000"
 8611      696E666C 
 8611      6174696F 
 8611      6E00
 8612              	.LASF93:
 8613 04d4 756E7365 		.ascii	"unsent\000"
 8613      6E7400
 8614              	.LASF97:
 8615 04db 73656E74 		.ascii	"sent\000"
 8615      00
 8616              	.LASF3:
 8617 04e0 75696E74 		.ascii	"uint8_t\000"
 8617      385F7400 
 8618              	.LASF86:
 8619 04e8 736E645F 		.ascii	"snd_wl1\000"
 8619      776C3100 
 8620              	.LASF87:
 8621 04f0 736E645F 		.ascii	"snd_wl2\000"
 8621      776C3200 
 8622              	.LASF237:
 8623 04f8 7463705F 		.ascii	"tcp_tmr\000"
 8623      746D7200 
 8624              	.LASF195:
 8625 0500 7463705F 		.ascii	"tcp_seg_copy\000"
 8625      7365675F 
 8625      636F7079 
 8625      00
 8626              	.LASF109:
 8627 050d 7463705F 		.ascii	"tcp_err_fn\000"
 8627      6572725F 
 8627      666E00
 8628              	.LASF236:
 8629 0518 7463705F 		.ascii	"tcp_listen_pcbs_t\000"
 8629      6C697374 
 8629      656E5F70 
 8629      6362735F 
 8629      7400
 8630              	.LASF88:
 8631 052a 736E645F 		.ascii	"snd_lbb\000"
 8631      6C626200 
 8632              	.LASF206:
 8633 0532 7463705F 		.ascii	"tcp_sent\000"
 8633      73656E74 
 8633      00
 8634              	.LASF197:
 8635 053b 7463705F 		.ascii	"tcp_recv_null\000"
 8635      72656376 
 8635      5F6E756C 
 8635      6C00
ARM GAS  /tmp/ccgFJ4Zb.s 			page 158


 8636              	.LASF30:
 8637 0549 4D454D50 		.ascii	"MEMP_NETBUF\000"
 8637      5F4E4554 
 8637      42554600 
 8638              	.LASF49:
 8639 0555 6E65746D 		.ascii	"netmask\000"
 8639      61736B00 
 8640              	.LASF13:
 8641 055d 6C6F6E67 		.ascii	"long long int\000"
 8641      206C6F6E 
 8641      6720696E 
 8641      7400
 8642              	.LASF124:
 8643 056b 7463705F 		.ascii	"tcp_pcb_listen\000"
 8643      7063625F 
 8643      6C697374 
 8643      656E00
 8644              	.LASF128:
 8645 057a 61636B6E 		.ascii	"ackno\000"
 8645      6F00
 8646              	.LASF219:
 8647 0580 7463705F 		.ascii	"tcp_debug_state_str\000"
 8647      64656275 
 8647      675F7374 
 8647      6174655F 
 8647      73747200 
 8648              	.LASF104:
 8649 0594 70657273 		.ascii	"persist_backoff\000"
 8649      6973745F 
 8649      6261636B 
 8649      6F666600 
 8650              	.LASF202:
 8651 05a4 7463705F 		.ascii	"tcp_kill_timewait\000"
 8651      6B696C6C 
 8651      5F74696D 
 8651      65776169 
 8651      7400
 8652              	.LASF25:
 8653 05b6 4D454D50 		.ascii	"MEMP_TCP_PCB\000"
 8653      5F544350 
 8653      5F504342 
 8653      00
 8654              	.LASF157:
 8655 05c3 6D656D70 		.ascii	"memp\000"
 8655      00
 8656              	.LASF16:
 8657 05c8 75385F74 		.ascii	"u8_t\000"
 8657      00
 8658              	.LASF173:
 8659 05cd 7463705F 		.ascii	"tcp_accept_null\000"
 8659      61636365 
 8659      70745F6E 
 8659      756C6C00 
 8660              	.LASF191:
 8661 05dd 7463705F 		.ascii	"tcp_fasttmr\000"
 8661      66617374 
 8661      746D7200 
ARM GAS  /tmp/ccgFJ4Zb.s 			page 159


 8662              	.LASF190:
 8663 05e9 70636232 		.ascii	"pcb2\000"
 8663      00
 8664              	.LASF174:
 8665 05ee 7463705F 		.ascii	"tcp_listen_with_backlog\000"
 8665      6C697374 
 8665      656E5F77 
 8665      6974685F 
 8665      6261636B 
 8666              	.LASF207:
 8667 0606 7463705F 		.ascii	"tcp_err\000"
 8667      65727200 
 8668              	.LASF69:
 8669 060e 72656D6F 		.ascii	"remote_port\000"
 8669      74655F70 
 8669      6F727400 
 8670              	.LASF159:
 8671 061a 7463705F 		.ascii	"tcp_close\000"
 8671      636C6F73 
 8671      6500
 8672              	.LASF222:
 8673 0624 7463705F 		.ascii	"tcp_listen_pcbs\000"
 8673      6C697374 
 8673      656E5F70 
 8673      63627300 
 8674              	.LASF72:
 8675 0634 7263765F 		.ascii	"rcv_ann_wnd\000"
 8675      616E6E5F 
 8675      776E6400 
 8676              	.LASF137:
 8677 0640 63686B65 		.ascii	"chkerr\000"
 8677      727200
 8678              	.LASF28:
 8679 0647 4D454D50 		.ascii	"MEMP_REASSDATA\000"
 8679      5F524541 
 8679      53534441 
 8679      544100
 8680              	.LASF106:
 8681 0656 7463705F 		.ascii	"tcp_recv_fn\000"
 8681      72656376 
 8681      5F666E00 
 8682              	.LASF198:
 8683 0662 696E6163 		.ascii	"inactive\000"
 8683      74697665 
 8683      00
 8684              	.LASF185:
 8685 066b 7463705F 		.ascii	"tcp_slowtmr\000"
 8685      736C6F77 
 8685      746D7200 
 8686              	.LASF166:
 8687 0677 7463705F 		.ascii	"tcp_abort\000"
 8687      61626F72 
 8687      7400
 8688              	.LASF177:
 8689 0681 7463705F 		.ascii	"tcp_update_rcv_ann_wnd\000"
 8689      75706461 
 8689      74655F72 
ARM GAS  /tmp/ccgFJ4Zb.s 			page 160


 8689      63765F61 
 8689      6E6E5F77 
 8690              	.LASF108:
 8691 0698 7463705F 		.ascii	"tcp_poll_fn\000"
 8691      706F6C6C 
 8691      5F666E00 
 8692              	.LASF215:
 8693 06a4 7463705F 		.ascii	"tcp_eff_send_mss\000"
 8693      6566665F 
 8693      73656E64 
 8693      5F6D7373 
 8693      00
 8694              	.LASF7:
 8695 06b5 75696E74 		.ascii	"uint16_t\000"
 8695      31365F74 
 8695      00
 8696              	.LASF101:
 8697 06be 65727266 		.ascii	"errf\000"
 8697      00
 8698              	.LASF85:
 8699 06c3 736E645F 		.ascii	"snd_wnd\000"
 8699      776E6400 
 8700              	.LASF208:
 8701 06cb 7463705F 		.ascii	"tcp_accept\000"
 8701      61636365 
 8701      707400
 8702              	.LASF58:
 8703 06d6 6E657469 		.ascii	"netif_output_fn\000"
 8703      665F6F75 
 8703      74707574 
 8703      5F666E00 
 8704              	.LASF201:
 8705 06e6 7463705F 		.ascii	"tcp_kill_prio\000"
 8705      6B696C6C 
 8705      5F707269 
 8705      6F00
 8706              	.LASF95:
 8707 06f4 6F6F7365 		.ascii	"ooseq\000"
 8707      7100
 8708              	.LASF111:
 8709 06fa 434C4F53 		.ascii	"CLOSED\000"
 8709      454400
 8710              	.LASF20:
 8711 0701 7533325F 		.ascii	"u32_t\000"
 8711      7400
 8712              	.LASF6:
 8713 0707 73686F72 		.ascii	"short int\000"
 8713      7420696E 
 8713      7400
 8714              	.LASF156:
 8715 0711 69636D70 		.ascii	"icmp\000"
 8715      00
 8716              	.LASF10:
 8717 0716 6C6F6E67 		.ascii	"long int\000"
 8717      20696E74 
 8717      00
 8718              	.LASF140:
ARM GAS  /tmp/ccgFJ4Zb.s 			page 161


 8719 071f 72746572 		.ascii	"rterr\000"
 8719      7200
 8720              	.LASF145:
 8721 0725 61766169 		.ascii	"avail\000"
 8721      6C00
 8722              	.LASF34:
 8723 072b 4D454D50 		.ascii	"MEMP_SYS_TIMEOUT\000"
 8723      5F535953 
 8723      5F54494D 
 8723      454F5554 
 8723      00
 8724              	.LASF71:
 8725 073c 7263765F 		.ascii	"rcv_wnd\000"
 8725      776E6400 
 8726              	.LASF77:
 8727 0744 72747465 		.ascii	"rttest\000"
 8727      737400
 8728              	.LASF171:
 8729 074b 63706362 		.ascii	"cpcb\000"
 8729      00
 8730              	.LASF24:
 8731 0750 4D454D50 		.ascii	"MEMP_UDP_PCB\000"
 8731      5F554450 
 8731      5F504342 
 8731      00
 8732              	.LASF62:
 8733 075d 6C6F6361 		.ascii	"local_ip\000"
 8733      6C5F6970 
 8733      00
 8734              	.LASF151:
 8735 0766 6D626F78 		.ascii	"mbox\000"
 8735      00
 8736              	.LASF92:
 8737 076b 756E7365 		.ascii	"unsent_oversize\000"
 8737      6E745F6F 
 8737      76657273 
 8737      697A6500 
 8738              	.LASF163:
 8739 077b 72657365 		.ascii	"reset\000"
 8739      7400
 8740              	.LASF84:
 8741 0781 736E645F 		.ascii	"snd_nxt\000"
 8741      6E787400 
 8742              	.LASF115:
 8743 0789 45535441 		.ascii	"ESTABLISHED\000"
 8743      424C4953 
 8743      48454400 
 8744              	.LASF143:
 8745 0795 63616368 		.ascii	"cachehit\000"
 8745      65686974 
 8745      00
 8746              	.LASF56:
 8747 079e 6E616D65 		.ascii	"name\000"
 8747      00
 8748              	.LASF59:
 8749 07a3 6E657469 		.ascii	"netif_linkoutput_fn\000"
 8749      665F6C69 
ARM GAS  /tmp/ccgFJ4Zb.s 			page 162


 8749      6E6B6F75 
 8749      74707574 
 8749      5F666E00 
 8750              	.LASF29:
 8751 07b7 4D454D50 		.ascii	"MEMP_FRAG_PBUF\000"
 8751      5F465241 
 8751      475F5042 
 8751      554600
 8752              	.LASF218:
 8753 07c6 6F757469 		.ascii	"outif\000"
 8753      6600
 8754              	.LASF83:
 8755 07cc 73737468 		.ascii	"ssthresh\000"
 8755      72657368 
 8755      00
 8756              	.LASF90:
 8757 07d5 736E645F 		.ascii	"snd_buf\000"
 8757      62756600 
 8758              	.LASF75:
 8759 07dd 706F6C6C 		.ascii	"pollinterval\000"
 8759      696E7465 
 8759      7276616C 
 8759      00
 8760              	.LASF23:
 8761 07ea 4D454D50 		.ascii	"MEMP_RAW_PCB\000"
 8761      5F524157 
 8761      5F504342 
 8761      00
 8762              	.LASF129:
 8763 07f7 5F686472 		.ascii	"_hdrlen_rsvd_flags\000"
 8763      6C656E5F 
 8763      72737664 
 8763      5F666C61 
 8763      677300
 8764              	.LASF138:
 8765 080a 6C656E65 		.ascii	"lenerr\000"
 8765      727200
 8766              	.LASF12:
 8767 0811 6C6F6E67 		.ascii	"long unsigned int\000"
 8767      20756E73 
 8767      69676E65 
 8767      6420696E 
 8767      7400
 8768              	.LASF220:
 8769 0823 7463705F 		.ascii	"tcp_ticks\000"
 8769      7469636B 
 8769      7300
 8770              	.LASF200:
 8771 082d 6D707269 		.ascii	"mprio\000"
 8771      6F00
 8772              	.LASF123:
 8773 0833 74637068 		.ascii	"tcphdr\000"
 8773      647200
 8774              	.LASF19:
 8775 083a 7331365F 		.ascii	"s16_t\000"
 8775      7400
 8776              	.LASF9:
ARM GAS  /tmp/ccgFJ4Zb.s 			page 163


 8777 0840 696E7433 		.ascii	"int32_t\000"
 8777      325F7400 
 8778              	.LASF169:
 8779 0848 706F7274 		.ascii	"port\000"
 8779      00
 8780              	.LASF96:
 8781 084d 72656675 		.ascii	"refused_data\000"
 8781      7365645F 
 8781      64617461 
 8781      00
 8782              	.LASF141:
 8783 085a 70726F74 		.ascii	"proterr\000"
 8783      65727200 
 8784              	.LASF194:
 8785 0862 7463705F 		.ascii	"tcp_setprio\000"
 8785      73657470 
 8785      72696F00 
 8786              	.LASF125:
 8787 086e 7463705F 		.ascii	"tcp_hdr\000"
 8787      68647200 
 8788              	.LASF46:
 8789 0876 74797065 		.ascii	"type\000"
 8789      00
 8790              	.LASF149:
 8791 087b 73746174 		.ascii	"stats_sys\000"
 8791      735F7379 
 8791      7300
 8792              	.LASF4:
 8793 0885 756E7369 		.ascii	"unsigned char\000"
 8793      676E6564 
 8793      20636861 
 8793      7200
 8794              	.LASF179:
 8795 0893 6E65775F 		.ascii	"new_rcv_ann_wnd\000"
 8795      7263765F 
 8795      616E6E5F 
 8795      776E6400 
 8796              	.LASF116:
 8797 08a3 46494E5F 		.ascii	"FIN_WAIT_1\000"
 8797      57414954 
 8797      5F3100
 8798              	.LASF117:
 8799 08ae 46494E5F 		.ascii	"FIN_WAIT_2\000"
 8799      57414954 
 8799      5F3200
 8800              	.LASF139:
 8801 08b9 6D656D65 		.ascii	"memerr\000"
 8801      727200
 8802              	.LASF27:
 8803 08c0 4D454D50 		.ascii	"MEMP_TCP_SEG\000"
 8803      5F544350 
 8803      5F534547 
 8803      00
 8804              	.LASF113:
 8805 08cd 53594E5F 		.ascii	"SYN_SENT\000"
 8805      53454E54 
 8805      00
ARM GAS  /tmp/ccgFJ4Zb.s 			page 164


 8806              	.LASF221:
 8807 08d6 7463705F 		.ascii	"tcp_bound_pcbs\000"
 8807      626F756E 
 8807      645F7063 
 8807      627300
 8808              	.LASF102:
 8809 08e5 6B656570 		.ascii	"keep_idle\000"
 8809      5F69646C 
 8809      6500
 8810              	.LASF66:
 8811 08ef 63616C6C 		.ascii	"callback_arg\000"
 8811      6261636B 
 8811      5F617267 
 8811      00
 8812              	.LASF112:
 8813 08fc 4C495354 		.ascii	"LISTEN\000"
 8813      454E00
 8814              	.LASF42:
 8815 0903 61646472 		.ascii	"addr\000"
 8815      00
 8816              	.LASF136:
 8817 0908 64726F70 		.ascii	"drop\000"
 8817      00
 8818              	.LASF53:
 8819 090d 73746174 		.ascii	"state\000"
 8819      6500
 8820              	.LASF205:
 8821 0913 7463705F 		.ascii	"tcp_recv\000"
 8821      72656376 
 8821      00
 8822              	.LASF48:
 8823 091c 6E657469 		.ascii	"netif\000"
 8823      6600
 8824              	.LASF227:
 8825 0922 7463705F 		.ascii	"tcp_state_str\000"
 8825      73746174 
 8825      655F7374 
 8825      7200
 8826              	.LASF91:
 8827 0930 736E645F 		.ascii	"snd_queuelen\000"
 8827      71756575 
 8827      656C656E 
 8827      00
 8828              	.LASF130:
 8829 093d 63686B73 		.ascii	"chksum\000"
 8829      756D00
 8830              	.LASF176:
 8831 0944 6C706362 		.ascii	"lpcb\000"
 8831      00
 8832              	.LASF217:
 8833 0949 6D73735F 		.ascii	"mss_s\000"
 8833      7300
 8834              	.LASF98:
 8835 094f 72656376 		.ascii	"recv\000"
 8835      00
 8836              	.LASF1:
 8837 0954 7369676E 		.ascii	"signed char\000"
ARM GAS  /tmp/ccgFJ4Zb.s 			page 165


 8837      65642063 
 8837      68617200 
 8838              	.LASF61:
 8839 0960 7463705F 		.ascii	"tcp_pcb\000"
 8839      70636200 
 8840              	.LASF8:
 8841 0968 73686F72 		.ascii	"short unsigned int\000"
 8841      7420756E 
 8841      7369676E 
 8841      65642069 
 8841      6E7400
 8842              	.LASF135:
 8843 097b 786D6974 		.ascii	"xmit\000"
 8843      00
 8844              	.LASF193:
 8845 0980 7463705F 		.ascii	"tcp_seg_free\000"
 8845      7365675F 
 8845      66726565 
 8845      00
 8846              	.LASF103:
 8847 098d 70657273 		.ascii	"persist_cnt\000"
 8847      6973745F 
 8847      636E7400 
 8848              	.LASF63:
 8849 0999 72656D6F 		.ascii	"remote_ip\000"
 8849      74655F69 
 8849      7000
 8850              	.LASF224:
 8851 09a3 7463705F 		.ascii	"tcp_tw_pcbs\000"
 8851      74775F70 
 8851      63627300 
 8852              	.LASF165:
 8853 09af 7463705F 		.ascii	"tcp_abandon\000"
 8853      6162616E 
 8853      646F6E00 
 8854              	.LASF38:
 8855 09bb 69705F61 		.ascii	"ip_addr_t\000"
 8855      6464725F 
 8855      7400
 8856              	.LASF192:
 8857 09c5 7463705F 		.ascii	"tcp_segs_free\000"
 8857      73656773 
 8857      5F667265 
 8857      6500
 8858              	.LASF204:
 8859 09d3 7463705F 		.ascii	"tcp_arg\000"
 8859      61726700 
 8860              	.LASF203:
 8861 09db 7463705F 		.ascii	"tcp_alloc\000"
 8861      616C6C6F 
 8861      6300
 8862              	.LASF161:
 8863 09e5 73687574 		.ascii	"shut_rx\000"
 8863      5F727800 
 8864              	.LASF79:
 8865 09ed 6E727478 		.ascii	"nrtx\000"
 8865      00
ARM GAS  /tmp/ccgFJ4Zb.s 			page 166


 8866              	.LASF126:
 8867 09f2 64657374 		.ascii	"dest\000"
 8867      00
 8868              	.LASF216:
 8869 09f7 73656E64 		.ascii	"sendmss\000"
 8869      6D737300 
 8870              	.LASF114:
 8871 09ff 53594E5F 		.ascii	"SYN_RCVD\000"
 8871      52435644 
 8871      00
 8872              	.LASF40:
 8873 0a08 69705F61 		.ascii	"ip_addr\000"
 8873      64647200 
 8874              	.LASF133:
 8875 0a10 70636273 		.ascii	"pcbs\000"
 8875      00
 8876              		.ident	"GCC: (GNU Tools for ARM Embedded Processors) 4.6.2 20120613 (release) [ARM/embedded-4_6-br
ARM GAS  /tmp/ccgFJ4Zb.s 			page 167


DEFINED SYMBOLS
                            *ABS*:00000000 tcp.c
     /tmp/ccgFJ4Zb.s:57     .rodata.tcp_state_str:00000000 tcp_state_str
     /tmp/ccgFJ4Zb.s:20     .rodata:00000000 $d
     /tmp/ccgFJ4Zb.s:54     .rodata.tcp_state_str:00000000 $d
     /tmp/ccgFJ4Zb.s:74     .bss.tcp_ticks:00000000 tcp_ticks
     /tmp/ccgFJ4Zb.s:71     .bss.tcp_ticks:00000000 $d
     /tmp/ccgFJ4Zb.s:81     .rodata.tcp_backoff:00000000 tcp_backoff
     /tmp/ccgFJ4Zb.s:78     .rodata.tcp_backoff:00000000 $d
     /tmp/ccgFJ4Zb.s:100    .rodata.tcp_persist_backoff:00000000 tcp_persist_backoff
     /tmp/ccgFJ4Zb.s:97     .rodata.tcp_persist_backoff:00000000 $d
     /tmp/ccgFJ4Zb.s:113    .bss.tcp_bound_pcbs:00000000 tcp_bound_pcbs
     /tmp/ccgFJ4Zb.s:110    .bss.tcp_bound_pcbs:00000000 $d
     /tmp/ccgFJ4Zb.s:120    .bss.tcp_listen_pcbs:00000000 tcp_listen_pcbs
     /tmp/ccgFJ4Zb.s:117    .bss.tcp_listen_pcbs:00000000 $d
     /tmp/ccgFJ4Zb.s:127    .bss.tcp_active_pcbs:00000000 tcp_active_pcbs
     /tmp/ccgFJ4Zb.s:124    .bss.tcp_active_pcbs:00000000 $d
     /tmp/ccgFJ4Zb.s:134    .bss.tcp_tw_pcbs:00000000 tcp_tw_pcbs
     /tmp/ccgFJ4Zb.s:131    .bss.tcp_tw_pcbs:00000000 $d
     /tmp/ccgFJ4Zb.s:141    .rodata.tcp_pcb_lists:00000000 tcp_pcb_lists
     /tmp/ccgFJ4Zb.s:138    .rodata.tcp_pcb_lists:00000000 $d
     /tmp/ccgFJ4Zb.s:151    .bss.tcp_tmp_pcb:00000000 tcp_tmp_pcb
     /tmp/ccgFJ4Zb.s:148    .bss.tcp_tmp_pcb:00000000 $d
     /tmp/ccgFJ4Zb.s:156    .bss.tcp_timer:00000000 tcp_timer
     /tmp/ccgFJ4Zb.s:157    .bss.tcp_timer:00000000 $d
     /tmp/ccgFJ4Zb.s:159    .text.tcp_tmr:00000000 $t
     /tmp/ccgFJ4Zb.s:165    .text.tcp_tmr:00000000 tcp_tmr
     /tmp/ccgFJ4Zb.s:2559   .text.tcp_fasttmr:00000000 tcp_fasttmr
     /tmp/ccgFJ4Zb.s:1870   .text.tcp_slowtmr:00000000 tcp_slowtmr
     /tmp/ccgFJ4Zb.s:204    .text.tcp_close_shutdown:00000000 $t
     /tmp/ccgFJ4Zb.s:209    .text.tcp_close_shutdown:00000000 tcp_close_shutdown
     /tmp/ccgFJ4Zb.s:3519   .text.tcp_pcb_purge:00000000 tcp_pcb_purge
     /tmp/ccgFJ4Zb.s:369    .text.tcp_close_shutdown:00000138 $d
     /tmp/ccgFJ4Zb.s:379    .text.tcp_close_shutdown:00000158 $t
     /tmp/ccgFJ4Zb.s:3614   .text.tcp_pcb_remove:00000000 tcp_pcb_remove
     /tmp/ccgFJ4Zb.s:588    .text.tcp_close:00000000 $t
     /tmp/ccgFJ4Zb.s:594    .text.tcp_close:00000000 tcp_close
     /tmp/ccgFJ4Zb.s:634    .text.tcp_shutdown:00000000 $t
     /tmp/ccgFJ4Zb.s:640    .text.tcp_shutdown:00000000 tcp_shutdown
     /tmp/ccgFJ4Zb.s:730    .text.tcp_abandon:00000000 $t
     /tmp/ccgFJ4Zb.s:736    .text.tcp_abandon:00000000 tcp_abandon
     /tmp/ccgFJ4Zb.s:2694   .text.tcp_segs_free:00000000 tcp_segs_free
     /tmp/ccgFJ4Zb.s:881    .text.tcp_abort:00000000 $t
     /tmp/ccgFJ4Zb.s:887    .text.tcp_abort:00000000 tcp_abort
     /tmp/ccgFJ4Zb.s:912    .text.tcp_bind:00000000 $t
     /tmp/ccgFJ4Zb.s:918    .text.tcp_bind:00000000 tcp_bind
     /tmp/ccgFJ4Zb.s:1491   .text.tcp_new_port:00000000 tcp_new_port
     /tmp/ccgFJ4Zb.s:1068   .text.tcp_accept_null:00000000 $t
     /tmp/ccgFJ4Zb.s:1073   .text.tcp_accept_null:00000000 tcp_accept_null
     /tmp/ccgFJ4Zb.s:1098   .text.tcp_listen_with_backlog:00000000 $t
     /tmp/ccgFJ4Zb.s:1104   .text.tcp_listen_with_backlog:00000000 tcp_listen_with_backlog
     /tmp/ccgFJ4Zb.s:1298   .text.tcp_update_rcv_ann_wnd:00000000 $t
     /tmp/ccgFJ4Zb.s:1304   .text.tcp_update_rcv_ann_wnd:00000000 tcp_update_rcv_ann_wnd
     /tmp/ccgFJ4Zb.s:1406   .text.tcp_recved:00000000 $t
     /tmp/ccgFJ4Zb.s:1412   .text.tcp_recved:00000000 tcp_recved
     /tmp/ccgFJ4Zb.s:1486   .text.tcp_new_port:00000000 $t
     /tmp/ccgFJ4Zb.s:3895   .data.port.5810:00000000 port.5810
ARM GAS  /tmp/ccgFJ4Zb.s 			page 168


     /tmp/ccgFJ4Zb.s:1582   .text.tcp_connect:00000000 $t
     /tmp/ccgFJ4Zb.s:1588   .text.tcp_connect:00000000 tcp_connect
     /tmp/ccgFJ4Zb.s:3767   .text.tcp_next_iss:00000000 tcp_next_iss
     /tmp/ccgFJ4Zb.s:3802   .text.tcp_eff_send_mss:00000000 tcp_eff_send_mss
     /tmp/ccgFJ4Zb.s:1864   .text.tcp_slowtmr:00000000 $t
     /tmp/ccgFJ4Zb.s:2553   .text.tcp_fasttmr:00000000 $t
     /tmp/ccgFJ4Zb.s:2877   .text.tcp_recv_null:00000000 tcp_recv_null
     /tmp/ccgFJ4Zb.s:2688   .text.tcp_segs_free:00000000 $t
     /tmp/ccgFJ4Zb.s:2741   .text.tcp_seg_free:00000000 tcp_seg_free
     /tmp/ccgFJ4Zb.s:2735   .text.tcp_seg_free:00000000 $t
     /tmp/ccgFJ4Zb.s:2782   .text.tcp_setprio:00000000 $t
     /tmp/ccgFJ4Zb.s:2788   .text.tcp_setprio:00000000 tcp_setprio
     /tmp/ccgFJ4Zb.s:2812   .text.tcp_seg_copy:00000000 $t
     /tmp/ccgFJ4Zb.s:2818   .text.tcp_seg_copy:00000000 tcp_seg_copy
     /tmp/ccgFJ4Zb.s:2871   .text.tcp_recv_null:00000000 $t
     /tmp/ccgFJ4Zb.s:2931   .text.tcp_kill_prio:00000000 $t
     /tmp/ccgFJ4Zb.s:2936   .text.tcp_kill_prio:00000000 tcp_kill_prio
     /tmp/ccgFJ4Zb.s:3031   .text.tcp_kill_timewait:00000000 $t
     /tmp/ccgFJ4Zb.s:3036   .text.tcp_kill_timewait:00000000 tcp_kill_timewait
     /tmp/ccgFJ4Zb.s:3108   .text.tcp_alloc:00000000 $t
     /tmp/ccgFJ4Zb.s:3114   .text.tcp_alloc:00000000 tcp_alloc
     /tmp/ccgFJ4Zb.s:3305   .text.tcp_new:00000000 $t
     /tmp/ccgFJ4Zb.s:3311   .text.tcp_new:00000000 tcp_new
     /tmp/ccgFJ4Zb.s:3333   .text.tcp_arg:00000000 $t
     /tmp/ccgFJ4Zb.s:3339   .text.tcp_arg:00000000 tcp_arg
     /tmp/ccgFJ4Zb.s:3362   .text.tcp_recv:00000000 $t
     /tmp/ccgFJ4Zb.s:3368   .text.tcp_recv:00000000 tcp_recv
     /tmp/ccgFJ4Zb.s:3391   .text.tcp_sent:00000000 $t
     /tmp/ccgFJ4Zb.s:3397   .text.tcp_sent:00000000 tcp_sent
     /tmp/ccgFJ4Zb.s:3420   .text.tcp_err:00000000 $t
     /tmp/ccgFJ4Zb.s:3426   .text.tcp_err:00000000 tcp_err
     /tmp/ccgFJ4Zb.s:3449   .text.tcp_accept:00000000 $t
     /tmp/ccgFJ4Zb.s:3455   .text.tcp_accept:00000000 tcp_accept
     /tmp/ccgFJ4Zb.s:3478   .text.tcp_poll:00000000 $t
     /tmp/ccgFJ4Zb.s:3484   .text.tcp_poll:00000000 tcp_poll
     /tmp/ccgFJ4Zb.s:3513   .text.tcp_pcb_purge:00000000 $t
     /tmp/ccgFJ4Zb.s:3608   .text.tcp_pcb_remove:00000000 $t
     /tmp/ccgFJ4Zb.s:3761   .text.tcp_next_iss:00000000 $t
     /tmp/ccgFJ4Zb.s:3889   .data.iss.5946:00000000 iss.5946
     /tmp/ccgFJ4Zb.s:3796   .text.tcp_eff_send_mss:00000000 $t
     /tmp/ccgFJ4Zb.s:3855   .text.tcp_debug_state_str:00000000 $t
     /tmp/ccgFJ4Zb.s:3861   .text.tcp_debug_state_str:00000000 tcp_debug_state_str
     /tmp/ccgFJ4Zb.s:3886   .data.iss.5946:00000000 $d
     /tmp/ccgFJ4Zb.s:3892   .data.port.5810:00000000 $d
                     .debug_frame:00000010 $d

UNDEFINED SYMBOLS
port_halt
tcp_rst
tcp_timer_needed
memp_free
tcp_send_fin
tcp_output
pbuf_free
memp_malloc
ip_route
tcp_enqueue_flags
ARM GAS  /tmp/ccgFJ4Zb.s 			page 169


tcp_zero_window_probe
tcp_rexmit_rto
tcp_keepalive
memcpy
pbuf_ref
lwip_stats
memset
