ARM GAS  /tmp/ccgFJ4Zb.s 			page 1


   1              		.syntax unified
   2              		.cpu cortex-m3
   3              		.fpu softvfp
   4              		.eabi_attribute 20, 1
   5              		.eabi_attribute 21, 1
   6              		.eabi_attribute 23, 3
   7              		.eabi_attribute 24, 1
   8              		.eabi_attribute 25, 1
   9              		.eabi_attribute 26, 1
  10              		.eabi_attribute 30, 6
  11              		.eabi_attribute 34, 1
  12              		.eabi_attribute 18, 4
  13              		.thumb
  14              		.file	"tcp.c"
  15              		.text
  16              	.Ltext0:
  17              		.cfi_sections	.debug_frame
  18              		.global	tcp_state_str
  19              		.section	.rodata
  20              		.align	2
  21              	.LC0:
  22 0000 434C4F53 		.ascii	"CLOSED\000"
  22      454400
  23 0007 00       		.align	2
  24              	.LC1:
  25 0008 4C495354 		.ascii	"LISTEN\000"
  25      454E00
  26 000f 00       		.align	2
  27              	.LC2:
  28 0010 53594E5F 		.ascii	"SYN_SENT\000"
  28      53454E54 
  28      00
  29 0019 000000   		.align	2
  30              	.LC3:
  31 001c 53594E5F 		.ascii	"SYN_RCVD\000"
  31      52435644 
  31      00
  32 0025 000000   		.align	2
  33              	.LC4:
  34 0028 45535441 		.ascii	"ESTABLISHED\000"
  34      424C4953 
  34      48454400 
  35              		.align	2
  36              	.LC5:
  37 0034 46494E5F 		.ascii	"FIN_WAIT_1\000"
  37      57414954 
  37      5F3100
  38 003f 00       		.align	2
  39              	.LC6:
  40 0040 46494E5F 		.ascii	"FIN_WAIT_2\000"
  40      57414954 
  40      5F3200
  41 004b 00       		.align	2
  42              	.LC7:
  43 004c 434C4F53 		.ascii	"CLOSE_WAIT\000"
  43      455F5741 
  43      495400
ARM GAS  /tmp/ccgFJ4Zb.s 			page 2


  44 0057 00       		.align	2
  45              	.LC8:
  46 0058 434C4F53 		.ascii	"CLOSING\000"
  46      494E4700 
  47              		.align	2
  48              	.LC9:
  49 0060 4C415354 		.ascii	"LAST_ACK\000"
  49      5F41434B 
  49      00
  50 0069 000000   		.align	2
  51              	.LC10:
  52 006c 54494D45 		.ascii	"TIME_WAIT\000"
  52      5F574149 
  52      5400
  53 0076 0000     		.section	.rodata.tcp_state_str,"a",%progbits
  54              		.align	2
  55              		.type	tcp_state_str, %object
  56              		.size	tcp_state_str, 44
  57              	tcp_state_str:
  58 0000 00000000 		.word	.LC0
  59 0004 08000000 		.word	.LC1
  60 0008 10000000 		.word	.LC2
  61 000c 1C000000 		.word	.LC3
  62 0010 28000000 		.word	.LC4
  63 0014 34000000 		.word	.LC5
  64 0018 40000000 		.word	.LC6
  65 001c 4C000000 		.word	.LC7
  66 0020 58000000 		.word	.LC8
  67 0024 60000000 		.word	.LC9
  68 0028 6C000000 		.word	.LC10
  69              		.global	tcp_ticks
  70              		.section	.bss.tcp_ticks,"aw",%nobits
  71              		.align	2
  72              		.type	tcp_ticks, %object
  73              		.size	tcp_ticks, 4
  74              	tcp_ticks:
  75 0000 00000000 		.space	4
  76              		.global	tcp_backoff
  77              		.section	.rodata.tcp_backoff,"a",%progbits
  78              		.align	2
  79              		.type	tcp_backoff, %object
  80              		.size	tcp_backoff, 13
  81              	tcp_backoff:
  82 0000 01       		.byte	1
  83 0001 02       		.byte	2
  84 0002 03       		.byte	3
  85 0003 04       		.byte	4
  86 0004 05       		.byte	5
  87 0005 06       		.byte	6
  88 0006 07       		.byte	7
  89 0007 07       		.byte	7
  90 0008 07       		.byte	7
  91 0009 07       		.byte	7
  92 000a 07       		.byte	7
  93 000b 07       		.byte	7
  94 000c 07       		.byte	7
  95              		.global	tcp_persist_backoff
ARM GAS  /tmp/ccgFJ4Zb.s 			page 3


  96 000d 000000   		.section	.rodata.tcp_persist_backoff,"a",%progbits
  97              		.align	2
  98              		.type	tcp_persist_backoff, %object
  99              		.size	tcp_persist_backoff, 7
 100              	tcp_persist_backoff:
 101 0000 03       		.byte	3
 102 0001 06       		.byte	6
 103 0002 0C       		.byte	12
 104 0003 18       		.byte	24
 105 0004 30       		.byte	48
 106 0005 60       		.byte	96
 107 0006 78       		.byte	120
 108              		.global	tcp_bound_pcbs
 109 0007 00       		.section	.bss.tcp_bound_pcbs,"aw",%nobits
 110              		.align	2
 111              		.type	tcp_bound_pcbs, %object
 112              		.size	tcp_bound_pcbs, 4
 113              	tcp_bound_pcbs:
 114 0000 00000000 		.space	4
 115              		.global	tcp_listen_pcbs
 116              		.section	.bss.tcp_listen_pcbs,"aw",%nobits
 117              		.align	2
 118              		.type	tcp_listen_pcbs, %object
 119              		.size	tcp_listen_pcbs, 4
 120              	tcp_listen_pcbs:
 121 0000 00000000 		.space	4
 122              		.global	tcp_active_pcbs
 123              		.section	.bss.tcp_active_pcbs,"aw",%nobits
 124              		.align	2
 125              		.type	tcp_active_pcbs, %object
 126              		.size	tcp_active_pcbs, 4
 127              	tcp_active_pcbs:
 128 0000 00000000 		.space	4
 129              		.global	tcp_tw_pcbs
 130              		.section	.bss.tcp_tw_pcbs,"aw",%nobits
 131              		.align	2
 132              		.type	tcp_tw_pcbs, %object
 133              		.size	tcp_tw_pcbs, 4
 134              	tcp_tw_pcbs:
 135 0000 00000000 		.space	4
 136              		.global	tcp_pcb_lists
 137              		.section	.rodata.tcp_pcb_lists,"a",%progbits
 138              		.align	2
 139              		.type	tcp_pcb_lists, %object
 140              		.size	tcp_pcb_lists, 16
 141              	tcp_pcb_lists:
 142 0000 00000000 		.word	tcp_listen_pcbs
 143 0004 00000000 		.word	tcp_bound_pcbs
 144 0008 00000000 		.word	tcp_active_pcbs
 145 000c 00000000 		.word	tcp_tw_pcbs
 146              		.global	tcp_tmp_pcb
 147              		.section	.bss.tcp_tmp_pcb,"aw",%nobits
 148              		.align	2
 149              		.type	tcp_tmp_pcb, %object
 150              		.size	tcp_tmp_pcb, 4
 151              	tcp_tmp_pcb:
 152 0000 00000000 		.space	4
ARM GAS  /tmp/ccgFJ4Zb.s 			page 4


 153              		.section	.bss.tcp_timer,"aw",%nobits
 154              		.type	tcp_timer, %object
 155              		.size	tcp_timer, 1
 156              	tcp_timer:
 157 0000 00       		.space	1
 158              		.section	.text.tcp_tmr,"ax",%progbits
 159              		.align	2
 160              		.p2align 4,,15
 161              		.global	tcp_tmr
 162              		.thumb
 163              		.thumb_func
 164              		.type	tcp_tmr, %function
 165              	tcp_tmr:
 166              	.LFB7:
 167              		.file 1 "../../ext/lwip/src/core/tcp.c"
 168              		.loc 1 110 0
 169              		.cfi_startproc
 170              		@ args = 0, pretend = 0, frame = 0
 171              		@ frame_needed = 0, uses_anonymous_args = 0
 172 0000 08B5     		push	{r3, lr}
 173              	.LCFI0:
 174              		.cfi_def_cfa_offset 8
 175              		.cfi_offset 14, -4
 176              		.cfi_offset 3, -8
 177              		.loc 1 112 0
 178 0002 FFF7FEFF 		bl	tcp_fasttmr
 179              		.loc 1 114 0
 180 0006 40F20003 		movw	r3, #:lower16:tcp_timer
 181 000a C0F20003 		movt	r3, #:upper16:tcp_timer
 182 000e 1B78     		ldrb	r3, [r3, #0]	@ zero_extendqisi2
 183 0010 03F10103 		add	r3, r3, #1
 184 0014 DAB2     		uxtb	r2, r3
 185 0016 40F20003 		movw	r3, #:lower16:tcp_timer
 186 001a C0F20003 		movt	r3, #:upper16:tcp_timer
 187 001e 1A70     		strb	r2, [r3, #0]
 188 0020 40F20003 		movw	r3, #:lower16:tcp_timer
 189 0024 C0F20003 		movt	r3, #:upper16:tcp_timer
 190 0028 1B78     		ldrb	r3, [r3, #0]	@ zero_extendqisi2
 191 002a 03F00103 		and	r3, r3, #1
 192 002e DBB2     		uxtb	r3, r3
 193 0030 002B     		cmp	r3, #0
 194 0032 01D0     		beq	.L1
 195              		.loc 1 117 0
 196 0034 FFF7FEFF 		bl	tcp_slowtmr
 197              	.L1:
 198              		.loc 1 119 0
 199 0038 08BD     		pop	{r3, pc}
 200              		.cfi_endproc
 201              	.LFE7:
 202              		.size	tcp_tmr, .-tcp_tmr
 203 003a 00BFAFF3 		.section	.text.tcp_close_shutdown,"ax",%progbits
 203      0080
 204              		.align	2
 205              		.p2align 4,,15
 206              		.thumb
 207              		.thumb_func
 208              		.type	tcp_close_shutdown, %function
ARM GAS  /tmp/ccgFJ4Zb.s 			page 5


 209              	tcp_close_shutdown:
 210              	.LFB8:
 211              		.loc 1 139 0
 212              		.cfi_startproc
 213              		@ args = 0, pretend = 0, frame = 16
 214              		@ frame_needed = 0, uses_anonymous_args = 0
 215 0000 30B5     		push	{r4, r5, lr}
 216              	.LCFI1:
 217              		.cfi_def_cfa_offset 12
 218              		.cfi_offset 14, -4
 219              		.cfi_offset 5, -8
 220              		.cfi_offset 4, -12
 221 0002 87B0     		sub	sp, sp, #28
 222              	.LCFI2:
 223              		.cfi_def_cfa_offset 40
 224 0004 0390     		str	r0, [sp, #12]
 225 0006 0B46     		mov	r3, r1
 226 0008 8DF80B30 		strb	r3, [sp, #11]
 227              		.loc 1 142 0
 228 000c 9DF80B30 		ldrb	r3, [sp, #11]	@ zero_extendqisi2
 229 0010 002B     		cmp	r3, #0
 230 0012 00F08880 		beq	.L4
 231              		.loc 1 142 0 is_stmt 0 discriminator 1
 232 0016 039B     		ldr	r3, [sp, #12]
 233 0018 1B7C     		ldrb	r3, [r3, #16]	@ zero_extendqisi2
 234 001a 012B     		cmp	r3, #1
 235 001c 00F08380 		beq	.L4
 236              		.loc 1 143 0 is_stmt 1
 237 0020 039B     		ldr	r3, [sp, #12]
 238 0022 D3F88030 		ldr	r3, [r3, #128]
 239 0026 002B     		cmp	r3, #0
 240 0028 04D1     		bne	.L5
 241              		.loc 1 143 0 is_stmt 0 discriminator 1
 242 002a 039B     		ldr	r3, [sp, #12]
 243 002c 1B8D     		ldrh	r3, [r3, #40]
 244 002e B3F5066F 		cmp	r3, #2144
 245 0032 78D0     		beq	.L4
 246              	.L5:
 247              		.loc 1 146 0 is_stmt 1
 248 0034 039B     		ldr	r3, [sp, #12]
 249 0036 93F82030 		ldrb	r3, [r3, #32]	@ zero_extendqisi2
 250 003a 03F01003 		and	r3, r3, #16
 251 003e 002B     		cmp	r3, #0
 252 0040 01D1     		bne	.L6
 253              		.loc 1 146 0 is_stmt 0 discriminator 1
 254 0042 FFF7FEFF 		bl	port_halt
 255              	.L6:
 256              		.loc 1 150 0 is_stmt 1
 257 0046 039B     		ldr	r3, [sp, #12]
 258 0048 986D     		ldr	r0, [r3, #88]
 259 004a 039B     		ldr	r3, [sp, #12]
 260 004c 596A     		ldr	r1, [r3, #36]
 261 004e 039A     		ldr	r2, [sp, #12]
 262 0050 039B     		ldr	r3, [sp, #12]
 263 0052 03F10403 		add	r3, r3, #4
 264              		.loc 1 151 0
 265 0056 039C     		ldr	r4, [sp, #12]
ARM GAS  /tmp/ccgFJ4Zb.s 			page 6


 266              		.loc 1 150 0
 267 0058 A58B     		ldrh	r5, [r4, #28]
 268              		.loc 1 151 0
 269 005a 039C     		ldr	r4, [sp, #12]
 270              		.loc 1 150 0
 271 005c E48B     		ldrh	r4, [r4, #30]
 272 005e 0095     		str	r5, [sp, #0]
 273 0060 0194     		str	r4, [sp, #4]
 274 0062 FFF7FEFF 		bl	tcp_rst
 275              		.loc 1 153 0
 276 0066 0398     		ldr	r0, [sp, #12]
 277 0068 FFF7FEFF 		bl	tcp_pcb_purge
 278              		.loc 1 158 0
 279 006c 40F20003 		movw	r3, #:lower16:tcp_active_pcbs
 280 0070 C0F20003 		movt	r3, #:upper16:tcp_active_pcbs
 281 0074 1A68     		ldr	r2, [r3, #0]
 282 0076 039B     		ldr	r3, [sp, #12]
 283 0078 9A42     		cmp	r2, r3
 284 007a 0BD1     		bne	.L7
 285              		.loc 1 158 0 is_stmt 0 discriminator 1
 286 007c 40F20003 		movw	r3, #:lower16:tcp_active_pcbs
 287 0080 C0F20003 		movt	r3, #:upper16:tcp_active_pcbs
 288 0084 1B68     		ldr	r3, [r3, #0]
 289 0086 DA68     		ldr	r2, [r3, #12]
 290 0088 40F20003 		movw	r3, #:lower16:tcp_active_pcbs
 291 008c C0F20003 		movt	r3, #:upper16:tcp_active_pcbs
 292 0090 1A60     		str	r2, [r3, #0]
 293 0092 2EE0     		b	.L8
 294              	.L7:
 295              		.loc 1 158 0 discriminator 2
 296 0094 40F20003 		movw	r3, #:lower16:tcp_active_pcbs
 297 0098 C0F20003 		movt	r3, #:upper16:tcp_active_pcbs
 298 009c 1A68     		ldr	r2, [r3, #0]
 299 009e 40F20003 		movw	r3, #:lower16:tcp_tmp_pcb
 300 00a2 C0F20003 		movt	r3, #:upper16:tcp_tmp_pcb
 301 00a6 1A60     		str	r2, [r3, #0]
 302 00a8 1CE0     		b	.L9
 303              	.L11:
 304              		.loc 1 158 0 discriminator 7
 305 00aa 40F20003 		movw	r3, #:lower16:tcp_tmp_pcb
 306 00ae C0F20003 		movt	r3, #:upper16:tcp_tmp_pcb
 307 00b2 1B68     		ldr	r3, [r3, #0]
 308 00b4 DA68     		ldr	r2, [r3, #12]
 309 00b6 039B     		ldr	r3, [sp, #12]
 310 00b8 9A42     		cmp	r2, r3
 311 00ba 08D1     		bne	.L10
 312              		.loc 1 158 0 discriminator 4
 313 00bc 40F20003 		movw	r3, #:lower16:tcp_tmp_pcb
 314 00c0 C0F20003 		movt	r3, #:upper16:tcp_tmp_pcb
 315 00c4 1B68     		ldr	r3, [r3, #0]
 316 00c6 039A     		ldr	r2, [sp, #12]
 317 00c8 D268     		ldr	r2, [r2, #12]
 318 00ca DA60     		str	r2, [r3, #12]
 319 00cc 11E0     		b	.L8
 320              	.L10:
 321              		.loc 1 158 0 discriminator 5
 322 00ce 40F20003 		movw	r3, #:lower16:tcp_tmp_pcb
ARM GAS  /tmp/ccgFJ4Zb.s 			page 7


 323 00d2 C0F20003 		movt	r3, #:upper16:tcp_tmp_pcb
 324 00d6 1B68     		ldr	r3, [r3, #0]
 325 00d8 DA68     		ldr	r2, [r3, #12]
 326 00da 40F20003 		movw	r3, #:lower16:tcp_tmp_pcb
 327 00de C0F20003 		movt	r3, #:upper16:tcp_tmp_pcb
 328 00e2 1A60     		str	r2, [r3, #0]
 329              	.L9:
 330              		.loc 1 158 0 discriminator 3
 331 00e4 40F20003 		movw	r3, #:lower16:tcp_tmp_pcb
 332 00e8 C0F20003 		movt	r3, #:upper16:tcp_tmp_pcb
 333 00ec 1B68     		ldr	r3, [r3, #0]
 334 00ee 002B     		cmp	r3, #0
 335 00f0 DBD1     		bne	.L11
 336              	.L8:
 337              		.loc 1 158 0 discriminator 6
 338 00f2 039B     		ldr	r3, [sp, #12]
 339 00f4 4FF00002 		mov	r2, #0
 340 00f8 DA60     		str	r2, [r3, #12]
 341              		.loc 1 159 0 is_stmt 1 discriminator 6
 342 00fa 039B     		ldr	r3, [sp, #12]
 343 00fc 4FF00A02 		mov	r2, #10
 344 0100 1A74     		strb	r2, [r3, #16]
 345              		.loc 1 160 0 discriminator 6
 346 0102 40F20003 		movw	r3, #:lower16:tcp_tw_pcbs
 347 0106 C0F20003 		movt	r3, #:upper16:tcp_tw_pcbs
 348 010a 1A68     		ldr	r2, [r3, #0]
 349 010c 039B     		ldr	r3, [sp, #12]
 350 010e DA60     		str	r2, [r3, #12]
 351 0110 40F20003 		movw	r3, #:lower16:tcp_tw_pcbs
 352 0114 C0F20003 		movt	r3, #:upper16:tcp_tw_pcbs
 353 0118 039A     		ldr	r2, [sp, #12]
 354 011a 1A60     		str	r2, [r3, #0]
 355 011c FFF7FEFF 		bl	tcp_timer_needed
 356              		.loc 1 162 0 discriminator 6
 357 0120 4FF00003 		mov	r3, #0
 358 0124 DEE0     		b	.L12
 359              	.L4:
 360              		.loc 1 166 0
 361 0126 039B     		ldr	r3, [sp, #12]
 362 0128 1B7C     		ldrb	r3, [r3, #16]	@ zero_extendqisi2
 363 012a 072B     		cmp	r3, #7
 364 012c 00F2C180 		bhi	.L13
 365 0130 01A2     		adr	r2, .L20
 366 0132 52F823F0 		ldr	pc, [r2, r3, lsl #2]
 367 0136 00BF     		.align	2
 368              	.L20:
 369 0138 59010000 		.word	.L14+1
 370 013c 09020000 		.word	.L15+1
 371 0140 31020000 		.word	.L16+1
 372 0144 59020000 		.word	.L17+1
 373 0148 77020000 		.word	.L18+1
 374 014c B3020000 		.word	.L13+1
 375 0150 B3020000 		.word	.L13+1
 376 0154 95020000 		.word	.L19+1
 377              	.L14:
 378              		.loc 1 175 0
 379 0158 4FF00003 		mov	r3, #0
ARM GAS  /tmp/ccgFJ4Zb.s 			page 8


 380 015c 8DF81730 		strb	r3, [sp, #23]
 381              		.loc 1 176 0
 382 0160 039B     		ldr	r3, [sp, #12]
 383 0162 9B8B     		ldrh	r3, [r3, #28]
 384 0164 002B     		cmp	r3, #0
 385 0166 46D0     		beq	.L21
 386              		.loc 1 177 0
 387 0168 40F20003 		movw	r3, #:lower16:tcp_bound_pcbs
 388 016c C0F20003 		movt	r3, #:upper16:tcp_bound_pcbs
 389 0170 1A68     		ldr	r2, [r3, #0]
 390 0172 039B     		ldr	r3, [sp, #12]
 391 0174 9A42     		cmp	r2, r3
 392 0176 0BD1     		bne	.L22
 393              		.loc 1 177 0 is_stmt 0 discriminator 1
 394 0178 40F20003 		movw	r3, #:lower16:tcp_bound_pcbs
 395 017c C0F20003 		movt	r3, #:upper16:tcp_bound_pcbs
 396 0180 1B68     		ldr	r3, [r3, #0]
 397 0182 DA68     		ldr	r2, [r3, #12]
 398 0184 40F20003 		movw	r3, #:lower16:tcp_bound_pcbs
 399 0188 C0F20003 		movt	r3, #:upper16:tcp_bound_pcbs
 400 018c 1A60     		str	r2, [r3, #0]
 401 018e 2EE0     		b	.L23
 402              	.L22:
 403              		.loc 1 177 0 discriminator 2
 404 0190 40F20003 		movw	r3, #:lower16:tcp_bound_pcbs
 405 0194 C0F20003 		movt	r3, #:upper16:tcp_bound_pcbs
 406 0198 1A68     		ldr	r2, [r3, #0]
 407 019a 40F20003 		movw	r3, #:lower16:tcp_tmp_pcb
 408 019e C0F20003 		movt	r3, #:upper16:tcp_tmp_pcb
 409 01a2 1A60     		str	r2, [r3, #0]
 410 01a4 1CE0     		b	.L24
 411              	.L26:
 412              		.loc 1 177 0 discriminator 7
 413 01a6 40F20003 		movw	r3, #:lower16:tcp_tmp_pcb
 414 01aa C0F20003 		movt	r3, #:upper16:tcp_tmp_pcb
 415 01ae 1B68     		ldr	r3, [r3, #0]
 416 01b0 DA68     		ldr	r2, [r3, #12]
 417 01b2 039B     		ldr	r3, [sp, #12]
 418 01b4 9A42     		cmp	r2, r3
 419 01b6 08D1     		bne	.L25
 420              		.loc 1 177 0 discriminator 4
 421 01b8 40F20003 		movw	r3, #:lower16:tcp_tmp_pcb
 422 01bc C0F20003 		movt	r3, #:upper16:tcp_tmp_pcb
 423 01c0 1B68     		ldr	r3, [r3, #0]
 424 01c2 039A     		ldr	r2, [sp, #12]
 425 01c4 D268     		ldr	r2, [r2, #12]
 426 01c6 DA60     		str	r2, [r3, #12]
 427 01c8 11E0     		b	.L23
 428              	.L25:
 429              		.loc 1 177 0 discriminator 5
 430 01ca 40F20003 		movw	r3, #:lower16:tcp_tmp_pcb
 431 01ce C0F20003 		movt	r3, #:upper16:tcp_tmp_pcb
 432 01d2 1B68     		ldr	r3, [r3, #0]
 433 01d4 DA68     		ldr	r2, [r3, #12]
 434 01d6 40F20003 		movw	r3, #:lower16:tcp_tmp_pcb
 435 01da C0F20003 		movt	r3, #:upper16:tcp_tmp_pcb
 436 01de 1A60     		str	r2, [r3, #0]
ARM GAS  /tmp/ccgFJ4Zb.s 			page 9


 437              	.L24:
 438              		.loc 1 177 0 discriminator 3
 439 01e0 40F20003 		movw	r3, #:lower16:tcp_tmp_pcb
 440 01e4 C0F20003 		movt	r3, #:upper16:tcp_tmp_pcb
 441 01e8 1B68     		ldr	r3, [r3, #0]
 442 01ea 002B     		cmp	r3, #0
 443 01ec DBD1     		bne	.L26
 444              	.L23:
 445              		.loc 1 177 0 discriminator 6
 446 01ee 039B     		ldr	r3, [sp, #12]
 447 01f0 4FF00002 		mov	r2, #0
 448 01f4 DA60     		str	r2, [r3, #12]
 449              	.L21:
 450              		.loc 1 179 0 is_stmt 1
 451 01f6 4FF00200 		mov	r0, #2
 452 01fa 0399     		ldr	r1, [sp, #12]
 453 01fc FFF7FEFF 		bl	memp_free
 454              		.loc 1 180 0
 455 0200 4FF00003 		mov	r3, #0
 456 0204 0393     		str	r3, [sp, #12]
 457              		.loc 1 181 0
 458 0206 61E0     		b	.L27
 459              	.L15:
 460              		.loc 1 183 0
 461 0208 4FF00003 		mov	r3, #0
 462 020c 8DF81730 		strb	r3, [sp, #23]
 463              		.loc 1 184 0
 464 0210 40F20000 		movw	r0, #:lower16:tcp_listen_pcbs
 465 0214 C0F20000 		movt	r0, #:upper16:tcp_listen_pcbs
 466 0218 0399     		ldr	r1, [sp, #12]
 467 021a FFF7FEFF 		bl	tcp_pcb_remove
 468              		.loc 1 185 0
 469 021e 4FF00300 		mov	r0, #3
 470 0222 0399     		ldr	r1, [sp, #12]
 471 0224 FFF7FEFF 		bl	memp_free
 472              		.loc 1 186 0
 473 0228 4FF00003 		mov	r3, #0
 474 022c 0393     		str	r3, [sp, #12]
 475              		.loc 1 187 0
 476 022e 4DE0     		b	.L27
 477              	.L16:
 478              		.loc 1 189 0
 479 0230 4FF00003 		mov	r3, #0
 480 0234 8DF81730 		strb	r3, [sp, #23]
 481              		.loc 1 190 0
 482 0238 40F20000 		movw	r0, #:lower16:tcp_active_pcbs
 483 023c C0F20000 		movt	r0, #:upper16:tcp_active_pcbs
 484 0240 0399     		ldr	r1, [sp, #12]
 485 0242 FFF7FEFF 		bl	tcp_pcb_remove
 486              		.loc 1 191 0
 487 0246 4FF00200 		mov	r0, #2
 488 024a 0399     		ldr	r1, [sp, #12]
 489 024c FFF7FEFF 		bl	memp_free
 490              		.loc 1 192 0
 491 0250 4FF00003 		mov	r3, #0
 492 0254 0393     		str	r3, [sp, #12]
 493              		.loc 1 194 0
ARM GAS  /tmp/ccgFJ4Zb.s 			page 10


 494 0256 39E0     		b	.L27
 495              	.L17:
 496              		.loc 1 196 0
 497 0258 0398     		ldr	r0, [sp, #12]
 498 025a FFF7FEFF 		bl	tcp_send_fin
 499 025e 0346     		mov	r3, r0
 500 0260 8DF81730 		strb	r3, [sp, #23]
 501              		.loc 1 197 0
 502 0264 9DF91730 		ldrsb	r3, [sp, #23]
 503 0268 002B     		cmp	r3, #0
 504 026a 2AD1     		bne	.L32
 505              		.loc 1 199 0
 506 026c 039B     		ldr	r3, [sp, #12]
 507 026e 4FF00502 		mov	r2, #5
 508 0272 1A74     		strb	r2, [r3, #16]
 509              		.loc 1 201 0
 510 0274 25E0     		b	.L32
 511              	.L18:
 512              		.loc 1 203 0
 513 0276 0398     		ldr	r0, [sp, #12]
 514 0278 FFF7FEFF 		bl	tcp_send_fin
 515 027c 0346     		mov	r3, r0
 516 027e 8DF81730 		strb	r3, [sp, #23]
 517              		.loc 1 204 0
 518 0282 9DF91730 		ldrsb	r3, [sp, #23]
 519 0286 002B     		cmp	r3, #0
 520 0288 1DD1     		bne	.L33
 521              		.loc 1 206 0
 522 028a 039B     		ldr	r3, [sp, #12]
 523 028c 4FF00502 		mov	r2, #5
 524 0290 1A74     		strb	r2, [r3, #16]
 525              		.loc 1 208 0
 526 0292 18E0     		b	.L33
 527              	.L19:
 528              		.loc 1 210 0
 529 0294 0398     		ldr	r0, [sp, #12]
 530 0296 FFF7FEFF 		bl	tcp_send_fin
 531 029a 0346     		mov	r3, r0
 532 029c 8DF81730 		strb	r3, [sp, #23]
 533              		.loc 1 211 0
 534 02a0 9DF91730 		ldrsb	r3, [sp, #23]
 535 02a4 002B     		cmp	r3, #0
 536 02a6 10D1     		bne	.L34
 537              		.loc 1 213 0
 538 02a8 039B     		ldr	r3, [sp, #12]
 539 02aa 4FF00902 		mov	r2, #9
 540 02ae 1A74     		strb	r2, [r3, #16]
 541              		.loc 1 215 0
 542 02b0 0BE0     		b	.L34
 543              	.L13:
 544              		.loc 1 218 0
 545 02b2 4FF00003 		mov	r3, #0
 546 02b6 8DF81730 		strb	r3, [sp, #23]
 547              		.loc 1 219 0
 548 02ba 4FF00003 		mov	r3, #0
 549 02be 0393     		str	r3, [sp, #12]
 550              		.loc 1 220 0
ARM GAS  /tmp/ccgFJ4Zb.s 			page 11


 551 02c0 04E0     		b	.L27
 552              	.L32:
 553              		.loc 1 201 0
 554 02c2 00BF     		nop
 555 02c4 02E0     		b	.L27
 556              	.L33:
 557              		.loc 1 208 0
 558 02c6 00BF     		nop
 559 02c8 00E0     		b	.L27
 560              	.L34:
 561              		.loc 1 215 0
 562 02ca 00BF     		nop
 563              	.L27:
 564              		.loc 1 223 0
 565 02cc 039B     		ldr	r3, [sp, #12]
 566 02ce 002B     		cmp	r3, #0
 567 02d0 06D0     		beq	.L31
 568              		.loc 1 223 0 is_stmt 0 discriminator 1
 569 02d2 9DF91730 		ldrsb	r3, [sp, #23]
 570 02d6 002B     		cmp	r3, #0
 571 02d8 02D1     		bne	.L31
 572              		.loc 1 232 0 is_stmt 1
 573 02da 0398     		ldr	r0, [sp, #12]
 574 02dc FFF7FEFF 		bl	tcp_output
 575              	.L31:
 576              		.loc 1 234 0
 577 02e0 9DF81730 		ldrb	r3, [sp, #23]	@ zero_extendqisi2
 578              	.L12:
 579 02e4 5BB2     		sxtb	r3, r3
 580              		.loc 1 235 0
 581 02e6 1846     		mov	r0, r3
 582 02e8 07B0     		add	sp, sp, #28
 583 02ea 30BD     		pop	{r4, r5, pc}
 584              		.cfi_endproc
 585              	.LFE8:
 586              		.size	tcp_close_shutdown, .-tcp_close_shutdown
 587 02ec AFF30080 		.section	.text.tcp_close,"ax",%progbits
 588              		.align	2
 589              		.p2align 4,,15
 590              		.global	tcp_close
 591              		.thumb
 592              		.thumb_func
 593              		.type	tcp_close, %function
 594              	tcp_close:
 595              	.LFB9:
 596              		.loc 1 253 0
 597              		.cfi_startproc
 598              		@ args = 0, pretend = 0, frame = 8
 599              		@ frame_needed = 0, uses_anonymous_args = 0
 600 0000 00B5     		push	{lr}
 601              	.LCFI3:
 602              		.cfi_def_cfa_offset 4
 603              		.cfi_offset 14, -4
 604 0002 83B0     		sub	sp, sp, #12
 605              	.LCFI4:
 606              		.cfi_def_cfa_offset 16
 607 0004 0190     		str	r0, [sp, #4]
ARM GAS  /tmp/ccgFJ4Zb.s 			page 12


 608              		.loc 1 259 0
 609 0006 019B     		ldr	r3, [sp, #4]
 610 0008 1B7C     		ldrb	r3, [r3, #16]	@ zero_extendqisi2
 611 000a 012B     		cmp	r3, #1
 612 000c 08D0     		beq	.L36
 613              		.loc 1 261 0
 614 000e 019B     		ldr	r3, [sp, #4]
 615 0010 93F82030 		ldrb	r3, [r3, #32]	@ zero_extendqisi2
 616 0014 43F01003 		orr	r3, r3, #16
 617 0018 DAB2     		uxtb	r2, r3
 618 001a 019B     		ldr	r3, [sp, #4]
 619 001c 83F82020 		strb	r2, [r3, #32]
 620              	.L36:
 621              		.loc 1 264 0
 622 0020 0198     		ldr	r0, [sp, #4]
 623 0022 4FF00101 		mov	r1, #1
 624 0026 FFF7FEFF 		bl	tcp_close_shutdown
 625 002a 0346     		mov	r3, r0
 626              		.loc 1 265 0
 627 002c 1846     		mov	r0, r3
 628 002e 03B0     		add	sp, sp, #12
 629 0030 00BD     		pop	{pc}
 630              		.cfi_endproc
 631              	.LFE9:
 632              		.size	tcp_close, .-tcp_close
 633 0032 00BFAFF3 		.section	.text.tcp_shutdown,"ax",%progbits
 633      0080AFF3 
 633      0080AFF3 
 633      0080
 634              		.align	2
 635              		.p2align 4,,15
 636              		.global	tcp_shutdown
 637              		.thumb
 638              		.thumb_func
 639              		.type	tcp_shutdown, %function
 640              	tcp_shutdown:
 641              	.LFB10:
 642              		.loc 1 279 0
 643              		.cfi_startproc
 644              		@ args = 0, pretend = 0, frame = 16
 645              		@ frame_needed = 0, uses_anonymous_args = 0
 646 0000 00B5     		push	{lr}
 647              	.LCFI5:
 648              		.cfi_def_cfa_offset 4
 649              		.cfi_offset 14, -4
 650 0002 85B0     		sub	sp, sp, #20
 651              	.LCFI6:
 652              		.cfi_def_cfa_offset 24
 653 0004 0390     		str	r0, [sp, #12]
 654 0006 0291     		str	r1, [sp, #8]
 655 0008 0192     		str	r2, [sp, #4]
 656              		.loc 1 280 0
 657 000a 039B     		ldr	r3, [sp, #12]
 658 000c 1B7C     		ldrb	r3, [r3, #16]	@ zero_extendqisi2
 659 000e 012B     		cmp	r3, #1
 660 0010 02D1     		bne	.L38
 661              		.loc 1 281 0
ARM GAS  /tmp/ccgFJ4Zb.s 			page 13


 662 0012 4FF0F303 		mov	r3, #243
 663 0016 34E0     		b	.L39
 664              	.L38:
 665              		.loc 1 283 0
 666 0018 029B     		ldr	r3, [sp, #8]
 667 001a 002B     		cmp	r3, #0
 668 001c 18D0     		beq	.L40
 669              		.loc 1 285 0
 670 001e 039B     		ldr	r3, [sp, #12]
 671 0020 D3F88030 		ldr	r3, [r3, #128]
 672 0024 002B     		cmp	r3, #0
 673 0026 0AD0     		beq	.L41
 674              		.loc 1 286 0
 675 0028 039B     		ldr	r3, [sp, #12]
 676 002a D3F88030 		ldr	r3, [r3, #128]
 677 002e 1846     		mov	r0, r3
 678 0030 FFF7FEFF 		bl	pbuf_free
 679              		.loc 1 287 0
 680 0034 039B     		ldr	r3, [sp, #12]
 681 0036 4FF00002 		mov	r2, #0
 682 003a C3F88020 		str	r2, [r3, #128]
 683              	.L41:
 684              		.loc 1 290 0
 685 003e 039B     		ldr	r3, [sp, #12]
 686 0040 93F82030 		ldrb	r3, [r3, #32]	@ zero_extendqisi2
 687 0044 43F01003 		orr	r3, r3, #16
 688 0048 DAB2     		uxtb	r2, r3
 689 004a 039B     		ldr	r3, [sp, #12]
 690 004c 83F82020 		strb	r2, [r3, #32]
 691              	.L40:
 692              		.loc 1 292 0
 693 0050 019B     		ldr	r3, [sp, #4]
 694 0052 002B     		cmp	r3, #0
 695 0054 13D0     		beq	.L42
 696              		.loc 1 295 0
 697 0056 039B     		ldr	r3, [sp, #12]
 698 0058 1B7C     		ldrb	r3, [r3, #16]	@ zero_extendqisi2
 699 005a 072B     		cmp	r3, #7
 700 005c 0ED8     		bhi	.L46
 701 005e 4FF00102 		mov	r2, #1
 702 0062 02FA03F3 		lsl	r3, r2, r3
 703 0066 03F09803 		and	r3, r3, #152
 704 006a 002B     		cmp	r3, #0
 705 006c 06D0     		beq	.L45
 706              	.L44:
 707              		.loc 1 299 0
 708 006e 0398     		ldr	r0, [sp, #12]
 709 0070 4FF00001 		mov	r1, #0
 710 0074 FFF7FEFF 		bl	tcp_close_shutdown
 711 0078 0346     		mov	r3, r0
 712 007a 02E0     		b	.L39
 713              	.L45:
 714              	.L46:
 715              		.loc 1 302 0
 716 007c 00BF     		nop
 717              	.L42:
 718              		.loc 1 306 0
ARM GAS  /tmp/ccgFJ4Zb.s 			page 14


 719 007e 4FF00003 		mov	r3, #0
 720              	.L39:
 721 0082 5BB2     		sxtb	r3, r3
 722              		.loc 1 307 0
 723 0084 1846     		mov	r0, r3
 724 0086 05B0     		add	sp, sp, #20
 725 0088 00BD     		pop	{pc}
 726              		.cfi_endproc
 727              	.LFE10:
 728              		.size	tcp_shutdown, .-tcp_shutdown
 729 008a 00BFAFF3 		.section	.text.tcp_abandon,"ax",%progbits
 729      0080
 730              		.align	2
 731              		.p2align 4,,15
 732              		.global	tcp_abandon
 733              		.thumb
 734              		.thumb_func
 735              		.type	tcp_abandon, %function
 736              	tcp_abandon:
 737              	.LFB11:
 738              		.loc 1 319 0
 739              		.cfi_startproc
 740              		@ args = 0, pretend = 0, frame = 40
 741              		@ frame_needed = 0, uses_anonymous_args = 0
 742 0000 00B5     		push	{lr}
 743              	.LCFI7:
 744              		.cfi_def_cfa_offset 4
 745              		.cfi_offset 14, -4
 746 0002 8DB0     		sub	sp, sp, #52
 747              	.LCFI8:
 748              		.cfi_def_cfa_offset 56
 749 0004 0390     		str	r0, [sp, #12]
 750 0006 0291     		str	r1, [sp, #8]
 751              		.loc 1 329 0
 752 0008 039B     		ldr	r3, [sp, #12]
 753 000a 1B7C     		ldrb	r3, [r3, #16]	@ zero_extendqisi2
 754 000c 012B     		cmp	r3, #1
 755 000e 01D1     		bne	.L48
 756              		.loc 1 329 0 is_stmt 0 discriminator 1
 757 0010 FFF7FEFF 		bl	port_halt
 758              	.L48:
 759              		.loc 1 334 0 is_stmt 1
 760 0014 039B     		ldr	r3, [sp, #12]
 761 0016 1B7C     		ldrb	r3, [r3, #16]	@ zero_extendqisi2
 762 0018 0A2B     		cmp	r3, #10
 763 001a 0CD1     		bne	.L49
 764              		.loc 1 335 0
 765 001c 40F20000 		movw	r0, #:lower16:tcp_tw_pcbs
 766 0020 C0F20000 		movt	r0, #:upper16:tcp_tw_pcbs
 767 0024 0399     		ldr	r1, [sp, #12]
 768 0026 FFF7FEFF 		bl	tcp_pcb_remove
 769              		.loc 1 336 0
 770 002a 4FF00200 		mov	r0, #2
 771 002e 0399     		ldr	r1, [sp, #12]
 772 0030 FFF7FEFF 		bl	memp_free
 773 0034 58E0     		b	.L47
 774              	.L49:
ARM GAS  /tmp/ccgFJ4Zb.s 			page 15


 775              		.loc 1 338 0
 776 0036 039B     		ldr	r3, [sp, #12]
 777 0038 9B6D     		ldr	r3, [r3, #88]
 778 003a 0B93     		str	r3, [sp, #44]
 779              		.loc 1 339 0
 780 003c 039B     		ldr	r3, [sp, #12]
 781 003e 5B6A     		ldr	r3, [r3, #36]
 782 0040 0A93     		str	r3, [sp, #40]
 783              		.loc 1 340 0
 784 0042 039B     		ldr	r3, [sp, #12]
 785 0044 1B68     		ldr	r3, [r3, #0]
 786 0046 0593     		str	r3, [sp, #20]
 787              		.loc 1 341 0
 788 0048 039B     		ldr	r3, [sp, #12]
 789 004a 5B68     		ldr	r3, [r3, #4]
 790 004c 0693     		str	r3, [sp, #24]
 791              		.loc 1 342 0
 792 004e 039B     		ldr	r3, [sp, #12]
 793 0050 9B8B     		ldrh	r3, [r3, #28]	@ movhi
 794 0052 ADF82630 		strh	r3, [sp, #38]	@ movhi
 795              		.loc 1 343 0
 796 0056 039B     		ldr	r3, [sp, #12]
 797 0058 DB8B     		ldrh	r3, [r3, #30]	@ movhi
 798 005a ADF82430 		strh	r3, [sp, #36]	@ movhi
 799              		.loc 1 345 0
 800 005e 039B     		ldr	r3, [sp, #12]
 801 0060 D3F89430 		ldr	r3, [r3, #148]
 802 0064 0893     		str	r3, [sp, #32]
 803              		.loc 1 347 0
 804 0066 039B     		ldr	r3, [sp, #12]
 805 0068 5B69     		ldr	r3, [r3, #20]
 806 006a 0793     		str	r3, [sp, #28]
 807              		.loc 1 348 0
 808 006c 40F20000 		movw	r0, #:lower16:tcp_active_pcbs
 809 0070 C0F20000 		movt	r0, #:upper16:tcp_active_pcbs
 810 0074 0399     		ldr	r1, [sp, #12]
 811 0076 FFF7FEFF 		bl	tcp_pcb_remove
 812              		.loc 1 349 0
 813 007a 039B     		ldr	r3, [sp, #12]
 814 007c 9B6F     		ldr	r3, [r3, #120]
 815 007e 002B     		cmp	r3, #0
 816 0080 04D0     		beq	.L51
 817              		.loc 1 350 0
 818 0082 039B     		ldr	r3, [sp, #12]
 819 0084 9B6F     		ldr	r3, [r3, #120]
 820 0086 1846     		mov	r0, r3
 821 0088 FFF7FEFF 		bl	tcp_segs_free
 822              	.L51:
 823              		.loc 1 352 0
 824 008c 039B     		ldr	r3, [sp, #12]
 825 008e 5B6F     		ldr	r3, [r3, #116]
 826 0090 002B     		cmp	r3, #0
 827 0092 04D0     		beq	.L52
 828              		.loc 1 353 0
 829 0094 039B     		ldr	r3, [sp, #12]
 830 0096 5B6F     		ldr	r3, [r3, #116]
 831 0098 1846     		mov	r0, r3
ARM GAS  /tmp/ccgFJ4Zb.s 			page 16


 832 009a FFF7FEFF 		bl	tcp_segs_free
 833              	.L52:
 834              		.loc 1 356 0
 835 009e 039B     		ldr	r3, [sp, #12]
 836 00a0 DB6F     		ldr	r3, [r3, #124]
 837 00a2 002B     		cmp	r3, #0
 838 00a4 04D0     		beq	.L53
 839              		.loc 1 357 0
 840 00a6 039B     		ldr	r3, [sp, #12]
 841 00a8 DB6F     		ldr	r3, [r3, #124]
 842 00aa 1846     		mov	r0, r3
 843 00ac FFF7FEFF 		bl	tcp_segs_free
 844              	.L53:
 845              		.loc 1 360 0
 846 00b0 4FF00200 		mov	r0, #2
 847 00b4 0399     		ldr	r1, [sp, #12]
 848 00b6 FFF7FEFF 		bl	memp_free
 849              		.loc 1 361 0
 850 00ba 089B     		ldr	r3, [sp, #32]
 851 00bc 002B     		cmp	r3, #0
 852 00be 04D0     		beq	.L54
 853              		.loc 1 361 0 is_stmt 0 discriminator 1
 854 00c0 089B     		ldr	r3, [sp, #32]
 855 00c2 0798     		ldr	r0, [sp, #28]
 856 00c4 6FF00901 		mvn	r1, #9
 857 00c8 9847     		blx	r3
 858              	.L54:
 859              		.loc 1 362 0 is_stmt 1
 860 00ca 029B     		ldr	r3, [sp, #8]
 861 00cc 002B     		cmp	r3, #0
 862 00ce 0BD0     		beq	.L47
 863              		.loc 1 364 0
 864 00d0 05AA     		add	r2, sp, #20
 865 00d2 06AB     		add	r3, sp, #24
 866 00d4 BDF82610 		ldrh	r1, [sp, #38]
 867 00d8 0091     		str	r1, [sp, #0]
 868 00da BDF82410 		ldrh	r1, [sp, #36]
 869 00de 0191     		str	r1, [sp, #4]
 870 00e0 0B98     		ldr	r0, [sp, #44]
 871 00e2 0A99     		ldr	r1, [sp, #40]
 872 00e4 FFF7FEFF 		bl	tcp_rst
 873              	.L47:
 874              		.loc 1 367 0
 875 00e8 0DB0     		add	sp, sp, #52
 876 00ea 00BD     		pop	{pc}
 877              		.cfi_endproc
 878              	.LFE11:
 879              		.size	tcp_abandon, .-tcp_abandon
 880 00ec AFF30080 		.section	.text.tcp_abort,"ax",%progbits
 881              		.align	2
 882              		.p2align 4,,15
 883              		.global	tcp_abort
 884              		.thumb
 885              		.thumb_func
 886              		.type	tcp_abort, %function
 887              	tcp_abort:
 888              	.LFB12:
ARM GAS  /tmp/ccgFJ4Zb.s 			page 17


 889              		.loc 1 381 0
 890              		.cfi_startproc
 891              		@ args = 0, pretend = 0, frame = 8
 892              		@ frame_needed = 0, uses_anonymous_args = 0
 893 0000 00B5     		push	{lr}
 894              	.LCFI9:
 895              		.cfi_def_cfa_offset 4
 896              		.cfi_offset 14, -4
 897 0002 83B0     		sub	sp, sp, #12
 898              	.LCFI10:
 899              		.cfi_def_cfa_offset 16
 900 0004 0190     		str	r0, [sp, #4]
 901              		.loc 1 382 0
 902 0006 0198     		ldr	r0, [sp, #4]
 903 0008 4FF00101 		mov	r1, #1
 904 000c FFF7FEFF 		bl	tcp_abandon
 905              		.loc 1 383 0
 906 0010 03B0     		add	sp, sp, #12
 907 0012 00BD     		pop	{pc}
 908              		.cfi_endproc
 909              	.LFE12:
 910              		.size	tcp_abort, .-tcp_abort
 911 0014 AFF30080 		.section	.text.tcp_bind,"ax",%progbits
 911      AFF30080 
 911      AFF30080 
 912              		.align	2
 913              		.p2align 4,,15
 914              		.global	tcp_bind
 915              		.thumb
 916              		.thumb_func
 917              		.type	tcp_bind, %function
 918              	tcp_bind:
 919              	.LFB13:
 920              		.loc 1 401 0
 921              		.cfi_startproc
 922              		@ args = 0, pretend = 0, frame = 32
 923              		@ frame_needed = 0, uses_anonymous_args = 0
 924 0000 00B5     		push	{lr}
 925              	.LCFI11:
 926              		.cfi_def_cfa_offset 4
 927              		.cfi_offset 14, -4
 928 0002 89B0     		sub	sp, sp, #36
 929              	.LCFI12:
 930              		.cfi_def_cfa_offset 40
 931 0004 0390     		str	r0, [sp, #12]
 932 0006 0291     		str	r1, [sp, #8]
 933 0008 1346     		mov	r3, r2
 934 000a ADF80630 		strh	r3, [sp, #6]	@ movhi
 935              		.loc 1 403 0
 936 000e 4FF00403 		mov	r3, #4
 937 0012 0593     		str	r3, [sp, #20]
 938              		.loc 1 406 0
 939 0014 039B     		ldr	r3, [sp, #12]
 940 0016 1B7C     		ldrb	r3, [r3, #16]	@ zero_extendqisi2
 941 0018 002B     		cmp	r3, #0
 942 001a 04D0     		beq	.L57
 943              		.loc 1 406 0 is_stmt 0 discriminator 1
ARM GAS  /tmp/ccgFJ4Zb.s 			page 18


 944 001c FFF7FEFF 		bl	port_halt
 945 0020 4FF0FA03 		mov	r3, #250
 946 0024 61E0     		b	.L58
 947              	.L57:
 948              		.loc 1 419 0 is_stmt 1
 949 0026 BDF80630 		ldrh	r3, [sp, #6]
 950 002a 002B     		cmp	r3, #0
 951 002c 04D1     		bne	.L59
 952              		.loc 1 420 0
 953 002e FFF7FEFF 		bl	tcp_new_port
 954 0032 0346     		mov	r3, r0
 955 0034 ADF80630 		strh	r3, [sp, #6]	@ movhi
 956              	.L59:
 957              		.loc 1 424 0
 958 0038 4FF00003 		mov	r3, #0
 959 003c 0793     		str	r3, [sp, #28]
 960 003e 30E0     		b	.L60
 961              	.L65:
 962              		.loc 1 425 0
 963 0040 40F20003 		movw	r3, #:lower16:tcp_pcb_lists
 964 0044 C0F20003 		movt	r3, #:upper16:tcp_pcb_lists
 965 0048 079A     		ldr	r2, [sp, #28]
 966 004a 53F82230 		ldr	r3, [r3, r2, lsl #2]
 967 004e 1B68     		ldr	r3, [r3, #0]
 968 0050 0693     		str	r3, [sp, #24]
 969 0052 1FE0     		b	.L61
 970              	.L64:
 971              		.loc 1 426 0
 972 0054 069B     		ldr	r3, [sp, #24]
 973 0056 9B8B     		ldrh	r3, [r3, #28]
 974 0058 BDF80620 		ldrh	r2, [sp, #6]
 975 005c 9A42     		cmp	r2, r3
 976 005e 16D1     		bne	.L62
 977              		.loc 1 435 0
 978 0060 069B     		ldr	r3, [sp, #24]
 979 0062 002B     		cmp	r3, #0
 980 0064 10D0     		beq	.L63
 981              		.loc 1 435 0 is_stmt 0 discriminator 1
 982 0066 069B     		ldr	r3, [sp, #24]
 983 0068 1B68     		ldr	r3, [r3, #0]
 984 006a 002B     		cmp	r3, #0
 985 006c 0CD0     		beq	.L63
 986 006e 029B     		ldr	r3, [sp, #8]
 987 0070 002B     		cmp	r3, #0
 988 0072 09D0     		beq	.L63
 989              		.loc 1 436 0 is_stmt 1
 990 0074 029B     		ldr	r3, [sp, #8]
 991 0076 1B68     		ldr	r3, [r3, #0]
 992 0078 002B     		cmp	r3, #0
 993 007a 05D0     		beq	.L63
 994              		.loc 1 437 0 discriminator 1
 995 007c 069B     		ldr	r3, [sp, #24]
 996 007e 1A68     		ldr	r2, [r3, #0]
 997 0080 029B     		ldr	r3, [sp, #8]
 998 0082 1B68     		ldr	r3, [r3, #0]
 999              		.loc 1 436 0 discriminator 1
 1000 0084 9A42     		cmp	r2, r3
ARM GAS  /tmp/ccgFJ4Zb.s 			page 19


 1001 0086 02D1     		bne	.L62
 1002              	.L63:
 1003              		.loc 1 438 0
 1004 0088 4FF0F803 		mov	r3, #248
 1005 008c 2DE0     		b	.L58
 1006              	.L62:
 1007              		.loc 1 425 0
 1008 008e 069B     		ldr	r3, [sp, #24]
 1009 0090 DB68     		ldr	r3, [r3, #12]
 1010 0092 0693     		str	r3, [sp, #24]
 1011              	.L61:
 1012              		.loc 1 425 0 is_stmt 0 discriminator 1
 1013 0094 069B     		ldr	r3, [sp, #24]
 1014 0096 002B     		cmp	r3, #0
 1015 0098 DCD1     		bne	.L64
 1016              		.loc 1 424 0 is_stmt 1
 1017 009a 079B     		ldr	r3, [sp, #28]
 1018 009c 03F10103 		add	r3, r3, #1
 1019 00a0 0793     		str	r3, [sp, #28]
 1020              	.L60:
 1021              		.loc 1 424 0 is_stmt 0 discriminator 1
 1022 00a2 079A     		ldr	r2, [sp, #28]
 1023 00a4 059B     		ldr	r3, [sp, #20]
 1024 00a6 9A42     		cmp	r2, r3
 1025 00a8 CADB     		blt	.L65
 1026              		.loc 1 445 0 is_stmt 1
 1027 00aa 029B     		ldr	r3, [sp, #8]
 1028 00ac 002B     		cmp	r3, #0
 1029 00ae 07D0     		beq	.L66
 1030              		.loc 1 445 0 is_stmt 0 discriminator 1
 1031 00b0 029B     		ldr	r3, [sp, #8]
 1032 00b2 1B68     		ldr	r3, [r3, #0]
 1033 00b4 002B     		cmp	r3, #0
 1034 00b6 03D0     		beq	.L66
 1035              		.loc 1 446 0 is_stmt 1
 1036 00b8 039B     		ldr	r3, [sp, #12]
 1037 00ba 029A     		ldr	r2, [sp, #8]
 1038 00bc 1268     		ldr	r2, [r2, #0]
 1039 00be 1A60     		str	r2, [r3, #0]
 1040              	.L66:
 1041              		.loc 1 448 0
 1042 00c0 039B     		ldr	r3, [sp, #12]
 1043 00c2 BDF80620 		ldrh	r2, [sp, #6]	@ movhi
 1044 00c6 9A83     		strh	r2, [r3, #28]	@ movhi
 1045              		.loc 1 449 0
 1046 00c8 40F20003 		movw	r3, #:lower16:tcp_bound_pcbs
 1047 00cc C0F20003 		movt	r3, #:upper16:tcp_bound_pcbs
 1048 00d0 1A68     		ldr	r2, [r3, #0]
 1049 00d2 039B     		ldr	r3, [sp, #12]
 1050 00d4 DA60     		str	r2, [r3, #12]
 1051 00d6 40F20003 		movw	r3, #:lower16:tcp_bound_pcbs
 1052 00da C0F20003 		movt	r3, #:upper16:tcp_bound_pcbs
 1053 00de 039A     		ldr	r2, [sp, #12]
 1054 00e0 1A60     		str	r2, [r3, #0]
 1055 00e2 FFF7FEFF 		bl	tcp_timer_needed
 1056              		.loc 1 451 0
 1057 00e6 4FF00003 		mov	r3, #0
ARM GAS  /tmp/ccgFJ4Zb.s 			page 20


 1058              	.L58:
 1059 00ea 5BB2     		sxtb	r3, r3
 1060              		.loc 1 452 0
 1061 00ec 1846     		mov	r0, r3
 1062 00ee 09B0     		add	sp, sp, #36
 1063 00f0 00BD     		pop	{pc}
 1064              		.cfi_endproc
 1065              	.LFE13:
 1066              		.size	tcp_bind, .-tcp_bind
 1067 00f2 00BFAFF3 		.section	.text.tcp_accept_null,"ax",%progbits
 1067      0080AFF3 
 1067      0080AFF3 
 1067      0080
 1068              		.align	2
 1069              		.p2align 4,,15
 1070              		.thumb
 1071              		.thumb_func
 1072              		.type	tcp_accept_null, %function
 1073              	tcp_accept_null:
 1074              	.LFB14:
 1075              		.loc 1 459 0
 1076              		.cfi_startproc
 1077              		@ args = 0, pretend = 0, frame = 16
 1078              		@ frame_needed = 0, uses_anonymous_args = 0
 1079              		@ link register save eliminated.
 1080 0000 84B0     		sub	sp, sp, #16
 1081              	.LCFI13:
 1082              		.cfi_def_cfa_offset 16
 1083 0002 0390     		str	r0, [sp, #12]
 1084 0004 0291     		str	r1, [sp, #8]
 1085 0006 1346     		mov	r3, r2
 1086 0008 8DF80730 		strb	r3, [sp, #7]
 1087              		.loc 1 464 0
 1088 000c 4FF0F603 		mov	r3, #246
 1089 0010 5BB2     		sxtb	r3, r3
 1090              		.loc 1 465 0
 1091 0012 1846     		mov	r0, r3
 1092 0014 04B0     		add	sp, sp, #16
 1093 0016 7047     		bx	lr
 1094              		.cfi_endproc
 1095              	.LFE14:
 1096              		.size	tcp_accept_null, .-tcp_accept_null
 1097 0018 AFF30080 		.section	.text.tcp_listen_with_backlog,"ax",%progbits
 1097      AFF30080 
 1098              		.align	2
 1099              		.p2align 4,,15
 1100              		.global	tcp_listen_with_backlog
 1101              		.thumb
 1102              		.thumb_func
 1103              		.type	tcp_listen_with_backlog, %function
 1104              	tcp_listen_with_backlog:
 1105              	.LFB15:
 1106              		.loc 1 484 0
 1107              		.cfi_startproc
 1108              		@ args = 0, pretend = 0, frame = 16
 1109              		@ frame_needed = 0, uses_anonymous_args = 0
 1110 0000 00B5     		push	{lr}
ARM GAS  /tmp/ccgFJ4Zb.s 			page 21


 1111              	.LCFI14:
 1112              		.cfi_def_cfa_offset 4
 1113              		.cfi_offset 14, -4
 1114 0002 85B0     		sub	sp, sp, #20
 1115              	.LCFI15:
 1116              		.cfi_def_cfa_offset 24
 1117 0004 0190     		str	r0, [sp, #4]
 1118 0006 0B46     		mov	r3, r1
 1119 0008 8DF80330 		strb	r3, [sp, #3]
 1120              		.loc 1 488 0
 1121 000c 019B     		ldr	r3, [sp, #4]
 1122 000e 1B7C     		ldrb	r3, [r3, #16]	@ zero_extendqisi2
 1123 0010 002B     		cmp	r3, #0
 1124 0012 04D0     		beq	.L69
 1125              		.loc 1 488 0 is_stmt 0 discriminator 1
 1126 0014 FFF7FEFF 		bl	port_halt
 1127 0018 4FF00003 		mov	r3, #0
 1128 001c 9EE0     		b	.L70
 1129              	.L69:
 1130              		.loc 1 491 0 is_stmt 1
 1131 001e 019B     		ldr	r3, [sp, #4]
 1132 0020 1B7C     		ldrb	r3, [r3, #16]	@ zero_extendqisi2
 1133 0022 012B     		cmp	r3, #1
 1134 0024 01D1     		bne	.L71
 1135              		.loc 1 492 0
 1136 0026 019B     		ldr	r3, [sp, #4]
 1137 0028 98E0     		b	.L70
 1138              	.L71:
 1139              		.loc 1 509 0
 1140 002a 4FF00300 		mov	r0, #3
 1141 002e FFF7FEFF 		bl	memp_malloc
 1142 0032 0346     		mov	r3, r0
 1143 0034 0393     		str	r3, [sp, #12]
 1144              		.loc 1 510 0
 1145 0036 039B     		ldr	r3, [sp, #12]
 1146 0038 002B     		cmp	r3, #0
 1147 003a 02D1     		bne	.L72
 1148              		.loc 1 511 0
 1149 003c 4FF00003 		mov	r3, #0
 1150 0040 8CE0     		b	.L70
 1151              	.L72:
 1152              		.loc 1 513 0
 1153 0042 019B     		ldr	r3, [sp, #4]
 1154 0044 5A69     		ldr	r2, [r3, #20]
 1155 0046 039B     		ldr	r3, [sp, #12]
 1156 0048 5A61     		str	r2, [r3, #20]
 1157              		.loc 1 514 0
 1158 004a 019B     		ldr	r3, [sp, #4]
 1159 004c 9A8B     		ldrh	r2, [r3, #28]
 1160 004e 039B     		ldr	r3, [sp, #12]
 1161 0050 9A83     		strh	r2, [r3, #28]	@ movhi
 1162              		.loc 1 515 0
 1163 0052 039B     		ldr	r3, [sp, #12]
 1164 0054 4FF00102 		mov	r2, #1
 1165 0058 1A74     		strb	r2, [r3, #16]
 1166              		.loc 1 516 0
 1167 005a 019B     		ldr	r3, [sp, #4]
ARM GAS  /tmp/ccgFJ4Zb.s 			page 22


 1168 005c 5A7C     		ldrb	r2, [r3, #17]	@ zero_extendqisi2
 1169 005e 039B     		ldr	r3, [sp, #12]
 1170 0060 5A74     		strb	r2, [r3, #17]
 1171              		.loc 1 517 0
 1172 0062 019B     		ldr	r3, [sp, #4]
 1173 0064 1A7A     		ldrb	r2, [r3, #8]	@ zero_extendqisi2
 1174 0066 039B     		ldr	r3, [sp, #12]
 1175 0068 1A72     		strb	r2, [r3, #8]
 1176              		.loc 1 518 0
 1177 006a 039B     		ldr	r3, [sp, #12]
 1178 006c 1B7A     		ldrb	r3, [r3, #8]	@ zero_extendqisi2
 1179 006e 43F00203 		orr	r3, r3, #2
 1180 0072 DAB2     		uxtb	r2, r3
 1181 0074 039B     		ldr	r3, [sp, #12]
 1182 0076 1A72     		strb	r2, [r3, #8]
 1183              		.loc 1 519 0
 1184 0078 019B     		ldr	r3, [sp, #4]
 1185 007a 9A7A     		ldrb	r2, [r3, #10]	@ zero_extendqisi2
 1186 007c 039B     		ldr	r3, [sp, #12]
 1187 007e 9A72     		strb	r2, [r3, #10]
 1188              		.loc 1 520 0
 1189 0080 019B     		ldr	r3, [sp, #4]
 1190 0082 5A7A     		ldrb	r2, [r3, #9]	@ zero_extendqisi2
 1191 0084 039B     		ldr	r3, [sp, #12]
 1192 0086 5A72     		strb	r2, [r3, #9]
 1193              		.loc 1 521 0
 1194 0088 019B     		ldr	r3, [sp, #4]
 1195 008a 1A68     		ldr	r2, [r3, #0]
 1196 008c 039B     		ldr	r3, [sp, #12]
 1197 008e 1A60     		str	r2, [r3, #0]
 1198              		.loc 1 522 0
 1199 0090 019B     		ldr	r3, [sp, #4]
 1200 0092 9B8B     		ldrh	r3, [r3, #28]
 1201 0094 002B     		cmp	r3, #0
 1202 0096 46D0     		beq	.L73
 1203              		.loc 1 523 0
 1204 0098 40F20003 		movw	r3, #:lower16:tcp_bound_pcbs
 1205 009c C0F20003 		movt	r3, #:upper16:tcp_bound_pcbs
 1206 00a0 1A68     		ldr	r2, [r3, #0]
 1207 00a2 019B     		ldr	r3, [sp, #4]
 1208 00a4 9A42     		cmp	r2, r3
 1209 00a6 0BD1     		bne	.L74
 1210              		.loc 1 523 0 is_stmt 0 discriminator 1
 1211 00a8 40F20003 		movw	r3, #:lower16:tcp_bound_pcbs
 1212 00ac C0F20003 		movt	r3, #:upper16:tcp_bound_pcbs
 1213 00b0 1B68     		ldr	r3, [r3, #0]
 1214 00b2 DA68     		ldr	r2, [r3, #12]
 1215 00b4 40F20003 		movw	r3, #:lower16:tcp_bound_pcbs
 1216 00b8 C0F20003 		movt	r3, #:upper16:tcp_bound_pcbs
 1217 00bc 1A60     		str	r2, [r3, #0]
 1218 00be 2EE0     		b	.L75
 1219              	.L74:
 1220              		.loc 1 523 0 discriminator 2
 1221 00c0 40F20003 		movw	r3, #:lower16:tcp_bound_pcbs
 1222 00c4 C0F20003 		movt	r3, #:upper16:tcp_bound_pcbs
 1223 00c8 1A68     		ldr	r2, [r3, #0]
 1224 00ca 40F20003 		movw	r3, #:lower16:tcp_tmp_pcb
ARM GAS  /tmp/ccgFJ4Zb.s 			page 23


 1225 00ce C0F20003 		movt	r3, #:upper16:tcp_tmp_pcb
 1226 00d2 1A60     		str	r2, [r3, #0]
 1227 00d4 1CE0     		b	.L76
 1228              	.L78:
 1229              		.loc 1 523 0 discriminator 7
 1230 00d6 40F20003 		movw	r3, #:lower16:tcp_tmp_pcb
 1231 00da C0F20003 		movt	r3, #:upper16:tcp_tmp_pcb
 1232 00de 1B68     		ldr	r3, [r3, #0]
 1233 00e0 DA68     		ldr	r2, [r3, #12]
 1234 00e2 019B     		ldr	r3, [sp, #4]
 1235 00e4 9A42     		cmp	r2, r3
 1236 00e6 08D1     		bne	.L77
 1237              		.loc 1 523 0 discriminator 4
 1238 00e8 40F20003 		movw	r3, #:lower16:tcp_tmp_pcb
 1239 00ec C0F20003 		movt	r3, #:upper16:tcp_tmp_pcb
 1240 00f0 1B68     		ldr	r3, [r3, #0]
 1241 00f2 019A     		ldr	r2, [sp, #4]
 1242 00f4 D268     		ldr	r2, [r2, #12]
 1243 00f6 DA60     		str	r2, [r3, #12]
 1244 00f8 11E0     		b	.L75
 1245              	.L77:
 1246              		.loc 1 523 0 discriminator 5
 1247 00fa 40F20003 		movw	r3, #:lower16:tcp_tmp_pcb
 1248 00fe C0F20003 		movt	r3, #:upper16:tcp_tmp_pcb
 1249 0102 1B68     		ldr	r3, [r3, #0]
 1250 0104 DA68     		ldr	r2, [r3, #12]
 1251 0106 40F20003 		movw	r3, #:lower16:tcp_tmp_pcb
 1252 010a C0F20003 		movt	r3, #:upper16:tcp_tmp_pcb
 1253 010e 1A60     		str	r2, [r3, #0]
 1254              	.L76:
 1255              		.loc 1 523 0 discriminator 3
 1256 0110 40F20003 		movw	r3, #:lower16:tcp_tmp_pcb
 1257 0114 C0F20003 		movt	r3, #:upper16:tcp_tmp_pcb
 1258 0118 1B68     		ldr	r3, [r3, #0]
 1259 011a 002B     		cmp	r3, #0
 1260 011c DBD1     		bne	.L78
 1261              	.L75:
 1262              		.loc 1 523 0 discriminator 6
 1263 011e 019B     		ldr	r3, [sp, #4]
 1264 0120 4FF00002 		mov	r2, #0
 1265 0124 DA60     		str	r2, [r3, #12]
 1266              	.L73:
 1267              		.loc 1 525 0 is_stmt 1
 1268 0126 4FF00200 		mov	r0, #2
 1269 012a 0199     		ldr	r1, [sp, #4]
 1270 012c FFF7FEFF 		bl	memp_free
 1271              		.loc 1 527 0
 1272 0130 039A     		ldr	r2, [sp, #12]
 1273 0132 40F20003 		movw	r3, #:lower16:tcp_accept_null
 1274 0136 C0F20003 		movt	r3, #:upper16:tcp_accept_null
 1275 013a 9361     		str	r3, [r2, #24]
 1276              		.loc 1 533 0
 1277 013c 40F20003 		movw	r3, #:lower16:tcp_listen_pcbs
 1278 0140 C0F20003 		movt	r3, #:upper16:tcp_listen_pcbs
 1279 0144 1A68     		ldr	r2, [r3, #0]
 1280 0146 039B     		ldr	r3, [sp, #12]
 1281 0148 DA60     		str	r2, [r3, #12]
ARM GAS  /tmp/ccgFJ4Zb.s 			page 24


 1282 014a 40F20003 		movw	r3, #:lower16:tcp_listen_pcbs
 1283 014e C0F20003 		movt	r3, #:upper16:tcp_listen_pcbs
 1284 0152 039A     		ldr	r2, [sp, #12]
 1285 0154 1A60     		str	r2, [r3, #0]
 1286 0156 FFF7FEFF 		bl	tcp_timer_needed
 1287              		.loc 1 534 0
 1288 015a 039B     		ldr	r3, [sp, #12]
 1289              	.L70:
 1290              		.loc 1 535 0
 1291 015c 1846     		mov	r0, r3
 1292 015e 05B0     		add	sp, sp, #20
 1293 0160 00BD     		pop	{pc}
 1294              		.cfi_endproc
 1295              	.LFE15:
 1296              		.size	tcp_listen_with_backlog, .-tcp_listen_with_backlog
 1297 0162 00BFAFF3 		.section	.text.tcp_update_rcv_ann_wnd,"ax",%progbits
 1297      0080AFF3 
 1297      0080AFF3 
 1297      0080
 1298              		.align	2
 1299              		.p2align 4,,15
 1300              		.global	tcp_update_rcv_ann_wnd
 1301              		.thumb
 1302              		.thumb_func
 1303              		.type	tcp_update_rcv_ann_wnd, %function
 1304              	tcp_update_rcv_ann_wnd:
 1305              	.LFB16:
 1306              		.loc 1 544 0
 1307              		.cfi_startproc
 1308              		@ args = 0, pretend = 0, frame = 16
 1309              		@ frame_needed = 0, uses_anonymous_args = 0
 1310 0000 00B5     		push	{lr}
 1311              	.LCFI16:
 1312              		.cfi_def_cfa_offset 4
 1313              		.cfi_offset 14, -4
 1314 0002 85B0     		sub	sp, sp, #20
 1315              	.LCFI17:
 1316              		.cfi_def_cfa_offset 24
 1317 0004 0190     		str	r0, [sp, #4]
 1318              		.loc 1 545 0
 1319 0006 019B     		ldr	r3, [sp, #4]
 1320 0008 5A6A     		ldr	r2, [r3, #36]
 1321 000a 019B     		ldr	r3, [sp, #4]
 1322 000c 1B8D     		ldrh	r3, [r3, #40]
 1323 000e D318     		adds	r3, r2, r3
 1324 0010 0393     		str	r3, [sp, #12]
 1325              		.loc 1 547 0
 1326 0012 019B     		ldr	r3, [sp, #4]
 1327 0014 DA6A     		ldr	r2, [r3, #44]
 1328 0016 019B     		ldr	r3, [sp, #4]
 1329 0018 1B8F     		ldrh	r3, [r3, #56]
 1330 001a B3F5866F 		cmp	r3, #1072
 1331 001e 02D8     		bhi	.L80
 1332              		.loc 1 547 0 is_stmt 0 discriminator 1
 1333 0020 019B     		ldr	r3, [sp, #4]
 1334 0022 1B8F     		ldrh	r3, [r3, #56]
 1335 0024 01E0     		b	.L81
ARM GAS  /tmp/ccgFJ4Zb.s 			page 25


 1336              	.L80:
 1337              		.loc 1 547 0 discriminator 2
 1338 0026 4FF48663 		mov	r3, #1072
 1339              	.L81:
 1340              		.loc 1 547 0 discriminator 3
 1341 002a D318     		adds	r3, r2, r3
 1342 002c 039A     		ldr	r2, [sp, #12]
 1343 002e D31A     		subs	r3, r2, r3
 1344 0030 002B     		cmp	r3, #0
 1345 0032 08DB     		blt	.L82
 1346              		.loc 1 549 0 is_stmt 1
 1347 0034 019B     		ldr	r3, [sp, #4]
 1348 0036 1A8D     		ldrh	r2, [r3, #40]
 1349 0038 019B     		ldr	r3, [sp, #4]
 1350 003a 5A85     		strh	r2, [r3, #42]	@ movhi
 1351              		.loc 1 550 0
 1352 003c 019B     		ldr	r3, [sp, #4]
 1353 003e DB6A     		ldr	r3, [r3, #44]
 1354 0040 039A     		ldr	r2, [sp, #12]
 1355 0042 D31A     		subs	r3, r2, r3
 1356 0044 1EE0     		b	.L83
 1357              	.L82:
 1358              		.loc 1 552 0
 1359 0046 019B     		ldr	r3, [sp, #4]
 1360 0048 5A6A     		ldr	r2, [r3, #36]
 1361 004a 019B     		ldr	r3, [sp, #4]
 1362 004c DB6A     		ldr	r3, [r3, #44]
 1363 004e D31A     		subs	r3, r2, r3
 1364 0050 002B     		cmp	r3, #0
 1365 0052 04DD     		ble	.L84
 1366              		.loc 1 555 0
 1367 0054 019B     		ldr	r3, [sp, #4]
 1368 0056 4FF00002 		mov	r2, #0
 1369 005a 5A85     		strh	r2, [r3, #42]	@ movhi
 1370 005c 10E0     		b	.L85
 1371              	.L84:
 1372              	.LBB2:
 1373              		.loc 1 558 0
 1374 005e 019B     		ldr	r3, [sp, #4]
 1375 0060 DA6A     		ldr	r2, [r3, #44]
 1376 0062 019B     		ldr	r3, [sp, #4]
 1377 0064 5B6A     		ldr	r3, [r3, #36]
 1378 0066 D31A     		subs	r3, r2, r3
 1379 0068 0293     		str	r3, [sp, #8]
 1380              		.loc 1 559 0
 1381 006a 029A     		ldr	r2, [sp, #8]
 1382 006c 4FF6FF73 		movw	r3, #65535
 1383 0070 9A42     		cmp	r2, r3
 1384 0072 01D9     		bls	.L86
 1385              		.loc 1 559 0 is_stmt 0 discriminator 1
 1386 0074 FFF7FEFF 		bl	port_halt
 1387              	.L86:
 1388              		.loc 1 560 0 is_stmt 1
 1389 0078 029B     		ldr	r3, [sp, #8]
 1390 007a 9AB2     		uxth	r2, r3
 1391 007c 019B     		ldr	r3, [sp, #4]
 1392 007e 5A85     		strh	r2, [r3, #42]	@ movhi
ARM GAS  /tmp/ccgFJ4Zb.s 			page 26


 1393              	.L85:
 1394              	.LBE2:
 1395              		.loc 1 562 0
 1396 0080 4FF00003 		mov	r3, #0
 1397              	.L83:
 1398              		.loc 1 564 0
 1399 0084 1846     		mov	r0, r3
 1400 0086 05B0     		add	sp, sp, #20
 1401 0088 00BD     		pop	{pc}
 1402              		.cfi_endproc
 1403              	.LFE16:
 1404              		.size	tcp_update_rcv_ann_wnd, .-tcp_update_rcv_ann_wnd
 1405 008a 00BFAFF3 		.section	.text.tcp_recved,"ax",%progbits
 1405      0080
 1406              		.align	2
 1407              		.p2align 4,,15
 1408              		.global	tcp_recved
 1409              		.thumb
 1410              		.thumb_func
 1411              		.type	tcp_recved, %function
 1412              	tcp_recved:
 1413              	.LFB17:
 1414              		.loc 1 576 0
 1415              		.cfi_startproc
 1416              		@ args = 0, pretend = 0, frame = 16
 1417              		@ frame_needed = 0, uses_anonymous_args = 0
 1418 0000 00B5     		push	{lr}
 1419              	.LCFI18:
 1420              		.cfi_def_cfa_offset 4
 1421              		.cfi_offset 14, -4
 1422 0002 85B0     		sub	sp, sp, #20
 1423              	.LCFI19:
 1424              		.cfi_def_cfa_offset 24
 1425 0004 0190     		str	r0, [sp, #4]
 1426 0006 0B46     		mov	r3, r1
 1427 0008 ADF80230 		strh	r3, [sp, #2]	@ movhi
 1428              		.loc 1 579 0
 1429 000c BDF80220 		ldrh	r2, [sp, #2]
 1430 0010 019B     		ldr	r3, [sp, #4]
 1431 0012 1B8D     		ldrh	r3, [r3, #40]
 1432 0014 1946     		mov	r1, r3
 1433 0016 4FF6FF73 		movw	r3, #65535
 1434 001a 5B1A     		subs	r3, r3, r1
 1435 001c 9A42     		cmp	r2, r3
 1436 001e 01DD     		ble	.L88
 1437              		.loc 1 579 0 is_stmt 0 discriminator 1
 1438 0020 FFF7FEFF 		bl	port_halt
 1439              	.L88:
 1440              		.loc 1 582 0 is_stmt 1
 1441 0024 019B     		ldr	r3, [sp, #4]
 1442 0026 1A8D     		ldrh	r2, [r3, #40]
 1443 0028 BDF80230 		ldrh	r3, [sp, #2]	@ movhi
 1444 002c D318     		adds	r3, r2, r3
 1445 002e 9AB2     		uxth	r2, r3
 1446 0030 019B     		ldr	r3, [sp, #4]
 1447 0032 1A85     		strh	r2, [r3, #40]	@ movhi
 1448              		.loc 1 583 0
ARM GAS  /tmp/ccgFJ4Zb.s 			page 27


 1449 0034 019B     		ldr	r3, [sp, #4]
 1450 0036 1B8D     		ldrh	r3, [r3, #40]
 1451 0038 B3F5066F 		cmp	r3, #2144
 1452 003c 03D9     		bls	.L89
 1453              		.loc 1 584 0
 1454 003e 019B     		ldr	r3, [sp, #4]
 1455 0040 4FF40662 		mov	r2, #2144
 1456 0044 1A85     		strh	r2, [r3, #40]	@ movhi
 1457              	.L89:
 1458              		.loc 1 587 0
 1459 0046 0198     		ldr	r0, [sp, #4]
 1460 0048 FFF7FEFF 		bl	tcp_update_rcv_ann_wnd
 1461 004c 0346     		mov	r3, r0
 1462 004e 0393     		str	r3, [sp, #12]
 1463              		.loc 1 593 0
 1464 0050 039A     		ldr	r2, [sp, #12]
 1465 0052 40F21723 		movw	r3, #535
 1466 0056 9A42     		cmp	r2, r3
 1467 0058 0BDD     		ble	.L87
 1468              		.loc 1 594 0
 1469 005a 019B     		ldr	r3, [sp, #4]
 1470 005c 93F82030 		ldrb	r3, [r3, #32]	@ zero_extendqisi2
 1471 0060 43F00203 		orr	r3, r3, #2
 1472 0064 DAB2     		uxtb	r2, r3
 1473 0066 019B     		ldr	r3, [sp, #4]
 1474 0068 83F82020 		strb	r2, [r3, #32]
 1475              		.loc 1 595 0
 1476 006c 0198     		ldr	r0, [sp, #4]
 1477 006e FFF7FEFF 		bl	tcp_output
 1478              	.L87:
 1479              		.loc 1 600 0
 1480 0072 05B0     		add	sp, sp, #20
 1481 0074 00BD     		pop	{pc}
 1482              		.cfi_endproc
 1483              	.LFE17:
 1484              		.size	tcp_recved, .-tcp_recved
 1485 0076 00BFAFF3 		.section	.text.tcp_new_port,"ax",%progbits
 1485      0080AFF3 
 1485      0080
 1486              		.align	2
 1487              		.p2align 4,,15
 1488              		.thumb
 1489              		.thumb_func
 1490              		.type	tcp_new_port, %function
 1491              	tcp_new_port:
 1492              	.LFB18:
 1493              		.loc 1 610 0
 1494              		.cfi_startproc
 1495              		@ args = 0, pretend = 0, frame = 8
 1496              		@ frame_needed = 0, uses_anonymous_args = 0
 1497              		@ link register save eliminated.
 1498 0000 82B0     		sub	sp, sp, #8
 1499              	.LCFI20:
 1500              		.cfi_def_cfa_offset 8
 1501 0002 00E0     		b	.L92
 1502              	.L99:
 1503              		.loc 1 629 0
ARM GAS  /tmp/ccgFJ4Zb.s 			page 28


 1504 0004 00BF     		nop
 1505              	.L92:
 1506              		.loc 1 622 0
 1507 0006 40F20003 		movw	r3, #:lower16:port.5810
 1508 000a C0F20003 		movt	r3, #:upper16:port.5810
 1509 000e 1B88     		ldrh	r3, [r3, #0]
 1510 0010 4FF6FF72 		movw	r2, #65535
 1511 0014 9342     		cmp	r3, r2
 1512 0016 14BF     		ite	ne
 1513 0018 0022     		movne	r2, #0
 1514 001a 0122     		moveq	r2, #1
 1515 001c D2B2     		uxtb	r2, r2
 1516 001e 03F10103 		add	r3, r3, #1
 1517 0022 99B2     		uxth	r1, r3
 1518 0024 40F20003 		movw	r3, #:lower16:port.5810
 1519 0028 C0F20003 		movt	r3, #:upper16:port.5810
 1520 002c 1980     		strh	r1, [r3, #0]	@ movhi
 1521 002e 002A     		cmp	r2, #0
 1522 0030 06D0     		beq	.L93
 1523              		.loc 1 623 0
 1524 0032 40F20003 		movw	r3, #:lower16:port.5810
 1525 0036 C0F20003 		movt	r3, #:upper16:port.5810
 1526 003a 4FF44042 		mov	r2, #49152
 1527 003e 1A80     		strh	r2, [r3, #0]	@ movhi
 1528              	.L93:
 1529              		.loc 1 626 0
 1530 0040 4FF00003 		mov	r3, #0
 1531 0044 0193     		str	r3, [sp, #4]
 1532 0046 1CE0     		b	.L94
 1533              	.L98:
 1534              		.loc 1 627 0
 1535 0048 40F20003 		movw	r3, #:lower16:tcp_pcb_lists
 1536 004c C0F20003 		movt	r3, #:upper16:tcp_pcb_lists
 1537 0050 019A     		ldr	r2, [sp, #4]
 1538 0052 53F82230 		ldr	r3, [r3, r2, lsl #2]
 1539 0056 1B68     		ldr	r3, [r3, #0]
 1540 0058 0093     		str	r3, [sp, #0]
 1541 005a 0BE0     		b	.L95
 1542              	.L97:
 1543              		.loc 1 628 0
 1544 005c 009B     		ldr	r3, [sp, #0]
 1545 005e 9A8B     		ldrh	r2, [r3, #28]
 1546 0060 40F20003 		movw	r3, #:lower16:port.5810
 1547 0064 C0F20003 		movt	r3, #:upper16:port.5810
 1548 0068 1B88     		ldrh	r3, [r3, #0]
 1549 006a 9A42     		cmp	r2, r3
 1550 006c CAD0     		beq	.L99
 1551              	.L96:
 1552              		.loc 1 627 0
 1553 006e 009B     		ldr	r3, [sp, #0]
 1554 0070 DB68     		ldr	r3, [r3, #12]
 1555 0072 0093     		str	r3, [sp, #0]
 1556              	.L95:
 1557              		.loc 1 627 0 is_stmt 0 discriminator 1
 1558 0074 009B     		ldr	r3, [sp, #0]
 1559 0076 002B     		cmp	r3, #0
 1560 0078 F0D1     		bne	.L97
ARM GAS  /tmp/ccgFJ4Zb.s 			page 29


 1561              		.loc 1 626 0 is_stmt 1
 1562 007a 019B     		ldr	r3, [sp, #4]
 1563 007c 03F10103 		add	r3, r3, #1
 1564 0080 0193     		str	r3, [sp, #4]
 1565              	.L94:
 1566              		.loc 1 626 0 is_stmt 0 discriminator 1
 1567 0082 019B     		ldr	r3, [sp, #4]
 1568 0084 032B     		cmp	r3, #3
 1569 0086 DFDD     		ble	.L98
 1570              		.loc 1 633 0 is_stmt 1
 1571 0088 40F20003 		movw	r3, #:lower16:port.5810
 1572 008c C0F20003 		movt	r3, #:upper16:port.5810
 1573 0090 1B88     		ldrh	r3, [r3, #0]
 1574              		.loc 1 634 0
 1575 0092 1846     		mov	r0, r3
 1576 0094 02B0     		add	sp, sp, #8
 1577 0096 7047     		bx	lr
 1578              		.cfi_endproc
 1579              	.LFE18:
 1580              		.size	tcp_new_port, .-tcp_new_port
 1581 0098 AFF30080 		.section	.text.tcp_connect,"ax",%progbits
 1581      AFF30080 
 1582              		.align	2
 1583              		.p2align 4,,15
 1584              		.global	tcp_connect
 1585              		.thumb
 1586              		.thumb_func
 1587              		.type	tcp_connect, %function
 1588              	tcp_connect:
 1589              	.LFB19:
 1590              		.loc 1 651 0
 1591              		.cfi_startproc
 1592              		@ args = 0, pretend = 0, frame = 32
 1593              		@ frame_needed = 0, uses_anonymous_args = 0
 1594 0000 00B5     		push	{lr}
 1595              	.LCFI21:
 1596              		.cfi_def_cfa_offset 4
 1597              		.cfi_offset 14, -4
 1598 0002 89B0     		sub	sp, sp, #36
 1599              	.LCFI22:
 1600              		.cfi_def_cfa_offset 40
 1601 0004 0390     		str	r0, [sp, #12]
 1602 0006 0291     		str	r1, [sp, #8]
 1603 0008 0093     		str	r3, [sp, #0]
 1604 000a 1346     		mov	r3, r2	@ movhi
 1605 000c ADF80630 		strh	r3, [sp, #6]	@ movhi
 1606              		.loc 1 656 0
 1607 0010 039B     		ldr	r3, [sp, #12]
 1608 0012 1B7C     		ldrb	r3, [r3, #16]	@ zero_extendqisi2
 1609 0014 002B     		cmp	r3, #0
 1610 0016 04D0     		beq	.L101
 1611              		.loc 1 656 0 is_stmt 0 discriminator 1
 1612 0018 FFF7FEFF 		bl	port_halt
 1613 001c 4FF0F703 		mov	r3, #247
 1614 0020 EDE0     		b	.L102
 1615              	.L101:
 1616              		.loc 1 659 0 is_stmt 1
ARM GAS  /tmp/ccgFJ4Zb.s 			page 30


 1617 0022 029B     		ldr	r3, [sp, #8]
 1618 0024 002B     		cmp	r3, #0
 1619 0026 0BD0     		beq	.L103
 1620              		.loc 1 660 0
 1621 0028 039B     		ldr	r3, [sp, #12]
 1622 002a 029A     		ldr	r2, [sp, #8]
 1623 002c 1268     		ldr	r2, [r2, #0]
 1624 002e 5A60     		str	r2, [r3, #4]
 1625              		.loc 1 664 0
 1626 0030 039B     		ldr	r3, [sp, #12]
 1627 0032 BDF80620 		ldrh	r2, [sp, #6]	@ movhi
 1628 0036 DA83     		strh	r2, [r3, #30]	@ movhi
 1629              		.loc 1 667 0
 1630 0038 039B     		ldr	r3, [sp, #12]
 1631 003a 002B     		cmp	r3, #0
 1632 003c 07D0     		beq	.L104
 1633 003e 02E0     		b	.L116
 1634              	.L103:
 1635              		.loc 1 662 0
 1636 0040 4FF0FA03 		mov	r3, #250
 1637 0044 DBE0     		b	.L102
 1638              	.L116:
 1639              		.loc 1 667 0 discriminator 1
 1640 0046 039B     		ldr	r3, [sp, #12]
 1641 0048 1B68     		ldr	r3, [r3, #0]
 1642 004a 002B     		cmp	r3, #0
 1643 004c 11D1     		bne	.L106
 1644              	.L104:
 1645              	.LBB3:
 1646              		.loc 1 669 0
 1647 004e 039B     		ldr	r3, [sp, #12]
 1648 0050 03F10403 		add	r3, r3, #4
 1649 0054 1846     		mov	r0, r3
 1650 0056 FFF7FEFF 		bl	ip_route
 1651 005a 0346     		mov	r3, r0
 1652 005c 0793     		str	r3, [sp, #28]
 1653              		.loc 1 670 0
 1654 005e 079B     		ldr	r3, [sp, #28]
 1655 0060 002B     		cmp	r3, #0
 1656 0062 02D1     		bne	.L107
 1657              		.loc 1 673 0
 1658 0064 4FF0FC03 		mov	r3, #252
 1659 0068 C9E0     		b	.L102
 1660              	.L107:
 1661              		.loc 1 676 0
 1662 006a 079B     		ldr	r3, [sp, #28]
 1663 006c 5A68     		ldr	r2, [r3, #4]
 1664 006e 039B     		ldr	r3, [sp, #12]
 1665 0070 1A60     		str	r2, [r3, #0]
 1666              	.L106:
 1667              	.LBE3:
 1668              		.loc 1 679 0
 1669 0072 039B     		ldr	r3, [sp, #12]
 1670 0074 9B8B     		ldrh	r3, [r3, #28]	@ movhi
 1671 0076 ADF81A30 		strh	r3, [sp, #26]	@ movhi
 1672              		.loc 1 680 0
 1673 007a 039B     		ldr	r3, [sp, #12]
ARM GAS  /tmp/ccgFJ4Zb.s 			page 31


 1674 007c 9B8B     		ldrh	r3, [r3, #28]
 1675 007e 002B     		cmp	r3, #0
 1676 0080 05D1     		bne	.L108
 1677              		.loc 1 681 0
 1678 0082 FFF7FEFF 		bl	tcp_new_port
 1679 0086 0346     		mov	r3, r0
 1680 0088 1A46     		mov	r2, r3
 1681 008a 039B     		ldr	r3, [sp, #12]
 1682 008c 9A83     		strh	r2, [r3, #28]	@ movhi
 1683              	.L108:
 1684              		.loc 1 703 0
 1685 008e FFF7FEFF 		bl	tcp_next_iss
 1686 0092 0346     		mov	r3, r0
 1687 0094 0593     		str	r3, [sp, #20]
 1688              		.loc 1 704 0
 1689 0096 039B     		ldr	r3, [sp, #12]
 1690 0098 4FF00002 		mov	r2, #0
 1691 009c 5A62     		str	r2, [r3, #36]
 1692              		.loc 1 705 0
 1693 009e 039B     		ldr	r3, [sp, #12]
 1694 00a0 059A     		ldr	r2, [sp, #20]
 1695 00a2 9A65     		str	r2, [r3, #88]
 1696              		.loc 1 706 0
 1697 00a4 059B     		ldr	r3, [sp, #20]
 1698 00a6 03F1FF32 		add	r2, r3, #-1
 1699 00aa 039B     		ldr	r3, [sp, #12]
 1700 00ac DA64     		str	r2, [r3, #76]
 1701              		.loc 1 707 0
 1702 00ae 059B     		ldr	r3, [sp, #20]
 1703 00b0 03F1FF32 		add	r2, r3, #-1
 1704 00b4 039B     		ldr	r3, [sp, #12]
 1705 00b6 9A66     		str	r2, [r3, #104]
 1706              		.loc 1 708 0
 1707 00b8 039B     		ldr	r3, [sp, #12]
 1708 00ba 4FF40662 		mov	r2, #2144
 1709 00be 1A85     		strh	r2, [r3, #40]	@ movhi
 1710              		.loc 1 709 0
 1711 00c0 039B     		ldr	r3, [sp, #12]
 1712 00c2 4FF40662 		mov	r2, #2144
 1713 00c6 5A85     		strh	r2, [r3, #42]	@ movhi
 1714              		.loc 1 710 0
 1715 00c8 039B     		ldr	r3, [sp, #12]
 1716 00ca 5A6A     		ldr	r2, [r3, #36]
 1717 00cc 039B     		ldr	r3, [sp, #12]
 1718 00ce DA62     		str	r2, [r3, #44]
 1719              		.loc 1 711 0
 1720 00d0 039B     		ldr	r3, [sp, #12]
 1721 00d2 4FF40662 		mov	r2, #2144
 1722 00d6 A3F85C20 		strh	r2, [r3, #92]	@ movhi
 1723              		.loc 1 714 0
 1724 00da 039B     		ldr	r3, [sp, #12]
 1725 00dc 4FF40672 		mov	r2, #536
 1726 00e0 1A87     		strh	r2, [r3, #56]	@ movhi
 1727              		.loc 1 716 0
 1728 00e2 039B     		ldr	r3, [sp, #12]
 1729 00e4 1B8F     		ldrh	r3, [r3, #56]
 1730 00e6 1846     		mov	r0, r3
ARM GAS  /tmp/ccgFJ4Zb.s 			page 32


 1731 00e8 0299     		ldr	r1, [sp, #8]
 1732 00ea FFF7FEFF 		bl	tcp_eff_send_mss
 1733 00ee 0346     		mov	r3, r0
 1734 00f0 1A46     		mov	r2, r3
 1735 00f2 039B     		ldr	r3, [sp, #12]
 1736 00f4 1A87     		strh	r2, [r3, #56]	@ movhi
 1737              		.loc 1 718 0
 1738 00f6 039B     		ldr	r3, [sp, #12]
 1739 00f8 4FF00102 		mov	r2, #1
 1740 00fc A3F85220 		strh	r2, [r3, #82]	@ movhi
 1741              		.loc 1 719 0
 1742 0100 039B     		ldr	r3, [sp, #12]
 1743 0102 1B8F     		ldrh	r3, [r3, #56]
 1744 0104 1A46     		mov	r2, r3	@ movhi
 1745 0106 4FEA8202 		lsl	r2, r2, #2
 1746 010a D318     		adds	r3, r2, r3
 1747 010c 4FEA4303 		lsl	r3, r3, #1
 1748 0110 9AB2     		uxth	r2, r3
 1749 0112 039B     		ldr	r3, [sp, #12]
 1750 0114 A3F85420 		strh	r2, [r3, #84]	@ movhi
 1751              		.loc 1 721 0
 1752 0118 039B     		ldr	r3, [sp, #12]
 1753 011a 009A     		ldr	r2, [sp, #0]
 1754 011c C3F88C20 		str	r2, [r3, #140]
 1755              		.loc 1 727 0
 1756 0120 0398     		ldr	r0, [sp, #12]
 1757 0122 4FF00201 		mov	r1, #2
 1758 0126 FFF7FEFF 		bl	tcp_enqueue_flags
 1759 012a 0346     		mov	r3, r0
 1760 012c 8DF81330 		strb	r3, [sp, #19]
 1761              		.loc 1 728 0
 1762 0130 9DF91330 		ldrsb	r3, [sp, #19]
 1763 0134 002B     		cmp	r3, #0
 1764 0136 60D1     		bne	.L109
 1765              		.loc 1 730 0
 1766 0138 039B     		ldr	r3, [sp, #12]
 1767 013a 4FF00202 		mov	r2, #2
 1768 013e 1A74     		strb	r2, [r3, #16]
 1769              		.loc 1 731 0
 1770 0140 BDF81A30 		ldrh	r3, [sp, #26]
 1771 0144 002B     		cmp	r3, #0
 1772 0146 46D0     		beq	.L110
 1773              		.loc 1 732 0
 1774 0148 40F20003 		movw	r3, #:lower16:tcp_bound_pcbs
 1775 014c C0F20003 		movt	r3, #:upper16:tcp_bound_pcbs
 1776 0150 1A68     		ldr	r2, [r3, #0]
 1777 0152 039B     		ldr	r3, [sp, #12]
 1778 0154 9A42     		cmp	r2, r3
 1779 0156 0BD1     		bne	.L111
 1780              		.loc 1 732 0 is_stmt 0 discriminator 1
 1781 0158 40F20003 		movw	r3, #:lower16:tcp_bound_pcbs
 1782 015c C0F20003 		movt	r3, #:upper16:tcp_bound_pcbs
 1783 0160 1B68     		ldr	r3, [r3, #0]
 1784 0162 DA68     		ldr	r2, [r3, #12]
 1785 0164 40F20003 		movw	r3, #:lower16:tcp_bound_pcbs
 1786 0168 C0F20003 		movt	r3, #:upper16:tcp_bound_pcbs
 1787 016c 1A60     		str	r2, [r3, #0]
ARM GAS  /tmp/ccgFJ4Zb.s 			page 33


 1788 016e 2EE0     		b	.L112
 1789              	.L111:
 1790              		.loc 1 732 0 discriminator 2
 1791 0170 40F20003 		movw	r3, #:lower16:tcp_bound_pcbs
 1792 0174 C0F20003 		movt	r3, #:upper16:tcp_bound_pcbs
 1793 0178 1A68     		ldr	r2, [r3, #0]
 1794 017a 40F20003 		movw	r3, #:lower16:tcp_tmp_pcb
 1795 017e C0F20003 		movt	r3, #:upper16:tcp_tmp_pcb
 1796 0182 1A60     		str	r2, [r3, #0]
 1797 0184 1CE0     		b	.L113
 1798              	.L115:
 1799              		.loc 1 732 0 discriminator 7
 1800 0186 40F20003 		movw	r3, #:lower16:tcp_tmp_pcb
 1801 018a C0F20003 		movt	r3, #:upper16:tcp_tmp_pcb
 1802 018e 1B68     		ldr	r3, [r3, #0]
 1803 0190 DA68     		ldr	r2, [r3, #12]
 1804 0192 039B     		ldr	r3, [sp, #12]
 1805 0194 9A42     		cmp	r2, r3
 1806 0196 08D1     		bne	.L114
 1807              		.loc 1 732 0 discriminator 4
 1808 0198 40F20003 		movw	r3, #:lower16:tcp_tmp_pcb
 1809 019c C0F20003 		movt	r3, #:upper16:tcp_tmp_pcb
 1810 01a0 1B68     		ldr	r3, [r3, #0]
 1811 01a2 039A     		ldr	r2, [sp, #12]
 1812 01a4 D268     		ldr	r2, [r2, #12]
 1813 01a6 DA60     		str	r2, [r3, #12]
 1814 01a8 11E0     		b	.L112
 1815              	.L114:
 1816              		.loc 1 732 0 discriminator 5
 1817 01aa 40F20003 		movw	r3, #:lower16:tcp_tmp_pcb
 1818 01ae C0F20003 		movt	r3, #:upper16:tcp_tmp_pcb
 1819 01b2 1B68     		ldr	r3, [r3, #0]
 1820 01b4 DA68     		ldr	r2, [r3, #12]
 1821 01b6 40F20003 		movw	r3, #:lower16:tcp_tmp_pcb
 1822 01ba C0F20003 		movt	r3, #:upper16:tcp_tmp_pcb
 1823 01be 1A60     		str	r2, [r3, #0]
 1824              	.L113:
 1825              		.loc 1 732 0 discriminator 3
 1826 01c0 40F20003 		movw	r3, #:lower16:tcp_tmp_pcb
 1827 01c4 C0F20003 		movt	r3, #:upper16:tcp_tmp_pcb
 1828 01c8 1B68     		ldr	r3, [r3, #0]
 1829 01ca 002B     		cmp	r3, #0
 1830 01cc DBD1     		bne	.L115
 1831              	.L112:
 1832              		.loc 1 732 0 discriminator 6
 1833 01ce 039B     		ldr	r3, [sp, #12]
 1834 01d0 4FF00002 		mov	r2, #0
 1835 01d4 DA60     		str	r2, [r3, #12]
 1836              	.L110:
 1837              		.loc 1 734 0 is_stmt 1
 1838 01d6 40F20003 		movw	r3, #:lower16:tcp_active_pcbs
 1839 01da C0F20003 		movt	r3, #:upper16:tcp_active_pcbs
 1840 01de 1A68     		ldr	r2, [r3, #0]
 1841 01e0 039B     		ldr	r3, [sp, #12]
 1842 01e2 DA60     		str	r2, [r3, #12]
 1843 01e4 40F20003 		movw	r3, #:lower16:tcp_active_pcbs
 1844 01e8 C0F20003 		movt	r3, #:upper16:tcp_active_pcbs
ARM GAS  /tmp/ccgFJ4Zb.s 			page 34


 1845 01ec 039A     		ldr	r2, [sp, #12]
 1846 01ee 1A60     		str	r2, [r3, #0]
 1847 01f0 FFF7FEFF 		bl	tcp_timer_needed
 1848              		.loc 1 737 0
 1849 01f4 0398     		ldr	r0, [sp, #12]
 1850 01f6 FFF7FEFF 		bl	tcp_output
 1851              	.L109:
 1852              		.loc 1 739 0
 1853 01fa 9DF81330 		ldrb	r3, [sp, #19]	@ zero_extendqisi2
 1854              	.L102:
 1855 01fe 5BB2     		sxtb	r3, r3
 1856              		.loc 1 740 0
 1857 0200 1846     		mov	r0, r3
 1858 0202 09B0     		add	sp, sp, #36
 1859 0204 00BD     		pop	{pc}
 1860              		.cfi_endproc
 1861              	.LFE19:
 1862              		.size	tcp_connect, .-tcp_connect
 1863 0206 00BFAFF3 		.section	.text.tcp_slowtmr,"ax",%progbits
 1863      0080AFF3 
 1863      0080
 1864              		.align	2
 1865              		.p2align 4,,15
 1866              		.global	tcp_slowtmr
 1867              		.thumb
 1868              		.thumb_func
 1869              		.type	tcp_slowtmr, %function
 1870              	tcp_slowtmr:
 1871              	.LFB20:
 1872              		.loc 1 751 0
 1873              		.cfi_startproc
 1874              		@ args = 0, pretend = 0, frame = 24
 1875              		@ frame_needed = 0, uses_anonymous_args = 0
 1876 0000 30B5     		push	{r4, r5, lr}
 1877              	.LCFI23:
 1878              		.cfi_def_cfa_offset 12
 1879              		.cfi_offset 14, -4
 1880              		.cfi_offset 5, -8
 1881              		.cfi_offset 4, -12
 1882 0002 89B0     		sub	sp, sp, #36
 1883              	.LCFI24:
 1884              		.cfi_def_cfa_offset 48
 1885              		.loc 1 758 0
 1886 0004 4FF00003 		mov	r3, #0
 1887 0008 8DF81530 		strb	r3, [sp, #21]
 1888              		.loc 1 760 0
 1889 000c 40F20003 		movw	r3, #:lower16:tcp_ticks
 1890 0010 C0F20003 		movt	r3, #:upper16:tcp_ticks
 1891 0014 1B68     		ldr	r3, [r3, #0]
 1892 0016 03F10102 		add	r2, r3, #1
 1893 001a 40F20003 		movw	r3, #:lower16:tcp_ticks
 1894 001e C0F20003 		movt	r3, #:upper16:tcp_ticks
 1895 0022 1A60     		str	r2, [r3, #0]
 1896              		.loc 1 763 0
 1897 0024 4FF00003 		mov	r3, #0
 1898 0028 0693     		str	r3, [sp, #24]
 1899              		.loc 1 764 0
ARM GAS  /tmp/ccgFJ4Zb.s 			page 35


 1900 002a 40F20003 		movw	r3, #:lower16:tcp_active_pcbs
 1901 002e C0F20003 		movt	r3, #:upper16:tcp_active_pcbs
 1902 0032 1B68     		ldr	r3, [r3, #0]
 1903 0034 0793     		str	r3, [sp, #28]
 1904              		.loc 1 768 0
 1905 0036 1FE2     		b	.L118
 1906              	.L146:
 1907              		.loc 1 770 0
 1908 0038 079B     		ldr	r3, [sp, #28]
 1909 003a 1B7C     		ldrb	r3, [r3, #16]	@ zero_extendqisi2
 1910 003c 002B     		cmp	r3, #0
 1911 003e 01D1     		bne	.L119
 1912              		.loc 1 770 0 is_stmt 0 discriminator 1
 1913 0040 FFF7FEFF 		bl	port_halt
 1914              	.L119:
 1915              		.loc 1 771 0 is_stmt 1
 1916 0044 079B     		ldr	r3, [sp, #28]
 1917 0046 1B7C     		ldrb	r3, [r3, #16]	@ zero_extendqisi2
 1918 0048 012B     		cmp	r3, #1
 1919 004a 01D1     		bne	.L120
 1920              		.loc 1 771 0 is_stmt 0 discriminator 1
 1921 004c FFF7FEFF 		bl	port_halt
 1922              	.L120:
 1923              		.loc 1 772 0 is_stmt 1
 1924 0050 079B     		ldr	r3, [sp, #28]
 1925 0052 1B7C     		ldrb	r3, [r3, #16]	@ zero_extendqisi2
 1926 0054 0A2B     		cmp	r3, #10
 1927 0056 01D1     		bne	.L121
 1928              		.loc 1 772 0 is_stmt 0 discriminator 1
 1929 0058 FFF7FEFF 		bl	port_halt
 1930              	.L121:
 1931              		.loc 1 774 0 is_stmt 1
 1932 005c 4FF00003 		mov	r3, #0
 1933 0060 8DF81730 		strb	r3, [sp, #23]
 1934              		.loc 1 775 0
 1935 0064 4FF00003 		mov	r3, #0
 1936 0068 8DF81630 		strb	r3, [sp, #22]
 1937              		.loc 1 777 0
 1938 006c 079B     		ldr	r3, [sp, #28]
 1939 006e 1B7C     		ldrb	r3, [r3, #16]	@ zero_extendqisi2
 1940 0070 022B     		cmp	r3, #2
 1941 0072 0BD1     		bne	.L122
 1942              		.loc 1 777 0 is_stmt 0 discriminator 1
 1943 0074 079B     		ldr	r3, [sp, #28]
 1944 0076 93F84A30 		ldrb	r3, [r3, #74]	@ zero_extendqisi2
 1945 007a 062B     		cmp	r3, #6
 1946 007c 06D1     		bne	.L122
 1947              		.loc 1 778 0 is_stmt 1
 1948 007e 9DF81730 		ldrb	r3, [sp, #23]
 1949 0082 03F10103 		add	r3, r3, #1
 1950 0086 8DF81730 		strb	r3, [sp, #23]
 1951 008a A9E0     		b	.L123
 1952              	.L122:
 1953              		.loc 1 781 0
 1954 008c 079B     		ldr	r3, [sp, #28]
 1955 008e 93F84A30 		ldrb	r3, [r3, #74]	@ zero_extendqisi2
 1956 0092 0C2B     		cmp	r3, #12
ARM GAS  /tmp/ccgFJ4Zb.s 			page 36


 1957 0094 06D1     		bne	.L124
 1958              		.loc 1 782 0
 1959 0096 9DF81730 		ldrb	r3, [sp, #23]
 1960 009a 03F10103 		add	r3, r3, #1
 1961 009e 8DF81730 		strb	r3, [sp, #23]
 1962 00a2 9DE0     		b	.L123
 1963              	.L124:
 1964              		.loc 1 785 0
 1965 00a4 079B     		ldr	r3, [sp, #28]
 1966 00a6 93F8A030 		ldrb	r3, [r3, #160]	@ zero_extendqisi2
 1967 00aa 002B     		cmp	r3, #0
 1968 00ac 2ED0     		beq	.L125
 1969              		.loc 1 788 0
 1970 00ae 079B     		ldr	r3, [sp, #28]
 1971 00b0 D3F89C30 		ldr	r3, [r3, #156]
 1972 00b4 03F10102 		add	r2, r3, #1
 1973 00b8 079B     		ldr	r3, [sp, #28]
 1974 00ba C3F89C20 		str	r2, [r3, #156]
 1975              		.loc 1 789 0
 1976 00be 079B     		ldr	r3, [sp, #28]
 1977 00c0 D3F89C20 		ldr	r2, [r3, #156]
 1978 00c4 079B     		ldr	r3, [sp, #28]
 1979 00c6 93F8A030 		ldrb	r3, [r3, #160]	@ zero_extendqisi2
 1980 00ca 03F1FF31 		add	r1, r3, #-1
 1981 00ce 40F20003 		movw	r3, #:lower16:tcp_persist_backoff
 1982 00d2 C0F20003 		movt	r3, #:upper16:tcp_persist_backoff
 1983 00d6 5B5C     		ldrb	r3, [r3, r1]	@ zero_extendqisi2
 1984 00d8 9A42     		cmp	r2, r3
 1985 00da C0F08180 		bcc	.L123
 1986              		.loc 1 790 0
 1987 00de 079B     		ldr	r3, [sp, #28]
 1988 00e0 4FF00002 		mov	r2, #0
 1989 00e4 C3F89C20 		str	r2, [r3, #156]
 1990              		.loc 1 791 0
 1991 00e8 079B     		ldr	r3, [sp, #28]
 1992 00ea 93F8A030 		ldrb	r3, [r3, #160]	@ zero_extendqisi2
 1993 00ee 062B     		cmp	r3, #6
 1994 00f0 08D8     		bhi	.L126
 1995              		.loc 1 792 0
 1996 00f2 079B     		ldr	r3, [sp, #28]
 1997 00f4 93F8A030 		ldrb	r3, [r3, #160]	@ zero_extendqisi2
 1998 00f8 03F10103 		add	r3, r3, #1
 1999 00fc DAB2     		uxtb	r2, r3
 2000 00fe 079B     		ldr	r3, [sp, #28]
 2001 0100 83F8A020 		strb	r2, [r3, #160]
 2002              	.L126:
 2003              		.loc 1 794 0
 2004 0104 0798     		ldr	r0, [sp, #28]
 2005 0106 FFF7FEFF 		bl	tcp_zero_window_probe
 2006 010a 69E0     		b	.L123
 2007              	.L125:
 2008              		.loc 1 798 0
 2009 010c 079B     		ldr	r3, [sp, #28]
 2010 010e DB8E     		ldrh	r3, [r3, #54]
 2011 0110 1BB2     		sxth	r3, r3
 2012 0112 002B     		cmp	r3, #0
 2013 0114 06DB     		blt	.L127
ARM GAS  /tmp/ccgFJ4Zb.s 			page 37


 2014              		.loc 1 799 0
 2015 0116 079B     		ldr	r3, [sp, #28]
 2016 0118 DB8E     		ldrh	r3, [r3, #54]
 2017 011a 03F10103 		add	r3, r3, #1
 2018 011e 9AB2     		uxth	r2, r3
 2019 0120 079B     		ldr	r3, [sp, #28]
 2020 0122 DA86     		strh	r2, [r3, #54]	@ movhi
 2021              	.L127:
 2022              		.loc 1 801 0
 2023 0124 079B     		ldr	r3, [sp, #28]
 2024 0126 9B6F     		ldr	r3, [r3, #120]
 2025 0128 002B     		cmp	r3, #0
 2026 012a 59D0     		beq	.L123
 2027              		.loc 1 801 0 is_stmt 0 discriminator 1
 2028 012c 079B     		ldr	r3, [sp, #28]
 2029 012e DA8E     		ldrh	r2, [r3, #54]
 2030 0130 079B     		ldr	r3, [sp, #28]
 2031 0132 B3F84830 		ldrh	r3, [r3, #72]
 2032 0136 12B2     		sxth	r2, r2
 2033 0138 1BB2     		sxth	r3, r3
 2034 013a 9A42     		cmp	r2, r3
 2035 013c 50DB     		blt	.L123
 2036              		.loc 1 809 0 is_stmt 1
 2037 013e 079B     		ldr	r3, [sp, #28]
 2038 0140 1B7C     		ldrb	r3, [r3, #16]	@ zero_extendqisi2
 2039 0142 022B     		cmp	r3, #2
 2040 0144 1BD0     		beq	.L128
 2041              		.loc 1 810 0
 2042 0146 079B     		ldr	r3, [sp, #28]
 2043 0148 B3F84430 		ldrh	r3, [r3, #68]
 2044 014c 1BB2     		sxth	r3, r3
 2045 014e 4FEAE303 		asr	r3, r3, #3
 2046 0152 9BB2     		uxth	r3, r3
 2047 0154 1AB2     		sxth	r2, r3
 2048 0156 079B     		ldr	r3, [sp, #28]
 2049 0158 B3F84630 		ldrh	r3, [r3, #70]
 2050 015c 1BB2     		sxth	r3, r3
 2051 015e D218     		adds	r2, r2, r3
 2052 0160 079B     		ldr	r3, [sp, #28]
 2053 0162 93F84A30 		ldrb	r3, [r3, #74]	@ zero_extendqisi2
 2054 0166 1946     		mov	r1, r3
 2055 0168 40F20003 		movw	r3, #:lower16:tcp_backoff
 2056 016c C0F20003 		movt	r3, #:upper16:tcp_backoff
 2057 0170 5B5C     		ldrb	r3, [r3, r1]	@ zero_extendqisi2
 2058 0172 02FA03F3 		lsl	r3, r2, r3
 2059 0176 9AB2     		uxth	r2, r3
 2060 0178 079B     		ldr	r3, [sp, #28]
 2061 017a A3F84820 		strh	r2, [r3, #72]	@ movhi
 2062              	.L128:
 2063              		.loc 1 814 0
 2064 017e 079B     		ldr	r3, [sp, #28]
 2065 0180 4FF00002 		mov	r2, #0
 2066 0184 DA86     		strh	r2, [r3, #54]	@ movhi
 2067              		.loc 1 817 0
 2068 0186 079B     		ldr	r3, [sp, #28]
 2069 0188 B3F85C20 		ldrh	r2, [r3, #92]
 2070 018c 079B     		ldr	r3, [sp, #28]
ARM GAS  /tmp/ccgFJ4Zb.s 			page 38


 2071 018e B3F85230 		ldrh	r3, [r3, #82]
 2072 0192 9A42     		cmp	r2, r3
 2073 0194 38BF     		it	cc
 2074 0196 1346     		movcc	r3, r2
 2075 0198 ADF81230 		strh	r3, [sp, #18]	@ movhi
 2076              		.loc 1 818 0
 2077 019c BDF81230 		ldrh	r3, [sp, #18]
 2078 01a0 4FEA5303 		lsr	r3, r3, #1
 2079 01a4 9AB2     		uxth	r2, r3
 2080 01a6 079B     		ldr	r3, [sp, #28]
 2081 01a8 A3F85420 		strh	r2, [r3, #84]	@ movhi
 2082              		.loc 1 819 0
 2083 01ac 079B     		ldr	r3, [sp, #28]
 2084 01ae B3F85430 		ldrh	r3, [r3, #84]
 2085 01b2 1A46     		mov	r2, r3
 2086 01b4 079B     		ldr	r3, [sp, #28]
 2087 01b6 1B8F     		ldrh	r3, [r3, #56]
 2088 01b8 4FEA4303 		lsl	r3, r3, #1
 2089 01bc 9A42     		cmp	r2, r3
 2090 01be 07DA     		bge	.L129
 2091              		.loc 1 820 0
 2092 01c0 079B     		ldr	r3, [sp, #28]
 2093 01c2 1B8F     		ldrh	r3, [r3, #56]
 2094 01c4 4FEA4303 		lsl	r3, r3, #1
 2095 01c8 9AB2     		uxth	r2, r3
 2096 01ca 079B     		ldr	r3, [sp, #28]
 2097 01cc A3F85420 		strh	r2, [r3, #84]	@ movhi
 2098              	.L129:
 2099              		.loc 1 822 0
 2100 01d0 079B     		ldr	r3, [sp, #28]
 2101 01d2 1A8F     		ldrh	r2, [r3, #56]
 2102 01d4 079B     		ldr	r3, [sp, #28]
 2103 01d6 A3F85220 		strh	r2, [r3, #82]	@ movhi
 2104              		.loc 1 829 0
 2105 01da 0798     		ldr	r0, [sp, #28]
 2106 01dc FFF7FEFF 		bl	tcp_rexmit_rto
 2107              	.L123:
 2108              		.loc 1 834 0
 2109 01e0 079B     		ldr	r3, [sp, #28]
 2110 01e2 1B7C     		ldrb	r3, [r3, #16]	@ zero_extendqisi2
 2111 01e4 062B     		cmp	r3, #6
 2112 01e6 0FD1     		bne	.L130
 2113              		.loc 1 835 0
 2114 01e8 40F20003 		movw	r3, #:lower16:tcp_ticks
 2115 01ec C0F20003 		movt	r3, #:upper16:tcp_ticks
 2116 01f0 1A68     		ldr	r2, [r3, #0]
 2117 01f2 079B     		ldr	r3, [sp, #28]
 2118 01f4 1B6B     		ldr	r3, [r3, #48]
 2119 01f6 D31A     		subs	r3, r2, r3
 2120 01f8 282B     		cmp	r3, #40
 2121 01fa 05D9     		bls	.L130
 2122              		.loc 1 837 0
 2123 01fc 9DF81730 		ldrb	r3, [sp, #23]
 2124 0200 03F10103 		add	r3, r3, #1
 2125 0204 8DF81730 		strb	r3, [sp, #23]
 2126              	.L130:
 2127              		.loc 1 843 0
ARM GAS  /tmp/ccgFJ4Zb.s 			page 39


 2128 0208 079B     		ldr	r3, [sp, #28]
 2129 020a 1B7A     		ldrb	r3, [r3, #8]	@ zero_extendqisi2
 2130 020c 03F00803 		and	r3, r3, #8
 2131 0210 002B     		cmp	r3, #0
 2132 0212 5AD0     		beq	.L131
 2133              		.loc 1 844 0 discriminator 1
 2134 0214 079B     		ldr	r3, [sp, #28]
 2135 0216 1B7C     		ldrb	r3, [r3, #16]	@ zero_extendqisi2
 2136              		.loc 1 843 0 discriminator 1
 2137 0218 042B     		cmp	r3, #4
 2138 021a 03D0     		beq	.L132
 2139              		.loc 1 845 0
 2140 021c 079B     		ldr	r3, [sp, #28]
 2141 021e 1B7C     		ldrb	r3, [r3, #16]	@ zero_extendqisi2
 2142              		.loc 1 844 0
 2143 0220 072B     		cmp	r3, #7
 2144 0222 52D1     		bne	.L131
 2145              	.L132:
 2146              		.loc 1 851 0
 2147 0224 40F20003 		movw	r3, #:lower16:tcp_ticks
 2148 0228 C0F20003 		movt	r3, #:upper16:tcp_ticks
 2149 022c 1A68     		ldr	r2, [r3, #0]
 2150 022e 079B     		ldr	r3, [sp, #28]
 2151 0230 1B6B     		ldr	r3, [r3, #48]
 2152 0232 D11A     		subs	r1, r2, r3
 2153              		.loc 1 852 0
 2154 0234 079B     		ldr	r3, [sp, #28]
 2155 0236 D3F89820 		ldr	r2, [r3, #152]
 2156 023a 44F6B843 		movw	r3, #19640
 2157 023e C0F20A03 		movt	r3, 10
 2158 0242 D318     		adds	r3, r2, r3
 2159 0244 44F6D352 		movw	r2, #19923
 2160 0248 C1F26202 		movt	r2, 4194
 2161 024c A2FB0303 		umull	r0, r3, r2, r3
 2162 0250 4FEA5313 		lsr	r3, r3, #5
 2163              		.loc 1 851 0
 2164 0254 9942     		cmp	r1, r3
 2165 0256 0CD9     		bls	.L133
 2166              		.loc 1 859 0
 2167 0258 9DF81730 		ldrb	r3, [sp, #23]
 2168 025c 03F10103 		add	r3, r3, #1
 2169 0260 8DF81730 		strb	r3, [sp, #23]
 2170              		.loc 1 860 0
 2171 0264 9DF81630 		ldrb	r3, [sp, #22]
 2172 0268 03F10103 		add	r3, r3, #1
 2173 026c 8DF81630 		strb	r3, [sp, #22]
 2174 0270 2BE0     		b	.L131
 2175              	.L133:
 2176              		.loc 1 867 0
 2177 0272 40F20003 		movw	r3, #:lower16:tcp_ticks
 2178 0276 C0F20003 		movt	r3, #:upper16:tcp_ticks
 2179 027a 1A68     		ldr	r2, [r3, #0]
 2180 027c 079B     		ldr	r3, [sp, #28]
 2181 027e 1B6B     		ldr	r3, [r3, #48]
 2182 0280 D21A     		subs	r2, r2, r3
 2183              		.loc 1 868 0
 2184 0282 079B     		ldr	r3, [sp, #28]
ARM GAS  /tmp/ccgFJ4Zb.s 			page 40


 2185 0284 D3F89810 		ldr	r1, [r3, #152]
 2186 0288 079B     		ldr	r3, [sp, #28]
 2187 028a 93F8A130 		ldrb	r3, [r3, #161]	@ zero_extendqisi2
 2188 028e 1846     		mov	r0, r3
 2189 0290 42F2F843 		movw	r3, #9464
 2190 0294 C0F20103 		movt	r3, 1
 2191 0298 03FB00F3 		mul	r3, r3, r0
 2192 029c C918     		adds	r1, r1, r3
 2193              		.loc 1 869 0
 2194 029e 44F6D353 		movw	r3, #19923
 2195 02a2 C1F26203 		movt	r3, 4194
 2196 02a6 A3FB0103 		umull	r0, r3, r3, r1
 2197 02aa 4FEA5313 		lsr	r3, r3, #5
 2198              		.loc 1 867 0
 2199 02ae 9A42     		cmp	r2, r3
 2200 02b0 0BD9     		bls	.L131
 2201              		.loc 1 872 0
 2202 02b2 0798     		ldr	r0, [sp, #28]
 2203 02b4 FFF7FEFF 		bl	tcp_keepalive
 2204              		.loc 1 873 0
 2205 02b8 079B     		ldr	r3, [sp, #28]
 2206 02ba 93F8A130 		ldrb	r3, [r3, #161]	@ zero_extendqisi2
 2207 02be 03F10103 		add	r3, r3, #1
 2208 02c2 DAB2     		uxtb	r2, r3
 2209 02c4 079B     		ldr	r3, [sp, #28]
 2210 02c6 83F8A120 		strb	r2, [r3, #161]
 2211              	.L131:
 2212              		.loc 1 881 0
 2213 02ca 079B     		ldr	r3, [sp, #28]
 2214 02cc DB6F     		ldr	r3, [r3, #124]
 2215 02ce 002B     		cmp	r3, #0
 2216 02d0 1CD0     		beq	.L134
 2217              		.loc 1 882 0 discriminator 1
 2218 02d2 40F20003 		movw	r3, #:lower16:tcp_ticks
 2219 02d6 C0F20003 		movt	r3, #:upper16:tcp_ticks
 2220 02da 1A68     		ldr	r2, [r3, #0]
 2221 02dc 079B     		ldr	r3, [sp, #28]
 2222 02de 1B6B     		ldr	r3, [r3, #48]
 2223 02e0 D11A     		subs	r1, r2, r3
 2224 02e2 079B     		ldr	r3, [sp, #28]
 2225 02e4 B3F84830 		ldrh	r3, [r3, #72]
 2226 02e8 1AB2     		sxth	r2, r3
 2227 02ea 1346     		mov	r3, r2
 2228 02ec 4FEA4303 		lsl	r3, r3, #1
 2229 02f0 9B18     		adds	r3, r3, r2
 2230 02f2 4FEA4303 		lsl	r3, r3, #1
 2231              		.loc 1 881 0 discriminator 1
 2232 02f6 9942     		cmp	r1, r3
 2233 02f8 08D3     		bcc	.L134
 2234              		.loc 1 883 0
 2235 02fa 079B     		ldr	r3, [sp, #28]
 2236 02fc DB6F     		ldr	r3, [r3, #124]
 2237 02fe 1846     		mov	r0, r3
 2238 0300 FFF7FEFF 		bl	tcp_segs_free
 2239              		.loc 1 884 0
 2240 0304 079B     		ldr	r3, [sp, #28]
 2241 0306 4FF00002 		mov	r2, #0
ARM GAS  /tmp/ccgFJ4Zb.s 			page 41


 2242 030a DA67     		str	r2, [r3, #124]
 2243              	.L134:
 2244              		.loc 1 890 0
 2245 030c 079B     		ldr	r3, [sp, #28]
 2246 030e 1B7C     		ldrb	r3, [r3, #16]	@ zero_extendqisi2
 2247 0310 032B     		cmp	r3, #3
 2248 0312 0FD1     		bne	.L135
 2249              		.loc 1 891 0
 2250 0314 40F20003 		movw	r3, #:lower16:tcp_ticks
 2251 0318 C0F20003 		movt	r3, #:upper16:tcp_ticks
 2252 031c 1A68     		ldr	r2, [r3, #0]
 2253 031e 079B     		ldr	r3, [sp, #28]
 2254 0320 1B6B     		ldr	r3, [r3, #48]
 2255 0322 D31A     		subs	r3, r2, r3
 2256 0324 282B     		cmp	r3, #40
 2257 0326 05D9     		bls	.L135
 2258              		.loc 1 893 0
 2259 0328 9DF81730 		ldrb	r3, [sp, #23]
 2260 032c 03F10103 		add	r3, r3, #1
 2261 0330 8DF81730 		strb	r3, [sp, #23]
 2262              	.L135:
 2263              		.loc 1 899 0
 2264 0334 079B     		ldr	r3, [sp, #28]
 2265 0336 1B7C     		ldrb	r3, [r3, #16]	@ zero_extendqisi2
 2266 0338 092B     		cmp	r3, #9
 2267 033a 0FD1     		bne	.L136
 2268              		.loc 1 900 0
 2269 033c 40F20003 		movw	r3, #:lower16:tcp_ticks
 2270 0340 C0F20003 		movt	r3, #:upper16:tcp_ticks
 2271 0344 1A68     		ldr	r2, [r3, #0]
 2272 0346 079B     		ldr	r3, [sp, #28]
 2273 0348 1B6B     		ldr	r3, [r3, #48]
 2274 034a D31A     		subs	r3, r2, r3
 2275 034c F02B     		cmp	r3, #240
 2276 034e 05D9     		bls	.L136
 2277              		.loc 1 901 0
 2278 0350 9DF81730 		ldrb	r3, [sp, #23]
 2279 0354 03F10103 		add	r3, r3, #1
 2280 0358 8DF81730 		strb	r3, [sp, #23]
 2281              	.L136:
 2282              		.loc 1 907 0
 2283 035c 9DF81730 		ldrb	r3, [sp, #23]	@ zero_extendqisi2
 2284 0360 002B     		cmp	r3, #0
 2285 0362 52D0     		beq	.L137
 2286              	.LBB4:
 2287              		.loc 1 909 0
 2288 0364 0798     		ldr	r0, [sp, #28]
 2289 0366 FFF7FEFF 		bl	tcp_pcb_purge
 2290              		.loc 1 911 0
 2291 036a 069B     		ldr	r3, [sp, #24]
 2292 036c 002B     		cmp	r3, #0
 2293 036e 0ED0     		beq	.L138
 2294              		.loc 1 912 0
 2295 0370 40F20003 		movw	r3, #:lower16:tcp_active_pcbs
 2296 0374 C0F20003 		movt	r3, #:upper16:tcp_active_pcbs
 2297 0378 1B68     		ldr	r3, [r3, #0]
 2298 037a 079A     		ldr	r2, [sp, #28]
ARM GAS  /tmp/ccgFJ4Zb.s 			page 42


 2299 037c 9A42     		cmp	r2, r3
 2300 037e 01D1     		bne	.L139
 2301              		.loc 1 912 0 is_stmt 0 discriminator 1
 2302 0380 FFF7FEFF 		bl	port_halt
 2303              	.L139:
 2304              		.loc 1 913 0 is_stmt 1
 2305 0384 079B     		ldr	r3, [sp, #28]
 2306 0386 DA68     		ldr	r2, [r3, #12]
 2307 0388 069B     		ldr	r3, [sp, #24]
 2308 038a DA60     		str	r2, [r3, #12]
 2309 038c 10E0     		b	.L140
 2310              	.L138:
 2311              		.loc 1 916 0
 2312 038e 40F20003 		movw	r3, #:lower16:tcp_active_pcbs
 2313 0392 C0F20003 		movt	r3, #:upper16:tcp_active_pcbs
 2314 0396 1A68     		ldr	r2, [r3, #0]
 2315 0398 079B     		ldr	r3, [sp, #28]
 2316 039a 9A42     		cmp	r2, r3
 2317 039c 01D0     		beq	.L141
 2318              		.loc 1 916 0 is_stmt 0 discriminator 1
 2319 039e FFF7FEFF 		bl	port_halt
 2320              	.L141:
 2321              		.loc 1 917 0 is_stmt 1
 2322 03a2 079B     		ldr	r3, [sp, #28]
 2323 03a4 DA68     		ldr	r2, [r3, #12]
 2324 03a6 40F20003 		movw	r3, #:lower16:tcp_active_pcbs
 2325 03aa C0F20003 		movt	r3, #:upper16:tcp_active_pcbs
 2326 03ae 1A60     		str	r2, [r3, #0]
 2327              	.L140:
 2328              		.loc 1 920 0
 2329 03b0 079B     		ldr	r3, [sp, #28]
 2330 03b2 D3F89430 		ldr	r3, [r3, #148]
 2331 03b6 002B     		cmp	r3, #0
 2332 03b8 08D0     		beq	.L142
 2333              		.loc 1 920 0 is_stmt 0 discriminator 1
 2334 03ba 079B     		ldr	r3, [sp, #28]
 2335 03bc D3F89430 		ldr	r3, [r3, #148]
 2336 03c0 079A     		ldr	r2, [sp, #28]
 2337 03c2 5269     		ldr	r2, [r2, #20]
 2338 03c4 1046     		mov	r0, r2
 2339 03c6 6FF00901 		mvn	r1, #9
 2340 03ca 9847     		blx	r3
 2341              	.L142:
 2342              		.loc 1 921 0 is_stmt 1
 2343 03cc 9DF81630 		ldrb	r3, [sp, #22]	@ zero_extendqisi2
 2344 03d0 002B     		cmp	r3, #0
 2345 03d2 0FD0     		beq	.L143
 2346              		.loc 1 922 0
 2347 03d4 079B     		ldr	r3, [sp, #28]
 2348 03d6 986D     		ldr	r0, [r3, #88]
 2349 03d8 079B     		ldr	r3, [sp, #28]
 2350 03da 596A     		ldr	r1, [r3, #36]
 2351 03dc 079A     		ldr	r2, [sp, #28]
 2352 03de 079B     		ldr	r3, [sp, #28]
 2353 03e0 03F10403 		add	r3, r3, #4
 2354              		.loc 1 923 0
 2355 03e4 079C     		ldr	r4, [sp, #28]
ARM GAS  /tmp/ccgFJ4Zb.s 			page 43


 2356              		.loc 1 922 0
 2357 03e6 A58B     		ldrh	r5, [r4, #28]
 2358              		.loc 1 923 0
 2359 03e8 079C     		ldr	r4, [sp, #28]
 2360              		.loc 1 922 0
 2361 03ea E48B     		ldrh	r4, [r4, #30]
 2362 03ec 0095     		str	r5, [sp, #0]
 2363 03ee 0194     		str	r4, [sp, #4]
 2364 03f0 FFF7FEFF 		bl	tcp_rst
 2365              	.L143:
 2366              		.loc 1 926 0
 2367 03f4 079B     		ldr	r3, [sp, #28]
 2368 03f6 0393     		str	r3, [sp, #12]
 2369              		.loc 1 927 0
 2370 03f8 079B     		ldr	r3, [sp, #28]
 2371 03fa DB68     		ldr	r3, [r3, #12]
 2372 03fc 0793     		str	r3, [sp, #28]
 2373              		.loc 1 928 0
 2374 03fe 4FF00200 		mov	r0, #2
 2375 0402 0399     		ldr	r1, [sp, #12]
 2376 0404 FFF7FEFF 		bl	memp_free
 2377 0408 36E0     		b	.L118
 2378              	.L137:
 2379              	.LBE4:
 2380              		.loc 1 931 0
 2381 040a 079B     		ldr	r3, [sp, #28]
 2382 040c 0693     		str	r3, [sp, #24]
 2383              		.loc 1 932 0
 2384 040e 079B     		ldr	r3, [sp, #28]
 2385 0410 DB68     		ldr	r3, [r3, #12]
 2386 0412 0793     		str	r3, [sp, #28]
 2387              		.loc 1 935 0
 2388 0414 069B     		ldr	r3, [sp, #24]
 2389 0416 93F83430 		ldrb	r3, [r3, #52]	@ zero_extendqisi2
 2390 041a 03F10103 		add	r3, r3, #1
 2391 041e DAB2     		uxtb	r2, r3
 2392 0420 069B     		ldr	r3, [sp, #24]
 2393 0422 83F83420 		strb	r2, [r3, #52]
 2394              		.loc 1 936 0
 2395 0426 069B     		ldr	r3, [sp, #24]
 2396 0428 93F83420 		ldrb	r2, [r3, #52]	@ zero_extendqisi2
 2397 042c 069B     		ldr	r3, [sp, #24]
 2398 042e 93F83530 		ldrb	r3, [r3, #53]	@ zero_extendqisi2
 2399 0432 9A42     		cmp	r2, r3
 2400 0434 20D3     		bcc	.L118
 2401              		.loc 1 937 0
 2402 0436 069B     		ldr	r3, [sp, #24]
 2403 0438 4FF00002 		mov	r2, #0
 2404 043c 83F83420 		strb	r2, [r3, #52]
 2405              		.loc 1 939 0
 2406 0440 069B     		ldr	r3, [sp, #24]
 2407 0442 D3F89030 		ldr	r3, [r3, #144]
 2408 0446 002B     		cmp	r3, #0
 2409 0448 0BD0     		beq	.L144
 2410              		.loc 1 939 0 is_stmt 0 discriminator 1
 2411 044a 069B     		ldr	r3, [sp, #24]
 2412 044c D3F89030 		ldr	r3, [r3, #144]
ARM GAS  /tmp/ccgFJ4Zb.s 			page 44


 2413 0450 069A     		ldr	r2, [sp, #24]
 2414 0452 5269     		ldr	r2, [r2, #20]
 2415 0454 1046     		mov	r0, r2
 2416 0456 0699     		ldr	r1, [sp, #24]
 2417 0458 9847     		blx	r3
 2418 045a 0346     		mov	r3, r0
 2419 045c 8DF81530 		strb	r3, [sp, #21]
 2420 0460 03E0     		b	.L145
 2421              	.L144:
 2422              		.loc 1 939 0 discriminator 2
 2423 0462 4FF00003 		mov	r3, #0
 2424 0466 8DF81530 		strb	r3, [sp, #21]
 2425              	.L145:
 2426              		.loc 1 941 0 is_stmt 1
 2427 046a 9DF91530 		ldrsb	r3, [sp, #21]
 2428 046e 002B     		cmp	r3, #0
 2429 0470 02D1     		bne	.L118
 2430              		.loc 1 942 0
 2431 0472 0698     		ldr	r0, [sp, #24]
 2432 0474 FFF7FEFF 		bl	tcp_output
 2433              	.L118:
 2434              		.loc 1 768 0 discriminator 1
 2435 0478 079B     		ldr	r3, [sp, #28]
 2436 047a 002B     		cmp	r3, #0
 2437 047c 7FF4DCAD 		bne	.L146
 2438              		.loc 1 950 0
 2439 0480 4FF00003 		mov	r3, #0
 2440 0484 0693     		str	r3, [sp, #24]
 2441              		.loc 1 951 0
 2442 0486 40F20003 		movw	r3, #:lower16:tcp_tw_pcbs
 2443 048a C0F20003 		movt	r3, #:upper16:tcp_tw_pcbs
 2444 048e 1B68     		ldr	r3, [r3, #0]
 2445 0490 0793     		str	r3, [sp, #28]
 2446              		.loc 1 952 0
 2447 0492 53E0     		b	.L147
 2448              	.L155:
 2449              		.loc 1 953 0
 2450 0494 079B     		ldr	r3, [sp, #28]
 2451 0496 1B7C     		ldrb	r3, [r3, #16]	@ zero_extendqisi2
 2452 0498 0A2B     		cmp	r3, #10
 2453 049a 01D0     		beq	.L148
 2454              		.loc 1 953 0 is_stmt 0 discriminator 1
 2455 049c FFF7FEFF 		bl	port_halt
 2456              	.L148:
 2457              		.loc 1 954 0 is_stmt 1
 2458 04a0 4FF00003 		mov	r3, #0
 2459 04a4 8DF81730 		strb	r3, [sp, #23]
 2460              		.loc 1 957 0
 2461 04a8 40F20003 		movw	r3, #:lower16:tcp_ticks
 2462 04ac C0F20003 		movt	r3, #:upper16:tcp_ticks
 2463 04b0 1A68     		ldr	r2, [r3, #0]
 2464 04b2 079B     		ldr	r3, [sp, #28]
 2465 04b4 1B6B     		ldr	r3, [r3, #48]
 2466 04b6 D31A     		subs	r3, r2, r3
 2467 04b8 F02B     		cmp	r3, #240
 2468 04ba 05D9     		bls	.L149
 2469              		.loc 1 958 0
ARM GAS  /tmp/ccgFJ4Zb.s 			page 45


 2470 04bc 9DF81730 		ldrb	r3, [sp, #23]
 2471 04c0 03F10103 		add	r3, r3, #1
 2472 04c4 8DF81730 		strb	r3, [sp, #23]
 2473              	.L149:
 2474              		.loc 1 964 0
 2475 04c8 9DF81730 		ldrb	r3, [sp, #23]	@ zero_extendqisi2
 2476 04cc 002B     		cmp	r3, #0
 2477 04ce 30D0     		beq	.L150
 2478              	.LBB5:
 2479              		.loc 1 966 0
 2480 04d0 0798     		ldr	r0, [sp, #28]
 2481 04d2 FFF7FEFF 		bl	tcp_pcb_purge
 2482              		.loc 1 968 0
 2483 04d6 069B     		ldr	r3, [sp, #24]
 2484 04d8 002B     		cmp	r3, #0
 2485 04da 0ED0     		beq	.L151
 2486              		.loc 1 969 0
 2487 04dc 40F20003 		movw	r3, #:lower16:tcp_tw_pcbs
 2488 04e0 C0F20003 		movt	r3, #:upper16:tcp_tw_pcbs
 2489 04e4 1B68     		ldr	r3, [r3, #0]
 2490 04e6 079A     		ldr	r2, [sp, #28]
 2491 04e8 9A42     		cmp	r2, r3
 2492 04ea 01D1     		bne	.L152
 2493              		.loc 1 969 0 is_stmt 0 discriminator 1
 2494 04ec FFF7FEFF 		bl	port_halt
 2495              	.L152:
 2496              		.loc 1 970 0 is_stmt 1
 2497 04f0 079B     		ldr	r3, [sp, #28]
 2498 04f2 DA68     		ldr	r2, [r3, #12]
 2499 04f4 069B     		ldr	r3, [sp, #24]
 2500 04f6 DA60     		str	r2, [r3, #12]
 2501 04f8 10E0     		b	.L153
 2502              	.L151:
 2503              		.loc 1 973 0
 2504 04fa 40F20003 		movw	r3, #:lower16:tcp_tw_pcbs
 2505 04fe C0F20003 		movt	r3, #:upper16:tcp_tw_pcbs
 2506 0502 1A68     		ldr	r2, [r3, #0]
 2507 0504 079B     		ldr	r3, [sp, #28]
 2508 0506 9A42     		cmp	r2, r3
 2509 0508 01D0     		beq	.L154
 2510              		.loc 1 973 0 is_stmt 0 discriminator 1
 2511 050a FFF7FEFF 		bl	port_halt
 2512              	.L154:
 2513              		.loc 1 974 0 is_stmt 1
 2514 050e 079B     		ldr	r3, [sp, #28]
 2515 0510 DA68     		ldr	r2, [r3, #12]
 2516 0512 40F20003 		movw	r3, #:lower16:tcp_tw_pcbs
 2517 0516 C0F20003 		movt	r3, #:upper16:tcp_tw_pcbs
 2518 051a 1A60     		str	r2, [r3, #0]
 2519              	.L153:
 2520              		.loc 1 976 0
 2521 051c 079B     		ldr	r3, [sp, #28]
 2522 051e 0293     		str	r3, [sp, #8]
 2523              		.loc 1 977 0
 2524 0520 079B     		ldr	r3, [sp, #28]
 2525 0522 DB68     		ldr	r3, [r3, #12]
 2526 0524 0793     		str	r3, [sp, #28]
ARM GAS  /tmp/ccgFJ4Zb.s 			page 46


 2527              		.loc 1 978 0
 2528 0526 4FF00200 		mov	r0, #2
 2529 052a 0299     		ldr	r1, [sp, #8]
 2530 052c FFF7FEFF 		bl	memp_free
 2531 0530 04E0     		b	.L147
 2532              	.L150:
 2533              	.LBE5:
 2534              		.loc 1 980 0
 2535 0532 079B     		ldr	r3, [sp, #28]
 2536 0534 0693     		str	r3, [sp, #24]
 2537              		.loc 1 981 0
 2538 0536 079B     		ldr	r3, [sp, #28]
 2539 0538 DB68     		ldr	r3, [r3, #12]
 2540 053a 0793     		str	r3, [sp, #28]
 2541              	.L147:
 2542              		.loc 1 952 0 discriminator 1
 2543 053c 079B     		ldr	r3, [sp, #28]
 2544 053e 002B     		cmp	r3, #0
 2545 0540 A8D1     		bne	.L155
 2546              		.loc 1 984 0
 2547 0542 09B0     		add	sp, sp, #36
 2548 0544 30BD     		pop	{r4, r5, pc}
 2549              		.cfi_endproc
 2550              	.LFE20:
 2551              		.size	tcp_slowtmr, .-tcp_slowtmr
 2552 0546 00BFAFF3 		.section	.text.tcp_fasttmr,"ax",%progbits
 2552      0080AFF3 
 2552      0080
 2553              		.align	2
 2554              		.p2align 4,,15
 2555              		.global	tcp_fasttmr
 2556              		.thumb
 2557              		.thumb_func
 2558              		.type	tcp_fasttmr, %function
 2559              	tcp_fasttmr:
 2560              	.LFB21:
 2561              		.loc 1 994 0
 2562              		.cfi_startproc
 2563              		@ args = 0, pretend = 0, frame = 16
 2564              		@ frame_needed = 0, uses_anonymous_args = 0
 2565 0000 10B5     		push	{r4, lr}
 2566              	.LCFI25:
 2567              		.cfi_def_cfa_offset 8
 2568              		.cfi_offset 14, -4
 2569              		.cfi_offset 4, -8
 2570 0002 84B0     		sub	sp, sp, #16
 2571              	.LCFI26:
 2572              		.cfi_def_cfa_offset 24
 2573              		.loc 1 995 0
 2574 0004 40F20003 		movw	r3, #:lower16:tcp_active_pcbs
 2575 0008 C0F20003 		movt	r3, #:upper16:tcp_active_pcbs
 2576 000c 1B68     		ldr	r3, [r3, #0]
 2577 000e 0393     		str	r3, [sp, #12]
 2578              		.loc 1 997 0
 2579 0010 60E0     		b	.L157
 2580              	.L163:
 2581              	.LBB6:
ARM GAS  /tmp/ccgFJ4Zb.s 			page 47


 2582              		.loc 1 998 0
 2583 0012 039B     		ldr	r3, [sp, #12]
 2584 0014 DB68     		ldr	r3, [r3, #12]
 2585 0016 0193     		str	r3, [sp, #4]
 2586              		.loc 1 1000 0
 2587 0018 039B     		ldr	r3, [sp, #12]
 2588 001a D3F88030 		ldr	r3, [r3, #128]
 2589 001e 002B     		cmp	r3, #0
 2590 0020 36D0     		beq	.L158
 2591              	.LBB7:
 2592              		.loc 1 1004 0
 2593 0022 039B     		ldr	r3, [sp, #12]
 2594 0024 D3F88830 		ldr	r3, [r3, #136]
 2595 0028 002B     		cmp	r3, #0
 2596 002a 11D0     		beq	.L159
 2597              		.loc 1 1004 0 is_stmt 0 discriminator 1
 2598 002c 039B     		ldr	r3, [sp, #12]
 2599 002e D3F88840 		ldr	r4, [r3, #136]
 2600 0032 039B     		ldr	r3, [sp, #12]
 2601 0034 5A69     		ldr	r2, [r3, #20]
 2602 0036 039B     		ldr	r3, [sp, #12]
 2603 0038 D3F88030 		ldr	r3, [r3, #128]
 2604 003c 1046     		mov	r0, r2
 2605 003e 0399     		ldr	r1, [sp, #12]
 2606 0040 1A46     		mov	r2, r3
 2607 0042 4FF00003 		mov	r3, #0
 2608 0046 A047     		blx	r4
 2609 0048 0346     		mov	r3, r0
 2610 004a 8DF80B30 		strb	r3, [sp, #11]
 2611 004e 0DE0     		b	.L160
 2612              	.L159:
 2613              		.loc 1 1004 0 discriminator 2
 2614 0050 039B     		ldr	r3, [sp, #12]
 2615 0052 D3F88030 		ldr	r3, [r3, #128]
 2616 0056 4FF00000 		mov	r0, #0
 2617 005a 0399     		ldr	r1, [sp, #12]
 2618 005c 1A46     		mov	r2, r3
 2619 005e 4FF00003 		mov	r3, #0
 2620 0062 FFF7FEFF 		bl	tcp_recv_null
 2621 0066 0346     		mov	r3, r0
 2622 0068 8DF80B30 		strb	r3, [sp, #11]
 2623              	.L160:
 2624              		.loc 1 1005 0 is_stmt 1
 2625 006c 9DF90B30 		ldrsb	r3, [sp, #11]
 2626 0070 002B     		cmp	r3, #0
 2627 0072 05D1     		bne	.L161
 2628              		.loc 1 1006 0
 2629 0074 039B     		ldr	r3, [sp, #12]
 2630 0076 4FF00002 		mov	r2, #0
 2631 007a C3F88020 		str	r2, [r3, #128]
 2632 007e 07E0     		b	.L158
 2633              	.L161:
 2634              		.loc 1 1007 0
 2635 0080 9DF90B30 		ldrsb	r3, [sp, #11]
 2636 0084 13F10A0F 		cmn	r3, #10
 2637 0088 02D1     		bne	.L158
 2638              		.loc 1 1009 0
ARM GAS  /tmp/ccgFJ4Zb.s 			page 48


 2639 008a 4FF00003 		mov	r3, #0
 2640 008e 0393     		str	r3, [sp, #12]
 2641              	.L158:
 2642              	.LBE7:
 2643              		.loc 1 1014 0
 2644 0090 039B     		ldr	r3, [sp, #12]
 2645 0092 002B     		cmp	r3, #0
 2646 0094 1CD0     		beq	.L162
 2647              		.loc 1 1014 0 is_stmt 0 discriminator 1
 2648 0096 039B     		ldr	r3, [sp, #12]
 2649 0098 93F82030 		ldrb	r3, [r3, #32]	@ zero_extendqisi2
 2650 009c 03F00103 		and	r3, r3, #1
 2651 00a0 DBB2     		uxtb	r3, r3
 2652 00a2 002B     		cmp	r3, #0
 2653 00a4 14D0     		beq	.L162
 2654              		.loc 1 1016 0 is_stmt 1
 2655 00a6 039B     		ldr	r3, [sp, #12]
 2656 00a8 93F82030 		ldrb	r3, [r3, #32]	@ zero_extendqisi2
 2657 00ac 43F00203 		orr	r3, r3, #2
 2658 00b0 DAB2     		uxtb	r2, r3
 2659 00b2 039B     		ldr	r3, [sp, #12]
 2660 00b4 83F82020 		strb	r2, [r3, #32]
 2661              		.loc 1 1017 0
 2662 00b8 0398     		ldr	r0, [sp, #12]
 2663 00ba FFF7FEFF 		bl	tcp_output
 2664              		.loc 1 1018 0
 2665 00be 039B     		ldr	r3, [sp, #12]
 2666 00c0 93F82030 		ldrb	r3, [r3, #32]	@ zero_extendqisi2
 2667 00c4 23F00303 		bic	r3, r3, #3
 2668 00c8 DAB2     		uxtb	r2, r3
 2669 00ca 039B     		ldr	r3, [sp, #12]
 2670 00cc 83F82020 		strb	r2, [r3, #32]
 2671              	.L162:
 2672              		.loc 1 1021 0
 2673 00d0 019B     		ldr	r3, [sp, #4]
 2674 00d2 0393     		str	r3, [sp, #12]
 2675              	.L157:
 2676              	.LBE6:
 2677              		.loc 1 997 0 discriminator 1
 2678 00d4 039B     		ldr	r3, [sp, #12]
 2679 00d6 002B     		cmp	r3, #0
 2680 00d8 9BD1     		bne	.L163
 2681              		.loc 1 1023 0
 2682 00da 04B0     		add	sp, sp, #16
 2683 00dc 10BD     		pop	{r4, pc}
 2684              		.cfi_endproc
 2685              	.LFE21:
 2686              		.size	tcp_fasttmr, .-tcp_fasttmr
 2687 00de 00BF     		.section	.text.tcp_segs_free,"ax",%progbits
 2688              		.align	2
 2689              		.p2align 4,,15
 2690              		.global	tcp_segs_free
 2691              		.thumb
 2692              		.thumb_func
 2693              		.type	tcp_segs_free, %function
 2694              	tcp_segs_free:
 2695              	.LFB22:
ARM GAS  /tmp/ccgFJ4Zb.s 			page 49


 2696              		.loc 1 1032 0
 2697              		.cfi_startproc
 2698              		@ args = 0, pretend = 0, frame = 16
 2699              		@ frame_needed = 0, uses_anonymous_args = 0
 2700 0000 00B5     		push	{lr}
 2701              	.LCFI27:
 2702              		.cfi_def_cfa_offset 4
 2703              		.cfi_offset 14, -4
 2704 0002 85B0     		sub	sp, sp, #20
 2705              	.LCFI28:
 2706              		.cfi_def_cfa_offset 24
 2707 0004 0190     		str	r0, [sp, #4]
 2708              		.loc 1 1033 0
 2709 0006 07E0     		b	.L165
 2710              	.L166:
 2711              	.LBB8:
 2712              		.loc 1 1034 0
 2713 0008 019B     		ldr	r3, [sp, #4]
 2714 000a 1B68     		ldr	r3, [r3, #0]
 2715 000c 0393     		str	r3, [sp, #12]
 2716              		.loc 1 1035 0
 2717 000e 0198     		ldr	r0, [sp, #4]
 2718 0010 FFF7FEFF 		bl	tcp_seg_free
 2719              		.loc 1 1036 0
 2720 0014 039B     		ldr	r3, [sp, #12]
 2721 0016 0193     		str	r3, [sp, #4]
 2722              	.L165:
 2723              	.LBE8:
 2724              		.loc 1 1033 0 discriminator 1
 2725 0018 019B     		ldr	r3, [sp, #4]
 2726 001a 002B     		cmp	r3, #0
 2727 001c F4D1     		bne	.L166
 2728              		.loc 1 1038 0
 2729 001e 05B0     		add	sp, sp, #20
 2730 0020 00BD     		pop	{pc}
 2731              		.cfi_endproc
 2732              	.LFE22:
 2733              		.size	tcp_segs_free, .-tcp_segs_free
 2734 0022 00BFAFF3 		.section	.text.tcp_seg_free,"ax",%progbits
 2734      0080AFF3 
 2734      0080AFF3 
 2734      0080
 2735              		.align	2
 2736              		.p2align 4,,15
 2737              		.global	tcp_seg_free
 2738              		.thumb
 2739              		.thumb_func
 2740              		.type	tcp_seg_free, %function
 2741              	tcp_seg_free:
 2742              	.LFB23:
 2743              		.loc 1 1047 0
 2744              		.cfi_startproc
 2745              		@ args = 0, pretend = 0, frame = 8
 2746              		@ frame_needed = 0, uses_anonymous_args = 0
 2747 0000 00B5     		push	{lr}
 2748              	.LCFI29:
 2749              		.cfi_def_cfa_offset 4
ARM GAS  /tmp/ccgFJ4Zb.s 			page 50


 2750              		.cfi_offset 14, -4
 2751 0002 83B0     		sub	sp, sp, #12
 2752              	.LCFI30:
 2753              		.cfi_def_cfa_offset 16
 2754 0004 0190     		str	r0, [sp, #4]
 2755              		.loc 1 1048 0
 2756 0006 019B     		ldr	r3, [sp, #4]
 2757 0008 002B     		cmp	r3, #0
 2758 000a 0DD0     		beq	.L167
 2759              		.loc 1 1049 0
 2760 000c 019B     		ldr	r3, [sp, #4]
 2761 000e 5B68     		ldr	r3, [r3, #4]
 2762 0010 002B     		cmp	r3, #0
 2763 0012 04D0     		beq	.L169
 2764              		.loc 1 1050 0
 2765 0014 019B     		ldr	r3, [sp, #4]
 2766 0016 5B68     		ldr	r3, [r3, #4]
 2767 0018 1846     		mov	r0, r3
 2768 001a FFF7FEFF 		bl	pbuf_free
 2769              	.L169:
 2770              		.loc 1 1055 0
 2771 001e 4FF00400 		mov	r0, #4
 2772 0022 0199     		ldr	r1, [sp, #4]
 2773 0024 FFF7FEFF 		bl	memp_free
 2774              	.L167:
 2775              		.loc 1 1057 0
 2776 0028 03B0     		add	sp, sp, #12
 2777 002a 00BD     		pop	{pc}
 2778              		.cfi_endproc
 2779              	.LFE23:
 2780              		.size	tcp_seg_free, .-tcp_seg_free
 2781 002c AFF30080 		.section	.text.tcp_setprio,"ax",%progbits
 2782              		.align	2
 2783              		.p2align 4,,15
 2784              		.global	tcp_setprio
 2785              		.thumb
 2786              		.thumb_func
 2787              		.type	tcp_setprio, %function
 2788              	tcp_setprio:
 2789              	.LFB24:
 2790              		.loc 1 1067 0
 2791              		.cfi_startproc
 2792              		@ args = 0, pretend = 0, frame = 8
 2793              		@ frame_needed = 0, uses_anonymous_args = 0
 2794              		@ link register save eliminated.
 2795 0000 82B0     		sub	sp, sp, #8
 2796              	.LCFI31:
 2797              		.cfi_def_cfa_offset 8
 2798 0002 0190     		str	r0, [sp, #4]
 2799 0004 0B46     		mov	r3, r1
 2800 0006 8DF80330 		strb	r3, [sp, #3]
 2801              		.loc 1 1068 0
 2802 000a 019B     		ldr	r3, [sp, #4]
 2803 000c 9DF80320 		ldrb	r2, [sp, #3]
 2804 0010 5A74     		strb	r2, [r3, #17]
 2805              		.loc 1 1069 0
 2806 0012 02B0     		add	sp, sp, #8
ARM GAS  /tmp/ccgFJ4Zb.s 			page 51


 2807 0014 7047     		bx	lr
 2808              		.cfi_endproc
 2809              	.LFE24:
 2810              		.size	tcp_setprio, .-tcp_setprio
 2811 0016 00BFAFF3 		.section	.text.tcp_seg_copy,"ax",%progbits
 2811      0080AFF3 
 2811      0080
 2812              		.align	2
 2813              		.p2align 4,,15
 2814              		.global	tcp_seg_copy
 2815              		.thumb
 2816              		.thumb_func
 2817              		.type	tcp_seg_copy, %function
 2818              	tcp_seg_copy:
 2819              	.LFB25:
 2820              		.loc 1 1081 0
 2821              		.cfi_startproc
 2822              		@ args = 0, pretend = 0, frame = 16
 2823              		@ frame_needed = 0, uses_anonymous_args = 0
 2824 0000 00B5     		push	{lr}
 2825              	.LCFI32:
 2826              		.cfi_def_cfa_offset 4
 2827              		.cfi_offset 14, -4
 2828 0002 85B0     		sub	sp, sp, #20
 2829              	.LCFI33:
 2830              		.cfi_def_cfa_offset 24
 2831 0004 0190     		str	r0, [sp, #4]
 2832              		.loc 1 1084 0
 2833 0006 4FF00400 		mov	r0, #4
 2834 000a FFF7FEFF 		bl	memp_malloc
 2835 000e 0346     		mov	r3, r0
 2836 0010 0393     		str	r3, [sp, #12]
 2837              		.loc 1 1085 0
 2838 0012 039B     		ldr	r3, [sp, #12]
 2839 0014 002B     		cmp	r3, #0
 2840 0016 02D1     		bne	.L172
 2841              		.loc 1 1086 0
 2842 0018 4FF00003 		mov	r3, #0
 2843 001c 10E0     		b	.L173
 2844              	.L172:
 2845              		.loc 1 1088 0
 2846 001e 039A     		ldr	r2, [sp, #12]
 2847 0020 019B     		ldr	r3, [sp, #4]
 2848 0022 1146     		mov	r1, r2
 2849 0024 1A46     		mov	r2, r3
 2850 0026 4FF01003 		mov	r3, #16
 2851 002a 0846     		mov	r0, r1
 2852 002c 1146     		mov	r1, r2
 2853 002e 1A46     		mov	r2, r3
 2854 0030 FFF7FEFF 		bl	memcpy
 2855              		.loc 1 1089 0
 2856 0034 039B     		ldr	r3, [sp, #12]
 2857 0036 5B68     		ldr	r3, [r3, #4]
 2858 0038 1846     		mov	r0, r3
 2859 003a FFF7FEFF 		bl	pbuf_ref
 2860              		.loc 1 1090 0
 2861 003e 039B     		ldr	r3, [sp, #12]
ARM GAS  /tmp/ccgFJ4Zb.s 			page 52


 2862              	.L173:
 2863              		.loc 1 1091 0
 2864 0040 1846     		mov	r0, r3
 2865 0042 05B0     		add	sp, sp, #20
 2866 0044 00BD     		pop	{pc}
 2867              		.cfi_endproc
 2868              	.LFE25:
 2869              		.size	tcp_seg_copy, .-tcp_seg_copy
 2870 0046 00BFAFF3 		.section	.text.tcp_recv_null,"ax",%progbits
 2870      0080AFF3 
 2870      0080
 2871              		.align	2
 2872              		.p2align 4,,15
 2873              		.global	tcp_recv_null
 2874              		.thumb
 2875              		.thumb_func
 2876              		.type	tcp_recv_null, %function
 2877              	tcp_recv_null:
 2878              	.LFB26:
 2879              		.loc 1 1101 0
 2880              		.cfi_startproc
 2881              		@ args = 0, pretend = 0, frame = 16
 2882              		@ frame_needed = 0, uses_anonymous_args = 0
 2883 0000 00B5     		push	{lr}
 2884              	.LCFI34:
 2885              		.cfi_def_cfa_offset 4
 2886              		.cfi_offset 14, -4
 2887 0002 85B0     		sub	sp, sp, #20
 2888              	.LCFI35:
 2889              		.cfi_def_cfa_offset 24
 2890 0004 0390     		str	r0, [sp, #12]
 2891 0006 0291     		str	r1, [sp, #8]
 2892 0008 0192     		str	r2, [sp, #4]
 2893 000a 8DF80330 		strb	r3, [sp, #3]
 2894              		.loc 1 1103 0
 2895 000e 019B     		ldr	r3, [sp, #4]
 2896 0010 002B     		cmp	r3, #0
 2897 0012 09D0     		beq	.L175
 2898              		.loc 1 1104 0
 2899 0014 019B     		ldr	r3, [sp, #4]
 2900 0016 1B89     		ldrh	r3, [r3, #8]
 2901 0018 0298     		ldr	r0, [sp, #8]
 2902 001a 1946     		mov	r1, r3
 2903 001c FFF7FEFF 		bl	tcp_recved
 2904              		.loc 1 1105 0
 2905 0020 0198     		ldr	r0, [sp, #4]
 2906 0022 FFF7FEFF 		bl	pbuf_free
 2907 0026 08E0     		b	.L176
 2908              	.L175:
 2909              		.loc 1 1106 0
 2910 0028 9DF90330 		ldrsb	r3, [sp, #3]
 2911 002c 002B     		cmp	r3, #0
 2912 002e 04D1     		bne	.L176
 2913              		.loc 1 1107 0
 2914 0030 0298     		ldr	r0, [sp, #8]
 2915 0032 FFF7FEFF 		bl	tcp_close
 2916 0036 0346     		mov	r3, r0
ARM GAS  /tmp/ccgFJ4Zb.s 			page 53


 2917 0038 01E0     		b	.L177
 2918              	.L176:
 2919              		.loc 1 1109 0
 2920 003a 4FF00003 		mov	r3, #0
 2921              	.L177:
 2922 003e 5BB2     		sxtb	r3, r3
 2923              		.loc 1 1110 0
 2924 0040 1846     		mov	r0, r3
 2925 0042 05B0     		add	sp, sp, #20
 2926 0044 00BD     		pop	{pc}
 2927              		.cfi_endproc
 2928              	.LFE26:
 2929              		.size	tcp_recv_null, .-tcp_recv_null
 2930 0046 00BFAFF3 		.section	.text.tcp_kill_prio,"ax",%progbits
 2930      0080AFF3 
 2930      0080
 2931              		.align	2
 2932              		.p2align 4,,15
 2933              		.thumb
 2934              		.thumb_func
 2935              		.type	tcp_kill_prio, %function
 2936              	tcp_kill_prio:
 2937              	.LFB27:
 2938              		.loc 1 1120 0
 2939              		.cfi_startproc
 2940              		@ args = 0, pretend = 0, frame = 24
 2941              		@ frame_needed = 0, uses_anonymous_args = 0
 2942 0000 00B5     		push	{lr}
 2943              	.LCFI36:
 2944              		.cfi_def_cfa_offset 4
 2945              		.cfi_offset 14, -4
 2946 0002 87B0     		sub	sp, sp, #28
 2947              	.LCFI37:
 2948              		.cfi_def_cfa_offset 32
 2949 0004 0346     		mov	r3, r0
 2950 0006 8DF80730 		strb	r3, [sp, #7]
 2951              		.loc 1 1126 0
 2952 000a 4FF07F03 		mov	r3, #127
 2953 000e 8DF80B30 		strb	r3, [sp, #11]
 2954              		.loc 1 1129 0
 2955 0012 4FF00003 		mov	r3, #0
 2956 0016 0393     		str	r3, [sp, #12]
 2957              		.loc 1 1130 0
 2958 0018 4FF00003 		mov	r3, #0
 2959 001c 0493     		str	r3, [sp, #16]
 2960              		.loc 1 1131 0
 2961 001e 40F20003 		movw	r3, #:lower16:tcp_active_pcbs
 2962 0022 C0F20003 		movt	r3, #:upper16:tcp_active_pcbs
 2963 0026 1B68     		ldr	r3, [r3, #0]
 2964 0028 0593     		str	r3, [sp, #20]
 2965 002a 28E0     		b	.L179
 2966              	.L181:
 2967              		.loc 1 1132 0
 2968 002c 059B     		ldr	r3, [sp, #20]
 2969 002e 5B7C     		ldrb	r3, [r3, #17]	@ zero_extendqisi2
 2970 0030 9DF80720 		ldrb	r2, [sp, #7]	@ zero_extendqisi2
 2971 0034 9A42     		cmp	r2, r3
ARM GAS  /tmp/ccgFJ4Zb.s 			page 54


 2972 0036 1FD3     		bcc	.L180
 2973              		.loc 1 1133 0 discriminator 1
 2974 0038 059B     		ldr	r3, [sp, #20]
 2975 003a 5B7C     		ldrb	r3, [r3, #17]	@ zero_extendqisi2
 2976              		.loc 1 1132 0 discriminator 1
 2977 003c 9DF80B20 		ldrb	r2, [sp, #11]	@ zero_extendqisi2
 2978 0040 9A42     		cmp	r2, r3
 2979 0042 19D3     		bcc	.L180
 2980              		.loc 1 1134 0
 2981 0044 40F20003 		movw	r3, #:lower16:tcp_ticks
 2982 0048 C0F20003 		movt	r3, #:upper16:tcp_ticks
 2983 004c 1A68     		ldr	r2, [r3, #0]
 2984 004e 059B     		ldr	r3, [sp, #20]
 2985 0050 1B6B     		ldr	r3, [r3, #48]
 2986 0052 D21A     		subs	r2, r2, r3
 2987              		.loc 1 1133 0
 2988 0054 039B     		ldr	r3, [sp, #12]
 2989 0056 9A42     		cmp	r2, r3
 2990 0058 0ED3     		bcc	.L180
 2991              		.loc 1 1135 0
 2992 005a 40F20003 		movw	r3, #:lower16:tcp_ticks
 2993 005e C0F20003 		movt	r3, #:upper16:tcp_ticks
 2994 0062 1A68     		ldr	r2, [r3, #0]
 2995 0064 059B     		ldr	r3, [sp, #20]
 2996 0066 1B6B     		ldr	r3, [r3, #48]
 2997 0068 D31A     		subs	r3, r2, r3
 2998 006a 0393     		str	r3, [sp, #12]
 2999              		.loc 1 1136 0
 3000 006c 059B     		ldr	r3, [sp, #20]
 3001 006e 0493     		str	r3, [sp, #16]
 3002              		.loc 1 1137 0
 3003 0070 059B     		ldr	r3, [sp, #20]
 3004 0072 5B7C     		ldrb	r3, [r3, #17]
 3005 0074 8DF80B30 		strb	r3, [sp, #11]
 3006              	.L180:
 3007              		.loc 1 1131 0
 3008 0078 059B     		ldr	r3, [sp, #20]
 3009 007a DB68     		ldr	r3, [r3, #12]
 3010 007c 0593     		str	r3, [sp, #20]
 3011              	.L179:
 3012              		.loc 1 1131 0 is_stmt 0 discriminator 1
 3013 007e 059B     		ldr	r3, [sp, #20]
 3014 0080 002B     		cmp	r3, #0
 3015 0082 D3D1     		bne	.L181
 3016              		.loc 1 1140 0 is_stmt 1
 3017 0084 049B     		ldr	r3, [sp, #16]
 3018 0086 002B     		cmp	r3, #0
 3019 0088 02D0     		beq	.L178
 3020              		.loc 1 1143 0
 3021 008a 0498     		ldr	r0, [sp, #16]
 3022 008c FFF7FEFF 		bl	tcp_abort
 3023              	.L178:
 3024              		.loc 1 1145 0
 3025 0090 07B0     		add	sp, sp, #28
 3026 0092 00BD     		pop	{pc}
 3027              		.cfi_endproc
 3028              	.LFE27:
ARM GAS  /tmp/ccgFJ4Zb.s 			page 55


 3029              		.size	tcp_kill_prio, .-tcp_kill_prio
 3030 0094 AFF30080 		.section	.text.tcp_kill_timewait,"ax",%progbits
 3030      AFF30080 
 3030      AFF30080 
 3031              		.align	2
 3032              		.p2align 4,,15
 3033              		.thumb
 3034              		.thumb_func
 3035              		.type	tcp_kill_timewait, %function
 3036              	tcp_kill_timewait:
 3037              	.LFB28:
 3038              		.loc 1 1153 0
 3039              		.cfi_startproc
 3040              		@ args = 0, pretend = 0, frame = 16
 3041              		@ frame_needed = 0, uses_anonymous_args = 0
 3042 0000 00B5     		push	{lr}
 3043              	.LCFI38:
 3044              		.cfi_def_cfa_offset 4
 3045              		.cfi_offset 14, -4
 3046 0002 85B0     		sub	sp, sp, #20
 3047              	.LCFI39:
 3048              		.cfi_def_cfa_offset 24
 3049              		.loc 1 1157 0
 3050 0004 4FF00003 		mov	r3, #0
 3051 0008 0193     		str	r3, [sp, #4]
 3052              		.loc 1 1158 0
 3053 000a 4FF00003 		mov	r3, #0
 3054 000e 0293     		str	r3, [sp, #8]
 3055              		.loc 1 1160 0
 3056 0010 40F20003 		movw	r3, #:lower16:tcp_tw_pcbs
 3057 0014 C0F20003 		movt	r3, #:upper16:tcp_tw_pcbs
 3058 0018 1B68     		ldr	r3, [r3, #0]
 3059 001a 0393     		str	r3, [sp, #12]
 3060 001c 18E0     		b	.L184
 3061              	.L186:
 3062              		.loc 1 1161 0
 3063 001e 40F20003 		movw	r3, #:lower16:tcp_ticks
 3064 0022 C0F20003 		movt	r3, #:upper16:tcp_ticks
 3065 0026 1A68     		ldr	r2, [r3, #0]
 3066 0028 039B     		ldr	r3, [sp, #12]
 3067 002a 1B6B     		ldr	r3, [r3, #48]
 3068 002c D21A     		subs	r2, r2, r3
 3069 002e 019B     		ldr	r3, [sp, #4]
 3070 0030 9A42     		cmp	r2, r3
 3071 0032 0AD3     		bcc	.L185
 3072              		.loc 1 1162 0
 3073 0034 40F20003 		movw	r3, #:lower16:tcp_ticks
 3074 0038 C0F20003 		movt	r3, #:upper16:tcp_ticks
 3075 003c 1A68     		ldr	r2, [r3, #0]
 3076 003e 039B     		ldr	r3, [sp, #12]
 3077 0040 1B6B     		ldr	r3, [r3, #48]
 3078 0042 D31A     		subs	r3, r2, r3
 3079 0044 0193     		str	r3, [sp, #4]
 3080              		.loc 1 1163 0
 3081 0046 039B     		ldr	r3, [sp, #12]
 3082 0048 0293     		str	r3, [sp, #8]
 3083              	.L185:
ARM GAS  /tmp/ccgFJ4Zb.s 			page 56


 3084              		.loc 1 1160 0
 3085 004a 039B     		ldr	r3, [sp, #12]
 3086 004c DB68     		ldr	r3, [r3, #12]
 3087 004e 0393     		str	r3, [sp, #12]
 3088              	.L184:
 3089              		.loc 1 1160 0 is_stmt 0 discriminator 1
 3090 0050 039B     		ldr	r3, [sp, #12]
 3091 0052 002B     		cmp	r3, #0
 3092 0054 E3D1     		bne	.L186
 3093              		.loc 1 1166 0 is_stmt 1
 3094 0056 029B     		ldr	r3, [sp, #8]
 3095 0058 002B     		cmp	r3, #0
 3096 005a 02D0     		beq	.L183
 3097              		.loc 1 1169 0
 3098 005c 0298     		ldr	r0, [sp, #8]
 3099 005e FFF7FEFF 		bl	tcp_abort
 3100              	.L183:
 3101              		.loc 1 1171 0
 3102 0062 05B0     		add	sp, sp, #20
 3103 0064 00BD     		pop	{pc}
 3104              		.cfi_endproc
 3105              	.LFE28:
 3106              		.size	tcp_kill_timewait, .-tcp_kill_timewait
 3107 0066 00BFAFF3 		.section	.text.tcp_alloc,"ax",%progbits
 3107      0080AFF3 
 3107      0080
 3108              		.align	2
 3109              		.p2align 4,,15
 3110              		.global	tcp_alloc
 3111              		.thumb
 3112              		.thumb_func
 3113              		.type	tcp_alloc, %function
 3114              	tcp_alloc:
 3115              	.LFB29:
 3116              		.loc 1 1181 0
 3117              		.cfi_startproc
 3118              		@ args = 0, pretend = 0, frame = 16
 3119              		@ frame_needed = 0, uses_anonymous_args = 0
 3120 0000 00B5     		push	{lr}
 3121              	.LCFI40:
 3122              		.cfi_def_cfa_offset 4
 3123              		.cfi_offset 14, -4
 3124 0002 85B0     		sub	sp, sp, #20
 3125              	.LCFI41:
 3126              		.cfi_def_cfa_offset 24
 3127 0004 0346     		mov	r3, r0
 3128 0006 8DF80730 		strb	r3, [sp, #7]
 3129              		.loc 1 1185 0
 3130 000a 4FF00200 		mov	r0, #2
 3131 000e FFF7FEFF 		bl	memp_malloc
 3132 0012 0346     		mov	r3, r0
 3133 0014 0393     		str	r3, [sp, #12]
 3134              		.loc 1 1186 0
 3135 0016 039B     		ldr	r3, [sp, #12]
 3136 0018 002B     		cmp	r3, #0
 3137 001a 39D1     		bne	.L189
 3138              		.loc 1 1189 0
ARM GAS  /tmp/ccgFJ4Zb.s 			page 57


 3139 001c FFF7FEFF 		bl	tcp_kill_timewait
 3140              		.loc 1 1191 0
 3141 0020 4FF00200 		mov	r0, #2
 3142 0024 FFF7FEFF 		bl	memp_malloc
 3143 0028 0346     		mov	r3, r0
 3144 002a 0393     		str	r3, [sp, #12]
 3145              		.loc 1 1192 0
 3146 002c 039B     		ldr	r3, [sp, #12]
 3147 002e 002B     		cmp	r3, #0
 3148 0030 1CD1     		bne	.L190
 3149              		.loc 1 1195 0
 3150 0032 9DF80730 		ldrb	r3, [sp, #7]	@ zero_extendqisi2
 3151 0036 1846     		mov	r0, r3
 3152 0038 FFF7FEFF 		bl	tcp_kill_prio
 3153              		.loc 1 1197 0
 3154 003c 4FF00200 		mov	r0, #2
 3155 0040 FFF7FEFF 		bl	memp_malloc
 3156 0044 0346     		mov	r3, r0
 3157 0046 0393     		str	r3, [sp, #12]
 3158              		.loc 1 1198 0
 3159 0048 039B     		ldr	r3, [sp, #12]
 3160 004a 002B     		cmp	r3, #0
 3161 004c 0ED0     		beq	.L190
 3162              		.loc 1 1200 0
 3163 004e 40F20003 		movw	r3, #:lower16:lwip_stats
 3164 0052 C0F20003 		movt	r3, #:upper16:lwip_stats
 3165 0056 B3F8CC30 		ldrh	r3, [r3, #204]
 3166 005a 03F1FF33 		add	r3, r3, #-1
 3167 005e 9AB2     		uxth	r2, r3
 3168 0060 40F20003 		movw	r3, #:lower16:lwip_stats
 3169 0064 C0F20003 		movt	r3, #:upper16:lwip_stats
 3170 0068 A3F8CC20 		strh	r2, [r3, #204]	@ movhi
 3171              	.L190:
 3172              		.loc 1 1203 0
 3173 006c 039B     		ldr	r3, [sp, #12]
 3174 006e 002B     		cmp	r3, #0
 3175 0070 0ED0     		beq	.L189
 3176              		.loc 1 1205 0
 3177 0072 40F20003 		movw	r3, #:lower16:lwip_stats
 3178 0076 C0F20003 		movt	r3, #:upper16:lwip_stats
 3179 007a B3F8CC30 		ldrh	r3, [r3, #204]
 3180 007e 03F1FF33 		add	r3, r3, #-1
 3181 0082 9AB2     		uxth	r2, r3
 3182 0084 40F20003 		movw	r3, #:lower16:lwip_stats
 3183 0088 C0F20003 		movt	r3, #:upper16:lwip_stats
 3184 008c A3F8CC20 		strh	r2, [r3, #204]	@ movhi
 3185              	.L189:
 3186              		.loc 1 1208 0
 3187 0090 039B     		ldr	r3, [sp, #12]
 3188 0092 002B     		cmp	r3, #0
 3189 0094 72D0     		beq	.L191
 3190              		.loc 1 1209 0
 3191 0096 039B     		ldr	r3, [sp, #12]
 3192 0098 1A46     		mov	r2, r3
 3193 009a 4FF0A403 		mov	r3, #164
 3194 009e 1046     		mov	r0, r2
 3195 00a0 4FF00001 		mov	r1, #0
ARM GAS  /tmp/ccgFJ4Zb.s 			page 58


 3196 00a4 1A46     		mov	r2, r3
 3197 00a6 FFF7FEFF 		bl	memset
 3198              		.loc 1 1210 0
 3199 00aa 039B     		ldr	r3, [sp, #12]
 3200 00ac 9DF80720 		ldrb	r2, [sp, #7]
 3201 00b0 5A74     		strb	r2, [r3, #17]
 3202              		.loc 1 1211 0
 3203 00b2 039B     		ldr	r3, [sp, #12]
 3204 00b4 4FF48072 		mov	r2, #256
 3205 00b8 A3F86E20 		strh	r2, [r3, #110]	@ movhi
 3206              		.loc 1 1212 0
 3207 00bc 039B     		ldr	r3, [sp, #12]
 3208 00be 4FF00002 		mov	r2, #0
 3209 00c2 A3F87020 		strh	r2, [r3, #112]	@ movhi
 3210              		.loc 1 1213 0
 3211 00c6 039B     		ldr	r3, [sp, #12]
 3212 00c8 4FF40662 		mov	r2, #2144
 3213 00cc 1A85     		strh	r2, [r3, #40]	@ movhi
 3214              		.loc 1 1214 0
 3215 00ce 039B     		ldr	r3, [sp, #12]
 3216 00d0 4FF40662 		mov	r2, #2144
 3217 00d4 5A85     		strh	r2, [r3, #42]	@ movhi
 3218              		.loc 1 1215 0
 3219 00d6 039B     		ldr	r3, [sp, #12]
 3220 00d8 4FF00002 		mov	r2, #0
 3221 00dc 5A72     		strb	r2, [r3, #9]
 3222              		.loc 1 1216 0
 3223 00de 039B     		ldr	r3, [sp, #12]
 3224 00e0 4FF0FF02 		mov	r2, #255
 3225 00e4 9A72     		strb	r2, [r3, #10]
 3226              		.loc 1 1219 0
 3227 00e6 039B     		ldr	r3, [sp, #12]
 3228 00e8 4FF40672 		mov	r2, #536
 3229 00ec 1A87     		strh	r2, [r3, #56]	@ movhi
 3230              		.loc 1 1220 0
 3231 00ee 039B     		ldr	r3, [sp, #12]
 3232 00f0 4FF00602 		mov	r2, #6
 3233 00f4 A3F84820 		strh	r2, [r3, #72]	@ movhi
 3234              		.loc 1 1221 0
 3235 00f8 039B     		ldr	r3, [sp, #12]
 3236 00fa 4FF00002 		mov	r2, #0
 3237 00fe A3F84420 		strh	r2, [r3, #68]	@ movhi
 3238              		.loc 1 1222 0
 3239 0102 039B     		ldr	r3, [sp, #12]
 3240 0104 4FF00602 		mov	r2, #6
 3241 0108 A3F84620 		strh	r2, [r3, #70]	@ movhi
 3242              		.loc 1 1223 0
 3243 010c 039B     		ldr	r3, [sp, #12]
 3244 010e 4FF6FF72 		movw	r2, #65535
 3245 0112 DA86     		strh	r2, [r3, #54]	@ movhi
 3246              		.loc 1 1224 0
 3247 0114 039B     		ldr	r3, [sp, #12]
 3248 0116 4FF00102 		mov	r2, #1
 3249 011a A3F85220 		strh	r2, [r3, #82]	@ movhi
 3250              		.loc 1 1225 0
 3251 011e FFF7FEFF 		bl	tcp_next_iss
 3252 0122 0346     		mov	r3, r0
ARM GAS  /tmp/ccgFJ4Zb.s 			page 59


 3253 0124 0293     		str	r3, [sp, #8]
 3254              		.loc 1 1226 0
 3255 0126 039B     		ldr	r3, [sp, #12]
 3256 0128 029A     		ldr	r2, [sp, #8]
 3257 012a 5A66     		str	r2, [r3, #100]
 3258              		.loc 1 1227 0
 3259 012c 039B     		ldr	r3, [sp, #12]
 3260 012e 029A     		ldr	r2, [sp, #8]
 3261 0130 9A65     		str	r2, [r3, #88]
 3262              		.loc 1 1228 0
 3263 0132 039B     		ldr	r3, [sp, #12]
 3264 0134 029A     		ldr	r2, [sp, #8]
 3265 0136 DA64     		str	r2, [r3, #76]
 3266              		.loc 1 1229 0
 3267 0138 039B     		ldr	r3, [sp, #12]
 3268 013a 029A     		ldr	r2, [sp, #8]
 3269 013c 9A66     		str	r2, [r3, #104]
 3270              		.loc 1 1230 0
 3271 013e 40F20003 		movw	r3, #:lower16:tcp_ticks
 3272 0142 C0F20003 		movt	r3, #:upper16:tcp_ticks
 3273 0146 1A68     		ldr	r2, [r3, #0]
 3274 0148 039B     		ldr	r3, [sp, #12]
 3275 014a 1A63     		str	r2, [r3, #48]
 3276              		.loc 1 1232 0
 3277 014c 039B     		ldr	r3, [sp, #12]
 3278 014e 4FF00002 		mov	r2, #0
 3279 0152 83F83420 		strb	r2, [r3, #52]
 3280              		.loc 1 1235 0
 3281 0156 039A     		ldr	r2, [sp, #12]
 3282 0158 40F20003 		movw	r3, #:lower16:tcp_recv_null
 3283 015c C0F20003 		movt	r3, #:upper16:tcp_recv_null
 3284 0160 C2F88830 		str	r3, [r2, #136]
 3285              		.loc 1 1239 0
 3286 0164 039A     		ldr	r2, [sp, #12]
 3287 0166 4FF45D43 		mov	r3, #56576
 3288 016a C0F26D03 		movt	r3, 109
 3289 016e C2F89830 		str	r3, [r2, #152]
 3290              		.loc 1 1246 0
 3291 0172 039B     		ldr	r3, [sp, #12]
 3292 0174 4FF00002 		mov	r2, #0
 3293 0178 83F8A120 		strb	r2, [r3, #161]
 3294              	.L191:
 3295              		.loc 1 1248 0
 3296 017c 039B     		ldr	r3, [sp, #12]
 3297              		.loc 1 1249 0
 3298 017e 1846     		mov	r0, r3
 3299 0180 05B0     		add	sp, sp, #20
 3300 0182 00BD     		pop	{pc}
 3301              		.cfi_endproc
 3302              	.LFE29:
 3303              		.size	tcp_alloc, .-tcp_alloc
 3304 0184 AFF30080 		.section	.text.tcp_new,"ax",%progbits
 3304      AFF30080 
 3304      AFF30080 
 3305              		.align	2
 3306              		.p2align 4,,15
 3307              		.global	tcp_new
ARM GAS  /tmp/ccgFJ4Zb.s 			page 60


 3308              		.thumb
 3309              		.thumb_func
 3310              		.type	tcp_new, %function
 3311              	tcp_new:
 3312              	.LFB30:
 3313              		.loc 1 1265 0
 3314              		.cfi_startproc
 3315              		@ args = 0, pretend = 0, frame = 0
 3316              		@ frame_needed = 0, uses_anonymous_args = 0
 3317 0000 08B5     		push	{r3, lr}
 3318              	.LCFI42:
 3319              		.cfi_def_cfa_offset 8
 3320              		.cfi_offset 14, -4
 3321              		.cfi_offset 3, -8
 3322              		.loc 1 1266 0
 3323 0002 4FF04000 		mov	r0, #64
 3324 0006 FFF7FEFF 		bl	tcp_alloc
 3325 000a 0346     		mov	r3, r0
 3326              		.loc 1 1267 0
 3327 000c 1846     		mov	r0, r3
 3328 000e 08BD     		pop	{r3, pc}
 3329              		.cfi_endproc
 3330              	.LFE30:
 3331              		.size	tcp_new, .-tcp_new
 3332              		.section	.text.tcp_arg,"ax",%progbits
 3333              		.align	2
 3334              		.p2align 4,,15
 3335              		.global	tcp_arg
 3336              		.thumb
 3337              		.thumb_func
 3338              		.type	tcp_arg, %function
 3339              	tcp_arg:
 3340              	.LFB31:
 3341              		.loc 1 1278 0
 3342              		.cfi_startproc
 3343              		@ args = 0, pretend = 0, frame = 8
 3344              		@ frame_needed = 0, uses_anonymous_args = 0
 3345              		@ link register save eliminated.
 3346 0000 82B0     		sub	sp, sp, #8
 3347              	.LCFI43:
 3348              		.cfi_def_cfa_offset 8
 3349 0002 0190     		str	r0, [sp, #4]
 3350 0004 0091     		str	r1, [sp, #0]
 3351              		.loc 1 1279 0
 3352 0006 019B     		ldr	r3, [sp, #4]
 3353 0008 009A     		ldr	r2, [sp, #0]
 3354 000a 5A61     		str	r2, [r3, #20]
 3355              		.loc 1 1280 0
 3356 000c 02B0     		add	sp, sp, #8
 3357 000e 7047     		bx	lr
 3358              		.cfi_endproc
 3359              	.LFE31:
 3360              		.size	tcp_arg, .-tcp_arg
 3361              		.section	.text.tcp_recv,"ax",%progbits
 3362              		.align	2
 3363              		.p2align 4,,15
 3364              		.global	tcp_recv
ARM GAS  /tmp/ccgFJ4Zb.s 			page 61


 3365              		.thumb
 3366              		.thumb_func
 3367              		.type	tcp_recv, %function
 3368              	tcp_recv:
 3369              	.LFB32:
 3370              		.loc 1 1292 0
 3371              		.cfi_startproc
 3372              		@ args = 0, pretend = 0, frame = 8
 3373              		@ frame_needed = 0, uses_anonymous_args = 0
 3374              		@ link register save eliminated.
 3375 0000 82B0     		sub	sp, sp, #8
 3376              	.LCFI44:
 3377              		.cfi_def_cfa_offset 8
 3378 0002 0190     		str	r0, [sp, #4]
 3379 0004 0091     		str	r1, [sp, #0]
 3380              		.loc 1 1293 0
 3381 0006 019B     		ldr	r3, [sp, #4]
 3382 0008 009A     		ldr	r2, [sp, #0]
 3383 000a C3F88820 		str	r2, [r3, #136]
 3384              		.loc 1 1294 0
 3385 000e 02B0     		add	sp, sp, #8
 3386 0010 7047     		bx	lr
 3387              		.cfi_endproc
 3388              	.LFE32:
 3389              		.size	tcp_recv, .-tcp_recv
 3390 0012 00BFAFF3 		.section	.text.tcp_sent,"ax",%progbits
 3390      0080AFF3 
 3390      0080AFF3 
 3390      0080
 3391              		.align	2
 3392              		.p2align 4,,15
 3393              		.global	tcp_sent
 3394              		.thumb
 3395              		.thumb_func
 3396              		.type	tcp_sent, %function
 3397              	tcp_sent:
 3398              	.LFB33:
 3399              		.loc 1 1305 0
 3400              		.cfi_startproc
 3401              		@ args = 0, pretend = 0, frame = 8
 3402              		@ frame_needed = 0, uses_anonymous_args = 0
 3403              		@ link register save eliminated.
 3404 0000 82B0     		sub	sp, sp, #8
 3405              	.LCFI45:
 3406              		.cfi_def_cfa_offset 8
 3407 0002 0190     		str	r0, [sp, #4]
 3408 0004 0091     		str	r1, [sp, #0]
 3409              		.loc 1 1306 0
 3410 0006 019B     		ldr	r3, [sp, #4]
 3411 0008 009A     		ldr	r2, [sp, #0]
 3412 000a C3F88420 		str	r2, [r3, #132]
 3413              		.loc 1 1307 0
 3414 000e 02B0     		add	sp, sp, #8
 3415 0010 7047     		bx	lr
 3416              		.cfi_endproc
 3417              	.LFE33:
 3418              		.size	tcp_sent, .-tcp_sent
ARM GAS  /tmp/ccgFJ4Zb.s 			page 62


 3419 0012 00BFAFF3 		.section	.text.tcp_err,"ax",%progbits
 3419      0080AFF3 
 3419      0080AFF3 
 3419      0080
 3420              		.align	2
 3421              		.p2align 4,,15
 3422              		.global	tcp_err
 3423              		.thumb
 3424              		.thumb_func
 3425              		.type	tcp_err, %function
 3426              	tcp_err:
 3427              	.LFB34:
 3428              		.loc 1 1319 0
 3429              		.cfi_startproc
 3430              		@ args = 0, pretend = 0, frame = 8
 3431              		@ frame_needed = 0, uses_anonymous_args = 0
 3432              		@ link register save eliminated.
 3433 0000 82B0     		sub	sp, sp, #8
 3434              	.LCFI46:
 3435              		.cfi_def_cfa_offset 8
 3436 0002 0190     		str	r0, [sp, #4]
 3437 0004 0091     		str	r1, [sp, #0]
 3438              		.loc 1 1320 0
 3439 0006 019B     		ldr	r3, [sp, #4]
 3440 0008 009A     		ldr	r2, [sp, #0]
 3441 000a C3F89420 		str	r2, [r3, #148]
 3442              		.loc 1 1321 0
 3443 000e 02B0     		add	sp, sp, #8
 3444 0010 7047     		bx	lr
 3445              		.cfi_endproc
 3446              	.LFE34:
 3447              		.size	tcp_err, .-tcp_err
 3448 0012 00BFAFF3 		.section	.text.tcp_accept,"ax",%progbits
 3448      0080AFF3 
 3448      0080AFF3 
 3448      0080
 3449              		.align	2
 3450              		.p2align 4,,15
 3451              		.global	tcp_accept
 3452              		.thumb
 3453              		.thumb_func
 3454              		.type	tcp_accept, %function
 3455              	tcp_accept:
 3456              	.LFB35:
 3457              		.loc 1 1333 0
 3458              		.cfi_startproc
 3459              		@ args = 0, pretend = 0, frame = 8
 3460              		@ frame_needed = 0, uses_anonymous_args = 0
 3461              		@ link register save eliminated.
 3462 0000 82B0     		sub	sp, sp, #8
 3463              	.LCFI47:
 3464              		.cfi_def_cfa_offset 8
 3465 0002 0190     		str	r0, [sp, #4]
 3466 0004 0091     		str	r1, [sp, #0]
 3467              		.loc 1 1334 0
 3468 0006 019B     		ldr	r3, [sp, #4]
 3469 0008 009A     		ldr	r2, [sp, #0]
ARM GAS  /tmp/ccgFJ4Zb.s 			page 63


 3470 000a 9A61     		str	r2, [r3, #24]
 3471              		.loc 1 1335 0
 3472 000c 02B0     		add	sp, sp, #8
 3473 000e 7047     		bx	lr
 3474              		.cfi_endproc
 3475              	.LFE35:
 3476              		.size	tcp_accept, .-tcp_accept
 3477              		.section	.text.tcp_poll,"ax",%progbits
 3478              		.align	2
 3479              		.p2align 4,,15
 3480              		.global	tcp_poll
 3481              		.thumb
 3482              		.thumb_func
 3483              		.type	tcp_poll, %function
 3484              	tcp_poll:
 3485              	.LFB36:
 3486              		.loc 1 1347 0
 3487              		.cfi_startproc
 3488              		@ args = 0, pretend = 0, frame = 16
 3489              		@ frame_needed = 0, uses_anonymous_args = 0
 3490              		@ link register save eliminated.
 3491 0000 84B0     		sub	sp, sp, #16
 3492              	.LCFI48:
 3493              		.cfi_def_cfa_offset 16
 3494 0002 0390     		str	r0, [sp, #12]
 3495 0004 0291     		str	r1, [sp, #8]
 3496 0006 1346     		mov	r3, r2
 3497 0008 8DF80730 		strb	r3, [sp, #7]
 3498              		.loc 1 1349 0
 3499 000c 039B     		ldr	r3, [sp, #12]
 3500 000e 029A     		ldr	r2, [sp, #8]
 3501 0010 C3F89020 		str	r2, [r3, #144]
 3502              		.loc 1 1353 0
 3503 0014 039B     		ldr	r3, [sp, #12]
 3504 0016 9DF80720 		ldrb	r2, [sp, #7]
 3505 001a 83F83520 		strb	r2, [r3, #53]
 3506              		.loc 1 1354 0
 3507 001e 04B0     		add	sp, sp, #16
 3508 0020 7047     		bx	lr
 3509              		.cfi_endproc
 3510              	.LFE36:
 3511              		.size	tcp_poll, .-tcp_poll
 3512 0022 00BFAFF3 		.section	.text.tcp_pcb_purge,"ax",%progbits
 3512      0080AFF3 
 3512      0080AFF3 
 3512      0080
 3513              		.align	2
 3514              		.p2align 4,,15
 3515              		.global	tcp_pcb_purge
 3516              		.thumb
 3517              		.thumb_func
 3518              		.type	tcp_pcb_purge, %function
 3519              	tcp_pcb_purge:
 3520              	.LFB37:
 3521              		.loc 1 1364 0
 3522              		.cfi_startproc
 3523              		@ args = 0, pretend = 0, frame = 8
ARM GAS  /tmp/ccgFJ4Zb.s 			page 64


 3524              		@ frame_needed = 0, uses_anonymous_args = 0
 3525 0000 00B5     		push	{lr}
 3526              	.LCFI49:
 3527              		.cfi_def_cfa_offset 4
 3528              		.cfi_offset 14, -4
 3529 0002 83B0     		sub	sp, sp, #12
 3530              	.LCFI50:
 3531              		.cfi_def_cfa_offset 16
 3532 0004 0190     		str	r0, [sp, #4]
 3533              		.loc 1 1365 0
 3534 0006 019B     		ldr	r3, [sp, #4]
 3535 0008 1B7C     		ldrb	r3, [r3, #16]	@ zero_extendqisi2
 3536 000a 002B     		cmp	r3, #0
 3537 000c 3BD0     		beq	.L199
 3538              		.loc 1 1366 0 discriminator 1
 3539 000e 019B     		ldr	r3, [sp, #4]
 3540 0010 1B7C     		ldrb	r3, [r3, #16]	@ zero_extendqisi2
 3541              		.loc 1 1365 0 discriminator 1
 3542 0012 0A2B     		cmp	r3, #10
 3543 0014 37D0     		beq	.L199
 3544              		.loc 1 1367 0
 3545 0016 019B     		ldr	r3, [sp, #4]
 3546 0018 1B7C     		ldrb	r3, [r3, #16]	@ zero_extendqisi2
 3547              		.loc 1 1366 0
 3548 001a 012B     		cmp	r3, #1
 3549 001c 33D0     		beq	.L199
 3550              		.loc 1 1392 0
 3551 001e 019B     		ldr	r3, [sp, #4]
 3552 0020 D3F88030 		ldr	r3, [r3, #128]
 3553 0024 002B     		cmp	r3, #0
 3554 0026 0AD0     		beq	.L201
 3555              		.loc 1 1394 0
 3556 0028 019B     		ldr	r3, [sp, #4]
 3557 002a D3F88030 		ldr	r3, [r3, #128]
 3558 002e 1846     		mov	r0, r3
 3559 0030 FFF7FEFF 		bl	pbuf_free
 3560              		.loc 1 1395 0
 3561 0034 019B     		ldr	r3, [sp, #4]
 3562 0036 4FF00002 		mov	r2, #0
 3563 003a C3F88020 		str	r2, [r3, #128]
 3564              	.L201:
 3565              		.loc 1 1407 0
 3566 003e 019B     		ldr	r3, [sp, #4]
 3567 0040 DB6F     		ldr	r3, [r3, #124]
 3568 0042 1846     		mov	r0, r3
 3569 0044 FFF7FEFF 		bl	tcp_segs_free
 3570              		.loc 1 1408 0
 3571 0048 019B     		ldr	r3, [sp, #4]
 3572 004a 4FF00002 		mov	r2, #0
 3573 004e DA67     		str	r2, [r3, #124]
 3574              		.loc 1 1413 0
 3575 0050 019B     		ldr	r3, [sp, #4]
 3576 0052 4FF6FF72 		movw	r2, #65535
 3577 0056 DA86     		strh	r2, [r3, #54]	@ movhi
 3578              		.loc 1 1415 0
 3579 0058 019B     		ldr	r3, [sp, #4]
 3580 005a 5B6F     		ldr	r3, [r3, #116]
ARM GAS  /tmp/ccgFJ4Zb.s 			page 65


 3581 005c 1846     		mov	r0, r3
 3582 005e FFF7FEFF 		bl	tcp_segs_free
 3583              		.loc 1 1416 0
 3584 0062 019B     		ldr	r3, [sp, #4]
 3585 0064 9B6F     		ldr	r3, [r3, #120]
 3586 0066 1846     		mov	r0, r3
 3587 0068 FFF7FEFF 		bl	tcp_segs_free
 3588              		.loc 1 1417 0
 3589 006c 019B     		ldr	r3, [sp, #4]
 3590 006e 4FF00002 		mov	r2, #0
 3591 0072 5A67     		str	r2, [r3, #116]
 3592 0074 019B     		ldr	r3, [sp, #4]
 3593 0076 5A6F     		ldr	r2, [r3, #116]
 3594 0078 019B     		ldr	r3, [sp, #4]
 3595 007a 9A67     		str	r2, [r3, #120]
 3596              		.loc 1 1419 0
 3597 007c 019B     		ldr	r3, [sp, #4]
 3598 007e 4FF00002 		mov	r2, #0
 3599 0082 A3F87220 		strh	r2, [r3, #114]	@ movhi
 3600              	.L199:
 3601              		.loc 1 1422 0
 3602 0086 03B0     		add	sp, sp, #12
 3603 0088 00BD     		pop	{pc}
 3604              		.cfi_endproc
 3605              	.LFE37:
 3606              		.size	tcp_pcb_purge, .-tcp_pcb_purge
 3607 008a 00BFAFF3 		.section	.text.tcp_pcb_remove,"ax",%progbits
 3607      0080
 3608              		.align	2
 3609              		.p2align 4,,15
 3610              		.global	tcp_pcb_remove
 3611              		.thumb
 3612              		.thumb_func
 3613              		.type	tcp_pcb_remove, %function
 3614              	tcp_pcb_remove:
 3615              	.LFB38:
 3616              		.loc 1 1432 0
 3617              		.cfi_startproc
 3618              		@ args = 0, pretend = 0, frame = 8
 3619              		@ frame_needed = 0, uses_anonymous_args = 0
 3620 0000 00B5     		push	{lr}
 3621              	.LCFI51:
 3622              		.cfi_def_cfa_offset 4
 3623              		.cfi_offset 14, -4
 3624 0002 83B0     		sub	sp, sp, #12
 3625              	.LCFI52:
 3626              		.cfi_def_cfa_offset 16
 3627 0004 0190     		str	r0, [sp, #4]
 3628 0006 0091     		str	r1, [sp, #0]
 3629              		.loc 1 1433 0
 3630 0008 019B     		ldr	r3, [sp, #4]
 3631 000a 1A68     		ldr	r2, [r3, #0]
 3632 000c 009B     		ldr	r3, [sp, #0]
 3633 000e 9A42     		cmp	r2, r3
 3634 0010 05D1     		bne	.L203
 3635              		.loc 1 1433 0 is_stmt 0 discriminator 1
 3636 0012 019B     		ldr	r3, [sp, #4]
ARM GAS  /tmp/ccgFJ4Zb.s 			page 66


 3637 0014 1B68     		ldr	r3, [r3, #0]
 3638 0016 DA68     		ldr	r2, [r3, #12]
 3639 0018 019B     		ldr	r3, [sp, #4]
 3640 001a 1A60     		str	r2, [r3, #0]
 3641 001c 2BE0     		b	.L204
 3642              	.L203:
 3643              		.loc 1 1433 0 discriminator 2
 3644 001e 019B     		ldr	r3, [sp, #4]
 3645 0020 1A68     		ldr	r2, [r3, #0]
 3646 0022 40F20003 		movw	r3, #:lower16:tcp_tmp_pcb
 3647 0026 C0F20003 		movt	r3, #:upper16:tcp_tmp_pcb
 3648 002a 1A60     		str	r2, [r3, #0]
 3649 002c 1CE0     		b	.L205
 3650              	.L207:
 3651              		.loc 1 1433 0 discriminator 7
 3652 002e 40F20003 		movw	r3, #:lower16:tcp_tmp_pcb
 3653 0032 C0F20003 		movt	r3, #:upper16:tcp_tmp_pcb
 3654 0036 1B68     		ldr	r3, [r3, #0]
 3655 0038 DA68     		ldr	r2, [r3, #12]
 3656 003a 009B     		ldr	r3, [sp, #0]
 3657 003c 9A42     		cmp	r2, r3
 3658 003e 08D1     		bne	.L206
 3659              		.loc 1 1433 0 discriminator 4
 3660 0040 40F20003 		movw	r3, #:lower16:tcp_tmp_pcb
 3661 0044 C0F20003 		movt	r3, #:upper16:tcp_tmp_pcb
 3662 0048 1B68     		ldr	r3, [r3, #0]
 3663 004a 009A     		ldr	r2, [sp, #0]
 3664 004c D268     		ldr	r2, [r2, #12]
 3665 004e DA60     		str	r2, [r3, #12]
 3666 0050 11E0     		b	.L204
 3667              	.L206:
 3668              		.loc 1 1433 0 discriminator 5
 3669 0052 40F20003 		movw	r3, #:lower16:tcp_tmp_pcb
 3670 0056 C0F20003 		movt	r3, #:upper16:tcp_tmp_pcb
 3671 005a 1B68     		ldr	r3, [r3, #0]
 3672 005c DA68     		ldr	r2, [r3, #12]
 3673 005e 40F20003 		movw	r3, #:lower16:tcp_tmp_pcb
 3674 0062 C0F20003 		movt	r3, #:upper16:tcp_tmp_pcb
 3675 0066 1A60     		str	r2, [r3, #0]
 3676              	.L205:
 3677              		.loc 1 1433 0 discriminator 3
 3678 0068 40F20003 		movw	r3, #:lower16:tcp_tmp_pcb
 3679 006c C0F20003 		movt	r3, #:upper16:tcp_tmp_pcb
 3680 0070 1B68     		ldr	r3, [r3, #0]
 3681 0072 002B     		cmp	r3, #0
 3682 0074 DBD1     		bne	.L207
 3683              	.L204:
 3684              		.loc 1 1433 0 discriminator 6
 3685 0076 009B     		ldr	r3, [sp, #0]
 3686 0078 4FF00002 		mov	r2, #0
 3687 007c DA60     		str	r2, [r3, #12]
 3688              		.loc 1 1435 0 is_stmt 1 discriminator 6
 3689 007e 0098     		ldr	r0, [sp, #0]
 3690 0080 FFF7FEFF 		bl	tcp_pcb_purge
 3691              		.loc 1 1438 0 discriminator 6
 3692 0084 009B     		ldr	r3, [sp, #0]
 3693 0086 1B7C     		ldrb	r3, [r3, #16]	@ zero_extendqisi2
ARM GAS  /tmp/ccgFJ4Zb.s 			page 67


 3694 0088 0A2B     		cmp	r3, #10
 3695 008a 17D0     		beq	.L208
 3696              		.loc 1 1439 0 discriminator 1
 3697 008c 009B     		ldr	r3, [sp, #0]
 3698 008e 1B7C     		ldrb	r3, [r3, #16]	@ zero_extendqisi2
 3699              		.loc 1 1438 0 discriminator 1
 3700 0090 012B     		cmp	r3, #1
 3701 0092 13D0     		beq	.L208
 3702              		.loc 1 1440 0
 3703 0094 009B     		ldr	r3, [sp, #0]
 3704 0096 93F82030 		ldrb	r3, [r3, #32]	@ zero_extendqisi2
 3705              		.loc 1 1439 0
 3706 009a 03F00103 		and	r3, r3, #1
 3707 009e DBB2     		uxtb	r3, r3
 3708 00a0 002B     		cmp	r3, #0
 3709 00a2 0BD0     		beq	.L208
 3710              		.loc 1 1441 0
 3711 00a4 009B     		ldr	r3, [sp, #0]
 3712 00a6 93F82030 		ldrb	r3, [r3, #32]	@ zero_extendqisi2
 3713 00aa 43F00203 		orr	r3, r3, #2
 3714 00ae DAB2     		uxtb	r2, r3
 3715 00b0 009B     		ldr	r3, [sp, #0]
 3716 00b2 83F82020 		strb	r2, [r3, #32]
 3717              		.loc 1 1442 0
 3718 00b6 0098     		ldr	r0, [sp, #0]
 3719 00b8 FFF7FEFF 		bl	tcp_output
 3720              	.L208:
 3721              		.loc 1 1445 0
 3722 00bc 009B     		ldr	r3, [sp, #0]
 3723 00be 1B7C     		ldrb	r3, [r3, #16]	@ zero_extendqisi2
 3724 00c0 012B     		cmp	r3, #1
 3725 00c2 11D0     		beq	.L209
 3726              		.loc 1 1446 0
 3727 00c4 009B     		ldr	r3, [sp, #0]
 3728 00c6 5B6F     		ldr	r3, [r3, #116]
 3729 00c8 002B     		cmp	r3, #0
 3730 00ca 01D0     		beq	.L210
 3731              		.loc 1 1446 0 is_stmt 0 discriminator 1
 3732 00cc FFF7FEFF 		bl	port_halt
 3733              	.L210:
 3734              		.loc 1 1447 0 is_stmt 1
 3735 00d0 009B     		ldr	r3, [sp, #0]
 3736 00d2 9B6F     		ldr	r3, [r3, #120]
 3737 00d4 002B     		cmp	r3, #0
 3738 00d6 01D0     		beq	.L211
 3739              		.loc 1 1447 0 is_stmt 0 discriminator 1
 3740 00d8 FFF7FEFF 		bl	port_halt
 3741              	.L211:
 3742              		.loc 1 1449 0 is_stmt 1
 3743 00dc 009B     		ldr	r3, [sp, #0]
 3744 00de DB6F     		ldr	r3, [r3, #124]
 3745 00e0 002B     		cmp	r3, #0
 3746 00e2 01D0     		beq	.L209
 3747              		.loc 1 1449 0 is_stmt 0 discriminator 1
 3748 00e4 FFF7FEFF 		bl	port_halt
 3749              	.L209:
 3750              		.loc 1 1453 0 is_stmt 1
ARM GAS  /tmp/ccgFJ4Zb.s 			page 68


 3751 00e8 009B     		ldr	r3, [sp, #0]
 3752 00ea 4FF00002 		mov	r2, #0
 3753 00ee 1A74     		strb	r2, [r3, #16]
 3754              		.loc 1 1456 0
 3755 00f0 03B0     		add	sp, sp, #12
 3756 00f2 00BD     		pop	{pc}
 3757              		.cfi_endproc
 3758              	.LFE38:
 3759              		.size	tcp_pcb_remove, .-tcp_pcb_remove
 3760 00f4 AFF30080 		.section	.text.tcp_next_iss,"ax",%progbits
 3760      AFF30080 
 3760      AFF30080 
 3761              		.align	2
 3762              		.p2align 4,,15
 3763              		.global	tcp_next_iss
 3764              		.thumb
 3765              		.thumb_func
 3766              		.type	tcp_next_iss, %function
 3767              	tcp_next_iss:
 3768              	.LFB39:
 3769              		.loc 1 1465 0
 3770              		.cfi_startproc
 3771              		@ args = 0, pretend = 0, frame = 0
 3772              		@ frame_needed = 0, uses_anonymous_args = 0
 3773              		@ link register save eliminated.
 3774              		.loc 1 1468 0
 3775 0000 40F20003 		movw	r3, #:lower16:iss.5946
 3776 0004 C0F20003 		movt	r3, #:upper16:iss.5946
 3777 0008 1A68     		ldr	r2, [r3, #0]
 3778 000a 40F20003 		movw	r3, #:lower16:tcp_ticks
 3779 000e C0F20003 		movt	r3, #:upper16:tcp_ticks
 3780 0012 1B68     		ldr	r3, [r3, #0]
 3781 0014 D218     		adds	r2, r2, r3
 3782 0016 40F20003 		movw	r3, #:lower16:iss.5946
 3783 001a C0F20003 		movt	r3, #:upper16:iss.5946
 3784 001e 1A60     		str	r2, [r3, #0]
 3785              		.loc 1 1469 0
 3786 0020 40F20003 		movw	r3, #:lower16:iss.5946
 3787 0024 C0F20003 		movt	r3, #:upper16:iss.5946
 3788 0028 1B68     		ldr	r3, [r3, #0]
 3789              		.loc 1 1470 0
 3790 002a 1846     		mov	r0, r3
 3791 002c 7047     		bx	lr
 3792              		.cfi_endproc
 3793              	.LFE39:
 3794              		.size	tcp_next_iss, .-tcp_next_iss
 3795 002e 00BF     		.section	.text.tcp_eff_send_mss,"ax",%progbits
 3796              		.align	2
 3797              		.p2align 4,,15
 3798              		.global	tcp_eff_send_mss
 3799              		.thumb
 3800              		.thumb_func
 3801              		.type	tcp_eff_send_mss, %function
 3802              	tcp_eff_send_mss:
 3803              	.LFB40:
 3804              		.loc 1 1480 0
 3805              		.cfi_startproc
ARM GAS  /tmp/ccgFJ4Zb.s 			page 69


 3806              		@ args = 0, pretend = 0, frame = 16
 3807              		@ frame_needed = 0, uses_anonymous_args = 0
 3808 0000 00B5     		push	{lr}
 3809              	.LCFI53:
 3810              		.cfi_def_cfa_offset 4
 3811              		.cfi_offset 14, -4
 3812 0002 85B0     		sub	sp, sp, #20
 3813              	.LCFI54:
 3814              		.cfi_def_cfa_offset 24
 3815 0004 0346     		mov	r3, r0
 3816 0006 0091     		str	r1, [sp, #0]
 3817 0008 ADF80630 		strh	r3, [sp, #6]	@ movhi
 3818              		.loc 1 1484 0
 3819 000c 0098     		ldr	r0, [sp, #0]
 3820 000e FFF7FEFF 		bl	ip_route
 3821 0012 0346     		mov	r3, r0
 3822 0014 0393     		str	r3, [sp, #12]
 3823              		.loc 1 1485 0
 3824 0016 039B     		ldr	r3, [sp, #12]
 3825 0018 002B     		cmp	r3, #0
 3826 001a 12D0     		beq	.L214
 3827              		.loc 1 1485 0 is_stmt 0 discriminator 1
 3828 001c 039B     		ldr	r3, [sp, #12]
 3829 001e 1B8C     		ldrh	r3, [r3, #32]
 3830 0020 002B     		cmp	r3, #0
 3831 0022 0ED0     		beq	.L214
 3832              		.loc 1 1486 0 is_stmt 1
 3833 0024 039B     		ldr	r3, [sp, #12]
 3834 0026 1B8C     		ldrh	r3, [r3, #32]
 3835 0028 A3F12803 		sub	r3, r3, #40
 3836 002c ADF80A30 		strh	r3, [sp, #10]	@ movhi
 3837              		.loc 1 1491 0
 3838 0030 BDF80A20 		ldrh	r2, [sp, #10]
 3839 0034 BDF80630 		ldrh	r3, [sp, #6]
 3840 0038 9A42     		cmp	r2, r3
 3841 003a 38BF     		it	cc
 3842 003c 1346     		movcc	r3, r2
 3843 003e ADF80630 		strh	r3, [sp, #6]	@ movhi
 3844              	.L214:
 3845              		.loc 1 1493 0
 3846 0042 BDF80630 		ldrh	r3, [sp, #6]
 3847              		.loc 1 1494 0
 3848 0046 1846     		mov	r0, r3
 3849 0048 05B0     		add	sp, sp, #20
 3850 004a 00BD     		pop	{pc}
 3851              		.cfi_endproc
 3852              	.LFE40:
 3853              		.size	tcp_eff_send_mss, .-tcp_eff_send_mss
 3854 004c AFF30080 		.section	.text.tcp_debug_state_str,"ax",%progbits
 3855              		.align	2
 3856              		.p2align 4,,15
 3857              		.global	tcp_debug_state_str
 3858              		.thumb
 3859              		.thumb_func
 3860              		.type	tcp_debug_state_str, %function
 3861              	tcp_debug_state_str:
 3862              	.LFB41:
ARM GAS  /tmp/ccgFJ4Zb.s 			page 70


 3863              		.loc 1 1499 0
 3864              		.cfi_startproc
 3865              		@ args = 0, pretend = 0, frame = 8
 3866              		@ frame_needed = 0, uses_anonymous_args = 0
 3867              		@ link register save eliminated.
 3868 0000 82B0     		sub	sp, sp, #8
 3869              	.LCFI55:
 3870              		.cfi_def_cfa_offset 8
 3871 0002 0346     		mov	r3, r0
 3872 0004 8DF80730 		strb	r3, [sp, #7]
 3873              		.loc 1 1500 0
 3874 0008 9DF80720 		ldrb	r2, [sp, #7]	@ zero_extendqisi2
 3875 000c 40F20003 		movw	r3, #:lower16:tcp_state_str
 3876 0010 C0F20003 		movt	r3, #:upper16:tcp_state_str
 3877 0014 53F82230 		ldr	r3, [r3, r2, lsl #2]
 3878              		.loc 1 1501 0
 3879 0018 1846     		mov	r0, r3
 3880 001a 02B0     		add	sp, sp, #8
 3881 001c 7047     		bx	lr
 3882              		.cfi_endproc
 3883              	.LFE41:
 3884              		.size	tcp_debug_state_str, .-tcp_debug_state_str
 3885 001e 00BF     		.section	.data.iss.5946,"aw",%progbits
 3886              		.align	2
 3887              		.type	iss.5946, %object
 3888              		.size	iss.5946, 4
 3889              	iss.5946:
 3890 0000 6E190000 		.word	6510
 3891              		.section	.data.port.5810,"aw",%progbits
 3892              		.align	1
 3893              		.type	port.5810, %object
 3894              		.size	port.5810, 2
 3895              	port.5810:
 3896 0000 00C0     		.short	-16384
 3897              		.text
 3898              	.Letext0:
 3899              		.file 2 "/home/texzk/ChibiStudio/tools/GNU Tools ARM Embedded/4.6 2012q2/bin/../lib/gcc/arm-none-e
 3900              		.file 3 "../../os/various/lwip_bindings/arch/cc.h"
 3901              		.file 4 "../../ext/lwip/src/include/lwip/mem.h"
 3902              		.file 5 "../../ext/lwip/src/include/ipv4/lwip/ip_addr.h"
 3903              		.file 6 "../../ext/lwip/src/include/lwip/err.h"
 3904              		.file 7 "../../ext/lwip/src/include/lwip/pbuf.h"
 3905              		.file 8 "../../ext/lwip/src/include/lwip/netif.h"
 3906              		.file 9 "../../ext/lwip/src/include/lwip/tcp.h"
 3907              		.file 10 "../../ext/lwip/src/include/lwip/tcp_impl.h"
 3908              		.file 11 "../../ext/lwip/src/include/lwip/stats.h"
 3909              		.file 12 "../../ext/lwip/src/include/lwip/memp.h"