ARM GAS  /tmp/ccKKWSFE.s 			page 1


   1              		.syntax unified
   2              		.cpu cortex-m3
   3              		.fpu softvfp
   4              		.eabi_attribute 20, 1
   5              		.eabi_attribute 21, 1
   6              		.eabi_attribute 23, 3
   7              		.eabi_attribute 24, 1
   8              		.eabi_attribute 25, 1
   9              		.eabi_attribute 26, 1
  10              		.eabi_attribute 30, 6
  11              		.eabi_attribute 34, 1
  12              		.eabi_attribute 18, 4
  13              		.thumb
  14              		.file	"tcp_out.c"
  15              		.text
  16              	.Ltext0:
  17              		.cfi_sections	.debug_frame
  18              		.section	.text.tcp_output_alloc_header,"ax",%progbits
  19              		.align	2
  20              		.p2align 4,,15
  21              		.thumb
  22              		.thumb_func
  23              		.type	tcp_output_alloc_header, %function
  24              	tcp_output_alloc_header:
  25              	.LFB7:
  26              		.file 1 "../../ext/lwip/src/core/tcp_out.c"
  27              		.loc 1 94 0
  28              		.cfi_startproc
  29              		@ args = 0, pretend = 0, frame = 24
  30              		@ frame_needed = 0, uses_anonymous_args = 0
  31 0000 00B5     		push	{lr}
  32              	.LCFI0:
  33              		.cfi_def_cfa_offset 4
  34              		.cfi_offset 14, -4
  35 0002 87B0     		sub	sp, sp, #28
  36              	.LCFI1:
  37              		.cfi_def_cfa_offset 32
  38 0004 0390     		str	r0, [sp, #12]
  39 0006 0193     		str	r3, [sp, #4]
  40 0008 0B46     		mov	r3, r1	@ movhi
  41 000a ADF80A30 		strh	r3, [sp, #10]	@ movhi
  42 000e 1346     		mov	r3, r2	@ movhi
  43 0010 ADF80830 		strh	r3, [sp, #8]	@ movhi
  44              		.loc 1 96 0
  45 0014 BDF80A20 		ldrh	r2, [sp, #10]	@ movhi
  46 0018 BDF80830 		ldrh	r3, [sp, #8]	@ movhi
  47 001c D318     		adds	r3, r2, r3
  48 001e 9BB2     		uxth	r3, r3
  49 0020 03F11403 		add	r3, r3, #20
  50 0024 9BB2     		uxth	r3, r3
  51 0026 4FF00100 		mov	r0, #1
  52 002a 1946     		mov	r1, r3
  53 002c 4FF00002 		mov	r2, #0
  54 0030 FFF7FEFF 		bl	pbuf_alloc
  55 0034 0346     		mov	r3, r0
  56 0036 0593     		str	r3, [sp, #20]
  57              		.loc 1 97 0
ARM GAS  /tmp/ccKKWSFE.s 			page 2


  58 0038 059B     		ldr	r3, [sp, #20]
  59 003a 002B     		cmp	r3, #0
  60 003c 5DD0     		beq	.L2
  61              		.loc 1 98 0
  62 003e 059B     		ldr	r3, [sp, #20]
  63 0040 5B89     		ldrh	r3, [r3, #10]
  64 0042 1A46     		mov	r2, r3
  65 0044 BDF80A30 		ldrh	r3, [sp, #10]
  66 0048 03F11403 		add	r3, r3, #20
  67 004c 9A42     		cmp	r2, r3
  68 004e 01DA     		bge	.L3
  69              		.loc 1 98 0 is_stmt 0 discriminator 1
  70 0050 FFF7FEFF 		bl	port_halt
  71              	.L3:
  72              		.loc 1 100 0 is_stmt 1
  73 0054 059B     		ldr	r3, [sp, #20]
  74 0056 5B68     		ldr	r3, [r3, #4]
  75 0058 0493     		str	r3, [sp, #16]
  76              		.loc 1 101 0
  77 005a 039B     		ldr	r3, [sp, #12]
  78 005c 9B8B     		ldrh	r3, [r3, #28]
  79 005e 1846     		mov	r0, r3
  80 0060 FFF7FEFF 		bl	lwip_htons
  81 0064 0346     		mov	r3, r0
  82 0066 1A46     		mov	r2, r3
  83 0068 049B     		ldr	r3, [sp, #16]
  84 006a 1A80     		strh	r2, [r3, #0]	@ unaligned
  85              		.loc 1 102 0
  86 006c 039B     		ldr	r3, [sp, #12]
  87 006e DB8B     		ldrh	r3, [r3, #30]
  88 0070 1846     		mov	r0, r3
  89 0072 FFF7FEFF 		bl	lwip_htons
  90 0076 0346     		mov	r3, r0
  91 0078 1A46     		mov	r2, r3
  92 007a 049B     		ldr	r3, [sp, #16]
  93 007c 5A80     		strh	r2, [r3, #2]	@ unaligned
  94              		.loc 1 103 0
  95 007e 049B     		ldr	r3, [sp, #16]
  96 0080 019A     		ldr	r2, [sp, #4]
  97 0082 5A60     		str	r2, [r3, #4]	@ unaligned
  98              		.loc 1 104 0
  99 0084 039B     		ldr	r3, [sp, #12]
 100 0086 5B6A     		ldr	r3, [r3, #36]
 101 0088 1846     		mov	r0, r3
 102 008a FFF7FEFF 		bl	lwip_htonl
 103 008e 0246     		mov	r2, r0
 104 0090 049B     		ldr	r3, [sp, #16]
 105 0092 9A60     		str	r2, [r3, #8]	@ unaligned
 106              		.loc 1 105 0
 107 0094 BDF80A30 		ldrh	r3, [sp, #10]
 108 0098 4FEA9303 		lsr	r3, r3, #2
 109 009c 9BB2     		uxth	r3, r3
 110 009e 03F10503 		add	r3, r3, #5
 111 00a2 9BB2     		uxth	r3, r3
 112 00a4 4FEA0333 		lsl	r3, r3, #12
 113 00a8 9BB2     		uxth	r3, r3
 114 00aa 43F01003 		orr	r3, r3, #16
ARM GAS  /tmp/ccKKWSFE.s 			page 3


 115 00ae 9BB2     		uxth	r3, r3
 116 00b0 1846     		mov	r0, r3
 117 00b2 FFF7FEFF 		bl	lwip_htons
 118 00b6 0346     		mov	r3, r0
 119 00b8 1A46     		mov	r2, r3
 120 00ba 049B     		ldr	r3, [sp, #16]
 121 00bc 9A81     		strh	r2, [r3, #12]	@ unaligned
 122              		.loc 1 106 0
 123 00be 039B     		ldr	r3, [sp, #12]
 124 00c0 5B8D     		ldrh	r3, [r3, #42]
 125 00c2 1846     		mov	r0, r3
 126 00c4 FFF7FEFF 		bl	lwip_htons
 127 00c8 0346     		mov	r3, r0
 128 00ca 1A46     		mov	r2, r3
 129 00cc 049B     		ldr	r3, [sp, #16]
 130 00ce DA81     		strh	r2, [r3, #14]	@ unaligned
 131              		.loc 1 107 0
 132 00d0 049B     		ldr	r3, [sp, #16]
 133 00d2 4FF00002 		mov	r2, #0
 134 00d6 1A74     		strb	r2, [r3, #16]
 135 00d8 4FF00002 		mov	r2, #0
 136 00dc 5A74     		strb	r2, [r3, #17]
 137              		.loc 1 108 0
 138 00de 049B     		ldr	r3, [sp, #16]
 139 00e0 4FF00002 		mov	r2, #0
 140 00e4 9A74     		strb	r2, [r3, #18]
 141 00e6 4FF00002 		mov	r2, #0
 142 00ea DA74     		strb	r2, [r3, #19]
 143              		.loc 1 111 0
 144 00ec 039B     		ldr	r3, [sp, #12]
 145 00ee 5A6A     		ldr	r2, [r3, #36]
 146 00f0 039B     		ldr	r3, [sp, #12]
 147 00f2 5B8D     		ldrh	r3, [r3, #42]
 148 00f4 D218     		adds	r2, r2, r3
 149 00f6 039B     		ldr	r3, [sp, #12]
 150 00f8 DA62     		str	r2, [r3, #44]
 151              	.L2:
 152              		.loc 1 113 0
 153 00fa 059B     		ldr	r3, [sp, #20]
 154              		.loc 1 114 0
 155 00fc 1846     		mov	r0, r3
 156 00fe 07B0     		add	sp, sp, #28
 157 0100 00BD     		pop	{pc}
 158              		.cfi_endproc
 159              	.LFE7:
 160              		.size	tcp_output_alloc_header, .-tcp_output_alloc_header
 161 0102 00BFAFF3 		.section	.text.tcp_send_fin,"ax",%progbits
 161      0080AFF3 
 161      0080AFF3 
 161      0080
 162              		.align	2
 163              		.p2align 4,,15
 164              		.global	tcp_send_fin
 165              		.thumb
 166              		.thumb_func
 167              		.type	tcp_send_fin, %function
 168              	tcp_send_fin:
ARM GAS  /tmp/ccKKWSFE.s 			page 4


 169              	.LFB8:
 170              		.loc 1 124 0
 171              		.cfi_startproc
 172              		@ args = 0, pretend = 0, frame = 16
 173              		@ frame_needed = 0, uses_anonymous_args = 0
 174 0000 30B5     		push	{r4, r5, lr}
 175              	.LCFI2:
 176              		.cfi_def_cfa_offset 12
 177              		.cfi_offset 14, -4
 178              		.cfi_offset 5, -8
 179              		.cfi_offset 4, -12
 180 0002 85B0     		sub	sp, sp, #20
 181              	.LCFI3:
 182              		.cfi_def_cfa_offset 32
 183 0004 0190     		str	r0, [sp, #4]
 184              		.loc 1 126 0
 185 0006 019B     		ldr	r3, [sp, #4]
 186 0008 5B6F     		ldr	r3, [r3, #116]
 187 000a 002B     		cmp	r3, #0
 188 000c 27D0     		beq	.L5
 189              	.LBB2:
 190              		.loc 1 128 0
 191 000e 019B     		ldr	r3, [sp, #4]
 192 0010 5B6F     		ldr	r3, [r3, #116]
 193 0012 0393     		str	r3, [sp, #12]
 194 0014 02E0     		b	.L6
 195              	.L7:
 196              		.loc 1 129 0
 197 0016 039B     		ldr	r3, [sp, #12]
 198 0018 1B68     		ldr	r3, [r3, #0]
 199 001a 0393     		str	r3, [sp, #12]
 200              	.L6:
 201              		.loc 1 128 0 discriminator 1
 202 001c 039B     		ldr	r3, [sp, #12]
 203 001e 1B68     		ldr	r3, [r3, #0]
 204 0020 002B     		cmp	r3, #0
 205 0022 F8D1     		bne	.L7
 206              		.loc 1 131 0
 207 0024 039B     		ldr	r3, [sp, #12]
 208 0026 DB68     		ldr	r3, [r3, #12]
 209 0028 9B89     		ldrh	r3, [r3, #12]	@ unaligned
 210 002a 9BB2     		uxth	r3, r3
 211 002c 1846     		mov	r0, r3
 212 002e FFF7FEFF 		bl	lwip_ntohs
 213 0032 0346     		mov	r3, r0
 214 0034 03F00703 		and	r3, r3, #7
 215 0038 002B     		cmp	r3, #0
 216 003a 10D1     		bne	.L5
 217              		.loc 1 133 0
 218 003c 039B     		ldr	r3, [sp, #12]
 219 003e DC68     		ldr	r4, [r3, #12]
 220 0040 039B     		ldr	r3, [sp, #12]
 221 0042 DB68     		ldr	r3, [r3, #12]
 222 0044 9B89     		ldrh	r3, [r3, #12]	@ unaligned
 223 0046 9DB2     		uxth	r5, r3
 224 0048 4FF00100 		mov	r0, #1
 225 004c FFF7FEFF 		bl	lwip_htons
ARM GAS  /tmp/ccKKWSFE.s 			page 5


 226 0050 0346     		mov	r3, r0
 227 0052 2B43     		orrs	r3, r3, r5
 228 0054 9BB2     		uxth	r3, r3
 229 0056 A381     		strh	r3, [r4, #12]	@ unaligned
 230              		.loc 1 134 0
 231 0058 4FF00003 		mov	r3, #0
 232 005c 05E0     		b	.L8
 233              	.L5:
 234              	.LBE2:
 235              		.loc 1 138 0
 236 005e 0198     		ldr	r0, [sp, #4]
 237 0060 4FF00101 		mov	r1, #1
 238 0064 FFF7FEFF 		bl	tcp_enqueue_flags
 239 0068 0346     		mov	r3, r0
 240              	.L8:
 241 006a 5BB2     		sxtb	r3, r3
 242              		.loc 1 139 0
 243 006c 1846     		mov	r0, r3
 244 006e 05B0     		add	sp, sp, #20
 245 0070 30BD     		pop	{r4, r5, pc}
 246              		.cfi_endproc
 247              	.LFE8:
 248              		.size	tcp_send_fin, .-tcp_send_fin
 249 0072 00BFAFF3 		.section	.text.tcp_create_segment,"ax",%progbits
 249      0080AFF3 
 249      0080AFF3 
 249      0080
 250              		.align	2
 251              		.p2align 4,,15
 252              		.thumb
 253              		.thumb_func
 254              		.type	tcp_create_segment, %function
 255              	tcp_create_segment:
 256              	.LFB9:
 257              		.loc 1 157 0
 258              		.cfi_startproc
 259              		@ args = 4, pretend = 0, frame = 24
 260              		@ frame_needed = 0, uses_anonymous_args = 0
 261 0000 10B5     		push	{r4, lr}
 262              	.LCFI4:
 263              		.cfi_def_cfa_offset 8
 264              		.cfi_offset 14, -4
 265              		.cfi_offset 4, -8
 266 0002 86B0     		sub	sp, sp, #24
 267              	.LCFI5:
 268              		.cfi_def_cfa_offset 32
 269 0004 0390     		str	r0, [sp, #12]
 270 0006 0291     		str	r1, [sp, #8]
 271 0008 0093     		str	r3, [sp, #0]
 272 000a 1346     		mov	r3, r2
 273 000c 8DF80730 		strb	r3, [sp, #7]
 274              		.loc 1 159 0
 275 0010 9DF82030 		ldrb	r3, [sp, #32]	@ zero_extendqisi2
 276 0014 03F00103 		and	r3, r3, #1
 277 0018 DBB2     		uxtb	r3, r3
 278 001a 002B     		cmp	r3, #0
 279 001c 02D0     		beq	.L10
ARM GAS  /tmp/ccKKWSFE.s 			page 6


 280              		.loc 1 159 0 is_stmt 0 discriminator 1
 281 001e 4FF00402 		mov	r2, #4
 282 0022 01E0     		b	.L11
 283              	.L10:
 284              		.loc 1 159 0 discriminator 2
 285 0024 4FF00002 		mov	r2, #0
 286              	.L11:
 287              		.loc 1 159 0 discriminator 3
 288 0028 9DF82030 		ldrb	r3, [sp, #32]	@ zero_extendqisi2
 289 002c 03F00203 		and	r3, r3, #2
 290 0030 002B     		cmp	r3, #0
 291 0032 02D0     		beq	.L12
 292              		.loc 1 159 0 discriminator 4
 293 0034 4FF00C03 		mov	r3, #12
 294 0038 01E0     		b	.L13
 295              	.L12:
 296              		.loc 1 159 0 discriminator 5
 297 003a 4FF00003 		mov	r3, #0
 298              	.L13:
 299              		.loc 1 159 0 discriminator 6
 300 003e D318     		adds	r3, r2, r3
 301 0040 8DF81730 		strb	r3, [sp, #23]
 302              		.loc 1 161 0 is_stmt 1 discriminator 6
 303 0044 4FF00400 		mov	r0, #4
 304 0048 FFF7FEFF 		bl	memp_malloc
 305 004c 0346     		mov	r3, r0
 306 004e 0493     		str	r3, [sp, #16]
 307 0050 049B     		ldr	r3, [sp, #16]
 308 0052 002B     		cmp	r3, #0
 309 0054 05D1     		bne	.L14
 310              		.loc 1 163 0
 311 0056 0298     		ldr	r0, [sp, #8]
 312 0058 FFF7FEFF 		bl	pbuf_free
 313              		.loc 1 164 0
 314 005c 4FF00003 		mov	r3, #0
 315 0060 6EE0     		b	.L15
 316              	.L14:
 317              		.loc 1 166 0
 318 0062 049B     		ldr	r3, [sp, #16]
 319 0064 9DF82020 		ldrb	r2, [sp, #32]
 320 0068 9A72     		strb	r2, [r3, #10]
 321              		.loc 1 167 0
 322 006a 049B     		ldr	r3, [sp, #16]
 323 006c 4FF00002 		mov	r2, #0
 324 0070 1A60     		str	r2, [r3, #0]
 325              		.loc 1 168 0
 326 0072 049B     		ldr	r3, [sp, #16]
 327 0074 029A     		ldr	r2, [sp, #8]
 328 0076 5A60     		str	r2, [r3, #4]
 329              		.loc 1 169 0
 330 0078 029B     		ldr	r3, [sp, #8]
 331 007a 1A89     		ldrh	r2, [r3, #8]
 332 007c 9DF81730 		ldrb	r3, [sp, #23]	@ zero_extendqisi2
 333 0080 9BB2     		uxth	r3, r3
 334 0082 D31A     		subs	r3, r2, r3
 335 0084 9AB2     		uxth	r2, r3
 336 0086 049B     		ldr	r3, [sp, #16]
ARM GAS  /tmp/ccKKWSFE.s 			page 7


 337 0088 1A81     		strh	r2, [r3, #8]	@ movhi
 338              		.loc 1 182 0
 339 008a 0298     		ldr	r0, [sp, #8]
 340 008c 4FF01401 		mov	r1, #20
 341 0090 FFF7FEFF 		bl	pbuf_header
 342 0094 0346     		mov	r3, r0
 343 0096 002B     		cmp	r3, #0
 344 0098 14D0     		beq	.L16
 345              		.loc 1 184 0
 346 009a 40F20003 		movw	r3, #:lower16:lwip_stats
 347 009e C0F20003 		movt	r3, #:upper16:lwip_stats
 348 00a2 B3F8A430 		ldrh	r3, [r3, #164]
 349 00a6 03F10103 		add	r3, r3, #1
 350 00aa 9AB2     		uxth	r2, r3
 351 00ac 40F20003 		movw	r3, #:lower16:lwip_stats
 352 00b0 C0F20003 		movt	r3, #:upper16:lwip_stats
 353 00b4 A3F8A420 		strh	r2, [r3, #164]	@ movhi
 354              		.loc 1 185 0
 355 00b8 0498     		ldr	r0, [sp, #16]
 356 00ba FFF7FEFF 		bl	tcp_seg_free
 357              		.loc 1 186 0
 358 00be 4FF00003 		mov	r3, #0
 359 00c2 3DE0     		b	.L15
 360              	.L16:
 361              		.loc 1 188 0
 362 00c4 049B     		ldr	r3, [sp, #16]
 363 00c6 5B68     		ldr	r3, [r3, #4]
 364 00c8 5A68     		ldr	r2, [r3, #4]
 365 00ca 049B     		ldr	r3, [sp, #16]
 366 00cc DA60     		str	r2, [r3, #12]
 367              		.loc 1 189 0
 368 00ce 049B     		ldr	r3, [sp, #16]
 369 00d0 DC68     		ldr	r4, [r3, #12]
 370 00d2 039B     		ldr	r3, [sp, #12]
 371 00d4 9B8B     		ldrh	r3, [r3, #28]
 372 00d6 1846     		mov	r0, r3
 373 00d8 FFF7FEFF 		bl	lwip_htons
 374 00dc 0346     		mov	r3, r0
 375 00de 2380     		strh	r3, [r4, #0]	@ unaligned
 376              		.loc 1 190 0
 377 00e0 049B     		ldr	r3, [sp, #16]
 378 00e2 DC68     		ldr	r4, [r3, #12]
 379 00e4 039B     		ldr	r3, [sp, #12]
 380 00e6 DB8B     		ldrh	r3, [r3, #30]
 381 00e8 1846     		mov	r0, r3
 382 00ea FFF7FEFF 		bl	lwip_htons
 383 00ee 0346     		mov	r3, r0
 384 00f0 6380     		strh	r3, [r4, #2]	@ unaligned
 385              		.loc 1 191 0
 386 00f2 049B     		ldr	r3, [sp, #16]
 387 00f4 DC68     		ldr	r4, [r3, #12]
 388 00f6 0098     		ldr	r0, [sp, #0]
 389 00f8 FFF7FEFF 		bl	lwip_htonl
 390 00fc 0346     		mov	r3, r0
 391 00fe 6360     		str	r3, [r4, #4]	@ unaligned
 392              		.loc 1 193 0
 393 0100 049B     		ldr	r3, [sp, #16]
ARM GAS  /tmp/ccKKWSFE.s 			page 8


 394 0102 DC68     		ldr	r4, [r3, #12]
 395 0104 9DF81730 		ldrb	r3, [sp, #23]	@ zero_extendqisi2
 396 0108 4FEA9303 		lsr	r3, r3, #2
 397 010c DBB2     		uxtb	r3, r3
 398 010e 03F10503 		add	r3, r3, #5
 399 0112 4FEA0333 		lsl	r3, r3, #12
 400 0116 9AB2     		uxth	r2, r3
 401 0118 9DF80730 		ldrb	r3, [sp, #7]	@ zero_extendqisi2
 402 011c 9BB2     		uxth	r3, r3
 403 011e 1343     		orrs	r3, r3, r2
 404 0120 9BB2     		uxth	r3, r3
 405 0122 9BB2     		uxth	r3, r3
 406 0124 1846     		mov	r0, r3
 407 0126 FFF7FEFF 		bl	lwip_htons
 408 012a 0346     		mov	r3, r0
 409 012c A381     		strh	r3, [r4, #12]	@ unaligned
 410              		.loc 1 195 0
 411 012e 049B     		ldr	r3, [sp, #16]
 412 0130 DB68     		ldr	r3, [r3, #12]
 413 0132 4FF00002 		mov	r2, #0
 414 0136 9A74     		strb	r2, [r3, #18]
 415 0138 4FF00002 		mov	r2, #0
 416 013c DA74     		strb	r2, [r3, #19]
 417              		.loc 1 196 0
 418 013e 049B     		ldr	r3, [sp, #16]
 419              	.L15:
 420              		.loc 1 197 0
 421 0140 1846     		mov	r0, r3
 422 0142 06B0     		add	sp, sp, #24
 423 0144 10BD     		pop	{r4, pc}
 424              		.cfi_endproc
 425              	.LFE9:
 426              		.size	tcp_create_segment, .-tcp_create_segment
 427 0146 00BFAFF3 		.section	.text.tcp_pbuf_prealloc,"ax",%progbits
 427      0080AFF3 
 427      0080
 428              		.align	2
 429              		.p2align 4,,15
 430              		.thumb
 431              		.thumb_func
 432              		.type	tcp_pbuf_prealloc, %function
 433              	tcp_pbuf_prealloc:
 434              	.LFB10:
 435              		.loc 1 219 0
 436              		.cfi_startproc
 437              		@ args = 12, pretend = 0, frame = 24
 438              		@ frame_needed = 0, uses_anonymous_args = 0
 439 0000 00B5     		push	{lr}
 440              	.LCFI6:
 441              		.cfi_def_cfa_offset 4
 442              		.cfi_offset 14, -4
 443 0002 87B0     		sub	sp, sp, #28
 444              	.LCFI7:
 445              		.cfi_def_cfa_offset 32
 446 0004 0193     		str	r3, [sp, #4]
 447 0006 0346     		mov	r3, r0
 448 0008 8DF80F30 		strb	r3, [sp, #15]
ARM GAS  /tmp/ccKKWSFE.s 			page 9


 449 000c 0B46     		mov	r3, r1	@ movhi
 450 000e ADF80C30 		strh	r3, [sp, #12]	@ movhi
 451 0012 1346     		mov	r3, r2	@ movhi
 452 0014 ADF80A30 		strh	r3, [sp, #10]	@ movhi
 453              		.loc 1 221 0
 454 0018 BDF80C30 		ldrh	r3, [sp, #12]	@ movhi
 455 001c ADF81630 		strh	r3, [sp, #22]	@ movhi
 456              		.loc 1 231 0
 457 0020 BDF80C20 		ldrh	r2, [sp, #12]
 458 0024 BDF80A30 		ldrh	r3, [sp, #10]
 459 0028 9A42     		cmp	r2, r3
 460 002a 27D2     		bcs	.L18
 461              		.loc 1 243 0
 462 002c 9DF82430 		ldrb	r3, [sp, #36]	@ zero_extendqisi2
 463 0030 03F00203 		and	r3, r3, #2
 464 0034 002B     		cmp	r3, #0
 465 0036 12D1     		bne	.L19
 466              		.loc 1 244 0 discriminator 1
 467 0038 089B     		ldr	r3, [sp, #32]
 468 003a 93F82030 		ldrb	r3, [r3, #32]	@ zero_extendqisi2
 469 003e 03F04003 		and	r3, r3, #64
 470              		.loc 1 243 0 discriminator 1
 471 0042 002B     		cmp	r3, #0
 472 0044 1AD1     		bne	.L18
 473              		.loc 1 244 0
 474 0046 9DF82830 		ldrb	r3, [sp, #40]	@ zero_extendqisi2
 475 004a 002B     		cmp	r3, #0
 476 004c 07D0     		beq	.L19
 477              		.loc 1 246 0
 478 004e 089B     		ldr	r3, [sp, #32]
 479 0050 5B6F     		ldr	r3, [r3, #116]
 480              		.loc 1 245 0
 481 0052 002B     		cmp	r3, #0
 482 0054 03D1     		bne	.L19
 483              		.loc 1 247 0
 484 0056 089B     		ldr	r3, [sp, #32]
 485 0058 9B6F     		ldr	r3, [r3, #120]
 486              		.loc 1 246 0
 487 005a 002B     		cmp	r3, #0
 488 005c 0ED0     		beq	.L18
 489              	.L19:
 490              		.loc 1 248 0
 491 005e BDF80C30 		ldrh	r3, [sp, #12]
 492 0062 03F50673 		add	r3, r3, #536
 493 0066 03F10303 		add	r3, r3, #3
 494 006a 23F00302 		bic	r2, r3, #3
 495 006e BDF80A30 		ldrh	r3, [sp, #10]
 496 0072 9A42     		cmp	r2, r3
 497 0074 B8BF     		it	lt
 498 0076 1346     		movlt	r3, r2
 499 0078 ADF81630 		strh	r3, [sp, #22]	@ movhi
 500              	.L18:
 501              		.loc 1 252 0
 502 007c 9DF80F20 		ldrb	r2, [sp, #15]	@ zero_extendqisi2
 503 0080 BDF81630 		ldrh	r3, [sp, #22]
 504 0084 1046     		mov	r0, r2
 505 0086 1946     		mov	r1, r3
ARM GAS  /tmp/ccKKWSFE.s 			page 10


 506 0088 4FF00002 		mov	r2, #0
 507 008c FFF7FEFF 		bl	pbuf_alloc
 508 0090 0346     		mov	r3, r0
 509 0092 0493     		str	r3, [sp, #16]
 510              		.loc 1 253 0
 511 0094 049B     		ldr	r3, [sp, #16]
 512 0096 002B     		cmp	r3, #0
 513 0098 02D1     		bne	.L20
 514              		.loc 1 254 0
 515 009a 4FF00003 		mov	r3, #0
 516 009e 16E0     		b	.L21
 517              	.L20:
 518              		.loc 1 256 0
 519 00a0 049B     		ldr	r3, [sp, #16]
 520 00a2 1B68     		ldr	r3, [r3, #0]
 521 00a4 002B     		cmp	r3, #0
 522 00a6 01D0     		beq	.L22
 523              		.loc 1 256 0 is_stmt 0 discriminator 1
 524 00a8 FFF7FEFF 		bl	port_halt
 525              	.L22:
 526              		.loc 1 257 0 is_stmt 1
 527 00ac 049B     		ldr	r3, [sp, #16]
 528 00ae 5A89     		ldrh	r2, [r3, #10]
 529 00b0 BDF80C30 		ldrh	r3, [sp, #12]	@ movhi
 530 00b4 D31A     		subs	r3, r2, r3
 531 00b6 9AB2     		uxth	r2, r3
 532 00b8 019B     		ldr	r3, [sp, #4]
 533 00ba 1A80     		strh	r2, [r3, #0]	@ movhi
 534              		.loc 1 259 0
 535 00bc 049B     		ldr	r3, [sp, #16]
 536 00be BDF80C20 		ldrh	r2, [sp, #12]	@ movhi
 537 00c2 1A81     		strh	r2, [r3, #8]	@ movhi
 538 00c4 049B     		ldr	r3, [sp, #16]
 539 00c6 1A89     		ldrh	r2, [r3, #8]
 540 00c8 049B     		ldr	r3, [sp, #16]
 541 00ca 5A81     		strh	r2, [r3, #10]	@ movhi
 542              		.loc 1 260 0
 543 00cc 049B     		ldr	r3, [sp, #16]
 544              	.L21:
 545              		.loc 1 261 0
 546 00ce 1846     		mov	r0, r3
 547 00d0 07B0     		add	sp, sp, #28
 548 00d2 00BD     		pop	{pc}
 549              		.cfi_endproc
 550              	.LFE10:
 551              		.size	tcp_pbuf_prealloc, .-tcp_pbuf_prealloc
 552 00d4 AFF30080 		.section	.text.tcp_write_checks,"ax",%progbits
 552      AFF30080 
 552      AFF30080 
 553              		.align	2
 554              		.p2align 4,,15
 555              		.thumb
 556              		.thumb_func
 557              		.type	tcp_write_checks, %function
 558              	tcp_write_checks:
 559              	.LFB11:
 560              		.loc 1 292 0
ARM GAS  /tmp/ccKKWSFE.s 			page 11


 561              		.cfi_startproc
 562              		@ args = 0, pretend = 0, frame = 8
 563              		@ frame_needed = 0, uses_anonymous_args = 0
 564 0000 00B5     		push	{lr}
 565              	.LCFI8:
 566              		.cfi_def_cfa_offset 4
 567              		.cfi_offset 14, -4
 568 0002 83B0     		sub	sp, sp, #12
 569              	.LCFI9:
 570              		.cfi_def_cfa_offset 16
 571 0004 0190     		str	r0, [sp, #4]
 572 0006 0B46     		mov	r3, r1
 573 0008 ADF80230 		strh	r3, [sp, #2]	@ movhi
 574              		.loc 1 294 0
 575 000c 019B     		ldr	r3, [sp, #4]
 576 000e 1B7C     		ldrb	r3, [r3, #16]	@ zero_extendqisi2
 577 0010 042B     		cmp	r3, #4
 578 0012 0ED0     		beq	.L24
 579              		.loc 1 295 0 discriminator 1
 580 0014 019B     		ldr	r3, [sp, #4]
 581 0016 1B7C     		ldrb	r3, [r3, #16]	@ zero_extendqisi2
 582              		.loc 1 294 0 discriminator 1
 583 0018 072B     		cmp	r3, #7
 584 001a 0AD0     		beq	.L24
 585              		.loc 1 296 0
 586 001c 019B     		ldr	r3, [sp, #4]
 587 001e 1B7C     		ldrb	r3, [r3, #16]	@ zero_extendqisi2
 588              		.loc 1 295 0
 589 0020 022B     		cmp	r3, #2
 590 0022 06D0     		beq	.L24
 591              		.loc 1 297 0
 592 0024 019B     		ldr	r3, [sp, #4]
 593 0026 1B7C     		ldrb	r3, [r3, #16]	@ zero_extendqisi2
 594              		.loc 1 296 0
 595 0028 032B     		cmp	r3, #3
 596 002a 02D0     		beq	.L24
 597              		.loc 1 299 0
 598 002c 4FF0F303 		mov	r3, #243
 599 0030 5CE0     		b	.L25
 600              	.L24:
 601              		.loc 1 300 0
 602 0032 BDF80230 		ldrh	r3, [sp, #2]
 603 0036 002B     		cmp	r3, #0
 604 0038 02D1     		bne	.L26
 605              		.loc 1 301 0
 606 003a 4FF00003 		mov	r3, #0
 607 003e 55E0     		b	.L25
 608              	.L26:
 609              		.loc 1 305 0
 610 0040 019B     		ldr	r3, [sp, #4]
 611 0042 B3F86E30 		ldrh	r3, [r3, #110]
 612 0046 BDF80220 		ldrh	r2, [sp, #2]
 613 004a 9A42     		cmp	r2, r3
 614 004c 0BD9     		bls	.L27
 615              		.loc 1 308 0
 616 004e 019B     		ldr	r3, [sp, #4]
 617 0050 93F82030 		ldrb	r3, [r3, #32]	@ zero_extendqisi2
ARM GAS  /tmp/ccKKWSFE.s 			page 12


 618 0054 63F07F03 		orn	r3, r3, #127
 619 0058 DAB2     		uxtb	r2, r3
 620 005a 019B     		ldr	r3, [sp, #4]
 621 005c 83F82020 		strb	r2, [r3, #32]
 622              		.loc 1 309 0
 623 0060 4FF0FF03 		mov	r3, #255
 624 0064 42E0     		b	.L25
 625              	.L27:
 626              		.loc 1 317 0
 627 0066 019B     		ldr	r3, [sp, #4]
 628 0068 B3F87030 		ldrh	r3, [r3, #112]
 629 006c 012B     		cmp	r3, #1
 630 006e 06D8     		bhi	.L28
 631              		.loc 1 317 0 is_stmt 0 discriminator 1
 632 0070 019B     		ldr	r3, [sp, #4]
 633 0072 B3F87020 		ldrh	r2, [r3, #112]
 634 0076 4FF6FC73 		movw	r3, #65532
 635 007a 9A42     		cmp	r2, r3
 636 007c 1AD9     		bls	.L29
 637              	.L28:
 638              		.loc 1 320 0 is_stmt 1
 639 007e 40F20003 		movw	r3, #:lower16:lwip_stats
 640 0082 C0F20003 		movt	r3, #:upper16:lwip_stats
 641 0086 B3F89C30 		ldrh	r3, [r3, #156]
 642 008a 03F10103 		add	r3, r3, #1
 643 008e 9AB2     		uxth	r2, r3
 644 0090 40F20003 		movw	r3, #:lower16:lwip_stats
 645 0094 C0F20003 		movt	r3, #:upper16:lwip_stats
 646 0098 A3F89C20 		strh	r2, [r3, #156]	@ movhi
 647              		.loc 1 321 0
 648 009c 019B     		ldr	r3, [sp, #4]
 649 009e 93F82030 		ldrb	r3, [r3, #32]	@ zero_extendqisi2
 650 00a2 63F07F03 		orn	r3, r3, #127
 651 00a6 DAB2     		uxtb	r2, r3
 652 00a8 019B     		ldr	r3, [sp, #4]
 653 00aa 83F82020 		strb	r2, [r3, #32]
 654              		.loc 1 322 0
 655 00ae 4FF0FF03 		mov	r3, #255
 656 00b2 1BE0     		b	.L25
 657              	.L29:
 658              		.loc 1 324 0
 659 00b4 019B     		ldr	r3, [sp, #4]
 660 00b6 B3F87030 		ldrh	r3, [r3, #112]
 661 00ba 002B     		cmp	r3, #0
 662 00bc 0AD0     		beq	.L30
 663              		.loc 1 325 0
 664 00be 019B     		ldr	r3, [sp, #4]
 665 00c0 9B6F     		ldr	r3, [r3, #120]
 666 00c2 002B     		cmp	r3, #0
 667 00c4 10D1     		bne	.L31
 668              		.loc 1 325 0 is_stmt 0 discriminator 1
 669 00c6 019B     		ldr	r3, [sp, #4]
 670 00c8 5B6F     		ldr	r3, [r3, #116]
 671 00ca 002B     		cmp	r3, #0
 672 00cc 0CD1     		bne	.L31
 673              		.loc 1 325 0 discriminator 2
 674 00ce FFF7FEFF 		bl	port_halt
ARM GAS  /tmp/ccKKWSFE.s 			page 13


 675 00d2 09E0     		b	.L31
 676              	.L30:
 677              		.loc 1 328 0 is_stmt 1
 678 00d4 019B     		ldr	r3, [sp, #4]
 679 00d6 9B6F     		ldr	r3, [r3, #120]
 680 00d8 002B     		cmp	r3, #0
 681 00da 03D1     		bne	.L32
 682              		.loc 1 328 0 is_stmt 0 discriminator 2
 683 00dc 019B     		ldr	r3, [sp, #4]
 684 00de 5B6F     		ldr	r3, [r3, #116]
 685 00e0 002B     		cmp	r3, #0
 686 00e2 01D0     		beq	.L31
 687              	.L32:
 688              		.loc 1 328 0 discriminator 1
 689 00e4 FFF7FEFF 		bl	port_halt
 690              	.L31:
 691              		.loc 1 331 0 is_stmt 1
 692 00e8 4FF00003 		mov	r3, #0
 693              	.L25:
 694 00ec 5BB2     		sxtb	r3, r3
 695              		.loc 1 332 0
 696 00ee 1846     		mov	r0, r3
 697 00f0 03B0     		add	sp, sp, #12
 698 00f2 00BD     		pop	{pc}
 699              		.cfi_endproc
 700              	.LFE11:
 701              		.size	tcp_write_checks, .-tcp_write_checks
 702 00f4 AFF30080 		.section	.text.tcp_write,"ax",%progbits
 702      AFF30080 
 702      AFF30080 
 703              		.align	2
 704              		.p2align 4,,15
 705              		.global	tcp_write
 706              		.thumb
 707              		.thumb_func
 708              		.type	tcp_write, %function
 709              	tcp_write:
 710              	.LFB12:
 711              		.loc 1 352 0
 712              		.cfi_startproc
 713              		@ args = 0, pretend = 0, frame = 80
 714              		@ frame_needed = 0, uses_anonymous_args = 0
 715 0000 30B5     		push	{r4, r5, lr}
 716              	.LCFI10:
 717              		.cfi_def_cfa_offset 12
 718              		.cfi_offset 14, -4
 719              		.cfi_offset 5, -8
 720              		.cfi_offset 4, -12
 721 0002 99B0     		sub	sp, sp, #100
 722              	.LCFI11:
 723              		.cfi_def_cfa_offset 112
 724 0004 0790     		str	r0, [sp, #28]
 725 0006 0691     		str	r1, [sp, #24]
 726 0008 ADF81620 		strh	r2, [sp, #22]	@ movhi
 727 000c 8DF81530 		strb	r3, [sp, #21]
 728              		.loc 1 353 0
 729 0010 4FF00003 		mov	r3, #0
ARM GAS  /tmp/ccKKWSFE.s 			page 14


 730 0014 1793     		str	r3, [sp, #92]
 731              		.loc 1 354 0
 732 0016 4FF00003 		mov	r3, #0
 733 001a 1693     		str	r3, [sp, #88]
 734 001c 4FF00003 		mov	r3, #0
 735 0020 1593     		str	r3, [sp, #84]
 736 0022 4FF00003 		mov	r3, #0
 737 0026 1493     		str	r3, [sp, #80]
 738 0028 4FF00003 		mov	r3, #0
 739 002c 1393     		str	r3, [sp, #76]
 740              		.loc 1 355 0
 741 002e 4FF00003 		mov	r3, #0
 742 0032 ADF84A30 		strh	r3, [sp, #74]	@ movhi
 743              		.loc 1 357 0
 744 0036 4FF00003 		mov	r3, #0
 745 003a 8DF83B30 		strb	r3, [sp, #59]
 746              		.loc 1 358 0
 747 003e 4FF00003 		mov	r3, #0
 748 0042 8DF83A30 		strb	r3, [sp, #58]
 749              		.loc 1 360 0
 750 0046 4FF00003 		mov	r3, #0
 751 004a ADF82630 		strh	r3, [sp, #38]	@ movhi
 752              		.loc 1 361 0
 753 004e 4FF00003 		mov	r3, #0
 754 0052 ADF84630 		strh	r3, [sp, #70]	@ movhi
 755              		.loc 1 377 0
 756 0056 069B     		ldr	r3, [sp, #24]
 757 0058 002B     		cmp	r3, #0
 758 005a 04D1     		bne	.L34
 759              		.loc 1 377 0 is_stmt 0 discriminator 1
 760 005c FFF7FEFF 		bl	port_halt
 761 0060 4FF0F203 		mov	r3, #242
 762 0064 B5E2     		b	.L35
 763              	.L34:
 764              		.loc 1 380 0 is_stmt 1
 765 0066 BDF81630 		ldrh	r3, [sp, #22]
 766 006a 0798     		ldr	r0, [sp, #28]
 767 006c 1946     		mov	r1, r3
 768 006e FFF7FEFF 		bl	tcp_write_checks
 769 0072 0346     		mov	r3, r0
 770 0074 8DF83930 		strb	r3, [sp, #57]
 771              		.loc 1 381 0
 772 0078 9DF93930 		ldrsb	r3, [sp, #57]
 773 007c 002B     		cmp	r3, #0
 774 007e 02D0     		beq	.L36
 775              		.loc 1 382 0
 776 0080 9DF83930 		ldrb	r3, [sp, #57]	@ zero_extendqisi2
 777 0084 A5E2     		b	.L35
 778              	.L36:
 779              		.loc 1 384 0
 780 0086 079B     		ldr	r3, [sp, #28]
 781 0088 B3F87030 		ldrh	r3, [r3, #112]	@ movhi
 782 008c ADF84830 		strh	r3, [sp, #72]	@ movhi
 783              		.loc 1 417 0
 784 0090 079B     		ldr	r3, [sp, #28]
 785 0092 5B6F     		ldr	r3, [r3, #116]
 786 0094 002B     		cmp	r3, #0
ARM GAS  /tmp/ccKKWSFE.s 			page 15


 787 0096 00F0E180 		beq	.L37
 788              	.LBB3:
 789              		.loc 1 422 0
 790 009a 079B     		ldr	r3, [sp, #28]
 791 009c 5B6F     		ldr	r3, [r3, #116]
 792 009e 1693     		str	r3, [sp, #88]
 793 00a0 02E0     		b	.L38
 794              	.L39:
 795              		.loc 1 423 0
 796 00a2 169B     		ldr	r3, [sp, #88]
 797 00a4 1B68     		ldr	r3, [r3, #0]
 798 00a6 1693     		str	r3, [sp, #88]
 799              	.L38:
 800              		.loc 1 422 0 discriminator 1
 801 00a8 169B     		ldr	r3, [sp, #88]
 802 00aa 1B68     		ldr	r3, [r3, #0]
 803 00ac 002B     		cmp	r3, #0
 804 00ae F8D1     		bne	.L39
 805              		.loc 1 426 0
 806 00b0 169B     		ldr	r3, [sp, #88]
 807 00b2 9B7A     		ldrb	r3, [r3, #10]	@ zero_extendqisi2
 808 00b4 03F00103 		and	r3, r3, #1
 809 00b8 DBB2     		uxtb	r3, r3
 810 00ba 002B     		cmp	r3, #0
 811 00bc 02D0     		beq	.L40
 812              		.loc 1 426 0 is_stmt 0 discriminator 1
 813 00be 4FF00402 		mov	r2, #4
 814 00c2 01E0     		b	.L41
 815              	.L40:
 816              		.loc 1 426 0 discriminator 2
 817 00c4 4FF00002 		mov	r2, #0
 818              	.L41:
 819              		.loc 1 426 0 discriminator 3
 820 00c8 169B     		ldr	r3, [sp, #88]
 821 00ca 9B7A     		ldrb	r3, [r3, #10]	@ zero_extendqisi2
 822 00cc 03F00203 		and	r3, r3, #2
 823 00d0 002B     		cmp	r3, #0
 824 00d2 02D0     		beq	.L42
 825              		.loc 1 426 0 discriminator 4
 826 00d4 4FF00C03 		mov	r3, #12
 827 00d8 01E0     		b	.L43
 828              	.L42:
 829              		.loc 1 426 0 discriminator 5
 830 00da 4FF00003 		mov	r3, #0
 831              	.L43:
 832              		.loc 1 426 0 discriminator 6
 833 00de D318     		adds	r3, r2, r3
 834 00e0 ADF83630 		strh	r3, [sp, #54]	@ movhi
 835              		.loc 1 427 0 is_stmt 1 discriminator 6
 836 00e4 079B     		ldr	r3, [sp, #28]
 837 00e6 1A8F     		ldrh	r2, [r3, #56]
 838 00e8 169B     		ldr	r3, [sp, #88]
 839 00ea 1989     		ldrh	r1, [r3, #8]
 840 00ec BDF83630 		ldrh	r3, [sp, #54]	@ movhi
 841 00f0 CB18     		adds	r3, r1, r3
 842 00f2 9BB2     		uxth	r3, r3
 843 00f4 D31A     		subs	r3, r2, r3
ARM GAS  /tmp/ccKKWSFE.s 			page 16


 844 00f6 ADF84430 		strh	r3, [sp, #68]	@ movhi
 845              		.loc 1 442 0 discriminator 6
 846 00fa 079B     		ldr	r3, [sp, #28]
 847 00fc B3F87230 		ldrh	r3, [r3, #114]
 848 0100 ADF82630 		strh	r3, [sp, #38]	@ movhi
 849              		.loc 1 443 0 discriminator 6
 850 0104 BDF82630 		ldrh	r3, [sp, #38]
 851 0108 002B     		cmp	r3, #0
 852 010a 28D0     		beq	.L44
 853              		.loc 1 444 0
 854 010c BDF84620 		ldrh	r2, [sp, #70]
 855 0110 BDF84430 		ldrh	r3, [sp, #68]
 856 0114 9A42     		cmp	r2, r3
 857 0116 01D9     		bls	.L45
 858              		.loc 1 444 0 is_stmt 0 discriminator 1
 859 0118 FFF7FEFF 		bl	port_halt
 860              	.L45:
 861              		.loc 1 445 0 is_stmt 1
 862 011c 169B     		ldr	r3, [sp, #88]
 863 011e 1593     		str	r3, [sp, #84]
 864              		.loc 1 446 0
 865 0120 BDF82630 		ldrh	r3, [sp, #38]
 866 0124 BDF81620 		ldrh	r2, [sp, #22]
 867 0128 9A42     		cmp	r2, r3
 868 012a 38BF     		it	cc
 869 012c 1346     		movcc	r3, r2
 870 012e ADF84630 		strh	r3, [sp, #70]	@ movhi
 871              		.loc 1 447 0
 872 0132 BDF84A20 		ldrh	r2, [sp, #74]	@ movhi
 873 0136 BDF84630 		ldrh	r3, [sp, #70]	@ movhi
 874 013a D318     		adds	r3, r2, r3
 875 013c ADF84A30 		strh	r3, [sp, #74]	@ movhi
 876              		.loc 1 448 0
 877 0140 BDF82620 		ldrh	r2, [sp, #38]
 878 0144 BDF84630 		ldrh	r3, [sp, #70]	@ movhi
 879 0148 D31A     		subs	r3, r2, r3
 880 014a 9BB2     		uxth	r3, r3
 881 014c ADF82630 		strh	r3, [sp, #38]	@ movhi
 882              		.loc 1 449 0
 883 0150 BDF84420 		ldrh	r2, [sp, #68]	@ movhi
 884 0154 BDF84630 		ldrh	r3, [sp, #70]	@ movhi
 885 0158 D31A     		subs	r3, r2, r3
 886 015a ADF84430 		strh	r3, [sp, #68]	@ movhi
 887              	.L44:
 888              		.loc 1 452 0
 889 015e BDF82630 		ldrh	r3, [sp, #38]
 890 0162 002B     		cmp	r3, #0
 891 0164 07D0     		beq	.L46
 892              		.loc 1 452 0 is_stmt 0 discriminator 1
 893 0166 BDF84A20 		ldrh	r2, [sp, #74]
 894 016a BDF81630 		ldrh	r3, [sp, #22]
 895 016e 9A42     		cmp	r2, r3
 896 0170 01D0     		beq	.L46
 897              		.loc 1 452 0 discriminator 2
 898 0172 FFF7FEFF 		bl	port_halt
 899              	.L46:
 900              		.loc 1 462 0 is_stmt 1
ARM GAS  /tmp/ccKKWSFE.s 			page 17


 901 0176 BDF84A20 		ldrh	r2, [sp, #74]
 902 017a BDF81630 		ldrh	r3, [sp, #22]
 903 017e 9A42     		cmp	r2, r3
 904 0180 80F04381 		bcs	.L53
 905              		.loc 1 462 0 is_stmt 0 discriminator 1
 906 0184 BDF84430 		ldrh	r3, [sp, #68]
 907 0188 002B     		cmp	r3, #0
 908 018a 00F03E81 		beq	.L53
 909 018e 169B     		ldr	r3, [sp, #88]
 910 0190 1B89     		ldrh	r3, [r3, #8]
 911 0192 002B     		cmp	r3, #0
 912 0194 00F03981 		beq	.L53
 913              	.LBB4:
 914              		.loc 1 463 0 is_stmt 1
 915 0198 BDF81620 		ldrh	r2, [sp, #22]
 916 019c BDF84A30 		ldrh	r3, [sp, #74]
 917 01a0 D21A     		subs	r2, r2, r3
 918 01a2 BDF84430 		ldrh	r3, [sp, #68]
 919 01a6 9A42     		cmp	r2, r3
 920 01a8 B8BF     		it	lt
 921 01aa 1346     		movlt	r3, r2
 922 01ac ADF83430 		strh	r3, [sp, #52]	@ movhi
 923              		.loc 1 464 0
 924 01b0 169B     		ldr	r3, [sp, #88]
 925 01b2 1593     		str	r3, [sp, #84]
 926              		.loc 1 469 0
 927 01b4 9DF81530 		ldrb	r3, [sp, #21]	@ zero_extendqisi2
 928 01b8 03F00103 		and	r3, r3, #1
 929 01bc DBB2     		uxtb	r3, r3
 930 01be 002B     		cmp	r3, #0
 931 01c0 25D0     		beq	.L48
 932              		.loc 1 471 0
 933 01c2 BDF83410 		ldrh	r1, [sp, #52]
 934 01c6 BDF84420 		ldrh	r2, [sp, #68]
 935 01ca 0DF12603 		add	r3, sp, #38
 936 01ce 0798     		ldr	r0, [sp, #28]
 937 01d0 0090     		str	r0, [sp, #0]
 938 01d2 9DF81500 		ldrb	r0, [sp, #21]	@ zero_extendqisi2
 939 01d6 0190     		str	r0, [sp, #4]
 940 01d8 4FF00100 		mov	r0, #1
 941 01dc 0290     		str	r0, [sp, #8]
 942 01de 4FF00300 		mov	r0, #3
 943 01e2 FFF7FEFF 		bl	tcp_pbuf_prealloc
 944 01e6 0346     		mov	r3, r0
 945 01e8 1793     		str	r3, [sp, #92]
 946 01ea 179B     		ldr	r3, [sp, #92]
 947 01ec 002B     		cmp	r3, #0
 948 01ee 00F0B281 		beq	.L81
 949              	.L49:
 950              		.loc 1 480 0
 951 01f2 179B     		ldr	r3, [sp, #92]
 952 01f4 5968     		ldr	r1, [r3, #4]
 953 01f6 BDF84A30 		ldrh	r3, [sp, #74]
 954 01fa 069A     		ldr	r2, [sp, #24]
 955 01fc D218     		adds	r2, r2, r3
 956 01fe BDF83430 		ldrh	r3, [sp, #52]
 957 0202 0846     		mov	r0, r1
ARM GAS  /tmp/ccKKWSFE.s 			page 18


 958 0204 1146     		mov	r1, r2
 959 0206 1A46     		mov	r2, r3
 960 0208 FFF7FEFF 		bl	memcpy
 961 020c 14E0     		b	.L51
 962              	.L48:
 963              		.loc 1 486 0
 964 020e BDF83430 		ldrh	r3, [sp, #52]
 965 0212 4FF00300 		mov	r0, #3
 966 0216 1946     		mov	r1, r3
 967 0218 4FF00102 		mov	r2, #1
 968 021c FFF7FEFF 		bl	pbuf_alloc
 969 0220 0346     		mov	r3, r0
 970 0222 1793     		str	r3, [sp, #92]
 971 0224 179B     		ldr	r3, [sp, #92]
 972 0226 002B     		cmp	r3, #0
 973 0228 00F09781 		beq	.L82
 974              	.L52:
 975              		.loc 1 498 0
 976 022c BDF84A30 		ldrh	r3, [sp, #74]
 977 0230 069A     		ldr	r2, [sp, #24]
 978 0232 D218     		adds	r2, r2, r3
 979 0234 179B     		ldr	r3, [sp, #92]
 980 0236 5A60     		str	r2, [r3, #4]
 981              	.L51:
 982              		.loc 1 501 0
 983 0238 BDF84A20 		ldrh	r2, [sp, #74]	@ movhi
 984 023c BDF83430 		ldrh	r3, [sp, #52]	@ movhi
 985 0240 D318     		adds	r3, r2, r3
 986 0242 ADF84A30 		strh	r3, [sp, #74]	@ movhi
 987              		.loc 1 502 0
 988 0246 1798     		ldr	r0, [sp, #92]
 989 0248 FFF7FEFF 		bl	pbuf_clen
 990 024c 0346     		mov	r3, r0
 991 024e 1A46     		mov	r2, r3
 992 0250 BDF84830 		ldrh	r3, [sp, #72]	@ movhi
 993 0254 D318     		adds	r3, r2, r3
 994 0256 ADF84830 		strh	r3, [sp, #72]	@ movhi
 995              	.LBE4:
 996              	.LBE3:
 997              		.loc 1 517 0
 998 025a D6E0     		b	.L53
 999              	.L37:
 1000              		.loc 1 506 0
 1001 025c 079B     		ldr	r3, [sp, #28]
 1002 025e B3F87230 		ldrh	r3, [r3, #114]
 1003 0262 002B     		cmp	r3, #0
 1004 0264 00F0D180 		beq	.L53
 1005              		.loc 1 506 0 is_stmt 0 discriminator 1
 1006 0268 FFF7FEFF 		bl	port_halt
 1007              		.loc 1 517 0 is_stmt 1 discriminator 1
 1008 026c CDE0     		b	.L53
 1009              	.L67:
 1010              	.LBB6:
 1011              		.loc 1 519 0
 1012 026e BDF81620 		ldrh	r2, [sp, #22]	@ movhi
 1013 0272 BDF84A30 		ldrh	r3, [sp, #74]	@ movhi
 1014 0276 D31A     		subs	r3, r2, r3
ARM GAS  /tmp/ccKKWSFE.s 			page 19


 1015 0278 ADF83230 		strh	r3, [sp, #50]	@ movhi
 1016              		.loc 1 520 0
 1017 027c 079B     		ldr	r3, [sp, #28]
 1018 027e 1A8F     		ldrh	r2, [r3, #56]
 1019 0280 9DF83B30 		ldrb	r3, [sp, #59]	@ zero_extendqisi2
 1020 0284 9BB2     		uxth	r3, r3
 1021 0286 D31A     		subs	r3, r2, r3
 1022 0288 ADF83030 		strh	r3, [sp, #48]	@ movhi
 1023              		.loc 1 521 0
 1024 028c BDF83220 		ldrh	r2, [sp, #50]
 1025 0290 BDF83030 		ldrh	r3, [sp, #48]
 1026 0294 9A42     		cmp	r2, r3
 1027 0296 38BF     		it	cc
 1028 0298 1346     		movcc	r3, r2
 1029 029a ADF82E30 		strh	r3, [sp, #46]	@ movhi
 1030              		.loc 1 527 0
 1031 029e 9DF81530 		ldrb	r3, [sp, #21]	@ zero_extendqisi2
 1032 02a2 03F00103 		and	r3, r3, #1
 1033 02a6 DBB2     		uxtb	r3, r3
 1034 02a8 002B     		cmp	r3, #0
 1035 02aa 39D0     		beq	.L54
 1036              		.loc 1 530 0
 1037 02ac 9DF83B30 		ldrb	r3, [sp, #59]	@ zero_extendqisi2
 1038 02b0 9AB2     		uxth	r2, r3
 1039 02b2 BDF82E30 		ldrh	r3, [sp, #46]	@ movhi
 1040 02b6 D318     		adds	r3, r2, r3
 1041 02b8 99B2     		uxth	r1, r3
 1042 02ba 079B     		ldr	r3, [sp, #28]
 1043 02bc 1A8F     		ldrh	r2, [r3, #56]
 1044 02be 139B     		ldr	r3, [sp, #76]
 1045 02c0 002B     		cmp	r3, #0
 1046 02c2 14BF     		ite	ne
 1047 02c4 0023     		movne	r3, #0
 1048 02c6 0123     		moveq	r3, #1
 1049 02c8 D8B2     		uxtb	r0, r3
 1050 02ca 0DF12603 		add	r3, sp, #38
 1051 02ce 079C     		ldr	r4, [sp, #28]
 1052 02d0 0094     		str	r4, [sp, #0]
 1053 02d2 9DF81540 		ldrb	r4, [sp, #21]	@ zero_extendqisi2
 1054 02d6 0194     		str	r4, [sp, #4]
 1055 02d8 0290     		str	r0, [sp, #8]
 1056 02da 4FF00000 		mov	r0, #0
 1057 02de FFF7FEFF 		bl	tcp_pbuf_prealloc
 1058 02e2 0346     		mov	r3, r0
 1059 02e4 1093     		str	r3, [sp, #64]
 1060 02e6 109B     		ldr	r3, [sp, #64]
 1061 02e8 002B     		cmp	r3, #0
 1062 02ea 00F03881 		beq	.L83
 1063              	.L55:
 1064              		.loc 1 534 0
 1065 02ee 109B     		ldr	r3, [sp, #64]
 1066 02f0 5B89     		ldrh	r3, [r3, #10]
 1067 02f2 BDF82E20 		ldrh	r2, [sp, #46]
 1068 02f6 9A42     		cmp	r2, r3
 1069 02f8 01D9     		bls	.L56
 1070              		.loc 1 534 0 is_stmt 0 discriminator 1
 1071 02fa FFF7FEFF 		bl	port_halt
ARM GAS  /tmp/ccKKWSFE.s 			page 20


 1072              	.L56:
 1073              		.loc 1 536 0 is_stmt 1
 1074 02fe 109B     		ldr	r3, [sp, #64]
 1075 0300 5A68     		ldr	r2, [r3, #4]
 1076 0302 9DF83B30 		ldrb	r3, [sp, #59]	@ zero_extendqisi2
 1077 0306 D118     		adds	r1, r2, r3
 1078 0308 BDF84A30 		ldrh	r3, [sp, #74]
 1079 030c 069A     		ldr	r2, [sp, #24]
 1080 030e D218     		adds	r2, r2, r3
 1081 0310 BDF82E30 		ldrh	r3, [sp, #46]
 1082 0314 0846     		mov	r0, r1
 1083 0316 1146     		mov	r1, r2
 1084 0318 1A46     		mov	r2, r3
 1085 031a FFF7FEFF 		bl	memcpy
 1086 031e 31E0     		b	.L57
 1087              	.L54:
 1088              	.LBB7:
 1089              		.loc 1 545 0
 1090 0320 BDF82630 		ldrh	r3, [sp, #38]
 1091 0324 002B     		cmp	r3, #0
 1092 0326 01D0     		beq	.L58
 1093              		.loc 1 545 0 is_stmt 0 discriminator 1
 1094 0328 FFF7FEFF 		bl	port_halt
 1095              	.L58:
 1096              		.loc 1 547 0 is_stmt 1
 1097 032c BDF82E30 		ldrh	r3, [sp, #46]
 1098 0330 4FF00000 		mov	r0, #0
 1099 0334 1946     		mov	r1, r3
 1100 0336 4FF00102 		mov	r2, #1
 1101 033a FFF7FEFF 		bl	pbuf_alloc
 1102 033e 0346     		mov	r3, r0
 1103 0340 0A93     		str	r3, [sp, #40]
 1104 0342 0A9B     		ldr	r3, [sp, #40]
 1105 0344 002B     		cmp	r3, #0
 1106 0346 00F00C81 		beq	.L84
 1107              	.L59:
 1108              		.loc 1 556 0
 1109 034a BDF84A30 		ldrh	r3, [sp, #74]
 1110 034e 069A     		ldr	r2, [sp, #24]
 1111 0350 D218     		adds	r2, r2, r3
 1112 0352 0A9B     		ldr	r3, [sp, #40]
 1113 0354 5A60     		str	r2, [r3, #4]
 1114              		.loc 1 559 0
 1115 0356 9DF83B30 		ldrb	r3, [sp, #59]	@ zero_extendqisi2
 1116 035a 9BB2     		uxth	r3, r3
 1117 035c 4FF00000 		mov	r0, #0
 1118 0360 1946     		mov	r1, r3
 1119 0362 4FF00002 		mov	r2, #0
 1120 0366 FFF7FEFF 		bl	pbuf_alloc
 1121 036a 0346     		mov	r3, r0
 1122 036c 1093     		str	r3, [sp, #64]
 1123 036e 109B     		ldr	r3, [sp, #64]
 1124 0370 002B     		cmp	r3, #0
 1125 0372 03D1     		bne	.L60
 1126              		.loc 1 562 0
 1127 0374 0A98     		ldr	r0, [sp, #40]
 1128 0376 FFF7FEFF 		bl	pbuf_free
ARM GAS  /tmp/ccKKWSFE.s 			page 21


 1129              		.loc 1 564 0
 1130 037a F5E0     		b	.L50
 1131              	.L60:
 1132              		.loc 1 567 0
 1133 037c 1098     		ldr	r0, [sp, #64]
 1134 037e 0A99     		ldr	r1, [sp, #40]
 1135 0380 FFF7FEFF 		bl	pbuf_cat
 1136              	.L57:
 1137              	.LBE7:
 1138              		.loc 1 570 0
 1139 0384 1098     		ldr	r0, [sp, #64]
 1140 0386 FFF7FEFF 		bl	pbuf_clen
 1141 038a 0346     		mov	r3, r0
 1142 038c 1A46     		mov	r2, r3
 1143 038e BDF84830 		ldrh	r3, [sp, #72]	@ movhi
 1144 0392 D318     		adds	r3, r2, r3
 1145 0394 ADF84830 		strh	r3, [sp, #72]	@ movhi
 1146              		.loc 1 575 0
 1147 0398 BDF84830 		ldrh	r3, [sp, #72]
 1148 039c 022B     		cmp	r3, #2
 1149 039e 05D8     		bhi	.L61
 1150              		.loc 1 575 0 is_stmt 0 discriminator 1
 1151 03a0 BDF84820 		ldrh	r2, [sp, #72]
 1152 03a4 4FF6FC73 		movw	r3, #65532
 1153 03a8 9A42     		cmp	r2, r3
 1154 03aa 03D9     		bls	.L62
 1155              	.L61:
 1156              		.loc 1 577 0 is_stmt 1
 1157 03ac 1098     		ldr	r0, [sp, #64]
 1158 03ae FFF7FEFF 		bl	pbuf_free
 1159              		.loc 1 578 0
 1160 03b2 D9E0     		b	.L50
 1161              	.L62:
 1162              		.loc 1 581 0
 1163 03b4 079B     		ldr	r3, [sp, #28]
 1164 03b6 9A6E     		ldr	r2, [r3, #104]
 1165 03b8 BDF84A30 		ldrh	r3, [sp, #74]
 1166 03bc D318     		adds	r3, r2, r3
 1167 03be 9DF83A20 		ldrb	r2, [sp, #58]	@ zero_extendqisi2
 1168 03c2 0092     		str	r2, [sp, #0]
 1169 03c4 0798     		ldr	r0, [sp, #28]
 1170 03c6 1099     		ldr	r1, [sp, #64]
 1171 03c8 4FF00002 		mov	r2, #0
 1172 03cc FFF7FEFF 		bl	tcp_create_segment
 1173 03d0 0346     		mov	r3, r0
 1174 03d2 1593     		str	r3, [sp, #84]
 1175 03d4 159B     		ldr	r3, [sp, #84]
 1176 03d6 002B     		cmp	r3, #0
 1177 03d8 00F0C580 		beq	.L85
 1178              	.L63:
 1179              		.loc 1 594 0
 1180 03dc 139B     		ldr	r3, [sp, #76]
 1181 03de 002B     		cmp	r3, #0
 1182 03e0 02D1     		bne	.L64
 1183              		.loc 1 595 0
 1184 03e2 159B     		ldr	r3, [sp, #84]
 1185 03e4 1393     		str	r3, [sp, #76]
ARM GAS  /tmp/ccKKWSFE.s 			page 22


 1186 03e6 07E0     		b	.L65
 1187              	.L64:
 1188              		.loc 1 598 0
 1189 03e8 149B     		ldr	r3, [sp, #80]
 1190 03ea 002B     		cmp	r3, #0
 1191 03ec 01D1     		bne	.L66
 1192              		.loc 1 598 0 is_stmt 0 discriminator 1
 1193 03ee FFF7FEFF 		bl	port_halt
 1194              	.L66:
 1195              		.loc 1 599 0 is_stmt 1
 1196 03f2 149B     		ldr	r3, [sp, #80]
 1197 03f4 159A     		ldr	r2, [sp, #84]
 1198 03f6 1A60     		str	r2, [r3, #0]
 1199              	.L65:
 1200              		.loc 1 602 0
 1201 03f8 159B     		ldr	r3, [sp, #84]
 1202 03fa 1493     		str	r3, [sp, #80]
 1203              		.loc 1 608 0
 1204 03fc BDF84A20 		ldrh	r2, [sp, #74]	@ movhi
 1205 0400 BDF82E30 		ldrh	r3, [sp, #46]	@ movhi
 1206 0404 D318     		adds	r3, r2, r3
 1207 0406 ADF84A30 		strh	r3, [sp, #74]	@ movhi
 1208              	.L53:
 1209              	.LBE6:
 1210              		.loc 1 517 0 discriminator 1
 1211 040a BDF84A20 		ldrh	r2, [sp, #74]
 1212 040e BDF81630 		ldrh	r3, [sp, #22]
 1213 0412 9A42     		cmp	r2, r3
 1214 0414 FFF42BAF 		bcc	.L67
 1215              		.loc 1 621 0
 1216 0418 BDF84630 		ldrh	r3, [sp, #70]
 1217 041c 002B     		cmp	r3, #0
 1218 041e 32D0     		beq	.L68
 1219              	.LBB9:
 1220              		.loc 1 624 0
 1221 0420 169B     		ldr	r3, [sp, #88]
 1222 0422 5B68     		ldr	r3, [r3, #4]
 1223 0424 0F93     		str	r3, [sp, #60]
 1224 0426 23E0     		b	.L69
 1225              	.L71:
 1226              		.loc 1 625 0
 1227 0428 0F9B     		ldr	r3, [sp, #60]
 1228 042a 1A89     		ldrh	r2, [r3, #8]
 1229 042c BDF84630 		ldrh	r3, [sp, #70]	@ movhi
 1230 0430 D318     		adds	r3, r2, r3
 1231 0432 9AB2     		uxth	r2, r3
 1232 0434 0F9B     		ldr	r3, [sp, #60]
 1233 0436 1A81     		strh	r2, [r3, #8]	@ movhi
 1234              		.loc 1 626 0
 1235 0438 0F9B     		ldr	r3, [sp, #60]
 1236 043a 1B68     		ldr	r3, [r3, #0]
 1237 043c 002B     		cmp	r3, #0
 1238 043e 14D1     		bne	.L70
 1239              		.loc 1 627 0
 1240 0440 0F9B     		ldr	r3, [sp, #60]
 1241 0442 5A68     		ldr	r2, [r3, #4]
 1242 0444 0F9B     		ldr	r3, [sp, #60]
ARM GAS  /tmp/ccKKWSFE.s 			page 23


 1243 0446 5B89     		ldrh	r3, [r3, #10]
 1244 0448 D118     		adds	r1, r2, r3
 1245 044a BDF84630 		ldrh	r3, [sp, #70]
 1246 044e 069A     		ldr	r2, [sp, #24]
 1247 0450 0846     		mov	r0, r1
 1248 0452 1146     		mov	r1, r2
 1249 0454 1A46     		mov	r2, r3
 1250 0456 FFF7FEFF 		bl	memcpy
 1251              		.loc 1 628 0
 1252 045a 0F9B     		ldr	r3, [sp, #60]
 1253 045c 5A89     		ldrh	r2, [r3, #10]
 1254 045e BDF84630 		ldrh	r3, [sp, #70]	@ movhi
 1255 0462 D318     		adds	r3, r2, r3
 1256 0464 9AB2     		uxth	r2, r3
 1257 0466 0F9B     		ldr	r3, [sp, #60]
 1258 0468 5A81     		strh	r2, [r3, #10]	@ movhi
 1259              	.L70:
 1260              		.loc 1 624 0
 1261 046a 0F9B     		ldr	r3, [sp, #60]
 1262 046c 1B68     		ldr	r3, [r3, #0]
 1263 046e 0F93     		str	r3, [sp, #60]
 1264              	.L69:
 1265              		.loc 1 624 0 is_stmt 0 discriminator 1
 1266 0470 0F9B     		ldr	r3, [sp, #60]
 1267 0472 002B     		cmp	r3, #0
 1268 0474 D8D1     		bne	.L71
 1269              		.loc 1 631 0 is_stmt 1
 1270 0476 169B     		ldr	r3, [sp, #88]
 1271 0478 1A89     		ldrh	r2, [r3, #8]
 1272 047a BDF84630 		ldrh	r3, [sp, #70]	@ movhi
 1273 047e D318     		adds	r3, r2, r3
 1274 0480 9AB2     		uxth	r2, r3
 1275 0482 169B     		ldr	r3, [sp, #88]
 1276 0484 1A81     		strh	r2, [r3, #8]	@ movhi
 1277              	.L68:
 1278              	.LBE9:
 1279              		.loc 1 636 0
 1280 0486 BDF82620 		ldrh	r2, [sp, #38]
 1281 048a 079B     		ldr	r3, [sp, #28]
 1282 048c A3F87220 		strh	r2, [r3, #114]	@ movhi
 1283              		.loc 1 642 0
 1284 0490 179B     		ldr	r3, [sp, #92]
 1285 0492 002B     		cmp	r3, #0
 1286 0494 12D0     		beq	.L72
 1287              		.loc 1 643 0
 1288 0496 169B     		ldr	r3, [sp, #88]
 1289 0498 002B     		cmp	r3, #0
 1290 049a 01D1     		bne	.L73
 1291              		.loc 1 643 0 is_stmt 0 discriminator 1
 1292 049c FFF7FEFF 		bl	port_halt
 1293              	.L73:
 1294              		.loc 1 645 0 is_stmt 1
 1295 04a0 169B     		ldr	r3, [sp, #88]
 1296 04a2 5B68     		ldr	r3, [r3, #4]
 1297 04a4 1846     		mov	r0, r3
 1298 04a6 1799     		ldr	r1, [sp, #92]
 1299 04a8 FFF7FEFF 		bl	pbuf_cat
ARM GAS  /tmp/ccKKWSFE.s 			page 24


 1300              		.loc 1 646 0
 1301 04ac 169B     		ldr	r3, [sp, #88]
 1302 04ae 1A89     		ldrh	r2, [r3, #8]
 1303 04b0 179B     		ldr	r3, [sp, #92]
 1304 04b2 1B89     		ldrh	r3, [r3, #8]
 1305 04b4 D318     		adds	r3, r2, r3
 1306 04b6 9AB2     		uxth	r2, r3
 1307 04b8 169B     		ldr	r3, [sp, #88]
 1308 04ba 1A81     		strh	r2, [r3, #8]	@ movhi
 1309              	.L72:
 1310              		.loc 1 660 0
 1311 04bc 169B     		ldr	r3, [sp, #88]
 1312 04be 002B     		cmp	r3, #0
 1313 04c0 03D1     		bne	.L74
 1314              		.loc 1 661 0
 1315 04c2 079B     		ldr	r3, [sp, #28]
 1316 04c4 139A     		ldr	r2, [sp, #76]
 1317 04c6 5A67     		str	r2, [r3, #116]
 1318 04c8 02E0     		b	.L75
 1319              	.L74:
 1320              		.loc 1 663 0
 1321 04ca 169B     		ldr	r3, [sp, #88]
 1322 04cc 139A     		ldr	r2, [sp, #76]
 1323 04ce 1A60     		str	r2, [r3, #0]
 1324              	.L75:
 1325              		.loc 1 669 0
 1326 04d0 079B     		ldr	r3, [sp, #28]
 1327 04d2 9A6E     		ldr	r2, [r3, #104]
 1328 04d4 BDF81630 		ldrh	r3, [sp, #22]
 1329 04d8 D218     		adds	r2, r2, r3
 1330 04da 079B     		ldr	r3, [sp, #28]
 1331 04dc 9A66     		str	r2, [r3, #104]
 1332              		.loc 1 670 0
 1333 04de 079B     		ldr	r3, [sp, #28]
 1334 04e0 B3F86E20 		ldrh	r2, [r3, #110]
 1335 04e4 BDF81630 		ldrh	r3, [sp, #22]	@ movhi
 1336 04e8 D31A     		subs	r3, r2, r3
 1337 04ea 9AB2     		uxth	r2, r3
 1338 04ec 079B     		ldr	r3, [sp, #28]
 1339 04ee A3F86E20 		strh	r2, [r3, #110]	@ movhi
 1340              		.loc 1 671 0
 1341 04f2 079B     		ldr	r3, [sp, #28]
 1342 04f4 BDF84820 		ldrh	r2, [sp, #72]	@ movhi
 1343 04f8 A3F87020 		strh	r2, [r3, #112]	@ movhi
 1344              		.loc 1 675 0
 1345 04fc 079B     		ldr	r3, [sp, #28]
 1346 04fe B3F87030 		ldrh	r3, [r3, #112]
 1347 0502 002B     		cmp	r3, #0
 1348 0504 09D0     		beq	.L76
 1349              		.loc 1 676 0
 1350 0506 079B     		ldr	r3, [sp, #28]
 1351 0508 9B6F     		ldr	r3, [r3, #120]
 1352 050a 002B     		cmp	r3, #0
 1353 050c 05D1     		bne	.L76
 1354              		.loc 1 676 0 is_stmt 0 discriminator 1
 1355 050e 079B     		ldr	r3, [sp, #28]
 1356 0510 5B6F     		ldr	r3, [r3, #116]
ARM GAS  /tmp/ccKKWSFE.s 			page 25


 1357 0512 002B     		cmp	r3, #0
 1358 0514 01D1     		bne	.L76
 1359              		.loc 1 676 0 discriminator 2
 1360 0516 FFF7FEFF 		bl	port_halt
 1361              	.L76:
 1362              		.loc 1 681 0 is_stmt 1
 1363 051a 159B     		ldr	r3, [sp, #84]
 1364 051c 002B     		cmp	r3, #0
 1365 051e 17D0     		beq	.L77
 1366              		.loc 1 681 0 is_stmt 0 discriminator 1
 1367 0520 159B     		ldr	r3, [sp, #84]
 1368 0522 DB68     		ldr	r3, [r3, #12]
 1369 0524 002B     		cmp	r3, #0
 1370 0526 13D0     		beq	.L77
 1371 0528 9DF81530 		ldrb	r3, [sp, #21]	@ zero_extendqisi2
 1372 052c 03F00203 		and	r3, r3, #2
 1373 0530 002B     		cmp	r3, #0
 1374 0532 0DD1     		bne	.L77
 1375              		.loc 1 682 0 is_stmt 1
 1376 0534 159B     		ldr	r3, [sp, #84]
 1377 0536 DC68     		ldr	r4, [r3, #12]
 1378 0538 159B     		ldr	r3, [sp, #84]
 1379 053a DB68     		ldr	r3, [r3, #12]
 1380 053c 9B89     		ldrh	r3, [r3, #12]	@ unaligned
 1381 053e 9DB2     		uxth	r5, r3
 1382 0540 4FF00800 		mov	r0, #8
 1383 0544 FFF7FEFF 		bl	lwip_htons
 1384 0548 0346     		mov	r3, r0
 1385 054a 2B43     		orrs	r3, r3, r5
 1386 054c 9BB2     		uxth	r3, r3
 1387 054e A381     		strh	r3, [r4, #12]	@ unaligned
 1388              	.L77:
 1389              		.loc 1 685 0
 1390 0550 4FF00003 		mov	r3, #0
 1391 0554 3DE0     		b	.L35
 1392              	.L81:
 1393              	.LBB10:
 1394              	.LBB5:
 1395              		.loc 1 475 0
 1396 0556 00BF     		nop
 1397 0558 06E0     		b	.L50
 1398              	.L82:
 1399              		.loc 1 489 0
 1400 055a 00BF     		nop
 1401 055c 04E0     		b	.L50
 1402              	.L83:
 1403              	.LBE5:
 1404              	.LBE10:
 1405              	.LBB11:
 1406              		.loc 1 532 0
 1407 055e 00BF     		nop
 1408 0560 02E0     		b	.L50
 1409              	.L84:
 1410              	.LBB8:
 1411              		.loc 1 549 0
 1412 0562 00BF     		nop
 1413 0564 00E0     		b	.L50
ARM GAS  /tmp/ccKKWSFE.s 			page 26


 1414              	.L85:
 1415              	.LBE8:
 1416              		.loc 1 582 0
 1417 0566 00BF     		nop
 1418              	.L50:
 1419              	.LBE11:
 1420              		.loc 1 687 0
 1421 0568 079B     		ldr	r3, [sp, #28]
 1422 056a 93F82030 		ldrb	r3, [r3, #32]	@ zero_extendqisi2
 1423 056e 63F07F03 		orn	r3, r3, #127
 1424 0572 DAB2     		uxtb	r2, r3
 1425 0574 079B     		ldr	r3, [sp, #28]
 1426 0576 83F82020 		strb	r2, [r3, #32]
 1427              		.loc 1 688 0
 1428 057a 40F20003 		movw	r3, #:lower16:lwip_stats
 1429 057e C0F20003 		movt	r3, #:upper16:lwip_stats
 1430 0582 B3F89C30 		ldrh	r3, [r3, #156]
 1431 0586 03F10103 		add	r3, r3, #1
 1432 058a 9AB2     		uxth	r2, r3
 1433 058c 40F20003 		movw	r3, #:lower16:lwip_stats
 1434 0590 C0F20003 		movt	r3, #:upper16:lwip_stats
 1435 0594 A3F89C20 		strh	r2, [r3, #156]	@ movhi
 1436              		.loc 1 690 0
 1437 0598 179B     		ldr	r3, [sp, #92]
 1438 059a 002B     		cmp	r3, #0
 1439 059c 02D0     		beq	.L78
 1440              		.loc 1 691 0
 1441 059e 1798     		ldr	r0, [sp, #92]
 1442 05a0 FFF7FEFF 		bl	pbuf_free
 1443              	.L78:
 1444              		.loc 1 693 0
 1445 05a4 139B     		ldr	r3, [sp, #76]
 1446 05a6 002B     		cmp	r3, #0
 1447 05a8 02D0     		beq	.L79
 1448              		.loc 1 694 0
 1449 05aa 1398     		ldr	r0, [sp, #76]
 1450 05ac FFF7FEFF 		bl	tcp_segs_free
 1451              	.L79:
 1452              		.loc 1 696 0
 1453 05b0 079B     		ldr	r3, [sp, #28]
 1454 05b2 B3F87030 		ldrh	r3, [r3, #112]
 1455 05b6 002B     		cmp	r3, #0
 1456 05b8 09D0     		beq	.L80
 1457              		.loc 1 697 0
 1458 05ba 079B     		ldr	r3, [sp, #28]
 1459 05bc 9B6F     		ldr	r3, [r3, #120]
 1460 05be 002B     		cmp	r3, #0
 1461 05c0 05D1     		bne	.L80
 1462              		.loc 1 697 0 is_stmt 0 discriminator 1
 1463 05c2 079B     		ldr	r3, [sp, #28]
 1464 05c4 5B6F     		ldr	r3, [r3, #116]
 1465 05c6 002B     		cmp	r3, #0
 1466 05c8 01D1     		bne	.L80
 1467              		.loc 1 697 0 discriminator 2
 1468 05ca FFF7FEFF 		bl	port_halt
 1469              	.L80:
 1470              		.loc 1 701 0 is_stmt 1
ARM GAS  /tmp/ccKKWSFE.s 			page 27


 1471 05ce 4FF0FF03 		mov	r3, #255
 1472              	.L35:
 1473 05d2 5BB2     		sxtb	r3, r3
 1474              		.loc 1 702 0
 1475 05d4 1846     		mov	r0, r3
 1476 05d6 19B0     		add	sp, sp, #100
 1477 05d8 30BD     		pop	{r4, r5, pc}
 1478              		.cfi_endproc
 1479              	.LFE12:
 1480              		.size	tcp_write, .-tcp_write
 1481 05da 00BFAFF3 		.section	.text.tcp_enqueue_flags,"ax",%progbits
 1481      0080
 1482              		.align	2
 1483              		.p2align 4,,15
 1484              		.global	tcp_enqueue_flags
 1485              		.thumb
 1486              		.thumb_func
 1487              		.type	tcp_enqueue_flags, %function
 1488              	tcp_enqueue_flags:
 1489              	.LFB13:
 1490              		.loc 1 716 0
 1491              		.cfi_startproc
 1492              		@ args = 0, pretend = 0, frame = 32
 1493              		@ frame_needed = 0, uses_anonymous_args = 0
 1494 0000 10B5     		push	{r4, lr}
 1495              	.LCFI12:
 1496              		.cfi_def_cfa_offset 8
 1497              		.cfi_offset 14, -4
 1498              		.cfi_offset 4, -8
 1499 0002 8AB0     		sub	sp, sp, #40
 1500              	.LCFI13:
 1501              		.cfi_def_cfa_offset 48
 1502 0004 0390     		str	r0, [sp, #12]
 1503 0006 0B46     		mov	r3, r1
 1504 0008 8DF80B30 		strb	r3, [sp, #11]
 1505              		.loc 1 719 0
 1506 000c 4FF00003 		mov	r3, #0
 1507 0010 8DF82730 		strb	r3, [sp, #39]
 1508              		.loc 1 720 0
 1509 0014 4FF00003 		mov	r3, #0
 1510 0018 8DF81F30 		strb	r3, [sp, #31]
 1511              		.loc 1 724 0
 1512 001c 9DF80B30 		ldrb	r3, [sp, #11]	@ zero_extendqisi2
 1513 0020 03F00303 		and	r3, r3, #3
 1514 0024 002B     		cmp	r3, #0
 1515 0026 01D1     		bne	.L87
 1516              		.loc 1 724 0 is_stmt 0 discriminator 1
 1517 0028 FFF7FEFF 		bl	port_halt
 1518              	.L87:
 1519              		.loc 1 728 0 is_stmt 1
 1520 002c 039B     		ldr	r3, [sp, #12]
 1521 002e B3F87030 		ldrh	r3, [r3, #112]
 1522 0032 012B     		cmp	r3, #1
 1523 0034 06D8     		bhi	.L88
 1524              		.loc 1 728 0 is_stmt 0 discriminator 1
 1525 0036 039B     		ldr	r3, [sp, #12]
 1526 0038 B3F87020 		ldrh	r2, [r3, #112]
ARM GAS  /tmp/ccKKWSFE.s 			page 28


 1527 003c 4FF6FC73 		movw	r3, #65532
 1528 0040 9A42     		cmp	r2, r3
 1529 0042 1AD9     		bls	.L89
 1530              	.L88:
 1531              		.loc 1 731 0 is_stmt 1
 1532 0044 40F20003 		movw	r3, #:lower16:lwip_stats
 1533 0048 C0F20003 		movt	r3, #:upper16:lwip_stats
 1534 004c B3F89C30 		ldrh	r3, [r3, #156]
 1535 0050 03F10103 		add	r3, r3, #1
 1536 0054 9AB2     		uxth	r2, r3
 1537 0056 40F20003 		movw	r3, #:lower16:lwip_stats
 1538 005a C0F20003 		movt	r3, #:upper16:lwip_stats
 1539 005e A3F89C20 		strh	r2, [r3, #156]	@ movhi
 1540              		.loc 1 732 0
 1541 0062 039B     		ldr	r3, [sp, #12]
 1542 0064 93F82030 		ldrb	r3, [r3, #32]	@ zero_extendqisi2
 1543 0068 63F07F03 		orn	r3, r3, #127
 1544 006c DAB2     		uxtb	r2, r3
 1545 006e 039B     		ldr	r3, [sp, #12]
 1546 0070 83F82020 		strb	r2, [r3, #32]
 1547              		.loc 1 733 0
 1548 0074 4FF0FF03 		mov	r3, #255
 1549 0078 0CE1     		b	.L90
 1550              	.L89:
 1551              		.loc 1 736 0
 1552 007a 9DF80B30 		ldrb	r3, [sp, #11]	@ zero_extendqisi2
 1553 007e 03F00203 		and	r3, r3, #2
 1554 0082 002B     		cmp	r3, #0
 1555 0084 03D0     		beq	.L91
 1556              		.loc 1 737 0
 1557 0086 4FF00103 		mov	r3, #1
 1558 008a 8DF82730 		strb	r3, [sp, #39]
 1559              	.L91:
 1560              		.loc 1 744 0
 1561 008e 9DF82730 		ldrb	r3, [sp, #39]	@ zero_extendqisi2
 1562 0092 03F00103 		and	r3, r3, #1
 1563 0096 DBB2     		uxtb	r3, r3
 1564 0098 002B     		cmp	r3, #0
 1565 009a 02D0     		beq	.L92
 1566              		.loc 1 744 0 is_stmt 0 discriminator 1
 1567 009c 4FF00402 		mov	r2, #4
 1568 00a0 01E0     		b	.L93
 1569              	.L92:
 1570              		.loc 1 744 0 discriminator 2
 1571 00a2 4FF00002 		mov	r2, #0
 1572              	.L93:
 1573              		.loc 1 744 0 discriminator 3
 1574 00a6 9DF82730 		ldrb	r3, [sp, #39]	@ zero_extendqisi2
 1575 00aa 03F00203 		and	r3, r3, #2
 1576 00ae 002B     		cmp	r3, #0
 1577 00b0 02D0     		beq	.L94
 1578              		.loc 1 744 0 discriminator 4
 1579 00b2 4FF00C03 		mov	r3, #12
 1580 00b6 01E0     		b	.L95
 1581              	.L94:
 1582              		.loc 1 744 0 discriminator 5
 1583 00b8 4FF00003 		mov	r3, #0
ARM GAS  /tmp/ccKKWSFE.s 			page 29


 1584              	.L95:
 1585              		.loc 1 744 0 discriminator 6
 1586 00bc D318     		adds	r3, r2, r3
 1587 00be 8DF81F30 		strb	r3, [sp, #31]
 1588              		.loc 1 750 0 is_stmt 1 discriminator 6
 1589 00c2 039B     		ldr	r3, [sp, #12]
 1590 00c4 B3F86E30 		ldrh	r3, [r3, #110]
 1591 00c8 002B     		cmp	r3, #0
 1592 00ca 11D1     		bne	.L96
 1593              		.loc 1 752 0
 1594 00cc 40F20003 		movw	r3, #:lower16:lwip_stats
 1595 00d0 C0F20003 		movt	r3, #:upper16:lwip_stats
 1596 00d4 B3F89C30 		ldrh	r3, [r3, #156]
 1597 00d8 03F10103 		add	r3, r3, #1
 1598 00dc 9AB2     		uxth	r2, r3
 1599 00de 40F20003 		movw	r3, #:lower16:lwip_stats
 1600 00e2 C0F20003 		movt	r3, #:upper16:lwip_stats
 1601 00e6 A3F89C20 		strh	r2, [r3, #156]	@ movhi
 1602              		.loc 1 753 0
 1603 00ea 4FF0FF03 		mov	r3, #255
 1604 00ee D1E0     		b	.L90
 1605              	.L96:
 1606              		.loc 1 757 0
 1607 00f0 9DF81F30 		ldrb	r3, [sp, #31]	@ zero_extendqisi2
 1608 00f4 9BB2     		uxth	r3, r3
 1609 00f6 4FF00000 		mov	r0, #0
 1610 00fa 1946     		mov	r1, r3
 1611 00fc 4FF00002 		mov	r2, #0
 1612 0100 FFF7FEFF 		bl	pbuf_alloc
 1613 0104 0346     		mov	r3, r0
 1614 0106 0693     		str	r3, [sp, #24]
 1615 0108 069B     		ldr	r3, [sp, #24]
 1616 010a 002B     		cmp	r3, #0
 1617 010c 1AD1     		bne	.L97
 1618              		.loc 1 758 0
 1619 010e 039B     		ldr	r3, [sp, #12]
 1620 0110 93F82030 		ldrb	r3, [r3, #32]	@ zero_extendqisi2
 1621 0114 63F07F03 		orn	r3, r3, #127
 1622 0118 DAB2     		uxtb	r2, r3
 1623 011a 039B     		ldr	r3, [sp, #12]
 1624 011c 83F82020 		strb	r2, [r3, #32]
 1625              		.loc 1 759 0
 1626 0120 40F20003 		movw	r3, #:lower16:lwip_stats
 1627 0124 C0F20003 		movt	r3, #:upper16:lwip_stats
 1628 0128 B3F89C30 		ldrh	r3, [r3, #156]
 1629 012c 03F10103 		add	r3, r3, #1
 1630 0130 9AB2     		uxth	r2, r3
 1631 0132 40F20003 		movw	r3, #:lower16:lwip_stats
 1632 0136 C0F20003 		movt	r3, #:upper16:lwip_stats
 1633 013a A3F89C20 		strh	r2, [r3, #156]	@ movhi
 1634              		.loc 1 760 0
 1635 013e 4FF0FF03 		mov	r3, #255
 1636 0142 A7E0     		b	.L90
 1637              	.L97:
 1638              		.loc 1 762 0
 1639 0144 069B     		ldr	r3, [sp, #24]
 1640 0146 5A89     		ldrh	r2, [r3, #10]
ARM GAS  /tmp/ccKKWSFE.s 			page 30


 1641 0148 9DF81F30 		ldrb	r3, [sp, #31]	@ zero_extendqisi2
 1642 014c 9BB2     		uxth	r3, r3
 1643 014e 9A42     		cmp	r2, r3
 1644 0150 01D2     		bcs	.L98
 1645              		.loc 1 762 0 is_stmt 0 discriminator 1
 1646 0152 FFF7FEFF 		bl	port_halt
 1647              	.L98:
 1648              		.loc 1 766 0 is_stmt 1
 1649 0156 039B     		ldr	r3, [sp, #12]
 1650 0158 9B6E     		ldr	r3, [r3, #104]
 1651 015a 9DF80B20 		ldrb	r2, [sp, #11]	@ zero_extendqisi2
 1652 015e 9DF82710 		ldrb	r1, [sp, #39]	@ zero_extendqisi2
 1653 0162 0091     		str	r1, [sp, #0]
 1654 0164 0398     		ldr	r0, [sp, #12]
 1655 0166 0699     		ldr	r1, [sp, #24]
 1656 0168 FFF7FEFF 		bl	tcp_create_segment
 1657 016c 0346     		mov	r3, r0
 1658 016e 0593     		str	r3, [sp, #20]
 1659 0170 059B     		ldr	r3, [sp, #20]
 1660 0172 002B     		cmp	r3, #0
 1661 0174 1AD1     		bne	.L99
 1662              		.loc 1 767 0
 1663 0176 039B     		ldr	r3, [sp, #12]
 1664 0178 93F82030 		ldrb	r3, [r3, #32]	@ zero_extendqisi2
 1665 017c 63F07F03 		orn	r3, r3, #127
 1666 0180 DAB2     		uxtb	r2, r3
 1667 0182 039B     		ldr	r3, [sp, #12]
 1668 0184 83F82020 		strb	r2, [r3, #32]
 1669              		.loc 1 768 0
 1670 0188 40F20003 		movw	r3, #:lower16:lwip_stats
 1671 018c C0F20003 		movt	r3, #:upper16:lwip_stats
 1672 0190 B3F89C30 		ldrh	r3, [r3, #156]
 1673 0194 03F10103 		add	r3, r3, #1
 1674 0198 9AB2     		uxth	r2, r3
 1675 019a 40F20003 		movw	r3, #:lower16:lwip_stats
 1676 019e C0F20003 		movt	r3, #:upper16:lwip_stats
 1677 01a2 A3F89C20 		strh	r2, [r3, #156]	@ movhi
 1678              		.loc 1 769 0
 1679 01a6 4FF0FF03 		mov	r3, #255
 1680 01aa 73E0     		b	.L90
 1681              	.L99:
 1682              		.loc 1 771 0
 1683 01ac 059B     		ldr	r3, [sp, #20]
 1684 01ae DB68     		ldr	r3, [r3, #12]
 1685 01b0 03F00303 		and	r3, r3, #3
 1686 01b4 002B     		cmp	r3, #0
 1687 01b6 01D0     		beq	.L100
 1688              		.loc 1 771 0 is_stmt 0 discriminator 1
 1689 01b8 FFF7FEFF 		bl	port_halt
 1690              	.L100:
 1691              		.loc 1 772 0 is_stmt 1
 1692 01bc 059B     		ldr	r3, [sp, #20]
 1693 01be 1B89     		ldrh	r3, [r3, #8]
 1694 01c0 002B     		cmp	r3, #0
 1695 01c2 01D0     		beq	.L101
 1696              		.loc 1 772 0 is_stmt 0 discriminator 1
 1697 01c4 FFF7FEFF 		bl	port_halt
ARM GAS  /tmp/ccKKWSFE.s 			page 31


 1698              	.L101:
 1699              		.loc 1 781 0 is_stmt 1
 1700 01c8 039B     		ldr	r3, [sp, #12]
 1701 01ca 5B6F     		ldr	r3, [r3, #116]
 1702 01cc 002B     		cmp	r3, #0
 1703 01ce 03D1     		bne	.L102
 1704              		.loc 1 782 0
 1705 01d0 039B     		ldr	r3, [sp, #12]
 1706 01d2 059A     		ldr	r2, [sp, #20]
 1707 01d4 5A67     		str	r2, [r3, #116]
 1708 01d6 0DE0     		b	.L103
 1709              	.L102:
 1710              	.LBB12:
 1711              		.loc 1 785 0
 1712 01d8 039B     		ldr	r3, [sp, #12]
 1713 01da 5B6F     		ldr	r3, [r3, #116]
 1714 01dc 0893     		str	r3, [sp, #32]
 1715 01de 02E0     		b	.L104
 1716              	.L105:
 1717              		.loc 1 785 0 is_stmt 0 discriminator 2
 1718 01e0 089B     		ldr	r3, [sp, #32]
 1719 01e2 1B68     		ldr	r3, [r3, #0]
 1720 01e4 0893     		str	r3, [sp, #32]
 1721              	.L104:
 1722              		.loc 1 785 0 discriminator 1
 1723 01e6 089B     		ldr	r3, [sp, #32]
 1724 01e8 1B68     		ldr	r3, [r3, #0]
 1725 01ea 002B     		cmp	r3, #0
 1726 01ec F8D1     		bne	.L105
 1727              		.loc 1 786 0 is_stmt 1
 1728 01ee 089B     		ldr	r3, [sp, #32]
 1729 01f0 059A     		ldr	r2, [sp, #20]
 1730 01f2 1A60     		str	r2, [r3, #0]
 1731              	.L103:
 1732              	.LBE12:
 1733              		.loc 1 790 0
 1734 01f4 039B     		ldr	r3, [sp, #12]
 1735 01f6 4FF00002 		mov	r2, #0
 1736 01fa A3F87220 		strh	r2, [r3, #114]	@ movhi
 1737              		.loc 1 794 0
 1738 01fe 9DF80B30 		ldrb	r3, [sp, #11]	@ zero_extendqisi2
 1739 0202 03F00203 		and	r3, r3, #2
 1740 0206 002B     		cmp	r3, #0
 1741 0208 06D1     		bne	.L106
 1742              		.loc 1 794 0 is_stmt 0 discriminator 1
 1743 020a 9DF80B30 		ldrb	r3, [sp, #11]	@ zero_extendqisi2
 1744 020e 03F00103 		and	r3, r3, #1
 1745 0212 DBB2     		uxtb	r3, r3
 1746 0214 002B     		cmp	r3, #0
 1747 0216 0ED0     		beq	.L107
 1748              	.L106:
 1749              		.loc 1 795 0 is_stmt 1
 1750 0218 039B     		ldr	r3, [sp, #12]
 1751 021a 9B6E     		ldr	r3, [r3, #104]
 1752 021c 03F10102 		add	r2, r3, #1
 1753 0220 039B     		ldr	r3, [sp, #12]
 1754 0222 9A66     		str	r2, [r3, #104]
ARM GAS  /tmp/ccKKWSFE.s 			page 32


 1755              		.loc 1 797 0
 1756 0224 039B     		ldr	r3, [sp, #12]
 1757 0226 B3F86E30 		ldrh	r3, [r3, #110]
 1758 022a 03F1FF33 		add	r3, r3, #-1
 1759 022e 9AB2     		uxth	r2, r3
 1760 0230 039B     		ldr	r3, [sp, #12]
 1761 0232 A3F86E20 		strh	r2, [r3, #110]	@ movhi
 1762              	.L107:
 1763              		.loc 1 799 0
 1764 0236 9DF80B30 		ldrb	r3, [sp, #11]	@ zero_extendqisi2
 1765 023a 03F00103 		and	r3, r3, #1
 1766 023e DBB2     		uxtb	r3, r3
 1767 0240 002B     		cmp	r3, #0
 1768 0242 08D0     		beq	.L108
 1769              		.loc 1 800 0
 1770 0244 039B     		ldr	r3, [sp, #12]
 1771 0246 93F82030 		ldrb	r3, [r3, #32]	@ zero_extendqisi2
 1772 024a 43F02003 		orr	r3, r3, #32
 1773 024e DAB2     		uxtb	r2, r3
 1774 0250 039B     		ldr	r3, [sp, #12]
 1775 0252 83F82020 		strb	r2, [r3, #32]
 1776              	.L108:
 1777              		.loc 1 804 0
 1778 0256 039B     		ldr	r3, [sp, #12]
 1779 0258 B3F87040 		ldrh	r4, [r3, #112]
 1780 025c 059B     		ldr	r3, [sp, #20]
 1781 025e 5B68     		ldr	r3, [r3, #4]
 1782 0260 1846     		mov	r0, r3
 1783 0262 FFF7FEFF 		bl	pbuf_clen
 1784 0266 0346     		mov	r3, r0
 1785 0268 E318     		adds	r3, r4, r3
 1786 026a 9AB2     		uxth	r2, r3
 1787 026c 039B     		ldr	r3, [sp, #12]
 1788 026e A3F87020 		strh	r2, [r3, #112]	@ movhi
 1789              		.loc 1 806 0
 1790 0272 039B     		ldr	r3, [sp, #12]
 1791 0274 B3F87030 		ldrh	r3, [r3, #112]
 1792 0278 002B     		cmp	r3, #0
 1793 027a 09D0     		beq	.L109
 1794              		.loc 1 807 0
 1795 027c 039B     		ldr	r3, [sp, #12]
 1796 027e 9B6F     		ldr	r3, [r3, #120]
 1797 0280 002B     		cmp	r3, #0
 1798 0282 05D1     		bne	.L109
 1799              		.loc 1 807 0 is_stmt 0 discriminator 1
 1800 0284 039B     		ldr	r3, [sp, #12]
 1801 0286 5B6F     		ldr	r3, [r3, #116]
 1802 0288 002B     		cmp	r3, #0
 1803 028a 01D1     		bne	.L109
 1804              		.loc 1 807 0 discriminator 2
 1805 028c FFF7FEFF 		bl	port_halt
 1806              	.L109:
 1807              		.loc 1 811 0 is_stmt 1
 1808 0290 4FF00003 		mov	r3, #0
 1809              	.L90:
 1810 0294 5BB2     		sxtb	r3, r3
 1811              		.loc 1 812 0
ARM GAS  /tmp/ccKKWSFE.s 			page 33


 1812 0296 1846     		mov	r0, r3
 1813 0298 0AB0     		add	sp, sp, #40
 1814 029a 10BD     		pop	{r4, pc}
 1815              		.cfi_endproc
 1816              	.LFE13:
 1817              		.size	tcp_enqueue_flags, .-tcp_enqueue_flags
 1818 029c AFF30080 		.section	.text.tcp_send_empty_ack,"ax",%progbits
 1819              		.align	2
 1820              		.p2align 4,,15
 1821              		.global	tcp_send_empty_ack
 1822              		.thumb
 1823              		.thumb_func
 1824              		.type	tcp_send_empty_ack, %function
 1825              	tcp_send_empty_ack:
 1826              	.LFB14:
 1827              		.loc 1 837 0
 1828              		.cfi_startproc
 1829              		@ args = 0, pretend = 0, frame = 24
 1830              		@ frame_needed = 0, uses_anonymous_args = 0
 1831 0000 10B5     		push	{r4, lr}
 1832              	.LCFI14:
 1833              		.cfi_def_cfa_offset 8
 1834              		.cfi_offset 14, -4
 1835              		.cfi_offset 4, -8
 1836 0002 88B0     		sub	sp, sp, #32
 1837              	.LCFI15:
 1838              		.cfi_def_cfa_offset 40
 1839 0004 0390     		str	r0, [sp, #12]
 1840              		.loc 1 840 0
 1841 0006 4FF00003 		mov	r3, #0
 1842 000a 8DF81F30 		strb	r3, [sp, #31]
 1843              		.loc 1 848 0
 1844 000e 9DF81F30 		ldrb	r3, [sp, #31]	@ zero_extendqisi2
 1845 0012 9CB2     		uxth	r4, r3
 1846 0014 039B     		ldr	r3, [sp, #12]
 1847 0016 9B6D     		ldr	r3, [r3, #88]
 1848 0018 1846     		mov	r0, r3
 1849 001a FFF7FEFF 		bl	lwip_htonl
 1850 001e 0346     		mov	r3, r0
 1851 0020 0398     		ldr	r0, [sp, #12]
 1852 0022 2146     		mov	r1, r4
 1853 0024 4FF00002 		mov	r2, #0
 1854 0028 FFF7FEFF 		bl	tcp_output_alloc_header
 1855 002c 0346     		mov	r3, r0
 1856 002e 0693     		str	r3, [sp, #24]
 1857              		.loc 1 849 0
 1858 0030 069B     		ldr	r3, [sp, #24]
 1859 0032 002B     		cmp	r3, #0
 1860 0034 02D1     		bne	.L111
 1861              		.loc 1 851 0
 1862 0036 4FF0FE03 		mov	r3, #254
 1863 003a 31E0     		b	.L112
 1864              	.L111:
 1865              		.loc 1 853 0
 1866 003c 069B     		ldr	r3, [sp, #24]
 1867 003e 5B68     		ldr	r3, [r3, #4]
 1868 0040 0593     		str	r3, [sp, #20]
ARM GAS  /tmp/ccKKWSFE.s 			page 34


 1869              		.loc 1 857 0
 1870 0042 039B     		ldr	r3, [sp, #12]
 1871 0044 93F82030 		ldrb	r3, [r3, #32]	@ zero_extendqisi2
 1872 0048 23F00303 		bic	r3, r3, #3
 1873 004c DAB2     		uxtb	r2, r3
 1874 004e 039B     		ldr	r3, [sp, #12]
 1875 0050 83F82020 		strb	r2, [r3, #32]
 1876              		.loc 1 869 0
 1877 0054 039A     		ldr	r2, [sp, #12]
 1878 0056 039B     		ldr	r3, [sp, #12]
 1879 0058 03F10403 		add	r3, r3, #4
 1880              		.loc 1 870 0
 1881 005c 0699     		ldr	r1, [sp, #24]
 1882              		.loc 1 869 0
 1883 005e 0989     		ldrh	r1, [r1, #8]
 1884 0060 0091     		str	r1, [sp, #0]
 1885 0062 0698     		ldr	r0, [sp, #24]
 1886 0064 1146     		mov	r1, r2
 1887 0066 1A46     		mov	r2, r3
 1888 0068 4FF00603 		mov	r3, #6
 1889 006c FFF7FEFF 		bl	inet_chksum_pseudo
 1890 0070 0346     		mov	r3, r0
 1891 0072 1A46     		mov	r2, r3
 1892 0074 059B     		ldr	r3, [sp, #20]
 1893 0076 1A82     		strh	r2, [r3, #16]	@ unaligned
 1894              		.loc 1 876 0
 1895 0078 0399     		ldr	r1, [sp, #12]
 1896 007a 039B     		ldr	r3, [sp, #12]
 1897 007c 03F10402 		add	r2, r3, #4
 1898 0080 039B     		ldr	r3, [sp, #12]
 1899 0082 9B7A     		ldrb	r3, [r3, #10]	@ zero_extendqisi2
 1900 0084 0398     		ldr	r0, [sp, #12]
 1901 0086 407A     		ldrb	r0, [r0, #9]	@ zero_extendqisi2
 1902 0088 0090     		str	r0, [sp, #0]
 1903 008a 4FF00600 		mov	r0, #6
 1904 008e 0190     		str	r0, [sp, #4]
 1905 0090 0698     		ldr	r0, [sp, #24]
 1906 0092 FFF7FEFF 		bl	ip_output
 1907              		.loc 1 879 0
 1908 0096 0698     		ldr	r0, [sp, #24]
 1909 0098 FFF7FEFF 		bl	pbuf_free
 1910              		.loc 1 881 0
 1911 009c 4FF00003 		mov	r3, #0
 1912              	.L112:
 1913 00a0 5BB2     		sxtb	r3, r3
 1914              		.loc 1 882 0
 1915 00a2 1846     		mov	r0, r3
 1916 00a4 08B0     		add	sp, sp, #32
 1917 00a6 10BD     		pop	{r4, pc}
 1918              		.cfi_endproc
 1919              	.LFE14:
 1920              		.size	tcp_send_empty_ack, .-tcp_send_empty_ack
 1921 00a8 AFF30080 		.section	.text.tcp_output,"ax",%progbits
 1921      AFF30080 
 1922              		.align	2
 1923              		.p2align 4,,15
 1924              		.global	tcp_output
ARM GAS  /tmp/ccKKWSFE.s 			page 35


 1925              		.thumb
 1926              		.thumb_func
 1927              		.type	tcp_output, %function
 1928              	tcp_output:
 1929              	.LFB15:
 1930              		.loc 1 893 0
 1931              		.cfi_startproc
 1932              		@ args = 0, pretend = 0, frame = 32
 1933              		@ frame_needed = 0, uses_anonymous_args = 0
 1934 0000 30B5     		push	{r4, r5, lr}
 1935              	.LCFI16:
 1936              		.cfi_def_cfa_offset 12
 1937              		.cfi_offset 14, -4
 1938              		.cfi_offset 5, -8
 1939              		.cfi_offset 4, -12
 1940 0002 89B0     		sub	sp, sp, #36
 1941              	.LCFI17:
 1942              		.cfi_def_cfa_offset 48
 1943 0004 0190     		str	r0, [sp, #4]
 1944              		.loc 1 904 0
 1945 0006 40F20003 		movw	r3, #:lower16:tcp_input_pcb
 1946 000a C0F20003 		movt	r3, #:upper16:tcp_input_pcb
 1947 000e 1A68     		ldr	r2, [r3, #0]
 1948 0010 019B     		ldr	r3, [sp, #4]
 1949 0012 9A42     		cmp	r2, r3
 1950 0014 02D1     		bne	.L114
 1951              		.loc 1 905 0
 1952 0016 4FF00003 		mov	r3, #0
 1953 001a 6FE1     		b	.L115
 1954              	.L114:
 1955              		.loc 1 908 0
 1956 001c 019B     		ldr	r3, [sp, #4]
 1957 001e B3F85220 		ldrh	r2, [r3, #82]
 1958 0022 019B     		ldr	r3, [sp, #4]
 1959 0024 B3F85C30 		ldrh	r3, [r3, #92]
 1960 0028 9A42     		cmp	r2, r3
 1961 002a 38BF     		it	cc
 1962 002c 1346     		movcc	r3, r2
 1963 002e 9BB2     		uxth	r3, r3
 1964 0030 0493     		str	r3, [sp, #16]
 1965              		.loc 1 910 0
 1966 0032 019B     		ldr	r3, [sp, #4]
 1967 0034 5B6F     		ldr	r3, [r3, #116]
 1968 0036 0793     		str	r3, [sp, #28]
 1969              		.loc 1 918 0
 1970 0038 019B     		ldr	r3, [sp, #4]
 1971 003a 93F82030 		ldrb	r3, [r3, #32]	@ zero_extendqisi2
 1972 003e 03F00203 		and	r3, r3, #2
 1973 0042 002B     		cmp	r3, #0
 1974 0044 17D0     		beq	.L116
 1975              		.loc 1 918 0 is_stmt 0 discriminator 1
 1976 0046 079B     		ldr	r3, [sp, #28]
 1977 0048 002B     		cmp	r3, #0
 1978 004a 0FD0     		beq	.L117
 1979              		.loc 1 920 0 is_stmt 1
 1980 004c 079B     		ldr	r3, [sp, #28]
 1981 004e DB68     		ldr	r3, [r3, #12]
ARM GAS  /tmp/ccKKWSFE.s 			page 36


 1982 0050 5B68     		ldr	r3, [r3, #4]	@ unaligned
 1983 0052 1846     		mov	r0, r3
 1984 0054 FFF7FEFF 		bl	lwip_ntohl
 1985 0058 0246     		mov	r2, r0
 1986 005a 019B     		ldr	r3, [sp, #4]
 1987 005c DB6C     		ldr	r3, [r3, #76]
 1988 005e D21A     		subs	r2, r2, r3
 1989 0060 079B     		ldr	r3, [sp, #28]
 1990 0062 1B89     		ldrh	r3, [r3, #8]
 1991 0064 D218     		adds	r2, r2, r3
 1992              		.loc 1 919 0
 1993 0066 049B     		ldr	r3, [sp, #16]
 1994 0068 9A42     		cmp	r2, r3
 1995 006a 04D9     		bls	.L116
 1996              	.L117:
 1997              		.loc 1 921 0
 1998 006c 0198     		ldr	r0, [sp, #4]
 1999 006e FFF7FEFF 		bl	tcp_send_empty_ack
 2000 0072 0346     		mov	r3, r0
 2001 0074 42E1     		b	.L115
 2002              	.L116:
 2003              		.loc 1 925 0
 2004 0076 019B     		ldr	r3, [sp, #4]
 2005 0078 9B6F     		ldr	r3, [r3, #120]
 2006 007a 0693     		str	r3, [sp, #24]
 2007              		.loc 1 926 0
 2008 007c 069B     		ldr	r3, [sp, #24]
 2009 007e 002B     		cmp	r3, #0
 2010 0080 00F0EE80 		beq	.L121
 2011              		.loc 1 927 0
 2012 0084 02E0     		b	.L119
 2013              	.L120:
 2014              		.loc 1 927 0 is_stmt 0 discriminator 2
 2015 0086 069B     		ldr	r3, [sp, #24]
 2016 0088 1B68     		ldr	r3, [r3, #0]
 2017 008a 0693     		str	r3, [sp, #24]
 2018              	.L119:
 2019              		.loc 1 927 0 discriminator 1
 2020 008c 069B     		ldr	r3, [sp, #24]
 2021 008e 1B68     		ldr	r3, [r3, #0]
 2022 0090 002B     		cmp	r3, #0
 2023 0092 F8D1     		bne	.L120
 2024              		.loc 1 952 0 is_stmt 1
 2025 0094 E4E0     		b	.L121
 2026              	.L137:
 2027              		.loc 1 954 0
 2028 0096 079B     		ldr	r3, [sp, #28]
 2029 0098 DB68     		ldr	r3, [r3, #12]
 2030 009a 9B89     		ldrh	r3, [r3, #12]	@ unaligned
 2031 009c 9BB2     		uxth	r3, r3
 2032 009e 1846     		mov	r0, r3
 2033 00a0 FFF7FEFF 		bl	lwip_ntohs
 2034 00a4 0346     		mov	r3, r0
 2035 00a6 03F00403 		and	r3, r3, #4
 2036 00aa 002B     		cmp	r3, #0
 2037 00ac 01D0     		beq	.L122
 2038              		.loc 1 954 0 is_stmt 0 discriminator 1
ARM GAS  /tmp/ccKKWSFE.s 			page 37


 2039 00ae FFF7FEFF 		bl	port_halt
 2040              	.L122:
 2041              		.loc 1 963 0 is_stmt 1
 2042 00b2 019B     		ldr	r3, [sp, #4]
 2043 00b4 9B6F     		ldr	r3, [r3, #120]
 2044 00b6 002B     		cmp	r3, #0
 2045 00b8 16D0     		beq	.L123
 2046              		.loc 1 963 0 is_stmt 0 discriminator 2
 2047 00ba 019B     		ldr	r3, [sp, #4]
 2048 00bc 93F82030 		ldrb	r3, [r3, #32]	@ zero_extendqisi2
 2049 00c0 03F04403 		and	r3, r3, #68
 2050 00c4 002B     		cmp	r3, #0
 2051 00c6 0FD1     		bne	.L123
 2052              		.loc 1 963 0 discriminator 1
 2053 00c8 019B     		ldr	r3, [sp, #4]
 2054 00ca 5B6F     		ldr	r3, [r3, #116]
 2055 00cc 002B     		cmp	r3, #0
 2056 00ce 0ED0     		beq	.L124
 2057              		.loc 1 963 0 discriminator 2
 2058 00d0 019B     		ldr	r3, [sp, #4]
 2059 00d2 5B6F     		ldr	r3, [r3, #116]
 2060 00d4 1B68     		ldr	r3, [r3, #0]
 2061 00d6 002B     		cmp	r3, #0
 2062 00d8 06D1     		bne	.L123
 2063              		.loc 1 963 0 discriminator 4
 2064 00da 019B     		ldr	r3, [sp, #4]
 2065 00dc 5B6F     		ldr	r3, [r3, #116]
 2066 00de 1A89     		ldrh	r2, [r3, #8]
 2067 00e0 019B     		ldr	r3, [sp, #4]
 2068 00e2 1B8F     		ldrh	r3, [r3, #56]
 2069 00e4 9A42     		cmp	r2, r3
 2070 00e6 02D3     		bcc	.L124
 2071              	.L123:
 2072              		.loc 1 963 0 discriminator 1
 2073 00e8 4FF00103 		mov	r3, #1
 2074 00ec 01E0     		b	.L125
 2075              	.L124:
 2076              		.loc 1 963 0 discriminator 3
 2077 00ee 4FF00003 		mov	r3, #0
 2078              	.L125:
 2079 00f2 002B     		cmp	r3, #0
 2080 00f4 07D1     		bne	.L126
 2081              		.loc 1 964 0 is_stmt 1 discriminator 1
 2082 00f6 019B     		ldr	r3, [sp, #4]
 2083 00f8 93F82030 		ldrb	r3, [r3, #32]	@ zero_extendqisi2
 2084 00fc 03F0A003 		and	r3, r3, #160
 2085              		.loc 1 963 0 discriminator 1
 2086 0100 002B     		cmp	r3, #0
 2087 0102 00F0C280 		beq	.L140
 2088              	.L126:
 2089              		.loc 1 976 0
 2090 0106 079B     		ldr	r3, [sp, #28]
 2091 0108 1A68     		ldr	r2, [r3, #0]
 2092 010a 019B     		ldr	r3, [sp, #4]
 2093 010c 5A67     		str	r2, [r3, #116]
 2094              		.loc 1 978 0
 2095 010e 019B     		ldr	r3, [sp, #4]
ARM GAS  /tmp/ccKKWSFE.s 			page 38


 2096 0110 1B7C     		ldrb	r3, [r3, #16]	@ zero_extendqisi2
 2097 0112 022B     		cmp	r3, #2
 2098 0114 16D0     		beq	.L128
 2099              		.loc 1 979 0
 2100 0116 079B     		ldr	r3, [sp, #28]
 2101 0118 DC68     		ldr	r4, [r3, #12]
 2102 011a 079B     		ldr	r3, [sp, #28]
 2103 011c DB68     		ldr	r3, [r3, #12]
 2104 011e 9B89     		ldrh	r3, [r3, #12]	@ unaligned
 2105 0120 9DB2     		uxth	r5, r3
 2106 0122 4FF01000 		mov	r0, #16
 2107 0126 FFF7FEFF 		bl	lwip_htons
 2108 012a 0346     		mov	r3, r0
 2109 012c 2B43     		orrs	r3, r3, r5
 2110 012e 9BB2     		uxth	r3, r3
 2111 0130 A381     		strh	r3, [r4, #12]	@ unaligned
 2112              		.loc 1 980 0
 2113 0132 019B     		ldr	r3, [sp, #4]
 2114 0134 93F82030 		ldrb	r3, [r3, #32]	@ zero_extendqisi2
 2115 0138 23F00303 		bic	r3, r3, #3
 2116 013c DAB2     		uxtb	r2, r3
 2117 013e 019B     		ldr	r3, [sp, #4]
 2118 0140 83F82020 		strb	r2, [r3, #32]
 2119              	.L128:
 2120              		.loc 1 983 0
 2121 0144 0798     		ldr	r0, [sp, #28]
 2122 0146 0199     		ldr	r1, [sp, #4]
 2123 0148 FFF7FEFF 		bl	tcp_output_segment
 2124              		.loc 1 984 0
 2125 014c 079B     		ldr	r3, [sp, #28]
 2126 014e DB68     		ldr	r3, [r3, #12]
 2127 0150 5B68     		ldr	r3, [r3, #4]	@ unaligned
 2128 0152 1846     		mov	r0, r3
 2129 0154 FFF7FEFF 		bl	lwip_ntohl
 2130 0158 0446     		mov	r4, r0
 2131 015a 079B     		ldr	r3, [sp, #28]
 2132 015c 1B89     		ldrh	r3, [r3, #8]
 2133 015e 1D46     		mov	r5, r3
 2134 0160 079B     		ldr	r3, [sp, #28]
 2135 0162 DB68     		ldr	r3, [r3, #12]
 2136 0164 9B89     		ldrh	r3, [r3, #12]	@ unaligned
 2137 0166 9BB2     		uxth	r3, r3
 2138 0168 1846     		mov	r0, r3
 2139 016a FFF7FEFF 		bl	lwip_ntohs
 2140 016e 0346     		mov	r3, r0
 2141 0170 03F00303 		and	r3, r3, #3
 2142 0174 002B     		cmp	r3, #0
 2143 0176 0CBF     		ite	eq
 2144 0178 0023     		moveq	r3, #0
 2145 017a 0123     		movne	r3, #1
 2146 017c EB18     		adds	r3, r5, r3
 2147 017e E318     		adds	r3, r4, r3
 2148 0180 0393     		str	r3, [sp, #12]
 2149              		.loc 1 985 0
 2150 0182 019B     		ldr	r3, [sp, #4]
 2151 0184 9A6D     		ldr	r2, [r3, #88]
 2152 0186 039B     		ldr	r3, [sp, #12]
ARM GAS  /tmp/ccKKWSFE.s 			page 39


 2153 0188 D31A     		subs	r3, r2, r3
 2154 018a 002B     		cmp	r3, #0
 2155 018c 02DA     		bge	.L129
 2156              		.loc 1 986 0
 2157 018e 019B     		ldr	r3, [sp, #4]
 2158 0190 039A     		ldr	r2, [sp, #12]
 2159 0192 9A65     		str	r2, [r3, #88]
 2160              	.L129:
 2161              		.loc 1 989 0
 2162 0194 079B     		ldr	r3, [sp, #28]
 2163 0196 1B89     		ldrh	r3, [r3, #8]
 2164 0198 1C46     		mov	r4, r3
 2165 019a 079B     		ldr	r3, [sp, #28]
 2166 019c DB68     		ldr	r3, [r3, #12]
 2167 019e 9B89     		ldrh	r3, [r3, #12]	@ unaligned
 2168 01a0 9BB2     		uxth	r3, r3
 2169 01a2 1846     		mov	r0, r3
 2170 01a4 FFF7FEFF 		bl	lwip_ntohs
 2171 01a8 0346     		mov	r3, r0
 2172 01aa 03F00303 		and	r3, r3, #3
 2173 01ae 002B     		cmp	r3, #0
 2174 01b0 0CBF     		ite	eq
 2175 01b2 0023     		moveq	r3, #0
 2176 01b4 0123     		movne	r3, #1
 2177 01b6 E318     		adds	r3, r4, r3
 2178 01b8 002B     		cmp	r3, #0
 2179 01ba 4BDD     		ble	.L130
 2180              		.loc 1 990 0
 2181 01bc 079B     		ldr	r3, [sp, #28]
 2182 01be 4FF00002 		mov	r2, #0
 2183 01c2 1A60     		str	r2, [r3, #0]
 2184              		.loc 1 992 0
 2185 01c4 019B     		ldr	r3, [sp, #4]
 2186 01c6 9B6F     		ldr	r3, [r3, #120]
 2187 01c8 002B     		cmp	r3, #0
 2188 01ca 05D1     		bne	.L131
 2189              		.loc 1 993 0
 2190 01cc 019B     		ldr	r3, [sp, #4]
 2191 01ce 079A     		ldr	r2, [sp, #28]
 2192 01d0 9A67     		str	r2, [r3, #120]
 2193              		.loc 1 994 0
 2194 01d2 079B     		ldr	r3, [sp, #28]
 2195 01d4 0693     		str	r3, [sp, #24]
 2196 01d6 40E0     		b	.L132
 2197              	.L131:
 2198              		.loc 1 1000 0
 2199 01d8 079B     		ldr	r3, [sp, #28]
 2200 01da DB68     		ldr	r3, [r3, #12]
 2201 01dc 5B68     		ldr	r3, [r3, #4]	@ unaligned
 2202 01de 1846     		mov	r0, r3
 2203 01e0 FFF7FEFF 		bl	lwip_ntohl
 2204 01e4 0446     		mov	r4, r0
 2205 01e6 069B     		ldr	r3, [sp, #24]
 2206 01e8 DB68     		ldr	r3, [r3, #12]
 2207 01ea 5B68     		ldr	r3, [r3, #4]	@ unaligned
 2208 01ec 1846     		mov	r0, r3
 2209 01ee FFF7FEFF 		bl	lwip_ntohl
ARM GAS  /tmp/ccKKWSFE.s 			page 40


 2210 01f2 0346     		mov	r3, r0
 2211 01f4 E31A     		subs	r3, r4, r3
 2212 01f6 002B     		cmp	r3, #0
 2213 01f8 25DA     		bge	.L133
 2214              	.LBB13:
 2215              		.loc 1 1002 0
 2216 01fa 019B     		ldr	r3, [sp, #4]
 2217 01fc 03F17803 		add	r3, r3, #120
 2218 0200 0593     		str	r3, [sp, #20]
 2219              		.loc 1 1003 0
 2220 0202 02E0     		b	.L134
 2221              	.L136:
 2222              		.loc 1 1005 0
 2223 0204 059B     		ldr	r3, [sp, #20]
 2224 0206 1B68     		ldr	r3, [r3, #0]
 2225 0208 0593     		str	r3, [sp, #20]
 2226              	.L134:
 2227              		.loc 1 1003 0 discriminator 1
 2228 020a 059B     		ldr	r3, [sp, #20]
 2229 020c 1B68     		ldr	r3, [r3, #0]
 2230 020e 002B     		cmp	r3, #0
 2231 0210 11D0     		beq	.L135
 2232              		.loc 1 1004 0 discriminator 2
 2233 0212 059B     		ldr	r3, [sp, #20]
 2234 0214 1B68     		ldr	r3, [r3, #0]
 2235 0216 DB68     		ldr	r3, [r3, #12]
 2236 0218 5B68     		ldr	r3, [r3, #4]	@ unaligned
 2237 021a 1846     		mov	r0, r3
 2238 021c FFF7FEFF 		bl	lwip_ntohl
 2239 0220 0446     		mov	r4, r0
 2240 0222 079B     		ldr	r3, [sp, #28]
 2241 0224 DB68     		ldr	r3, [r3, #12]
 2242 0226 5B68     		ldr	r3, [r3, #4]	@ unaligned
 2243 0228 1846     		mov	r0, r3
 2244 022a FFF7FEFF 		bl	lwip_ntohl
 2245 022e 0346     		mov	r3, r0
 2246 0230 E31A     		subs	r3, r4, r3
 2247              		.loc 1 1003 0 discriminator 2
 2248 0232 002B     		cmp	r3, #0
 2249 0234 E6DB     		blt	.L136
 2250              	.L135:
 2251              		.loc 1 1007 0
 2252 0236 059B     		ldr	r3, [sp, #20]
 2253 0238 1A68     		ldr	r2, [r3, #0]
 2254 023a 079B     		ldr	r3, [sp, #28]
 2255 023c 1A60     		str	r2, [r3, #0]
 2256              		.loc 1 1008 0
 2257 023e 059B     		ldr	r3, [sp, #20]
 2258 0240 079A     		ldr	r2, [sp, #28]
 2259 0242 1A60     		str	r2, [r3, #0]
 2260 0244 09E0     		b	.L132
 2261              	.L133:
 2262              	.LBE13:
 2263              		.loc 1 1011 0
 2264 0246 069B     		ldr	r3, [sp, #24]
 2265 0248 079A     		ldr	r2, [sp, #28]
 2266 024a 1A60     		str	r2, [r3, #0]
ARM GAS  /tmp/ccKKWSFE.s 			page 41


 2267              		.loc 1 1012 0
 2268 024c 069B     		ldr	r3, [sp, #24]
 2269 024e 1B68     		ldr	r3, [r3, #0]
 2270 0250 0693     		str	r3, [sp, #24]
 2271 0252 02E0     		b	.L132
 2272              	.L130:
 2273              		.loc 1 1017 0
 2274 0254 0798     		ldr	r0, [sp, #28]
 2275 0256 FFF7FEFF 		bl	tcp_seg_free
 2276              	.L132:
 2277              		.loc 1 1019 0
 2278 025a 019B     		ldr	r3, [sp, #4]
 2279 025c 5B6F     		ldr	r3, [r3, #116]
 2280 025e 0793     		str	r3, [sp, #28]
 2281              	.L121:
 2282              		.loc 1 952 0 discriminator 1
 2283 0260 079B     		ldr	r3, [sp, #28]
 2284 0262 002B     		cmp	r3, #0
 2285 0264 12D0     		beq	.L127
 2286              		.loc 1 953 0 discriminator 2
 2287 0266 079B     		ldr	r3, [sp, #28]
 2288 0268 DB68     		ldr	r3, [r3, #12]
 2289 026a 5B68     		ldr	r3, [r3, #4]	@ unaligned
 2290 026c 1846     		mov	r0, r3
 2291 026e FFF7FEFF 		bl	lwip_ntohl
 2292 0272 0246     		mov	r2, r0
 2293 0274 019B     		ldr	r3, [sp, #4]
 2294 0276 DB6C     		ldr	r3, [r3, #76]
 2295 0278 D21A     		subs	r2, r2, r3
 2296 027a 079B     		ldr	r3, [sp, #28]
 2297 027c 1B89     		ldrh	r3, [r3, #8]
 2298 027e D218     		adds	r2, r2, r3
 2299              		.loc 1 952 0 discriminator 2
 2300 0280 049B     		ldr	r3, [sp, #16]
 2301 0282 9A42     		cmp	r2, r3
 2302 0284 7FF607AF 		bls	.L137
 2303 0288 00E0     		b	.L127
 2304              	.L140:
 2305              		.loc 1 965 0
 2306 028a 00BF     		nop
 2307              	.L127:
 2308              		.loc 1 1022 0
 2309 028c 019B     		ldr	r3, [sp, #4]
 2310 028e 5B6F     		ldr	r3, [r3, #116]
 2311 0290 002B     		cmp	r3, #0
 2312 0292 04D1     		bne	.L138
 2313              		.loc 1 1024 0
 2314 0294 019B     		ldr	r3, [sp, #4]
 2315 0296 4FF00002 		mov	r2, #0
 2316 029a A3F87220 		strh	r2, [r3, #114]	@ movhi
 2317              	.L138:
 2318              		.loc 1 1028 0
 2319 029e 079B     		ldr	r3, [sp, #28]
 2320 02a0 002B     		cmp	r3, #0
 2321 02a2 20D0     		beq	.L139
 2322              		.loc 1 1028 0 is_stmt 0 discriminator 1
 2323 02a4 019B     		ldr	r3, [sp, #4]
ARM GAS  /tmp/ccKKWSFE.s 			page 42


 2324 02a6 93F8A030 		ldrb	r3, [r3, #160]	@ zero_extendqisi2
 2325 02aa 002B     		cmp	r3, #0
 2326 02ac 1BD1     		bne	.L139
 2327              		.loc 1 1029 0 is_stmt 1 discriminator 1
 2328 02ae 079B     		ldr	r3, [sp, #28]
 2329 02b0 DB68     		ldr	r3, [r3, #12]
 2330 02b2 5B68     		ldr	r3, [r3, #4]	@ unaligned
 2331 02b4 1846     		mov	r0, r3
 2332 02b6 FFF7FEFF 		bl	lwip_ntohl
 2333 02ba 0246     		mov	r2, r0
 2334 02bc 019B     		ldr	r3, [sp, #4]
 2335 02be DB6C     		ldr	r3, [r3, #76]
 2336 02c0 D21A     		subs	r2, r2, r3
 2337 02c2 079B     		ldr	r3, [sp, #28]
 2338 02c4 1B89     		ldrh	r3, [r3, #8]
 2339 02c6 D218     		adds	r2, r2, r3
 2340 02c8 019B     		ldr	r3, [sp, #4]
 2341 02ca B3F85C30 		ldrh	r3, [r3, #92]
 2342              		.loc 1 1028 0 discriminator 1
 2343 02ce 9A42     		cmp	r2, r3
 2344 02d0 09D9     		bls	.L139
 2345              		.loc 1 1031 0
 2346 02d2 019B     		ldr	r3, [sp, #4]
 2347 02d4 4FF00002 		mov	r2, #0
 2348 02d8 C3F89C20 		str	r2, [r3, #156]
 2349              		.loc 1 1032 0
 2350 02dc 019B     		ldr	r3, [sp, #4]
 2351 02de 4FF00102 		mov	r2, #1
 2352 02e2 83F8A020 		strb	r2, [r3, #160]
 2353              	.L139:
 2354              		.loc 1 1035 0
 2355 02e6 019B     		ldr	r3, [sp, #4]
 2356 02e8 93F82030 		ldrb	r3, [r3, #32]	@ zero_extendqisi2
 2357 02ec 03F07F03 		and	r3, r3, #127
 2358 02f0 DAB2     		uxtb	r2, r3
 2359 02f2 019B     		ldr	r3, [sp, #4]
 2360 02f4 83F82020 		strb	r2, [r3, #32]
 2361              		.loc 1 1036 0
 2362 02f8 4FF00003 		mov	r3, #0
 2363              	.L115:
 2364 02fc 5BB2     		sxtb	r3, r3
 2365              		.loc 1 1037 0
 2366 02fe 1846     		mov	r0, r3
 2367 0300 09B0     		add	sp, sp, #36
 2368 0302 30BD     		pop	{r4, r5, pc}
 2369              		.cfi_endproc
 2370              	.LFE15:
 2371              		.size	tcp_output, .-tcp_output
 2372 0304 AFF30080 		.section	.text.tcp_output_segment,"ax",%progbits
 2372      AFF30080 
 2372      AFF30080 
 2373              		.align	2
 2374              		.p2align 4,,15
 2375              		.thumb
 2376              		.thumb_func
 2377              		.type	tcp_output_segment, %function
 2378              	tcp_output_segment:
ARM GAS  /tmp/ccKKWSFE.s 			page 43


 2379              	.LFB16:
 2380              		.loc 1 1047 0
 2381              		.cfi_startproc
 2382              		@ args = 0, pretend = 0, frame = 24
 2383              		@ frame_needed = 0, uses_anonymous_args = 0
 2384 0000 10B5     		push	{r4, lr}
 2385              	.LCFI18:
 2386              		.cfi_def_cfa_offset 8
 2387              		.cfi_offset 14, -4
 2388              		.cfi_offset 4, -8
 2389 0002 88B0     		sub	sp, sp, #32
 2390              	.LCFI19:
 2391              		.cfi_def_cfa_offset 40
 2392 0004 0390     		str	r0, [sp, #12]
 2393 0006 0291     		str	r1, [sp, #8]
 2394              		.loc 1 1057 0
 2395 0008 039B     		ldr	r3, [sp, #12]
 2396 000a DC68     		ldr	r4, [r3, #12]
 2397 000c 029B     		ldr	r3, [sp, #8]
 2398 000e 5B6A     		ldr	r3, [r3, #36]
 2399 0010 1846     		mov	r0, r3
 2400 0012 FFF7FEFF 		bl	lwip_htonl
 2401 0016 0346     		mov	r3, r0
 2402 0018 A360     		str	r3, [r4, #8]	@ unaligned
 2403              		.loc 1 1060 0
 2404 001a 039B     		ldr	r3, [sp, #12]
 2405 001c DC68     		ldr	r4, [r3, #12]
 2406 001e 029B     		ldr	r3, [sp, #8]
 2407 0020 5B8D     		ldrh	r3, [r3, #42]
 2408 0022 1846     		mov	r0, r3
 2409 0024 FFF7FEFF 		bl	lwip_htons
 2410 0028 0346     		mov	r3, r0
 2411 002a E381     		strh	r3, [r4, #14]	@ unaligned
 2412              		.loc 1 1062 0
 2413 002c 029B     		ldr	r3, [sp, #8]
 2414 002e 5A6A     		ldr	r2, [r3, #36]
 2415 0030 029B     		ldr	r3, [sp, #8]
 2416 0032 5B8D     		ldrh	r3, [r3, #42]
 2417 0034 D218     		adds	r2, r2, r3
 2418 0036 029B     		ldr	r3, [sp, #8]
 2419 0038 DA62     		str	r2, [r3, #44]
 2420              		.loc 1 1066 0
 2421 003a 039B     		ldr	r3, [sp, #12]
 2422 003c DB68     		ldr	r3, [r3, #12]
 2423 003e 03F00303 		and	r3, r3, #3
 2424 0042 002B     		cmp	r3, #0
 2425 0044 01D0     		beq	.L142
 2426              		.loc 1 1066 0 is_stmt 0 discriminator 1
 2427 0046 FFF7FEFF 		bl	port_halt
 2428              	.L142:
 2429              		.loc 1 1067 0 is_stmt 1
 2430 004a 039B     		ldr	r3, [sp, #12]
 2431 004c DB68     		ldr	r3, [r3, #12]
 2432 004e 03F11403 		add	r3, r3, #20
 2433 0052 0793     		str	r3, [sp, #28]
 2434              		.loc 1 1068 0
 2435 0054 039B     		ldr	r3, [sp, #12]
ARM GAS  /tmp/ccKKWSFE.s 			page 44


 2436 0056 9B7A     		ldrb	r3, [r3, #10]	@ zero_extendqisi2
 2437 0058 03F00103 		and	r3, r3, #1
 2438 005c DBB2     		uxtb	r3, r3
 2439 005e 002B     		cmp	r3, #0
 2440 0060 09D0     		beq	.L143
 2441              		.loc 1 1069 0
 2442 0062 079A     		ldr	r2, [sp, #28]
 2443 0064 40F20243 		movw	r3, #1026
 2444 0068 C1F60203 		movt	r3, 6146
 2445 006c 1360     		str	r3, [r2, #0]
 2446              		.loc 1 1070 0
 2447 006e 079B     		ldr	r3, [sp, #28]
 2448 0070 03F10403 		add	r3, r3, #4
 2449 0074 0793     		str	r3, [sp, #28]
 2450              	.L143:
 2451              		.loc 1 1083 0
 2452 0076 029B     		ldr	r3, [sp, #8]
 2453 0078 DB8E     		ldrh	r3, [r3, #54]
 2454 007a 1BB2     		sxth	r3, r3
 2455 007c B3F1FF3F 		cmp	r3, #-1
 2456 0080 03D1     		bne	.L144
 2457              		.loc 1 1084 0
 2458 0082 029B     		ldr	r3, [sp, #8]
 2459 0084 4FF00002 		mov	r2, #0
 2460 0088 DA86     		strh	r2, [r3, #54]	@ movhi
 2461              	.L144:
 2462              		.loc 1 1089 0
 2463 008a 029B     		ldr	r3, [sp, #8]
 2464 008c 002B     		cmp	r3, #0
 2465 008e 03D0     		beq	.L145
 2466              		.loc 1 1089 0 is_stmt 0 discriminator 1
 2467 0090 029B     		ldr	r3, [sp, #8]
 2468 0092 1B68     		ldr	r3, [r3, #0]
 2469 0094 002B     		cmp	r3, #0
 2470 0096 0ED1     		bne	.L146
 2471              	.L145:
 2472              		.loc 1 1090 0 is_stmt 1
 2473 0098 029B     		ldr	r3, [sp, #8]
 2474 009a 03F10403 		add	r3, r3, #4
 2475 009e 1846     		mov	r0, r3
 2476 00a0 FFF7FEFF 		bl	ip_route
 2477 00a4 0346     		mov	r3, r0
 2478 00a6 0693     		str	r3, [sp, #24]
 2479              		.loc 1 1091 0
 2480 00a8 069B     		ldr	r3, [sp, #24]
 2481 00aa 002B     		cmp	r3, #0
 2482 00ac 77D0     		beq	.L150
 2483              	.L147:
 2484              		.loc 1 1094 0
 2485 00ae 069B     		ldr	r3, [sp, #24]
 2486 00b0 5A68     		ldr	r2, [r3, #4]
 2487 00b2 029B     		ldr	r3, [sp, #8]
 2488 00b4 1A60     		str	r2, [r3, #0]
 2489              	.L146:
 2490              		.loc 1 1097 0
 2491 00b6 029B     		ldr	r3, [sp, #8]
 2492 00b8 DB6B     		ldr	r3, [r3, #60]
ARM GAS  /tmp/ccKKWSFE.s 			page 45


 2493 00ba 002B     		cmp	r3, #0
 2494 00bc 0FD1     		bne	.L149
 2495              		.loc 1 1098 0
 2496 00be 40F20003 		movw	r3, #:lower16:tcp_ticks
 2497 00c2 C0F20003 		movt	r3, #:upper16:tcp_ticks
 2498 00c6 1A68     		ldr	r2, [r3, #0]
 2499 00c8 029B     		ldr	r3, [sp, #8]
 2500 00ca DA63     		str	r2, [r3, #60]
 2501              		.loc 1 1099 0
 2502 00cc 039B     		ldr	r3, [sp, #12]
 2503 00ce DB68     		ldr	r3, [r3, #12]
 2504 00d0 5B68     		ldr	r3, [r3, #4]	@ unaligned
 2505 00d2 1846     		mov	r0, r3
 2506 00d4 FFF7FEFF 		bl	lwip_ntohl
 2507 00d8 0246     		mov	r2, r0
 2508 00da 029B     		ldr	r3, [sp, #8]
 2509 00dc 1A64     		str	r2, [r3, #64]
 2510              	.L149:
 2511              		.loc 1 1107 0
 2512 00de 039B     		ldr	r3, [sp, #12]
 2513 00e0 DB68     		ldr	r3, [r3, #12]
 2514 00e2 9AB2     		uxth	r2, r3
 2515 00e4 039B     		ldr	r3, [sp, #12]
 2516 00e6 5B68     		ldr	r3, [r3, #4]
 2517 00e8 5B68     		ldr	r3, [r3, #4]
 2518 00ea 9BB2     		uxth	r3, r3
 2519 00ec D31A     		subs	r3, r2, r3
 2520 00ee ADF81630 		strh	r3, [sp, #22]	@ movhi
 2521              		.loc 1 1109 0
 2522 00f2 039B     		ldr	r3, [sp, #12]
 2523 00f4 5B68     		ldr	r3, [r3, #4]
 2524 00f6 039A     		ldr	r2, [sp, #12]
 2525 00f8 5268     		ldr	r2, [r2, #4]
 2526 00fa 5189     		ldrh	r1, [r2, #10]
 2527 00fc BDF81620 		ldrh	r2, [sp, #22]	@ movhi
 2528 0100 8A1A     		subs	r2, r1, r2
 2529 0102 92B2     		uxth	r2, r2
 2530 0104 5A81     		strh	r2, [r3, #10]	@ movhi
 2531              		.loc 1 1110 0
 2532 0106 039B     		ldr	r3, [sp, #12]
 2533 0108 5B68     		ldr	r3, [r3, #4]
 2534 010a 039A     		ldr	r2, [sp, #12]
 2535 010c 5268     		ldr	r2, [r2, #4]
 2536 010e 1189     		ldrh	r1, [r2, #8]
 2537 0110 BDF81620 		ldrh	r2, [sp, #22]	@ movhi
 2538 0114 8A1A     		subs	r2, r1, r2
 2539 0116 92B2     		uxth	r2, r2
 2540 0118 1A81     		strh	r2, [r3, #8]	@ movhi
 2541              		.loc 1 1112 0
 2542 011a 039B     		ldr	r3, [sp, #12]
 2543 011c 5B68     		ldr	r3, [r3, #4]
 2544 011e 039A     		ldr	r2, [sp, #12]
 2545 0120 D268     		ldr	r2, [r2, #12]
 2546 0122 5A60     		str	r2, [r3, #4]
 2547              		.loc 1 1114 0
 2548 0124 039B     		ldr	r3, [sp, #12]
 2549 0126 DB68     		ldr	r3, [r3, #12]
ARM GAS  /tmp/ccKKWSFE.s 			page 46


 2550 0128 4FF00002 		mov	r2, #0
 2551 012c 1A74     		strb	r2, [r3, #16]
 2552 012e 4FF00002 		mov	r2, #0
 2553 0132 5A74     		strb	r2, [r3, #17]
 2554              		.loc 1 1150 0
 2555 0134 039B     		ldr	r3, [sp, #12]
 2556 0136 DC68     		ldr	r4, [r3, #12]
 2557 0138 039B     		ldr	r3, [sp, #12]
 2558 013a 5968     		ldr	r1, [r3, #4]
 2559 013c 029A     		ldr	r2, [sp, #8]
 2560 013e 029B     		ldr	r3, [sp, #8]
 2561 0140 03F10403 		add	r3, r3, #4
 2562              		.loc 1 1152 0
 2563 0144 0398     		ldr	r0, [sp, #12]
 2564 0146 4068     		ldr	r0, [r0, #4]
 2565              		.loc 1 1150 0
 2566 0148 0089     		ldrh	r0, [r0, #8]
 2567 014a 0090     		str	r0, [sp, #0]
 2568 014c 0846     		mov	r0, r1
 2569 014e 1146     		mov	r1, r2
 2570 0150 1A46     		mov	r2, r3
 2571 0152 4FF00603 		mov	r3, #6
 2572 0156 FFF7FEFF 		bl	inet_chksum_pseudo
 2573 015a 0346     		mov	r3, r0
 2574 015c 2382     		strh	r3, [r4, #16]	@ unaligned
 2575              		.loc 1 1155 0
 2576 015e 40F20003 		movw	r3, #:lower16:lwip_stats
 2577 0162 C0F20003 		movt	r3, #:upper16:lwip_stats
 2578 0166 B3F89030 		ldrh	r3, [r3, #144]
 2579 016a 03F10103 		add	r3, r3, #1
 2580 016e 9AB2     		uxth	r2, r3
 2581 0170 40F20003 		movw	r3, #:lower16:lwip_stats
 2582 0174 C0F20003 		movt	r3, #:upper16:lwip_stats
 2583 0178 A3F89020 		strh	r2, [r3, #144]	@ movhi
 2584              		.loc 1 1161 0
 2585 017c 039B     		ldr	r3, [sp, #12]
 2586 017e 5868     		ldr	r0, [r3, #4]
 2587 0180 0299     		ldr	r1, [sp, #8]
 2588 0182 029B     		ldr	r3, [sp, #8]
 2589 0184 03F10402 		add	r2, r3, #4
 2590 0188 029B     		ldr	r3, [sp, #8]
 2591 018a 9B7A     		ldrb	r3, [r3, #10]	@ zero_extendqisi2
 2592 018c 029C     		ldr	r4, [sp, #8]
 2593 018e 647A     		ldrb	r4, [r4, #9]	@ zero_extendqisi2
 2594 0190 0094     		str	r4, [sp, #0]
 2595 0192 4FF00604 		mov	r4, #6
 2596 0196 0194     		str	r4, [sp, #4]
 2597 0198 FFF7FEFF 		bl	ip_output
 2598 019c 00E0     		b	.L141
 2599              	.L150:
 2600              		.loc 1 1092 0
 2601 019e 00BF     		nop
 2602              	.L141:
 2603              		.loc 1 1164 0
 2604 01a0 08B0     		add	sp, sp, #32
 2605 01a2 10BD     		pop	{r4, pc}
 2606              		.cfi_endproc
ARM GAS  /tmp/ccKKWSFE.s 			page 47


 2607              	.LFE16:
 2608              		.size	tcp_output_segment, .-tcp_output_segment
 2609 01a4 AFF30080 		.section	.text.tcp_rst,"ax",%progbits
 2609      AFF30080 
 2609      AFF30080 
 2610              		.align	2
 2611              		.p2align 4,,15
 2612              		.global	tcp_rst
 2613              		.thumb
 2614              		.thumb_func
 2615              		.type	tcp_rst, %function
 2616              	tcp_rst:
 2617              	.LFB17:
 2618              		.loc 1 1190 0
 2619              		.cfi_startproc
 2620              		@ args = 8, pretend = 0, frame = 24
 2621              		@ frame_needed = 0, uses_anonymous_args = 0
 2622 0000 00B5     		push	{lr}
 2623              	.LCFI20:
 2624              		.cfi_def_cfa_offset 4
 2625              		.cfi_offset 14, -4
 2626 0002 89B0     		sub	sp, sp, #36
 2627              	.LCFI21:
 2628              		.cfi_def_cfa_offset 40
 2629 0004 0590     		str	r0, [sp, #20]
 2630 0006 0491     		str	r1, [sp, #16]
 2631 0008 0392     		str	r2, [sp, #12]
 2632 000a 0293     		str	r3, [sp, #8]
 2633              		.loc 1 1193 0
 2634 000c 4FF00100 		mov	r0, #1
 2635 0010 4FF01401 		mov	r1, #20
 2636 0014 4FF00002 		mov	r2, #0
 2637 0018 FFF7FEFF 		bl	pbuf_alloc
 2638 001c 0346     		mov	r3, r0
 2639 001e 0793     		str	r3, [sp, #28]
 2640              		.loc 1 1194 0
 2641 0020 079B     		ldr	r3, [sp, #28]
 2642 0022 002B     		cmp	r3, #0
 2643 0024 75D0     		beq	.L155
 2644              	.L152:
 2645              		.loc 1 1198 0
 2646 0026 079B     		ldr	r3, [sp, #28]
 2647 0028 5B89     		ldrh	r3, [r3, #10]
 2648 002a 132B     		cmp	r3, #19
 2649 002c 01D8     		bhi	.L154
 2650              		.loc 1 1198 0 is_stmt 0 discriminator 1
 2651 002e FFF7FEFF 		bl	port_halt
 2652              	.L154:
 2653              		.loc 1 1201 0 is_stmt 1
 2654 0032 079B     		ldr	r3, [sp, #28]
 2655 0034 5B68     		ldr	r3, [r3, #4]
 2656 0036 0693     		str	r3, [sp, #24]
 2657              		.loc 1 1202 0
 2658 0038 BDF82830 		ldrh	r3, [sp, #40]
 2659 003c 1846     		mov	r0, r3
 2660 003e FFF7FEFF 		bl	lwip_htons
 2661 0042 0346     		mov	r3, r0
ARM GAS  /tmp/ccKKWSFE.s 			page 48


 2662 0044 1A46     		mov	r2, r3
 2663 0046 069B     		ldr	r3, [sp, #24]
 2664 0048 1A80     		strh	r2, [r3, #0]	@ unaligned
 2665              		.loc 1 1203 0
 2666 004a BDF82C30 		ldrh	r3, [sp, #44]
 2667 004e 1846     		mov	r0, r3
 2668 0050 FFF7FEFF 		bl	lwip_htons
 2669 0054 0346     		mov	r3, r0
 2670 0056 1A46     		mov	r2, r3
 2671 0058 069B     		ldr	r3, [sp, #24]
 2672 005a 5A80     		strh	r2, [r3, #2]	@ unaligned
 2673              		.loc 1 1204 0
 2674 005c 0598     		ldr	r0, [sp, #20]
 2675 005e FFF7FEFF 		bl	lwip_htonl
 2676 0062 0246     		mov	r2, r0
 2677 0064 069B     		ldr	r3, [sp, #24]
 2678 0066 5A60     		str	r2, [r3, #4]	@ unaligned
 2679              		.loc 1 1205 0
 2680 0068 0498     		ldr	r0, [sp, #16]
 2681 006a FFF7FEFF 		bl	lwip_htonl
 2682 006e 0246     		mov	r2, r0
 2683 0070 069B     		ldr	r3, [sp, #24]
 2684 0072 9A60     		str	r2, [r3, #8]	@ unaligned
 2685              		.loc 1 1206 0
 2686 0074 45F21400 		movw	r0, #20500
 2687 0078 FFF7FEFF 		bl	lwip_htons
 2688 007c 0346     		mov	r3, r0
 2689 007e 1A46     		mov	r2, r3
 2690 0080 069B     		ldr	r3, [sp, #24]
 2691 0082 9A81     		strh	r2, [r3, #12]	@ unaligned
 2692              		.loc 1 1207 0
 2693 0084 069B     		ldr	r3, [sp, #24]
 2694 0086 4FF00002 		mov	r2, #0
 2695 008a 42F00802 		orr	r2, r2, #8
 2696 008e 9A73     		strb	r2, [r3, #14]
 2697 0090 4FF00002 		mov	r2, #0
 2698 0094 42F06002 		orr	r2, r2, #96
 2699 0098 DA73     		strb	r2, [r3, #15]
 2700              		.loc 1 1208 0
 2701 009a 069B     		ldr	r3, [sp, #24]
 2702 009c 4FF00002 		mov	r2, #0
 2703 00a0 1A74     		strb	r2, [r3, #16]
 2704 00a2 4FF00002 		mov	r2, #0
 2705 00a6 5A74     		strb	r2, [r3, #17]
 2706              		.loc 1 1209 0
 2707 00a8 069B     		ldr	r3, [sp, #24]
 2708 00aa 4FF00002 		mov	r2, #0
 2709 00ae 9A74     		strb	r2, [r3, #18]
 2710 00b0 4FF00002 		mov	r2, #0
 2711 00b4 DA74     		strb	r2, [r3, #19]
 2712              		.loc 1 1213 0
 2713 00b6 079B     		ldr	r3, [sp, #28]
 2714              		.loc 1 1212 0
 2715 00b8 1B89     		ldrh	r3, [r3, #8]
 2716 00ba 0093     		str	r3, [sp, #0]
 2717 00bc 0798     		ldr	r0, [sp, #28]
 2718 00be 0399     		ldr	r1, [sp, #12]
ARM GAS  /tmp/ccKKWSFE.s 			page 49


 2719 00c0 029A     		ldr	r2, [sp, #8]
 2720 00c2 4FF00603 		mov	r3, #6
 2721 00c6 FFF7FEFF 		bl	inet_chksum_pseudo
 2722 00ca 0346     		mov	r3, r0
 2723 00cc 1A46     		mov	r2, r3
 2724 00ce 069B     		ldr	r3, [sp, #24]
 2725 00d0 1A82     		strh	r2, [r3, #16]	@ unaligned
 2726              		.loc 1 1215 0
 2727 00d2 40F20003 		movw	r3, #:lower16:lwip_stats
 2728 00d6 C0F20003 		movt	r3, #:upper16:lwip_stats
 2729 00da B3F89030 		ldrh	r3, [r3, #144]
 2730 00de 03F10103 		add	r3, r3, #1
 2731 00e2 9AB2     		uxth	r2, r3
 2732 00e4 40F20003 		movw	r3, #:lower16:lwip_stats
 2733 00e8 C0F20003 		movt	r3, #:upper16:lwip_stats
 2734 00ec A3F89020 		strh	r2, [r3, #144]	@ movhi
 2735              		.loc 1 1218 0
 2736 00f0 4FF00003 		mov	r3, #0
 2737 00f4 0093     		str	r3, [sp, #0]
 2738 00f6 4FF00603 		mov	r3, #6
 2739 00fa 0193     		str	r3, [sp, #4]
 2740 00fc 0798     		ldr	r0, [sp, #28]
 2741 00fe 0399     		ldr	r1, [sp, #12]
 2742 0100 029A     		ldr	r2, [sp, #8]
 2743 0102 4FF0FF03 		mov	r3, #255
 2744 0106 FFF7FEFF 		bl	ip_output
 2745              		.loc 1 1219 0
 2746 010a 0798     		ldr	r0, [sp, #28]
 2747 010c FFF7FEFF 		bl	pbuf_free
 2748 0110 00E0     		b	.L151
 2749              	.L155:
 2750              		.loc 1 1196 0
 2751 0112 00BF     		nop
 2752              	.L151:
 2753              		.loc 1 1221 0
 2754 0114 09B0     		add	sp, sp, #36
 2755 0116 00BD     		pop	{pc}
 2756              		.cfi_endproc
 2757              	.LFE17:
 2758              		.size	tcp_rst, .-tcp_rst
 2759 0118 AFF30080 		.section	.text.tcp_rexmit_rto,"ax",%progbits
 2759      AFF30080 
 2760              		.align	2
 2761              		.p2align 4,,15
 2762              		.global	tcp_rexmit_rto
 2763              		.thumb
 2764              		.thumb_func
 2765              		.type	tcp_rexmit_rto, %function
 2766              	tcp_rexmit_rto:
 2767              	.LFB18:
 2768              		.loc 1 1232 0
 2769              		.cfi_startproc
 2770              		@ args = 0, pretend = 0, frame = 16
 2771              		@ frame_needed = 0, uses_anonymous_args = 0
 2772 0000 00B5     		push	{lr}
 2773              	.LCFI22:
 2774              		.cfi_def_cfa_offset 4
ARM GAS  /tmp/ccKKWSFE.s 			page 50


 2775              		.cfi_offset 14, -4
 2776 0002 85B0     		sub	sp, sp, #20
 2777              	.LCFI23:
 2778              		.cfi_def_cfa_offset 24
 2779 0004 0190     		str	r0, [sp, #4]
 2780              		.loc 1 1235 0
 2781 0006 019B     		ldr	r3, [sp, #4]
 2782 0008 9B6F     		ldr	r3, [r3, #120]
 2783 000a 002B     		cmp	r3, #0
 2784 000c 27D0     		beq	.L161
 2785              	.L157:
 2786              		.loc 1 1240 0
 2787 000e 019B     		ldr	r3, [sp, #4]
 2788 0010 9B6F     		ldr	r3, [r3, #120]
 2789 0012 0393     		str	r3, [sp, #12]
 2790 0014 02E0     		b	.L159
 2791              	.L160:
 2792              		.loc 1 1240 0 is_stmt 0 discriminator 2
 2793 0016 039B     		ldr	r3, [sp, #12]
 2794 0018 1B68     		ldr	r3, [r3, #0]
 2795 001a 0393     		str	r3, [sp, #12]
 2796              	.L159:
 2797              		.loc 1 1240 0 discriminator 1
 2798 001c 039B     		ldr	r3, [sp, #12]
 2799 001e 1B68     		ldr	r3, [r3, #0]
 2800 0020 002B     		cmp	r3, #0
 2801 0022 F8D1     		bne	.L160
 2802              		.loc 1 1242 0 is_stmt 1
 2803 0024 019B     		ldr	r3, [sp, #4]
 2804 0026 5A6F     		ldr	r2, [r3, #116]
 2805 0028 039B     		ldr	r3, [sp, #12]
 2806 002a 1A60     		str	r2, [r3, #0]
 2807              		.loc 1 1244 0
 2808 002c 019B     		ldr	r3, [sp, #4]
 2809 002e 9A6F     		ldr	r2, [r3, #120]
 2810 0030 019B     		ldr	r3, [sp, #4]
 2811 0032 5A67     		str	r2, [r3, #116]
 2812              		.loc 1 1246 0
 2813 0034 019B     		ldr	r3, [sp, #4]
 2814 0036 4FF00002 		mov	r2, #0
 2815 003a 9A67     		str	r2, [r3, #120]
 2816              		.loc 1 1249 0
 2817 003c 019B     		ldr	r3, [sp, #4]
 2818 003e 93F84A30 		ldrb	r3, [r3, #74]	@ zero_extendqisi2
 2819 0042 03F10103 		add	r3, r3, #1
 2820 0046 DAB2     		uxtb	r2, r3
 2821 0048 019B     		ldr	r3, [sp, #4]
 2822 004a 83F84A20 		strb	r2, [r3, #74]
 2823              		.loc 1 1252 0
 2824 004e 019B     		ldr	r3, [sp, #4]
 2825 0050 4FF00002 		mov	r2, #0
 2826 0054 DA63     		str	r2, [r3, #60]
 2827              		.loc 1 1255 0
 2828 0056 0198     		ldr	r0, [sp, #4]
 2829 0058 FFF7FEFF 		bl	tcp_output
 2830 005c 00E0     		b	.L156
 2831              	.L161:
ARM GAS  /tmp/ccKKWSFE.s 			page 51


 2832              		.loc 1 1236 0
 2833 005e 00BF     		nop
 2834              	.L156:
 2835              		.loc 1 1256 0
 2836 0060 05B0     		add	sp, sp, #20
 2837 0062 00BD     		pop	{pc}
 2838              		.cfi_endproc
 2839              	.LFE18:
 2840              		.size	tcp_rexmit_rto, .-tcp_rexmit_rto
 2841 0064 AFF30080 		.section	.text.tcp_rexmit,"ax",%progbits
 2841      AFF30080 
 2841      AFF30080 
 2842              		.align	2
 2843              		.p2align 4,,15
 2844              		.global	tcp_rexmit
 2845              		.thumb
 2846              		.thumb_func
 2847              		.type	tcp_rexmit, %function
 2848              	tcp_rexmit:
 2849              	.LFB19:
 2850              		.loc 1 1267 0
 2851              		.cfi_startproc
 2852              		@ args = 0, pretend = 0, frame = 16
 2853              		@ frame_needed = 0, uses_anonymous_args = 0
 2854 0000 10B5     		push	{r4, lr}
 2855              	.LCFI24:
 2856              		.cfi_def_cfa_offset 8
 2857              		.cfi_offset 14, -4
 2858              		.cfi_offset 4, -8
 2859 0002 84B0     		sub	sp, sp, #16
 2860              	.LCFI25:
 2861              		.cfi_def_cfa_offset 24
 2862 0004 0190     		str	r0, [sp, #4]
 2863              		.loc 1 1271 0
 2864 0006 019B     		ldr	r3, [sp, #4]
 2865 0008 9B6F     		ldr	r3, [r3, #120]
 2866 000a 002B     		cmp	r3, #0
 2867 000c 39D0     		beq	.L168
 2868              	.L163:
 2869              		.loc 1 1277 0
 2870 000e 019B     		ldr	r3, [sp, #4]
 2871 0010 9B6F     		ldr	r3, [r3, #120]
 2872 0012 0293     		str	r3, [sp, #8]
 2873              		.loc 1 1278 0
 2874 0014 029B     		ldr	r3, [sp, #8]
 2875 0016 1A68     		ldr	r2, [r3, #0]
 2876 0018 019B     		ldr	r3, [sp, #4]
 2877 001a 9A67     		str	r2, [r3, #120]
 2878              		.loc 1 1280 0
 2879 001c 019B     		ldr	r3, [sp, #4]
 2880 001e 03F17403 		add	r3, r3, #116
 2881 0022 0393     		str	r3, [sp, #12]
 2882              		.loc 1 1281 0
 2883 0024 02E0     		b	.L165
 2884              	.L167:
 2885              		.loc 1 1283 0
 2886 0026 039B     		ldr	r3, [sp, #12]
ARM GAS  /tmp/ccKKWSFE.s 			page 52


 2887 0028 1B68     		ldr	r3, [r3, #0]
 2888 002a 0393     		str	r3, [sp, #12]
 2889              	.L165:
 2890              		.loc 1 1281 0 discriminator 1
 2891 002c 039B     		ldr	r3, [sp, #12]
 2892 002e 1B68     		ldr	r3, [r3, #0]
 2893 0030 002B     		cmp	r3, #0
 2894 0032 11D0     		beq	.L166
 2895              		.loc 1 1282 0 discriminator 2
 2896 0034 039B     		ldr	r3, [sp, #12]
 2897 0036 1B68     		ldr	r3, [r3, #0]
 2898 0038 DB68     		ldr	r3, [r3, #12]
 2899 003a 5B68     		ldr	r3, [r3, #4]	@ unaligned
 2900 003c 1846     		mov	r0, r3
 2901 003e FFF7FEFF 		bl	lwip_ntohl
 2902 0042 0446     		mov	r4, r0
 2903 0044 029B     		ldr	r3, [sp, #8]
 2904 0046 DB68     		ldr	r3, [r3, #12]
 2905 0048 5B68     		ldr	r3, [r3, #4]	@ unaligned
 2906 004a 1846     		mov	r0, r3
 2907 004c FFF7FEFF 		bl	lwip_ntohl
 2908 0050 0346     		mov	r3, r0
 2909 0052 E31A     		subs	r3, r4, r3
 2910              		.loc 1 1281 0 discriminator 2
 2911 0054 002B     		cmp	r3, #0
 2912 0056 E6DB     		blt	.L167
 2913              	.L166:
 2914              		.loc 1 1285 0
 2915 0058 039B     		ldr	r3, [sp, #12]
 2916 005a 1A68     		ldr	r2, [r3, #0]
 2917 005c 029B     		ldr	r3, [sp, #8]
 2918 005e 1A60     		str	r2, [r3, #0]
 2919              		.loc 1 1286 0
 2920 0060 039B     		ldr	r3, [sp, #12]
 2921 0062 029A     		ldr	r2, [sp, #8]
 2922 0064 1A60     		str	r2, [r3, #0]
 2923              		.loc 1 1288 0
 2924 0066 019B     		ldr	r3, [sp, #4]
 2925 0068 93F84A30 		ldrb	r3, [r3, #74]	@ zero_extendqisi2
 2926 006c 03F10103 		add	r3, r3, #1
 2927 0070 DAB2     		uxtb	r2, r3
 2928 0072 019B     		ldr	r3, [sp, #4]
 2929 0074 83F84A20 		strb	r2, [r3, #74]
 2930              		.loc 1 1291 0
 2931 0078 019B     		ldr	r3, [sp, #4]
 2932 007a 4FF00002 		mov	r2, #0
 2933 007e DA63     		str	r2, [r3, #60]
 2934 0080 00E0     		b	.L162
 2935              	.L168:
 2936              		.loc 1 1272 0
 2937 0082 00BF     		nop
 2938              	.L162:
 2939              		.loc 1 1297 0
 2940 0084 04B0     		add	sp, sp, #16
 2941 0086 10BD     		pop	{r4, pc}
 2942              		.cfi_endproc
 2943              	.LFE19:
ARM GAS  /tmp/ccKKWSFE.s 			page 53


 2944              		.size	tcp_rexmit, .-tcp_rexmit
 2945 0088 AFF30080 		.section	.text.tcp_rexmit_fast,"ax",%progbits
 2945      AFF30080 
 2946              		.align	2
 2947              		.p2align 4,,15
 2948              		.global	tcp_rexmit_fast
 2949              		.thumb
 2950              		.thumb_func
 2951              		.type	tcp_rexmit_fast, %function
 2952              	tcp_rexmit_fast:
 2953              	.LFB20:
 2954              		.loc 1 1307 0
 2955              		.cfi_startproc
 2956              		@ args = 0, pretend = 0, frame = 8
 2957              		@ frame_needed = 0, uses_anonymous_args = 0
 2958 0000 00B5     		push	{lr}
 2959              	.LCFI26:
 2960              		.cfi_def_cfa_offset 4
 2961              		.cfi_offset 14, -4
 2962 0002 83B0     		sub	sp, sp, #12
 2963              	.LCFI27:
 2964              		.cfi_def_cfa_offset 16
 2965 0004 0190     		str	r0, [sp, #4]
 2966              		.loc 1 1308 0
 2967 0006 019B     		ldr	r3, [sp, #4]
 2968 0008 9B6F     		ldr	r3, [r3, #120]
 2969 000a 002B     		cmp	r3, #0
 2970 000c 4ED0     		beq	.L169
 2971              		.loc 1 1308 0 is_stmt 0 discriminator 1
 2972 000e 019B     		ldr	r3, [sp, #4]
 2973 0010 93F82030 		ldrb	r3, [r3, #32]	@ zero_extendqisi2
 2974 0014 03F00403 		and	r3, r3, #4
 2975 0018 002B     		cmp	r3, #0
 2976 001a 47D1     		bne	.L169
 2977              		.loc 1 1315 0 is_stmt 1
 2978 001c 0198     		ldr	r0, [sp, #4]
 2979 001e FFF7FEFF 		bl	tcp_rexmit
 2980              		.loc 1 1319 0
 2981 0022 019B     		ldr	r3, [sp, #4]
 2982 0024 B3F85220 		ldrh	r2, [r3, #82]
 2983 0028 019B     		ldr	r3, [sp, #4]
 2984 002a B3F85C30 		ldrh	r3, [r3, #92]
 2985 002e 9A42     		cmp	r2, r3
 2986 0030 09D9     		bls	.L171
 2987              		.loc 1 1320 0
 2988 0032 019B     		ldr	r3, [sp, #4]
 2989 0034 B3F85C30 		ldrh	r3, [r3, #92]
 2990 0038 4FEA5303 		lsr	r3, r3, #1
 2991 003c 9AB2     		uxth	r2, r3
 2992 003e 019B     		ldr	r3, [sp, #4]
 2993 0040 A3F85420 		strh	r2, [r3, #84]	@ movhi
 2994 0044 08E0     		b	.L172
 2995              	.L171:
 2996              		.loc 1 1322 0
 2997 0046 019B     		ldr	r3, [sp, #4]
 2998 0048 B3F85230 		ldrh	r3, [r3, #82]
 2999 004c 4FEA5303 		lsr	r3, r3, #1
ARM GAS  /tmp/ccKKWSFE.s 			page 54


 3000 0050 9AB2     		uxth	r2, r3
 3001 0052 019B     		ldr	r3, [sp, #4]
 3002 0054 A3F85420 		strh	r2, [r3, #84]	@ movhi
 3003              	.L172:
 3004              		.loc 1 1326 0
 3005 0058 019B     		ldr	r3, [sp, #4]
 3006 005a B3F85430 		ldrh	r3, [r3, #84]
 3007 005e 1A46     		mov	r2, r3
 3008 0060 019B     		ldr	r3, [sp, #4]
 3009 0062 1B8F     		ldrh	r3, [r3, #56]
 3010 0064 4FEA4303 		lsl	r3, r3, #1
 3011 0068 9A42     		cmp	r2, r3
 3012 006a 07DA     		bge	.L173
 3013              		.loc 1 1331 0
 3014 006c 019B     		ldr	r3, [sp, #4]
 3015 006e 1B8F     		ldrh	r3, [r3, #56]
 3016 0070 4FEA4303 		lsl	r3, r3, #1
 3017 0074 9AB2     		uxth	r2, r3
 3018 0076 019B     		ldr	r3, [sp, #4]
 3019 0078 A3F85420 		strh	r2, [r3, #84]	@ movhi
 3020              	.L173:
 3021              		.loc 1 1334 0
 3022 007c 019B     		ldr	r3, [sp, #4]
 3023 007e B3F85420 		ldrh	r2, [r3, #84]
 3024 0082 019B     		ldr	r3, [sp, #4]
 3025 0084 1B8F     		ldrh	r3, [r3, #56]
 3026 0086 1946     		mov	r1, r3	@ movhi
 3027 0088 4FEA4101 		lsl	r1, r1, #1
 3028 008c CB18     		adds	r3, r1, r3
 3029 008e 9BB2     		uxth	r3, r3
 3030 0090 D318     		adds	r3, r2, r3
 3031 0092 9AB2     		uxth	r2, r3
 3032 0094 019B     		ldr	r3, [sp, #4]
 3033 0096 A3F85220 		strh	r2, [r3, #82]	@ movhi
 3034              		.loc 1 1335 0
 3035 009a 019B     		ldr	r3, [sp, #4]
 3036 009c 93F82030 		ldrb	r3, [r3, #32]	@ zero_extendqisi2
 3037 00a0 43F00403 		orr	r3, r3, #4
 3038 00a4 DAB2     		uxtb	r2, r3
 3039 00a6 019B     		ldr	r3, [sp, #4]
 3040 00a8 83F82020 		strb	r2, [r3, #32]
 3041              	.L169:
 3042              		.loc 1 1337 0
 3043 00ac 03B0     		add	sp, sp, #12
 3044 00ae 00BD     		pop	{pc}
 3045              		.cfi_endproc
 3046              	.LFE20:
 3047              		.size	tcp_rexmit_fast, .-tcp_rexmit_fast
 3048              		.section	.text.tcp_keepalive,"ax",%progbits
 3049              		.align	2
 3050              		.p2align 4,,15
 3051              		.global	tcp_keepalive
 3052              		.thumb
 3053              		.thumb_func
 3054              		.type	tcp_keepalive, %function
 3055              	tcp_keepalive:
 3056              	.LFB21:
ARM GAS  /tmp/ccKKWSFE.s 			page 55


 3057              		.loc 1 1350 0
 3058              		.cfi_startproc
 3059              		@ args = 0, pretend = 0, frame = 16
 3060              		@ frame_needed = 0, uses_anonymous_args = 0
 3061 0000 00B5     		push	{lr}
 3062              	.LCFI28:
 3063              		.cfi_def_cfa_offset 4
 3064              		.cfi_offset 14, -4
 3065 0002 87B0     		sub	sp, sp, #28
 3066              	.LCFI29:
 3067              		.cfi_def_cfa_offset 32
 3068 0004 0390     		str	r0, [sp, #12]
 3069              		.loc 1 1361 0
 3070 0006 039B     		ldr	r3, [sp, #12]
 3071 0008 9B6D     		ldr	r3, [r3, #88]
 3072 000a 03F1FF33 		add	r3, r3, #-1
 3073 000e 1846     		mov	r0, r3
 3074 0010 FFF7FEFF 		bl	lwip_htonl
 3075 0014 0346     		mov	r3, r0
 3076 0016 0398     		ldr	r0, [sp, #12]
 3077 0018 4FF00001 		mov	r1, #0
 3078 001c 4FF00002 		mov	r2, #0
 3079 0020 FFF7FEFF 		bl	tcp_output_alloc_header
 3080 0024 0346     		mov	r3, r0
 3081 0026 0593     		str	r3, [sp, #20]
 3082              		.loc 1 1362 0
 3083 0028 059B     		ldr	r3, [sp, #20]
 3084 002a 002B     		cmp	r3, #0
 3085 002c 36D0     		beq	.L177
 3086              	.L175:
 3087              		.loc 1 1367 0
 3088 002e 059B     		ldr	r3, [sp, #20]
 3089 0030 5B68     		ldr	r3, [r3, #4]
 3090 0032 0493     		str	r3, [sp, #16]
 3091              		.loc 1 1370 0
 3092 0034 039A     		ldr	r2, [sp, #12]
 3093 0036 039B     		ldr	r3, [sp, #12]
 3094 0038 03F10403 		add	r3, r3, #4
 3095              		.loc 1 1371 0
 3096 003c 0599     		ldr	r1, [sp, #20]
 3097              		.loc 1 1370 0
 3098 003e 0989     		ldrh	r1, [r1, #8]
 3099 0040 0091     		str	r1, [sp, #0]
 3100 0042 0598     		ldr	r0, [sp, #20]
 3101 0044 1146     		mov	r1, r2
 3102 0046 1A46     		mov	r2, r3
 3103 0048 4FF00603 		mov	r3, #6
 3104 004c FFF7FEFF 		bl	inet_chksum_pseudo
 3105 0050 0346     		mov	r3, r0
 3106 0052 1A46     		mov	r2, r3
 3107 0054 049B     		ldr	r3, [sp, #16]
 3108 0056 1A82     		strh	r2, [r3, #16]	@ unaligned
 3109              		.loc 1 1373 0
 3110 0058 40F20003 		movw	r3, #:lower16:lwip_stats
 3111 005c C0F20003 		movt	r3, #:upper16:lwip_stats
 3112 0060 B3F89030 		ldrh	r3, [r3, #144]
 3113 0064 03F10103 		add	r3, r3, #1
ARM GAS  /tmp/ccKKWSFE.s 			page 56


 3114 0068 9AB2     		uxth	r2, r3
 3115 006a 40F20003 		movw	r3, #:lower16:lwip_stats
 3116 006e C0F20003 		movt	r3, #:upper16:lwip_stats
 3117 0072 A3F89020 		strh	r2, [r3, #144]	@ movhi
 3118              		.loc 1 1380 0
 3119 0076 0399     		ldr	r1, [sp, #12]
 3120 0078 039B     		ldr	r3, [sp, #12]
 3121 007a 03F10402 		add	r2, r3, #4
 3122 007e 039B     		ldr	r3, [sp, #12]
 3123 0080 9B7A     		ldrb	r3, [r3, #10]	@ zero_extendqisi2
 3124 0082 4FF00000 		mov	r0, #0
 3125 0086 0090     		str	r0, [sp, #0]
 3126 0088 4FF00600 		mov	r0, #6
 3127 008c 0190     		str	r0, [sp, #4]
 3128 008e 0598     		ldr	r0, [sp, #20]
 3129 0090 FFF7FEFF 		bl	ip_output
 3130              		.loc 1 1383 0
 3131 0094 0598     		ldr	r0, [sp, #20]
 3132 0096 FFF7FEFF 		bl	pbuf_free
 3133 009a 00E0     		b	.L174
 3134              	.L177:
 3135              		.loc 1 1365 0
 3136 009c 00BF     		nop
 3137              	.L174:
 3138              		.loc 1 1387 0
 3139 009e 07B0     		add	sp, sp, #28
 3140 00a0 00BD     		pop	{pc}
 3141              		.cfi_endproc
 3142              	.LFE21:
 3143              		.size	tcp_keepalive, .-tcp_keepalive
 3144 00a2 00BFAFF3 		.section	.text.tcp_zero_window_probe,"ax",%progbits
 3144      0080AFF3 
 3144      0080AFF3 
 3144      0080
 3145              		.align	2
 3146              		.p2align 4,,15
 3147              		.global	tcp_zero_window_probe
 3148              		.thumb
 3149              		.thumb_func
 3150              		.type	tcp_zero_window_probe, %function
 3151              	tcp_zero_window_probe:
 3152              	.LFB22:
 3153              		.loc 1 1400 0
 3154              		.cfi_startproc
 3155              		@ args = 0, pretend = 0, frame = 32
 3156              		@ frame_needed = 0, uses_anonymous_args = 0
 3157 0000 10B5     		push	{r4, lr}
 3158              	.LCFI30:
 3159              		.cfi_def_cfa_offset 8
 3160              		.cfi_offset 14, -4
 3161              		.cfi_offset 4, -8
 3162 0002 8AB0     		sub	sp, sp, #40
 3163              	.LCFI31:
 3164              		.cfi_def_cfa_offset 48
 3165 0004 0390     		str	r0, [sp, #12]
 3166              		.loc 1 1418 0
 3167 0006 039B     		ldr	r3, [sp, #12]
ARM GAS  /tmp/ccKKWSFE.s 			page 57


 3168 0008 9B6F     		ldr	r3, [r3, #120]
 3169 000a 0993     		str	r3, [sp, #36]
 3170              		.loc 1 1420 0
 3171 000c 099B     		ldr	r3, [sp, #36]
 3172 000e 002B     		cmp	r3, #0
 3173 0010 02D1     		bne	.L179
 3174              		.loc 1 1421 0
 3175 0012 039B     		ldr	r3, [sp, #12]
 3176 0014 5B6F     		ldr	r3, [r3, #116]
 3177 0016 0993     		str	r3, [sp, #36]
 3178              	.L179:
 3179              		.loc 1 1423 0
 3180 0018 099B     		ldr	r3, [sp, #36]
 3181 001a 002B     		cmp	r3, #0
 3182 001c 00F09C80 		beq	.L187
 3183              	.L180:
 3184              		.loc 1 1427 0
 3185 0020 099B     		ldr	r3, [sp, #36]
 3186 0022 DB68     		ldr	r3, [r3, #12]
 3187 0024 9B89     		ldrh	r3, [r3, #12]	@ unaligned
 3188 0026 9BB2     		uxth	r3, r3
 3189 0028 1846     		mov	r0, r3
 3190 002a FFF7FEFF 		bl	lwip_ntohs
 3191 002e 0346     		mov	r3, r0
 3192 0030 03F00103 		and	r3, r3, #1
 3193 0034 DBB2     		uxtb	r3, r3
 3194 0036 002B     		cmp	r3, #0
 3195 0038 06D0     		beq	.L182
 3196              		.loc 1 1427 0 is_stmt 0 discriminator 1
 3197 003a 099B     		ldr	r3, [sp, #36]
 3198 003c 1B89     		ldrh	r3, [r3, #8]
 3199 003e 002B     		cmp	r3, #0
 3200 0040 02D1     		bne	.L182
 3201 0042 4FF00103 		mov	r3, #1
 3202 0046 01E0     		b	.L183
 3203              	.L182:
 3204              		.loc 1 1427 0 discriminator 2
 3205 0048 4FF00003 		mov	r3, #0
 3206              	.L183:
 3207              		.loc 1 1427 0 discriminator 3
 3208 004c 8DF82330 		strb	r3, [sp, #35]
 3209              		.loc 1 1429 0 is_stmt 1 discriminator 3
 3210 0050 9DF82330 		ldrb	r3, [sp, #35]	@ zero_extendqisi2
 3211 0054 002B     		cmp	r3, #0
 3212 0056 14BF     		ite	ne
 3213 0058 0023     		movne	r3, #0
 3214 005a 0123     		moveq	r3, #1
 3215 005c ADF82030 		strh	r3, [sp, #32]	@ movhi
 3216              		.loc 1 1431 0 discriminator 3
 3217 0060 099B     		ldr	r3, [sp, #36]
 3218 0062 DB68     		ldr	r3, [r3, #12]
 3219 0064 5B68     		ldr	r3, [r3, #4]	@ unaligned
 3220 0066 BDF82020 		ldrh	r2, [sp, #32]
 3221 006a 0398     		ldr	r0, [sp, #12]
 3222 006c 4FF00001 		mov	r1, #0
 3223 0070 FFF7FEFF 		bl	tcp_output_alloc_header
 3224 0074 0346     		mov	r3, r0
ARM GAS  /tmp/ccKKWSFE.s 			page 58


 3225 0076 0793     		str	r3, [sp, #28]
 3226              		.loc 1 1432 0 discriminator 3
 3227 0078 079B     		ldr	r3, [sp, #28]
 3228 007a 002B     		cmp	r3, #0
 3229 007c 6ED0     		beq	.L188
 3230              	.L184:
 3231              		.loc 1 1436 0
 3232 007e 079B     		ldr	r3, [sp, #28]
 3233 0080 5B68     		ldr	r3, [r3, #4]
 3234 0082 0693     		str	r3, [sp, #24]
 3235              		.loc 1 1438 0
 3236 0084 9DF82330 		ldrb	r3, [sp, #35]	@ zero_extendqisi2
 3237 0088 002B     		cmp	r3, #0
 3238 008a 13D0     		beq	.L185
 3239              		.loc 1 1440 0
 3240 008c 069B     		ldr	r3, [sp, #24]
 3241 008e 9B89     		ldrh	r3, [r3, #12]	@ unaligned
 3242 0090 9BB2     		uxth	r3, r3
 3243 0092 9BB2     		uxth	r3, r3
 3244 0094 23F47C53 		bic	r3, r3, #16128
 3245 0098 9CB2     		uxth	r4, r3
 3246 009a 4FF01100 		mov	r0, #17
 3247 009e FFF7FEFF 		bl	lwip_htons
 3248 00a2 0346     		mov	r3, r0
 3249 00a4 9BB2     		uxth	r3, r3
 3250 00a6 2246     		mov	r2, r4	@ movhi
 3251 00a8 1343     		orrs	r3, r3, r2
 3252 00aa 9BB2     		uxth	r3, r3
 3253 00ac 9AB2     		uxth	r2, r3
 3254 00ae 069B     		ldr	r3, [sp, #24]
 3255 00b0 9A81     		strh	r2, [r3, #12]	@ unaligned
 3256 00b2 1DE0     		b	.L186
 3257              	.L185:
 3258              	.LBB14:
 3259              		.loc 1 1443 0
 3260 00b4 099B     		ldr	r3, [sp, #36]
 3261 00b6 5B68     		ldr	r3, [r3, #4]
 3262 00b8 5B68     		ldr	r3, [r3, #4]
 3263 00ba 0593     		str	r3, [sp, #20]
 3264              		.loc 1 1444 0
 3265 00bc 079B     		ldr	r3, [sp, #28]
 3266 00be 5B68     		ldr	r3, [r3, #4]
 3267 00c0 03F11403 		add	r3, r3, #20
 3268 00c4 0493     		str	r3, [sp, #16]
 3269              		.loc 1 1445 0
 3270 00c6 099B     		ldr	r3, [sp, #36]
 3271 00c8 5C68     		ldr	r4, [r3, #4]
 3272 00ca 059B     		ldr	r3, [sp, #20]
 3273 00cc 9B89     		ldrh	r3, [r3, #12]	@ unaligned
 3274 00ce 9BB2     		uxth	r3, r3
 3275 00d0 1846     		mov	r0, r3
 3276 00d2 FFF7FEFF 		bl	lwip_ntohs
 3277 00d6 0346     		mov	r3, r0
 3278 00d8 4FEA1333 		lsr	r3, r3, #12
 3279 00dc 9BB2     		uxth	r3, r3
 3280 00de 4FEA8303 		lsl	r3, r3, #2
 3281 00e2 9BB2     		uxth	r3, r3
ARM GAS  /tmp/ccKKWSFE.s 			page 59


 3282 00e4 2046     		mov	r0, r4
 3283 00e6 0499     		ldr	r1, [sp, #16]
 3284 00e8 4FF00102 		mov	r2, #1
 3285 00ec FFF7FEFF 		bl	pbuf_copy_partial
 3286              	.L186:
 3287              	.LBE14:
 3288              		.loc 1 1449 0
 3289 00f0 039A     		ldr	r2, [sp, #12]
 3290 00f2 039B     		ldr	r3, [sp, #12]
 3291 00f4 03F10403 		add	r3, r3, #4
 3292              		.loc 1 1450 0
 3293 00f8 0799     		ldr	r1, [sp, #28]
 3294              		.loc 1 1449 0
 3295 00fa 0989     		ldrh	r1, [r1, #8]
 3296 00fc 0091     		str	r1, [sp, #0]
 3297 00fe 0798     		ldr	r0, [sp, #28]
 3298 0100 1146     		mov	r1, r2
 3299 0102 1A46     		mov	r2, r3
 3300 0104 4FF00603 		mov	r3, #6
 3301 0108 FFF7FEFF 		bl	inet_chksum_pseudo
 3302 010c 0346     		mov	r3, r0
 3303 010e 1A46     		mov	r2, r3
 3304 0110 069B     		ldr	r3, [sp, #24]
 3305 0112 1A82     		strh	r2, [r3, #16]	@ unaligned
 3306              		.loc 1 1452 0
 3307 0114 40F20003 		movw	r3, #:lower16:lwip_stats
 3308 0118 C0F20003 		movt	r3, #:upper16:lwip_stats
 3309 011c B3F89030 		ldrh	r3, [r3, #144]
 3310 0120 03F10103 		add	r3, r3, #1
 3311 0124 9AB2     		uxth	r2, r3
 3312 0126 40F20003 		movw	r3, #:lower16:lwip_stats
 3313 012a C0F20003 		movt	r3, #:upper16:lwip_stats
 3314 012e A3F89020 		strh	r2, [r3, #144]	@ movhi
 3315              		.loc 1 1459 0
 3316 0132 0399     		ldr	r1, [sp, #12]
 3317 0134 039B     		ldr	r3, [sp, #12]
 3318 0136 03F10402 		add	r2, r3, #4
 3319 013a 039B     		ldr	r3, [sp, #12]
 3320 013c 9B7A     		ldrb	r3, [r3, #10]	@ zero_extendqisi2
 3321 013e 4FF00000 		mov	r0, #0
 3322 0142 0090     		str	r0, [sp, #0]
 3323 0144 4FF00600 		mov	r0, #6
 3324 0148 0190     		str	r0, [sp, #4]
 3325 014a 0798     		ldr	r0, [sp, #28]
 3326 014c FFF7FEFF 		bl	ip_output
 3327              		.loc 1 1462 0
 3328 0150 0798     		ldr	r0, [sp, #28]
 3329 0152 FFF7FEFF 		bl	pbuf_free
 3330 0156 02E0     		b	.L178
 3331              	.L187:
 3332              		.loc 1 1424 0
 3333 0158 00BF     		nop
 3334 015a 00E0     		b	.L178
 3335              	.L188:
 3336              		.loc 1 1434 0
 3337 015c 00BF     		nop
 3338              	.L178:
ARM GAS  /tmp/ccKKWSFE.s 			page 60


 3339              		.loc 1 1467 0
 3340 015e 0AB0     		add	sp, sp, #40
 3341 0160 10BD     		pop	{r4, pc}
 3342              		.cfi_endproc
 3343              	.LFE22:
 3344              		.size	tcp_zero_window_probe, .-tcp_zero_window_probe
 3345 0162 00BFAFF3 		.text
 3345      0080AFF3 
 3345      0080AFF3 
 3345      0080
 3346              	.Letext0:
 3347              		.file 2 "/home/texzk/ChibiStudio/tools/GNU Tools ARM Embedded/4.6 2012q2/bin/../lib/gcc/arm-none-e
 3348              		.file 3 "../../os/various/lwip_bindings/arch/cc.h"
 3349              		.file 4 "../../ext/lwip/src/include/lwip/err.h"
 3350              		.file 5 "../../ext/lwip/src/include/lwip/mem.h"
 3351              		.file 6 "../../ext/lwip/src/include/lwip/pbuf.h"
 3352              		.file 7 "../../ext/lwip/src/include/ipv4/lwip/ip_addr.h"
 3353              		.file 8 "../../ext/lwip/src/include/lwip/netif.h"
 3354              		.file 9 "../../ext/lwip/src/include/lwip/tcp.h"
 3355              		.file 10 "../../ext/lwip/src/include/lwip/tcp_impl.h"
 3356              		.file 11 "../../ext/lwip/src/include/lwip/memp.h"
 3357              		.file 12 "../../ext/lwip/src/include/lwip/stats.h"