ARM GAS  /tmp/ccKKWSFE.s 			page 1


   1              		.syntax unified
   2              		.cpu cortex-m3
   3              		.fpu softvfp
   4              		.eabi_attribute 20, 1
   5              		.eabi_attribute 21, 1
   6              		.eabi_attribute 23, 3
   7              		.eabi_attribute 24, 1
   8              		.eabi_attribute 25, 1
   9              		.eabi_attribute 26, 1
  10              		.eabi_attribute 30, 6
  11              		.eabi_attribute 34, 1
  12              		.eabi_attribute 18, 4
  13              		.thumb
  14              		.file	"tcp_out.c"
  15              		.text
  16              	.Ltext0:
  17              		.cfi_sections	.debug_frame
  18              		.section	.text.tcp_output_alloc_header,"ax",%progbits
  19              		.align	2
  20              		.p2align 4,,15
  21              		.thumb
  22              		.thumb_func
  23              		.type	tcp_output_alloc_header, %function
  24              	tcp_output_alloc_header:
  25              	.LFB7:
  26              		.file 1 "../../ext/lwip/src/core/tcp_out.c"
  27              		.loc 1 94 0
  28              		.cfi_startproc
  29              		@ args = 0, pretend = 0, frame = 24
  30              		@ frame_needed = 0, uses_anonymous_args = 0
  31 0000 00B5     		push	{lr}
  32              	.LCFI0:
  33              		.cfi_def_cfa_offset 4
  34              		.cfi_offset 14, -4
  35 0002 87B0     		sub	sp, sp, #28
  36              	.LCFI1:
  37              		.cfi_def_cfa_offset 32
  38 0004 0390     		str	r0, [sp, #12]
  39 0006 0193     		str	r3, [sp, #4]
  40 0008 0B46     		mov	r3, r1	@ movhi
  41 000a ADF80A30 		strh	r3, [sp, #10]	@ movhi
  42 000e 1346     		mov	r3, r2	@ movhi
  43 0010 ADF80830 		strh	r3, [sp, #8]	@ movhi
  44              		.loc 1 96 0
  45 0014 BDF80A20 		ldrh	r2, [sp, #10]	@ movhi
  46 0018 BDF80830 		ldrh	r3, [sp, #8]	@ movhi
  47 001c D318     		adds	r3, r2, r3
  48 001e 9BB2     		uxth	r3, r3
  49 0020 03F11403 		add	r3, r3, #20
  50 0024 9BB2     		uxth	r3, r3
  51 0026 4FF00100 		mov	r0, #1
  52 002a 1946     		mov	r1, r3
  53 002c 4FF00002 		mov	r2, #0
  54 0030 FFF7FEFF 		bl	pbuf_alloc
  55 0034 0346     		mov	r3, r0
  56 0036 0593     		str	r3, [sp, #20]
  57              		.loc 1 97 0
ARM GAS  /tmp/ccKKWSFE.s 			page 2


  58 0038 059B     		ldr	r3, [sp, #20]
  59 003a 002B     		cmp	r3, #0
  60 003c 5DD0     		beq	.L2
  61              		.loc 1 98 0
  62 003e 059B     		ldr	r3, [sp, #20]
  63 0040 5B89     		ldrh	r3, [r3, #10]
  64 0042 1A46     		mov	r2, r3
  65 0044 BDF80A30 		ldrh	r3, [sp, #10]
  66 0048 03F11403 		add	r3, r3, #20
  67 004c 9A42     		cmp	r2, r3
  68 004e 01DA     		bge	.L3
  69              		.loc 1 98 0 is_stmt 0 discriminator 1
  70 0050 FFF7FEFF 		bl	port_halt
  71              	.L3:
  72              		.loc 1 100 0 is_stmt 1
  73 0054 059B     		ldr	r3, [sp, #20]
  74 0056 5B68     		ldr	r3, [r3, #4]
  75 0058 0493     		str	r3, [sp, #16]
  76              		.loc 1 101 0
  77 005a 039B     		ldr	r3, [sp, #12]
  78 005c 9B8B     		ldrh	r3, [r3, #28]
  79 005e 1846     		mov	r0, r3
  80 0060 FFF7FEFF 		bl	lwip_htons
  81 0064 0346     		mov	r3, r0
  82 0066 1A46     		mov	r2, r3
  83 0068 049B     		ldr	r3, [sp, #16]
  84 006a 1A80     		strh	r2, [r3, #0]	@ unaligned
  85              		.loc 1 102 0
  86 006c 039B     		ldr	r3, [sp, #12]
  87 006e DB8B     		ldrh	r3, [r3, #30]
  88 0070 1846     		mov	r0, r3
  89 0072 FFF7FEFF 		bl	lwip_htons
  90 0076 0346     		mov	r3, r0
  91 0078 1A46     		mov	r2, r3
  92 007a 049B     		ldr	r3, [sp, #16]
  93 007c 5A80     		strh	r2, [r3, #2]	@ unaligned
  94              		.loc 1 103 0
  95 007e 049B     		ldr	r3, [sp, #16]
  96 0080 019A     		ldr	r2, [sp, #4]
  97 0082 5A60     		str	r2, [r3, #4]	@ unaligned
  98              		.loc 1 104 0
  99 0084 039B     		ldr	r3, [sp, #12]
 100 0086 5B6A     		ldr	r3, [r3, #36]
 101 0088 1846     		mov	r0, r3
 102 008a FFF7FEFF 		bl	lwip_htonl
 103 008e 0246     		mov	r2, r0
 104 0090 049B     		ldr	r3, [sp, #16]
 105 0092 9A60     		str	r2, [r3, #8]	@ unaligned
 106              		.loc 1 105 0
 107 0094 BDF80A30 		ldrh	r3, [sp, #10]
 108 0098 4FEA9303 		lsr	r3, r3, #2
 109 009c 9BB2     		uxth	r3, r3
 110 009e 03F10503 		add	r3, r3, #5
 111 00a2 9BB2     		uxth	r3, r3
 112 00a4 4FEA0333 		lsl	r3, r3, #12
 113 00a8 9BB2     		uxth	r3, r3
 114 00aa 43F01003 		orr	r3, r3, #16
ARM GAS  /tmp/ccKKWSFE.s 			page 3


 115 00ae 9BB2     		uxth	r3, r3
 116 00b0 1846     		mov	r0, r3
 117 00b2 FFF7FEFF 		bl	lwip_htons
 118 00b6 0346     		mov	r3, r0
 119 00b8 1A46     		mov	r2, r3
 120 00ba 049B     		ldr	r3, [sp, #16]
 121 00bc 9A81     		strh	r2, [r3, #12]	@ unaligned
 122              		.loc 1 106 0
 123 00be 039B     		ldr	r3, [sp, #12]
 124 00c0 5B8D     		ldrh	r3, [r3, #42]
 125 00c2 1846     		mov	r0, r3
 126 00c4 FFF7FEFF 		bl	lwip_htons
 127 00c8 0346     		mov	r3, r0
 128 00ca 1A46     		mov	r2, r3
 129 00cc 049B     		ldr	r3, [sp, #16]
 130 00ce DA81     		strh	r2, [r3, #14]	@ unaligned
 131              		.loc 1 107 0
 132 00d0 049B     		ldr	r3, [sp, #16]
 133 00d2 4FF00002 		mov	r2, #0
 134 00d6 1A74     		strb	r2, [r3, #16]
 135 00d8 4FF00002 		mov	r2, #0
 136 00dc 5A74     		strb	r2, [r3, #17]
 137              		.loc 1 108 0
 138 00de 049B     		ldr	r3, [sp, #16]
 139 00e0 4FF00002 		mov	r2, #0
 140 00e4 9A74     		strb	r2, [r3, #18]
 141 00e6 4FF00002 		mov	r2, #0
 142 00ea DA74     		strb	r2, [r3, #19]
 143              		.loc 1 111 0
 144 00ec 039B     		ldr	r3, [sp, #12]
 145 00ee 5A6A     		ldr	r2, [r3, #36]
 146 00f0 039B     		ldr	r3, [sp, #12]
 147 00f2 5B8D     		ldrh	r3, [r3, #42]
 148 00f4 D218     		adds	r2, r2, r3
 149 00f6 039B     		ldr	r3, [sp, #12]
 150 00f8 DA62     		str	r2, [r3, #44]
 151              	.L2:
 152              		.loc 1 113 0
 153 00fa 059B     		ldr	r3, [sp, #20]
 154              		.loc 1 114 0
 155 00fc 1846     		mov	r0, r3
 156 00fe 07B0     		add	sp, sp, #28
 157 0100 00BD     		pop	{pc}
 158              		.cfi_endproc
 159              	.LFE7:
 160              		.size	tcp_output_alloc_header, .-tcp_output_alloc_header
 161 0102 00BFAFF3 		.section	.text.tcp_send_fin,"ax",%progbits
 161      0080AFF3 
 161      0080AFF3 
 161      0080
 162              		.align	2
 163              		.p2align 4,,15
 164              		.global	tcp_send_fin
 165              		.thumb
 166              		.thumb_func
 167              		.type	tcp_send_fin, %function
 168              	tcp_send_fin:
ARM GAS  /tmp/ccKKWSFE.s 			page 4


 169              	.LFB8:
 170              		.loc 1 124 0
 171              		.cfi_startproc
 172              		@ args = 0, pretend = 0, frame = 16
 173              		@ frame_needed = 0, uses_anonymous_args = 0
 174 0000 30B5     		push	{r4, r5, lr}
 175              	.LCFI2:
 176              		.cfi_def_cfa_offset 12
 177              		.cfi_offset 14, -4
 178              		.cfi_offset 5, -8
 179              		.cfi_offset 4, -12
 180 0002 85B0     		sub	sp, sp, #20
 181              	.LCFI3:
 182              		.cfi_def_cfa_offset 32
 183 0004 0190     		str	r0, [sp, #4]
 184              		.loc 1 126 0
 185 0006 019B     		ldr	r3, [sp, #4]
 186 0008 5B6F     		ldr	r3, [r3, #116]
 187 000a 002B     		cmp	r3, #0
 188 000c 27D0     		beq	.L5
 189              	.LBB2:
 190              		.loc 1 128 0
 191 000e 019B     		ldr	r3, [sp, #4]
 192 0010 5B6F     		ldr	r3, [r3, #116]
 193 0012 0393     		str	r3, [sp, #12]
 194 0014 02E0     		b	.L6
 195              	.L7:
 196              		.loc 1 129 0
 197 0016 039B     		ldr	r3, [sp, #12]
 198 0018 1B68     		ldr	r3, [r3, #0]
 199 001a 0393     		str	r3, [sp, #12]
 200              	.L6:
 201              		.loc 1 128 0 discriminator 1
 202 001c 039B     		ldr	r3, [sp, #12]
 203 001e 1B68     		ldr	r3, [r3, #0]
 204 0020 002B     		cmp	r3, #0
 205 0022 F8D1     		bne	.L7
 206              		.loc 1 131 0
 207 0024 039B     		ldr	r3, [sp, #12]
 208 0026 DB68     		ldr	r3, [r3, #12]
 209 0028 9B89     		ldrh	r3, [r3, #12]	@ unaligned
 210 002a 9BB2     		uxth	r3, r3
 211 002c 1846     		mov	r0, r3
 212 002e FFF7FEFF 		bl	lwip_ntohs
 213 0032 0346     		mov	r3, r0
 214 0034 03F00703 		and	r3, r3, #7
 215 0038 002B     		cmp	r3, #0
 216 003a 10D1     		bne	.L5
 217              		.loc 1 133 0
 218 003c 039B     		ldr	r3, [sp, #12]
 219 003e DC68     		ldr	r4, [r3, #12]
 220 0040 039B     		ldr	r3, [sp, #12]
 221 0042 DB68     		ldr	r3, [r3, #12]
 222 0044 9B89     		ldrh	r3, [r3, #12]	@ unaligned
 223 0046 9DB2     		uxth	r5, r3
 224 0048 4FF00100 		mov	r0, #1
 225 004c FFF7FEFF 		bl	lwip_htons
ARM GAS  /tmp/ccKKWSFE.s 			page 5


 226 0050 0346     		mov	r3, r0
 227 0052 2B43     		orrs	r3, r3, r5
 228 0054 9BB2     		uxth	r3, r3
 229 0056 A381     		strh	r3, [r4, #12]	@ unaligned
 230              		.loc 1 134 0
 231 0058 4FF00003 		mov	r3, #0
 232 005c 05E0     		b	.L8
 233              	.L5:
 234              	.LBE2:
 235              		.loc 1 138 0
 236 005e 0198     		ldr	r0, [sp, #4]
 237 0060 4FF00101 		mov	r1, #1
 238 0064 FFF7FEFF 		bl	tcp_enqueue_flags
 239 0068 0346     		mov	r3, r0
 240              	.L8:
 241 006a 5BB2     		sxtb	r3, r3
 242              		.loc 1 139 0
 243 006c 1846     		mov	r0, r3
 244 006e 05B0     		add	sp, sp, #20
 245 0070 30BD     		pop	{r4, r5, pc}
 246              		.cfi_endproc
 247              	.LFE8:
 248              		.size	tcp_send_fin, .-tcp_send_fin
 249 0072 00BFAFF3 		.section	.text.tcp_create_segment,"ax",%progbits
 249      0080AFF3 
 249      0080AFF3 
 249      0080
 250              		.align	2
 251              		.p2align 4,,15
 252              		.thumb
 253              		.thumb_func
 254              		.type	tcp_create_segment, %function
 255              	tcp_create_segment:
 256              	.LFB9:
 257              		.loc 1 157 0
 258              		.cfi_startproc
 259              		@ args = 4, pretend = 0, frame = 24
 260              		@ frame_needed = 0, uses_anonymous_args = 0
 261 0000 10B5     		push	{r4, lr}
 262              	.LCFI4:
 263              		.cfi_def_cfa_offset 8
 264              		.cfi_offset 14, -4
 265              		.cfi_offset 4, -8
 266 0002 86B0     		sub	sp, sp, #24
 267              	.LCFI5:
 268              		.cfi_def_cfa_offset 32
 269 0004 0390     		str	r0, [sp, #12]
 270 0006 0291     		str	r1, [sp, #8]
 271 0008 0093     		str	r3, [sp, #0]
 272 000a 1346     		mov	r3, r2
 273 000c 8DF80730 		strb	r3, [sp, #7]
 274              		.loc 1 159 0
 275 0010 9DF82030 		ldrb	r3, [sp, #32]	@ zero_extendqisi2
 276 0014 03F00103 		and	r3, r3, #1
 277 0018 DBB2     		uxtb	r3, r3
 278 001a 002B     		cmp	r3, #0
 279 001c 02D0     		beq	.L10
ARM GAS  /tmp/ccKKWSFE.s 			page 6


 280              		.loc 1 159 0 is_stmt 0 discriminator 1
 281 001e 4FF00402 		mov	r2, #4
 282 0022 01E0     		b	.L11
 283              	.L10:
 284              		.loc 1 159 0 discriminator 2
 285 0024 4FF00002 		mov	r2, #0
 286              	.L11:
 287              		.loc 1 159 0 discriminator 3
 288 0028 9DF82030 		ldrb	r3, [sp, #32]	@ zero_extendqisi2
 289 002c 03F00203 		and	r3, r3, #2
 290 0030 002B     		cmp	r3, #0
 291 0032 02D0     		beq	.L12
 292              		.loc 1 159 0 discriminator 4
 293 0034 4FF00C03 		mov	r3, #12
 294 0038 01E0     		b	.L13
 295              	.L12:
 296              		.loc 1 159 0 discriminator 5
 297 003a 4FF00003 		mov	r3, #0
 298              	.L13:
 299              		.loc 1 159 0 discriminator 6
 300 003e D318     		adds	r3, r2, r3
 301 0040 8DF81730 		strb	r3, [sp, #23]
 302              		.loc 1 161 0 is_stmt 1 discriminator 6
 303 0044 4FF00400 		mov	r0, #4
 304 0048 FFF7FEFF 		bl	memp_malloc
 305 004c 0346     		mov	r3, r0
 306 004e 0493     		str	r3, [sp, #16]
 307 0050 049B     		ldr	r3, [sp, #16]
 308 0052 002B     		cmp	r3, #0
 309 0054 05D1     		bne	.L14
 310              		.loc 1 163 0
 311 0056 0298     		ldr	r0, [sp, #8]
 312 0058 FFF7FEFF 		bl	pbuf_free
 313              		.loc 1 164 0
 314 005c 4FF00003 		mov	r3, #0
 315 0060 6EE0     		b	.L15
 316              	.L14:
 317              		.loc 1 166 0
 318 0062 049B     		ldr	r3, [sp, #16]
 319 0064 9DF82020 		ldrb	r2, [sp, #32]
 320 0068 9A72     		strb	r2, [r3, #10]
 321              		.loc 1 167 0
 322 006a 049B     		ldr	r3, [sp, #16]
 323 006c 4FF00002 		mov	r2, #0
 324 0070 1A60     		str	r2, [r3, #0]
 325              		.loc 1 168 0
 326 0072 049B     		ldr	r3, [sp, #16]
 327 0074 029A     		ldr	r2, [sp, #8]
 328 0076 5A60     		str	r2, [r3, #4]
 329              		.loc 1 169 0
 330 0078 029B     		ldr	r3, [sp, #8]
 331 007a 1A89     		ldrh	r2, [r3, #8]
 332 007c 9DF81730 		ldrb	r3, [sp, #23]	@ zero_extendqisi2
 333 0080 9BB2     		uxth	r3, r3
 334 0082 D31A     		subs	r3, r2, r3
 335 0084 9AB2     		uxth	r2, r3
 336 0086 049B     		ldr	r3, [sp, #16]
ARM GAS  /tmp/ccKKWSFE.s 			page 7


 337 0088 1A81     		strh	r2, [r3, #8]	@ movhi
 338              		.loc 1 182 0
 339 008a 0298     		ldr	r0, [sp, #8]
 340 008c 4FF01401 		mov	r1, #20
 341 0090 FFF7FEFF 		bl	pbuf_header
 342 0094 0346     		mov	r3, r0
 343 0096 002B     		cmp	r3, #0
 344 0098 14D0     		beq	.L16
 345              		.loc 1 184 0
 346 009a 40F20003 		movw	r3, #:lower16:lwip_stats
 347 009e C0F20003 		movt	r3, #:upper16:lwip_stats
 348 00a2 B3F8A430 		ldrh	r3, [r3, #164]
 349 00a6 03F10103 		add	r3, r3, #1
 350 00aa 9AB2     		uxth	r2, r3
 351 00ac 40F20003 		movw	r3, #:lower16:lwip_stats
 352 00b0 C0F20003 		movt	r3, #:upper16:lwip_stats
 353 00b4 A3F8A420 		strh	r2, [r3, #164]	@ movhi
 354              		.loc 1 185 0
 355 00b8 0498     		ldr	r0, [sp, #16]
 356 00ba FFF7FEFF 		bl	tcp_seg_free
 357              		.loc 1 186 0
 358 00be 4FF00003 		mov	r3, #0
 359 00c2 3DE0     		b	.L15
 360              	.L16:
 361              		.loc 1 188 0
 362 00c4 049B     		ldr	r3, [sp, #16]
 363 00c6 5B68     		ldr	r3, [r3, #4]
 364 00c8 5A68     		ldr	r2, [r3, #4]
 365 00ca 049B     		ldr	r3, [sp, #16]
 366 00cc DA60     		str	r2, [r3, #12]
 367              		.loc 1 189 0
 368 00ce 049B     		ldr	r3, [sp, #16]
 369 00d0 DC68     		ldr	r4, [r3, #12]
 370 00d2 039B     		ldr	r3, [sp, #12]
 371 00d4 9B8B     		ldrh	r3, [r3, #28]
 372 00d6 1846     		mov	r0, r3
 373 00d8 FFF7FEFF 		bl	lwip_htons
 374 00dc 0346     		mov	r3, r0
 375 00de 2380     		strh	r3, [r4, #0]	@ unaligned
 376              		.loc 1 190 0
 377 00e0 049B     		ldr	r3, [sp, #16]
 378 00e2 DC68     		ldr	r4, [r3, #12]
 379 00e4 039B     		ldr	r3, [sp, #12]
 380 00e6 DB8B     		ldrh	r3, [r3, #30]
 381 00e8 1846     		mov	r0, r3
 382 00ea FFF7FEFF 		bl	lwip_htons
 383 00ee 0346     		mov	r3, r0
 384 00f0 6380     		strh	r3, [r4, #2]	@ unaligned
 385              		.loc 1 191 0
 386 00f2 049B     		ldr	r3, [sp, #16]
 387 00f4 DC68     		ldr	r4, [r3, #12]
 388 00f6 0098     		ldr	r0, [sp, #0]
 389 00f8 FFF7FEFF 		bl	lwip_htonl
 390 00fc 0346     		mov	r3, r0
 391 00fe 6360     		str	r3, [r4, #4]	@ unaligned
 392              		.loc 1 193 0
 393 0100 049B     		ldr	r3, [sp, #16]
ARM GAS  /tmp/ccKKWSFE.s 			page 8


 394 0102 DC68     		ldr	r4, [r3, #12]
 395 0104 9DF81730 		ldrb	r3, [sp, #23]	@ zero_extendqisi2
 396 0108 4FEA9303 		lsr	r3, r3, #2
 397 010c DBB2     		uxtb	r3, r3
 398 010e 03F10503 		add	r3, r3, #5
 399 0112 4FEA0333 		lsl	r3, r3, #12
 400 0116 9AB2     		uxth	r2, r3
 401 0118 9DF80730 		ldrb	r3, [sp, #7]	@ zero_extendqisi2
 402 011c 9BB2     		uxth	r3, r3
 403 011e 1343     		orrs	r3, r3, r2
 404 0120 9BB2     		uxth	r3, r3
 405 0122 9BB2     		uxth	r3, r3
 406 0124 1846     		mov	r0, r3
 407 0126 FFF7FEFF 		bl	lwip_htons
 408 012a 0346     		mov	r3, r0
 409 012c A381     		strh	r3, [r4, #12]	@ unaligned
 410              		.loc 1 195 0
 411 012e 049B     		ldr	r3, [sp, #16]
 412 0130 DB68     		ldr	r3, [r3, #12]
 413 0132 4FF00002 		mov	r2, #0
 414 0136 9A74     		strb	r2, [r3, #18]
 415 0138 4FF00002 		mov	r2, #0
 416 013c DA74     		strb	r2, [r3, #19]
 417              		.loc 1 196 0
 418 013e 049B     		ldr	r3, [sp, #16]
 419              	.L15:
 420              		.loc 1 197 0
 421 0140 1846     		mov	r0, r3
 422 0142 06B0     		add	sp, sp, #24
 423 0144 10BD     		pop	{r4, pc}
 424              		.cfi_endproc
 425              	.LFE9:
 426              		.size	tcp_create_segment, .-tcp_create_segment
 427 0146 00BFAFF3 		.section	.text.tcp_pbuf_prealloc,"ax",%progbits
 427      0080AFF3 
 427      0080
 428              		.align	2
 429              		.p2align 4,,15
 430              		.thumb
 431              		.thumb_func
 432              		.type	tcp_pbuf_prealloc, %function
 433              	tcp_pbuf_prealloc:
 434              	.LFB10:
 435              		.loc 1 219 0
 436              		.cfi_startproc
 437              		@ args = 12, pretend = 0, frame = 24
 438              		@ frame_needed = 0, uses_anonymous_args = 0
 439 0000 00B5     		push	{lr}
 440              	.LCFI6:
 441              		.cfi_def_cfa_offset 4
 442              		.cfi_offset 14, -4
 443 0002 87B0     		sub	sp, sp, #28
 444              	.LCFI7:
 445              		.cfi_def_cfa_offset 32
 446 0004 0193     		str	r3, [sp, #4]
 447 0006 0346     		mov	r3, r0
 448 0008 8DF80F30 		strb	r3, [sp, #15]
ARM GAS  /tmp/ccKKWSFE.s 			page 9


 449 000c 0B46     		mov	r3, r1	@ movhi
 450 000e ADF80C30 		strh	r3, [sp, #12]	@ movhi
 451 0012 1346     		mov	r3, r2	@ movhi
 452 0014 ADF80A30 		strh	r3, [sp, #10]	@ movhi
 453              		.loc 1 221 0
 454 0018 BDF80C30 		ldrh	r3, [sp, #12]	@ movhi
 455 001c ADF81630 		strh	r3, [sp, #22]	@ movhi
 456              		.loc 1 231 0
 457 0020 BDF80C20 		ldrh	r2, [sp, #12]
 458 0024 BDF80A30 		ldrh	r3, [sp, #10]
 459 0028 9A42     		cmp	r2, r3
 460 002a 27D2     		bcs	.L18
 461              		.loc 1 243 0
 462 002c 9DF82430 		ldrb	r3, [sp, #36]	@ zero_extendqisi2
 463 0030 03F00203 		and	r3, r3, #2
 464 0034 002B     		cmp	r3, #0
 465 0036 12D1     		bne	.L19
 466              		.loc 1 244 0 discriminator 1
 467 0038 089B     		ldr	r3, [sp, #32]
 468 003a 93F82030 		ldrb	r3, [r3, #32]	@ zero_extendqisi2
 469 003e 03F04003 		and	r3, r3, #64
 470              		.loc 1 243 0 discriminator 1
 471 0042 002B     		cmp	r3, #0
 472 0044 1AD1     		bne	.L18
 473              		.loc 1 244 0
 474 0046 9DF82830 		ldrb	r3, [sp, #40]	@ zero_extendqisi2
 475 004a 002B     		cmp	r3, #0
 476 004c 07D0     		beq	.L19
 477              		.loc 1 246 0
 478 004e 089B     		ldr	r3, [sp, #32]
 479 0050 5B6F     		ldr	r3, [r3, #116]
 480              		.loc 1 245 0
 481 0052 002B     		cmp	r3, #0
 482 0054 03D1     		bne	.L19
 483              		.loc 1 247 0
 484 0056 089B     		ldr	r3, [sp, #32]
 485 0058 9B6F     		ldr	r3, [r3, #120]
 486              		.loc 1 246 0
 487 005a 002B     		cmp	r3, #0
 488 005c 0ED0     		beq	.L18
 489              	.L19:
 490              		.loc 1 248 0
 491 005e BDF80C30 		ldrh	r3, [sp, #12]
 492 0062 03F50673 		add	r3, r3, #536
 493 0066 03F10303 		add	r3, r3, #3
 494 006a 23F00302 		bic	r2, r3, #3
 495 006e BDF80A30 		ldrh	r3, [sp, #10]
 496 0072 9A42     		cmp	r2, r3
 497 0074 B8BF     		it	lt
 498 0076 1346     		movlt	r3, r2
 499 0078 ADF81630 		strh	r3, [sp, #22]	@ movhi
 500              	.L18:
 501              		.loc 1 252 0
 502 007c 9DF80F20 		ldrb	r2, [sp, #15]	@ zero_extendqisi2
 503 0080 BDF81630 		ldrh	r3, [sp, #22]
 504 0084 1046     		mov	r0, r2
 505 0086 1946     		mov	r1, r3
ARM GAS  /tmp/ccKKWSFE.s 			page 10


 506 0088 4FF00002 		mov	r2, #0
 507 008c FFF7FEFF 		bl	pbuf_alloc
 508 0090 0346     		mov	r3, r0
 509 0092 0493     		str	r3, [sp, #16]
 510              		.loc 1 253 0
 511 0094 049B     		ldr	r3, [sp, #16]
 512 0096 002B     		cmp	r3, #0
 513 0098 02D1     		bne	.L20
 514              		.loc 1 254 0
 515 009a 4FF00003 		mov	r3, #0
 516 009e 16E0     		b	.L21
 517              	.L20:
 518              		.loc 1 256 0
 519 00a0 049B     		ldr	r3, [sp, #16]
 520 00a2 1B68     		ldr	r3, [r3, #0]
 521 00a4 002B     		cmp	r3, #0
 522 00a6 01D0     		beq	.L22
 523              		.loc 1 256 0 is_stmt 0 discriminator 1
 524 00a8 FFF7FEFF 		bl	port_halt
 525              	.L22:
 526              		.loc 1 257 0 is_stmt 1
 527 00ac 049B     		ldr	r3, [sp, #16]
 528 00ae 5A89     		ldrh	r2, [r3, #10]
 529 00b0 BDF80C30 		ldrh	r3, [sp, #12]	@ movhi
 530 00b4 D31A     		subs	r3, r2, r3
 531 00b6 9AB2     		uxth	r2, r3
 532 00b8 019B     		ldr	r3, [sp, #4]
 533 00ba 1A80     		strh	r2, [r3, #0]	@ movhi
 534              		.loc 1 259 0
 535 00bc 049B     		ldr	r3, [sp, #16]
 536 00be BDF80C20 		ldrh	r2, [sp, #12]	@ movhi
 537 00c2 1A81     		strh	r2, [r3, #8]	@ movhi
 538 00c4 049B     		ldr	r3, [sp, #16]
 539 00c6 1A89     		ldrh	r2, [r3, #8]
 540 00c8 049B     		ldr	r3, [sp, #16]
 541 00ca 5A81     		strh	r2, [r3, #10]	@ movhi
 542              		.loc 1 260 0
 543 00cc 049B     		ldr	r3, [sp, #16]
 544              	.L21:
 545              		.loc 1 261 0
 546 00ce 1846     		mov	r0, r3
 547 00d0 07B0     		add	sp, sp, #28
 548 00d2 00BD     		pop	{pc}
 549              		.cfi_endproc
 550              	.LFE10:
 551              		.size	tcp_pbuf_prealloc, .-tcp_pbuf_prealloc
 552 00d4 AFF30080 		.section	.text.tcp_write_checks,"ax",%progbits
 552      AFF30080 
 552      AFF30080 
 553              		.align	2
 554              		.p2align 4,,15
 555              		.thumb
 556              		.thumb_func
 557              		.type	tcp_write_checks, %function
 558              	tcp_write_checks:
 559              	.LFB11:
 560              		.loc 1 292 0
ARM GAS  /tmp/ccKKWSFE.s 			page 11


 561              		.cfi_startproc
 562              		@ args = 0, pretend = 0, frame = 8
 563              		@ frame_needed = 0, uses_anonymous_args = 0
 564 0000 00B5     		push	{lr}
 565              	.LCFI8:
 566              		.cfi_def_cfa_offset 4
 567              		.cfi_offset 14, -4
 568 0002 83B0     		sub	sp, sp, #12
 569              	.LCFI9:
 570              		.cfi_def_cfa_offset 16
 571 0004 0190     		str	r0, [sp, #4]
 572 0006 0B46     		mov	r3, r1
 573 0008 ADF80230 		strh	r3, [sp, #2]	@ movhi
 574              		.loc 1 294 0
 575 000c 019B     		ldr	r3, [sp, #4]
 576 000e 1B7C     		ldrb	r3, [r3, #16]	@ zero_extendqisi2
 577 0010 042B     		cmp	r3, #4
 578 0012 0ED0     		beq	.L24
 579              		.loc 1 295 0 discriminator 1
 580 0014 019B     		ldr	r3, [sp, #4]
 581 0016 1B7C     		ldrb	r3, [r3, #16]	@ zero_extendqisi2
 582              		.loc 1 294 0 discriminator 1
 583 0018 072B     		cmp	r3, #7
 584 001a 0AD0     		beq	.L24
 585              		.loc 1 296 0
 586 001c 019B     		ldr	r3, [sp, #4]
 587 001e 1B7C     		ldrb	r3, [r3, #16]	@ zero_extendqisi2
 588              		.loc 1 295 0
 589 0020 022B     		cmp	r3, #2
 590 0022 06D0     		beq	.L24
 591              		.loc 1 297 0
 592 0024 019B     		ldr	r3, [sp, #4]
 593 0026 1B7C     		ldrb	r3, [r3, #16]	@ zero_extendqisi2
 594              		.loc 1 296 0
 595 0028 032B     		cmp	r3, #3
 596 002a 02D0     		beq	.L24
 597              		.loc 1 299 0
 598 002c 4FF0F303 		mov	r3, #243
 599 0030 5CE0     		b	.L25
 600              	.L24:
 601              		.loc 1 300 0
 602 0032 BDF80230 		ldrh	r3, [sp, #2]
 603 0036 002B     		cmp	r3, #0
 604 0038 02D1     		bne	.L26
 605              		.loc 1 301 0
 606 003a 4FF00003 		mov	r3, #0
 607 003e 55E0     		b	.L25
 608              	.L26:
 609              		.loc 1 305 0
 610 0040 019B     		ldr	r3, [sp, #4]
 611 0042 B3F86E30 		ldrh	r3, [r3, #110]
 612 0046 BDF80220 		ldrh	r2, [sp, #2]
 613 004a 9A42     		cmp	r2, r3
 614 004c 0BD9     		bls	.L27
 615              		.loc 1 308 0
 616 004e 019B     		ldr	r3, [sp, #4]
 617 0050 93F82030 		ldrb	r3, [r3, #32]	@ zero_extendqisi2
ARM GAS  /tmp/ccKKWSFE.s 			page 12


 618 0054 63F07F03 		orn	r3, r3, #127
 619 0058 DAB2     		uxtb	r2, r3
 620 005a 019B     		ldr	r3, [sp, #4]
 621 005c 83F82020 		strb	r2, [r3, #32]
 622              		.loc 1 309 0
 623 0060 4FF0FF03 		mov	r3, #255
 624 0064 42E0     		b	.L25
 625              	.L27:
 626              		.loc 1 317 0
 627 0066 019B     		ldr	r3, [sp, #4]
 628 0068 B3F87030 		ldrh	r3, [r3, #112]
 629 006c 012B     		cmp	r3, #1
 630 006e 06D8     		bhi	.L28
 631              		.loc 1 317 0 is_stmt 0 discriminator 1
 632 0070 019B     		ldr	r3, [sp, #4]
 633 0072 B3F87020 		ldrh	r2, [r3, #112]
 634 0076 4FF6FC73 		movw	r3, #65532
 635 007a 9A42     		cmp	r2, r3
 636 007c 1AD9     		bls	.L29
 637              	.L28:
 638              		.loc 1 320 0 is_stmt 1
 639 007e 40F20003 		movw	r3, #:lower16:lwip_stats
 640 0082 C0F20003 		movt	r3, #:upper16:lwip_stats
 641 0086 B3F89C30 		ldrh	r3, [r3, #156]
 642 008a 03F10103 		add	r3, r3, #1
 643 008e 9AB2     		uxth	r2, r3
 644 0090 40F20003 		movw	r3, #:lower16:lwip_stats
 645 0094 C0F20003 		movt	r3, #:upper16:lwip_stats
 646 0098 A3F89C20 		strh	r2, [r3, #156]	@ movhi
 647              		.loc 1 321 0
 648 009c 019B     		ldr	r3, [sp, #4]
 649 009e 93F82030 		ldrb	r3, [r3, #32]	@ zero_extendqisi2
 650 00a2 63F07F03 		orn	r3, r3, #127
 651 00a6 DAB2     		uxtb	r2, r3
 652 00a8 019B     		ldr	r3, [sp, #4]
 653 00aa 83F82020 		strb	r2, [r3, #32]
 654              		.loc 1 322 0
 655 00ae 4FF0FF03 		mov	r3, #255
 656 00b2 1BE0     		b	.L25
 657              	.L29:
 658              		.loc 1 324 0
 659 00b4 019B     		ldr	r3, [sp, #4]
 660 00b6 B3F87030 		ldrh	r3, [r3, #112]
 661 00ba 002B     		cmp	r3, #0
 662 00bc 0AD0     		beq	.L30
 663              		.loc 1 325 0
 664 00be 019B     		ldr	r3, [sp, #4]
 665 00c0 9B6F     		ldr	r3, [r3, #120]
 666 00c2 002B     		cmp	r3, #0
 667 00c4 10D1     		bne	.L31
 668              		.loc 1 325 0 is_stmt 0 discriminator 1
 669 00c6 019B     		ldr	r3, [sp, #4]
 670 00c8 5B6F     		ldr	r3, [r3, #116]
 671 00ca 002B     		cmp	r3, #0
 672 00cc 0CD1     		bne	.L31
 673              		.loc 1 325 0 discriminator 2
 674 00ce FFF7FEFF 		bl	port_halt
ARM GAS  /tmp/ccKKWSFE.s 			page 13


 675 00d2 09E0     		b	.L31
 676              	.L30:
 677              		.loc 1 328 0 is_stmt 1
 678 00d4 019B     		ldr	r3, [sp, #4]
 679 00d6 9B6F     		ldr	r3, [r3, #120]
 680 00d8 002B     		cmp	r3, #0
 681 00da 03D1     		bne	.L32
 682              		.loc 1 328 0 is_stmt 0 discriminator 2
 683 00dc 019B     		ldr	r3, [sp, #4]
 684 00de 5B6F     		ldr	r3, [r3, #116]
 685 00e0 002B     		cmp	r3, #0
 686 00e2 01D0     		beq	.L31
 687              	.L32:
 688              		.loc 1 328 0 discriminator 1
 689 00e4 FFF7FEFF 		bl	port_halt
 690              	.L31:
 691              		.loc 1 331 0 is_stmt 1
 692 00e8 4FF00003 		mov	r3, #0
 693              	.L25:
 694 00ec 5BB2     		sxtb	r3, r3
 695              		.loc 1 332 0
 696 00ee 1846     		mov	r0, r3
 697 00f0 03B0     		add	sp, sp, #12
 698 00f2 00BD     		pop	{pc}
 699              		.cfi_endproc
 700              	.LFE11:
 701              		.size	tcp_write_checks, .-tcp_write_checks
 702 00f4 AFF30080 		.section	.text.tcp_write,"ax",%progbits
 702      AFF30080 
 702      AFF30080 
 703              		.align	2
 704              		.p2align 4,,15
 705              		.global	tcp_write
 706              		.thumb
 707              		.thumb_func
 708              		.type	tcp_write, %function
 709              	tcp_write:
 710              	.LFB12:
 711              		.loc 1 352 0
 712              		.cfi_startproc
 713              		@ args = 0, pretend = 0, frame = 80
 714              		@ frame_needed = 0, uses_anonymous_args = 0
 715 0000 30B5     		push	{r4, r5, lr}
 716              	.LCFI10:
 717              		.cfi_def_cfa_offset 12
 718              		.cfi_offset 14, -4
 719              		.cfi_offset 5, -8
 720              		.cfi_offset 4, -12
 721 0002 99B0     		sub	sp, sp, #100
 722              	.LCFI11:
 723              		.cfi_def_cfa_offset 112
 724 0004 0790     		str	r0, [sp, #28]
 725 0006 0691     		str	r1, [sp, #24]
 726 0008 ADF81620 		strh	r2, [sp, #22]	@ movhi
 727 000c 8DF81530 		strb	r3, [sp, #21]
 728              		.loc 1 353 0
 729 0010 4FF00003 		mov	r3, #0
ARM GAS  /tmp/ccKKWSFE.s 			page 14


 730 0014 1793     		str	r3, [sp, #92]
 731              		.loc 1 354 0
 732 0016 4FF00003 		mov	r3, #0
 733 001a 1693     		str	r3, [sp, #88]
 734 001c 4FF00003 		mov	r3, #0
 735 0020 1593     		str	r3, [sp, #84]
 736 0022 4FF00003 		mov	r3, #0
 737 0026 1493     		str	r3, [sp, #80]
 738 0028 4FF00003 		mov	r3, #0
 739 002c 1393     		str	r3, [sp, #76]
 740              		.loc 1 355 0
 741 002e 4FF00003 		mov	r3, #0
 742 0032 ADF84A30 		strh	r3, [sp, #74]	@ movhi
 743              		.loc 1 357 0
 744 0036 4FF00003 		mov	r3, #0
 745 003a 8DF83B30 		strb	r3, [sp, #59]
 746              		.loc 1 358 0
 747 003e 4FF00003 		mov	r3, #0
 748 0042 8DF83A30 		strb	r3, [sp, #58]
 749              		.loc 1 360 0
 750 0046 4FF00003 		mov	r3, #0
 751 004a ADF82630 		strh	r3, [sp, #38]	@ movhi
 752              		.loc 1 361 0
 753 004e 4FF00003 		mov	r3, #0
 754 0052 ADF84630 		strh	r3, [sp, #70]	@ movhi
 755              		.loc 1 377 0
 756 0056 069B     		ldr	r3, [sp, #24]
 757 0058 002B     		cmp	r3, #0
 758 005a 04D1     		bne	.L34
 759              		.loc 1 377 0 is_stmt 0 discriminator 1
 760 005c FFF7FEFF 		bl	port_halt
 761 0060 4FF0F203 		mov	r3, #242
 762 0064 B5E2     		b	.L35
 763              	.L34:
 764              		.loc 1 380 0 is_stmt 1
 765 0066 BDF81630 		ldrh	r3, [sp, #22]
 766 006a 0798     		ldr	r0, [sp, #28]
 767 006c 1946     		mov	r1, r3
 768 006e FFF7FEFF 		bl	tcp_write_checks
 769 0072 0346     		mov	r3, r0
 770 0074 8DF83930 		strb	r3, [sp, #57]
 771              		.loc 1 381 0
 772 0078 9DF93930 		ldrsb	r3, [sp, #57]
 773 007c 002B     		cmp	r3, #0
 774 007e 02D0     		beq	.L36
 775              		.loc 1 382 0
 776 0080 9DF83930 		ldrb	r3, [sp, #57]	@ zero_extendqisi2
 777 0084 A5E2     		b	.L35
 778              	.L36:
 779              		.loc 1 384 0
 780 0086 079B     		ldr	r3, [sp, #28]
 781 0088 B3F87030 		ldrh	r3, [r3, #112]	@ movhi
 782 008c ADF84830 		strh	r3, [sp, #72]	@ movhi
 783              		.loc 1 417 0
 784 0090 079B     		ldr	r3, [sp, #28]
 785 0092 5B6F     		ldr	r3, [r3, #116]
 786 0094 002B     		cmp	r3, #0
ARM GAS  /tmp/ccKKWSFE.s 			page 15


 787 0096 00F0E180 		beq	.L37
 788              	.LBB3:
 789              		.loc 1 422 0
 790 009a 079B     		ldr	r3, [sp, #28]
 791 009c 5B6F     		ldr	r3, [r3, #116]
 792 009e 1693     		str	r3, [sp, #88]
 793 00a0 02E0     		b	.L38
 794              	.L39:
 795              		.loc 1 423 0
 796 00a2 169B     		ldr	r3, [sp, #88]
 797 00a4 1B68     		ldr	r3, [r3, #0]
 798 00a6 1693     		str	r3, [sp, #88]
 799              	.L38:
 800              		.loc 1 422 0 discriminator 1
 801 00a8 169B     		ldr	r3, [sp, #88]
 802 00aa 1B68     		ldr	r3, [r3, #0]
 803 00ac 002B     		cmp	r3, #0
 804 00ae F8D1     		bne	.L39
 805              		.loc 1 426 0
 806 00b0 169B     		ldr	r3, [sp, #88]
 807 00b2 9B7A     		ldrb	r3, [r3, #10]	@ zero_extendqisi2
 808 00b4 03F00103 		and	r3, r3, #1
 809 00b8 DBB2     		uxtb	r3, r3
 810 00ba 002B     		cmp	r3, #0
 811 00bc 02D0     		beq	.L40
 812              		.loc 1 426 0 is_stmt 0 discriminator 1
 813 00be 4FF00402 		mov	r2, #4
 814 00c2 01E0     		b	.L41
 815              	.L40:
 816              		.loc 1 426 0 discriminator 2
 817 00c4 4FF00002 		mov	r2, #0
 818              	.L41:
 819              		.loc 1 426 0 discriminator 3
 820 00c8 169B     		ldr	r3, [sp, #88]
 821 00ca 9B7A     		ldrb	r3, [r3, #10]	@ zero_extendqisi2
 822 00cc 03F00203 		and	r3, r3, #2
 823 00d0 002B     		cmp	r3, #0
 824 00d2 02D0     		beq	.L42
 825              		.loc 1 426 0 discriminator 4
 826 00d4 4FF00C03 		mov	r3, #12
 827 00d8 01E0     		b	.L43
 828              	.L42:
 829              		.loc 1 426 0 discriminator 5
 830 00da 4FF00003 		mov	r3, #0
 831              	.L43:
 832              		.loc 1 426 0 discriminator 6
 833 00de D318     		adds	r3, r2, r3
 834 00e0 ADF83630 		strh	r3, [sp, #54]	@ movhi
 835              		.loc 1 427 0 is_stmt 1 discriminator 6
 836 00e4 079B     		ldr	r3, [sp, #28]
 837 00e6 1A8F     		ldrh	r2, [r3, #56]
 838 00e8 169B     		ldr	r3, [sp, #88]
 839 00ea 1989     		ldrh	r1, [r3, #8]
 840 00ec BDF83630 		ldrh	r3, [sp, #54]	@ movhi
 841 00f0 CB18     		adds	r3, r1, r3
 842 00f2 9BB2     		uxth	r3, r3
 843 00f4 D31A     		subs	r3, r2, r3
ARM GAS  /tmp/ccKKWSFE.s 			page 16


 844 00f6 ADF84430 		strh	r3, [sp, #68]	@ movhi
 845              		.loc 1 442 0 discriminator 6
 846 00fa 079B     		ldr	r3, [sp, #28]
 847 00fc B3F87230 		ldrh	r3, [r3, #114]
 848 0100 ADF82630 		strh	r3, [sp, #38]	@ movhi
 849              		.loc 1 443 0 discriminator 6
 850 0104 BDF82630 		ldrh	r3, [sp, #38]
 851 0108 002B     		cmp	r3, #0
 852 010a 28D0     		beq	.L44
 853              		.loc 1 444 0
 854 010c BDF84620 		ldrh	r2, [sp, #70]
 855 0110 BDF84430 		ldrh	r3, [sp, #68]
 856 0114 9A42     		cmp	r2, r3
 857 0116 01D9     		bls	.L45
 858              		.loc 1 444 0 is_stmt 0 discriminator 1
 859 0118 FFF7FEFF 		bl	port_halt
 860              	.L45:
 861              		.loc 1 445 0 is_stmt 1
 862 011c 169B     		ldr	r3, [sp, #88]
 863 011e 1593     		str	r3, [sp, #84]
 864              		.loc 1 446 0
 865 0120 BDF82630 		ldrh	r3, [sp, #38]
 866 0124 BDF81620 		ldrh	r2, [sp, #22]
 867 0128 9A42     		cmp	r2, r3
 868 012a 38BF     		it	cc
 869 012c 1346     		movcc	r3, r2
 870 012e ADF84630 		strh	r3, [sp, #70]	@ movhi
 871              		.loc 1 447 0
 872 0132 BDF84A20 		ldrh	r2, [sp, #74]	@ movhi
 873 0136 BDF84630 		ldrh	r3, [sp, #70]	@ movhi
 874 013a D318     		adds	r3, r2, r3
 875 013c ADF84A30 		strh	r3, [sp, #74]	@ movhi
 876              		.loc 1 448 0
 877 0140 BDF82620 		ldrh	r2, [sp, #38]
 878 0144 BDF84630 		ldrh	r3, [sp, #70]	@ movhi
 879 0148 D31A     		subs	r3, r2, r3
 880 014a 9BB2     		uxth	r3, r3
 881 014c ADF82630 		strh	r3, [sp, #38]	@ movhi
 882              		.loc 1 449 0
 883 0150 BDF84420 		ldrh	r2, [sp, #68]	@ movhi
 884 0154 BDF84630 		ldrh	r3, [sp, #70]	@ movhi
 885 0158 D31A     		subs	r3, r2, r3
 886 015a ADF84430 		strh	r3, [sp, #68]	@ movhi
 887              	.L44:
 888              		.loc 1 452 0
 889 015e BDF82630 		ldrh	r3, [sp, #38]
 890 0162 002B     		cmp	r3, #0
 891 0164 07D0     		beq	.L46
 892              		.loc 1 452 0 is_stmt 0 discriminator 1
 893 0166 BDF84A20 		ldrh	r2, [sp, #74]
 894 016a BDF81630 		ldrh	r3, [sp, #22]
 895 016e 9A42     		cmp	r2, r3
 896 0170 01D0     		beq	.L46
 897              		.loc 1 452 0 discriminator 2
 898 0172 FFF7FEFF 		bl	port_halt
 899              	.L46:
 900              		.loc 1 462 0 is_stmt 1
ARM GAS  /tmp/ccKKWSFE.s 			page 17


 901 0176 BDF84A20 		ldrh	r2, [sp, #74]
 902 017a BDF81630 		ldrh	r3, [sp, #22]
 903 017e 9A42     		cmp	r2, r3
 904 0180 80F04381 		bcs	.L53
 905              		.loc 1 462 0 is_stmt 0 discriminator 1
 906 0184 BDF84430 		ldrh	r3, [sp, #68]
 907 0188 002B     		cmp	r3, #0
 908 018a 00F03E81 		beq	.L53
 909 018e 169B     		ldr	r3, [sp, #88]
 910 0190 1B89     		ldrh	r3, [r3, #8]
 911 0192 002B     		cmp	r3, #0
 912 0194 00F03981 		beq	.L53
 913              	.LBB4:
 914              		.loc 1 463 0 is_stmt 1
 915 0198 BDF81620 		ldrh	r2, [sp, #22]
 916 019c BDF84A30 		ldrh	r3, [sp, #74]
 917 01a0 D21A     		subs	r2, r2, r3
 918 01a2 BDF84430 		ldrh	r3, [sp, #68]
 919 01a6 9A42     		cmp	r2, r3
 920 01a8 B8BF     		it	lt
 921 01aa 1346     		movlt	r3, r2
 922 01ac ADF83430 		strh	r3, [sp, #52]	@ movhi
 923              		.loc 1 464 0
 924 01b0 169B     		ldr	r3, [sp, #88]
 925 01b2 1593     		str	r3, [sp, #84]
 926              		.loc 1 469 0
 927 01b4 9DF81530 		ldrb	r3, [sp, #21]	@ zero_extendqisi2
 928 01b8 03F00103 		and	r3, r3, #1
 929 01bc DBB2     		uxtb	r3, r3
 930 01be 002B     		cmp	r3, #0
 931 01c0 25D0     		beq	.L48
 932              		.loc 1 471 0
 933 01c2 BDF83410 		ldrh	r1, [sp, #52]
 934 01c6 BDF84420 		ldrh	r2, [sp, #68]
 935 01ca 0DF12603 		add	r3, sp, #38
 936 01ce 0798     		ldr	r0, [sp, #28]
 937 01d0 0090     		str	r0, [sp, #0]
 938 01d2 9DF81500 		ldrb	r0, [sp, #21]	@ zero_extendqisi2
 939 01d6 0190     		str	r0, [sp, #4]
 940 01d8 4FF00100 		mov	r0, #1
 941 01dc 0290     		str	r0, [sp, #8]
 942 01de 4FF00300 		mov	r0, #3
 943 01e2 FFF7FEFF 		bl	tcp_pbuf_prealloc
 944 01e6 0346     		mov	r3, r0
 945 01e8 1793     		str	r3, [sp, #92]
 946 01ea 179B     		ldr	r3, [sp, #92]
 947 01ec 002B     		cmp	r3, #0
 948 01ee 00F0B281 		beq	.L81
 949              	.L49:
 950              		.loc 1 480 0
 951 01f2 179B     		ldr	r3, [sp, #92]
 952 01f4 5968     		ldr	r1, [r3, #4]
 953 01f6 BDF84A30 		ldrh	r3, [sp, #74]
 954 01fa 069A     		ldr	r2, [sp, #24]
 955 01fc D218     		adds	r2, r2, r3
 956 01fe BDF83430 		ldrh	r3, [sp, #52]
 957 0202 0846     		mov	r0, r1
ARM GAS  /tmp/ccKKWSFE.s 			page 18


 958 0204 1146     		mov	r1, r2
 959 0206 1A46     		mov	r2, r3
 960 0208 FFF7FEFF 		bl	memcpy
 961 020c 14E0     		b	.L51
 962              	.L48:
 963              		.loc 1 486 0
 964 020e BDF83430 		ldrh	r3, [sp, #52]
 965 0212 4FF00300 		mov	r0, #3
 966 0216 1946     		mov	r1, r3
 967 0218 4FF00102 		mov	r2, #1
 968 021c FFF7FEFF 		bl	pbuf_alloc
 969 0220 0346     		mov	r3, r0
 970 0222 1793     		str	r3, [sp, #92]
 971 0224 179B     		ldr	r3, [sp, #92]
 972 0226 002B     		cmp	r3, #0
 973 0228 00F09781 		beq	.L82
 974              	.L52:
 975              		.loc 1 498 0
 976 022c BDF84A30 		ldrh	r3, [sp, #74]
 977 0230 069A     		ldr	r2, [sp, #24]
 978 0232 D218     		adds	r2, r2, r3
 979 0234 179B     		ldr	r3, [sp, #92]
 980 0236 5A60     		str	r2, [r3, #4]
 981              	.L51:
 982              		.loc 1 501 0
 983 0238 BDF84A20 		ldrh	r2, [sp, #74]	@ movhi
 984 023c BDF83430 		ldrh	r3, [sp, #52]	@ movhi
 985 0240 D318     		adds	r3, r2, r3
 986 0242 ADF84A30 		strh	r3, [sp, #74]	@ movhi
 987              		.loc 1 502 0
 988 0246 1798     		ldr	r0, [sp, #92]
 989 0248 FFF7FEFF 		bl	pbuf_clen
 990 024c 0346     		mov	r3, r0
 991 024e 1A46     		mov	r2, r3
 992 0250 BDF84830 		ldrh	r3, [sp, #72]	@ movhi
 993 0254 D318     		adds	r3, r2, r3
 994 0256 ADF84830 		strh	r3, [sp, #72]	@ movhi
 995              	.LBE4:
 996              	.LBE3:
 997              		.loc 1 517 0
 998 025a D6E0     		b	.L53
 999              	.L37:
 1000              		.loc 1 506 0
 1001 025c 079B     		ldr	r3, [sp, #28]
 1002 025e B3F87230 		ldrh	r3, [r3, #114]
 1003 0262 002B     		cmp	r3, #0
 1004 0264 00F0D180 		beq	.L53
 1005              		.loc 1 506 0 is_stmt 0 discriminator 1
 1006 0268 FFF7FEFF 		bl	port_halt
 1007              		.loc 1 517 0 is_stmt 1 discriminator 1
 1008 026c CDE0     		b	.L53
 1009              	.L67:
 1010              	.LBB6:
 1011              		.loc 1 519 0
 1012 026e BDF81620 		ldrh	r2, [sp, #22]	@ movhi
 1013 0272 BDF84A30 		ldrh	r3, [sp, #74]	@ movhi
 1014 0276 D31A     		subs	r3, r2, r3
ARM GAS  /tmp/ccKKWSFE.s 			page 19


 1015 0278 ADF83230 		strh	r3, [sp, #50]	@ movhi
 1016              		.loc 1 520 0
 1017 027c 079B     		ldr	r3, [sp, #28]
 1018 027e 1A8F     		ldrh	r2, [r3, #56]
 1019 0280 9DF83B30 		ldrb	r3, [sp, #59]	@ zero_extendqisi2
 1020 0284 9BB2     		uxth	r3, r3
 1021 0286 D31A     		subs	r3, r2, r3
 1022 0288 ADF83030 		strh	r3, [sp, #48]	@ movhi
 1023              		.loc 1 521 0
 1024 028c BDF83220 		ldrh	r2, [sp, #50]
 1025 0290 BDF83030 		ldrh	r3, [sp, #48]
 1026 0294 9A42     		cmp	r2, r3
 1027 0296 38BF     		it	cc
 1028 0298 1346     		movcc	r3, r2
 1029 029a ADF82E30 		strh	r3, [sp, #46]	@ movhi
 1030              		.loc 1 527 0
 1031 029e 9DF81530 		ldrb	r3, [sp, #21]	@ zero_extendqisi2
 1032 02a2 03F00103 		and	r3, r3, #1
 1033 02a6 DBB2     		uxtb	r3, r3
 1034 02a8 002B     		cmp	r3, #0
 1035 02aa 39D0     		beq	.L54
 1036              		.loc 1 530 0
 1037 02ac 9DF83B30 		ldrb	r3, [sp, #59]	@ zero_extendqisi2
 1038 02b0 9AB2     		uxth	r2, r3
 1039 02b2 BDF82E30 		ldrh	r3, [sp, #46]	@ movhi
 1040 02b6 D318     		adds	r3, r2, r3
 1041 02b8 99B2     		uxth	r1, r3
 1042 02ba 079B     		ldr	r3, [sp, #28]
 1043 02bc 1A8F     		ldrh	r2, [r3, #56]
 1044 02be 139B     		ldr	r3, [sp, #76]
 1045 02c0 002B     		cmp	r3, #0
 1046 02c2 14BF     		ite	ne
 1047 02c4 0023     		movne	r3, #0
 1048 02c6 0123     		moveq	r3, #1
 1049 02c8 D8B2     		uxtb	r0, r3
 1050 02ca 0DF12603 		add	r3, sp, #38
 1051 02ce 079C     		ldr	r4, [sp, #28]
 1052 02d0 0094     		str	r4, [sp, #0]
 1053 02d2 9DF81540 		ldrb	r4, [sp, #21]	@ zero_extendqisi2
 1054 02d6 0194     		str	r4, [sp, #4]
 1055 02d8 0290     		str	r0, [sp, #8]
 1056 02da 4FF00000 		mov	r0, #0
 1057 02de FFF7FEFF 		bl	tcp_pbuf_prealloc
 1058 02e2 0346     		mov	r3, r0
 1059 02e4 1093     		str	r3, [sp, #64]
 1060 02e6 109B     		ldr	r3, [sp, #64]
 1061 02e8 002B     		cmp	r3, #0
 1062 02ea 00F03881 		beq	.L83
 1063              	.L55:
 1064              		.loc 1 534 0
 1065 02ee 109B     		ldr	r3, [sp, #64]
 1066 02f0 5B89     		ldrh	r3, [r3, #10]
 1067 02f2 BDF82E20 		ldrh	r2, [sp, #46]
 1068 02f6 9A42     		cmp	r2, r3
 1069 02f8 01D9     		bls	.L56
 1070              		.loc 1 534 0 is_stmt 0 discriminator 1
 1071 02fa FFF7FEFF 		bl	port_halt
ARM GAS  /tmp/ccKKWSFE.s 			page 20


 1072              	.L56:
 1073              		.loc 1 536 0 is_stmt 1
 1074 02fe 109B     		ldr	r3, [sp, #64]
 1075 0300 5A68     		ldr	r2, [r3, #4]
 1076 0302 9DF83B30 		ldrb	r3, [sp, #59]	@ zero_extendqisi2
 1077 0306 D118     		adds	r1, r2, r3
 1078 0308 BDF84A30 		ldrh	r3, [sp, #74]
 1079 030c 069A     		ldr	r2, [sp, #24]
 1080 030e D218     		adds	r2, r2, r3
 1081 0310 BDF82E30 		ldrh	r3, [sp, #46]
 1082 0314 0846     		mov	r0, r1
 1083 0316 1146     		mov	r1, r2
 1084 0318 1A46     		mov	r2, r3
 1085 031a FFF7FEFF 		bl	memcpy
 1086 031e 31E0     		b	.L57
 1087              	.L54:
 1088              	.LBB7:
 1089              		.loc 1 545 0
 1090 0320 BDF82630 		ldrh	r3, [sp, #38]
 1091 0324 002B     		cmp	r3, #0
 1092 0326 01D0     		beq	.L58
 1093              		.loc 1 545 0 is_stmt 0 discriminator 1
 1094 0328 FFF7FEFF 		bl	port_halt
 1095              	.L58:
 1096              		.loc 1 547 0 is_stmt 1
 1097 032c BDF82E30 		ldrh	r3, [sp, #46]
 1098 0330 4FF00000 		mov	r0, #0
 1099 0334 1946     		mov	r1, r3
 1100 0336 4FF00102 		mov	r2, #1
 1101 033a FFF7FEFF 		bl	pbuf_alloc
 1102 033e 0346     		mov	r3, r0
 1103 0340 0A93     		str	r3, [sp, #40]
 1104 0342 0A9B     		ldr	r3, [sp, #40]
 1105 0344 002B     		cmp	r3, #0
 1106 0346 00F00C81 		beq	.L84
 1107              	.L59:
 1108              		.loc 1 556 0
 1109 034a BDF84A30 		ldrh	r3, [sp, #74]
 1110 034e 069A     		ldr	r2, [sp, #24]
 1111 0350 D218     		adds	r2, r2, r3
 1112 0352 0A9B     		ldr	r3, [sp, #40]
 1113 0354 5A60     		str	r2, [r3, #4]
 1114              		.loc 1 559 0
 1115 0356 9DF83B30 		ldrb	r3, [sp, #59]	@ zero_extendqisi2
 1116 035a 9BB2     		uxth	r3, r3
 1117 035c 4FF00000 		mov	r0, #0
 1118 0360 1946     		mov	r1, r3
 1119 0362 4FF00002 		mov	r2, #0
 1120 0366 FFF7FEFF 		bl	pbuf_alloc
 1121 036a 0346     		mov	r3, r0
 1122 036c 1093     		str	r3, [sp, #64]
 1123 036e 109B     		ldr	r3, [sp, #64]
 1124 0370 002B     		cmp	r3, #0
 1125 0372 03D1     		bne	.L60
 1126              		.loc 1 562 0
 1127 0374 0A98     		ldr	r0, [sp, #40]
 1128 0376 FFF7FEFF 		bl	pbuf_free
ARM GAS  /tmp/ccKKWSFE.s 			page 21


 1129              		.loc 1 564 0
 1130 037a F5E0     		b	.L50
 1131              	.L60:
 1132              		.loc 1 567 0
 1133 037c 1098     		ldr	r0, [sp, #64]
 1134 037e 0A99     		ldr	r1, [sp, #40]
 1135 0380 FFF7FEFF 		bl	pbuf_cat
 1136              	.L57:
 1137              	.LBE7:
 1138              		.loc 1 570 0
 1139 0384 1098     		ldr	r0, [sp, #64]
 1140 0386 FFF7FEFF 		bl	pbuf_clen
 1141 038a 0346     		mov	r3, r0
 1142 038c 1A46     		mov	r2, r3
 1143 038e BDF84830 		ldrh	r3, [sp, #72]	@ movhi
 1144 0392 D318     		adds	r3, r2, r3
 1145 0394 ADF84830 		strh	r3, [sp, #72]	@ movhi
 1146              		.loc 1 575 0
 1147 0398 BDF84830 		ldrh	r3, [sp, #72]
 1148 039c 022B     		cmp	r3, #2
 1149 039e 05D8     		bhi	.L61
 1150              		.loc 1 575 0 is_stmt 0 discriminator 1
 1151 03a0 BDF84820 		ldrh	r2, [sp, #72]
 1152 03a4 4FF6FC73 		movw	r3, #65532
 1153 03a8 9A42     		cmp	r2, r3
 1154 03aa 03D9     		bls	.L62
 1155              	.L61:
 1156              		.loc 1 577 0 is_stmt 1
 1157 03ac 1098     		ldr	r0, [sp, #64]
 1158 03ae FFF7FEFF 		bl	pbuf_free
 1159              		.loc 1 578 0
 1160 03b2 D9E0     		b	.L50
 1161              	.L62:
 1162              		.loc 1 581 0
 1163 03b4 079B     		ldr	r3, [sp, #28]
 1164 03b6 9A6E     		ldr	r2, [r3, #104]
 1165 03b8 BDF84A30 		ldrh	r3, [sp, #74]
 1166 03bc D318     		adds	r3, r2, r3
 1167 03be 9DF83A20 		ldrb	r2, [sp, #58]	@ zero_extendqisi2
 1168 03c2 0092     		str	r2, [sp, #0]
 1169 03c4 0798     		ldr	r0, [sp, #28]
 1170 03c6 1099     		ldr	r1, [sp, #64]
 1171 03c8 4FF00002 		mov	r2, #0
 1172 03cc FFF7FEFF 		bl	tcp_create_segment
 1173 03d0 0346     		mov	r3, r0
 1174 03d2 1593     		str	r3, [sp, #84]
 1175 03d4 159B     		ldr	r3, [sp, #84]
 1176 03d6 002B     		cmp	r3, #0
 1177 03d8 00F0C580 		beq	.L85
 1178              	.L63:
 1179              		.loc 1 594 0
 1180 03dc 139B     		ldr	r3, [sp, #76]
 1181 03de 002B     		cmp	r3, #0
 1182 03e0 02D1     		bne	.L64
 1183              		.loc 1 595 0
 1184 03e2 159B     		ldr	r3, [sp, #84]
 1185 03e4 1393     		str	r3, [sp, #76]
ARM GAS  /tmp/ccKKWSFE.s 			page 22


 1186 03e6 07E0     		b	.L65
 1187              	.L64:
 1188              		.loc 1 598 0
 1189 03e8 149B     		ldr	r3, [sp, #80]
 1190 03ea 002B     		cmp	r3, #0
 1191 03ec 01D1     		bne	.L66
 1192              		.loc 1 598 0 is_stmt 0 discriminator 1
 1193 03ee FFF7FEFF 		bl	port_halt
 1194              	.L66:
 1195              		.loc 1 599 0 is_stmt 1
 1196 03f2 149B     		ldr	r3, [sp, #80]
 1197 03f4 159A     		ldr	r2, [sp, #84]
 1198 03f6 1A60     		str	r2, [r3, #0]
 1199              	.L65:
 1200              		.loc 1 602 0
 1201 03f8 159B     		ldr	r3, [sp, #84]
 1202 03fa 1493     		str	r3, [sp, #80]
 1203              		.loc 1 608 0
 1204 03fc BDF84A20 		ldrh	r2, [sp, #74]	@ movhi
 1205 0400 BDF82E30 		ldrh	r3, [sp, #46]	@ movhi
 1206 0404 D318     		adds	r3, r2, r3
 1207 0406 ADF84A30 		strh	r3, [sp, #74]	@ movhi
 1208              	.L53:
 1209              	.LBE6:
 1210              		.loc 1 517 0 discriminator 1
 1211 040a BDF84A20 		ldrh	r2, [sp, #74]
 1212 040e BDF81630 		ldrh	r3, [sp, #22]
 1213 0412 9A42     		cmp	r2, r3
 1214 0414 FFF42BAF 		bcc	.L67
 1215              		.loc 1 621 0
 1216 0418 BDF84630 		ldrh	r3, [sp, #70]
 1217 041c 002B     		cmp	r3, #0
 1218 041e 32D0     		beq	.L68
 1219              	.LBB9:
 1220              		.loc 1 624 0
 1221 0420 169B     		ldr	r3, [sp, #88]
 1222 0422 5B68     		ldr	r3, [r3, #4]
 1223 0424 0F93     		str	r3, [sp, #60]
 1224 0426 23E0     		b	.L69
 1225              	.L71:
 1226              		.loc 1 625 0
 1227 0428 0F9B     		ldr	r3, [sp, #60]
 1228 042a 1A89     		ldrh	r2, [r3, #8]
 1229 042c BDF84630 		ldrh	r3, [sp, #70]	@ movhi
 1230 0430 D318     		adds	r3, r2, r3
 1231 0432 9AB2     		uxth	r2, r3
 1232 0434 0F9B     		ldr	r3, [sp, #60]
 1233 0436 1A81     		strh	r2, [r3, #8]	@ movhi
 1234              		.loc 1 626 0
 1235 0438 0F9B     		ldr	r3, [sp, #60]
 1236 043a 1B68     		ldr	r3, [r3, #0]
 1237 043c 002B     		cmp	r3, #0
 1238 043e 14D1     		bne	.L70
 1239              		.loc 1 627 0
 1240 0440 0F9B     		ldr	r3, [sp, #60]
 1241 0442 5A68     		ldr	r2, [r3, #4]
 1242 0444 0F9B     		ldr	r3, [sp, #60]
ARM GAS  /tmp/ccKKWSFE.s 			page 23


 1243 0446 5B89     		ldrh	r3, [r3, #10]
 1244 0448 D118     		adds	r1, r2, r3
 1245 044a BDF84630 		ldrh	r3, [sp, #70]
 1246 044e 069A     		ldr	r2, [sp, #24]
 1247 0450 0846     		mov	r0, r1
 1248 0452 1146     		mov	r1, r2
 1249 0454 1A46     		mov	r2, r3
 1250 0456 FFF7FEFF 		bl	memcpy
 1251              		.loc 1 628 0
 1252 045a 0F9B     		ldr	r3, [sp, #60]
 1253 045c 5A89     		ldrh	r2, [r3, #10]
 1254 045e BDF84630 		ldrh	r3, [sp, #70]	@ movhi
 1255 0462 D318     		adds	r3, r2, r3
 1256 0464 9AB2     		uxth	r2, r3
 1257 0466 0F9B     		ldr	r3, [sp, #60]
 1258 0468 5A81     		strh	r2, [r3, #10]	@ movhi
 1259              	.L70:
 1260              		.loc 1 624 0
 1261 046a 0F9B     		ldr	r3, [sp, #60]
 1262 046c 1B68     		ldr	r3, [r3, #0]
 1263 046e 0F93     		str	r3, [sp, #60]
 1264              	.L69:
 1265              		.loc 1 624 0 is_stmt 0 discriminator 1
 1266 0470 0F9B     		ldr	r3, [sp, #60]
 1267 0472 002B     		cmp	r3, #0
 1268 0474 D8D1     		bne	.L71
 1269              		.loc 1 631 0 is_stmt 1
 1270 0476 169B     		ldr	r3, [sp, #88]
 1271 0478 1A89     		ldrh	r2, [r3, #8]
 1272 047a BDF84630 		ldrh	r3, [sp, #70]	@ movhi
 1273 047e D318     		adds	r3, r2, r3
 1274 0480 9AB2     		uxth	r2, r3
 1275 0482 169B     		ldr	r3, [sp, #88]
 1276 0484 1A81     		strh	r2, [r3, #8]	@ movhi
 1277              	.L68:
 1278              	.LBE9:
 1279              		.loc 1 636 0
 1280 0486 BDF82620 		ldrh	r2, [sp, #38]
 1281 048a 079B     		ldr	r3, [sp, #28]
 1282 048c A3F87220 		strh	r2, [r3, #114]	@ movhi
 1283              		.loc 1 642 0
 1284 0490 179B     		ldr	r3, [sp, #92]
 1285 0492 002B     		cmp	r3, #0
 1286 0494 12D0     		beq	.L72
 1287              		.loc 1 643 0
 1288 0496 169B     		ldr	r3, [sp, #88]
 1289 0498 002B     		cmp	r3, #0
 1290 049a 01D1     		bne	.L73
 1291              		.loc 1 643 0 is_stmt 0 discriminator 1
 1292 049c FFF7FEFF 		bl	port_halt
 1293              	.L73:
 1294              		.loc 1 645 0 is_stmt 1
 1295 04a0 169B     		ldr	r3, [sp, #88]
 1296 04a2 5B68     		ldr	r3, [r3, #4]
 1297 04a4 1846     		mov	r0, r3
 1298 04a6 1799     		ldr	r1, [sp, #92]
 1299 04a8 FFF7FEFF 		bl	pbuf_cat
ARM GAS  /tmp/ccKKWSFE.s 			page 24


 1300              		.loc 1 646 0
 1301 04ac 169B     		ldr	r3, [sp, #88]
 1302 04ae 1A89     		ldrh	r2, [r3, #8]
 1303 04b0 179B     		ldr	r3, [sp, #92]
 1304 04b2 1B89     		ldrh	r3, [r3, #8]
 1305 04b4 D318     		adds	r3, r2, r3
 1306 04b6 9AB2     		uxth	r2, r3
 1307 04b8 169B     		ldr	r3, [sp, #88]
 1308 04ba 1A81     		strh	r2, [r3, #8]	@ movhi
 1309              	.L72:
 1310              		.loc 1 660 0
 1311 04bc 169B     		ldr	r3, [sp, #88]
 1312 04be 002B     		cmp	r3, #0
 1313 04c0 03D1     		bne	.L74
 1314              		.loc 1 661 0
 1315 04c2 079B     		ldr	r3, [sp, #28]
 1316 04c4 139A     		ldr	r2, [sp, #76]
 1317 04c6 5A67     		str	r2, [r3, #116]
 1318 04c8 02E0     		b	.L75
 1319              	.L74:
 1320              		.loc 1 663 0
 1321 04ca 169B     		ldr	r3, [sp, #88]
 1322 04cc 139A     		ldr	r2, [sp, #76]
 1323 04ce 1A60     		str	r2, [r3, #0]
 1324              	.L75:
 1325              		.loc 1 669 0
 1326 04d0 079B     		ldr	r3, [sp, #28]
 1327 04d2 9A6E     		ldr	r2, [r3, #104]
 1328 04d4 BDF81630 		ldrh	r3, [sp, #22]
 1329 04d8 D218     		adds	r2, r2, r3
 1330 04da 079B     		ldr	r3, [sp, #28]
 1331 04dc 9A66     		str	r2, [r3, #104]
 1332              		.loc 1 670 0
 1333 04de 079B     		ldr	r3, [sp, #28]
 1334 04e0 B3F86E20 		ldrh	r2, [r3, #110]
 1335 04e4 BDF81630 		ldrh	r3, [sp, #22]	@ movhi
 1336 04e8 D31A     		subs	r3, r2, r3
 1337 04ea 9AB2     		uxth	r2, r3
 1338 04ec 079B     		ldr	r3, [sp, #28]
 1339 04ee A3F86E20 		strh	r2, [r3, #110]	@ movhi
 1340              		.loc 1 671 0
 1341 04f2 079B     		ldr	r3, [sp, #28]
 1342 04f4 BDF84820 		ldrh	r2, [sp, #72]	@ movhi
 1343 04f8 A3F87020 		strh	r2, [r3, #112]	@ movhi
 1344              		.loc 1 675 0
 1345 04fc 079B     		ldr	r3, [sp, #28]
 1346 04fe B3F87030 		ldrh	r3, [r3, #112]
 1347 0502 002B     		cmp	r3, #0
 1348 0504 09D0     		beq	.L76
 1349              		.loc 1 676 0
 1350 0506 079B     		ldr	r3, [sp, #28]
 1351 0508 9B6F     		ldr	r3, [r3, #120]
 1352 050a 002B     		cmp	r3, #0
 1353 050c 05D1     		bne	.L76
 1354              		.loc 1 676 0 is_stmt 0 discriminator 1
 1355 050e 079B     		ldr	r3, [sp, #28]
 1356 0510 5B6F     		ldr	r3, [r3, #116]
ARM GAS  /tmp/ccKKWSFE.s 			page 25


 1357 0512 002B     		cmp	r3, #0
 1358 0514 01D1     		bne	.L76
 1359              		.loc 1 676 0 discriminator 2
 1360 0516 FFF7FEFF 		bl	port_halt
 1361              	.L76:
 1362              		.loc 1 681 0 is_stmt 1
 1363 051a 159B     		ldr	r3, [sp, #84]
 1364 051c 002B     		cmp	r3, #0
 1365 051e 17D0     		beq	.L77
 1366              		.loc 1 681 0 is_stmt 0 discriminator 1
 1367 0520 159B     		ldr	r3, [sp, #84]
 1368 0522 DB68     		ldr	r3, [r3, #12]
 1369 0524 002B     		cmp	r3, #0
 1370 0526 13D0     		beq	.L77
 1371 0528 9DF81530 		ldrb	r3, [sp, #21]	@ zero_extendqisi2
 1372 052c 03F00203 		and	r3, r3, #2
 1373 0530 002B     		cmp	r3, #0
 1374 0532 0DD1     		bne	.L77
 1375              		.loc 1 682 0 is_stmt 1
 1376 0534 159B     		ldr	r3, [sp, #84]
 1377 0536 DC68     		ldr	r4, [r3, #12]
 1378 0538 159B     		ldr	r3, [sp, #84]
 1379 053a DB68     		ldr	r3, [r3, #12]
 1380 053c 9B89     		ldrh	r3, [r3, #12]	@ unaligned
 1381 053e 9DB2     		uxth	r5, r3
 1382 0540 4FF00800 		mov	r0, #8
 1383 0544 FFF7FEFF 		bl	lwip_htons
 1384 0548 0346     		mov	r3, r0
 1385 054a 2B43     		orrs	r3, r3, r5
 1386 054c 9BB2     		uxth	r3, r3
 1387 054e A381     		strh	r3, [r4, #12]	@ unaligned
 1388              	.L77:
 1389              		.loc 1 685 0
 1390 0550 4FF00003 		mov	r3, #0
 1391 0554 3DE0     		b	.L35
 1392              	.L81:
 1393              	.LBB10:
 1394              	.LBB5:
 1395              		.loc 1 475 0
 1396 0556 00BF     		nop
 1397 0558 06E0     		b	.L50
 1398              	.L82:
 1399              		.loc 1 489 0
 1400 055a 00BF     		nop
 1401 055c 04E0     		b	.L50
 1402              	.L83:
 1403              	.LBE5:
 1404              	.LBE10:
 1405              	.LBB11:
 1406              		.loc 1 532 0
 1407 055e 00BF     		nop
 1408 0560 02E0     		b	.L50
 1409              	.L84:
 1410              	.LBB8:
 1411              		.loc 1 549 0
 1412 0562 00BF     		nop
 1413 0564 00E0     		b	.L50
ARM GAS  /tmp/ccKKWSFE.s 			page 26


 1414              	.L85:
 1415              	.LBE8:
 1416              		.loc 1 582 0
 1417 0566 00BF     		nop
 1418              	.L50:
 1419              	.LBE11:
 1420              		.loc 1 687 0
 1421 0568 079B     		ldr	r3, [sp, #28]
 1422 056a 93F82030 		ldrb	r3, [r3, #32]	@ zero_extendqisi2
 1423 056e 63F07F03 		orn	r3, r3, #127
 1424 0572 DAB2     		uxtb	r2, r3
 1425 0574 079B     		ldr	r3, [sp, #28]
 1426 0576 83F82020 		strb	r2, [r3, #32]
 1427              		.loc 1 688 0
 1428 057a 40F20003 		movw	r3, #:lower16:lwip_stats
 1429 057e C0F20003 		movt	r3, #:upper16:lwip_stats
 1430 0582 B3F89C30 		ldrh	r3, [r3, #156]
 1431 0586 03F10103 		add	r3, r3, #1
 1432 058a 9AB2     		uxth	r2, r3
 1433 058c 40F20003 		movw	r3, #:lower16:lwip_stats
 1434 0590 C0F20003 		movt	r3, #:upper16:lwip_stats
 1435 0594 A3F89C20 		strh	r2, [r3, #156]	@ movhi
 1436              		.loc 1 690 0
 1437 0598 179B     		ldr	r3, [sp, #92]
 1438 059a 002B     		cmp	r3, #0
 1439 059c 02D0     		beq	.L78
 1440              		.loc 1 691 0
 1441 059e 1798     		ldr	r0, [sp, #92]
 1442 05a0 FFF7FEFF 		bl	pbuf_free
 1443              	.L78:
 1444              		.loc 1 693 0
 1445 05a4 139B     		ldr	r3, [sp, #76]
 1446 05a6 002B     		cmp	r3, #0
 1447 05a8 02D0     		beq	.L79
 1448              		.loc 1 694 0
 1449 05aa 1398     		ldr	r0, [sp, #76]
 1450 05ac FFF7FEFF 		bl	tcp_segs_free
 1451              	.L79:
 1452              		.loc 1 696 0
 1453 05b0 079B     		ldr	r3, [sp, #28]
 1454 05b2 B3F87030 		ldrh	r3, [r3, #112]
 1455 05b6 002B     		cmp	r3, #0
 1456 05b8 09D0     		beq	.L80
 1457              		.loc 1 697 0
 1458 05ba 079B     		ldr	r3, [sp, #28]
 1459 05bc 9B6F     		ldr	r3, [r3, #120]
 1460 05be 002B     		cmp	r3, #0
 1461 05c0 05D1     		bne	.L80
 1462              		.loc 1 697 0 is_stmt 0 discriminator 1
 1463 05c2 079B     		ldr	r3, [sp, #28]
 1464 05c4 5B6F     		ldr	r3, [r3, #116]
 1465 05c6 002B     		cmp	r3, #0
 1466 05c8 01D1     		bne	.L80
 1467              		.loc 1 697 0 discriminator 2
 1468 05ca FFF7FEFF 		bl	port_halt
 1469              	.L80:
 1470              		.loc 1 701 0 is_stmt 1
ARM GAS  /tmp/ccKKWSFE.s 			page 27


 1471 05ce 4FF0FF03 		mov	r3, #255
 1472              	.L35:
 1473 05d2 5BB2     		sxtb	r3, r3
 1474              		.loc 1 702 0
 1475 05d4 1846     		mov	r0, r3
 1476 05d6 19B0     		add	sp, sp, #100
 1477 05d8 30BD     		pop	{r4, r5, pc}
 1478              		.cfi_endproc
 1479              	.LFE12:
 1480              		.size	tcp_write, .-tcp_write
 1481 05da 00BFAFF3 		.section	.text.tcp_enqueue_flags,"ax",%progbits
 1481      0080
 1482              		.align	2
 1483              		.p2align 4,,15
 1484              		.global	tcp_enqueue_flags
 1485              		.thumb
 1486              		.thumb_func
 1487              		.type	tcp_enqueue_flags, %function
 1488              	tcp_enqueue_flags:
 1489              	.LFB13:
 1490              		.loc 1 716 0
 1491              		.cfi_startproc
 1492              		@ args = 0, pretend = 0, frame = 32
 1493              		@ frame_needed = 0, uses_anonymous_args = 0
 1494 0000 10B5     		push	{r4, lr}
 1495              	.LCFI12:
 1496              		.cfi_def_cfa_offset 8
 1497              		.cfi_offset 14, -4
 1498              		.cfi_offset 4, -8
 1499 0002 8AB0     		sub	sp, sp, #40
 1500              	.LCFI13:
 1501              		.cfi_def_cfa_offset 48
 1502 0004 0390     		str	r0, [sp, #12]
 1503 0006 0B46     		mov	r3, r1
 1504 0008 8DF80B30 		strb	r3, [sp, #11]
 1505              		.loc 1 719 0
 1506 000c 4FF00003 		mov	r3, #0
 1507 0010 8DF82730 		strb	r3, [sp, #39]
 1508              		.loc 1 720 0
 1509 0014 4FF00003 		mov	r3, #0
 1510 0018 8DF81F30 		strb	r3, [sp, #31]
 1511              		.loc 1 724 0
 1512 001c 9DF80B30 		ldrb	r3, [sp, #11]	@ zero_extendqisi2
 1513 0020 03F00303 		and	r3, r3, #3
 1514 0024 002B     		cmp	r3, #0
 1515 0026 01D1     		bne	.L87
 1516              		.loc 1 724 0 is_stmt 0 discriminator 1
 1517 0028 FFF7FEFF 		bl	port_halt
 1518              	.L87:
 1519              		.loc 1 728 0 is_stmt 1
 1520 002c 039B     		ldr	r3, [sp, #12]
 1521 002e B3F87030 		ldrh	r3, [r3, #112]
 1522 0032 012B     		cmp	r3, #1
 1523 0034 06D8     		bhi	.L88
 1524              		.loc 1 728 0 is_stmt 0 discriminator 1
 1525 0036 039B     		ldr	r3, [sp, #12]
 1526 0038 B3F87020 		ldrh	r2, [r3, #112]
ARM GAS  /tmp/ccKKWSFE.s 			page 28


 1527 003c 4FF6FC73 		movw	r3, #65532
 1528 0040 9A42     		cmp	r2, r3
 1529 0042 1AD9     		bls	.L89
 1530              	.L88:
 1531              		.loc 1 731 0 is_stmt 1
 1532 0044 40F20003 		movw	r3, #:lower16:lwip_stats
 1533 0048 C0F20003 		movt	r3, #:upper16:lwip_stats
 1534 004c B3F89C30 		ldrh	r3, [r3, #156]
 1535 0050 03F10103 		add	r3, r3, #1
 1536 0054 9AB2     		uxth	r2, r3
 1537 0056 40F20003 		movw	r3, #:lower16:lwip_stats
 1538 005a C0F20003 		movt	r3, #:upper16:lwip_stats
 1539 005e A3F89C20 		strh	r2, [r3, #156]	@ movhi
 1540              		.loc 1 732 0
 1541 0062 039B     		ldr	r3, [sp, #12]
 1542 0064 93F82030 		ldrb	r3, [r3, #32]	@ zero_extendqisi2
 1543 0068 63F07F03 		orn	r3, r3, #127
 1544 006c DAB2     		uxtb	r2, r3
 1545 006e 039B     		ldr	r3, [sp, #12]
 1546 0070 83F82020 		strb	r2, [r3, #32]
 1547              		.loc 1 733 0
 1548 0074 4FF0FF03 		mov	r3, #255
 1549 0078 0CE1     		b	.L90
 1550              	.L89:
 1551              		.loc 1 736 0
 1552 007a 9DF80B30 		ldrb	r3, [sp, #11]	@ zero_extendqisi2
 1553 007e 03F00203 		and	r3, r3, #2
 1554 0082 002B     		cmp	r3, #0
 1555 0084 03D0     		beq	.L91
 1556              		.loc 1 737 0
 1557 0086 4FF00103 		mov	r3, #1
 1558 008a 8DF82730 		strb	r3, [sp, #39]
 1559              	.L91:
 1560              		.loc 1 744 0
 1561 008e 9DF82730 		ldrb	r3, [sp, #39]	@ zero_extendqisi2
 1562 0092 03F00103 		and	r3, r3, #1
 1563 0096 DBB2     		uxtb	r3, r3
 1564 0098 002B     		cmp	r3, #0
 1565 009a 02D0     		beq	.L92
 1566              		.loc 1 744 0 is_stmt 0 discriminator 1
 1567 009c 4FF00402 		mov	r2, #4
 1568 00a0 01E0     		b	.L93
 1569              	.L92:
 1570              		.loc 1 744 0 discriminator 2
 1571 00a2 4FF00002 		mov	r2, #0
 1572              	.L93:
 1573              		.loc 1 744 0 discriminator 3
 1574 00a6 9DF82730 		ldrb	r3, [sp, #39]	@ zero_extendqisi2
 1575 00aa 03F00203 		and	r3, r3, #2
 1576 00ae 002B     		cmp	r3, #0
 1577 00b0 02D0     		beq	.L94
 1578              		.loc 1 744 0 discriminator 4
 1579 00b2 4FF00C03 		mov	r3, #12
 1580 00b6 01E0     		b	.L95
 1581              	.L94:
 1582              		.loc 1 744 0 discriminator 5
 1583 00b8 4FF00003 		mov	r3, #0
ARM GAS  /tmp/ccKKWSFE.s 			page 29


 1584              	.L95:
 1585              		.loc 1 744 0 discriminator 6
 1586 00bc D318     		adds	r3, r2, r3
 1587 00be 8DF81F30 		strb	r3, [sp, #31]
 1588              		.loc 1 750 0 is_stmt 1 discriminator 6
 1589 00c2 039B     		ldr	r3, [sp, #12]
 1590 00c4 B3F86E30 		ldrh	r3, [r3, #110]
 1591 00c8 002B     		cmp	r3, #0
 1592 00ca 11D1     		bne	.L96
 1593              		.loc 1 752 0
 1594 00cc 40F20003 		movw	r3, #:lower16:lwip_stats
 1595 00d0 C0F20003 		movt	r3, #:upper16:lwip_stats
 1596 00d4 B3F89C30 		ldrh	r3, [r3, #156]
 1597 00d8 03F10103 		add	r3, r3, #1
 1598 00dc 9AB2     		uxth	r2, r3
 1599 00de 40F20003 		movw	r3, #:lower16:lwip_stats
 1600 00e2 C0F20003 		movt	r3, #:upper16:lwip_stats
 1601 00e6 A3F89C20 		strh	r2, [r3, #156]	@ movhi
 1602              		.loc 1 753 0
 1603 00ea 4FF0FF03 		mov	r3, #255
 1604 00ee D1E0     		b	.L90
 1605              	.L96:
 1606              		.loc 1 757 0
 1607 00f0 9DF81F30 		ldrb	r3, [sp, #31]	@ zero_extendqisi2
 1608 00f4 9BB2     		uxth	r3, r3
 1609 00f6 4FF00000 		mov	r0, #0
 1610 00fa 1946     		mov	r1, r3
 1611 00fc 4FF00002 		mov	r2, #0
 1612 0100 FFF7FEFF 		bl	pbuf_alloc
 1613 0104 0346     		mov	r3, r0
 1614 0106 0693     		str	r3, [sp, #24]
 1615 0108 069B     		ldr	r3, [sp, #24]
 1616 010a 002B     		cmp	r3, #0
 1617 010c 1AD1     		bne	.L97
 1618              		.loc 1 758 0
 1619 010e 039B     		ldr	r3, [sp, #12]
 1620 0110 93F82030 		ldrb	r3, [r3, #32]	@ zero_extendqisi2
 1621 0114 63F07F03 		orn	r3, r3, #127
 1622 0118 DAB2     		uxtb	r2, r3
 1623 011a 039B     		ldr	r3, [sp, #12]
 1624 011c 83F82020 		strb	r2, [r3, #32]
 1625              		.loc 1 759 0
 1626 0120 40F20003 		movw	r3, #:lower16:lwip_stats
 1627 0124 C0F20003 		movt	r3, #:upper16:lwip_stats
 1628 0128 B3F89C30 		ldrh	r3, [r3, #156]
 1629 012c 03F10103 		add	r3, r3, #1
 1630 0130 9AB2     		uxth	r2, r3
 1631 0132 40F20003 		movw	r3, #:lower16:lwip_stats
 1632 0136 C0F20003 		movt	r3, #:upper16:lwip_stats
 1633 013a A3F89C20 		strh	r2, [r3, #156]	@ movhi
 1634              		.loc 1 760 0
 1635 013e 4FF0FF03 		mov	r3, #255
 1636 0142 A7E0     		b	.L90
 1637              	.L97:
 1638              		.loc 1 762 0
 1639 0144 069B     		ldr	r3, [sp, #24]
 1640 0146 5A89     		ldrh	r2, [r3, #10]
ARM GAS  /tmp/ccKKWSFE.s 			page 30


 1641 0148 9DF81F30 		ldrb	r3, [sp, #31]	@ zero_extendqisi2
 1642 014c 9BB2     		uxth	r3, r3
 1643 014e 9A42     		cmp	r2, r3
 1644 0150 01D2     		bcs	.L98
 1645              		.loc 1 762 0 is_stmt 0 discriminator 1
 1646 0152 FFF7FEFF 		bl	port_halt
 1647              	.L98:
 1648              		.loc 1 766 0 is_stmt 1
 1649 0156 039B     		ldr	r3, [sp, #12]
 1650 0158 9B6E     		ldr	r3, [r3, #104]
 1651 015a 9DF80B20 		ldrb	r2, [sp, #11]	@ zero_extendqisi2
 1652 015e 9DF82710 		ldrb	r1, [sp, #39]	@ zero_extendqisi2
 1653 0162 0091     		str	r1, [sp, #0]
 1654 0164 0398     		ldr	r0, [sp, #12]
 1655 0166 0699     		ldr	r1, [sp, #24]
 1656 0168 FFF7FEFF 		bl	tcp_create_segment
 1657 016c 0346     		mov	r3, r0
 1658 016e 0593     		str	r3, [sp, #20]
 1659 0170 059B     		ldr	r3, [sp, #20]
 1660 0172 002B     		cmp	r3, #0
 1661 0174 1AD1     		bne	.L99
 1662              		.loc 1 767 0
 1663 0176 039B     		ldr	r3, [sp, #12]
 1664 0178 93F82030 		ldrb	r3, [r3, #32]	@ zero_extendqisi2
 1665 017c 63F07F03 		orn	r3, r3, #127
 1666 0180 DAB2     		uxtb	r2, r3
 1667 0182 039B     		ldr	r3, [sp, #12]
 1668 0184 83F82020 		strb	r2, [r3, #32]
 1669              		.loc 1 768 0
 1670 0188 40F20003 		movw	r3, #:lower16:lwip_stats
 1671 018c C0F20003 		movt	r3, #:upper16:lwip_stats
 1672 0190 B3F89C30 		ldrh	r3, [r3, #156]
 1673 0194 03F10103 		add	r3, r3, #1
 1674 0198 9AB2     		uxth	r2, r3
 1675 019a 40F20003 		movw	r3, #:lower16:lwip_stats
 1676 019e C0F20003 		movt	r3, #:upper16:lwip_stats
 1677 01a2 A3F89C20 		strh	r2, [r3, #156]	@ movhi
 1678              		.loc 1 769 0
 1679 01a6 4FF0FF03 		mov	r3, #255
 1680 01aa 73E0     		b	.L90
 1681              	.L99:
 1682              		.loc 1 771 0
 1683 01ac 059B     		ldr	r3, [sp, #20]
 1684 01ae DB68     		ldr	r3, [r3, #12]
 1685 01b0 03F00303 		and	r3, r3, #3
 1686 01b4 002B     		cmp	r3, #0
 1687 01b6 01D0     		beq	.L100
 1688              		.loc 1 771 0 is_stmt 0 discriminator 1
 1689 01b8 FFF7FEFF 		bl	port_halt
 1690              	.L100:
 1691              		.loc 1 772 0 is_stmt 1
 1692 01bc 059B     		ldr	r3, [sp, #20]
 1693 01be 1B89     		ldrh	r3, [r3, #8]
 1694 01c0 002B     		cmp	r3, #0
 1695 01c2 01D0     		beq	.L101
 1696              		.loc 1 772 0 is_stmt 0 discriminator 1
 1697 01c4 FFF7FEFF 		bl	port_halt
ARM GAS  /tmp/ccKKWSFE.s 			page 31


 1698              	.L101:
 1699              		.loc 1 781 0 is_stmt 1
 1700 01c8 039B     		ldr	r3, [sp, #12]
 1701 01ca 5B6F     		ldr	r3, [r3, #116]
 1702 01cc 002B     		cmp	r3, #0
 1703 01ce 03D1     		bne	.L102
 1704              		.loc 1 782 0
 1705 01d0 039B     		ldr	r3, [sp, #12]
 1706 01d2 059A     		ldr	r2, [sp, #20]
 1707 01d4 5A67     		str	r2, [r3, #116]
 1708 01d6 0DE0     		b	.L103
 1709              	.L102:
 1710              	.LBB12:
 1711              		.loc 1 785 0
 1712 01d8 039B     		ldr	r3, [sp, #12]
 1713 01da 5B6F     		ldr	r3, [r3, #116]
 1714 01dc 0893     		str	r3, [sp, #32]
 1715 01de 02E0     		b	.L104
 1716              	.L105:
 1717              		.loc 1 785 0 is_stmt 0 discriminator 2
 1718 01e0 089B     		ldr	r3, [sp, #32]
 1719 01e2 1B68     		ldr	r3, [r3, #0]
 1720 01e4 0893     		str	r3, [sp, #32]
 1721              	.L104:
 1722              		.loc 1 785 0 discriminator 1
 1723 01e6 089B     		ldr	r3, [sp, #32]
 1724 01e8 1B68     		ldr	r3, [r3, #0]
 1725 01ea 002B     		cmp	r3, #0
 1726 01ec F8D1     		bne	.L105
 1727              		.loc 1 786 0 is_stmt 1
 1728 01ee 089B     		ldr	r3, [sp, #32]
 1729 01f0 059A     		ldr	r2, [sp, #20]
 1730 01f2 1A60     		str	r2, [r3, #0]
 1731              	.L103:
 1732              	.LBE12:
 1733              		.loc 1 790 0
 1734 01f4 039B     		ldr	r3, [sp, #12]
 1735 01f6 4FF00002 		mov	r2, #0
 1736 01fa A3F87220 		strh	r2, [r3, #114]	@ movhi
 1737              		.loc 1 794 0
 1738 01fe 9DF80B30 		ldrb	r3, [sp, #11]	@ zero_extendqisi2
 1739 0202 03F00203 		and	r3, r3, #2
 1740 0206 002B     		cmp	r3, #0
 1741 0208 06D1     		bne	.L106
 1742              		.loc 1 794 0 is_stmt 0 discriminator 1
 1743 020a 9DF80B30 		ldrb	r3, [sp, #11]	@ zero_extendqisi2
 1744 020e 03F00103 		and	r3, r3, #1
 1745 0212 DBB2     		uxtb	r3, r3
 1746 0214 002B     		cmp	r3, #0
 1747 0216 0ED0     		beq	.L107
 1748              	.L106:
 1749              		.loc 1 795 0 is_stmt 1
 1750 0218 039B     		ldr	r3, [sp, #12]
 1751 021a 9B6E     		ldr	r3, [r3, #104]
 1752 021c 03F10102 		add	r2, r3, #1
 1753 0220 039B     		ldr	r3, [sp, #12]
 1754 0222 9A66     		str	r2, [r3, #104]
ARM GAS  /tmp/ccKKWSFE.s 			page 32


 1755              		.loc 1 797 0
 1756 0224 039B     		ldr	r3, [sp, #12]
 1757 0226 B3F86E30 		ldrh	r3, [r3, #110]
 1758 022a 03F1FF33 		add	r3, r3, #-1
 1759 022e 9AB2     		uxth	r2, r3
 1760 0230 039B     		ldr	r3, [sp, #12]
 1761 0232 A3F86E20 		strh	r2, [r3, #110]	@ movhi
 1762              	.L107:
 1763              		.loc 1 799 0
 1764 0236 9DF80B30 		ldrb	r3, [sp, #11]	@ zero_extendqisi2
 1765 023a 03F00103 		and	r3, r3, #1
 1766 023e DBB2     		uxtb	r3, r3
 1767 0240 002B     		cmp	r3, #0
 1768 0242 08D0     		beq	.L108
 1769              		.loc 1 800 0
 1770 0244 039B     		ldr	r3, [sp, #12]
 1771 0246 93F82030 		ldrb	r3, [r3, #32]	@ zero_extendqisi2
 1772 024a 43F02003 		orr	r3, r3, #32
 1773 024e DAB2     		uxtb	r2, r3
 1774 0250 039B     		ldr	r3, [sp, #12]
 1775 0252 83F82020 		strb	r2, [r3, #32]
 1776              	.L108:
 1777              		.loc 1 804 0
 1778 0256 039B     		ldr	r3, [sp, #12]
 1779 0258 B3F87040 		ldrh	r4, [r3, #112]
 1780 025c 059B     		ldr	r3, [sp, #20]
 1781 025e 5B68     		ldr	r3, [r3, #4]
 1782 0260 1846     		mov	r0, r3
 1783 0262 FFF7FEFF 		bl	pbuf_clen
 1784 0266 0346     		mov	r3, r0
 1785 0268 E318     		adds	r3, r4, r3
 1786 026a 9AB2     		uxth	r2, r3
 1787 026c 039B     		ldr	r3, [sp, #12]
 1788 026e A3F87020 		strh	r2, [r3, #112]	@ movhi
 1789              		.loc 1 806 0
 1790 0272 039B     		ldr	r3, [sp, #12]
 1791 0274 B3F87030 		ldrh	r3, [r3, #112]
 1792 0278 002B     		cmp	r3, #0
 1793 027a 09D0     		beq	.L109
 1794              		.loc 1 807 0
 1795 027c 039B     		ldr	r3, [sp, #12]
 1796 027e 9B6F     		ldr	r3, [r3, #120]
 1797 0280 002B     		cmp	r3, #0
 1798 0282 05D1     		bne	.L109
 1799              		.loc 1 807 0 is_stmt 0 discriminator 1
 1800 0284 039B     		ldr	r3, [sp, #12]
 1801 0286 5B6F     		ldr	r3, [r3, #116]
 1802 0288 002B     		cmp	r3, #0
 1803 028a 01D1     		bne	.L109
 1804              		.loc 1 807 0 discriminator 2
 1805 028c FFF7FEFF 		bl	port_halt
 1806              	.L109:
 1807              		.loc 1 811 0 is_stmt 1
 1808 0290 4FF00003 		mov	r3, #0
 1809              	.L90:
 1810 0294 5BB2     		sxtb	r3, r3
 1811              		.loc 1 812 0
ARM GAS  /tmp/ccKKWSFE.s 			page 33


 1812 0296 1846     		mov	r0, r3
 1813 0298 0AB0     		add	sp, sp, #40
 1814 029a 10BD     		pop	{r4, pc}
 1815              		.cfi_endproc
 1816              	.LFE13:
 1817              		.size	tcp_enqueue_flags, .-tcp_enqueue_flags
 1818 029c AFF30080 		.section	.text.tcp_send_empty_ack,"ax",%progbits
 1819              		.align	2
 1820              		.p2align 4,,15
 1821              		.global	tcp_send_empty_ack
 1822              		.thumb
 1823              		.thumb_func
 1824              		.type	tcp_send_empty_ack, %function
 1825              	tcp_send_empty_ack:
 1826              	.LFB14:
 1827              		.loc 1 837 0
 1828              		.cfi_startproc
 1829              		@ args = 0, pretend = 0, frame = 24
 1830              		@ frame_needed = 0, uses_anonymous_args = 0
 1831 0000 10B5     		push	{r4, lr}
 1832              	.LCFI14:
 1833              		.cfi_def_cfa_offset 8
 1834              		.cfi_offset 14, -4
 1835              		.cfi_offset 4, -8
 1836 0002 88B0     		sub	sp, sp, #32
 1837              	.LCFI15:
 1838              		.cfi_def_cfa_offset 40
 1839 0004 0390     		str	r0, [sp, #12]
 1840              		.loc 1 840 0
 1841 0006 4FF00003 		mov	r3, #0
 1842 000a 8DF81F30 		strb	r3, [sp, #31]
 1843              		.loc 1 848 0
 1844 000e 9DF81F30 		ldrb	r3, [sp, #31]	@ zero_extendqisi2
 1845 0012 9CB2     		uxth	r4, r3
 1846 0014 039B     		ldr	r3, [sp, #12]
 1847 0016 9B6D     		ldr	r3, [r3, #88]
 1848 0018 1846     		mov	r0, r3
 1849 001a FFF7FEFF 		bl	lwip_htonl
 1850 001e 0346     		mov	r3, r0
 1851 0020 0398     		ldr	r0, [sp, #12]
 1852 0022 2146     		mov	r1, r4
 1853 0024 4FF00002 		mov	r2, #0
 1854 0028 FFF7FEFF 		bl	tcp_output_alloc_header
 1855 002c 0346     		mov	r3, r0
 1856 002e 0693     		str	r3, [sp, #24]
 1857              		.loc 1 849 0
 1858 0030 069B     		ldr	r3, [sp, #24]
 1859 0032 002B     		cmp	r3, #0
 1860 0034 02D1     		bne	.L111
 1861              		.loc 1 851 0
 1862 0036 4FF0FE03 		mov	r3, #254
 1863 003a 31E0     		b	.L112
 1864              	.L111:
 1865              		.loc 1 853 0
 1866 003c 069B     		ldr	r3, [sp, #24]
 1867 003e 5B68     		ldr	r3, [r3, #4]
 1868 0040 0593     		str	r3, [sp, #20]
ARM GAS  /tmp/ccKKWSFE.s 			page 34


 1869              		.loc 1 857 0
 1870 0042 039B     		ldr	r3, [sp, #12]
 1871 0044 93F82030 		ldrb	r3, [r3, #32]	@ zero_extendqisi2
 1872 0048 23F00303 		bic	r3, r3, #3
 1873 004c DAB2     		uxtb	r2, r3
 1874 004e 039B     		ldr	r3, [sp, #12]
 1875 0050 83F82020 		strb	r2, [r3, #32]
 1876              		.loc 1 869 0
 1877 0054 039A     		ldr	r2, [sp, #12]
 1878 0056 039B     		ldr	r3, [sp, #12]
 1879 0058 03F10403 		add	r3, r3, #4
 1880              		.loc 1 870 0
 1881 005c 0699     		ldr	r1, [sp, #24]
 1882              		.loc 1 869 0
 1883 005e 0989     		ldrh	r1, [r1, #8]
 1884 0060 0091     		str	r1, [sp, #0]
 1885 0062 0698     		ldr	r0, [sp, #24]
 1886 0064 1146     		mov	r1, r2
 1887 0066 1A46     		mov	r2, r3
 1888 0068 4FF00603 		mov	r3, #6
 1889 006c FFF7FEFF 		bl	inet_chksum_pseudo
 1890 0070 0346     		mov	r3, r0
 1891 0072 1A46     		mov	r2, r3
 1892 0074 059B     		ldr	r3, [sp, #20]
 1893 0076 1A82     		strh	r2, [r3, #16]	@ unaligned
 1894              		.loc 1 876 0
 1895 0078 0399     		ldr	r1, [sp, #12]
 1896 007a 039B     		ldr	r3, [sp, #12]
 1897 007c 03F10402 		add	r2, r3, #4
 1898 0080 039B     		ldr	r3, [sp, #12]
 1899 0082 9B7A     		ldrb	r3, [r3, #10]	@ zero_extendqisi2
 1900 0084 0398     		ldr	r0, [sp, #12]
 1901 0086 407A     		ldrb	r0, [r0, #9]	@ zero_extendqisi2
 1902 0088 0090     		str	r0, [sp, #0]
 1903 008a 4FF00600 		mov	r0, #6
 1904 008e 0190     		str	r0, [sp, #4]
 1905 0090 0698     		ldr	r0, [sp, #24]
 1906 0092 FFF7FEFF 		bl	ip_output
 1907              		.loc 1 879 0
 1908 0096 0698     		ldr	r0, [sp, #24]
 1909 0098 FFF7FEFF 		bl	pbuf_free
 1910              		.loc 1 881 0
 1911 009c 4FF00003 		mov	r3, #0
 1912              	.L112:
 1913 00a0 5BB2     		sxtb	r3, r3
 1914              		.loc 1 882 0
 1915 00a2 1846     		mov	r0, r3
 1916 00a4 08B0     		add	sp, sp, #32
 1917 00a6 10BD     		pop	{r4, pc}
 1918              		.cfi_endproc
 1919              	.LFE14:
 1920              		.size	tcp_send_empty_ack, .-tcp_send_empty_ack
 1921 00a8 AFF30080 		.section	.text.tcp_output,"ax",%progbits
 1921      AFF30080 
 1922              		.align	2
 1923              		.p2align 4,,15
 1924              		.global	tcp_output
ARM GAS  /tmp/ccKKWSFE.s 			page 35


 1925              		.thumb
 1926              		.thumb_func
 1927              		.type	tcp_output, %function
 1928              	tcp_output:
 1929              	.LFB15:
 1930              		.loc 1 893 0
 1931              		.cfi_startproc
 1932              		@ args = 0, pretend = 0, frame = 32
 1933              		@ frame_needed = 0, uses_anonymous_args = 0
 1934 0000 30B5     		push	{r4, r5, lr}
 1935              	.LCFI16:
 1936              		.cfi_def_cfa_offset 12
 1937              		.cfi_offset 14, -4
 1938              		.cfi_offset 5, -8
 1939              		.cfi_offset 4, -12
 1940 0002 89B0     		sub	sp, sp, #36
 1941              	.LCFI17:
 1942              		.cfi_def_cfa_offset 48
 1943 0004 0190     		str	r0, [sp, #4]
 1944              		.loc 1 904 0
 1945 0006 40F20003 		movw	r3, #:lower16:tcp_input_pcb
 1946 000a C0F20003 		movt	r3, #:upper16:tcp_input_pcb
 1947 000e 1A68     		ldr	r2, [r3, #0]
 1948 0010 019B     		ldr	r3, [sp, #4]
 1949 0012 9A42     		cmp	r2, r3
 1950 0014 02D1     		bne	.L114
 1951              		.loc 1 905 0
 1952 0016 4FF00003 		mov	r3, #0
 1953 001a 6FE1     		b	.L115
 1954              	.L114:
 1955              		.loc 1 908 0
 1956 001c 019B     		ldr	r3, [sp, #4]
 1957 001e B3F85220 		ldrh	r2, [r3, #82]
 1958 0022 019B     		ldr	r3, [sp, #4]
 1959 0024 B3F85C30 		ldrh	r3, [r3, #92]
 1960 0028 9A42     		cmp	r2, r3
 1961 002a 38BF     		it	cc
 1962 002c 1346     		movcc	r3, r2
 1963 002e 9BB2     		uxth	r3, r3
 1964 0030 0493     		str	r3, [sp, #16]
 1965              		.loc 1 910 0
 1966 0032 019B     		ldr	r3, [sp, #4]
 1967 0034 5B6F     		ldr	r3, [r3, #116]
 1968 0036 0793     		str	r3, [sp, #28]
 1969              		.loc 1 918 0
 1970 0038 019B     		ldr	r3, [sp, #4]
 1971 003a 93F82030 		ldrb	r3, [r3, #32]	@ zero_extendqisi2
 1972 003e 03F00203 		and	r3, r3, #2
 1973 0042 002B     		cmp	r3, #0
 1974 0044 17D0     		beq	.L116
 1975              		.loc 1 918 0 is_stmt 0 discriminator 1
 1976 0046 079B     		ldr	r3, [sp, #28]
 1977 0048 002B     		cmp	r3, #0
 1978 004a 0FD0     		beq	.L117
 1979              		.loc 1 920 0 is_stmt 1
 1980 004c 079B     		ldr	r3, [sp, #28]
 1981 004e DB68     		ldr	r3, [r3, #12]
ARM GAS  /tmp/ccKKWSFE.s 			page 36


 1982 0050 5B68     		ldr	r3, [r3, #4]	@ unaligned
 1983 0052 1846     		mov	r0, r3
 1984 0054 FFF7FEFF 		bl	lwip_ntohl
 1985 0058 0246     		mov	r2, r0
 1986 005a 019B     		ldr	r3, [sp, #4]
 1987 005c DB6C     		ldr	r3, [r3, #76]
 1988 005e D21A     		subs	r2, r2, r3
 1989 0060 079B     		ldr	r3, [sp, #28]
 1990 0062 1B89     		ldrh	r3, [r3, #8]
 1991 0064 D218     		adds	r2, r2, r3
 1992              		.loc 1 919 0
 1993 0066 049B     		ldr	r3, [sp, #16]
 1994 0068 9A42     		cmp	r2, r3
 1995 006a 04D9     		bls	.L116
 1996              	.L117:
 1997              		.loc 1 921 0
 1998 006c 0198     		ldr	r0, [sp, #4]
 1999 006e FFF7FEFF 		bl	tcp_send_empty_ack
 2000 0072 0346     		mov	r3, r0
 2001 0074 42E1     		b	.L115
 2002              	.L116:
 2003              		.loc 1 925 0
 2004 0076 019B     		ldr	r3, [sp, #4]
 2005 0078 9B6F     		ldr	r3, [r3, #120]
 2006 007a 0693     		str	r3, [sp, #24]
 2007              		.loc 1 926 0
 2008 007c 069B     		ldr	r3, [sp, #24]
 2009 007e 002B     		cmp	r3, #0
 2010 0080 00F0EE80 		beq	.L121
 2011              		.loc 1 927 0
 2012 0084 02E0     		b	.L119
 2013              	.L120:
 2014              		.loc 1 927 0 is_stmt 0 discriminator 2
 2015 0086 069B     		ldr	r3, [sp, #24]
 2016 0088 1B68     		ldr	r3, [r3, #0]
 2017 008a 0693     		str	r3, [sp, #24]
 2018              	.L119:
 2019              		.loc 1 927 0 discriminator 1
 2020 008c 069B     		ldr	r3, [sp, #24]
 2021 008e 1B68     		ldr	r3, [r3, #0]
 2022 0090 002B     		cmp	r3, #0
 2023 0092 F8D1     		bne	.L120
 2024              		.loc 1 952 0 is_stmt 1
 2025 0094 E4E0     		b	.L121
 2026              	.L137:
 2027              		.loc 1 954 0
 2028 0096 079B     		ldr	r3, [sp, #28]
 2029 0098 DB68     		ldr	r3, [r3, #12]
 2030 009a 9B89     		ldrh	r3, [r3, #12]	@ unaligned
 2031 009c 9BB2     		uxth	r3, r3
 2032 009e 1846     		mov	r0, r3
 2033 00a0 FFF7FEFF 		bl	lwip_ntohs
 2034 00a4 0346     		mov	r3, r0
 2035 00a6 03F00403 		and	r3, r3, #4
 2036 00aa 002B     		cmp	r3, #0
 2037 00ac 01D0     		beq	.L122
 2038              		.loc 1 954 0 is_stmt 0 discriminator 1
ARM GAS  /tmp/ccKKWSFE.s 			page 37


 2039 00ae FFF7FEFF 		bl	port_halt
 2040              	.L122:
 2041              		.loc 1 963 0 is_stmt 1
 2042 00b2 019B     		ldr	r3, [sp, #4]
 2043 00b4 9B6F     		ldr	r3, [r3, #120]
 2044 00b6 002B     		cmp	r3, #0
 2045 00b8 16D0     		beq	.L123
 2046              		.loc 1 963 0 is_stmt 0 discriminator 2
 2047 00ba 019B     		ldr	r3, [sp, #4]
 2048 00bc 93F82030 		ldrb	r3, [r3, #32]	@ zero_extendqisi2
 2049 00c0 03F04403 		and	r3, r3, #68
 2050 00c4 002B     		cmp	r3, #0
 2051 00c6 0FD1     		bne	.L123
 2052              		.loc 1 963 0 discriminator 1
 2053 00c8 019B     		ldr	r3, [sp, #4]
 2054 00ca 5B6F     		ldr	r3, [r3, #116]
 2055 00cc 002B     		cmp	r3, #0
 2056 00ce 0ED0     		beq	.L124
 2057              		.loc 1 963 0 discriminator 2
 2058 00d0 019B     		ldr	r3, [sp, #4]
 2059 00d2 5B6F     		ldr	r3, [r3, #116]
 2060 00d4 1B68     		ldr	r3, [r3, #0]
 2061 00d6 002B     		cmp	r3, #0
 2062 00d8 06D1     		bne	.L123
 2063              		.loc 1 963 0 discriminator 4
 2064 00da 019B     		ldr	r3, [sp, #4]
 2065 00dc 5B6F     		ldr	r3, [r3, #116]
 2066 00de 1A89     		ldrh	r2, [r3, #8]
 2067 00e0 019B     		ldr	r3, [sp, #4]
 2068 00e2 1B8F     		ldrh	r3, [r3, #56]
 2069 00e4 9A42     		cmp	r2, r3
 2070 00e6 02D3     		bcc	.L124
 2071              	.L123:
 2072              		.loc 1 963 0 discriminator 1
 2073 00e8 4FF00103 		mov	r3, #1
 2074 00ec 01E0     		b	.L125
 2075              	.L124:
 2076              		.loc 1 963 0 discriminator 3
 2077 00ee 4FF00003 		mov	r3, #0
 2078              	.L125:
 2079 00f2 002B     		cmp	r3, #0
 2080 00f4 07D1     		bne	.L126
 2081              		.loc 1 964 0 is_stmt 1 discriminator 1
 2082 00f6 019B     		ldr	r3, [sp, #4]
 2083 00f8 93F82030 		ldrb	r3, [r3, #32]	@ zero_extendqisi2
 2084 00fc 03F0A003 		and	r3, r3, #160
 2085              		.loc 1 963 0 discriminator 1
 2086 0100 002B     		cmp	r3, #0
 2087 0102 00F0C280 		beq	.L140
 2088              	.L126:
 2089              		.loc 1 976 0
 2090 0106 079B     		ldr	r3, [sp, #28]
 2091 0108 1A68     		ldr	r2, [r3, #0]
 2092 010a 019B     		ldr	r3, [sp, #4]
 2093 010c 5A67     		str	r2, [r3, #116]
 2094              		.loc 1 978 0
 2095 010e 019B     		ldr	r3, [sp, #4]
ARM GAS  /tmp/ccKKWSFE.s 			page 38


 2096 0110 1B7C     		ldrb	r3, [r3, #16]	@ zero_extendqisi2
 2097 0112 022B     		cmp	r3, #2
 2098 0114 16D0     		beq	.L128
 2099              		.loc 1 979 0
 2100 0116 079B     		ldr	r3, [sp, #28]
 2101 0118 DC68     		ldr	r4, [r3, #12]
 2102 011a 079B     		ldr	r3, [sp, #28]
 2103 011c DB68     		ldr	r3, [r3, #12]
 2104 011e 9B89     		ldrh	r3, [r3, #12]	@ unaligned
 2105 0120 9DB2     		uxth	r5, r3
 2106 0122 4FF01000 		mov	r0, #16
 2107 0126 FFF7FEFF 		bl	lwip_htons
 2108 012a 0346     		mov	r3, r0
 2109 012c 2B43     		orrs	r3, r3, r5
 2110 012e 9BB2     		uxth	r3, r3
 2111 0130 A381     		strh	r3, [r4, #12]	@ unaligned
 2112              		.loc 1 980 0
 2113 0132 019B     		ldr	r3, [sp, #4]
 2114 0134 93F82030 		ldrb	r3, [r3, #32]	@ zero_extendqisi2
 2115 0138 23F00303 		bic	r3, r3, #3
 2116 013c DAB2     		uxtb	r2, r3
 2117 013e 019B     		ldr	r3, [sp, #4]
 2118 0140 83F82020 		strb	r2, [r3, #32]
 2119              	.L128:
 2120              		.loc 1 983 0
 2121 0144 0798     		ldr	r0, [sp, #28]
 2122 0146 0199     		ldr	r1, [sp, #4]
 2123 0148 FFF7FEFF 		bl	tcp_output_segment
 2124              		.loc 1 984 0
 2125 014c 079B     		ldr	r3, [sp, #28]
 2126 014e DB68     		ldr	r3, [r3, #12]
 2127 0150 5B68     		ldr	r3, [r3, #4]	@ unaligned
 2128 0152 1846     		mov	r0, r3
 2129 0154 FFF7FEFF 		bl	lwip_ntohl
 2130 0158 0446     		mov	r4, r0
 2131 015a 079B     		ldr	r3, [sp, #28]
 2132 015c 1B89     		ldrh	r3, [r3, #8]
 2133 015e 1D46     		mov	r5, r3
 2134 0160 079B     		ldr	r3, [sp, #28]
 2135 0162 DB68     		ldr	r3, [r3, #12]
 2136 0164 9B89     		ldrh	r3, [r3, #12]	@ unaligned
 2137 0166 9BB2     		uxth	r3, r3
 2138 0168 1846     		mov	r0, r3
 2139 016a FFF7FEFF 		bl	lwip_ntohs
 2140 016e 0346     		mov	r3, r0
 2141 0170 03F00303 		and	r3, r3, #3
 2142 0174 002B     		cmp	r3, #0
 2143 0176 0CBF     		ite	eq
 2144 0178 0023     		moveq	r3, #0
 2145 017a 0123     		movne	r3, #1
 2146 017c EB18     		adds	r3, r5, r3
 2147 017e E318     		adds	r3, r4, r3
 2148 0180 0393     		str	r3, [sp, #12]
 2149              		.loc 1 985 0
 2150 0182 019B     		ldr	r3, [sp, #4]
 2151 0184 9A6D     		ldr	r2, [r3, #88]
 2152 0186 039B     		ldr	r3, [sp, #12]
ARM GAS  /tmp/ccKKWSFE.s 			page 39


 2153 0188 D31A     		subs	r3, r2, r3
 2154 018a 002B     		cmp	r3, #0
 2155 018c 02DA     		bge	.L129
 2156              		.loc 1 986 0
 2157 018e 019B     		ldr	r3, [sp, #4]
 2158 0190 039A     		ldr	r2, [sp, #12]
 2159 0192 9A65     		str	r2, [r3, #88]
 2160              	.L129:
 2161              		.loc 1 989 0
 2162 0194 079B     		ldr	r3, [sp, #28]
 2163 0196 1B89     		ldrh	r3, [r3, #8]
 2164 0198 1C46     		mov	r4, r3
 2165 019a 079B     		ldr	r3, [sp, #28]
 2166 019c DB68     		ldr	r3, [r3, #12]
 2167 019e 9B89     		ldrh	r3, [r3, #12]	@ unaligned
 2168 01a0 9BB2     		uxth	r3, r3
 2169 01a2 1846     		mov	r0, r3
 2170 01a4 FFF7FEFF 		bl	lwip_ntohs
 2171 01a8 0346     		mov	r3, r0
 2172 01aa 03F00303 		and	r3, r3, #3
 2173 01ae 002B     		cmp	r3, #0
 2174 01b0 0CBF     		ite	eq
 2175 01b2 0023     		moveq	r3, #0
 2176 01b4 0123     		movne	r3, #1
 2177 01b6 E318     		adds	r3, r4, r3
 2178 01b8 002B     		cmp	r3, #0
 2179 01ba 4BDD     		ble	.L130
 2180              		.loc 1 990 0
 2181 01bc 079B     		ldr	r3, [sp, #28]
 2182 01be 4FF00002 		mov	r2, #0
 2183 01c2 1A60     		str	r2, [r3, #0]
 2184              		.loc 1 992 0
 2185 01c4 019B     		ldr	r3, [sp, #4]
 2186 01c6 9B6F     		ldr	r3, [r3, #120]
 2187 01c8 002B     		cmp	r3, #0
 2188 01ca 05D1     		bne	.L131
 2189              		.loc 1 993 0
 2190 01cc 019B     		ldr	r3, [sp, #4]
 2191 01ce 079A     		ldr	r2, [sp, #28]
 2192 01d0 9A67     		str	r2, [r3, #120]
 2193              		.loc 1 994 0
 2194 01d2 079B     		ldr	r3, [sp, #28]
 2195 01d4 0693     		str	r3, [sp, #24]
 2196 01d6 40E0     		b	.L132
 2197              	.L131:
 2198              		.loc 1 1000 0
 2199 01d8 079B     		ldr	r3, [sp, #28]
 2200 01da DB68     		ldr	r3, [r3, #12]
 2201 01dc 5B68     		ldr	r3, [r3, #4]	@ unaligned
 2202 01de 1846     		mov	r0, r3
 2203 01e0 FFF7FEFF 		bl	lwip_ntohl
 2204 01e4 0446     		mov	r4, r0
 2205 01e6 069B     		ldr	r3, [sp, #24]
 2206 01e8 DB68     		ldr	r3, [r3, #12]
 2207 01ea 5B68     		ldr	r3, [r3, #4]	@ unaligned
 2208 01ec 1846     		mov	r0, r3
 2209 01ee FFF7FEFF 		bl	lwip_ntohl
ARM GAS  /tmp/ccKKWSFE.s 			page 40


 2210 01f2 0346     		mov	r3, r0
 2211 01f4 E31A     		subs	r3, r4, r3
 2212 01f6 002B     		cmp	r3, #0
 2213 01f8 25DA     		bge	.L133
 2214              	.LBB13:
 2215              		.loc 1 1002 0
 2216 01fa 019B     		ldr	r3, [sp, #4]
 2217 01fc 03F17803 		add	r3, r3, #120
 2218 0200 0593     		str	r3, [sp, #20]
 2219              		.loc 1 1003 0
 2220 0202 02E0     		b	.L134
 2221              	.L136:
 2222              		.loc 1 1005 0
 2223 0204 059B     		ldr	r3, [sp, #20]
 2224 0206 1B68     		ldr	r3, [r3, #0]
 2225 0208 0593     		str	r3, [sp, #20]
 2226              	.L134:
 2227              		.loc 1 1003 0 discriminator 1
 2228 020a 059B     		ldr	r3, [sp, #20]
 2229 020c 1B68     		ldr	r3, [r3, #0]
 2230 020e 002B     		cmp	r3, #0
 2231 0210 11D0     		beq	.L135
 2232              		.loc 1 1004 0 discriminator 2
 2233 0212 059B     		ldr	r3, [sp, #20]
 2234 0214 1B68     		ldr	r3, [r3, #0]
 2235 0216 DB68     		ldr	r3, [r3, #12]
 2236 0218 5B68     		ldr	r3, [r3, #4]	@ unaligned
 2237 021a 1846     		mov	r0, r3
 2238 021c FFF7FEFF 		bl	lwip_ntohl
 2239 0220 0446     		mov	r4, r0
 2240 0222 079B     		ldr	r3, [sp, #28]
 2241 0224 DB68     		ldr	r3, [r3, #12]
 2242 0226 5B68     		ldr	r3, [r3, #4]	@ unaligned
 2243 0228 1846     		mov	r0, r3
 2244 022a FFF7FEFF 		bl	lwip_ntohl
 2245 022e 0346     		mov	r3, r0
 2246 0230 E31A     		subs	r3, r4, r3
 2247              		.loc 1 1003 0 discriminator 2
 2248 0232 002B     		cmp	r3, #0
 2249 0234 E6DB     		blt	.L136
 2250              	.L135:
 2251              		.loc 1 1007 0
 2252 0236 059B     		ldr	r3, [sp, #20]
 2253 0238 1A68     		ldr	r2, [r3, #0]
 2254 023a 079B     		ldr	r3, [sp, #28]
 2255 023c 1A60     		str	r2, [r3, #0]
 2256              		.loc 1 1008 0
 2257 023e 059B     		ldr	r3, [sp, #20]
 2258 0240 079A     		ldr	r2, [sp, #28]
 2259 0242 1A60     		str	r2, [r3, #0]
 2260 0244 09E0     		b	.L132
 2261              	.L133:
 2262              	.LBE13:
 2263              		.loc 1 1011 0
 2264 0246 069B     		ldr	r3, [sp, #24]
 2265 0248 079A     		ldr	r2, [sp, #28]
 2266 024a 1A60     		str	r2, [r3, #0]
ARM GAS  /tmp/ccKKWSFE.s 			page 41


 2267              		.loc 1 1012 0
 2268 024c 069B     		ldr	r3, [sp, #24]
 2269 024e 1B68     		ldr	r3, [r3, #0]
 2270 0250 0693     		str	r3, [sp, #24]
 2271 0252 02E0     		b	.L132
 2272              	.L130:
 2273              		.loc 1 1017 0
 2274 0254 0798     		ldr	r0, [sp, #28]
 2275 0256 FFF7FEFF 		bl	tcp_seg_free
 2276              	.L132:
 2277              		.loc 1 1019 0
 2278 025a 019B     		ldr	r3, [sp, #4]
 2279 025c 5B6F     		ldr	r3, [r3, #116]
 2280 025e 0793     		str	r3, [sp, #28]
 2281              	.L121:
 2282              		.loc 1 952 0 discriminator 1
 2283 0260 079B     		ldr	r3, [sp, #28]
 2284 0262 002B     		cmp	r3, #0
 2285 0264 12D0     		beq	.L127
 2286              		.loc 1 953 0 discriminator 2
 2287 0266 079B     		ldr	r3, [sp, #28]
 2288 0268 DB68     		ldr	r3, [r3, #12]
 2289 026a 5B68     		ldr	r3, [r3, #4]	@ unaligned
 2290 026c 1846     		mov	r0, r3
 2291 026e FFF7FEFF 		bl	lwip_ntohl
 2292 0272 0246     		mov	r2, r0
 2293 0274 019B     		ldr	r3, [sp, #4]
 2294 0276 DB6C     		ldr	r3, [r3, #76]
 2295 0278 D21A     		subs	r2, r2, r3
 2296 027a 079B     		ldr	r3, [sp, #28]
 2297 027c 1B89     		ldrh	r3, [r3, #8]
 2298 027e D218     		adds	r2, r2, r3
 2299              		.loc 1 952 0 discriminator 2
 2300 0280 049B     		ldr	r3, [sp, #16]
 2301 0282 9A42     		cmp	r2, r3
 2302 0284 7FF607AF 		bls	.L137
 2303 0288 00E0     		b	.L127
 2304              	.L140:
 2305              		.loc 1 965 0
 2306 028a 00BF     		nop
 2307              	.L127:
 2308              		.loc 1 1022 0
 2309 028c 019B     		ldr	r3, [sp, #4]
 2310 028e 5B6F     		ldr	r3, [r3, #116]
 2311 0290 002B     		cmp	r3, #0
 2312 0292 04D1     		bne	.L138
 2313              		.loc 1 1024 0
 2314 0294 019B     		ldr	r3, [sp, #4]
 2315 0296 4FF00002 		mov	r2, #0
 2316 029a A3F87220 		strh	r2, [r3, #114]	@ movhi
 2317              	.L138:
 2318              		.loc 1 1028 0
 2319 029e 079B     		ldr	r3, [sp, #28]
 2320 02a0 002B     		cmp	r3, #0
 2321 02a2 20D0     		beq	.L139
 2322              		.loc 1 1028 0 is_stmt 0 discriminator 1
 2323 02a4 019B     		ldr	r3, [sp, #4]
ARM GAS  /tmp/ccKKWSFE.s 			page 42


 2324 02a6 93F8A030 		ldrb	r3, [r3, #160]	@ zero_extendqisi2
 2325 02aa 002B     		cmp	r3, #0
 2326 02ac 1BD1     		bne	.L139
 2327              		.loc 1 1029 0 is_stmt 1 discriminator 1
 2328 02ae 079B     		ldr	r3, [sp, #28]
 2329 02b0 DB68     		ldr	r3, [r3, #12]
 2330 02b2 5B68     		ldr	r3, [r3, #4]	@ unaligned
 2331 02b4 1846     		mov	r0, r3
 2332 02b6 FFF7FEFF 		bl	lwip_ntohl
 2333 02ba 0246     		mov	r2, r0
 2334 02bc 019B     		ldr	r3, [sp, #4]
 2335 02be DB6C     		ldr	r3, [r3, #76]
 2336 02c0 D21A     		subs	r2, r2, r3
 2337 02c2 079B     		ldr	r3, [sp, #28]
 2338 02c4 1B89     		ldrh	r3, [r3, #8]
 2339 02c6 D218     		adds	r2, r2, r3
 2340 02c8 019B     		ldr	r3, [sp, #4]
 2341 02ca B3F85C30 		ldrh	r3, [r3, #92]
 2342              		.loc 1 1028 0 discriminator 1
 2343 02ce 9A42     		cmp	r2, r3
 2344 02d0 09D9     		bls	.L139
 2345              		.loc 1 1031 0
 2346 02d2 019B     		ldr	r3, [sp, #4]
 2347 02d4 4FF00002 		mov	r2, #0
 2348 02d8 C3F89C20 		str	r2, [r3, #156]
 2349              		.loc 1 1032 0
 2350 02dc 019B     		ldr	r3, [sp, #4]
 2351 02de 4FF00102 		mov	r2, #1
 2352 02e2 83F8A020 		strb	r2, [r3, #160]
 2353              	.L139:
 2354              		.loc 1 1035 0
 2355 02e6 019B     		ldr	r3, [sp, #4]
 2356 02e8 93F82030 		ldrb	r3, [r3, #32]	@ zero_extendqisi2
 2357 02ec 03F07F03 		and	r3, r3, #127
 2358 02f0 DAB2     		uxtb	r2, r3
 2359 02f2 019B     		ldr	r3, [sp, #4]
 2360 02f4 83F82020 		strb	r2, [r3, #32]
 2361              		.loc 1 1036 0
 2362 02f8 4FF00003 		mov	r3, #0
 2363              	.L115:
 2364 02fc 5BB2     		sxtb	r3, r3
 2365              		.loc 1 1037 0
 2366 02fe 1846     		mov	r0, r3
 2367 0300 09B0     		add	sp, sp, #36
 2368 0302 30BD     		pop	{r4, r5, pc}
 2369              		.cfi_endproc
 2370              	.LFE15:
 2371              		.size	tcp_output, .-tcp_output
 2372 0304 AFF30080 		.section	.text.tcp_output_segment,"ax",%progbits
 2372      AFF30080 
 2372      AFF30080 
 2373              		.align	2
 2374              		.p2align 4,,15
 2375              		.thumb
 2376              		.thumb_func
 2377              		.type	tcp_output_segment, %function
 2378              	tcp_output_segment:
ARM GAS  /tmp/ccKKWSFE.s 			page 43


 2379              	.LFB16:
 2380              		.loc 1 1047 0
 2381              		.cfi_startproc
 2382              		@ args = 0, pretend = 0, frame = 24
 2383              		@ frame_needed = 0, uses_anonymous_args = 0
 2384 0000 10B5     		push	{r4, lr}
 2385              	.LCFI18:
 2386              		.cfi_def_cfa_offset 8
 2387              		.cfi_offset 14, -4
 2388              		.cfi_offset 4, -8
 2389 0002 88B0     		sub	sp, sp, #32
 2390              	.LCFI19:
 2391              		.cfi_def_cfa_offset 40
 2392 0004 0390     		str	r0, [sp, #12]
 2393 0006 0291     		str	r1, [sp, #8]
 2394              		.loc 1 1057 0
 2395 0008 039B     		ldr	r3, [sp, #12]
 2396 000a DC68     		ldr	r4, [r3, #12]
 2397 000c 029B     		ldr	r3, [sp, #8]
 2398 000e 5B6A     		ldr	r3, [r3, #36]
 2399 0010 1846     		mov	r0, r3
 2400 0012 FFF7FEFF 		bl	lwip_htonl
 2401 0016 0346     		mov	r3, r0
 2402 0018 A360     		str	r3, [r4, #8]	@ unaligned
 2403              		.loc 1 1060 0
 2404 001a 039B     		ldr	r3, [sp, #12]
 2405 001c DC68     		ldr	r4, [r3, #12]
 2406 001e 029B     		ldr	r3, [sp, #8]
 2407 0020 5B8D     		ldrh	r3, [r3, #42]
 2408 0022 1846     		mov	r0, r3
 2409 0024 FFF7FEFF 		bl	lwip_htons
 2410 0028 0346     		mov	r3, r0
 2411 002a E381     		strh	r3, [r4, #14]	@ unaligned
 2412              		.loc 1 1062 0
 2413 002c 029B     		ldr	r3, [sp, #8]
 2414 002e 5A6A     		ldr	r2, [r3, #36]
 2415 0030 029B     		ldr	r3, [sp, #8]
 2416 0032 5B8D     		ldrh	r3, [r3, #42]
 2417 0034 D218     		adds	r2, r2, r3
 2418 0036 029B     		ldr	r3, [sp, #8]
 2419 0038 DA62     		str	r2, [r3, #44]
 2420              		.loc 1 1066 0
 2421 003a 039B     		ldr	r3, [sp, #12]
 2422 003c DB68     		ldr	r3, [r3, #12]
 2423 003e 03F00303 		and	r3, r3, #3
 2424 0042 002B     		cmp	r3, #0
 2425 0044 01D0     		beq	.L142
 2426              		.loc 1 1066 0 is_stmt 0 discriminator 1
 2427 0046 FFF7FEFF 		bl	port_halt
 2428              	.L142:
 2429              		.loc 1 1067 0 is_stmt 1
 2430 004a 039B     		ldr	r3, [sp, #12]
 2431 004c DB68     		ldr	r3, [r3, #12]
 2432 004e 03F11403 		add	r3, r3, #20
 2433 0052 0793     		str	r3, [sp, #28]
 2434              		.loc 1 1068 0
 2435 0054 039B     		ldr	r3, [sp, #12]
ARM GAS  /tmp/ccKKWSFE.s 			page 44


 2436 0056 9B7A     		ldrb	r3, [r3, #10]	@ zero_extendqisi2
 2437 0058 03F00103 		and	r3, r3, #1
 2438 005c DBB2     		uxtb	r3, r3
 2439 005e 002B     		cmp	r3, #0
 2440 0060 09D0     		beq	.L143
 2441              		.loc 1 1069 0
 2442 0062 079A     		ldr	r2, [sp, #28]
 2443 0064 40F20243 		movw	r3, #1026
 2444 0068 C1F60203 		movt	r3, 6146
 2445 006c 1360     		str	r3, [r2, #0]
 2446              		.loc 1 1070 0
 2447 006e 079B     		ldr	r3, [sp, #28]
 2448 0070 03F10403 		add	r3, r3, #4
 2449 0074 0793     		str	r3, [sp, #28]
 2450              	.L143:
 2451              		.loc 1 1083 0
 2452 0076 029B     		ldr	r3, [sp, #8]
 2453 0078 DB8E     		ldrh	r3, [r3, #54]
 2454 007a 1BB2     		sxth	r3, r3
 2455 007c B3F1FF3F 		cmp	r3, #-1
 2456 0080 03D1     		bne	.L144
 2457              		.loc 1 1084 0
 2458 0082 029B     		ldr	r3, [sp, #8]
 2459 0084 4FF00002 		mov	r2, #0
 2460 0088 DA86     		strh	r2, [r3, #54]	@ movhi
 2461              	.L144:
 2462              		.loc 1 1089 0
 2463 008a 029B     		ldr	r3, [sp, #8]
 2464 008c 002B     		cmp	r3, #0
 2465 008e 03D0     		beq	.L145
 2466              		.loc 1 1089 0 is_stmt 0 discriminator 1
 2467 0090 029B     		ldr	r3, [sp, #8]
 2468 0092 1B68     		ldr	r3, [r3, #0]
 2469 0094 002B     		cmp	r3, #0
 2470 0096 0ED1     		bne	.L146
 2471              	.L145:
 2472              		.loc 1 1090 0 is_stmt 1
 2473 0098 029B     		ldr	r3, [sp, #8]
 2474 009a 03F10403 		add	r3, r3, #4
 2475 009e 1846     		mov	r0, r3
 2476 00a0 FFF7FEFF 		bl	ip_route
 2477 00a4 0346     		mov	r3, r0
 2478 00a6 0693     		str	r3, [sp, #24]
 2479              		.loc 1 1091 0
 2480 00a8 069B     		ldr	r3, [sp, #24]
 2481 00aa 002B     		cmp	r3, #0
 2482 00ac 77D0     		beq	.L150
 2483              	.L147:
 2484              		.loc 1 1094 0
 2485 00ae 069B     		ldr	r3, [sp, #24]
 2486 00b0 5A68     		ldr	r2, [r3, #4]
 2487 00b2 029B     		ldr	r3, [sp, #8]
 2488 00b4 1A60     		str	r2, [r3, #0]
 2489              	.L146:
 2490              		.loc 1 1097 0
 2491 00b6 029B     		ldr	r3, [sp, #8]
 2492 00b8 DB6B     		ldr	r3, [r3, #60]
ARM GAS  /tmp/ccKKWSFE.s 			page 45


 2493 00ba 002B     		cmp	r3, #0
 2494 00bc 0FD1     		bne	.L149
 2495              		.loc 1 1098 0
 2496 00be 40F20003 		movw	r3, #:lower16:tcp_ticks
 2497 00c2 C0F20003 		movt	r3, #:upper16:tcp_ticks
 2498 00c6 1A68     		ldr	r2, [r3, #0]
 2499 00c8 029B     		ldr	r3, [sp, #8]
 2500 00ca DA63     		str	r2, [r3, #60]
 2501              		.loc 1 1099 0
 2502 00cc 039B     		ldr	r3, [sp, #12]
 2503 00ce DB68     		ldr	r3, [r3, #12]
 2504 00d0 5B68     		ldr	r3, [r3, #4]	@ unaligned
 2505 00d2 1846     		mov	r0, r3
 2506 00d4 FFF7FEFF 		bl	lwip_ntohl
 2507 00d8 0246     		mov	r2, r0
 2508 00da 029B     		ldr	r3, [sp, #8]
 2509 00dc 1A64     		str	r2, [r3, #64]
 2510              	.L149:
 2511              		.loc 1 1107 0
 2512 00de 039B     		ldr	r3, [sp, #12]
 2513 00e0 DB68     		ldr	r3, [r3, #12]
 2514 00e2 9AB2     		uxth	r2, r3
 2515 00e4 039B     		ldr	r3, [sp, #12]
 2516 00e6 5B68     		ldr	r3, [r3, #4]
 2517 00e8 5B68     		ldr	r3, [r3, #4]
 2518 00ea 9BB2     		uxth	r3, r3
 2519 00ec D31A     		subs	r3, r2, r3
 2520 00ee ADF81630 		strh	r3, [sp, #22]	@ movhi
 2521              		.loc 1 1109 0
 2522 00f2 039B     		ldr	r3, [sp, #12]
 2523 00f4 5B68     		ldr	r3, [r3, #4]
 2524 00f6 039A     		ldr	r2, [sp, #12]
 2525 00f8 5268     		ldr	r2, [r2, #4]
 2526 00fa 5189     		ldrh	r1, [r2, #10]
 2527 00fc BDF81620 		ldrh	r2, [sp, #22]	@ movhi
 2528 0100 8A1A     		subs	r2, r1, r2
 2529 0102 92B2     		uxth	r2, r2
 2530 0104 5A81     		strh	r2, [r3, #10]	@ movhi
 2531              		.loc 1 1110 0
 2532 0106 039B     		ldr	r3, [sp, #12]
 2533 0108 5B68     		ldr	r3, [r3, #4]
 2534 010a 039A     		ldr	r2, [sp, #12]
 2535 010c 5268     		ldr	r2, [r2, #4]
 2536 010e 1189     		ldrh	r1, [r2, #8]
 2537 0110 BDF81620 		ldrh	r2, [sp, #22]	@ movhi
 2538 0114 8A1A     		subs	r2, r1, r2
 2539 0116 92B2     		uxth	r2, r2
 2540 0118 1A81     		strh	r2, [r3, #8]	@ movhi
 2541              		.loc 1 1112 0
 2542 011a 039B     		ldr	r3, [sp, #12]
 2543 011c 5B68     		ldr	r3, [r3, #4]
 2544 011e 039A     		ldr	r2, [sp, #12]
 2545 0120 D268     		ldr	r2, [r2, #12]
 2546 0122 5A60     		str	r2, [r3, #4]
 2547              		.loc 1 1114 0
 2548 0124 039B     		ldr	r3, [sp, #12]
 2549 0126 DB68     		ldr	r3, [r3, #12]
ARM GAS  /tmp/ccKKWSFE.s 			page 46


 2550 0128 4FF00002 		mov	r2, #0
 2551 012c 1A74     		strb	r2, [r3, #16]
 2552 012e 4FF00002 		mov	r2, #0
 2553 0132 5A74     		strb	r2, [r3, #17]
 2554              		.loc 1 1150 0
 2555 0134 039B     		ldr	r3, [sp, #12]
 2556 0136 DC68     		ldr	r4, [r3, #12]
 2557 0138 039B     		ldr	r3, [sp, #12]
 2558 013a 5968     		ldr	r1, [r3, #4]
 2559 013c 029A     		ldr	r2, [sp, #8]
 2560 013e 029B     		ldr	r3, [sp, #8]
 2561 0140 03F10403 		add	r3, r3, #4
 2562              		.loc 1 1152 0
 2563 0144 0398     		ldr	r0, [sp, #12]
 2564 0146 4068     		ldr	r0, [r0, #4]
 2565              		.loc 1 1150 0
 2566 0148 0089     		ldrh	r0, [r0, #8]
 2567 014a 0090     		str	r0, [sp, #0]
 2568 014c 0846     		mov	r0, r1
 2569 014e 1146     		mov	r1, r2
 2570 0150 1A46     		mov	r2, r3
 2571 0152 4FF00603 		mov	r3, #6
 2572 0156 FFF7FEFF 		bl	inet_chksum_pseudo
 2573 015a 0346     		mov	r3, r0
 2574 015c 2382     		strh	r3, [r4, #16]	@ unaligned
 2575              		.loc 1 1155 0
 2576 015e 40F20003 		movw	r3, #:lower16:lwip_stats
 2577 0162 C0F20003 		movt	r3, #:upper16:lwip_stats
 2578 0166 B3F89030 		ldrh	r3, [r3, #144]
 2579 016a 03F10103 		add	r3, r3, #1
 2580 016e 9AB2     		uxth	r2, r3
 2581 0170 40F20003 		movw	r3, #:lower16:lwip_stats
 2582 0174 C0F20003 		movt	r3, #:upper16:lwip_stats
 2583 0178 A3F89020 		strh	r2, [r3, #144]	@ movhi
 2584              		.loc 1 1161 0
 2585 017c 039B     		ldr	r3, [sp, #12]
 2586 017e 5868     		ldr	r0, [r3, #4]
 2587 0180 0299     		ldr	r1, [sp, #8]
 2588 0182 029B     		ldr	r3, [sp, #8]
 2589 0184 03F10402 		add	r2, r3, #4
 2590 0188 029B     		ldr	r3, [sp, #8]
 2591 018a 9B7A     		ldrb	r3, [r3, #10]	@ zero_extendqisi2
 2592 018c 029C     		ldr	r4, [sp, #8]
 2593 018e 647A     		ldrb	r4, [r4, #9]	@ zero_extendqisi2
 2594 0190 0094     		str	r4, [sp, #0]
 2595 0192 4FF00604 		mov	r4, #6
 2596 0196 0194     		str	r4, [sp, #4]
 2597 0198 FFF7FEFF 		bl	ip_output
 2598 019c 00E0     		b	.L141
 2599              	.L150:
 2600              		.loc 1 1092 0
 2601 019e 00BF     		nop
 2602              	.L141:
 2603              		.loc 1 1164 0
 2604 01a0 08B0     		add	sp, sp, #32
 2605 01a2 10BD     		pop	{r4, pc}
 2606              		.cfi_endproc
ARM GAS  /tmp/ccKKWSFE.s 			page 47


 2607              	.LFE16:
 2608              		.size	tcp_output_segment, .-tcp_output_segment
 2609 01a4 AFF30080 		.section	.text.tcp_rst,"ax",%progbits
 2609      AFF30080 
 2609      AFF30080 
 2610              		.align	2
 2611              		.p2align 4,,15
 2612              		.global	tcp_rst
 2613              		.thumb
 2614              		.thumb_func
 2615              		.type	tcp_rst, %function
 2616              	tcp_rst:
 2617              	.LFB17:
 2618              		.loc 1 1190 0
 2619              		.cfi_startproc
 2620              		@ args = 8, pretend = 0, frame = 24
 2621              		@ frame_needed = 0, uses_anonymous_args = 0
 2622 0000 00B5     		push	{lr}
 2623              	.LCFI20:
 2624              		.cfi_def_cfa_offset 4
 2625              		.cfi_offset 14, -4
 2626 0002 89B0     		sub	sp, sp, #36
 2627              	.LCFI21:
 2628              		.cfi_def_cfa_offset 40
 2629 0004 0590     		str	r0, [sp, #20]
 2630 0006 0491     		str	r1, [sp, #16]
 2631 0008 0392     		str	r2, [sp, #12]
 2632 000a 0293     		str	r3, [sp, #8]
 2633              		.loc 1 1193 0
 2634 000c 4FF00100 		mov	r0, #1
 2635 0010 4FF01401 		mov	r1, #20
 2636 0014 4FF00002 		mov	r2, #0
 2637 0018 FFF7FEFF 		bl	pbuf_alloc
 2638 001c 0346     		mov	r3, r0
 2639 001e 0793     		str	r3, [sp, #28]
 2640              		.loc 1 1194 0
 2641 0020 079B     		ldr	r3, [sp, #28]
 2642 0022 002B     		cmp	r3, #0
 2643 0024 75D0     		beq	.L155
 2644              	.L152:
 2645              		.loc 1 1198 0
 2646 0026 079B     		ldr	r3, [sp, #28]
 2647 0028 5B89     		ldrh	r3, [r3, #10]
 2648 002a 132B     		cmp	r3, #19
 2649 002c 01D8     		bhi	.L154
 2650              		.loc 1 1198 0 is_stmt 0 discriminator 1
 2651 002e FFF7FEFF 		bl	port_halt
 2652              	.L154:
 2653              		.loc 1 1201 0 is_stmt 1
 2654 0032 079B     		ldr	r3, [sp, #28]
 2655 0034 5B68     		ldr	r3, [r3, #4]
 2656 0036 0693     		str	r3, [sp, #24]
 2657              		.loc 1 1202 0
 2658 0038 BDF82830 		ldrh	r3, [sp, #40]
 2659 003c 1846     		mov	r0, r3
 2660 003e FFF7FEFF 		bl	lwip_htons
 2661 0042 0346     		mov	r3, r0
ARM GAS  /tmp/ccKKWSFE.s 			page 48


 2662 0044 1A46     		mov	r2, r3
 2663 0046 069B     		ldr	r3, [sp, #24]
 2664 0048 1A80     		strh	r2, [r3, #0]	@ unaligned
 2665              		.loc 1 1203 0
 2666 004a BDF82C30 		ldrh	r3, [sp, #44]
 2667 004e 1846     		mov	r0, r3
 2668 0050 FFF7FEFF 		bl	lwip_htons
 2669 0054 0346     		mov	r3, r0
 2670 0056 1A46     		mov	r2, r3
 2671 0058 069B     		ldr	r3, [sp, #24]
 2672 005a 5A80     		strh	r2, [r3, #2]	@ unaligned
 2673              		.loc 1 1204 0
 2674 005c 0598     		ldr	r0, [sp, #20]
 2675 005e FFF7FEFF 		bl	lwip_htonl
 2676 0062 0246     		mov	r2, r0
 2677 0064 069B     		ldr	r3, [sp, #24]
 2678 0066 5A60     		str	r2, [r3, #4]	@ unaligned
 2679              		.loc 1 1205 0
 2680 0068 0498     		ldr	r0, [sp, #16]
 2681 006a FFF7FEFF 		bl	lwip_htonl
 2682 006e 0246     		mov	r2, r0
 2683 0070 069B     		ldr	r3, [sp, #24]
 2684 0072 9A60     		str	r2, [r3, #8]	@ unaligned
 2685              		.loc 1 1206 0
 2686 0074 45F21400 		movw	r0, #20500
 2687 0078 FFF7FEFF 		bl	lwip_htons
 2688 007c 0346     		mov	r3, r0
 2689 007e 1A46     		mov	r2, r3
 2690 0080 069B     		ldr	r3, [sp, #24]
 2691 0082 9A81     		strh	r2, [r3, #12]	@ unaligned
 2692              		.loc 1 1207 0
 2693 0084 069B     		ldr	r3, [sp, #24]
 2694 0086 4FF00002 		mov	r2, #0
 2695 008a 42F00802 		orr	r2, r2, #8
 2696 008e 9A73     		strb	r2, [r3, #14]
 2697 0090 4FF00002 		mov	r2, #0
 2698 0094 42F06002 		orr	r2, r2, #96
 2699 0098 DA73     		strb	r2, [r3, #15]
 2700              		.loc 1 1208 0
 2701 009a 069B     		ldr	r3, [sp, #24]
 2702 009c 4FF00002 		mov	r2, #0
 2703 00a0 1A74     		strb	r2, [r3, #16]
 2704 00a2 4FF00002 		mov	r2, #0
 2705 00a6 5A74     		strb	r2, [r3, #17]
 2706              		.loc 1 1209 0
 2707 00a8 069B     		ldr	r3, [sp, #24]
 2708 00aa 4FF00002 		mov	r2, #0
 2709 00ae 9A74     		strb	r2, [r3, #18]
 2710 00b0 4FF00002 		mov	r2, #0
 2711 00b4 DA74     		strb	r2, [r3, #19]
 2712              		.loc 1 1213 0
 2713 00b6 079B     		ldr	r3, [sp, #28]
 2714              		.loc 1 1212 0
 2715 00b8 1B89     		ldrh	r3, [r3, #8]
 2716 00ba 0093     		str	r3, [sp, #0]
 2717 00bc 0798     		ldr	r0, [sp, #28]
 2718 00be 0399     		ldr	r1, [sp, #12]
ARM GAS  /tmp/ccKKWSFE.s 			page 49


 2719 00c0 029A     		ldr	r2, [sp, #8]
 2720 00c2 4FF00603 		mov	r3, #6
 2721 00c6 FFF7FEFF 		bl	inet_chksum_pseudo
 2722 00ca 0346     		mov	r3, r0
 2723 00cc 1A46     		mov	r2, r3
 2724 00ce 069B     		ldr	r3, [sp, #24]
 2725 00d0 1A82     		strh	r2, [r3, #16]	@ unaligned
 2726              		.loc 1 1215 0
 2727 00d2 40F20003 		movw	r3, #:lower16:lwip_stats
 2728 00d6 C0F20003 		movt	r3, #:upper16:lwip_stats
 2729 00da B3F89030 		ldrh	r3, [r3, #144]
 2730 00de 03F10103 		add	r3, r3, #1
 2731 00e2 9AB2     		uxth	r2, r3
 2732 00e4 40F20003 		movw	r3, #:lower16:lwip_stats
 2733 00e8 C0F20003 		movt	r3, #:upper16:lwip_stats
 2734 00ec A3F89020 		strh	r2, [r3, #144]	@ movhi
 2735              		.loc 1 1218 0
 2736 00f0 4FF00003 		mov	r3, #0
 2737 00f4 0093     		str	r3, [sp, #0]
 2738 00f6 4FF00603 		mov	r3, #6
 2739 00fa 0193     		str	r3, [sp, #4]
 2740 00fc 0798     		ldr	r0, [sp, #28]
 2741 00fe 0399     		ldr	r1, [sp, #12]
 2742 0100 029A     		ldr	r2, [sp, #8]
 2743 0102 4FF0FF03 		mov	r3, #255
 2744 0106 FFF7FEFF 		bl	ip_output
 2745              		.loc 1 1219 0
 2746 010a 0798     		ldr	r0, [sp, #28]
 2747 010c FFF7FEFF 		bl	pbuf_free
 2748 0110 00E0     		b	.L151
 2749              	.L155:
 2750              		.loc 1 1196 0
 2751 0112 00BF     		nop
 2752              	.L151:
 2753              		.loc 1 1221 0
 2754 0114 09B0     		add	sp, sp, #36
 2755 0116 00BD     		pop	{pc}
 2756              		.cfi_endproc
 2757              	.LFE17:
 2758              		.size	tcp_rst, .-tcp_rst
 2759 0118 AFF30080 		.section	.text.tcp_rexmit_rto,"ax",%progbits
 2759      AFF30080 
 2760              		.align	2
 2761              		.p2align 4,,15
 2762              		.global	tcp_rexmit_rto
 2763              		.thumb
 2764              		.thumb_func
 2765              		.type	tcp_rexmit_rto, %function
 2766              	tcp_rexmit_rto:
 2767              	.LFB18:
 2768              		.loc 1 1232 0
 2769              		.cfi_startproc
 2770              		@ args = 0, pretend = 0, frame = 16
 2771              		@ frame_needed = 0, uses_anonymous_args = 0
 2772 0000 00B5     		push	{lr}
 2773              	.LCFI22:
 2774              		.cfi_def_cfa_offset 4
ARM GAS  /tmp/ccKKWSFE.s 			page 50


 2775              		.cfi_offset 14, -4
 2776 0002 85B0     		sub	sp, sp, #20
 2777              	.LCFI23:
 2778              		.cfi_def_cfa_offset 24
 2779 0004 0190     		str	r0, [sp, #4]
 2780              		.loc 1 1235 0
 2781 0006 019B     		ldr	r3, [sp, #4]
 2782 0008 9B6F     		ldr	r3, [r3, #120]
 2783 000a 002B     		cmp	r3, #0
 2784 000c 27D0     		beq	.L161
 2785              	.L157:
 2786              		.loc 1 1240 0
 2787 000e 019B     		ldr	r3, [sp, #4]
 2788 0010 9B6F     		ldr	r3, [r3, #120]
 2789 0012 0393     		str	r3, [sp, #12]
 2790 0014 02E0     		b	.L159
 2791              	.L160:
 2792              		.loc 1 1240 0 is_stmt 0 discriminator 2
 2793 0016 039B     		ldr	r3, [sp, #12]
 2794 0018 1B68     		ldr	r3, [r3, #0]
 2795 001a 0393     		str	r3, [sp, #12]
 2796              	.L159:
 2797              		.loc 1 1240 0 discriminator 1
 2798 001c 039B     		ldr	r3, [sp, #12]
 2799 001e 1B68     		ldr	r3, [r3, #0]
 2800 0020 002B     		cmp	r3, #0
 2801 0022 F8D1     		bne	.L160
 2802              		.loc 1 1242 0 is_stmt 1
 2803 0024 019B     		ldr	r3, [sp, #4]
 2804 0026 5A6F     		ldr	r2, [r3, #116]
 2805 0028 039B     		ldr	r3, [sp, #12]
 2806 002a 1A60     		str	r2, [r3, #0]
 2807              		.loc 1 1244 0
 2808 002c 019B     		ldr	r3, [sp, #4]
 2809 002e 9A6F     		ldr	r2, [r3, #120]
 2810 0030 019B     		ldr	r3, [sp, #4]
 2811 0032 5A67     		str	r2, [r3, #116]
 2812              		.loc 1 1246 0
 2813 0034 019B     		ldr	r3, [sp, #4]
 2814 0036 4FF00002 		mov	r2, #0
 2815 003a 9A67     		str	r2, [r3, #120]
 2816              		.loc 1 1249 0
 2817 003c 019B     		ldr	r3, [sp, #4]
 2818 003e 93F84A30 		ldrb	r3, [r3, #74]	@ zero_extendqisi2
 2819 0042 03F10103 		add	r3, r3, #1
 2820 0046 DAB2     		uxtb	r2, r3
 2821 0048 019B     		ldr	r3, [sp, #4]
 2822 004a 83F84A20 		strb	r2, [r3, #74]
 2823              		.loc 1 1252 0
 2824 004e 019B     		ldr	r3, [sp, #4]
 2825 0050 4FF00002 		mov	r2, #0
 2826 0054 DA63     		str	r2, [r3, #60]
 2827              		.loc 1 1255 0
 2828 0056 0198     		ldr	r0, [sp, #4]
 2829 0058 FFF7FEFF 		bl	tcp_output
 2830 005c 00E0     		b	.L156
 2831              	.L161:
ARM GAS  /tmp/ccKKWSFE.s 			page 51


 2832              		.loc 1 1236 0
 2833 005e 00BF     		nop
 2834              	.L156:
 2835              		.loc 1 1256 0
 2836 0060 05B0     		add	sp, sp, #20
 2837 0062 00BD     		pop	{pc}
 2838              		.cfi_endproc
 2839              	.LFE18:
 2840              		.size	tcp_rexmit_rto, .-tcp_rexmit_rto
 2841 0064 AFF30080 		.section	.text.tcp_rexmit,"ax",%progbits
 2841      AFF30080 
 2841      AFF30080 
 2842              		.align	2
 2843              		.p2align 4,,15
 2844              		.global	tcp_rexmit
 2845              		.thumb
 2846              		.thumb_func
 2847              		.type	tcp_rexmit, %function
 2848              	tcp_rexmit:
 2849              	.LFB19:
 2850              		.loc 1 1267 0
 2851              		.cfi_startproc
 2852              		@ args = 0, pretend = 0, frame = 16
 2853              		@ frame_needed = 0, uses_anonymous_args = 0
 2854 0000 10B5     		push	{r4, lr}
 2855              	.LCFI24:
 2856              		.cfi_def_cfa_offset 8
 2857              		.cfi_offset 14, -4
 2858              		.cfi_offset 4, -8
 2859 0002 84B0     		sub	sp, sp, #16
 2860              	.LCFI25:
 2861              		.cfi_def_cfa_offset 24
 2862 0004 0190     		str	r0, [sp, #4]
 2863              		.loc 1 1271 0
 2864 0006 019B     		ldr	r3, [sp, #4]
 2865 0008 9B6F     		ldr	r3, [r3, #120]
 2866 000a 002B     		cmp	r3, #0
 2867 000c 39D0     		beq	.L168
 2868              	.L163:
 2869              		.loc 1 1277 0
 2870 000e 019B     		ldr	r3, [sp, #4]
 2871 0010 9B6F     		ldr	r3, [r3, #120]
 2872 0012 0293     		str	r3, [sp, #8]
 2873              		.loc 1 1278 0
 2874 0014 029B     		ldr	r3, [sp, #8]
 2875 0016 1A68     		ldr	r2, [r3, #0]
 2876 0018 019B     		ldr	r3, [sp, #4]
 2877 001a 9A67     		str	r2, [r3, #120]
 2878              		.loc 1 1280 0
 2879 001c 019B     		ldr	r3, [sp, #4]
 2880 001e 03F17403 		add	r3, r3, #116
 2881 0022 0393     		str	r3, [sp, #12]
 2882              		.loc 1 1281 0
 2883 0024 02E0     		b	.L165
 2884              	.L167:
 2885              		.loc 1 1283 0
 2886 0026 039B     		ldr	r3, [sp, #12]
ARM GAS  /tmp/ccKKWSFE.s 			page 52


 2887 0028 1B68     		ldr	r3, [r3, #0]
 2888 002a 0393     		str	r3, [sp, #12]
 2889              	.L165:
 2890              		.loc 1 1281 0 discriminator 1
 2891 002c 039B     		ldr	r3, [sp, #12]
 2892 002e 1B68     		ldr	r3, [r3, #0]
 2893 0030 002B     		cmp	r3, #0
 2894 0032 11D0     		beq	.L166
 2895              		.loc 1 1282 0 discriminator 2
 2896 0034 039B     		ldr	r3, [sp, #12]
 2897 0036 1B68     		ldr	r3, [r3, #0]
 2898 0038 DB68     		ldr	r3, [r3, #12]
 2899 003a 5B68     		ldr	r3, [r3, #4]	@ unaligned
 2900 003c 1846     		mov	r0, r3
 2901 003e FFF7FEFF 		bl	lwip_ntohl
 2902 0042 0446     		mov	r4, r0
 2903 0044 029B     		ldr	r3, [sp, #8]
 2904 0046 DB68     		ldr	r3, [r3, #12]
 2905 0048 5B68     		ldr	r3, [r3, #4]	@ unaligned
 2906 004a 1846     		mov	r0, r3
 2907 004c FFF7FEFF 		bl	lwip_ntohl
 2908 0050 0346     		mov	r3, r0
 2909 0052 E31A     		subs	r3, r4, r3
 2910              		.loc 1 1281 0 discriminator 2
 2911 0054 002B     		cmp	r3, #0
 2912 0056 E6DB     		blt	.L167
 2913              	.L166:
 2914              		.loc 1 1285 0
 2915 0058 039B     		ldr	r3, [sp, #12]
 2916 005a 1A68     		ldr	r2, [r3, #0]
 2917 005c 029B     		ldr	r3, [sp, #8]
 2918 005e 1A60     		str	r2, [r3, #0]
 2919              		.loc 1 1286 0
 2920 0060 039B     		ldr	r3, [sp, #12]
 2921 0062 029A     		ldr	r2, [sp, #8]
 2922 0064 1A60     		str	r2, [r3, #0]
 2923              		.loc 1 1288 0
 2924 0066 019B     		ldr	r3, [sp, #4]
 2925 0068 93F84A30 		ldrb	r3, [r3, #74]	@ zero_extendqisi2
 2926 006c 03F10103 		add	r3, r3, #1
 2927 0070 DAB2     		uxtb	r2, r3
 2928 0072 019B     		ldr	r3, [sp, #4]
 2929 0074 83F84A20 		strb	r2, [r3, #74]
 2930              		.loc 1 1291 0
 2931 0078 019B     		ldr	r3, [sp, #4]
 2932 007a 4FF00002 		mov	r2, #0
 2933 007e DA63     		str	r2, [r3, #60]
 2934 0080 00E0     		b	.L162
 2935              	.L168:
 2936              		.loc 1 1272 0
 2937 0082 00BF     		nop
 2938              	.L162:
 2939              		.loc 1 1297 0
 2940 0084 04B0     		add	sp, sp, #16
 2941 0086 10BD     		pop	{r4, pc}
 2942              		.cfi_endproc
 2943              	.LFE19:
ARM GAS  /tmp/ccKKWSFE.s 			page 53


 2944              		.size	tcp_rexmit, .-tcp_rexmit
 2945 0088 AFF30080 		.section	.text.tcp_rexmit_fast,"ax",%progbits
 2945      AFF30080 
 2946              		.align	2
 2947              		.p2align 4,,15
 2948              		.global	tcp_rexmit_fast
 2949              		.thumb
 2950              		.thumb_func
 2951              		.type	tcp_rexmit_fast, %function
 2952              	tcp_rexmit_fast:
 2953              	.LFB20:
 2954              		.loc 1 1307 0
 2955              		.cfi_startproc
 2956              		@ args = 0, pretend = 0, frame = 8
 2957              		@ frame_needed = 0, uses_anonymous_args = 0
 2958 0000 00B5     		push	{lr}
 2959              	.LCFI26:
 2960              		.cfi_def_cfa_offset 4
 2961              		.cfi_offset 14, -4
 2962 0002 83B0     		sub	sp, sp, #12
 2963              	.LCFI27:
 2964              		.cfi_def_cfa_offset 16
 2965 0004 0190     		str	r0, [sp, #4]
 2966              		.loc 1 1308 0
 2967 0006 019B     		ldr	r3, [sp, #4]
 2968 0008 9B6F     		ldr	r3, [r3, #120]
 2969 000a 002B     		cmp	r3, #0
 2970 000c 4ED0     		beq	.L169
 2971              		.loc 1 1308 0 is_stmt 0 discriminator 1
 2972 000e 019B     		ldr	r3, [sp, #4]
 2973 0010 93F82030 		ldrb	r3, [r3, #32]	@ zero_extendqisi2
 2974 0014 03F00403 		and	r3, r3, #4
 2975 0018 002B     		cmp	r3, #0
 2976 001a 47D1     		bne	.L169
 2977              		.loc 1 1315 0 is_stmt 1
 2978 001c 0198     		ldr	r0, [sp, #4]
 2979 001e FFF7FEFF 		bl	tcp_rexmit
 2980              		.loc 1 1319 0
 2981 0022 019B     		ldr	r3, [sp, #4]
 2982 0024 B3F85220 		ldrh	r2, [r3, #82]
 2983 0028 019B     		ldr	r3, [sp, #4]
 2984 002a B3F85C30 		ldrh	r3, [r3, #92]
 2985 002e 9A42     		cmp	r2, r3
 2986 0030 09D9     		bls	.L171
 2987              		.loc 1 1320 0
 2988 0032 019B     		ldr	r3, [sp, #4]
 2989 0034 B3F85C30 		ldrh	r3, [r3, #92]
 2990 0038 4FEA5303 		lsr	r3, r3, #1
 2991 003c 9AB2     		uxth	r2, r3
 2992 003e 019B     		ldr	r3, [sp, #4]
 2993 0040 A3F85420 		strh	r2, [r3, #84]	@ movhi
 2994 0044 08E0     		b	.L172
 2995              	.L171:
 2996              		.loc 1 1322 0
 2997 0046 019B     		ldr	r3, [sp, #4]
 2998 0048 B3F85230 		ldrh	r3, [r3, #82]
 2999 004c 4FEA5303 		lsr	r3, r3, #1
ARM GAS  /tmp/ccKKWSFE.s 			page 54


 3000 0050 9AB2     		uxth	r2, r3
 3001 0052 019B     		ldr	r3, [sp, #4]
 3002 0054 A3F85420 		strh	r2, [r3, #84]	@ movhi
 3003              	.L172:
 3004              		.loc 1 1326 0
 3005 0058 019B     		ldr	r3, [sp, #4]
 3006 005a B3F85430 		ldrh	r3, [r3, #84]
 3007 005e 1A46     		mov	r2, r3
 3008 0060 019B     		ldr	r3, [sp, #4]
 3009 0062 1B8F     		ldrh	r3, [r3, #56]
 3010 0064 4FEA4303 		lsl	r3, r3, #1
 3011 0068 9A42     		cmp	r2, r3
 3012 006a 07DA     		bge	.L173
 3013              		.loc 1 1331 0
 3014 006c 019B     		ldr	r3, [sp, #4]
 3015 006e 1B8F     		ldrh	r3, [r3, #56]
 3016 0070 4FEA4303 		lsl	r3, r3, #1
 3017 0074 9AB2     		uxth	r2, r3
 3018 0076 019B     		ldr	r3, [sp, #4]
 3019 0078 A3F85420 		strh	r2, [r3, #84]	@ movhi
 3020              	.L173:
 3021              		.loc 1 1334 0
 3022 007c 019B     		ldr	r3, [sp, #4]
 3023 007e B3F85420 		ldrh	r2, [r3, #84]
 3024 0082 019B     		ldr	r3, [sp, #4]
 3025 0084 1B8F     		ldrh	r3, [r3, #56]
 3026 0086 1946     		mov	r1, r3	@ movhi
 3027 0088 4FEA4101 		lsl	r1, r1, #1
 3028 008c CB18     		adds	r3, r1, r3
 3029 008e 9BB2     		uxth	r3, r3
 3030 0090 D318     		adds	r3, r2, r3
 3031 0092 9AB2     		uxth	r2, r3
 3032 0094 019B     		ldr	r3, [sp, #4]
 3033 0096 A3F85220 		strh	r2, [r3, #82]	@ movhi
 3034              		.loc 1 1335 0
 3035 009a 019B     		ldr	r3, [sp, #4]
 3036 009c 93F82030 		ldrb	r3, [r3, #32]	@ zero_extendqisi2
 3037 00a0 43F00403 		orr	r3, r3, #4
 3038 00a4 DAB2     		uxtb	r2, r3
 3039 00a6 019B     		ldr	r3, [sp, #4]
 3040 00a8 83F82020 		strb	r2, [r3, #32]
 3041              	.L169:
 3042              		.loc 1 1337 0
 3043 00ac 03B0     		add	sp, sp, #12
 3044 00ae 00BD     		pop	{pc}
 3045              		.cfi_endproc
 3046              	.LFE20:
 3047              		.size	tcp_rexmit_fast, .-tcp_rexmit_fast
 3048              		.section	.text.tcp_keepalive,"ax",%progbits
 3049              		.align	2
 3050              		.p2align 4,,15
 3051              		.global	tcp_keepalive
 3052              		.thumb
 3053              		.thumb_func
 3054              		.type	tcp_keepalive, %function
 3055              	tcp_keepalive:
 3056              	.LFB21:
ARM GAS  /tmp/ccKKWSFE.s 			page 55


 3057              		.loc 1 1350 0
 3058              		.cfi_startproc
 3059              		@ args = 0, pretend = 0, frame = 16
 3060              		@ frame_needed = 0, uses_anonymous_args = 0
 3061 0000 00B5     		push	{lr}
 3062              	.LCFI28:
 3063              		.cfi_def_cfa_offset 4
 3064              		.cfi_offset 14, -4
 3065 0002 87B0     		sub	sp, sp, #28
 3066              	.LCFI29:
 3067              		.cfi_def_cfa_offset 32
 3068 0004 0390     		str	r0, [sp, #12]
 3069              		.loc 1 1361 0
 3070 0006 039B     		ldr	r3, [sp, #12]
 3071 0008 9B6D     		ldr	r3, [r3, #88]
 3072 000a 03F1FF33 		add	r3, r3, #-1
 3073 000e 1846     		mov	r0, r3
 3074 0010 FFF7FEFF 		bl	lwip_htonl
 3075 0014 0346     		mov	r3, r0
 3076 0016 0398     		ldr	r0, [sp, #12]
 3077 0018 4FF00001 		mov	r1, #0
 3078 001c 4FF00002 		mov	r2, #0
 3079 0020 FFF7FEFF 		bl	tcp_output_alloc_header
 3080 0024 0346     		mov	r3, r0
 3081 0026 0593     		str	r3, [sp, #20]
 3082              		.loc 1 1362 0
 3083 0028 059B     		ldr	r3, [sp, #20]
 3084 002a 002B     		cmp	r3, #0
 3085 002c 36D0     		beq	.L177
 3086              	.L175:
 3087              		.loc 1 1367 0
 3088 002e 059B     		ldr	r3, [sp, #20]
 3089 0030 5B68     		ldr	r3, [r3, #4]
 3090 0032 0493     		str	r3, [sp, #16]
 3091              		.loc 1 1370 0
 3092 0034 039A     		ldr	r2, [sp, #12]
 3093 0036 039B     		ldr	r3, [sp, #12]
 3094 0038 03F10403 		add	r3, r3, #4
 3095              		.loc 1 1371 0
 3096 003c 0599     		ldr	r1, [sp, #20]
 3097              		.loc 1 1370 0
 3098 003e 0989     		ldrh	r1, [r1, #8]
 3099 0040 0091     		str	r1, [sp, #0]
 3100 0042 0598     		ldr	r0, [sp, #20]
 3101 0044 1146     		mov	r1, r2
 3102 0046 1A46     		mov	r2, r3
 3103 0048 4FF00603 		mov	r3, #6
 3104 004c FFF7FEFF 		bl	inet_chksum_pseudo
 3105 0050 0346     		mov	r3, r0
 3106 0052 1A46     		mov	r2, r3
 3107 0054 049B     		ldr	r3, [sp, #16]
 3108 0056 1A82     		strh	r2, [r3, #16]	@ unaligned
 3109              		.loc 1 1373 0
 3110 0058 40F20003 		movw	r3, #:lower16:lwip_stats
 3111 005c C0F20003 		movt	r3, #:upper16:lwip_stats
 3112 0060 B3F89030 		ldrh	r3, [r3, #144]
 3113 0064 03F10103 		add	r3, r3, #1
ARM GAS  /tmp/ccKKWSFE.s 			page 56


 3114 0068 9AB2     		uxth	r2, r3
 3115 006a 40F20003 		movw	r3, #:lower16:lwip_stats
 3116 006e C0F20003 		movt	r3, #:upper16:lwip_stats
 3117 0072 A3F89020 		strh	r2, [r3, #144]	@ movhi
 3118              		.loc 1 1380 0
 3119 0076 0399     		ldr	r1, [sp, #12]
 3120 0078 039B     		ldr	r3, [sp, #12]
 3121 007a 03F10402 		add	r2, r3, #4
 3122 007e 039B     		ldr	r3, [sp, #12]
 3123 0080 9B7A     		ldrb	r3, [r3, #10]	@ zero_extendqisi2
 3124 0082 4FF00000 		mov	r0, #0
 3125 0086 0090     		str	r0, [sp, #0]
 3126 0088 4FF00600 		mov	r0, #6
 3127 008c 0190     		str	r0, [sp, #4]
 3128 008e 0598     		ldr	r0, [sp, #20]
 3129 0090 FFF7FEFF 		bl	ip_output
 3130              		.loc 1 1383 0
 3131 0094 0598     		ldr	r0, [sp, #20]
 3132 0096 FFF7FEFF 		bl	pbuf_free
 3133 009a 00E0     		b	.L174
 3134              	.L177:
 3135              		.loc 1 1365 0
 3136 009c 00BF     		nop
 3137              	.L174:
 3138              		.loc 1 1387 0
 3139 009e 07B0     		add	sp, sp, #28
 3140 00a0 00BD     		pop	{pc}
 3141              		.cfi_endproc
 3142              	.LFE21:
 3143              		.size	tcp_keepalive, .-tcp_keepalive
 3144 00a2 00BFAFF3 		.section	.text.tcp_zero_window_probe,"ax",%progbits
 3144      0080AFF3 
 3144      0080AFF3 
 3144      0080
 3145              		.align	2
 3146              		.p2align 4,,15
 3147              		.global	tcp_zero_window_probe
 3148              		.thumb
 3149              		.thumb_func
 3150              		.type	tcp_zero_window_probe, %function
 3151              	tcp_zero_window_probe:
 3152              	.LFB22:
 3153              		.loc 1 1400 0
 3154              		.cfi_startproc
 3155              		@ args = 0, pretend = 0, frame = 32
 3156              		@ frame_needed = 0, uses_anonymous_args = 0
 3157 0000 10B5     		push	{r4, lr}
 3158              	.LCFI30:
 3159              		.cfi_def_cfa_offset 8
 3160              		.cfi_offset 14, -4
 3161              		.cfi_offset 4, -8
 3162 0002 8AB0     		sub	sp, sp, #40
 3163              	.LCFI31:
 3164              		.cfi_def_cfa_offset 48
 3165 0004 0390     		str	r0, [sp, #12]
 3166              		.loc 1 1418 0
 3167 0006 039B     		ldr	r3, [sp, #12]
ARM GAS  /tmp/ccKKWSFE.s 			page 57


 3168 0008 9B6F     		ldr	r3, [r3, #120]
 3169 000a 0993     		str	r3, [sp, #36]
 3170              		.loc 1 1420 0
 3171 000c 099B     		ldr	r3, [sp, #36]
 3172 000e 002B     		cmp	r3, #0
 3173 0010 02D1     		bne	.L179
 3174              		.loc 1 1421 0
 3175 0012 039B     		ldr	r3, [sp, #12]
 3176 0014 5B6F     		ldr	r3, [r3, #116]
 3177 0016 0993     		str	r3, [sp, #36]
 3178              	.L179:
 3179              		.loc 1 1423 0
 3180 0018 099B     		ldr	r3, [sp, #36]
 3181 001a 002B     		cmp	r3, #0
 3182 001c 00F09C80 		beq	.L187
 3183              	.L180:
 3184              		.loc 1 1427 0
 3185 0020 099B     		ldr	r3, [sp, #36]
 3186 0022 DB68     		ldr	r3, [r3, #12]
 3187 0024 9B89     		ldrh	r3, [r3, #12]	@ unaligned
 3188 0026 9BB2     		uxth	r3, r3
 3189 0028 1846     		mov	r0, r3
 3190 002a FFF7FEFF 		bl	lwip_ntohs
 3191 002e 0346     		mov	r3, r0
 3192 0030 03F00103 		and	r3, r3, #1
 3193 0034 DBB2     		uxtb	r3, r3
 3194 0036 002B     		cmp	r3, #0
 3195 0038 06D0     		beq	.L182
 3196              		.loc 1 1427 0 is_stmt 0 discriminator 1
 3197 003a 099B     		ldr	r3, [sp, #36]
 3198 003c 1B89     		ldrh	r3, [r3, #8]
 3199 003e 002B     		cmp	r3, #0
 3200 0040 02D1     		bne	.L182
 3201 0042 4FF00103 		mov	r3, #1
 3202 0046 01E0     		b	.L183
 3203              	.L182:
 3204              		.loc 1 1427 0 discriminator 2
 3205 0048 4FF00003 		mov	r3, #0
 3206              	.L183:
 3207              		.loc 1 1427 0 discriminator 3
 3208 004c 8DF82330 		strb	r3, [sp, #35]
 3209              		.loc 1 1429 0 is_stmt 1 discriminator 3
 3210 0050 9DF82330 		ldrb	r3, [sp, #35]	@ zero_extendqisi2
 3211 0054 002B     		cmp	r3, #0
 3212 0056 14BF     		ite	ne
 3213 0058 0023     		movne	r3, #0
 3214 005a 0123     		moveq	r3, #1
 3215 005c ADF82030 		strh	r3, [sp, #32]	@ movhi
 3216              		.loc 1 1431 0 discriminator 3
 3217 0060 099B     		ldr	r3, [sp, #36]
 3218 0062 DB68     		ldr	r3, [r3, #12]
 3219 0064 5B68     		ldr	r3, [r3, #4]	@ unaligned
 3220 0066 BDF82020 		ldrh	r2, [sp, #32]
 3221 006a 0398     		ldr	r0, [sp, #12]
 3222 006c 4FF00001 		mov	r1, #0
 3223 0070 FFF7FEFF 		bl	tcp_output_alloc_header
 3224 0074 0346     		mov	r3, r0
ARM GAS  /tmp/ccKKWSFE.s 			page 58


 3225 0076 0793     		str	r3, [sp, #28]
 3226              		.loc 1 1432 0 discriminator 3
 3227 0078 079B     		ldr	r3, [sp, #28]
 3228 007a 002B     		cmp	r3, #0
 3229 007c 6ED0     		beq	.L188
 3230              	.L184:
 3231              		.loc 1 1436 0
 3232 007e 079B     		ldr	r3, [sp, #28]
 3233 0080 5B68     		ldr	r3, [r3, #4]
 3234 0082 0693     		str	r3, [sp, #24]
 3235              		.loc 1 1438 0
 3236 0084 9DF82330 		ldrb	r3, [sp, #35]	@ zero_extendqisi2
 3237 0088 002B     		cmp	r3, #0
 3238 008a 13D0     		beq	.L185
 3239              		.loc 1 1440 0
 3240 008c 069B     		ldr	r3, [sp, #24]
 3241 008e 9B89     		ldrh	r3, [r3, #12]	@ unaligned
 3242 0090 9BB2     		uxth	r3, r3
 3243 0092 9BB2     		uxth	r3, r3
 3244 0094 23F47C53 		bic	r3, r3, #16128
 3245 0098 9CB2     		uxth	r4, r3
 3246 009a 4FF01100 		mov	r0, #17
 3247 009e FFF7FEFF 		bl	lwip_htons
 3248 00a2 0346     		mov	r3, r0
 3249 00a4 9BB2     		uxth	r3, r3
 3250 00a6 2246     		mov	r2, r4	@ movhi
 3251 00a8 1343     		orrs	r3, r3, r2
 3252 00aa 9BB2     		uxth	r3, r3
 3253 00ac 9AB2     		uxth	r2, r3
 3254 00ae 069B     		ldr	r3, [sp, #24]
 3255 00b0 9A81     		strh	r2, [r3, #12]	@ unaligned
 3256 00b2 1DE0     		b	.L186
 3257              	.L185:
 3258              	.LBB14:
 3259              		.loc 1 1443 0
 3260 00b4 099B     		ldr	r3, [sp, #36]
 3261 00b6 5B68     		ldr	r3, [r3, #4]
 3262 00b8 5B68     		ldr	r3, [r3, #4]
 3263 00ba 0593     		str	r3, [sp, #20]
 3264              		.loc 1 1444 0
 3265 00bc 079B     		ldr	r3, [sp, #28]
 3266 00be 5B68     		ldr	r3, [r3, #4]
 3267 00c0 03F11403 		add	r3, r3, #20
 3268 00c4 0493     		str	r3, [sp, #16]
 3269              		.loc 1 1445 0
 3270 00c6 099B     		ldr	r3, [sp, #36]
 3271 00c8 5C68     		ldr	r4, [r3, #4]
 3272 00ca 059B     		ldr	r3, [sp, #20]
 3273 00cc 9B89     		ldrh	r3, [r3, #12]	@ unaligned
 3274 00ce 9BB2     		uxth	r3, r3
 3275 00d0 1846     		mov	r0, r3
 3276 00d2 FFF7FEFF 		bl	lwip_ntohs
 3277 00d6 0346     		mov	r3, r0
 3278 00d8 4FEA1333 		lsr	r3, r3, #12
 3279 00dc 9BB2     		uxth	r3, r3
 3280 00de 4FEA8303 		lsl	r3, r3, #2
 3281 00e2 9BB2     		uxth	r3, r3
ARM GAS  /tmp/ccKKWSFE.s 			page 59


 3282 00e4 2046     		mov	r0, r4
 3283 00e6 0499     		ldr	r1, [sp, #16]
 3284 00e8 4FF00102 		mov	r2, #1
 3285 00ec FFF7FEFF 		bl	pbuf_copy_partial
 3286              	.L186:
 3287              	.LBE14:
 3288              		.loc 1 1449 0
 3289 00f0 039A     		ldr	r2, [sp, #12]
 3290 00f2 039B     		ldr	r3, [sp, #12]
 3291 00f4 03F10403 		add	r3, r3, #4
 3292              		.loc 1 1450 0
 3293 00f8 0799     		ldr	r1, [sp, #28]
 3294              		.loc 1 1449 0
 3295 00fa 0989     		ldrh	r1, [r1, #8]
 3296 00fc 0091     		str	r1, [sp, #0]
 3297 00fe 0798     		ldr	r0, [sp, #28]
 3298 0100 1146     		mov	r1, r2
 3299 0102 1A46     		mov	r2, r3
 3300 0104 4FF00603 		mov	r3, #6
 3301 0108 FFF7FEFF 		bl	inet_chksum_pseudo
 3302 010c 0346     		mov	r3, r0
 3303 010e 1A46     		mov	r2, r3
 3304 0110 069B     		ldr	r3, [sp, #24]
 3305 0112 1A82     		strh	r2, [r3, #16]	@ unaligned
 3306              		.loc 1 1452 0
 3307 0114 40F20003 		movw	r3, #:lower16:lwip_stats
 3308 0118 C0F20003 		movt	r3, #:upper16:lwip_stats
 3309 011c B3F89030 		ldrh	r3, [r3, #144]
 3310 0120 03F10103 		add	r3, r3, #1
 3311 0124 9AB2     		uxth	r2, r3
 3312 0126 40F20003 		movw	r3, #:lower16:lwip_stats
 3313 012a C0F20003 		movt	r3, #:upper16:lwip_stats
 3314 012e A3F89020 		strh	r2, [r3, #144]	@ movhi
 3315              		.loc 1 1459 0
 3316 0132 0399     		ldr	r1, [sp, #12]
 3317 0134 039B     		ldr	r3, [sp, #12]
 3318 0136 03F10402 		add	r2, r3, #4
 3319 013a 039B     		ldr	r3, [sp, #12]
 3320 013c 9B7A     		ldrb	r3, [r3, #10]	@ zero_extendqisi2
 3321 013e 4FF00000 		mov	r0, #0
 3322 0142 0090     		str	r0, [sp, #0]
 3323 0144 4FF00600 		mov	r0, #6
 3324 0148 0190     		str	r0, [sp, #4]
 3325 014a 0798     		ldr	r0, [sp, #28]
 3326 014c FFF7FEFF 		bl	ip_output
 3327              		.loc 1 1462 0
 3328 0150 0798     		ldr	r0, [sp, #28]
 3329 0152 FFF7FEFF 		bl	pbuf_free
 3330 0156 02E0     		b	.L178
 3331              	.L187:
 3332              		.loc 1 1424 0
 3333 0158 00BF     		nop
 3334 015a 00E0     		b	.L178
 3335              	.L188:
 3336              		.loc 1 1434 0
 3337 015c 00BF     		nop
 3338              	.L178:
ARM GAS  /tmp/ccKKWSFE.s 			page 60


 3339              		.loc 1 1467 0
 3340 015e 0AB0     		add	sp, sp, #40
 3341 0160 10BD     		pop	{r4, pc}
 3342              		.cfi_endproc
 3343              	.LFE22:
 3344              		.size	tcp_zero_window_probe, .-tcp_zero_window_probe
 3345 0162 00BFAFF3 		.text
 3345      0080AFF3 
 3345      0080AFF3 
 3345      0080
 3346              	.Letext0:
 3347              		.file 2 "/home/texzk/ChibiStudio/tools/GNU Tools ARM Embedded/4.6 2012q2/bin/../lib/gcc/arm-none-e
 3348              		.file 3 "../../os/various/lwip_bindings/arch/cc.h"
 3349              		.file 4 "../../ext/lwip/src/include/lwip/err.h"
 3350              		.file 5 "../../ext/lwip/src/include/lwip/mem.h"
 3351              		.file 6 "../../ext/lwip/src/include/lwip/pbuf.h"
 3352              		.file 7 "../../ext/lwip/src/include/ipv4/lwip/ip_addr.h"
 3353              		.file 8 "../../ext/lwip/src/include/lwip/netif.h"
 3354              		.file 9 "../../ext/lwip/src/include/lwip/tcp.h"
 3355              		.file 10 "../../ext/lwip/src/include/lwip/tcp_impl.h"
 3356              		.file 11 "../../ext/lwip/src/include/lwip/memp.h"
 3357              		.file 12 "../../ext/lwip/src/include/lwip/stats.h"
 3358              		.section	.debug_info,"",%progbits
 3359              	.Ldebug_info0:
 3360 0000 47130000 		.4byte	0x1347
 3361 0004 0200     		.2byte	0x2
 3362 0006 00000000 		.4byte	.Ldebug_abbrev0
 3363 000a 04       		.byte	0x4
 3364 000b 01       		.uleb128 0x1
 3365 000c 22040000 		.4byte	.LASF210
 3366 0010 01       		.byte	0x1
 3367 0011 FD000000 		.4byte	.LASF211
 3368 0015 65020000 		.4byte	.LASF212
 3369 0019 00000000 		.4byte	0
 3370 001d 00000000 		.4byte	0
 3371 0021 60000000 		.4byte	.Ldebug_ranges0+0x60
 3372 0025 00000000 		.4byte	.Ldebug_line0
 3373 0029 02       		.uleb128 0x2
 3374 002a 04       		.byte	0x4
 3375 002b 05       		.byte	0x5
 3376 002c 696E7400 		.ascii	"int\000"
 3377 0030 03       		.uleb128 0x3
 3378 0031 04       		.byte	0x4
 3379 0032 07       		.byte	0x7
 3380 0033 A2000000 		.4byte	.LASF0
 3381 0037 04       		.uleb128 0x4
 3382 0038 E2010000 		.4byte	.LASF2
 3383 003c 02       		.byte	0x2
 3384 003d 29       		.byte	0x29
 3385 003e 42000000 		.4byte	0x42
 3386 0042 03       		.uleb128 0x3
 3387 0043 01       		.byte	0x1
 3388 0044 06       		.byte	0x6
 3389 0045 3E080000 		.4byte	.LASF1
 3390 0049 04       		.uleb128 0x4
 3391 004a 76040000 		.4byte	.LASF3
 3392 004e 02       		.byte	0x2
ARM GAS  /tmp/ccKKWSFE.s 			page 61


 3393 004f 2A       		.byte	0x2a
 3394 0050 54000000 		.4byte	0x54
 3395 0054 03       		.uleb128 0x3
 3396 0055 01       		.byte	0x1
 3397 0056 08       		.byte	0x8
 3398 0057 9D070000 		.4byte	.LASF4
 3399 005b 04       		.uleb128 0x4
 3400 005c 29020000 		.4byte	.LASF5
 3401 0060 02       		.byte	0x2
 3402 0061 35       		.byte	0x35
 3403 0062 66000000 		.4byte	0x66
 3404 0066 03       		.uleb128 0x3
 3405 0067 02       		.byte	0x2
 3406 0068 05       		.byte	0x5
 3407 0069 CB050000 		.4byte	.LASF6
 3408 006d 04       		.uleb128 0x4
 3409 006e 64050000 		.4byte	.LASF7
 3410 0072 02       		.byte	0x2
 3411 0073 36       		.byte	0x36
 3412 0074 78000000 		.4byte	0x78
 3413 0078 03       		.uleb128 0x3
 3414 0079 02       		.byte	0x2
 3415 007a 07       		.byte	0x7
 3416 007b 52080000 		.4byte	.LASF8
 3417 007f 04       		.uleb128 0x4
 3418 0080 46070000 		.4byte	.LASF9
 3419 0084 02       		.byte	0x2
 3420 0085 4F       		.byte	0x4f
 3421 0086 8A000000 		.4byte	0x8a
 3422 008a 03       		.uleb128 0x3
 3423 008b 04       		.byte	0x4
 3424 008c 05       		.byte	0x5
 3425 008d E3050000 		.4byte	.LASF10
 3426 0091 04       		.uleb128 0x4
 3427 0092 D9010000 		.4byte	.LASF11
 3428 0096 02       		.byte	0x2
 3429 0097 50       		.byte	0x50
 3430 0098 9C000000 		.4byte	0x9c
 3431 009c 03       		.uleb128 0x3
 3432 009d 04       		.byte	0x4
 3433 009e 07       		.byte	0x7
 3434 009f 1D070000 		.4byte	.LASF12
 3435 00a3 03       		.uleb128 0x3
 3436 00a4 08       		.byte	0x8
 3437 00a5 05       		.byte	0x5
 3438 00a6 B5040000 		.4byte	.LASF13
 3439 00aa 03       		.uleb128 0x3
 3440 00ab 08       		.byte	0x8
 3441 00ac 07       		.byte	0x7
 3442 00ad 4E020000 		.4byte	.LASF14
 3443 00b1 05       		.uleb128 0x5
 3444 00b2 04       		.byte	0x4
 3445 00b3 03       		.uleb128 0x3
 3446 00b4 01       		.byte	0x1
 3447 00b5 08       		.byte	0x8
 3448 00b6 E9030000 		.4byte	.LASF15
 3449 00ba 04       		.uleb128 0x4
ARM GAS  /tmp/ccKKWSFE.s 			page 62


 3450 00bb F9040000 		.4byte	.LASF16
 3451 00bf 03       		.byte	0x3
 3452 00c0 3C       		.byte	0x3c
 3453 00c1 49000000 		.4byte	0x49
 3454 00c5 04       		.uleb128 0x4
 3455 00c6 8A030000 		.4byte	.LASF17
 3456 00ca 03       		.byte	0x3
 3457 00cb 3D       		.byte	0x3d
 3458 00cc 37000000 		.4byte	0x37
 3459 00d0 04       		.uleb128 0x4
 3460 00d1 F7000000 		.4byte	.LASF18
 3461 00d5 03       		.byte	0x3
 3462 00d6 3E       		.byte	0x3e
 3463 00d7 6D000000 		.4byte	0x6d
 3464 00db 04       		.uleb128 0x4
 3465 00dc 40070000 		.4byte	.LASF19
 3466 00e0 03       		.byte	0x3
 3467 00e1 3F       		.byte	0x3f
 3468 00e2 5B000000 		.4byte	0x5b
 3469 00e6 04       		.uleb128 0x4
 3470 00e7 BF050000 		.4byte	.LASF20
 3471 00eb 03       		.byte	0x3
 3472 00ec 40       		.byte	0x40
 3473 00ed 91000000 		.4byte	0x91
 3474 00f1 04       		.uleb128 0x4
 3475 00f2 8F030000 		.4byte	.LASF21
 3476 00f6 03       		.byte	0x3
 3477 00f7 41       		.byte	0x41
 3478 00f8 7F000000 		.4byte	0x7f
 3479 00fc 04       		.uleb128 0x4
 3480 00fd 91060000 		.4byte	.LASF22
 3481 0101 03       		.byte	0x3
 3482 0102 42       		.byte	0x42
 3483 0103 91000000 		.4byte	0x91
 3484 0107 04       		.uleb128 0x4
 3485 0108 DB000000 		.4byte	.LASF23
 3486 010c 04       		.byte	0x4
 3487 010d 2F       		.byte	0x2f
 3488 010e C5000000 		.4byte	0xc5
 3489 0112 04       		.uleb128 0x4
 3490 0113 FA030000 		.4byte	.LASF24
 3491 0117 05       		.byte	0x5
 3492 0118 4B       		.byte	0x4b
 3493 0119 D0000000 		.4byte	0xd0
 3494 011d 06       		.uleb128 0x6
 3495 011e 01       		.byte	0x1
 3496 011f 06       		.byte	0x6
 3497 0120 32       		.byte	0x32
 3498 0121 3E010000 		.4byte	0x13e
 3499 0125 07       		.uleb128 0x7
 3500 0126 95010000 		.4byte	.LASF25
 3501 012a 00       		.sleb128 0
 3502 012b 07       		.uleb128 0x7
 3503 012c 2C030000 		.4byte	.LASF26
 3504 0130 01       		.sleb128 1
 3505 0131 07       		.uleb128 0x7
 3506 0132 4E050000 		.4byte	.LASF27
ARM GAS  /tmp/ccKKWSFE.s 			page 63


 3507 0136 02       		.sleb128 2
 3508 0137 07       		.uleb128 0x7
 3509 0138 77000000 		.4byte	.LASF28
 3510 013c 03       		.sleb128 3
 3511 013d 00       		.byte	0
 3512 013e 04       		.uleb128 0x4
 3513 013f 4E070000 		.4byte	.LASF29
 3514 0143 06       		.byte	0x6
 3515 0144 37       		.byte	0x37
 3516 0145 1D010000 		.4byte	0x11d
 3517 0149 06       		.uleb128 0x6
 3518 014a 01       		.byte	0x1
 3519 014b 06       		.byte	0x6
 3520 014c 39       		.byte	0x39
 3521 014d 6A010000 		.4byte	0x16a
 3522 0151 07       		.uleb128 0x7
 3523 0152 53000000 		.4byte	.LASF30
 3524 0156 00       		.sleb128 0
 3525 0157 07       		.uleb128 0x7
 3526 0158 B2080000 		.4byte	.LASF31
 3527 015c 01       		.sleb128 1
 3528 015d 07       		.uleb128 0x7
 3529 015e F1020000 		.4byte	.LASF32
 3530 0162 02       		.sleb128 2
 3531 0163 07       		.uleb128 0x7
 3532 0164 5D030000 		.4byte	.LASF33
 3533 0168 03       		.sleb128 3
 3534 0169 00       		.byte	0
 3535 016a 08       		.uleb128 0x8
 3536 016b 58030000 		.4byte	.LASF39
 3537 016f 10       		.byte	0x10
 3538 0170 06       		.byte	0x6
 3539 0171 49       		.byte	0x49
 3540 0172 D9010000 		.4byte	0x1d9
 3541 0176 09       		.uleb128 0x9
 3542 0177 C0000000 		.4byte	.LASF34
 3543 017b 06       		.byte	0x6
 3544 017c 4B       		.byte	0x4b
 3545 017d D9010000 		.4byte	0x1d9
 3546 0181 02       		.byte	0x2
 3547 0182 23       		.byte	0x23
 3548 0183 00       		.uleb128 0
 3549 0184 09       		.uleb128 0x9
 3550 0185 24030000 		.4byte	.LASF35
 3551 0189 06       		.byte	0x6
 3552 018a 4E       		.byte	0x4e
 3553 018b B1000000 		.4byte	0xb1
 3554 018f 02       		.byte	0x2
 3555 0190 23       		.byte	0x23
 3556 0191 04       		.uleb128 0x4
 3557 0192 09       		.uleb128 0x9
 3558 0193 1C030000 		.4byte	.LASF36
 3559 0197 06       		.byte	0x6
 3560 0198 57       		.byte	0x57
 3561 0199 D0000000 		.4byte	0xd0
 3562 019d 02       		.byte	0x2
 3563 019e 23       		.byte	0x23
ARM GAS  /tmp/ccKKWSFE.s 			page 64


 3564 019f 08       		.uleb128 0x8
 3565 01a0 0A       		.uleb128 0xa
 3566 01a1 6C656E00 		.ascii	"len\000"
 3567 01a5 06       		.byte	0x6
 3568 01a6 5A       		.byte	0x5a
 3569 01a7 D0000000 		.4byte	0xd0
 3570 01ab 02       		.byte	0x2
 3571 01ac 23       		.byte	0x23
 3572 01ad 0A       		.uleb128 0xa
 3573 01ae 09       		.uleb128 0x9
 3574 01af 8E070000 		.4byte	.LASF37
 3575 01b3 06       		.byte	0x6
 3576 01b4 5D       		.byte	0x5d
 3577 01b5 BA000000 		.4byte	0xba
 3578 01b9 02       		.byte	0x2
 3579 01ba 23       		.byte	0x23
 3580 01bb 0C       		.uleb128 0xc
 3581 01bc 09       		.uleb128 0x9
 3582 01bd 80000000 		.4byte	.LASF38
 3583 01c1 06       		.byte	0x6
 3584 01c2 60       		.byte	0x60
 3585 01c3 BA000000 		.4byte	0xba
 3586 01c7 02       		.byte	0x2
 3587 01c8 23       		.byte	0x23
 3588 01c9 0D       		.uleb128 0xd
 3589 01ca 0A       		.uleb128 0xa
 3590 01cb 72656600 		.ascii	"ref\000"
 3591 01cf 06       		.byte	0x6
 3592 01d0 67       		.byte	0x67
 3593 01d1 D0000000 		.4byte	0xd0
 3594 01d5 02       		.byte	0x2
 3595 01d6 23       		.byte	0x23
 3596 01d7 0E       		.uleb128 0xe
 3597 01d8 00       		.byte	0
 3598 01d9 0B       		.uleb128 0xb
 3599 01da 04       		.byte	0x4
 3600 01db 6A010000 		.4byte	0x16a
 3601 01df 08       		.uleb128 0x8
 3602 01e0 CE080000 		.4byte	.LASF40
 3603 01e4 04       		.byte	0x4
 3604 01e5 07       		.byte	0x7
 3605 01e6 2C       		.byte	0x2c
 3606 01e7 FA010000 		.4byte	0x1fa
 3607 01eb 09       		.uleb128 0x9
 3608 01ec 05080000 		.4byte	.LASF41
 3609 01f0 07       		.byte	0x7
 3610 01f1 2D       		.byte	0x2d
 3611 01f2 E6000000 		.4byte	0xe6
 3612 01f6 02       		.byte	0x2
 3613 01f7 23       		.byte	0x23
 3614 01f8 00       		.uleb128 0
 3615 01f9 00       		.byte	0
 3616 01fa 04       		.uleb128 0x4
 3617 01fb A8080000 		.4byte	.LASF42
 3618 01ff 07       		.byte	0x7
 3619 0200 40       		.byte	0x40
 3620 0201 DF010000 		.4byte	0x1df
ARM GAS  /tmp/ccKKWSFE.s 			page 65


 3621 0205 0B       		.uleb128 0xb
 3622 0206 04       		.byte	0x4
 3623 0207 0B020000 		.4byte	0x20b
 3624 020b 08       		.uleb128 0x8
 3625 020c 15080000 		.4byte	.LASF43
 3626 0210 30       		.byte	0x30
 3627 0211 08       		.byte	0x8
 3628 0212 88       		.byte	0x88
 3629 0213 DB020000 		.4byte	0x2db
 3630 0217 09       		.uleb128 0x9
 3631 0218 C0000000 		.4byte	.LASF34
 3632 021c 08       		.byte	0x8
 3633 021d 8A       		.byte	0x8a
 3634 021e 05020000 		.4byte	0x205
 3635 0222 02       		.byte	0x2
 3636 0223 23       		.byte	0x23
 3637 0224 00       		.uleb128 0
 3638 0225 09       		.uleb128 0x9
 3639 0226 CE080000 		.4byte	.LASF40
 3640 022a 08       		.byte	0x8
 3641 022b 8D       		.byte	0x8d
 3642 022c FA010000 		.4byte	0x1fa
 3643 0230 02       		.byte	0x2
 3644 0231 23       		.byte	0x23
 3645 0232 04       		.uleb128 0x4
 3646 0233 09       		.uleb128 0x9
 3647 0234 AD040000 		.4byte	.LASF44
 3648 0238 08       		.byte	0x8
 3649 0239 8E       		.byte	0x8e
 3650 023a FA010000 		.4byte	0x1fa
 3651 023e 02       		.byte	0x2
 3652 023f 23       		.byte	0x23
 3653 0240 08       		.uleb128 0x8
 3654 0241 0A       		.uleb128 0xa
 3655 0242 677700   		.ascii	"gw\000"
 3656 0245 08       		.byte	0x8
 3657 0246 8F       		.byte	0x8f
 3658 0247 FA010000 		.4byte	0x1fa
 3659 024b 02       		.byte	0x2
 3660 024c 23       		.byte	0x23
 3661 024d 0C       		.uleb128 0xc
 3662 024e 09       		.uleb128 0x9
 3663 024f 44000000 		.4byte	.LASF45
 3664 0253 08       		.byte	0x8
 3665 0254 93       		.byte	0x93
 3666 0255 DB020000 		.4byte	0x2db
 3667 0259 02       		.byte	0x2
 3668 025a 23       		.byte	0x23
 3669 025b 10       		.uleb128 0x10
 3670 025c 09       		.uleb128 0x9
 3671 025d 34030000 		.4byte	.LASF46
 3672 0261 08       		.byte	0x8
 3673 0262 97       		.byte	0x97
 3674 0263 01030000 		.4byte	0x301
 3675 0267 02       		.byte	0x2
 3676 0268 23       		.byte	0x23
 3677 0269 14       		.uleb128 0x14
ARM GAS  /tmp/ccKKWSFE.s 			page 66


 3678 026a 09       		.uleb128 0x9
 3679 026b E1000000 		.4byte	.LASF47
 3680 026f 08       		.byte	0x8
 3681 0270 9B       		.byte	0x9b
 3682 0271 32030000 		.4byte	0x332
 3683 0275 02       		.byte	0x2
 3684 0276 23       		.byte	0x23
 3685 0277 18       		.uleb128 0x18
 3686 0278 09       		.uleb128 0x9
 3687 0279 0F080000 		.4byte	.LASF48
 3688 027d 08       		.byte	0x8
 3689 027e A8       		.byte	0xa8
 3690 027f B1000000 		.4byte	0xb1
 3691 0283 02       		.byte	0x2
 3692 0284 23       		.byte	0x23
 3693 0285 1C       		.uleb128 0x1c
 3694 0286 0A       		.uleb128 0xa
 3695 0287 6D747500 		.ascii	"mtu\000"
 3696 028b 08       		.byte	0x8
 3697 028c B6       		.byte	0xb6
 3698 028d D0000000 		.4byte	0xd0
 3699 0291 02       		.byte	0x2
 3700 0292 23       		.byte	0x23
 3701 0293 20       		.uleb128 0x20
 3702 0294 09       		.uleb128 0x9
 3703 0295 C9020000 		.4byte	.LASF49
 3704 0299 08       		.byte	0x8
 3705 029a B8       		.byte	0xb8
 3706 029b BA000000 		.4byte	0xba
 3707 029f 02       		.byte	0x2
 3708 02a0 23       		.byte	0x23
 3709 02a1 22       		.uleb128 0x22
 3710 02a2 09       		.uleb128 0x9
 3711 02a3 38020000 		.4byte	.LASF50
 3712 02a7 08       		.byte	0x8
 3713 02a8 BA       		.byte	0xba
 3714 02a9 58030000 		.4byte	0x358
 3715 02ad 02       		.byte	0x2
 3716 02ae 23       		.byte	0x23
 3717 02af 23       		.uleb128 0x23
 3718 02b0 09       		.uleb128 0x9
 3719 02b1 80000000 		.4byte	.LASF38
 3720 02b5 08       		.byte	0x8
 3721 02b6 BC       		.byte	0xbc
 3722 02b7 BA000000 		.4byte	0xba
 3723 02bb 02       		.byte	0x2
 3724 02bc 23       		.byte	0x23
 3725 02bd 29       		.uleb128 0x29
 3726 02be 09       		.uleb128 0x9
 3727 02bf B0060000 		.4byte	.LASF51
 3728 02c3 08       		.byte	0x8
 3729 02c4 BE       		.byte	0xbe
 3730 02c5 68030000 		.4byte	0x368
 3731 02c9 02       		.byte	0x2
 3732 02ca 23       		.byte	0x23
 3733 02cb 2A       		.uleb128 0x2a
 3734 02cc 0A       		.uleb128 0xa
ARM GAS  /tmp/ccKKWSFE.s 			page 67


 3735 02cd 6E756D00 		.ascii	"num\000"
 3736 02d1 08       		.byte	0x8
 3737 02d2 C0       		.byte	0xc0
 3738 02d3 BA000000 		.4byte	0xba
 3739 02d7 02       		.byte	0x2
 3740 02d8 23       		.byte	0x23
 3741 02d9 2C       		.uleb128 0x2c
 3742 02da 00       		.byte	0
 3743 02db 04       		.uleb128 0x4
 3744 02dc CA010000 		.4byte	.LASF52
 3745 02e0 08       		.byte	0x8
 3746 02e1 6D       		.byte	0x6d
 3747 02e2 E6020000 		.4byte	0x2e6
 3748 02e6 0B       		.uleb128 0xb
 3749 02e7 04       		.byte	0x4
 3750 02e8 EC020000 		.4byte	0x2ec
 3751 02ec 0C       		.uleb128 0xc
 3752 02ed 01       		.byte	0x1
 3753 02ee 07010000 		.4byte	0x107
 3754 02f2 01030000 		.4byte	0x301
 3755 02f6 0D       		.uleb128 0xd
 3756 02f7 D9010000 		.4byte	0x1d9
 3757 02fb 0D       		.uleb128 0xd
 3758 02fc 05020000 		.4byte	0x205
 3759 0300 00       		.byte	0
 3760 0301 04       		.uleb128 0x4
 3761 0302 51010000 		.4byte	.LASF53
 3762 0306 08       		.byte	0x8
 3763 0307 76       		.byte	0x76
 3764 0308 0C030000 		.4byte	0x30c
 3765 030c 0B       		.uleb128 0xb
 3766 030d 04       		.byte	0x4
 3767 030e 12030000 		.4byte	0x312
 3768 0312 0C       		.uleb128 0xc
 3769 0313 01       		.byte	0x1
 3770 0314 07010000 		.4byte	0x107
 3771 0318 2C030000 		.4byte	0x32c
 3772 031c 0D       		.uleb128 0xd
 3773 031d 05020000 		.4byte	0x205
 3774 0321 0D       		.uleb128 0xd
 3775 0322 D9010000 		.4byte	0x1d9
 3776 0326 0D       		.uleb128 0xd
 3777 0327 2C030000 		.4byte	0x32c
 3778 032b 00       		.byte	0
 3779 032c 0B       		.uleb128 0xb
 3780 032d 04       		.byte	0x4
 3781 032e FA010000 		.4byte	0x1fa
 3782 0332 04       		.uleb128 0x4
 3783 0333 B5060000 		.4byte	.LASF54
 3784 0337 08       		.byte	0x8
 3785 0338 7E       		.byte	0x7e
 3786 0339 3D030000 		.4byte	0x33d
 3787 033d 0B       		.uleb128 0xb
 3788 033e 04       		.byte	0x4
 3789 033f 43030000 		.4byte	0x343
 3790 0343 0C       		.uleb128 0xc
 3791 0344 01       		.byte	0x1
ARM GAS  /tmp/ccKKWSFE.s 			page 68


 3792 0345 07010000 		.4byte	0x107
 3793 0349 58030000 		.4byte	0x358
 3794 034d 0D       		.uleb128 0xd
 3795 034e 05020000 		.4byte	0x205
 3796 0352 0D       		.uleb128 0xd
 3797 0353 D9010000 		.4byte	0x1d9
 3798 0357 00       		.byte	0
 3799 0358 0E       		.uleb128 0xe
 3800 0359 BA000000 		.4byte	0xba
 3801 035d 68030000 		.4byte	0x368
 3802 0361 0F       		.uleb128 0xf
 3803 0362 30000000 		.4byte	0x30
 3804 0366 05       		.byte	0x5
 3805 0367 00       		.byte	0
 3806 0368 0E       		.uleb128 0xe
 3807 0369 B3000000 		.4byte	0xb3
 3808 036d 78030000 		.4byte	0x378
 3809 0371 0F       		.uleb128 0xf
 3810 0372 30000000 		.4byte	0x30
 3811 0376 01       		.byte	0x1
 3812 0377 00       		.byte	0
 3813 0378 04       		.uleb128 0x4
 3814 0379 AD030000 		.4byte	.LASF55
 3815 037d 09       		.byte	0x9
 3816 037e 3D       		.byte	0x3d
 3817 037f 83030000 		.4byte	0x383
 3818 0383 0B       		.uleb128 0xb
 3819 0384 04       		.byte	0x4
 3820 0385 89030000 		.4byte	0x389
 3821 0389 0C       		.uleb128 0xc
 3822 038a 01       		.byte	0x1
 3823 038b 07010000 		.4byte	0x107
 3824 038f A3030000 		.4byte	0x3a3
 3825 0393 0D       		.uleb128 0xd
 3826 0394 B1000000 		.4byte	0xb1
 3827 0398 0D       		.uleb128 0xd
 3828 0399 A3030000 		.4byte	0x3a3
 3829 039d 0D       		.uleb128 0xd
 3830 039e 07010000 		.4byte	0x107
 3831 03a2 00       		.byte	0
 3832 03a3 0B       		.uleb128 0xb
 3833 03a4 04       		.byte	0x4
 3834 03a5 A9030000 		.4byte	0x3a9
 3835 03a9 08       		.uleb128 0x8
 3836 03aa 4A080000 		.4byte	.LASF56
 3837 03ae A4       		.byte	0xa4
 3838 03af 09       		.byte	0x9
 3839 03b0 A9       		.byte	0xa9
 3840 03b1 B8060000 		.4byte	0x6b8
 3841 03b5 09       		.uleb128 0x9
 3842 03b6 5E060000 		.4byte	.LASF57
 3843 03ba 09       		.byte	0x9
 3844 03bb AB       		.byte	0xab
 3845 03bc FA010000 		.4byte	0x1fa
 3846 03c0 02       		.byte	0x2
 3847 03c1 23       		.byte	0x23
 3848 03c2 00       		.uleb128 0
ARM GAS  /tmp/ccKKWSFE.s 			page 69


 3849 03c3 09       		.uleb128 0x9
 3850 03c4 8E080000 		.4byte	.LASF58
 3851 03c8 09       		.byte	0x9
 3852 03c9 AB       		.byte	0xab
 3853 03ca FA010000 		.4byte	0x1fa
 3854 03ce 02       		.byte	0x2
 3855 03cf 23       		.byte	0x23
 3856 03d0 04       		.uleb128 0x4
 3857 03d1 09       		.uleb128 0x9
 3858 03d2 39000000 		.4byte	.LASF59
 3859 03d6 09       		.byte	0x9
 3860 03d7 AB       		.byte	0xab
 3861 03d8 BA000000 		.4byte	0xba
 3862 03dc 02       		.byte	0x2
 3863 03dd 23       		.byte	0x23
 3864 03de 08       		.uleb128 0x8
 3865 03df 0A       		.uleb128 0xa
 3866 03e0 746F7300 		.ascii	"tos\000"
 3867 03e4 09       		.byte	0x9
 3868 03e5 AB       		.byte	0xab
 3869 03e6 BA000000 		.4byte	0xba
 3870 03ea 02       		.byte	0x2
 3871 03eb 23       		.byte	0x23
 3872 03ec 09       		.uleb128 0x9
 3873 03ed 0A       		.uleb128 0xa
 3874 03ee 74746C00 		.ascii	"ttl\000"
 3875 03f2 09       		.byte	0x9
 3876 03f3 AB       		.byte	0xab
 3877 03f4 BA000000 		.4byte	0xba
 3878 03f8 02       		.byte	0x2
 3879 03f9 23       		.byte	0x23
 3880 03fa 0A       		.uleb128 0xa
 3881 03fb 09       		.uleb128 0x9
 3882 03fc C0000000 		.4byte	.LASF34
 3883 0400 09       		.byte	0x9
 3884 0401 AD       		.byte	0xad
 3885 0402 A3030000 		.4byte	0x3a3
 3886 0406 02       		.byte	0x2
 3887 0407 23       		.byte	0x23
 3888 0408 0C       		.uleb128 0xc
 3889 0409 09       		.uleb128 0x9
 3890 040a 0F080000 		.4byte	.LASF48
 3891 040e 09       		.byte	0x9
 3892 040f AD       		.byte	0xad
 3893 0410 66070000 		.4byte	0x766
 3894 0414 02       		.byte	0x2
 3895 0415 23       		.byte	0x23
 3896 0416 10       		.uleb128 0x10
 3897 0417 09       		.uleb128 0x9
 3898 0418 CE030000 		.4byte	.LASF60
 3899 041c 09       		.byte	0x9
 3900 041d AD       		.byte	0xad
 3901 041e BA000000 		.4byte	0xba
 3902 0422 02       		.byte	0x2
 3903 0423 23       		.byte	0x23
 3904 0424 11       		.uleb128 0x11
 3905 0425 09       		.uleb128 0x9
ARM GAS  /tmp/ccKKWSFE.s 			page 70


 3906 0426 F1070000 		.4byte	.LASF61
 3907 042a 09       		.byte	0x9
 3908 042b AD       		.byte	0xad
 3909 042c B1000000 		.4byte	0xb1
 3910 0430 02       		.byte	0x2
 3911 0431 23       		.byte	0x23
 3912 0432 14       		.uleb128 0x14
 3913 0433 09       		.uleb128 0x9
 3914 0434 D3030000 		.4byte	.LASF62
 3915 0438 09       		.byte	0x9
 3916 0439 AD       		.byte	0xad
 3917 043a 78030000 		.4byte	0x378
 3918 043e 02       		.byte	0x2
 3919 043f 23       		.byte	0x23
 3920 0440 18       		.uleb128 0x18
 3921 0441 09       		.uleb128 0x9
 3922 0442 08020000 		.4byte	.LASF63
 3923 0446 09       		.byte	0x9
 3924 0447 AD       		.byte	0xad
 3925 0448 D0000000 		.4byte	0xd0
 3926 044c 02       		.byte	0x2
 3927 044d 23       		.byte	0x23
 3928 044e 1C       		.uleb128 0x1c
 3929 044f 09       		.uleb128 0x9
 3930 0450 07050000 		.4byte	.LASF64
 3931 0454 09       		.byte	0x9
 3932 0455 B0       		.byte	0xb0
 3933 0456 D0000000 		.4byte	0xd0
 3934 045a 02       		.byte	0x2
 3935 045b 23       		.byte	0x23
 3936 045c 1E       		.uleb128 0x1e
 3937 045d 09       		.uleb128 0x9
 3938 045e 80000000 		.4byte	.LASF38
 3939 0462 09       		.byte	0x9
 3940 0463 B2       		.byte	0xb2
 3941 0464 BA000000 		.4byte	0xba
 3942 0468 02       		.byte	0x2
 3943 0469 23       		.byte	0x23
 3944 046a 20       		.uleb128 0x20
 3945 046b 09       		.uleb128 0x9
 3946 046c D4020000 		.4byte	.LASF65
 3947 0470 09       		.byte	0x9
 3948 0471 BF       		.byte	0xbf
 3949 0472 E6000000 		.4byte	0xe6
 3950 0476 02       		.byte	0x2
 3951 0477 23       		.byte	0x23
 3952 0478 24       		.uleb128 0x24
 3953 0479 09       		.uleb128 0x9
 3954 047a 06060000 		.4byte	.LASF66
 3955 047e 09       		.byte	0x9
 3956 047f C0       		.byte	0xc0
 3957 0480 D0000000 		.4byte	0xd0
 3958 0484 02       		.byte	0x2
 3959 0485 23       		.byte	0x23
 3960 0486 28       		.uleb128 0x28
 3961 0487 09       		.uleb128 0x9
 3962 0488 20050000 		.4byte	.LASF67
ARM GAS  /tmp/ccKKWSFE.s 			page 71


 3963 048c 09       		.byte	0x9
 3964 048d C1       		.byte	0xc1
 3965 048e D0000000 		.4byte	0xd0
 3966 0492 02       		.byte	0x2
 3967 0493 23       		.byte	0x23
 3968 0494 2A       		.uleb128 0x2a
 3969 0495 09       		.uleb128 0x9
 3970 0496 1F010000 		.4byte	.LASF68
 3971 049a 09       		.byte	0x9
 3972 049b C2       		.byte	0xc2
 3973 049c E6000000 		.4byte	0xe6
 3974 04a0 02       		.byte	0x2
 3975 04a1 23       		.byte	0x23
 3976 04a2 2C       		.uleb128 0x2c
 3977 04a3 0A       		.uleb128 0xa
 3978 04a4 746D7200 		.ascii	"tmr\000"
 3979 04a8 09       		.byte	0x9
 3980 04a9 C5       		.byte	0xc5
 3981 04aa E6000000 		.4byte	0xe6
 3982 04ae 02       		.byte	0x2
 3983 04af 23       		.byte	0x23
 3984 04b0 30       		.uleb128 0x30
 3985 04b1 09       		.uleb128 0x9
 3986 04b2 6F000000 		.4byte	.LASF69
 3987 04b6 09       		.byte	0x9
 3988 04b7 C6       		.byte	0xc6
 3989 04b8 BA000000 		.4byte	0xba
 3990 04bc 02       		.byte	0x2
 3991 04bd 23       		.byte	0x23
 3992 04be 34       		.uleb128 0x34
 3993 04bf 09       		.uleb128 0x9
 3994 04c0 E9060000 		.4byte	.LASF70
 3995 04c4 09       		.byte	0x9
 3996 04c5 C6       		.byte	0xc6
 3997 04c6 BA000000 		.4byte	0xba
 3998 04ca 02       		.byte	0x2
 3999 04cb 23       		.byte	0x23
 4000 04cc 35       		.uleb128 0x35
 4001 04cd 09       		.uleb128 0x9
 4002 04ce C3020000 		.4byte	.LASF71
 4003 04d2 09       		.byte	0x9
 4004 04d3 C9       		.byte	0xc9
 4005 04d4 DB000000 		.4byte	0xdb
 4006 04d8 02       		.byte	0x2
 4007 04d9 23       		.byte	0x23
 4008 04da 36       		.uleb128 0x36
 4009 04db 0A       		.uleb128 0xa
 4010 04dc 6D737300 		.ascii	"mss\000"
 4011 04e0 09       		.byte	0x9
 4012 04e1 CB       		.byte	0xcb
 4013 04e2 D0000000 		.4byte	0xd0
 4014 04e6 02       		.byte	0x2
 4015 04e7 23       		.byte	0x23
 4016 04e8 38       		.uleb128 0x38
 4017 04e9 09       		.uleb128 0x9
 4018 04ea 0E060000 		.4byte	.LASF72
 4019 04ee 09       		.byte	0x9
ARM GAS  /tmp/ccKKWSFE.s 			page 72


 4020 04ef CE       		.byte	0xce
 4021 04f0 E6000000 		.4byte	0xe6
 4022 04f4 02       		.byte	0x2
 4023 04f5 23       		.byte	0x23
 4024 04f6 3C       		.uleb128 0x3c
 4025 04f7 09       		.uleb128 0x9
 4026 04f8 C0030000 		.4byte	.LASF73
 4027 04fc 09       		.byte	0x9
 4028 04fd CF       		.byte	0xcf
 4029 04fe E6000000 		.4byte	0xe6
 4030 0502 02       		.byte	0x2
 4031 0503 23       		.byte	0x23
 4032 0504 40       		.uleb128 0x40
 4033 0505 0A       		.uleb128 0xa
 4034 0506 736100   		.ascii	"sa\000"
 4035 0509 09       		.byte	0x9
 4036 050a D0       		.byte	0xd0
 4037 050b DB000000 		.4byte	0xdb
 4038 050f 02       		.byte	0x2
 4039 0510 23       		.byte	0x23
 4040 0511 44       		.uleb128 0x44
 4041 0512 0A       		.uleb128 0xa
 4042 0513 737600   		.ascii	"sv\000"
 4043 0516 09       		.byte	0x9
 4044 0517 D0       		.byte	0xd0
 4045 0518 DB000000 		.4byte	0xdb
 4046 051c 02       		.byte	0x2
 4047 051d 23       		.byte	0x23
 4048 051e 46       		.uleb128 0x46
 4049 051f 0A       		.uleb128 0xa
 4050 0520 72746F00 		.ascii	"rto\000"
 4051 0524 09       		.byte	0x9
 4052 0525 D2       		.byte	0xd2
 4053 0526 DB000000 		.4byte	0xdb
 4054 052a 02       		.byte	0x2
 4055 052b 23       		.byte	0x23
 4056 052c 48       		.uleb128 0x48
 4057 052d 09       		.uleb128 0x9
 4058 052e BB080000 		.4byte	.LASF74
 4059 0532 09       		.byte	0x9
 4060 0533 D3       		.byte	0xd3
 4061 0534 BA000000 		.4byte	0xba
 4062 0538 02       		.byte	0x2
 4063 0539 23       		.byte	0x23
 4064 053a 4A       		.uleb128 0x4a
 4065 053b 09       		.uleb128 0x9
 4066 053c 79030000 		.4byte	.LASF75
 4067 0540 09       		.byte	0x9
 4068 0541 D6       		.byte	0xd6
 4069 0542 E6000000 		.4byte	0xe6
 4070 0546 02       		.byte	0x2
 4071 0547 23       		.byte	0x23
 4072 0548 4C       		.uleb128 0x4c
 4073 0549 09       		.uleb128 0x9
 4074 054a C6030000 		.4byte	.LASF76
 4075 054e 09       		.byte	0x9
 4076 054f D7       		.byte	0xd7
ARM GAS  /tmp/ccKKWSFE.s 			page 73


 4077 0550 BA000000 		.4byte	0xba
 4078 0554 02       		.byte	0x2
 4079 0555 23       		.byte	0x23
 4080 0556 50       		.uleb128 0x50
 4081 0557 09       		.uleb128 0x9
 4082 0558 E9010000 		.4byte	.LASF77
 4083 055c 09       		.byte	0x9
 4084 055d DA       		.byte	0xda
 4085 055e D0000000 		.4byte	0xd0
 4086 0562 02       		.byte	0x2
 4087 0563 23       		.byte	0x23
 4088 0564 52       		.uleb128 0x52
 4089 0565 09       		.uleb128 0x9
 4090 0566 D8060000 		.4byte	.LASF78
 4091 056a 09       		.byte	0x9
 4092 056b DB       		.byte	0xdb
 4093 056c D0000000 		.4byte	0xd0
 4094 0570 02       		.byte	0x2
 4095 0571 23       		.byte	0x23
 4096 0572 54       		.uleb128 0x54
 4097 0573 09       		.uleb128 0x9
 4098 0574 84060000 		.4byte	.LASF79
 4099 0578 09       		.byte	0x9
 4100 0579 DE       		.byte	0xde
 4101 057a E6000000 		.4byte	0xe6
 4102 057e 02       		.byte	0x2
 4103 057f 23       		.byte	0x23
 4104 0580 58       		.uleb128 0x58
 4105 0581 09       		.uleb128 0x9
 4106 0582 7F050000 		.4byte	.LASF80
 4107 0586 09       		.byte	0x9
 4108 0587 DF       		.byte	0xdf
 4109 0588 D0000000 		.4byte	0xd0
 4110 058c 02       		.byte	0x2
 4111 058d 23       		.byte	0x23
 4112 058e 5C       		.uleb128 0x5c
 4113 058f 09       		.uleb128 0x9
 4114 0590 7E040000 		.4byte	.LASF81
 4115 0594 09       		.byte	0x9
 4116 0595 E0       		.byte	0xe0
 4117 0596 E6000000 		.4byte	0xe6
 4118 059a 02       		.byte	0x2
 4119 059b 23       		.byte	0x23
 4120 059c 60       		.uleb128 0x60
 4121 059d 09       		.uleb128 0x9
 4122 059e 86040000 		.4byte	.LASF82
 4123 05a2 09       		.byte	0x9
 4124 05a3 E0       		.byte	0xe0
 4125 05a4 E6000000 		.4byte	0xe6
 4126 05a8 02       		.byte	0x2
 4127 05a9 23       		.byte	0x23
 4128 05aa 64       		.uleb128 0x64
 4129 05ab 09       		.uleb128 0x9
 4130 05ac 99040000 		.4byte	.LASF83
 4131 05b0 09       		.byte	0x9
 4132 05b1 E2       		.byte	0xe2
 4133 05b2 E6000000 		.4byte	0xe6
ARM GAS  /tmp/ccKKWSFE.s 			page 74


 4134 05b6 02       		.byte	0x2
 4135 05b7 23       		.byte	0x23
 4136 05b8 68       		.uleb128 0x68
 4137 05b9 09       		.uleb128 0x9
 4138 05ba 11040000 		.4byte	.LASF84
 4139 05be 09       		.byte	0x9
 4140 05bf E4       		.byte	0xe4
 4141 05c0 D0000000 		.4byte	0xd0
 4142 05c4 02       		.byte	0x2
 4143 05c5 23       		.byte	0x23
 4144 05c6 6C       		.uleb128 0x6c
 4145 05c7 09       		.uleb128 0x9
 4146 05c8 E1060000 		.4byte	.LASF85
 4147 05cc 09       		.byte	0x9
 4148 05cd E6       		.byte	0xe6
 4149 05ce D0000000 		.4byte	0xd0
 4150 05d2 02       		.byte	0x2
 4151 05d3 23       		.byte	0x23
 4152 05d4 6E       		.uleb128 0x6e
 4153 05d5 09       		.uleb128 0x9
 4154 05d6 1B080000 		.4byte	.LASF86
 4155 05da 09       		.byte	0x9
 4156 05db E8       		.byte	0xe8
 4157 05dc D0000000 		.4byte	0xd0
 4158 05e0 02       		.byte	0x2
 4159 05e1 23       		.byte	0x23
 4160 05e2 70       		.uleb128 0x70
 4161 05e3 09       		.uleb128 0x9
 4162 05e4 74060000 		.4byte	.LASF87
 4163 05e8 09       		.byte	0x9
 4164 05e9 EC       		.byte	0xec
 4165 05ea D0000000 		.4byte	0xd0
 4166 05ee 02       		.byte	0x2
 4167 05ef 23       		.byte	0x23
 4168 05f0 72       		.uleb128 0x72
 4169 05f1 09       		.uleb128 0x9
 4170 05f2 FF050000 		.4byte	.LASF88
 4171 05f6 09       		.byte	0x9
 4172 05f7 F0       		.byte	0xf0
 4173 05f8 0C080000 		.4byte	0x80c
 4174 05fc 02       		.byte	0x2
 4175 05fd 23       		.byte	0x23
 4176 05fe 74       		.uleb128 0x74
 4177 05ff 09       		.uleb128 0x9
 4178 0600 FA020000 		.4byte	.LASF89
 4179 0604 09       		.byte	0x9
 4180 0605 F1       		.byte	0xf1
 4181 0606 0C080000 		.4byte	0x80c
 4182 060a 02       		.byte	0x2
 4183 060b 23       		.byte	0x23
 4184 060c 78       		.uleb128 0x78
 4185 060d 09       		.uleb128 0x9
 4186 060e A7050000 		.4byte	.LASF90
 4187 0612 09       		.byte	0x9
 4188 0613 F3       		.byte	0xf3
 4189 0614 0C080000 		.4byte	0x80c
 4190 0618 02       		.byte	0x2
ARM GAS  /tmp/ccKKWSFE.s 			page 75


 4191 0619 23       		.byte	0x23
 4192 061a 7C       		.uleb128 0x7c
 4193 061b 09       		.uleb128 0x9
 4194 061c 62070000 		.4byte	.LASF91
 4195 0620 09       		.byte	0x9
 4196 0621 F6       		.byte	0xf6
 4197 0622 D9010000 		.4byte	0x1d9
 4198 0626 03       		.byte	0x3
 4199 0627 23       		.byte	0x23
 4200 0628 8001     		.uleb128 0x80
 4201 062a 09       		.uleb128 0x9
 4202 062b 71040000 		.4byte	.LASF92
 4203 062f 09       		.byte	0x9
 4204 0630 FA       		.byte	0xfa
 4205 0631 E8060000 		.4byte	0x6e8
 4206 0635 03       		.byte	0x3
 4207 0636 23       		.byte	0x23
 4208 0637 8401     		.uleb128 0x84
 4209 0639 09       		.uleb128 0x9
 4210 063a 39080000 		.4byte	.LASF93
 4211 063e 09       		.byte	0x9
 4212 063f FC       		.byte	0xfc
 4213 0640 B8060000 		.4byte	0x6b8
 4214 0644 03       		.byte	0x3
 4215 0645 23       		.byte	0x23
 4216 0646 8801     		.uleb128 0x88
 4217 0648 09       		.uleb128 0x9
 4218 0649 3B030000 		.4byte	.LASF94
 4219 064d 09       		.byte	0x9
 4220 064e FE       		.byte	0xfe
 4221 064f 5B070000 		.4byte	0x75b
 4222 0653 03       		.byte	0x3
 4223 0654 23       		.byte	0x23
 4224 0655 8C01     		.uleb128 0x8c
 4225 0657 10       		.uleb128 0x10
 4226 0658 E4030000 		.4byte	.LASF95
 4227 065c 09       		.byte	0x9
 4228 065d 0001     		.2byte	0x100
 4229 065f 13070000 		.4byte	0x713
 4230 0663 03       		.byte	0x3
 4231 0664 23       		.byte	0x23
 4232 0665 9001     		.uleb128 0x90
 4233 0667 10       		.uleb128 0x10
 4234 0668 7A050000 		.4byte	.LASF96
 4235 066c 09       		.byte	0x9
 4236 066d 0201     		.2byte	0x102
 4237 066f 39070000 		.4byte	0x739
 4238 0673 03       		.byte	0x3
 4239 0674 23       		.byte	0x23
 4240 0675 9401     		.uleb128 0x94
 4241 0677 10       		.uleb128 0x10
 4242 0678 E7070000 		.4byte	.LASF97
 4243 067c 09       		.byte	0x9
 4244 067d 0B01     		.2byte	0x10b
 4245 067f E6000000 		.4byte	0xe6
 4246 0683 03       		.byte	0x3
 4247 0684 23       		.byte	0x23
ARM GAS  /tmp/ccKKWSFE.s 			page 76


 4248 0685 9801     		.uleb128 0x98
 4249 0687 10       		.uleb128 0x10
 4250 0688 82080000 		.4byte	.LASF98
 4251 068c 09       		.byte	0x9
 4252 068d 1201     		.2byte	0x112
 4253 068f E6000000 		.4byte	0xe6
 4254 0693 03       		.byte	0x3
 4255 0694 23       		.byte	0x23
 4256 0695 9C01     		.uleb128 0x9c
 4257 0697 10       		.uleb128 0x10
 4258 0698 D7040000 		.4byte	.LASF99
 4259 069c 09       		.byte	0x9
 4260 069d 1401     		.2byte	0x114
 4261 069f BA000000 		.4byte	0xba
 4262 06a3 03       		.byte	0x3
 4263 06a4 23       		.byte	0x23
 4264 06a5 A001     		.uleb128 0xa0
 4265 06a7 10       		.uleb128 0x10
 4266 06a8 61010000 		.4byte	.LASF100
 4267 06ac 09       		.byte	0x9
 4268 06ad 1701     		.2byte	0x117
 4269 06af BA000000 		.4byte	0xba
 4270 06b3 03       		.byte	0x3
 4271 06b4 23       		.byte	0x23
 4272 06b5 A101     		.uleb128 0xa1
 4273 06b7 00       		.byte	0
 4274 06b8 04       		.uleb128 0x4
 4275 06b9 42050000 		.4byte	.LASF101
 4276 06bd 09       		.byte	0x9
 4277 06be 49       		.byte	0x49
 4278 06bf C3060000 		.4byte	0x6c3
 4279 06c3 0B       		.uleb128 0xb
 4280 06c4 04       		.byte	0x4
 4281 06c5 C9060000 		.4byte	0x6c9
 4282 06c9 0C       		.uleb128 0xc
 4283 06ca 01       		.byte	0x1
 4284 06cb 07010000 		.4byte	0x107
 4285 06cf E8060000 		.4byte	0x6e8
 4286 06d3 0D       		.uleb128 0xd
 4287 06d4 B1000000 		.4byte	0xb1
 4288 06d8 0D       		.uleb128 0xd
 4289 06d9 A3030000 		.4byte	0x3a3
 4290 06dd 0D       		.uleb128 0xd
 4291 06de D9010000 		.4byte	0x1d9
 4292 06e2 0D       		.uleb128 0xd
 4293 06e3 07010000 		.4byte	0x107
 4294 06e7 00       		.byte	0
 4295 06e8 04       		.uleb128 0x4
 4296 06e9 89010000 		.4byte	.LASF102
 4297 06ed 09       		.byte	0x9
 4298 06ee 57       		.byte	0x57
 4299 06ef F3060000 		.4byte	0x6f3
 4300 06f3 0B       		.uleb128 0xb
 4301 06f4 04       		.byte	0x4
 4302 06f5 F9060000 		.4byte	0x6f9
 4303 06f9 0C       		.uleb128 0xc
 4304 06fa 01       		.byte	0x1
ARM GAS  /tmp/ccKKWSFE.s 			page 77


 4305 06fb 07010000 		.4byte	0x107
 4306 06ff 13070000 		.4byte	0x713
 4307 0703 0D       		.uleb128 0xd
 4308 0704 B1000000 		.4byte	0xb1
 4309 0708 0D       		.uleb128 0xd
 4310 0709 A3030000 		.4byte	0x3a3
 4311 070d 0D       		.uleb128 0xd
 4312 070e D0000000 		.4byte	0xd0
 4313 0712 00       		.byte	0
 4314 0713 04       		.uleb128 0x4
 4315 0714 58050000 		.4byte	.LASF103
 4316 0718 09       		.byte	0x9
 4317 0719 63       		.byte	0x63
 4318 071a 1E070000 		.4byte	0x71e
 4319 071e 0B       		.uleb128 0xb
 4320 071f 04       		.byte	0x4
 4321 0720 24070000 		.4byte	0x724
 4322 0724 0C       		.uleb128 0xc
 4323 0725 01       		.byte	0x1
 4324 0726 07010000 		.4byte	0x107
 4325 072a 39070000 		.4byte	0x739
 4326 072e 0D       		.uleb128 0xd
 4327 072f B1000000 		.4byte	0xb1
 4328 0733 0D       		.uleb128 0xd
 4329 0734 A3030000 		.4byte	0x3a3
 4330 0738 00       		.byte	0
 4331 0739 04       		.uleb128 0x4
 4332 073a 8E040000 		.4byte	.LASF104
 4333 073e 09       		.byte	0x9
 4334 073f 6F       		.byte	0x6f
 4335 0740 44070000 		.4byte	0x744
 4336 0744 0B       		.uleb128 0xb
 4337 0745 04       		.byte	0x4
 4338 0746 4A070000 		.4byte	0x74a
 4339 074a 11       		.uleb128 0x11
 4340 074b 01       		.byte	0x1
 4341 074c 5B070000 		.4byte	0x75b
 4342 0750 0D       		.uleb128 0xd
 4343 0751 B1000000 		.4byte	0xb1
 4344 0755 0D       		.uleb128 0xd
 4345 0756 07010000 		.4byte	0x107
 4346 075a 00       		.byte	0
 4347 075b 04       		.uleb128 0x4
 4348 075c AF000000 		.4byte	.LASF105
 4349 0760 09       		.byte	0x9
 4350 0761 7D       		.byte	0x7d
 4351 0762 83030000 		.4byte	0x383
 4352 0766 12       		.uleb128 0x12
 4353 0767 B9020000 		.4byte	.LASF213
 4354 076b 01       		.byte	0x1
 4355 076c 09       		.byte	0x9
 4356 076d 7F       		.byte	0x7f
 4357 076e B5070000 		.4byte	0x7b5
 4358 0772 07       		.uleb128 0x7
 4359 0773 B8050000 		.4byte	.LASF106
 4360 0777 00       		.sleb128 0
 4361 0778 07       		.uleb128 0x7
ARM GAS  /tmp/ccKKWSFE.s 			page 78


 4362 0779 FE070000 		.4byte	.LASF107
 4363 077d 01       		.sleb128 1
 4364 077e 07       		.uleb128 0x7
 4365 077f DE070000 		.4byte	.LASF108
 4366 0783 02       		.sleb128 2
 4367 0784 07       		.uleb128 0x7
 4368 0785 C5080000 		.4byte	.LASF109
 4369 0789 03       		.sleb128 3
 4370 078a 07       		.uleb128 0x7
 4371 078b 9B060000 		.4byte	.LASF110
 4372 078f 04       		.sleb128 4
 4373 0790 07       		.uleb128 0x7
 4374 0791 AB070000 		.4byte	.LASF111
 4375 0795 05       		.sleb128 5
 4376 0796 07       		.uleb128 0x7
 4377 0797 B6070000 		.4byte	.LASF112
 4378 079b 06       		.sleb128 6
 4379 079c 07       		.uleb128 0x7
 4380 079d 17040000 		.4byte	.LASF113
 4381 07a1 07       		.sleb128 7
 4382 07a2 07       		.uleb128 0x7
 4383 07a3 67030000 		.4byte	.LASF114
 4384 07a7 08       		.sleb128 8
 4385 07a8 07       		.uleb128 0x7
 4386 07a9 13030000 		.4byte	.LASF115
 4387 07ad 09       		.sleb128 9
 4388 07ae 07       		.uleb128 0x7
 4389 07af 98000000 		.4byte	.LASF116
 4390 07b3 0A       		.sleb128 10
 4391 07b4 00       		.byte	0
 4392 07b5 13       		.uleb128 0x13
 4393 07b6 46020000 		.4byte	.LASF117
 4394 07ba 10       		.byte	0x10
 4395 07bb 0A       		.byte	0xa
 4396 07bc 1601     		.2byte	0x116
 4397 07be 0C080000 		.4byte	0x80c
 4398 07c2 10       		.uleb128 0x10
 4399 07c3 C0000000 		.4byte	.LASF34
 4400 07c7 0A       		.byte	0xa
 4401 07c8 1701     		.2byte	0x117
 4402 07ca 0C080000 		.4byte	0x80c
 4403 07ce 02       		.byte	0x2
 4404 07cf 23       		.byte	0x23
 4405 07d0 00       		.uleb128 0
 4406 07d1 14       		.uleb128 0x14
 4407 07d2 7000     		.ascii	"p\000"
 4408 07d4 0A       		.byte	0xa
 4409 07d5 1801     		.2byte	0x118
 4410 07d7 D9010000 		.4byte	0x1d9
 4411 07db 02       		.byte	0x2
 4412 07dc 23       		.byte	0x23
 4413 07dd 04       		.uleb128 0x4
 4414 07de 14       		.uleb128 0x14
 4415 07df 6C656E00 		.ascii	"len\000"
 4416 07e3 0A       		.byte	0xa
 4417 07e4 1901     		.2byte	0x119
 4418 07e6 D0000000 		.4byte	0xd0
ARM GAS  /tmp/ccKKWSFE.s 			page 79


 4419 07ea 02       		.byte	0x2
 4420 07eb 23       		.byte	0x23
 4421 07ec 08       		.uleb128 0x8
 4422 07ed 10       		.uleb128 0x10
 4423 07ee 80000000 		.4byte	.LASF38
 4424 07f2 0A       		.byte	0xa
 4425 07f3 2301     		.2byte	0x123
 4426 07f5 BA000000 		.4byte	0xba
 4427 07f9 02       		.byte	0x2
 4428 07fa 23       		.byte	0x23
 4429 07fb 0A       		.uleb128 0xa
 4430 07fc 10       		.uleb128 0x10
 4431 07fd 39070000 		.4byte	.LASF118
 4432 0801 0A       		.byte	0xa
 4433 0802 2801     		.2byte	0x128
 4434 0804 8F080000 		.4byte	0x88f
 4435 0808 02       		.byte	0x2
 4436 0809 23       		.byte	0x23
 4437 080a 0C       		.uleb128 0xc
 4438 080b 00       		.byte	0
 4439 080c 0B       		.uleb128 0xb
 4440 080d 04       		.byte	0x4
 4441 080e B5070000 		.4byte	0x7b5
 4442 0812 08       		.uleb128 0x8
 4443 0813 86070000 		.4byte	.LASF119
 4444 0817 14       		.byte	0x14
 4445 0818 0A       		.byte	0xa
 4446 0819 9E       		.byte	0x9e
 4447 081a 8F080000 		.4byte	0x88f
 4448 081e 0A       		.uleb128 0xa
 4449 081f 73726300 		.ascii	"src\000"
 4450 0823 0A       		.byte	0xa
 4451 0824 9F       		.byte	0x9f
 4452 0825 D0000000 		.4byte	0xd0
 4453 0829 02       		.byte	0x2
 4454 082a 23       		.byte	0x23
 4455 082b 00       		.uleb128 0
 4456 082c 09       		.uleb128 0x9
 4457 082d C0080000 		.4byte	.LASF120
 4458 0831 0A       		.byte	0xa
 4459 0832 A0       		.byte	0xa0
 4460 0833 D0000000 		.4byte	0xd0
 4461 0837 02       		.byte	0x2
 4462 0838 23       		.byte	0x23
 4463 0839 02       		.uleb128 0x2
 4464 083a 09       		.uleb128 0x9
 4465 083b C4010000 		.4byte	.LASF121
 4466 083f 0A       		.byte	0xa
 4467 0840 A1       		.byte	0xa1
 4468 0841 E6000000 		.4byte	0xe6
 4469 0845 02       		.byte	0x2
 4470 0846 23       		.byte	0x23
 4471 0847 04       		.uleb128 0x4
 4472 0848 09       		.uleb128 0x9
 4473 0849 C3040000 		.4byte	.LASF122
 4474 084d 0A       		.byte	0xa
 4475 084e A2       		.byte	0xa2
ARM GAS  /tmp/ccKKWSFE.s 			page 80


 4476 084f E6000000 		.4byte	0xe6
 4477 0853 02       		.byte	0x2
 4478 0854 23       		.byte	0x23
 4479 0855 08       		.uleb128 0x8
 4480 0856 09       		.uleb128 0x9
 4481 0857 03070000 		.4byte	.LASF123
 4482 085b 0A       		.byte	0xa
 4483 085c A3       		.byte	0xa3
 4484 085d D0000000 		.4byte	0xd0
 4485 0861 02       		.byte	0x2
 4486 0862 23       		.byte	0x23
 4487 0863 0C       		.uleb128 0xc
 4488 0864 0A       		.uleb128 0xa
 4489 0865 776E6400 		.ascii	"wnd\000"
 4490 0869 0A       		.byte	0xa
 4491 086a A4       		.byte	0xa4
 4492 086b D0000000 		.4byte	0xd0
 4493 086f 02       		.byte	0x2
 4494 0870 23       		.byte	0x23
 4495 0871 0E       		.uleb128 0xe
 4496 0872 09       		.uleb128 0x9
 4497 0873 28080000 		.4byte	.LASF124
 4498 0877 0A       		.byte	0xa
 4499 0878 A5       		.byte	0xa5
 4500 0879 D0000000 		.4byte	0xd0
 4501 087d 02       		.byte	0x2
 4502 087e 23       		.byte	0x23
 4503 087f 10       		.uleb128 0x10
 4504 0880 09       		.uleb128 0x9
 4505 0881 5C000000 		.4byte	.LASF125
 4506 0885 0A       		.byte	0xa
 4507 0886 A6       		.byte	0xa6
 4508 0887 D0000000 		.4byte	0xd0
 4509 088b 02       		.byte	0x2
 4510 088c 23       		.byte	0x23
 4511 088d 12       		.uleb128 0x12
 4512 088e 00       		.byte	0
 4513 088f 0B       		.uleb128 0xb
 4514 0890 04       		.byte	0x4
 4515 0891 12080000 		.4byte	0x812
 4516 0895 06       		.uleb128 0x6
 4517 0896 01       		.byte	0x1
 4518 0897 0B       		.byte	0xb
 4519 0898 2B       		.byte	0x2b
 4520 0899 F8080000 		.4byte	0x8f8
 4521 089d 07       		.uleb128 0x7
 4522 089e F6060000 		.4byte	.LASF126
 4523 08a2 00       		.sleb128 0
 4524 08a3 07       		.uleb128 0x7
 4525 08a4 51060000 		.4byte	.LASF127
 4526 08a8 01       		.sleb128 1
 4527 08a9 07       		.uleb128 0x7
 4528 08aa E7040000 		.4byte	.LASF128
 4529 08ae 02       		.sleb128 2
 4530 08af 07       		.uleb128 0x7
 4531 08b0 17000000 		.4byte	.LASF129
 4532 08b4 03       		.sleb128 3
ARM GAS  /tmp/ccKKWSFE.s 			page 81


 4533 08b5 07       		.uleb128 0x7
 4534 08b6 C8070000 		.4byte	.LASF130
 4535 08ba 04       		.sleb128 4
 4536 08bb 07       		.uleb128 0x7
 4537 08bc 33050000 		.4byte	.LASF131
 4538 08c0 05       		.sleb128 5
 4539 08c1 07       		.uleb128 0x7
 4540 08c2 C9060000 		.4byte	.LASF132
 4541 08c6 06       		.sleb128 6
 4542 08c7 07       		.uleb128 0x7
 4543 08c8 A1040000 		.4byte	.LASF133
 4544 08cc 07       		.sleb128 7
 4545 08cd 07       		.uleb128 0x7
 4546 08ce 95030000 		.4byte	.LASF134
 4547 08d2 08       		.sleb128 8
 4548 08d3 07       		.uleb128 0x7
 4549 08d4 EE010000 		.4byte	.LASF135
 4550 08d8 09       		.sleb128 9
 4551 08d9 07       		.uleb128 0x7
 4552 08da DC020000 		.4byte	.LASF136
 4553 08de 0A       		.sleb128 10
 4554 08df 07       		.uleb128 0x7
 4555 08e0 40060000 		.4byte	.LASF137
 4556 08e4 0B       		.sleb128 11
 4557 08e5 07       		.uleb128 0x7
 4558 08e6 DA030000 		.4byte	.LASF138
 4559 08ea 0C       		.sleb128 12
 4560 08eb 07       		.uleb128 0x7
 4561 08ec 6F010000 		.4byte	.LASF139
 4562 08f0 0D       		.sleb128 13
 4563 08f1 07       		.uleb128 0x7
 4564 08f2 81030000 		.4byte	.LASF140
 4565 08f6 0E       		.sleb128 14
 4566 08f7 00       		.byte	0
 4567 08f8 08       		.uleb128 0x8
 4568 08f9 05040000 		.4byte	.LASF141
 4569 08fd 18       		.byte	0x18
 4570 08fe 0C       		.byte	0xc
 4571 08ff 3A       		.byte	0x3a
 4572 0900 AC090000 		.4byte	0x9ac
 4573 0904 09       		.uleb128 0x9
 4574 0905 7D080000 		.4byte	.LASF142
 4575 0909 0C       		.byte	0xc
 4576 090a 3B       		.byte	0x3b
 4577 090b D0000000 		.4byte	0xd0
 4578 090f 02       		.byte	0x2
 4579 0910 23       		.byte	0x23
 4580 0911 00       		.uleb128 0
 4581 0912 09       		.uleb128 0x9
 4582 0913 39080000 		.4byte	.LASF93
 4583 0917 0C       		.byte	0xc
 4584 0918 3C       		.byte	0x3c
 4585 0919 D0000000 		.4byte	0xd0
 4586 091d 02       		.byte	0x2
 4587 091e 23       		.byte	0x23
 4588 091f 02       		.uleb128 0x2
 4589 0920 0A       		.uleb128 0xa
ARM GAS  /tmp/ccKKWSFE.s 			page 82


 4590 0921 667700   		.ascii	"fw\000"
 4591 0924 0C       		.byte	0xc
 4592 0925 3D       		.byte	0x3d
 4593 0926 D0000000 		.4byte	0xd0
 4594 092a 02       		.byte	0x2
 4595 092b 23       		.byte	0x23
 4596 092c 04       		.uleb128 0x4
 4597 092d 09       		.uleb128 0x9
 4598 092e 0A080000 		.4byte	.LASF143
 4599 0932 0C       		.byte	0xc
 4600 0933 3E       		.byte	0x3e
 4601 0934 D0000000 		.4byte	0xd0
 4602 0938 02       		.byte	0x2
 4603 0939 23       		.byte	0x23
 4604 093a 06       		.uleb128 0x6
 4605 093b 09       		.uleb128 0x9
 4606 093c 2C050000 		.4byte	.LASF144
 4607 0940 0C       		.byte	0xc
 4608 0941 3F       		.byte	0x3f
 4609 0942 D0000000 		.4byte	0xd0
 4610 0946 02       		.byte	0x2
 4611 0947 23       		.byte	0x23
 4612 0948 08       		.uleb128 0x8
 4613 0949 09       		.uleb128 0x9
 4614 094a 16070000 		.4byte	.LASF145
 4615 094e 0C       		.byte	0xc
 4616 094f 40       		.byte	0x40
 4617 0950 D0000000 		.4byte	0xd0
 4618 0954 02       		.byte	0x2
 4619 0955 23       		.byte	0x23
 4620 0956 0A       		.uleb128 0xa
 4621 0957 09       		.uleb128 0x9
 4622 0958 C1070000 		.4byte	.LASF146
 4623 095c 0C       		.byte	0xc
 4624 095d 41       		.byte	0x41
 4625 095e D0000000 		.4byte	0xd0
 4626 0962 02       		.byte	0x2
 4627 0963 23       		.byte	0x23
 4628 0964 0C       		.uleb128 0xc
 4629 0965 09       		.uleb128 0x9
 4630 0966 EC050000 		.4byte	.LASF147
 4631 096a 0C       		.byte	0xc
 4632 096b 42       		.byte	0x42
 4633 096c D0000000 		.4byte	0xd0
 4634 0970 02       		.byte	0x2
 4635 0971 23       		.byte	0x23
 4636 0972 0E       		.uleb128 0xe
 4637 0973 09       		.uleb128 0x9
 4638 0974 75070000 		.4byte	.LASF148
 4639 0978 0C       		.byte	0xc
 4640 0979 43       		.byte	0x43
 4641 097a D0000000 		.4byte	0xd0
 4642 097e 02       		.byte	0x2
 4643 097f 23       		.byte	0x23
 4644 0980 10       		.uleb128 0x10
 4645 0981 09       		.uleb128 0x9
 4646 0982 01020000 		.4byte	.LASF149
ARM GAS  /tmp/ccKKWSFE.s 			page 83


 4647 0986 0C       		.byte	0xc
 4648 0987 44       		.byte	0x44
 4649 0988 D0000000 		.4byte	0xd0
 4650 098c 02       		.byte	0x2
 4651 098d 23       		.byte	0x23
 4652 098e 12       		.uleb128 0x12
 4653 098f 0A       		.uleb128 0xa
 4654 0990 65727200 		.ascii	"err\000"
 4655 0994 0C       		.byte	0xc
 4656 0995 45       		.byte	0x45
 4657 0996 D0000000 		.4byte	0xd0
 4658 099a 02       		.byte	0x2
 4659 099b 23       		.byte	0x23
 4660 099c 14       		.uleb128 0x14
 4661 099d 09       		.uleb128 0x9
 4662 099e A7060000 		.4byte	.LASF150
 4663 09a2 0C       		.byte	0xc
 4664 09a3 46       		.byte	0x46
 4665 09a4 D0000000 		.4byte	0xd0
 4666 09a8 02       		.byte	0x2
 4667 09a9 23       		.byte	0x23
 4668 09aa 16       		.uleb128 0x16
 4669 09ab 00       		.byte	0
 4670 09ac 08       		.uleb128 0x8
 4671 09ad 40010000 		.4byte	.LASF151
 4672 09b1 0A       		.byte	0xa
 4673 09b2 0C       		.byte	0xc
 4674 09b3 5A       		.byte	0x5a
 4675 09b4 FF090000 		.4byte	0x9ff
 4676 09b8 09       		.uleb128 0x9
 4677 09b9 F2050000 		.4byte	.LASF152
 4678 09bd 0C       		.byte	0xc
 4679 09be 5E       		.byte	0x5e
 4680 09bf 12010000 		.4byte	0x112
 4681 09c3 02       		.byte	0x2
 4682 09c4 23       		.byte	0x23
 4683 09c5 00       		.uleb128 0
 4684 09c6 09       		.uleb128 0x9
 4685 09c7 13050000 		.4byte	.LASF153
 4686 09cb 0C       		.byte	0xc
 4687 09cc 5F       		.byte	0x5f
 4688 09cd 12010000 		.4byte	0x112
 4689 09d1 02       		.byte	0x2
 4690 09d2 23       		.byte	0x23
 4691 09d3 02       		.uleb128 0x2
 4692 09d4 0A       		.uleb128 0xa
 4693 09d5 6D617800 		.ascii	"max\000"
 4694 09d9 0C       		.byte	0xc
 4695 09da 60       		.byte	0x60
 4696 09db 12010000 		.4byte	0x112
 4697 09df 02       		.byte	0x2
 4698 09e0 23       		.byte	0x23
 4699 09e1 04       		.uleb128 0x4
 4700 09e2 0A       		.uleb128 0xa
 4701 09e3 65727200 		.ascii	"err\000"
 4702 09e7 0C       		.byte	0xc
 4703 09e8 61       		.byte	0x61
ARM GAS  /tmp/ccKKWSFE.s 			page 84


 4704 09e9 D0000000 		.4byte	0xd0
 4705 09ed 02       		.byte	0x2
 4706 09ee 23       		.byte	0x23
 4707 09ef 06       		.uleb128 0x6
 4708 09f0 09       		.uleb128 0x9
 4709 09f1 21020000 		.4byte	.LASF154
 4710 09f5 0C       		.byte	0xc
 4711 09f6 62       		.byte	0x62
 4712 09f7 D0000000 		.4byte	0xd0
 4713 09fb 02       		.byte	0x2
 4714 09fc 23       		.byte	0x23
 4715 09fd 08       		.uleb128 0x8
 4716 09fe 00       		.byte	0
 4717 09ff 08       		.uleb128 0x8
 4718 0a00 B6010000 		.4byte	.LASF155
 4719 0a04 06       		.byte	0x6
 4720 0a05 0C       		.byte	0xc
 4721 0a06 65       		.byte	0x65
 4722 0a07 360A0000 		.4byte	0xa36
 4723 0a0b 09       		.uleb128 0x9
 4724 0a0c 13050000 		.4byte	.LASF153
 4725 0a10 0C       		.byte	0xc
 4726 0a11 66       		.byte	0x66
 4727 0a12 D0000000 		.4byte	0xd0
 4728 0a16 02       		.byte	0x2
 4729 0a17 23       		.byte	0x23
 4730 0a18 00       		.uleb128 0
 4731 0a19 0A       		.uleb128 0xa
 4732 0a1a 6D617800 		.ascii	"max\000"
 4733 0a1e 0C       		.byte	0xc
 4734 0a1f 67       		.byte	0x67
 4735 0a20 D0000000 		.4byte	0xd0
 4736 0a24 02       		.byte	0x2
 4737 0a25 23       		.byte	0x23
 4738 0a26 02       		.uleb128 0x2
 4739 0a27 0A       		.uleb128 0xa
 4740 0a28 65727200 		.ascii	"err\000"
 4741 0a2c 0C       		.byte	0xc
 4742 0a2d 68       		.byte	0x68
 4743 0a2e D0000000 		.4byte	0xd0
 4744 0a32 02       		.byte	0x2
 4745 0a33 23       		.byte	0x23
 4746 0a34 04       		.uleb128 0x4
 4747 0a35 00       		.byte	0
 4748 0a36 08       		.uleb128 0x8
 4749 0a37 93070000 		.4byte	.LASF156
 4750 0a3b 12       		.byte	0x12
 4751 0a3c 0C       		.byte	0xc
 4752 0a3d 6B       		.byte	0x6b
 4753 0a3e 6D0A0000 		.4byte	0xa6d
 4754 0a42 0A       		.uleb128 0xa
 4755 0a43 73656D00 		.ascii	"sem\000"
 4756 0a47 0C       		.byte	0xc
 4757 0a48 6C       		.byte	0x6c
 4758 0a49 FF090000 		.4byte	0x9ff
 4759 0a4d 02       		.byte	0x2
 4760 0a4e 23       		.byte	0x23
ARM GAS  /tmp/ccKKWSFE.s 			page 85


 4761 0a4f 00       		.uleb128 0
 4762 0a50 09       		.uleb128 0x9
 4763 0a51 13020000 		.4byte	.LASF157
 4764 0a55 0C       		.byte	0xc
 4765 0a56 6D       		.byte	0x6d
 4766 0a57 FF090000 		.4byte	0x9ff
 4767 0a5b 02       		.byte	0x2
 4768 0a5c 23       		.byte	0x23
 4769 0a5d 06       		.uleb128 0x6
 4770 0a5e 09       		.uleb128 0x9
 4771 0a5f 6F060000 		.4byte	.LASF158
 4772 0a63 0C       		.byte	0xc
 4773 0a64 6E       		.byte	0x6e
 4774 0a65 FF090000 		.4byte	0x9ff
 4775 0a69 02       		.byte	0x2
 4776 0a6a 23       		.byte	0x23
 4777 0a6b 0C       		.uleb128 0xc
 4778 0a6c 00       		.byte	0
 4779 0a6d 15       		.uleb128 0x15
 4780 0a6e 07030000 		.4byte	.LASF159
 4781 0a72 5001     		.2byte	0x150
 4782 0a74 0C       		.byte	0xc
 4783 0a75 71       		.byte	0x71
 4784 0a76 0A0B0000 		.4byte	0xb0a
 4785 0a7a 09       		.uleb128 0x9
 4786 0a7b BB030000 		.4byte	.LASF160
 4787 0a7f 0C       		.byte	0xc
 4788 0a80 73       		.byte	0x73
 4789 0a81 F8080000 		.4byte	0x8f8
 4790 0a85 02       		.byte	0x2
 4791 0a86 23       		.byte	0x23
 4792 0a87 00       		.uleb128 0
 4793 0a88 09       		.uleb128 0x9
 4794 0a89 3F020000 		.4byte	.LASF161
 4795 0a8d 0C       		.byte	0xc
 4796 0a8e 76       		.byte	0x76
 4797 0a8f F8080000 		.4byte	0x8f8
 4798 0a93 02       		.byte	0x2
 4799 0a94 23       		.byte	0x23
 4800 0a95 18       		.uleb128 0x18
 4801 0a96 09       		.uleb128 0x9
 4802 0a97 19020000 		.4byte	.LASF162
 4803 0a9b 0C       		.byte	0xc
 4804 0a9c 79       		.byte	0x79
 4805 0a9d F8080000 		.4byte	0x8f8
 4806 0aa1 02       		.byte	0x2
 4807 0aa2 23       		.byte	0x23
 4808 0aa3 30       		.uleb128 0x30
 4809 0aa4 0A       		.uleb128 0xa
 4810 0aa5 697000   		.ascii	"ip\000"
 4811 0aa8 0C       		.byte	0xc
 4812 0aa9 7C       		.byte	0x7c
 4813 0aaa F8080000 		.4byte	0x8f8
 4814 0aae 02       		.byte	0x2
 4815 0aaf 23       		.byte	0x23
 4816 0ab0 48       		.uleb128 0x48
 4817 0ab1 09       		.uleb128 0x9
ARM GAS  /tmp/ccKKWSFE.s 			page 86


 4818 0ab2 D5050000 		.4byte	.LASF163
 4819 0ab6 0C       		.byte	0xc
 4820 0ab7 7F       		.byte	0x7f
 4821 0ab8 F8080000 		.4byte	0x8f8
 4822 0abc 02       		.byte	0x2
 4823 0abd 23       		.byte	0x23
 4824 0abe 60       		.uleb128 0x60
 4825 0abf 0A       		.uleb128 0xa
 4826 0ac0 75647000 		.ascii	"udp\000"
 4827 0ac4 0C       		.byte	0xc
 4828 0ac5 85       		.byte	0x85
 4829 0ac6 F8080000 		.4byte	0x8f8
 4830 0aca 02       		.byte	0x2
 4831 0acb 23       		.byte	0x23
 4832 0acc 78       		.uleb128 0x78
 4833 0acd 0A       		.uleb128 0xa
 4834 0ace 74637000 		.ascii	"tcp\000"
 4835 0ad2 0C       		.byte	0xc
 4836 0ad3 88       		.byte	0x88
 4837 0ad4 F8080000 		.4byte	0x8f8
 4838 0ad8 03       		.byte	0x3
 4839 0ad9 23       		.byte	0x23
 4840 0ada 9001     		.uleb128 0x90
 4841 0adc 0A       		.uleb128 0xa
 4842 0add 6D656D00 		.ascii	"mem\000"
 4843 0ae1 0C       		.byte	0xc
 4844 0ae2 8B       		.byte	0x8b
 4845 0ae3 AC090000 		.4byte	0x9ac
 4846 0ae7 03       		.byte	0x3
 4847 0ae8 23       		.byte	0x23
 4848 0ae9 A801     		.uleb128 0xa8
 4849 0aeb 09       		.uleb128 0x9
 4850 0aec F4040000 		.4byte	.LASF164
 4851 0af0 0C       		.byte	0xc
 4852 0af1 8E       		.byte	0x8e
 4853 0af2 0A0B0000 		.4byte	0xb0a
 4854 0af6 03       		.byte	0x3
 4855 0af7 23       		.byte	0x23
 4856 0af8 B201     		.uleb128 0xb2
 4857 0afa 0A       		.uleb128 0xa
 4858 0afb 73797300 		.ascii	"sys\000"
 4859 0aff 0C       		.byte	0xc
 4860 0b00 91       		.byte	0x91
 4861 0b01 360A0000 		.4byte	0xa36
 4862 0b05 03       		.byte	0x3
 4863 0b06 23       		.byte	0x23
 4864 0b07 BE02     		.uleb128 0x13e
 4865 0b09 00       		.byte	0
 4866 0b0a 0E       		.uleb128 0xe
 4867 0b0b AC090000 		.4byte	0x9ac
 4868 0b0f 1A0B0000 		.4byte	0xb1a
 4869 0b13 0F       		.uleb128 0xf
 4870 0b14 30000000 		.4byte	0x30
 4871 0b18 0D       		.byte	0xd
 4872 0b19 00       		.byte	0
 4873 0b1a 0B       		.uleb128 0xb
 4874 0b1b 04       		.byte	0x4
ARM GAS  /tmp/ccKKWSFE.s 			page 87


 4875 0b1c B3000000 		.4byte	0xb3
 4876 0b20 16       		.uleb128 0x16
 4877 0b21 87050000 		.4byte	.LASF169
 4878 0b25 01       		.byte	0x1
 4879 0b26 5C       		.byte	0x5c
 4880 0b27 01       		.byte	0x1
 4881 0b28 D9010000 		.4byte	0x1d9
 4882 0b2c 00000000 		.4byte	.LFB7
 4883 0b30 02010000 		.4byte	.LFE7
 4884 0b34 00000000 		.4byte	.LLST0
 4885 0b38 8F0B0000 		.4byte	0xb8f
 4886 0b3c 17       		.uleb128 0x17
 4887 0b3d 70636200 		.ascii	"pcb\000"
 4888 0b41 01       		.byte	0x1
 4889 0b42 5C       		.byte	0x5c
 4890 0b43 A3030000 		.4byte	0x3a3
 4891 0b47 02       		.byte	0x2
 4892 0b48 91       		.byte	0x91
 4893 0b49 6C       		.sleb128 -20
 4894 0b4a 18       		.uleb128 0x18
 4895 0b4b 4A010000 		.4byte	.LASF165
 4896 0b4f 01       		.byte	0x1
 4897 0b50 5C       		.byte	0x5c
 4898 0b51 D0000000 		.4byte	0xd0
 4899 0b55 02       		.byte	0x2
 4900 0b56 91       		.byte	0x91
 4901 0b57 6A       		.sleb128 -22
 4902 0b58 18       		.uleb128 0x18
 4903 0b59 67060000 		.4byte	.LASF166
 4904 0b5d 01       		.byte	0x1
 4905 0b5e 5C       		.byte	0x5c
 4906 0b5f D0000000 		.4byte	0xd0
 4907 0b63 02       		.byte	0x2
 4908 0b64 91       		.byte	0x91
 4909 0b65 68       		.sleb128 -24
 4910 0b66 18       		.uleb128 0x18
 4911 0b67 D5070000 		.4byte	.LASF167
 4912 0b6b 01       		.byte	0x1
 4913 0b6c 5D       		.byte	0x5d
 4914 0b6d E6000000 		.4byte	0xe6
 4915 0b71 02       		.byte	0x2
 4916 0b72 91       		.byte	0x91
 4917 0b73 64       		.sleb128 -28
 4918 0b74 19       		.uleb128 0x19
 4919 0b75 39070000 		.4byte	.LASF118
 4920 0b79 01       		.byte	0x1
 4921 0b7a 5F       		.byte	0x5f
 4922 0b7b 8F080000 		.4byte	0x88f
 4923 0b7f 02       		.byte	0x2
 4924 0b80 91       		.byte	0x91
 4925 0b81 70       		.sleb128 -16
 4926 0b82 1A       		.uleb128 0x1a
 4927 0b83 7000     		.ascii	"p\000"
 4928 0b85 01       		.byte	0x1
 4929 0b86 60       		.byte	0x60
 4930 0b87 D9010000 		.4byte	0x1d9
 4931 0b8b 02       		.byte	0x2
ARM GAS  /tmp/ccKKWSFE.s 			page 88


 4932 0b8c 91       		.byte	0x91
 4933 0b8d 74       		.sleb128 -12
 4934 0b8e 00       		.byte	0
 4935 0b8f 1B       		.uleb128 0x1b
 4936 0b90 01       		.byte	0x1
 4937 0b91 6D050000 		.4byte	.LASF181
 4938 0b95 01       		.byte	0x1
 4939 0b96 7B       		.byte	0x7b
 4940 0b97 01       		.byte	0x1
 4941 0b98 07010000 		.4byte	0x107
 4942 0b9c 00000000 		.4byte	.LFB8
 4943 0ba0 72000000 		.4byte	.LFE8
 4944 0ba4 2C000000 		.4byte	.LLST1
 4945 0ba8 D30B0000 		.4byte	0xbd3
 4946 0bac 17       		.uleb128 0x17
 4947 0bad 70636200 		.ascii	"pcb\000"
 4948 0bb1 01       		.byte	0x1
 4949 0bb2 7B       		.byte	0x7b
 4950 0bb3 A3030000 		.4byte	0x3a3
 4951 0bb7 02       		.byte	0x2
 4952 0bb8 91       		.byte	0x91
 4953 0bb9 64       		.sleb128 -28
 4954 0bba 1C       		.uleb128 0x1c
 4955 0bbb 0E000000 		.4byte	.LBB2
 4956 0bbf 5E000000 		.4byte	.LBE2
 4957 0bc3 19       		.uleb128 0x19
 4958 0bc4 EE030000 		.4byte	.LASF168
 4959 0bc8 01       		.byte	0x1
 4960 0bc9 7F       		.byte	0x7f
 4961 0bca 0C080000 		.4byte	0x80c
 4962 0bce 02       		.byte	0x2
 4963 0bcf 91       		.byte	0x91
 4964 0bd0 6C       		.sleb128 -20
 4965 0bd1 00       		.byte	0
 4966 0bd2 00       		.byte	0
 4967 0bd3 16       		.uleb128 0x16
 4968 0bd4 2D060000 		.4byte	.LASF170
 4969 0bd8 01       		.byte	0x1
 4970 0bd9 9C       		.byte	0x9c
 4971 0bda 01       		.byte	0x1
 4972 0bdb 0C080000 		.4byte	0x80c
 4973 0bdf 00000000 		.4byte	.LFB9
 4974 0be3 46010000 		.4byte	.LFE9
 4975 0be7 58000000 		.4byte	.LLST2
 4976 0beb 500C0000 		.4byte	0xc50
 4977 0bef 17       		.uleb128 0x17
 4978 0bf0 70636200 		.ascii	"pcb\000"
 4979 0bf4 01       		.byte	0x1
 4980 0bf5 9C       		.byte	0x9c
 4981 0bf6 A3030000 		.4byte	0x3a3
 4982 0bfa 02       		.byte	0x2
 4983 0bfb 91       		.byte	0x91
 4984 0bfc 6C       		.sleb128 -20
 4985 0bfd 17       		.uleb128 0x17
 4986 0bfe 7000     		.ascii	"p\000"
 4987 0c00 01       		.byte	0x1
 4988 0c01 9C       		.byte	0x9c
ARM GAS  /tmp/ccKKWSFE.s 			page 89


 4989 0c02 D9010000 		.4byte	0x1d9
 4990 0c06 02       		.byte	0x2
 4991 0c07 91       		.byte	0x91
 4992 0c08 68       		.sleb128 -24
 4993 0c09 18       		.uleb128 0x18
 4994 0c0a 80000000 		.4byte	.LASF38
 4995 0c0e 01       		.byte	0x1
 4996 0c0f 9C       		.byte	0x9c
 4997 0c10 BA000000 		.4byte	0xba
 4998 0c14 02       		.byte	0x2
 4999 0c15 91       		.byte	0x91
 5000 0c16 67       		.sleb128 -25
 5001 0c17 18       		.uleb128 0x18
 5002 0c18 C4010000 		.4byte	.LASF121
 5003 0c1c 01       		.byte	0x1
 5004 0c1d 9C       		.byte	0x9c
 5005 0c1e E6000000 		.4byte	0xe6
 5006 0c22 02       		.byte	0x2
 5007 0c23 91       		.byte	0x91
 5008 0c24 60       		.sleb128 -32
 5009 0c25 18       		.uleb128 0x18
 5010 0c26 FE040000 		.4byte	.LASF171
 5011 0c2a 01       		.byte	0x1
 5012 0c2b 9C       		.byte	0x9c
 5013 0c2c BA000000 		.4byte	0xba
 5014 0c30 02       		.byte	0x2
 5015 0c31 91       		.byte	0x91
 5016 0c32 00       		.sleb128 0
 5017 0c33 1A       		.uleb128 0x1a
 5018 0c34 73656700 		.ascii	"seg\000"
 5019 0c38 01       		.byte	0x1
 5020 0c39 9E       		.byte	0x9e
 5021 0c3a 0C080000 		.4byte	0x80c
 5022 0c3e 02       		.byte	0x2
 5023 0c3f 91       		.byte	0x91
 5024 0c40 70       		.sleb128 -16
 5025 0c41 19       		.uleb128 0x19
 5026 0c42 4A010000 		.4byte	.LASF165
 5027 0c46 01       		.byte	0x1
 5028 0c47 9F       		.byte	0x9f
 5029 0c48 BA000000 		.4byte	0xba
 5030 0c4c 02       		.byte	0x2
 5031 0c4d 91       		.byte	0x91
 5032 0c4e 77       		.sleb128 -9
 5033 0c4f 00       		.byte	0
 5034 0c50 16       		.uleb128 0x16
 5035 0c51 86000000 		.4byte	.LASF172
 5036 0c55 01       		.byte	0x1
 5037 0c56 D8       		.byte	0xd8
 5038 0c57 01       		.byte	0x1
 5039 0c58 D9010000 		.4byte	0x1d9
 5040 0c5c 00000000 		.4byte	.LFB10
 5041 0c60 D4000000 		.4byte	.LFE10
 5042 0c64 84000000 		.4byte	.LLST3
 5043 0c68 E90C0000 		.4byte	0xce9
 5044 0c6c 18       		.uleb128 0x18
 5045 0c6d 11000000 		.4byte	.LASF173
ARM GAS  /tmp/ccKKWSFE.s 			page 90


 5046 0c71 01       		.byte	0x1
 5047 0c72 D8       		.byte	0xd8
 5048 0c73 3E010000 		.4byte	0x13e
 5049 0c77 02       		.byte	0x2
 5050 0c78 91       		.byte	0x91
 5051 0c79 6F       		.sleb128 -17
 5052 0c7a 18       		.uleb128 0x18
 5053 0c7b F8050000 		.4byte	.LASF174
 5054 0c7f 01       		.byte	0x1
 5055 0c80 D8       		.byte	0xd8
 5056 0c81 D0000000 		.4byte	0xd0
 5057 0c85 02       		.byte	0x2
 5058 0c86 91       		.byte	0x91
 5059 0c87 6C       		.sleb128 -20
 5060 0c88 18       		.uleb128 0x18
 5061 0c89 AD050000 		.4byte	.LASF175
 5062 0c8d 01       		.byte	0x1
 5063 0c8e D8       		.byte	0xd8
 5064 0c8f D0000000 		.4byte	0xd0
 5065 0c93 02       		.byte	0x2
 5066 0c94 91       		.byte	0x91
 5067 0c95 6A       		.sleb128 -22
 5068 0c96 18       		.uleb128 0x18
 5069 0c97 4A000000 		.4byte	.LASF176
 5070 0c9b 01       		.byte	0x1
 5071 0c9c D9       		.byte	0xd9
 5072 0c9d E90C0000 		.4byte	0xce9
 5073 0ca1 02       		.byte	0x2
 5074 0ca2 91       		.byte	0x91
 5075 0ca3 64       		.sleb128 -28
 5076 0ca4 17       		.uleb128 0x17
 5077 0ca5 70636200 		.ascii	"pcb\000"
 5078 0ca9 01       		.byte	0x1
 5079 0caa D9       		.byte	0xd9
 5080 0cab A3030000 		.4byte	0x3a3
 5081 0caf 02       		.byte	0x2
 5082 0cb0 91       		.byte	0x91
 5083 0cb1 00       		.sleb128 0
 5084 0cb2 18       		.uleb128 0x18
 5085 0cb3 59070000 		.4byte	.LASF177
 5086 0cb7 01       		.byte	0x1
 5087 0cb8 D9       		.byte	0xd9
 5088 0cb9 BA000000 		.4byte	0xba
 5089 0cbd 02       		.byte	0x2
 5090 0cbe 91       		.byte	0x91
 5091 0cbf 04       		.sleb128 4
 5092 0cc0 18       		.uleb128 0x18
 5093 0cc1 6F030000 		.4byte	.LASF178
 5094 0cc5 01       		.byte	0x1
 5095 0cc6 DA       		.byte	0xda
 5096 0cc7 BA000000 		.4byte	0xba
 5097 0ccb 02       		.byte	0x2
 5098 0ccc 91       		.byte	0x91
 5099 0ccd 08       		.sleb128 8
 5100 0cce 1A       		.uleb128 0x1a
 5101 0ccf 7000     		.ascii	"p\000"
 5102 0cd1 01       		.byte	0x1
ARM GAS  /tmp/ccKKWSFE.s 			page 91


 5103 0cd2 DC       		.byte	0xdc
 5104 0cd3 D9010000 		.4byte	0x1d9
 5105 0cd7 02       		.byte	0x2
 5106 0cd8 91       		.byte	0x91
 5107 0cd9 70       		.sleb128 -16
 5108 0cda 19       		.uleb128 0x19
 5109 0cdb C5050000 		.4byte	.LASF179
 5110 0cdf 01       		.byte	0x1
 5111 0ce0 DD       		.byte	0xdd
 5112 0ce1 D0000000 		.4byte	0xd0
 5113 0ce5 02       		.byte	0x2
 5114 0ce6 91       		.byte	0x91
 5115 0ce7 76       		.sleb128 -10
 5116 0ce8 00       		.byte	0
 5117 0ce9 0B       		.uleb128 0xb
 5118 0cea 04       		.byte	0x4
 5119 0ceb D0000000 		.4byte	0xd0
 5120 0cef 1D       		.uleb128 0x1d
 5121 0cf0 00000000 		.4byte	.LASF180
 5122 0cf4 01       		.byte	0x1
 5123 0cf5 2301     		.2byte	0x123
 5124 0cf7 01       		.byte	0x1
 5125 0cf8 07010000 		.4byte	0x107
 5126 0cfc 00000000 		.4byte	.LFB11
 5127 0d00 F4000000 		.4byte	.LFE11
 5128 0d04 B0000000 		.4byte	.LLST4
 5129 0d08 2B0D0000 		.4byte	0xd2b
 5130 0d0c 1E       		.uleb128 0x1e
 5131 0d0d 70636200 		.ascii	"pcb\000"
 5132 0d11 01       		.byte	0x1
 5133 0d12 2301     		.2byte	0x123
 5134 0d14 A3030000 		.4byte	0x3a3
 5135 0d18 02       		.byte	0x2
 5136 0d19 91       		.byte	0x91
 5137 0d1a 74       		.sleb128 -12
 5138 0d1b 1E       		.uleb128 0x1e
 5139 0d1c 6C656E00 		.ascii	"len\000"
 5140 0d20 01       		.byte	0x1
 5141 0d21 2301     		.2byte	0x123
 5142 0d23 D0000000 		.4byte	0xd0
 5143 0d27 02       		.byte	0x2
 5144 0d28 91       		.byte	0x91
 5145 0d29 72       		.sleb128 -14
 5146 0d2a 00       		.byte	0
 5147 0d2b 1F       		.uleb128 0x1f
 5148 0d2c 01       		.byte	0x1
 5149 0d2d 2F080000 		.4byte	.LASF182
 5150 0d31 01       		.byte	0x1
 5151 0d32 5F01     		.2byte	0x15f
 5152 0d34 01       		.byte	0x1
 5153 0d35 07010000 		.4byte	0x107
 5154 0d39 00000000 		.4byte	.LFB12
 5155 0d3d DA050000 		.4byte	.LFE12
 5156 0d41 DC000000 		.4byte	.LLST5
 5157 0d45 F90E0000 		.4byte	0xef9
 5158 0d49 1E       		.uleb128 0x1e
 5159 0d4a 70636200 		.ascii	"pcb\000"
ARM GAS  /tmp/ccKKWSFE.s 			page 92


 5160 0d4e 01       		.byte	0x1
 5161 0d4f 5F01     		.2byte	0x15f
 5162 0d51 A3030000 		.4byte	0x3a3
 5163 0d55 03       		.byte	0x3
 5164 0d56 91       		.byte	0x91
 5165 0d57 AC7F     		.sleb128 -84
 5166 0d59 1E       		.uleb128 0x1e
 5167 0d5a 61726700 		.ascii	"arg\000"
 5168 0d5e 01       		.byte	0x1
 5169 0d5f 5F01     		.2byte	0x15f
 5170 0d61 F90E0000 		.4byte	0xef9
 5171 0d65 03       		.byte	0x3
 5172 0d66 91       		.byte	0x91
 5173 0d67 A87F     		.sleb128 -88
 5174 0d69 1E       		.uleb128 0x1e
 5175 0d6a 6C656E00 		.ascii	"len\000"
 5176 0d6e 01       		.byte	0x1
 5177 0d6f 5F01     		.2byte	0x15f
 5178 0d71 D0000000 		.4byte	0xd0
 5179 0d75 03       		.byte	0x3
 5180 0d76 91       		.byte	0x91
 5181 0d77 A67F     		.sleb128 -90
 5182 0d79 20       		.uleb128 0x20
 5183 0d7a 59070000 		.4byte	.LASF177
 5184 0d7e 01       		.byte	0x1
 5185 0d7f 5F01     		.2byte	0x15f
 5186 0d81 BA000000 		.4byte	0xba
 5187 0d85 03       		.byte	0x3
 5188 0d86 91       		.byte	0x91
 5189 0d87 A57F     		.sleb128 -91
 5190 0d89 21       		.uleb128 0x21
 5191 0d8a DA050000 		.4byte	.LASF183
 5192 0d8e 01       		.byte	0x1
 5193 0d8f 6101     		.2byte	0x161
 5194 0d91 D9010000 		.4byte	0x1d9
 5195 0d95 02       		.byte	0x2
 5196 0d96 91       		.byte	0x91
 5197 0d97 6C       		.sleb128 -20
 5198 0d98 21       		.uleb128 0x21
 5199 0d99 EE030000 		.4byte	.LASF168
 5200 0d9d 01       		.byte	0x1
 5201 0d9e 6201     		.2byte	0x162
 5202 0da0 0C080000 		.4byte	0x80c
 5203 0da4 02       		.byte	0x2
 5204 0da5 91       		.byte	0x91
 5205 0da6 68       		.sleb128 -24
 5206 0da7 22       		.uleb128 0x22
 5207 0da8 73656700 		.ascii	"seg\000"
 5208 0dac 01       		.byte	0x1
 5209 0dad 6201     		.2byte	0x162
 5210 0daf 0C080000 		.4byte	0x80c
 5211 0db3 02       		.byte	0x2
 5212 0db4 91       		.byte	0x91
 5213 0db5 64       		.sleb128 -28
 5214 0db6 21       		.uleb128 0x21
 5215 0db7 7D070000 		.4byte	.LASF184
 5216 0dbb 01       		.byte	0x1
ARM GAS  /tmp/ccKKWSFE.s 			page 93


 5217 0dbc 6201     		.2byte	0x162
 5218 0dbe 0C080000 		.4byte	0x80c
 5219 0dc2 02       		.byte	0x2
 5220 0dc3 91       		.byte	0x91
 5221 0dc4 60       		.sleb128 -32
 5222 0dc5 21       		.uleb128 0x21
 5223 0dc6 6F070000 		.4byte	.LASF185
 5224 0dca 01       		.byte	0x1
 5225 0dcb 6201     		.2byte	0x162
 5226 0dcd 0C080000 		.4byte	0x80c
 5227 0dd1 02       		.byte	0x2
 5228 0dd2 91       		.byte	0x91
 5229 0dd3 5C       		.sleb128 -36
 5230 0dd4 22       		.uleb128 0x22
 5231 0dd5 706F7300 		.ascii	"pos\000"
 5232 0dd9 01       		.byte	0x1
 5233 0dda 6301     		.2byte	0x163
 5234 0ddc D0000000 		.4byte	0xd0
 5235 0de0 02       		.byte	0x2
 5236 0de1 91       		.byte	0x91
 5237 0de2 5A       		.sleb128 -38
 5238 0de3 21       		.uleb128 0x21
 5239 0de4 74080000 		.4byte	.LASF186
 5240 0de8 01       		.byte	0x1
 5241 0de9 6401     		.2byte	0x164
 5242 0deb D0000000 		.4byte	0xd0
 5243 0def 02       		.byte	0x2
 5244 0df0 91       		.byte	0x91
 5245 0df1 58       		.sleb128 -40
 5246 0df2 21       		.uleb128 0x21
 5247 0df3 4A010000 		.4byte	.LASF165
 5248 0df7 01       		.byte	0x1
 5249 0df8 6501     		.2byte	0x165
 5250 0dfa BA000000 		.4byte	0xba
 5251 0dfe 02       		.byte	0x2
 5252 0dff 91       		.byte	0x91
 5253 0e00 4B       		.sleb128 -53
 5254 0e01 21       		.uleb128 0x21
 5255 0e02 FE040000 		.4byte	.LASF171
 5256 0e06 01       		.byte	0x1
 5257 0e07 6601     		.2byte	0x166
 5258 0e09 BA000000 		.4byte	0xba
 5259 0e0d 02       		.byte	0x2
 5260 0e0e 91       		.byte	0x91
 5261 0e0f 4A       		.sleb128 -54
 5262 0e10 21       		.uleb128 0x21
 5263 0e11 4A000000 		.4byte	.LASF176
 5264 0e15 01       		.byte	0x1
 5265 0e16 6801     		.2byte	0x168
 5266 0e18 D0000000 		.4byte	0xd0
 5267 0e1c 03       		.byte	0x3
 5268 0e1d 91       		.byte	0x91
 5269 0e1e B67F     		.sleb128 -74
 5270 0e20 21       		.uleb128 0x21
 5271 0e21 32010000 		.4byte	.LASF187
 5272 0e25 01       		.byte	0x1
 5273 0e26 6901     		.2byte	0x169
ARM GAS  /tmp/ccKKWSFE.s 			page 94


 5274 0e28 D0000000 		.4byte	0xd0
 5275 0e2c 02       		.byte	0x2
 5276 0e2d 91       		.byte	0x91
 5277 0e2e 56       		.sleb128 -42
 5278 0e2f 22       		.uleb128 0x22
 5279 0e30 65727200 		.ascii	"err\000"
 5280 0e34 01       		.byte	0x1
 5281 0e35 7001     		.2byte	0x170
 5282 0e37 07010000 		.4byte	0x107
 5283 0e3b 02       		.byte	0x2
 5284 0e3c 91       		.byte	0x91
 5285 0e3d 49       		.sleb128 -55
 5286 0e3e 23       		.uleb128 0x23
 5287 0e3f C1070000 		.4byte	.LASF146
 5288 0e43 01       		.byte	0x1
 5289 0e44 AE02     		.2byte	0x2ae
 5290 0e46 68050000 		.4byte	.L50
 5291 0e4a 24       		.uleb128 0x24
 5292 0e4b 00000000 		.4byte	.Ldebug_ranges0+0
 5293 0e4f 870E0000 		.4byte	0xe87
 5294 0e53 21       		.uleb128 0x21
 5295 0e54 6B040000 		.4byte	.LASF188
 5296 0e58 01       		.byte	0x1
 5297 0e59 A201     		.2byte	0x1a2
 5298 0e5b D0000000 		.4byte	0xd0
 5299 0e5f 02       		.byte	0x2
 5300 0e60 91       		.byte	0x91
 5301 0e61 54       		.sleb128 -44
 5302 0e62 21       		.uleb128 0x21
 5303 0e63 61000000 		.4byte	.LASF189
 5304 0e67 01       		.byte	0x1
 5305 0e68 A301     		.2byte	0x1a3
 5306 0e6a D0000000 		.4byte	0xd0
 5307 0e6e 02       		.byte	0x2
 5308 0e6f 91       		.byte	0x91
 5309 0e70 46       		.sleb128 -58
 5310 0e71 25       		.uleb128 0x25
 5311 0e72 18000000 		.4byte	.Ldebug_ranges0+0x18
 5312 0e76 21       		.uleb128 0x21
 5313 0e77 65080000 		.4byte	.LASF190
 5314 0e7b 01       		.byte	0x1
 5315 0e7c CF01     		.2byte	0x1cf
 5316 0e7e D0000000 		.4byte	0xd0
 5317 0e82 02       		.byte	0x2
 5318 0e83 91       		.byte	0x91
 5319 0e84 44       		.sleb128 -60
 5320 0e85 00       		.byte	0
 5321 0e86 00       		.byte	0
 5322 0e87 24       		.uleb128 0x24
 5323 0e88 30000000 		.4byte	.Ldebug_ranges0+0x30
 5324 0e8c E10E0000 		.4byte	0xee1
 5325 0e90 22       		.uleb128 0x22
 5326 0e91 7000     		.ascii	"p\000"
 5327 0e93 01       		.byte	0x1
 5328 0e94 0602     		.2byte	0x206
 5329 0e96 D9010000 		.4byte	0x1d9
 5330 0e9a 02       		.byte	0x2
ARM GAS  /tmp/ccKKWSFE.s 			page 95


 5331 0e9b 91       		.byte	0x91
 5332 0e9c 50       		.sleb128 -48
 5333 0e9d 21       		.uleb128 0x21
 5334 0e9e 8C060000 		.4byte	.LASF191
 5335 0ea2 01       		.byte	0x1
 5336 0ea3 0702     		.2byte	0x207
 5337 0ea5 D0000000 		.4byte	0xd0
 5338 0ea9 02       		.byte	0x2
 5339 0eaa 91       		.byte	0x91
 5340 0eab 42       		.sleb128 -62
 5341 0eac 21       		.uleb128 0x21
 5342 0ead 18050000 		.4byte	.LASF192
 5343 0eb1 01       		.byte	0x1
 5344 0eb2 0802     		.2byte	0x208
 5345 0eb4 D0000000 		.4byte	0xd0
 5346 0eb8 02       		.byte	0x2
 5347 0eb9 91       		.byte	0x91
 5348 0eba 40       		.sleb128 -64
 5349 0ebb 21       		.uleb128 0x21
 5350 0ebc 65080000 		.4byte	.LASF190
 5351 0ec0 01       		.byte	0x1
 5352 0ec1 0902     		.2byte	0x209
 5353 0ec3 D0000000 		.4byte	0xd0
 5354 0ec7 03       		.byte	0x3
 5355 0ec8 91       		.byte	0x91
 5356 0ec9 BE7F     		.sleb128 -66
 5357 0ecb 25       		.uleb128 0x25
 5358 0ecc 48000000 		.4byte	.Ldebug_ranges0+0x48
 5359 0ed0 22       		.uleb128 0x22
 5360 0ed1 703200   		.ascii	"p2\000"
 5361 0ed4 01       		.byte	0x1
 5362 0ed5 1F02     		.2byte	0x21f
 5363 0ed7 D9010000 		.4byte	0x1d9
 5364 0edb 03       		.byte	0x3
 5365 0edc 91       		.byte	0x91
 5366 0edd B87F     		.sleb128 -72
 5367 0edf 00       		.byte	0
 5368 0ee0 00       		.byte	0
 5369 0ee1 1C       		.uleb128 0x1c
 5370 0ee2 20040000 		.4byte	.LBB9
 5371 0ee6 86040000 		.4byte	.LBE9
 5372 0eea 22       		.uleb128 0x22
 5373 0eeb 7000     		.ascii	"p\000"
 5374 0eed 01       		.byte	0x1
 5375 0eee 6E02     		.2byte	0x26e
 5376 0ef0 D9010000 		.4byte	0x1d9
 5377 0ef4 02       		.byte	0x2
 5378 0ef5 91       		.byte	0x91
 5379 0ef6 4C       		.sleb128 -52
 5380 0ef7 00       		.byte	0
 5381 0ef8 00       		.byte	0
 5382 0ef9 0B       		.uleb128 0xb
 5383 0efa 04       		.byte	0x4
 5384 0efb FF0E0000 		.4byte	0xeff
 5385 0eff 26       		.uleb128 0x26
 5386 0f00 1F       		.uleb128 0x1f
 5387 0f01 01       		.byte	0x1
ARM GAS  /tmp/ccKKWSFE.s 			page 96


 5388 0f02 A4010000 		.4byte	.LASF193
 5389 0f06 01       		.byte	0x1
 5390 0f07 CB02     		.2byte	0x2cb
 5391 0f09 01       		.byte	0x1
 5392 0f0a 07010000 		.4byte	0x107
 5393 0f0e 00000000 		.4byte	.LFB13
 5394 0f12 9C020000 		.4byte	.LFE13
 5395 0f16 09010000 		.4byte	.LLST6
 5396 0f1a 900F0000 		.4byte	0xf90
 5397 0f1e 1E       		.uleb128 0x1e
 5398 0f1f 70636200 		.ascii	"pcb\000"
 5399 0f23 01       		.byte	0x1
 5400 0f24 CB02     		.2byte	0x2cb
 5401 0f26 A3030000 		.4byte	0x3a3
 5402 0f2a 02       		.byte	0x2
 5403 0f2b 91       		.byte	0x91
 5404 0f2c 5C       		.sleb128 -36
 5405 0f2d 20       		.uleb128 0x20
 5406 0f2e 80000000 		.4byte	.LASF38
 5407 0f32 01       		.byte	0x1
 5408 0f33 CB02     		.2byte	0x2cb
 5409 0f35 BA000000 		.4byte	0xba
 5410 0f39 02       		.byte	0x2
 5411 0f3a 91       		.byte	0x91
 5412 0f3b 5B       		.sleb128 -37
 5413 0f3c 22       		.uleb128 0x22
 5414 0f3d 7000     		.ascii	"p\000"
 5415 0f3f 01       		.byte	0x1
 5416 0f40 CD02     		.2byte	0x2cd
 5417 0f42 D9010000 		.4byte	0x1d9
 5418 0f46 02       		.byte	0x2
 5419 0f47 91       		.byte	0x91
 5420 0f48 68       		.sleb128 -24
 5421 0f49 22       		.uleb128 0x22
 5422 0f4a 73656700 		.ascii	"seg\000"
 5423 0f4e 01       		.byte	0x1
 5424 0f4f CE02     		.2byte	0x2ce
 5425 0f51 0C080000 		.4byte	0x80c
 5426 0f55 02       		.byte	0x2
 5427 0f56 91       		.byte	0x91
 5428 0f57 64       		.sleb128 -28
 5429 0f58 21       		.uleb128 0x21
 5430 0f59 FE040000 		.4byte	.LASF171
 5431 0f5d 01       		.byte	0x1
 5432 0f5e CF02     		.2byte	0x2cf
 5433 0f60 BA000000 		.4byte	0xba
 5434 0f64 02       		.byte	0x2
 5435 0f65 91       		.byte	0x91
 5436 0f66 77       		.sleb128 -9
 5437 0f67 21       		.uleb128 0x21
 5438 0f68 4A010000 		.4byte	.LASF165
 5439 0f6c 01       		.byte	0x1
 5440 0f6d D002     		.2byte	0x2d0
 5441 0f6f BA000000 		.4byte	0xba
 5442 0f73 02       		.byte	0x2
 5443 0f74 91       		.byte	0x91
 5444 0f75 6F       		.sleb128 -17
ARM GAS  /tmp/ccKKWSFE.s 			page 97


 5445 0f76 1C       		.uleb128 0x1c
 5446 0f77 D8010000 		.4byte	.LBB12
 5447 0f7b F4010000 		.4byte	.LBE12
 5448 0f7f 21       		.uleb128 0x21
 5449 0f80 02030000 		.4byte	.LASF194
 5450 0f84 01       		.byte	0x1
 5451 0f85 1003     		.2byte	0x310
 5452 0f87 0C080000 		.4byte	0x80c
 5453 0f8b 02       		.byte	0x2
 5454 0f8c 91       		.byte	0x91
 5455 0f8d 70       		.sleb128 -16
 5456 0f8e 00       		.byte	0
 5457 0f8f 00       		.byte	0
 5458 0f90 1F       		.uleb128 0x1f
 5459 0f91 01       		.byte	0x1
 5460 0f92 15060000 		.4byte	.LASF195
 5461 0f96 01       		.byte	0x1
 5462 0f97 4403     		.2byte	0x344
 5463 0f99 01       		.byte	0x1
 5464 0f9a 07010000 		.4byte	0x107
 5465 0f9e 00000000 		.4byte	.LFB14
 5466 0fa2 A8000000 		.4byte	.LFE14
 5467 0fa6 35010000 		.4byte	.LLST7
 5468 0faa E90F0000 		.4byte	0xfe9
 5469 0fae 1E       		.uleb128 0x1e
 5470 0faf 70636200 		.ascii	"pcb\000"
 5471 0fb3 01       		.byte	0x1
 5472 0fb4 4403     		.2byte	0x344
 5473 0fb6 A3030000 		.4byte	0x3a3
 5474 0fba 02       		.byte	0x2
 5475 0fbb 91       		.byte	0x91
 5476 0fbc 64       		.sleb128 -28
 5477 0fbd 22       		.uleb128 0x22
 5478 0fbe 7000     		.ascii	"p\000"
 5479 0fc0 01       		.byte	0x1
 5480 0fc1 4603     		.2byte	0x346
 5481 0fc3 D9010000 		.4byte	0x1d9
 5482 0fc7 02       		.byte	0x2
 5483 0fc8 91       		.byte	0x91
 5484 0fc9 70       		.sleb128 -16
 5485 0fca 21       		.uleb128 0x21
 5486 0fcb 39070000 		.4byte	.LASF118
 5487 0fcf 01       		.byte	0x1
 5488 0fd0 4703     		.2byte	0x347
 5489 0fd2 8F080000 		.4byte	0x88f
 5490 0fd6 02       		.byte	0x2
 5491 0fd7 91       		.byte	0x91
 5492 0fd8 6C       		.sleb128 -20
 5493 0fd9 21       		.uleb128 0x21
 5494 0fda 4A010000 		.4byte	.LASF165
 5495 0fde 01       		.byte	0x1
 5496 0fdf 4803     		.2byte	0x348
 5497 0fe1 BA000000 		.4byte	0xba
 5498 0fe5 02       		.byte	0x2
 5499 0fe6 91       		.byte	0x91
 5500 0fe7 77       		.sleb128 -9
 5501 0fe8 00       		.byte	0
ARM GAS  /tmp/ccKKWSFE.s 			page 98


 5502 0fe9 1F       		.uleb128 0x1f
 5503 0fea 01       		.byte	0x1
 5504 0feb A2030000 		.4byte	.LASF196
 5505 0fef 01       		.byte	0x1
 5506 0ff0 7C03     		.2byte	0x37c
 5507 0ff2 01       		.byte	0x1
 5508 0ff3 07010000 		.4byte	0x107
 5509 0ff7 00000000 		.4byte	.LFB15
 5510 0ffb 04030000 		.4byte	.LFE15
 5511 0fff 61010000 		.4byte	.LLST8
 5512 1003 6C100000 		.4byte	0x106c
 5513 1007 1E       		.uleb128 0x1e
 5514 1008 70636200 		.ascii	"pcb\000"
 5515 100c 01       		.byte	0x1
 5516 100d 7C03     		.2byte	0x37c
 5517 100f A3030000 		.4byte	0x3a3
 5518 1013 02       		.byte	0x2
 5519 1014 91       		.byte	0x91
 5520 1015 54       		.sleb128 -44
 5521 1016 22       		.uleb128 0x22
 5522 1017 73656700 		.ascii	"seg\000"
 5523 101b 01       		.byte	0x1
 5524 101c 7E03     		.2byte	0x37e
 5525 101e 0C080000 		.4byte	0x80c
 5526 1022 02       		.byte	0x2
 5527 1023 91       		.byte	0x91
 5528 1024 6C       		.sleb128 -20
 5529 1025 21       		.uleb128 0x21
 5530 1026 02030000 		.4byte	.LASF194
 5531 102a 01       		.byte	0x1
 5532 102b 7E03     		.2byte	0x37e
 5533 102d 0C080000 		.4byte	0x80c
 5534 1031 02       		.byte	0x2
 5535 1032 91       		.byte	0x91
 5536 1033 68       		.sleb128 -24
 5537 1034 22       		.uleb128 0x22
 5538 1035 776E6400 		.ascii	"wnd\000"
 5539 1039 01       		.byte	0x1
 5540 103a 7F03     		.2byte	0x37f
 5541 103c E6000000 		.4byte	0xe6
 5542 1040 02       		.byte	0x2
 5543 1041 91       		.byte	0x91
 5544 1042 60       		.sleb128 -32
 5545 1043 21       		.uleb128 0x21
 5546 1044 84060000 		.4byte	.LASF79
 5547 1048 01       		.byte	0x1
 5548 1049 7F03     		.2byte	0x37f
 5549 104b E6000000 		.4byte	0xe6
 5550 104f 02       		.byte	0x2
 5551 1050 91       		.byte	0x91
 5552 1051 5C       		.sleb128 -36
 5553 1052 1C       		.uleb128 0x1c
 5554 1053 FA010000 		.4byte	.LBB13
 5555 1057 46020000 		.4byte	.LBE13
 5556 105b 21       		.uleb128 0x21
 5557 105c 6C080000 		.4byte	.LASF197
 5558 1060 01       		.byte	0x1
ARM GAS  /tmp/ccKKWSFE.s 			page 99


 5559 1061 EA03     		.2byte	0x3ea
 5560 1063 6C100000 		.4byte	0x106c
 5561 1067 02       		.byte	0x2
 5562 1068 91       		.byte	0x91
 5563 1069 64       		.sleb128 -28
 5564 106a 00       		.byte	0
 5565 106b 00       		.byte	0
 5566 106c 0B       		.uleb128 0xb
 5567 106d 04       		.byte	0x4
 5568 106e 0C080000 		.4byte	0x80c
 5569 1072 27       		.uleb128 0x27
 5570 1073 45030000 		.4byte	.LASF214
 5571 1077 01       		.byte	0x1
 5572 1078 1604     		.2byte	0x416
 5573 107a 01       		.byte	0x1
 5574 107b 00000000 		.4byte	.LFB16
 5575 107f A4010000 		.4byte	.LFE16
 5576 1083 8D010000 		.4byte	.LLST9
 5577 1087 D7100000 		.4byte	0x10d7
 5578 108b 1E       		.uleb128 0x1e
 5579 108c 73656700 		.ascii	"seg\000"
 5580 1090 01       		.byte	0x1
 5581 1091 1604     		.2byte	0x416
 5582 1093 0C080000 		.4byte	0x80c
 5583 1097 02       		.byte	0x2
 5584 1098 91       		.byte	0x91
 5585 1099 64       		.sleb128 -28
 5586 109a 1E       		.uleb128 0x1e
 5587 109b 70636200 		.ascii	"pcb\000"
 5588 109f 01       		.byte	0x1
 5589 10a0 1604     		.2byte	0x416
 5590 10a2 A3030000 		.4byte	0x3a3
 5591 10a6 02       		.byte	0x2
 5592 10a7 91       		.byte	0x91
 5593 10a8 60       		.sleb128 -32
 5594 10a9 22       		.uleb128 0x22
 5595 10aa 6C656E00 		.ascii	"len\000"
 5596 10ae 01       		.byte	0x1
 5597 10af 1804     		.2byte	0x418
 5598 10b1 D0000000 		.4byte	0xd0
 5599 10b5 02       		.byte	0x2
 5600 10b6 91       		.byte	0x91
 5601 10b7 6E       		.sleb128 -18
 5602 10b8 21       		.uleb128 0x21
 5603 10b9 15080000 		.4byte	.LASF43
 5604 10bd 01       		.byte	0x1
 5605 10be 1904     		.2byte	0x419
 5606 10c0 05020000 		.4byte	0x205
 5607 10c4 02       		.byte	0x2
 5608 10c5 91       		.byte	0x91
 5609 10c6 70       		.sleb128 -16
 5610 10c7 21       		.uleb128 0x21
 5611 10c8 28060000 		.4byte	.LASF198
 5612 10cc 01       		.byte	0x1
 5613 10cd 1A04     		.2byte	0x41a
 5614 10cf D7100000 		.4byte	0x10d7
 5615 10d3 02       		.byte	0x2
ARM GAS  /tmp/ccKKWSFE.s 			page 100


 5616 10d4 91       		.byte	0x91
 5617 10d5 74       		.sleb128 -12
 5618 10d6 00       		.byte	0
 5619 10d7 0B       		.uleb128 0xb
 5620 10d8 04       		.byte	0x4
 5621 10d9 E6000000 		.4byte	0xe6
 5622 10dd 28       		.uleb128 0x28
 5623 10de 01       		.byte	0x1
 5624 10df 9F050000 		.4byte	.LASF199
 5625 10e3 01       		.byte	0x1
 5626 10e4 A304     		.2byte	0x4a3
 5627 10e6 01       		.byte	0x1
 5628 10e7 00000000 		.4byte	.LFB17
 5629 10eb 18010000 		.4byte	.LFE17
 5630 10ef B9010000 		.4byte	.LLST10
 5631 10f3 6E110000 		.4byte	0x116e
 5632 10f7 20       		.uleb128 0x20
 5633 10f8 C4010000 		.4byte	.LASF121
 5634 10fc 01       		.byte	0x1
 5635 10fd A304     		.2byte	0x4a3
 5636 10ff E6000000 		.4byte	0xe6
 5637 1103 02       		.byte	0x2
 5638 1104 91       		.byte	0x91
 5639 1105 6C       		.sleb128 -20
 5640 1106 20       		.uleb128 0x20
 5641 1107 C3040000 		.4byte	.LASF122
 5642 110b 01       		.byte	0x1
 5643 110c A304     		.2byte	0x4a3
 5644 110e E6000000 		.4byte	0xe6
 5645 1112 02       		.byte	0x2
 5646 1113 91       		.byte	0x91
 5647 1114 68       		.sleb128 -24
 5648 1115 20       		.uleb128 0x20
 5649 1116 5E060000 		.4byte	.LASF57
 5650 111a 01       		.byte	0x1
 5651 111b A404     		.2byte	0x4a4
 5652 111d 2C030000 		.4byte	0x32c
 5653 1121 02       		.byte	0x2
 5654 1122 91       		.byte	0x91
 5655 1123 64       		.sleb128 -28
 5656 1124 20       		.uleb128 0x20
 5657 1125 8E080000 		.4byte	.LASF58
 5658 1129 01       		.byte	0x1
 5659 112a A404     		.2byte	0x4a4
 5660 112c 2C030000 		.4byte	0x32c
 5661 1130 02       		.byte	0x2
 5662 1131 91       		.byte	0x91
 5663 1132 60       		.sleb128 -32
 5664 1133 20       		.uleb128 0x20
 5665 1134 08020000 		.4byte	.LASF63
 5666 1138 01       		.byte	0x1
 5667 1139 A504     		.2byte	0x4a5
 5668 113b D0000000 		.4byte	0xd0
 5669 113f 02       		.byte	0x2
 5670 1140 91       		.byte	0x91
 5671 1141 00       		.sleb128 0
 5672 1142 20       		.uleb128 0x20
ARM GAS  /tmp/ccKKWSFE.s 			page 101


 5673 1143 07050000 		.4byte	.LASF64
 5674 1147 01       		.byte	0x1
 5675 1148 A504     		.2byte	0x4a5
 5676 114a D0000000 		.4byte	0xd0
 5677 114e 02       		.byte	0x2
 5678 114f 91       		.byte	0x91
 5679 1150 04       		.sleb128 4
 5680 1151 22       		.uleb128 0x22
 5681 1152 7000     		.ascii	"p\000"
 5682 1154 01       		.byte	0x1
 5683 1155 A704     		.2byte	0x4a7
 5684 1157 D9010000 		.4byte	0x1d9
 5685 115b 02       		.byte	0x2
 5686 115c 91       		.byte	0x91
 5687 115d 74       		.sleb128 -12
 5688 115e 21       		.uleb128 0x21
 5689 115f 39070000 		.4byte	.LASF118
 5690 1163 01       		.byte	0x1
 5691 1164 A804     		.2byte	0x4a8
 5692 1166 8F080000 		.4byte	0x88f
 5693 116a 02       		.byte	0x2
 5694 116b 91       		.byte	0x91
 5695 116c 70       		.sleb128 -16
 5696 116d 00       		.byte	0
 5697 116e 28       		.uleb128 0x28
 5698 116f 01       		.byte	0x1
 5699 1170 AA020000 		.4byte	.LASF200
 5700 1174 01       		.byte	0x1
 5701 1175 CF04     		.2byte	0x4cf
 5702 1177 01       		.byte	0x1
 5703 1178 00000000 		.4byte	.LFB18
 5704 117c 64000000 		.4byte	.LFE18
 5705 1180 E5010000 		.4byte	.LLST11
 5706 1184 A7110000 		.4byte	0x11a7
 5707 1188 1E       		.uleb128 0x1e
 5708 1189 70636200 		.ascii	"pcb\000"
 5709 118d 01       		.byte	0x1
 5710 118e CF04     		.2byte	0x4cf
 5711 1190 A3030000 		.4byte	0x3a3
 5712 1194 02       		.byte	0x2
 5713 1195 91       		.byte	0x91
 5714 1196 6C       		.sleb128 -20
 5715 1197 22       		.uleb128 0x22
 5716 1198 73656700 		.ascii	"seg\000"
 5717 119c 01       		.byte	0x1
 5718 119d D104     		.2byte	0x4d1
 5719 119f 0C080000 		.4byte	0x80c
 5720 11a3 02       		.byte	0x2
 5721 11a4 91       		.byte	0x91
 5722 11a5 74       		.sleb128 -12
 5723 11a6 00       		.byte	0
 5724 11a7 28       		.uleb128 0x28
 5725 11a8 01       		.byte	0x1
 5726 11a9 EC000000 		.4byte	.LASF201
 5727 11ad 01       		.byte	0x1
 5728 11ae F204     		.2byte	0x4f2
 5729 11b0 01       		.byte	0x1
ARM GAS  /tmp/ccKKWSFE.s 			page 102


 5730 11b1 00000000 		.4byte	.LFB19
 5731 11b5 88000000 		.4byte	.LFE19
 5732 11b9 11020000 		.4byte	.LLST12
 5733 11bd EF110000 		.4byte	0x11ef
 5734 11c1 1E       		.uleb128 0x1e
 5735 11c2 70636200 		.ascii	"pcb\000"
 5736 11c6 01       		.byte	0x1
 5737 11c7 F204     		.2byte	0x4f2
 5738 11c9 A3030000 		.4byte	0x3a3
 5739 11cd 02       		.byte	0x2
 5740 11ce 91       		.byte	0x91
 5741 11cf 6C       		.sleb128 -20
 5742 11d0 22       		.uleb128 0x22
 5743 11d1 73656700 		.ascii	"seg\000"
 5744 11d5 01       		.byte	0x1
 5745 11d6 F404     		.2byte	0x4f4
 5746 11d8 0C080000 		.4byte	0x80c
 5747 11dc 02       		.byte	0x2
 5748 11dd 91       		.byte	0x91
 5749 11de 70       		.sleb128 -16
 5750 11df 21       		.uleb128 0x21
 5751 11e0 6C080000 		.4byte	.LASF197
 5752 11e4 01       		.byte	0x1
 5753 11e5 F504     		.2byte	0x4f5
 5754 11e7 6C100000 		.4byte	0x106c
 5755 11eb 02       		.byte	0x2
 5756 11ec 91       		.byte	0x91
 5757 11ed 74       		.sleb128 -12
 5758 11ee 00       		.byte	0
 5759 11ef 28       		.uleb128 0x28
 5760 11f0 01       		.byte	0x1
 5761 11f1 98080000 		.4byte	.LASF202
 5762 11f5 01       		.byte	0x1
 5763 11f6 1A05     		.2byte	0x51a
 5764 11f8 01       		.byte	0x1
 5765 11f9 00000000 		.4byte	.LFB20
 5766 11fd B0000000 		.4byte	.LFE20
 5767 1201 3D020000 		.4byte	.LLST13
 5768 1205 19120000 		.4byte	0x1219
 5769 1209 1E       		.uleb128 0x1e
 5770 120a 70636200 		.ascii	"pcb\000"
 5771 120e 01       		.byte	0x1
 5772 120f 1A05     		.2byte	0x51a
 5773 1211 A3030000 		.4byte	0x3a3
 5774 1215 02       		.byte	0x2
 5775 1216 91       		.byte	0x91
 5776 1217 74       		.sleb128 -12
 5777 1218 00       		.byte	0
 5778 1219 28       		.uleb128 0x28
 5779 121a 01       		.byte	0x1
 5780 121b 2B000000 		.4byte	.LASF203
 5781 121f 01       		.byte	0x1
 5782 1220 4505     		.2byte	0x545
 5783 1222 01       		.byte	0x1
 5784 1223 00000000 		.4byte	.LFB21
 5785 1227 A2000000 		.4byte	.LFE21
 5786 122b 69020000 		.4byte	.LLST14
ARM GAS  /tmp/ccKKWSFE.s 			page 103


 5787 122f 5F120000 		.4byte	0x125f
 5788 1233 1E       		.uleb128 0x1e
 5789 1234 70636200 		.ascii	"pcb\000"
 5790 1238 01       		.byte	0x1
 5791 1239 4505     		.2byte	0x545
 5792 123b A3030000 		.4byte	0x3a3
 5793 123f 02       		.byte	0x2
 5794 1240 91       		.byte	0x91
 5795 1241 6C       		.sleb128 -20
 5796 1242 22       		.uleb128 0x22
 5797 1243 7000     		.ascii	"p\000"
 5798 1245 01       		.byte	0x1
 5799 1246 4705     		.2byte	0x547
 5800 1248 D9010000 		.4byte	0x1d9
 5801 124c 02       		.byte	0x2
 5802 124d 91       		.byte	0x91
 5803 124e 74       		.sleb128 -12
 5804 124f 21       		.uleb128 0x21
 5805 1250 39070000 		.4byte	.LASF118
 5806 1254 01       		.byte	0x1
 5807 1255 4805     		.2byte	0x548
 5808 1257 8F080000 		.4byte	0x88f
 5809 125b 02       		.byte	0x2
 5810 125c 91       		.byte	0x91
 5811 125d 70       		.sleb128 -16
 5812 125e 00       		.byte	0
 5813 125f 28       		.uleb128 0x28
 5814 1260 01       		.byte	0x1
 5815 1261 C5000000 		.4byte	.LASF204
 5816 1265 01       		.byte	0x1
 5817 1266 7705     		.2byte	0x577
 5818 1268 01       		.byte	0x1
 5819 1269 00000000 		.4byte	.LFB22
 5820 126d 62010000 		.4byte	.LFE22
 5821 1271 95020000 		.4byte	.LLST15
 5822 1275 F8120000 		.4byte	0x12f8
 5823 1279 1E       		.uleb128 0x1e
 5824 127a 70636200 		.ascii	"pcb\000"
 5825 127e 01       		.byte	0x1
 5826 127f 7705     		.2byte	0x577
 5827 1281 A3030000 		.4byte	0x3a3
 5828 1285 02       		.byte	0x2
 5829 1286 91       		.byte	0x91
 5830 1287 5C       		.sleb128 -36
 5831 1288 22       		.uleb128 0x22
 5832 1289 7000     		.ascii	"p\000"
 5833 128b 01       		.byte	0x1
 5834 128c 7905     		.2byte	0x579
 5835 128e D9010000 		.4byte	0x1d9
 5836 1292 02       		.byte	0x2
 5837 1293 91       		.byte	0x91
 5838 1294 6C       		.sleb128 -20
 5839 1295 21       		.uleb128 0x21
 5840 1296 39070000 		.4byte	.LASF118
 5841 129a 01       		.byte	0x1
 5842 129b 7A05     		.2byte	0x57a
 5843 129d 8F080000 		.4byte	0x88f
ARM GAS  /tmp/ccKKWSFE.s 			page 104


 5844 12a1 02       		.byte	0x2
 5845 12a2 91       		.byte	0x91
 5846 12a3 68       		.sleb128 -24
 5847 12a4 22       		.uleb128 0x22
 5848 12a5 73656700 		.ascii	"seg\000"
 5849 12a9 01       		.byte	0x1
 5850 12aa 7B05     		.2byte	0x57b
 5851 12ac 0C080000 		.4byte	0x80c
 5852 12b0 02       		.byte	0x2
 5853 12b1 91       		.byte	0x91
 5854 12b2 74       		.sleb128 -12
 5855 12b3 22       		.uleb128 0x22
 5856 12b4 6C656E00 		.ascii	"len\000"
 5857 12b8 01       		.byte	0x1
 5858 12b9 7C05     		.2byte	0x57c
 5859 12bb D0000000 		.4byte	0xd0
 5860 12bf 02       		.byte	0x2
 5861 12c0 91       		.byte	0x91
 5862 12c1 70       		.sleb128 -16
 5863 12c2 21       		.uleb128 0x21
 5864 12c3 31020000 		.4byte	.LASF205
 5865 12c7 01       		.byte	0x1
 5866 12c8 7D05     		.2byte	0x57d
 5867 12ca BA000000 		.4byte	0xba
 5868 12ce 02       		.byte	0x2
 5869 12cf 91       		.byte	0x91
 5870 12d0 73       		.sleb128 -13
 5871 12d1 1C       		.uleb128 0x1c
 5872 12d2 B4000000 		.4byte	.LBB14
 5873 12d6 F0000000 		.4byte	.LBE14
 5874 12da 21       		.uleb128 0x21
 5875 12db 0E030000 		.4byte	.LASF206
 5876 12df 01       		.byte	0x1
 5877 12e0 A305     		.2byte	0x5a3
 5878 12e2 8F080000 		.4byte	0x88f
 5879 12e6 02       		.byte	0x2
 5880 12e7 91       		.byte	0x91
 5881 12e8 64       		.sleb128 -28
 5882 12e9 22       		.uleb128 0x22
 5883 12ea 6400     		.ascii	"d\000"
 5884 12ec 01       		.byte	0x1
 5885 12ed A405     		.2byte	0x5a4
 5886 12ef 1A0B0000 		.4byte	0xb1a
 5887 12f3 02       		.byte	0x2
 5888 12f4 91       		.byte	0x91
 5889 12f5 60       		.sleb128 -32
 5890 12f6 00       		.byte	0
 5891 12f7 00       		.byte	0
 5892 12f8 29       		.uleb128 0x29
 5893 12f9 C9040000 		.4byte	.LASF207
 5894 12fd 0A       		.byte	0xa
 5895 12fe 3601     		.2byte	0x136
 5896 1300 A3030000 		.4byte	0x3a3
 5897 1304 01       		.byte	0x1
 5898 1305 01       		.byte	0x1
 5899 1306 29       		.uleb128 0x29
 5900 1307 2F070000 		.4byte	.LASF208
ARM GAS  /tmp/ccKKWSFE.s 			page 105


 5901 130b 0A       		.byte	0xa
 5902 130c 3701     		.2byte	0x137
 5903 130e E6000000 		.4byte	0xe6
 5904 1312 01       		.byte	0x1
 5905 1313 01       		.byte	0x1
 5906 1314 2A       		.uleb128 0x2a
 5907 1315 7E010000 		.4byte	.LASF209
 5908 1319 0C       		.byte	0xc
 5909 131a 95       		.byte	0x95
 5910 131b 6D0A0000 		.4byte	0xa6d
 5911 131f 01       		.byte	0x1
 5912 1320 01       		.byte	0x1
 5913 1321 29       		.uleb128 0x29
 5914 1322 C9040000 		.4byte	.LASF207
 5915 1326 0A       		.byte	0xa
 5916 1327 3601     		.2byte	0x136
 5917 1329 A3030000 		.4byte	0x3a3
 5918 132d 01       		.byte	0x1
 5919 132e 01       		.byte	0x1
 5920 132f 29       		.uleb128 0x29
 5921 1330 2F070000 		.4byte	.LASF208
 5922 1334 0A       		.byte	0xa
 5923 1335 3701     		.2byte	0x137
 5924 1337 E6000000 		.4byte	0xe6
 5925 133b 01       		.byte	0x1
 5926 133c 01       		.byte	0x1
 5927 133d 2A       		.uleb128 0x2a
 5928 133e 7E010000 		.4byte	.LASF209
 5929 1342 0C       		.byte	0xc
 5930 1343 95       		.byte	0x95
 5931 1344 6D0A0000 		.4byte	0xa6d
 5932 1348 01       		.byte	0x1
 5933 1349 01       		.byte	0x1
 5934 134a 00       		.byte	0
 5935              		.section	.debug_abbrev,"",%progbits
 5936              	.Ldebug_abbrev0:
 5937 0000 01       		.uleb128 0x1
 5938 0001 11       		.uleb128 0x11
 5939 0002 01       		.byte	0x1
 5940 0003 25       		.uleb128 0x25
 5941 0004 0E       		.uleb128 0xe
 5942 0005 13       		.uleb128 0x13
 5943 0006 0B       		.uleb128 0xb
 5944 0007 03       		.uleb128 0x3
 5945 0008 0E       		.uleb128 0xe
 5946 0009 1B       		.uleb128 0x1b
 5947 000a 0E       		.uleb128 0xe
 5948 000b 11       		.uleb128 0x11
 5949 000c 01       		.uleb128 0x1
 5950 000d 52       		.uleb128 0x52
 5951 000e 01       		.uleb128 0x1
 5952 000f 55       		.uleb128 0x55
 5953 0010 06       		.uleb128 0x6
 5954 0011 10       		.uleb128 0x10
 5955 0012 06       		.uleb128 0x6
 5956 0013 00       		.byte	0
 5957 0014 00       		.byte	0
ARM GAS  /tmp/ccKKWSFE.s 			page 106


 5958 0015 02       		.uleb128 0x2
 5959 0016 24       		.uleb128 0x24
 5960 0017 00       		.byte	0
 5961 0018 0B       		.uleb128 0xb
 5962 0019 0B       		.uleb128 0xb
 5963 001a 3E       		.uleb128 0x3e
 5964 001b 0B       		.uleb128 0xb
 5965 001c 03       		.uleb128 0x3
 5966 001d 08       		.uleb128 0x8
 5967 001e 00       		.byte	0
 5968 001f 00       		.byte	0
 5969 0020 03       		.uleb128 0x3
 5970 0021 24       		.uleb128 0x24
 5971 0022 00       		.byte	0
 5972 0023 0B       		.uleb128 0xb
 5973 0024 0B       		.uleb128 0xb
 5974 0025 3E       		.uleb128 0x3e
 5975 0026 0B       		.uleb128 0xb
 5976 0027 03       		.uleb128 0x3
 5977 0028 0E       		.uleb128 0xe
 5978 0029 00       		.byte	0
 5979 002a 00       		.byte	0
 5980 002b 04       		.uleb128 0x4
 5981 002c 16       		.uleb128 0x16
 5982 002d 00       		.byte	0
 5983 002e 03       		.uleb128 0x3
 5984 002f 0E       		.uleb128 0xe
 5985 0030 3A       		.uleb128 0x3a
 5986 0031 0B       		.uleb128 0xb
 5987 0032 3B       		.uleb128 0x3b
 5988 0033 0B       		.uleb128 0xb
 5989 0034 49       		.uleb128 0x49
 5990 0035 13       		.uleb128 0x13
 5991 0036 00       		.byte	0
 5992 0037 00       		.byte	0
 5993 0038 05       		.uleb128 0x5
 5994 0039 0F       		.uleb128 0xf
 5995 003a 00       		.byte	0
 5996 003b 0B       		.uleb128 0xb
 5997 003c 0B       		.uleb128 0xb
 5998 003d 00       		.byte	0
 5999 003e 00       		.byte	0
 6000 003f 06       		.uleb128 0x6
 6001 0040 04       		.uleb128 0x4
 6002 0041 01       		.byte	0x1
 6003 0042 0B       		.uleb128 0xb
 6004 0043 0B       		.uleb128 0xb
 6005 0044 3A       		.uleb128 0x3a
 6006 0045 0B       		.uleb128 0xb
 6007 0046 3B       		.uleb128 0x3b
 6008 0047 0B       		.uleb128 0xb
 6009 0048 01       		.uleb128 0x1
 6010 0049 13       		.uleb128 0x13
 6011 004a 00       		.byte	0
 6012 004b 00       		.byte	0
 6013 004c 07       		.uleb128 0x7
 6014 004d 28       		.uleb128 0x28
ARM GAS  /tmp/ccKKWSFE.s 			page 107


 6015 004e 00       		.byte	0
 6016 004f 03       		.uleb128 0x3
 6017 0050 0E       		.uleb128 0xe
 6018 0051 1C       		.uleb128 0x1c
 6019 0052 0D       		.uleb128 0xd
 6020 0053 00       		.byte	0
 6021 0054 00       		.byte	0
 6022 0055 08       		.uleb128 0x8
 6023 0056 13       		.uleb128 0x13
 6024 0057 01       		.byte	0x1
 6025 0058 03       		.uleb128 0x3
 6026 0059 0E       		.uleb128 0xe
 6027 005a 0B       		.uleb128 0xb
 6028 005b 0B       		.uleb128 0xb
 6029 005c 3A       		.uleb128 0x3a
 6030 005d 0B       		.uleb128 0xb
 6031 005e 3B       		.uleb128 0x3b
 6032 005f 0B       		.uleb128 0xb
 6033 0060 01       		.uleb128 0x1
 6034 0061 13       		.uleb128 0x13
 6035 0062 00       		.byte	0
 6036 0063 00       		.byte	0
 6037 0064 09       		.uleb128 0x9
 6038 0065 0D       		.uleb128 0xd
 6039 0066 00       		.byte	0
 6040 0067 03       		.uleb128 0x3
 6041 0068 0E       		.uleb128 0xe
 6042 0069 3A       		.uleb128 0x3a
 6043 006a 0B       		.uleb128 0xb
 6044 006b 3B       		.uleb128 0x3b
 6045 006c 0B       		.uleb128 0xb
 6046 006d 49       		.uleb128 0x49
 6047 006e 13       		.uleb128 0x13
 6048 006f 38       		.uleb128 0x38
 6049 0070 0A       		.uleb128 0xa
 6050 0071 00       		.byte	0
 6051 0072 00       		.byte	0
 6052 0073 0A       		.uleb128 0xa
 6053 0074 0D       		.uleb128 0xd
 6054 0075 00       		.byte	0
 6055 0076 03       		.uleb128 0x3
 6056 0077 08       		.uleb128 0x8
 6057 0078 3A       		.uleb128 0x3a
 6058 0079 0B       		.uleb128 0xb
 6059 007a 3B       		.uleb128 0x3b
 6060 007b 0B       		.uleb128 0xb
 6061 007c 49       		.uleb128 0x49
 6062 007d 13       		.uleb128 0x13
 6063 007e 38       		.uleb128 0x38
 6064 007f 0A       		.uleb128 0xa
 6065 0080 00       		.byte	0
 6066 0081 00       		.byte	0
 6067 0082 0B       		.uleb128 0xb
 6068 0083 0F       		.uleb128 0xf
 6069 0084 00       		.byte	0
 6070 0085 0B       		.uleb128 0xb
 6071 0086 0B       		.uleb128 0xb
ARM GAS  /tmp/ccKKWSFE.s 			page 108


 6072 0087 49       		.uleb128 0x49
 6073 0088 13       		.uleb128 0x13
 6074 0089 00       		.byte	0
 6075 008a 00       		.byte	0
 6076 008b 0C       		.uleb128 0xc
 6077 008c 15       		.uleb128 0x15
 6078 008d 01       		.byte	0x1
 6079 008e 27       		.uleb128 0x27
 6080 008f 0C       		.uleb128 0xc
 6081 0090 49       		.uleb128 0x49
 6082 0091 13       		.uleb128 0x13
 6083 0092 01       		.uleb128 0x1
 6084 0093 13       		.uleb128 0x13
 6085 0094 00       		.byte	0
 6086 0095 00       		.byte	0
 6087 0096 0D       		.uleb128 0xd
 6088 0097 05       		.uleb128 0x5
 6089 0098 00       		.byte	0
 6090 0099 49       		.uleb128 0x49
 6091 009a 13       		.uleb128 0x13
 6092 009b 00       		.byte	0
 6093 009c 00       		.byte	0
 6094 009d 0E       		.uleb128 0xe
 6095 009e 01       		.uleb128 0x1
 6096 009f 01       		.byte	0x1
 6097 00a0 49       		.uleb128 0x49
 6098 00a1 13       		.uleb128 0x13
 6099 00a2 01       		.uleb128 0x1
 6100 00a3 13       		.uleb128 0x13
 6101 00a4 00       		.byte	0
 6102 00a5 00       		.byte	0
 6103 00a6 0F       		.uleb128 0xf
 6104 00a7 21       		.uleb128 0x21
 6105 00a8 00       		.byte	0
 6106 00a9 49       		.uleb128 0x49
 6107 00aa 13       		.uleb128 0x13
 6108 00ab 2F       		.uleb128 0x2f
 6109 00ac 0B       		.uleb128 0xb
 6110 00ad 00       		.byte	0
 6111 00ae 00       		.byte	0
 6112 00af 10       		.uleb128 0x10
 6113 00b0 0D       		.uleb128 0xd
 6114 00b1 00       		.byte	0
 6115 00b2 03       		.uleb128 0x3
 6116 00b3 0E       		.uleb128 0xe
 6117 00b4 3A       		.uleb128 0x3a
 6118 00b5 0B       		.uleb128 0xb
 6119 00b6 3B       		.uleb128 0x3b
 6120 00b7 05       		.uleb128 0x5
 6121 00b8 49       		.uleb128 0x49
 6122 00b9 13       		.uleb128 0x13
 6123 00ba 38       		.uleb128 0x38
 6124 00bb 0A       		.uleb128 0xa
 6125 00bc 00       		.byte	0
 6126 00bd 00       		.byte	0
 6127 00be 11       		.uleb128 0x11
 6128 00bf 15       		.uleb128 0x15
ARM GAS  /tmp/ccKKWSFE.s 			page 109


 6129 00c0 01       		.byte	0x1
 6130 00c1 27       		.uleb128 0x27
 6131 00c2 0C       		.uleb128 0xc
 6132 00c3 01       		.uleb128 0x1
 6133 00c4 13       		.uleb128 0x13
 6134 00c5 00       		.byte	0
 6135 00c6 00       		.byte	0
 6136 00c7 12       		.uleb128 0x12
 6137 00c8 04       		.uleb128 0x4
 6138 00c9 01       		.byte	0x1
 6139 00ca 03       		.uleb128 0x3
 6140 00cb 0E       		.uleb128 0xe
 6141 00cc 0B       		.uleb128 0xb
 6142 00cd 0B       		.uleb128 0xb
 6143 00ce 3A       		.uleb128 0x3a
 6144 00cf 0B       		.uleb128 0xb
 6145 00d0 3B       		.uleb128 0x3b
 6146 00d1 0B       		.uleb128 0xb
 6147 00d2 01       		.uleb128 0x1
 6148 00d3 13       		.uleb128 0x13
 6149 00d4 00       		.byte	0
 6150 00d5 00       		.byte	0
 6151 00d6 13       		.uleb128 0x13
 6152 00d7 13       		.uleb128 0x13
 6153 00d8 01       		.byte	0x1
 6154 00d9 03       		.uleb128 0x3
 6155 00da 0E       		.uleb128 0xe
 6156 00db 0B       		.uleb128 0xb
 6157 00dc 0B       		.uleb128 0xb
 6158 00dd 3A       		.uleb128 0x3a
 6159 00de 0B       		.uleb128 0xb
 6160 00df 3B       		.uleb128 0x3b
 6161 00e0 05       		.uleb128 0x5
 6162 00e1 01       		.uleb128 0x1
 6163 00e2 13       		.uleb128 0x13
 6164 00e3 00       		.byte	0
 6165 00e4 00       		.byte	0
 6166 00e5 14       		.uleb128 0x14
 6167 00e6 0D       		.uleb128 0xd
 6168 00e7 00       		.byte	0
 6169 00e8 03       		.uleb128 0x3
 6170 00e9 08       		.uleb128 0x8
 6171 00ea 3A       		.uleb128 0x3a
 6172 00eb 0B       		.uleb128 0xb
 6173 00ec 3B       		.uleb128 0x3b
 6174 00ed 05       		.uleb128 0x5
 6175 00ee 49       		.uleb128 0x49
 6176 00ef 13       		.uleb128 0x13
 6177 00f0 38       		.uleb128 0x38
 6178 00f1 0A       		.uleb128 0xa
 6179 00f2 00       		.byte	0
 6180 00f3 00       		.byte	0
 6181 00f4 15       		.uleb128 0x15
 6182 00f5 13       		.uleb128 0x13
 6183 00f6 01       		.byte	0x1
 6184 00f7 03       		.uleb128 0x3
 6185 00f8 0E       		.uleb128 0xe
ARM GAS  /tmp/ccKKWSFE.s 			page 110


 6186 00f9 0B       		.uleb128 0xb
 6187 00fa 05       		.uleb128 0x5
 6188 00fb 3A       		.uleb128 0x3a
 6189 00fc 0B       		.uleb128 0xb
 6190 00fd 3B       		.uleb128 0x3b
 6191 00fe 0B       		.uleb128 0xb
 6192 00ff 01       		.uleb128 0x1
 6193 0100 13       		.uleb128 0x13
 6194 0101 00       		.byte	0
 6195 0102 00       		.byte	0
 6196 0103 16       		.uleb128 0x16
 6197 0104 2E       		.uleb128 0x2e
 6198 0105 01       		.byte	0x1
 6199 0106 03       		.uleb128 0x3
 6200 0107 0E       		.uleb128 0xe
 6201 0108 3A       		.uleb128 0x3a
 6202 0109 0B       		.uleb128 0xb
 6203 010a 3B       		.uleb128 0x3b
 6204 010b 0B       		.uleb128 0xb
 6205 010c 27       		.uleb128 0x27
 6206 010d 0C       		.uleb128 0xc
 6207 010e 49       		.uleb128 0x49
 6208 010f 13       		.uleb128 0x13
 6209 0110 11       		.uleb128 0x11
 6210 0111 01       		.uleb128 0x1
 6211 0112 12       		.uleb128 0x12
 6212 0113 01       		.uleb128 0x1
 6213 0114 40       		.uleb128 0x40
 6214 0115 06       		.uleb128 0x6
 6215 0116 01       		.uleb128 0x1
 6216 0117 13       		.uleb128 0x13
 6217 0118 00       		.byte	0
 6218 0119 00       		.byte	0
 6219 011a 17       		.uleb128 0x17
 6220 011b 05       		.uleb128 0x5
 6221 011c 00       		.byte	0
 6222 011d 03       		.uleb128 0x3
 6223 011e 08       		.uleb128 0x8
 6224 011f 3A       		.uleb128 0x3a
 6225 0120 0B       		.uleb128 0xb
 6226 0121 3B       		.uleb128 0x3b
 6227 0122 0B       		.uleb128 0xb
 6228 0123 49       		.uleb128 0x49
 6229 0124 13       		.uleb128 0x13
 6230 0125 02       		.uleb128 0x2
 6231 0126 0A       		.uleb128 0xa
 6232 0127 00       		.byte	0
 6233 0128 00       		.byte	0
 6234 0129 18       		.uleb128 0x18
 6235 012a 05       		.uleb128 0x5
 6236 012b 00       		.byte	0
 6237 012c 03       		.uleb128 0x3
 6238 012d 0E       		.uleb128 0xe
 6239 012e 3A       		.uleb128 0x3a
 6240 012f 0B       		.uleb128 0xb
 6241 0130 3B       		.uleb128 0x3b
 6242 0131 0B       		.uleb128 0xb
ARM GAS  /tmp/ccKKWSFE.s 			page 111


 6243 0132 49       		.uleb128 0x49
 6244 0133 13       		.uleb128 0x13
 6245 0134 02       		.uleb128 0x2
 6246 0135 0A       		.uleb128 0xa
 6247 0136 00       		.byte	0
 6248 0137 00       		.byte	0
 6249 0138 19       		.uleb128 0x19
 6250 0139 34       		.uleb128 0x34
 6251 013a 00       		.byte	0
 6252 013b 03       		.uleb128 0x3
 6253 013c 0E       		.uleb128 0xe
 6254 013d 3A       		.uleb128 0x3a
 6255 013e 0B       		.uleb128 0xb
 6256 013f 3B       		.uleb128 0x3b
 6257 0140 0B       		.uleb128 0xb
 6258 0141 49       		.uleb128 0x49
 6259 0142 13       		.uleb128 0x13
 6260 0143 02       		.uleb128 0x2
 6261 0144 0A       		.uleb128 0xa
 6262 0145 00       		.byte	0
 6263 0146 00       		.byte	0
 6264 0147 1A       		.uleb128 0x1a
 6265 0148 34       		.uleb128 0x34
 6266 0149 00       		.byte	0
 6267 014a 03       		.uleb128 0x3
 6268 014b 08       		.uleb128 0x8
 6269 014c 3A       		.uleb128 0x3a
 6270 014d 0B       		.uleb128 0xb
 6271 014e 3B       		.uleb128 0x3b
 6272 014f 0B       		.uleb128 0xb
 6273 0150 49       		.uleb128 0x49
 6274 0151 13       		.uleb128 0x13
 6275 0152 02       		.uleb128 0x2
 6276 0153 0A       		.uleb128 0xa
 6277 0154 00       		.byte	0
 6278 0155 00       		.byte	0
 6279 0156 1B       		.uleb128 0x1b
 6280 0157 2E       		.uleb128 0x2e
 6281 0158 01       		.byte	0x1
 6282 0159 3F       		.uleb128 0x3f
 6283 015a 0C       		.uleb128 0xc
 6284 015b 03       		.uleb128 0x3
 6285 015c 0E       		.uleb128 0xe
 6286 015d 3A       		.uleb128 0x3a
 6287 015e 0B       		.uleb128 0xb
 6288 015f 3B       		.uleb128 0x3b
 6289 0160 0B       		.uleb128 0xb
 6290 0161 27       		.uleb128 0x27
 6291 0162 0C       		.uleb128 0xc
 6292 0163 49       		.uleb128 0x49
 6293 0164 13       		.uleb128 0x13
 6294 0165 11       		.uleb128 0x11
 6295 0166 01       		.uleb128 0x1
 6296 0167 12       		.uleb128 0x12
 6297 0168 01       		.uleb128 0x1
 6298 0169 40       		.uleb128 0x40
 6299 016a 06       		.uleb128 0x6
ARM GAS  /tmp/ccKKWSFE.s 			page 112


 6300 016b 01       		.uleb128 0x1
 6301 016c 13       		.uleb128 0x13
 6302 016d 00       		.byte	0
 6303 016e 00       		.byte	0
 6304 016f 1C       		.uleb128 0x1c
 6305 0170 0B       		.uleb128 0xb
 6306 0171 01       		.byte	0x1
 6307 0172 11       		.uleb128 0x11
 6308 0173 01       		.uleb128 0x1
 6309 0174 12       		.uleb128 0x12
 6310 0175 01       		.uleb128 0x1
 6311 0176 00       		.byte	0
 6312 0177 00       		.byte	0
 6313 0178 1D       		.uleb128 0x1d
 6314 0179 2E       		.uleb128 0x2e
 6315 017a 01       		.byte	0x1
 6316 017b 03       		.uleb128 0x3
 6317 017c 0E       		.uleb128 0xe
 6318 017d 3A       		.uleb128 0x3a
 6319 017e 0B       		.uleb128 0xb
 6320 017f 3B       		.uleb128 0x3b
 6321 0180 05       		.uleb128 0x5
 6322 0181 27       		.uleb128 0x27
 6323 0182 0C       		.uleb128 0xc
 6324 0183 49       		.uleb128 0x49
 6325 0184 13       		.uleb128 0x13
 6326 0185 11       		.uleb128 0x11
 6327 0186 01       		.uleb128 0x1
 6328 0187 12       		.uleb128 0x12
 6329 0188 01       		.uleb128 0x1
 6330 0189 40       		.uleb128 0x40
 6331 018a 06       		.uleb128 0x6
 6332 018b 01       		.uleb128 0x1
 6333 018c 13       		.uleb128 0x13
 6334 018d 00       		.byte	0
 6335 018e 00       		.byte	0
 6336 018f 1E       		.uleb128 0x1e
 6337 0190 05       		.uleb128 0x5
 6338 0191 00       		.byte	0
 6339 0192 03       		.uleb128 0x3
 6340 0193 08       		.uleb128 0x8
 6341 0194 3A       		.uleb128 0x3a
 6342 0195 0B       		.uleb128 0xb
 6343 0196 3B       		.uleb128 0x3b
 6344 0197 05       		.uleb128 0x5
 6345 0198 49       		.uleb128 0x49
 6346 0199 13       		.uleb128 0x13
 6347 019a 02       		.uleb128 0x2
 6348 019b 0A       		.uleb128 0xa
 6349 019c 00       		.byte	0
 6350 019d 00       		.byte	0
 6351 019e 1F       		.uleb128 0x1f
 6352 019f 2E       		.uleb128 0x2e
 6353 01a0 01       		.byte	0x1
 6354 01a1 3F       		.uleb128 0x3f
 6355 01a2 0C       		.uleb128 0xc
 6356 01a3 03       		.uleb128 0x3
ARM GAS  /tmp/ccKKWSFE.s 			page 113


 6357 01a4 0E       		.uleb128 0xe
 6358 01a5 3A       		.uleb128 0x3a
 6359 01a6 0B       		.uleb128 0xb
 6360 01a7 3B       		.uleb128 0x3b
 6361 01a8 05       		.uleb128 0x5
 6362 01a9 27       		.uleb128 0x27
 6363 01aa 0C       		.uleb128 0xc
 6364 01ab 49       		.uleb128 0x49
 6365 01ac 13       		.uleb128 0x13
 6366 01ad 11       		.uleb128 0x11
 6367 01ae 01       		.uleb128 0x1
 6368 01af 12       		.uleb128 0x12
 6369 01b0 01       		.uleb128 0x1
 6370 01b1 40       		.uleb128 0x40
 6371 01b2 06       		.uleb128 0x6
 6372 01b3 01       		.uleb128 0x1
 6373 01b4 13       		.uleb128 0x13
 6374 01b5 00       		.byte	0
 6375 01b6 00       		.byte	0
 6376 01b7 20       		.uleb128 0x20
 6377 01b8 05       		.uleb128 0x5
 6378 01b9 00       		.byte	0
 6379 01ba 03       		.uleb128 0x3
 6380 01bb 0E       		.uleb128 0xe
 6381 01bc 3A       		.uleb128 0x3a
 6382 01bd 0B       		.uleb128 0xb
 6383 01be 3B       		.uleb128 0x3b
 6384 01bf 05       		.uleb128 0x5
 6385 01c0 49       		.uleb128 0x49
 6386 01c1 13       		.uleb128 0x13
 6387 01c2 02       		.uleb128 0x2
 6388 01c3 0A       		.uleb128 0xa
 6389 01c4 00       		.byte	0
 6390 01c5 00       		.byte	0
 6391 01c6 21       		.uleb128 0x21
 6392 01c7 34       		.uleb128 0x34
 6393 01c8 00       		.byte	0
 6394 01c9 03       		.uleb128 0x3
 6395 01ca 0E       		.uleb128 0xe
 6396 01cb 3A       		.uleb128 0x3a
 6397 01cc 0B       		.uleb128 0xb
 6398 01cd 3B       		.uleb128 0x3b
 6399 01ce 05       		.uleb128 0x5
 6400 01cf 49       		.uleb128 0x49
 6401 01d0 13       		.uleb128 0x13
 6402 01d1 02       		.uleb128 0x2
 6403 01d2 0A       		.uleb128 0xa
 6404 01d3 00       		.byte	0
 6405 01d4 00       		.byte	0
 6406 01d5 22       		.uleb128 0x22
 6407 01d6 34       		.uleb128 0x34
 6408 01d7 00       		.byte	0
 6409 01d8 03       		.uleb128 0x3
 6410 01d9 08       		.uleb128 0x8
 6411 01da 3A       		.uleb128 0x3a
 6412 01db 0B       		.uleb128 0xb
 6413 01dc 3B       		.uleb128 0x3b
ARM GAS  /tmp/ccKKWSFE.s 			page 114


 6414 01dd 05       		.uleb128 0x5
 6415 01de 49       		.uleb128 0x49
 6416 01df 13       		.uleb128 0x13
 6417 01e0 02       		.uleb128 0x2
 6418 01e1 0A       		.uleb128 0xa
 6419 01e2 00       		.byte	0
 6420 01e3 00       		.byte	0
 6421 01e4 23       		.uleb128 0x23
 6422 01e5 0A       		.uleb128 0xa
 6423 01e6 00       		.byte	0
 6424 01e7 03       		.uleb128 0x3
 6425 01e8 0E       		.uleb128 0xe
 6426 01e9 3A       		.uleb128 0x3a
 6427 01ea 0B       		.uleb128 0xb
 6428 01eb 3B       		.uleb128 0x3b
 6429 01ec 05       		.uleb128 0x5
 6430 01ed 11       		.uleb128 0x11
 6431 01ee 01       		.uleb128 0x1
 6432 01ef 00       		.byte	0
 6433 01f0 00       		.byte	0
 6434 01f1 24       		.uleb128 0x24
 6435 01f2 0B       		.uleb128 0xb
 6436 01f3 01       		.byte	0x1
 6437 01f4 55       		.uleb128 0x55
 6438 01f5 06       		.uleb128 0x6
 6439 01f6 01       		.uleb128 0x1
 6440 01f7 13       		.uleb128 0x13
 6441 01f8 00       		.byte	0
 6442 01f9 00       		.byte	0
 6443 01fa 25       		.uleb128 0x25
 6444 01fb 0B       		.uleb128 0xb
 6445 01fc 01       		.byte	0x1
 6446 01fd 55       		.uleb128 0x55
 6447 01fe 06       		.uleb128 0x6
 6448 01ff 00       		.byte	0
 6449 0200 00       		.byte	0
 6450 0201 26       		.uleb128 0x26
 6451 0202 26       		.uleb128 0x26
 6452 0203 00       		.byte	0
 6453 0204 00       		.byte	0
 6454 0205 00       		.byte	0
 6455 0206 27       		.uleb128 0x27
 6456 0207 2E       		.uleb128 0x2e
 6457 0208 01       		.byte	0x1
 6458 0209 03       		.uleb128 0x3
 6459 020a 0E       		.uleb128 0xe
 6460 020b 3A       		.uleb128 0x3a
 6461 020c 0B       		.uleb128 0xb
 6462 020d 3B       		.uleb128 0x3b
 6463 020e 05       		.uleb128 0x5
 6464 020f 27       		.uleb128 0x27
 6465 0210 0C       		.uleb128 0xc
 6466 0211 11       		.uleb128 0x11
 6467 0212 01       		.uleb128 0x1
 6468 0213 12       		.uleb128 0x12
 6469 0214 01       		.uleb128 0x1
 6470 0215 40       		.uleb128 0x40
ARM GAS  /tmp/ccKKWSFE.s 			page 115


 6471 0216 06       		.uleb128 0x6
 6472 0217 01       		.uleb128 0x1
 6473 0218 13       		.uleb128 0x13
 6474 0219 00       		.byte	0
 6475 021a 00       		.byte	0
 6476 021b 28       		.uleb128 0x28
 6477 021c 2E       		.uleb128 0x2e
 6478 021d 01       		.byte	0x1
 6479 021e 3F       		.uleb128 0x3f
 6480 021f 0C       		.uleb128 0xc
 6481 0220 03       		.uleb128 0x3
 6482 0221 0E       		.uleb128 0xe
 6483 0222 3A       		.uleb128 0x3a
 6484 0223 0B       		.uleb128 0xb
 6485 0224 3B       		.uleb128 0x3b
 6486 0225 05       		.uleb128 0x5
 6487 0226 27       		.uleb128 0x27
 6488 0227 0C       		.uleb128 0xc
 6489 0228 11       		.uleb128 0x11
 6490 0229 01       		.uleb128 0x1
 6491 022a 12       		.uleb128 0x12
 6492 022b 01       		.uleb128 0x1
 6493 022c 40       		.uleb128 0x40
 6494 022d 06       		.uleb128 0x6
 6495 022e 01       		.uleb128 0x1
 6496 022f 13       		.uleb128 0x13
 6497 0230 00       		.byte	0
 6498 0231 00       		.byte	0
 6499 0232 29       		.uleb128 0x29
 6500 0233 34       		.uleb128 0x34
 6501 0234 00       		.byte	0
 6502 0235 03       		.uleb128 0x3
 6503 0236 0E       		.uleb128 0xe
 6504 0237 3A       		.uleb128 0x3a
 6505 0238 0B       		.uleb128 0xb
 6506 0239 3B       		.uleb128 0x3b
 6507 023a 05       		.uleb128 0x5
 6508 023b 49       		.uleb128 0x49
 6509 023c 13       		.uleb128 0x13
 6510 023d 3F       		.uleb128 0x3f
 6511 023e 0C       		.uleb128 0xc
 6512 023f 3C       		.uleb128 0x3c
 6513 0240 0C       		.uleb128 0xc
 6514 0241 00       		.byte	0
 6515 0242 00       		.byte	0
 6516 0243 2A       		.uleb128 0x2a
 6517 0244 34       		.uleb128 0x34
 6518 0245 00       		.byte	0
 6519 0246 03       		.uleb128 0x3
 6520 0247 0E       		.uleb128 0xe
 6521 0248 3A       		.uleb128 0x3a
 6522 0249 0B       		.uleb128 0xb
 6523 024a 3B       		.uleb128 0x3b
 6524 024b 0B       		.uleb128 0xb
 6525 024c 49       		.uleb128 0x49
 6526 024d 13       		.uleb128 0x13
 6527 024e 3F       		.uleb128 0x3f
ARM GAS  /tmp/ccKKWSFE.s 			page 116


 6528 024f 0C       		.uleb128 0xc
 6529 0250 3C       		.uleb128 0x3c
 6530 0251 0C       		.uleb128 0xc
 6531 0252 00       		.byte	0
 6532 0253 00       		.byte	0
 6533 0254 00       		.byte	0
 6534              		.section	.debug_loc,"",%progbits
 6535              	.Ldebug_loc0:
 6536              	.LLST0:
 6537 0000 00000000 		.4byte	.LFB7
 6538 0004 02000000 		.4byte	.LCFI0
 6539 0008 0200     		.2byte	0x2
 6540 000a 7D       		.byte	0x7d
 6541 000b 00       		.sleb128 0
 6542 000c 02000000 		.4byte	.LCFI0
 6543 0010 04000000 		.4byte	.LCFI1
 6544 0014 0200     		.2byte	0x2
 6545 0016 7D       		.byte	0x7d
 6546 0017 04       		.sleb128 4
 6547 0018 04000000 		.4byte	.LCFI1
 6548 001c 02010000 		.4byte	.LFE7
 6549 0020 0200     		.2byte	0x2
 6550 0022 7D       		.byte	0x7d
 6551 0023 20       		.sleb128 32
 6552 0024 00000000 		.4byte	0
 6553 0028 00000000 		.4byte	0
 6554              	.LLST1:
 6555 002c 00000000 		.4byte	.LFB8
 6556 0030 02000000 		.4byte	.LCFI2
 6557 0034 0200     		.2byte	0x2
 6558 0036 7D       		.byte	0x7d
 6559 0037 00       		.sleb128 0
 6560 0038 02000000 		.4byte	.LCFI2
 6561 003c 04000000 		.4byte	.LCFI3
 6562 0040 0200     		.2byte	0x2
 6563 0042 7D       		.byte	0x7d
 6564 0043 0C       		.sleb128 12
 6565 0044 04000000 		.4byte	.LCFI3
 6566 0048 72000000 		.4byte	.LFE8
 6567 004c 0200     		.2byte	0x2
 6568 004e 7D       		.byte	0x7d
 6569 004f 20       		.sleb128 32
 6570 0050 00000000 		.4byte	0
 6571 0054 00000000 		.4byte	0
 6572              	.LLST2:
 6573 0058 00000000 		.4byte	.LFB9
 6574 005c 02000000 		.4byte	.LCFI4
 6575 0060 0200     		.2byte	0x2
 6576 0062 7D       		.byte	0x7d
 6577 0063 00       		.sleb128 0
 6578 0064 02000000 		.4byte	.LCFI4
 6579 0068 04000000 		.4byte	.LCFI5
 6580 006c 0200     		.2byte	0x2
 6581 006e 7D       		.byte	0x7d
 6582 006f 08       		.sleb128 8
 6583 0070 04000000 		.4byte	.LCFI5
 6584 0074 46010000 		.4byte	.LFE9
ARM GAS  /tmp/ccKKWSFE.s 			page 117


 6585 0078 0200     		.2byte	0x2
 6586 007a 7D       		.byte	0x7d
 6587 007b 20       		.sleb128 32
 6588 007c 00000000 		.4byte	0
 6589 0080 00000000 		.4byte	0
 6590              	.LLST3:
 6591 0084 00000000 		.4byte	.LFB10
 6592 0088 02000000 		.4byte	.LCFI6
 6593 008c 0200     		.2byte	0x2
 6594 008e 7D       		.byte	0x7d
 6595 008f 00       		.sleb128 0
 6596 0090 02000000 		.4byte	.LCFI6
 6597 0094 04000000 		.4byte	.LCFI7
 6598 0098 0200     		.2byte	0x2
 6599 009a 7D       		.byte	0x7d
 6600 009b 04       		.sleb128 4
 6601 009c 04000000 		.4byte	.LCFI7
 6602 00a0 D4000000 		.4byte	.LFE10
 6603 00a4 0200     		.2byte	0x2
 6604 00a6 7D       		.byte	0x7d
 6605 00a7 20       		.sleb128 32
 6606 00a8 00000000 		.4byte	0
 6607 00ac 00000000 		.4byte	0
 6608              	.LLST4:
 6609 00b0 00000000 		.4byte	.LFB11
 6610 00b4 02000000 		.4byte	.LCFI8
 6611 00b8 0200     		.2byte	0x2
 6612 00ba 7D       		.byte	0x7d
 6613 00bb 00       		.sleb128 0
 6614 00bc 02000000 		.4byte	.LCFI8
 6615 00c0 04000000 		.4byte	.LCFI9
 6616 00c4 0200     		.2byte	0x2
 6617 00c6 7D       		.byte	0x7d
 6618 00c7 04       		.sleb128 4
 6619 00c8 04000000 		.4byte	.LCFI9
 6620 00cc F4000000 		.4byte	.LFE11
 6621 00d0 0200     		.2byte	0x2
 6622 00d2 7D       		.byte	0x7d
 6623 00d3 10       		.sleb128 16
 6624 00d4 00000000 		.4byte	0
 6625 00d8 00000000 		.4byte	0
 6626              	.LLST5:
 6627 00dc 00000000 		.4byte	.LFB12
 6628 00e0 02000000 		.4byte	.LCFI10
 6629 00e4 0200     		.2byte	0x2
 6630 00e6 7D       		.byte	0x7d
 6631 00e7 00       		.sleb128 0
 6632 00e8 02000000 		.4byte	.LCFI10
 6633 00ec 04000000 		.4byte	.LCFI11
 6634 00f0 0200     		.2byte	0x2
 6635 00f2 7D       		.byte	0x7d
 6636 00f3 0C       		.sleb128 12
 6637 00f4 04000000 		.4byte	.LCFI11
 6638 00f8 DA050000 		.4byte	.LFE12
 6639 00fc 0300     		.2byte	0x3
 6640 00fe 7D       		.byte	0x7d
 6641 00ff F000     		.sleb128 112
ARM GAS  /tmp/ccKKWSFE.s 			page 118


 6642 0101 00000000 		.4byte	0
 6643 0105 00000000 		.4byte	0
 6644              	.LLST6:
 6645 0109 00000000 		.4byte	.LFB13
 6646 010d 02000000 		.4byte	.LCFI12
 6647 0111 0200     		.2byte	0x2
 6648 0113 7D       		.byte	0x7d
 6649 0114 00       		.sleb128 0
 6650 0115 02000000 		.4byte	.LCFI12
 6651 0119 04000000 		.4byte	.LCFI13
 6652 011d 0200     		.2byte	0x2
 6653 011f 7D       		.byte	0x7d
 6654 0120 08       		.sleb128 8
 6655 0121 04000000 		.4byte	.LCFI13
 6656 0125 9C020000 		.4byte	.LFE13
 6657 0129 0200     		.2byte	0x2
 6658 012b 7D       		.byte	0x7d
 6659 012c 30       		.sleb128 48
 6660 012d 00000000 		.4byte	0
 6661 0131 00000000 		.4byte	0
 6662              	.LLST7:
 6663 0135 00000000 		.4byte	.LFB14
 6664 0139 02000000 		.4byte	.LCFI14
 6665 013d 0200     		.2byte	0x2
 6666 013f 7D       		.byte	0x7d
 6667 0140 00       		.sleb128 0
 6668 0141 02000000 		.4byte	.LCFI14
 6669 0145 04000000 		.4byte	.LCFI15
 6670 0149 0200     		.2byte	0x2
 6671 014b 7D       		.byte	0x7d
 6672 014c 08       		.sleb128 8
 6673 014d 04000000 		.4byte	.LCFI15
 6674 0151 A8000000 		.4byte	.LFE14
 6675 0155 0200     		.2byte	0x2
 6676 0157 7D       		.byte	0x7d
 6677 0158 28       		.sleb128 40
 6678 0159 00000000 		.4byte	0
 6679 015d 00000000 		.4byte	0
 6680              	.LLST8:
 6681 0161 00000000 		.4byte	.LFB15
 6682 0165 02000000 		.4byte	.LCFI16
 6683 0169 0200     		.2byte	0x2
 6684 016b 7D       		.byte	0x7d
 6685 016c 00       		.sleb128 0
 6686 016d 02000000 		.4byte	.LCFI16
 6687 0171 04000000 		.4byte	.LCFI17
 6688 0175 0200     		.2byte	0x2
 6689 0177 7D       		.byte	0x7d
 6690 0178 0C       		.sleb128 12
 6691 0179 04000000 		.4byte	.LCFI17
 6692 017d 04030000 		.4byte	.LFE15
 6693 0181 0200     		.2byte	0x2
 6694 0183 7D       		.byte	0x7d
 6695 0184 30       		.sleb128 48
 6696 0185 00000000 		.4byte	0
 6697 0189 00000000 		.4byte	0
 6698              	.LLST9:
ARM GAS  /tmp/ccKKWSFE.s 			page 119


 6699 018d 00000000 		.4byte	.LFB16
 6700 0191 02000000 		.4byte	.LCFI18
 6701 0195 0200     		.2byte	0x2
 6702 0197 7D       		.byte	0x7d
 6703 0198 00       		.sleb128 0
 6704 0199 02000000 		.4byte	.LCFI18
 6705 019d 04000000 		.4byte	.LCFI19
 6706 01a1 0200     		.2byte	0x2
 6707 01a3 7D       		.byte	0x7d
 6708 01a4 08       		.sleb128 8
 6709 01a5 04000000 		.4byte	.LCFI19
 6710 01a9 A4010000 		.4byte	.LFE16
 6711 01ad 0200     		.2byte	0x2
 6712 01af 7D       		.byte	0x7d
 6713 01b0 28       		.sleb128 40
 6714 01b1 00000000 		.4byte	0
 6715 01b5 00000000 		.4byte	0
 6716              	.LLST10:
 6717 01b9 00000000 		.4byte	.LFB17
 6718 01bd 02000000 		.4byte	.LCFI20
 6719 01c1 0200     		.2byte	0x2
 6720 01c3 7D       		.byte	0x7d
 6721 01c4 00       		.sleb128 0
 6722 01c5 02000000 		.4byte	.LCFI20
 6723 01c9 04000000 		.4byte	.LCFI21
 6724 01cd 0200     		.2byte	0x2
 6725 01cf 7D       		.byte	0x7d
 6726 01d0 04       		.sleb128 4
 6727 01d1 04000000 		.4byte	.LCFI21
 6728 01d5 18010000 		.4byte	.LFE17
 6729 01d9 0200     		.2byte	0x2
 6730 01db 7D       		.byte	0x7d
 6731 01dc 28       		.sleb128 40
 6732 01dd 00000000 		.4byte	0
 6733 01e1 00000000 		.4byte	0
 6734              	.LLST11:
 6735 01e5 00000000 		.4byte	.LFB18
 6736 01e9 02000000 		.4byte	.LCFI22
 6737 01ed 0200     		.2byte	0x2
 6738 01ef 7D       		.byte	0x7d
 6739 01f0 00       		.sleb128 0
 6740 01f1 02000000 		.4byte	.LCFI22
 6741 01f5 04000000 		.4byte	.LCFI23
 6742 01f9 0200     		.2byte	0x2
 6743 01fb 7D       		.byte	0x7d
 6744 01fc 04       		.sleb128 4
 6745 01fd 04000000 		.4byte	.LCFI23
 6746 0201 64000000 		.4byte	.LFE18
 6747 0205 0200     		.2byte	0x2
 6748 0207 7D       		.byte	0x7d
 6749 0208 18       		.sleb128 24
 6750 0209 00000000 		.4byte	0
 6751 020d 00000000 		.4byte	0
 6752              	.LLST12:
 6753 0211 00000000 		.4byte	.LFB19
 6754 0215 02000000 		.4byte	.LCFI24
 6755 0219 0200     		.2byte	0x2
ARM GAS  /tmp/ccKKWSFE.s 			page 120


 6756 021b 7D       		.byte	0x7d
 6757 021c 00       		.sleb128 0
 6758 021d 02000000 		.4byte	.LCFI24
 6759 0221 04000000 		.4byte	.LCFI25
 6760 0225 0200     		.2byte	0x2
 6761 0227 7D       		.byte	0x7d
 6762 0228 08       		.sleb128 8
 6763 0229 04000000 		.4byte	.LCFI25
 6764 022d 88000000 		.4byte	.LFE19
 6765 0231 0200     		.2byte	0x2
 6766 0233 7D       		.byte	0x7d
 6767 0234 18       		.sleb128 24
 6768 0235 00000000 		.4byte	0
 6769 0239 00000000 		.4byte	0
 6770              	.LLST13:
 6771 023d 00000000 		.4byte	.LFB20
 6772 0241 02000000 		.4byte	.LCFI26
 6773 0245 0200     		.2byte	0x2
 6774 0247 7D       		.byte	0x7d
 6775 0248 00       		.sleb128 0
 6776 0249 02000000 		.4byte	.LCFI26
 6777 024d 04000000 		.4byte	.LCFI27
 6778 0251 0200     		.2byte	0x2
 6779 0253 7D       		.byte	0x7d
 6780 0254 04       		.sleb128 4
 6781 0255 04000000 		.4byte	.LCFI27
 6782 0259 B0000000 		.4byte	.LFE20
 6783 025d 0200     		.2byte	0x2
 6784 025f 7D       		.byte	0x7d
 6785 0260 10       		.sleb128 16
 6786 0261 00000000 		.4byte	0
 6787 0265 00000000 		.4byte	0
 6788              	.LLST14:
 6789 0269 00000000 		.4byte	.LFB21
 6790 026d 02000000 		.4byte	.LCFI28
 6791 0271 0200     		.2byte	0x2
 6792 0273 7D       		.byte	0x7d
 6793 0274 00       		.sleb128 0
 6794 0275 02000000 		.4byte	.LCFI28
 6795 0279 04000000 		.4byte	.LCFI29
 6796 027d 0200     		.2byte	0x2
 6797 027f 7D       		.byte	0x7d
 6798 0280 04       		.sleb128 4
 6799 0281 04000000 		.4byte	.LCFI29
 6800 0285 A2000000 		.4byte	.LFE21
 6801 0289 0200     		.2byte	0x2
 6802 028b 7D       		.byte	0x7d
 6803 028c 20       		.sleb128 32
 6804 028d 00000000 		.4byte	0
 6805 0291 00000000 		.4byte	0
 6806              	.LLST15:
 6807 0295 00000000 		.4byte	.LFB22
 6808 0299 02000000 		.4byte	.LCFI30
 6809 029d 0200     		.2byte	0x2
 6810 029f 7D       		.byte	0x7d
 6811 02a0 00       		.sleb128 0
 6812 02a1 02000000 		.4byte	.LCFI30
ARM GAS  /tmp/ccKKWSFE.s 			page 121


 6813 02a5 04000000 		.4byte	.LCFI31
 6814 02a9 0200     		.2byte	0x2
 6815 02ab 7D       		.byte	0x7d
 6816 02ac 08       		.sleb128 8
 6817 02ad 04000000 		.4byte	.LCFI31
 6818 02b1 62010000 		.4byte	.LFE22
 6819 02b5 0200     		.2byte	0x2
 6820 02b7 7D       		.byte	0x7d
 6821 02b8 30       		.sleb128 48
 6822 02b9 00000000 		.4byte	0
 6823 02bd 00000000 		.4byte	0
 6824              		.section	.debug_aranges,"",%progbits
 6825 0000 94000000 		.4byte	0x94
 6826 0004 0200     		.2byte	0x2
 6827 0006 00000000 		.4byte	.Ldebug_info0
 6828 000a 04       		.byte	0x4
 6829 000b 00       		.byte	0
 6830 000c 0000     		.2byte	0
 6831 000e 0000     		.2byte	0
 6832 0010 00000000 		.4byte	.LFB7
 6833 0014 02010000 		.4byte	.LFE7-.LFB7
 6834 0018 00000000 		.4byte	.LFB8
 6835 001c 72000000 		.4byte	.LFE8-.LFB8
 6836 0020 00000000 		.4byte	.LFB9
 6837 0024 46010000 		.4byte	.LFE9-.LFB9
 6838 0028 00000000 		.4byte	.LFB10
 6839 002c D4000000 		.4byte	.LFE10-.LFB10
 6840 0030 00000000 		.4byte	.LFB11
 6841 0034 F4000000 		.4byte	.LFE11-.LFB11
 6842 0038 00000000 		.4byte	.LFB12
 6843 003c DA050000 		.4byte	.LFE12-.LFB12
 6844 0040 00000000 		.4byte	.LFB13
 6845 0044 9C020000 		.4byte	.LFE13-.LFB13
 6846 0048 00000000 		.4byte	.LFB14
 6847 004c A8000000 		.4byte	.LFE14-.LFB14
 6848 0050 00000000 		.4byte	.LFB15
 6849 0054 04030000 		.4byte	.LFE15-.LFB15
 6850 0058 00000000 		.4byte	.LFB16
 6851 005c A4010000 		.4byte	.LFE16-.LFB16
 6852 0060 00000000 		.4byte	.LFB17
 6853 0064 18010000 		.4byte	.LFE17-.LFB17
 6854 0068 00000000 		.4byte	.LFB18
 6855 006c 64000000 		.4byte	.LFE18-.LFB18
 6856 0070 00000000 		.4byte	.LFB19
 6857 0074 88000000 		.4byte	.LFE19-.LFB19
 6858 0078 00000000 		.4byte	.LFB20
 6859 007c B0000000 		.4byte	.LFE20-.LFB20
 6860 0080 00000000 		.4byte	.LFB21
 6861 0084 A2000000 		.4byte	.LFE21-.LFB21
 6862 0088 00000000 		.4byte	.LFB22
 6863 008c 62010000 		.4byte	.LFE22-.LFB22
 6864 0090 00000000 		.4byte	0
 6865 0094 00000000 		.4byte	0
 6866              		.section	.debug_ranges,"",%progbits
 6867              	.Ldebug_ranges0:
 6868 0000 9A000000 		.4byte	.LBB3
 6869 0004 5A020000 		.4byte	.LBE3
ARM GAS  /tmp/ccKKWSFE.s 			page 122


 6870 0008 56050000 		.4byte	.LBB10
 6871 000c 5E050000 		.4byte	.LBE10
 6872 0010 00000000 		.4byte	0
 6873 0014 00000000 		.4byte	0
 6874 0018 98010000 		.4byte	.LBB4
 6875 001c 5A020000 		.4byte	.LBE4
 6876 0020 56050000 		.4byte	.LBB5
 6877 0024 5E050000 		.4byte	.LBE5
 6878 0028 00000000 		.4byte	0
 6879 002c 00000000 		.4byte	0
 6880 0030 6E020000 		.4byte	.LBB6
 6881 0034 0A040000 		.4byte	.LBE6
 6882 0038 5E050000 		.4byte	.LBB11
 6883 003c 68050000 		.4byte	.LBE11
 6884 0040 00000000 		.4byte	0
 6885 0044 00000000 		.4byte	0
 6886 0048 20030000 		.4byte	.LBB7
 6887 004c 84030000 		.4byte	.LBE7
 6888 0050 62050000 		.4byte	.LBB8
 6889 0054 66050000 		.4byte	.LBE8
 6890 0058 00000000 		.4byte	0
 6891 005c 00000000 		.4byte	0
 6892 0060 00000000 		.4byte	.LFB7
 6893 0064 02010000 		.4byte	.LFE7
 6894 0068 00000000 		.4byte	.LFB8
 6895 006c 72000000 		.4byte	.LFE8
 6896 0070 00000000 		.4byte	.LFB9
 6897 0074 46010000 		.4byte	.LFE9
 6898 0078 00000000 		.4byte	.LFB10
 6899 007c D4000000 		.4byte	.LFE10
 6900 0080 00000000 		.4byte	.LFB11
 6901 0084 F4000000 		.4byte	.LFE11
 6902 0088 00000000 		.4byte	.LFB12
 6903 008c DA050000 		.4byte	.LFE12
 6904 0090 00000000 		.4byte	.LFB13
 6905 0094 9C020000 		.4byte	.LFE13
 6906 0098 00000000 		.4byte	.LFB14
 6907 009c A8000000 		.4byte	.LFE14
 6908 00a0 00000000 		.4byte	.LFB15
 6909 00a4 04030000 		.4byte	.LFE15
 6910 00a8 00000000 		.4byte	.LFB16
 6911 00ac A4010000 		.4byte	.LFE16
 6912 00b0 00000000 		.4byte	.LFB17
 6913 00b4 18010000 		.4byte	.LFE17
 6914 00b8 00000000 		.4byte	.LFB18
 6915 00bc 64000000 		.4byte	.LFE18
 6916 00c0 00000000 		.4byte	.LFB19
 6917 00c4 88000000 		.4byte	.LFE19
 6918 00c8 00000000 		.4byte	.LFB20
 6919 00cc B0000000 		.4byte	.LFE20
 6920 00d0 00000000 		.4byte	.LFB21
 6921 00d4 A2000000 		.4byte	.LFE21
 6922 00d8 00000000 		.4byte	.LFB22
 6923 00dc 62010000 		.4byte	.LFE22
 6924 00e0 00000000 		.4byte	0
 6925 00e4 00000000 		.4byte	0
 6926              		.section	.debug_line,"",%progbits
ARM GAS  /tmp/ccKKWSFE.s 			page 123


 6927              	.Ldebug_line0:
 6928 0000 E9060000 		.section	.debug_str,"MS",%progbits,1
 6928      02009A01 
 6928      00000201 
 6928      FB0E0D00 
 6928      01010101 
 6929              	.LASF180:
 6930 0000 7463705F 		.ascii	"tcp_write_checks\000"
 6930      77726974 
 6930      655F6368 
 6930      65636B73 
 6930      00
 6931              	.LASF173:
 6932 0011 6C617965 		.ascii	"layer\000"
 6932      7200
 6933              	.LASF129:
 6934 0017 4D454D50 		.ascii	"MEMP_TCP_PCB_LISTEN\000"
 6934      5F544350 
 6934      5F504342 
 6934      5F4C4953 
 6934      54454E00 
 6935              	.LASF203:
 6936 002b 7463705F 		.ascii	"tcp_keepalive\000"
 6936      6B656570 
 6936      616C6976 
 6936      6500
 6937              	.LASF59:
 6938 0039 736F5F6F 		.ascii	"so_options\000"
 6938      7074696F 
 6938      6E7300
 6939              	.LASF45:
 6940 0044 696E7075 		.ascii	"input\000"
 6940      7400
 6941              	.LASF176:
 6942 004a 6F766572 		.ascii	"oversize\000"
 6942      73697A65 
 6942      00
 6943              	.LASF30:
 6944 0053 50425546 		.ascii	"PBUF_RAM\000"
 6944      5F52414D 
 6944      00
 6945              	.LASF125:
 6946 005c 75726770 		.ascii	"urgp\000"
 6946      00
 6947              	.LASF189:
 6948 0061 756E7365 		.ascii	"unsent_optlen\000"
 6948      6E745F6F 
 6948      70746C65 
 6948      6E00
 6949              	.LASF69:
 6950 006f 706F6C6C 		.ascii	"polltmr\000"
 6950      746D7200 
 6951              	.LASF28:
 6952 0077 50425546 		.ascii	"PBUF_RAW\000"
 6952      5F524157 
 6952      00
 6953              	.LASF38:
ARM GAS  /tmp/ccKKWSFE.s 			page 124


 6954 0080 666C6167 		.ascii	"flags\000"
 6954      7300
 6955              	.LASF172:
 6956 0086 7463705F 		.ascii	"tcp_pbuf_prealloc\000"
 6956      70627566 
 6956      5F707265 
 6956      616C6C6F 
 6956      6300
 6957              	.LASF116:
 6958 0098 54494D45 		.ascii	"TIME_WAIT\000"
 6958      5F574149 
 6958      5400
 6959              	.LASF0:
 6960 00a2 756E7369 		.ascii	"unsigned int\000"
 6960      676E6564 
 6960      20696E74 
 6960      00
 6961              	.LASF105:
 6962 00af 7463705F 		.ascii	"tcp_connected_fn\000"
 6962      636F6E6E 
 6962      65637465 
 6962      645F666E 
 6962      00
 6963              	.LASF34:
 6964 00c0 6E657874 		.ascii	"next\000"
 6964      00
 6965              	.LASF204:
 6966 00c5 7463705F 		.ascii	"tcp_zero_window_probe\000"
 6966      7A65726F 
 6966      5F77696E 
 6966      646F775F 
 6966      70726F62 
 6967              	.LASF23:
 6968 00db 6572725F 		.ascii	"err_t\000"
 6968      7400
 6969              	.LASF47:
 6970 00e1 6C696E6B 		.ascii	"linkoutput\000"
 6970      6F757470 
 6970      757400
 6971              	.LASF201:
 6972 00ec 7463705F 		.ascii	"tcp_rexmit\000"
 6972      7265786D 
 6972      697400
 6973              	.LASF18:
 6974 00f7 7531365F 		.ascii	"u16_t\000"
 6974      7400
 6975              	.LASF211:
 6976 00fd 2E2E2F2E 		.ascii	"../../ext/lwip/src/core/tcp_out.c\000"
 6976      2E2F6578 
 6976      742F6C77 
 6976      69702F73 
 6976      72632F63 
 6977              	.LASF68:
 6978 011f 7263765F 		.ascii	"rcv_ann_right_edge\000"
 6978      616E6E5F 
 6978      72696768 
 6978      745F6564 
ARM GAS  /tmp/ccKKWSFE.s 			page 125


 6978      676500
 6979              	.LASF187:
 6980 0132 6F766572 		.ascii	"oversize_used\000"
 6980      73697A65 
 6980      5F757365 
 6980      6400
 6981              	.LASF151:
 6982 0140 73746174 		.ascii	"stats_mem\000"
 6982      735F6D65 
 6982      6D00
 6983              	.LASF165:
 6984 014a 6F70746C 		.ascii	"optlen\000"
 6984      656E00
 6985              	.LASF53:
 6986 0151 6E657469 		.ascii	"netif_output_fn\000"
 6986      665F6F75 
 6986      74707574 
 6986      5F666E00 
 6987              	.LASF100:
 6988 0161 6B656570 		.ascii	"keep_cnt_sent\000"
 6988      5F636E74 
 6988      5F73656E 
 6988      7400
 6989              	.LASF139:
 6990 016f 4D454D50 		.ascii	"MEMP_PBUF_POOL\000"
 6990      5F504255 
 6990      465F504F 
 6990      4F4C00
 6991              	.LASF209:
 6992 017e 6C776970 		.ascii	"lwip_stats\000"
 6992      5F737461 
 6992      747300
 6993              	.LASF102:
 6994 0189 7463705F 		.ascii	"tcp_sent_fn\000"
 6994      73656E74 
 6994      5F666E00 
 6995              	.LASF25:
 6996 0195 50425546 		.ascii	"PBUF_TRANSPORT\000"
 6996      5F545241 
 6996      4E53504F 
 6996      525400
 6997              	.LASF193:
 6998 01a4 7463705F 		.ascii	"tcp_enqueue_flags\000"
 6998      656E7175 
 6998      6575655F 
 6998      666C6167 
 6998      7300
 6999              	.LASF155:
 7000 01b6 73746174 		.ascii	"stats_syselem\000"
 7000      735F7379 
 7000      73656C65 
 7000      6D00
 7001              	.LASF121:
 7002 01c4 7365716E 		.ascii	"seqno\000"
 7002      6F00
 7003              	.LASF52:
 7004 01ca 6E657469 		.ascii	"netif_input_fn\000"
ARM GAS  /tmp/ccKKWSFE.s 			page 126


 7004      665F696E 
 7004      7075745F 
 7004      666E00
 7005              	.LASF11:
 7006 01d9 75696E74 		.ascii	"uint32_t\000"
 7006      33325F74 
 7006      00
 7007              	.LASF2:
 7008 01e2 696E7438 		.ascii	"int8_t\000"
 7008      5F7400
 7009              	.LASF77:
 7010 01e9 63776E64 		.ascii	"cwnd\000"
 7010      00
 7011              	.LASF135:
 7012 01ee 4D454D50 		.ascii	"MEMP_TCPIP_MSG_API\000"
 7012      5F544350 
 7012      49505F4D 
 7012      53475F41 
 7012      504900
 7013              	.LASF149:
 7014 0201 6F707465 		.ascii	"opterr\000"
 7014      727200
 7015              	.LASF63:
 7016 0208 6C6F6361 		.ascii	"local_port\000"
 7016      6C5F706F 
 7016      727400
 7017              	.LASF157:
 7018 0213 6D757465 		.ascii	"mutex\000"
 7018      7800
 7019              	.LASF162:
 7020 0219 69705F66 		.ascii	"ip_frag\000"
 7020      72616700 
 7021              	.LASF154:
 7022 0221 696C6C65 		.ascii	"illegal\000"
 7022      67616C00 
 7023              	.LASF5:
 7024 0229 696E7431 		.ascii	"int16_t\000"
 7024      365F7400 
 7025              	.LASF205:
 7026 0231 69735F66 		.ascii	"is_fin\000"
 7026      696E00
 7027              	.LASF50:
 7028 0238 68776164 		.ascii	"hwaddr\000"
 7028      647200
 7029              	.LASF161:
 7030 023f 65746861 		.ascii	"etharp\000"
 7030      727000
 7031              	.LASF117:
 7032 0246 7463705F 		.ascii	"tcp_seg\000"
 7032      73656700 
 7033              	.LASF14:
 7034 024e 6C6F6E67 		.ascii	"long long unsigned int\000"
 7034      206C6F6E 
 7034      6720756E 
 7034      7369676E 
 7034      65642069 
 7035              	.LASF212:
ARM GAS  /tmp/ccKKWSFE.s 			page 127


 7036 0265 2F686F6D 		.ascii	"/home/texzk/ChibiStudio/chibios/demos/ARMCM3-STM32F"
 7036      652F7465 
 7036      787A6B2F 
 7036      43686962 
 7036      69537475 
 7037 0298 3230372D 		.ascii	"207-STM3220G-LWIP\000"
 7037      53544D33 
 7037      32323047 
 7037      2D4C5749 
 7037      5000
 7038              	.LASF200:
 7039 02aa 7463705F 		.ascii	"tcp_rexmit_rto\000"
 7039      7265786D 
 7039      69745F72 
 7039      746F00
 7040              	.LASF213:
 7041 02b9 7463705F 		.ascii	"tcp_state\000"
 7041      73746174 
 7041      6500
 7042              	.LASF71:
 7043 02c3 7274696D 		.ascii	"rtime\000"
 7043      6500
 7044              	.LASF49:
 7045 02c9 68776164 		.ascii	"hwaddr_len\000"
 7045      64725F6C 
 7045      656E00
 7046              	.LASF65:
 7047 02d4 7263765F 		.ascii	"rcv_nxt\000"
 7047      6E787400 
 7048              	.LASF136:
 7049 02dc 4D454D50 		.ascii	"MEMP_TCPIP_MSG_INPKT\000"
 7049      5F544350 
 7049      49505F4D 
 7049      53475F49 
 7049      4E504B54 
 7050              	.LASF32:
 7051 02f1 50425546 		.ascii	"PBUF_REF\000"
 7051      5F524546 
 7051      00
 7052              	.LASF89:
 7053 02fa 756E6163 		.ascii	"unacked\000"
 7053      6B656400 
 7054              	.LASF194:
 7055 0302 75736567 		.ascii	"useg\000"
 7055      00
 7056              	.LASF159:
 7057 0307 73746174 		.ascii	"stats_\000"
 7057      735F00
 7058              	.LASF206:
 7059 030e 74686472 		.ascii	"thdr\000"
 7059      00
 7060              	.LASF115:
 7061 0313 4C415354 		.ascii	"LAST_ACK\000"
 7061      5F41434B 
 7061      00
 7062              	.LASF36:
 7063 031c 746F745F 		.ascii	"tot_len\000"
ARM GAS  /tmp/ccKKWSFE.s 			page 128


 7063      6C656E00 
 7064              	.LASF35:
 7065 0324 7061796C 		.ascii	"payload\000"
 7065      6F616400 
 7066              	.LASF26:
 7067 032c 50425546 		.ascii	"PBUF_IP\000"
 7067      5F495000 
 7068              	.LASF46:
 7069 0334 6F757470 		.ascii	"output\000"
 7069      757400
 7070              	.LASF94:
 7071 033b 636F6E6E 		.ascii	"connected\000"
 7071      65637465 
 7071      6400
 7072              	.LASF214:
 7073 0345 7463705F 		.ascii	"tcp_output_segment\000"
 7073      6F757470 
 7073      75745F73 
 7073      65676D65 
 7073      6E7400
 7074              	.LASF39:
 7075 0358 70627566 		.ascii	"pbuf\000"
 7075      00
 7076              	.LASF33:
 7077 035d 50425546 		.ascii	"PBUF_POOL\000"
 7077      5F504F4F 
 7077      4C00
 7078              	.LASF114:
 7079 0367 434C4F53 		.ascii	"CLOSING\000"
 7079      494E4700 
 7080              	.LASF178:
 7081 036f 66697273 		.ascii	"first_seg\000"
 7081      745F7365 
 7081      6700
 7082              	.LASF75:
 7083 0379 6C617374 		.ascii	"lastack\000"
 7083      61636B00 
 7084              	.LASF140:
 7085 0381 4D454D50 		.ascii	"MEMP_MAX\000"
 7085      5F4D4158 
 7085      00
 7086              	.LASF17:
 7087 038a 73385F74 		.ascii	"s8_t\000"
 7087      00
 7088              	.LASF21:
 7089 038f 7333325F 		.ascii	"s32_t\000"
 7089      7400
 7090              	.LASF134:
 7091 0395 4D454D50 		.ascii	"MEMP_NETCONN\000"
 7091      5F4E4554 
 7091      434F4E4E 
 7091      00
 7092              	.LASF196:
 7093 03a2 7463705F 		.ascii	"tcp_output\000"
 7093      6F757470 
 7093      757400
 7094              	.LASF55:
ARM GAS  /tmp/ccKKWSFE.s 			page 129


 7095 03ad 7463705F 		.ascii	"tcp_accept_fn\000"
 7095      61636365 
 7095      70745F66 
 7095      6E00
 7096              	.LASF160:
 7097 03bb 6C696E6B 		.ascii	"link\000"
 7097      00
 7098              	.LASF73:
 7099 03c0 72747365 		.ascii	"rtseq\000"
 7099      7100
 7100              	.LASF76:
 7101 03c6 64757061 		.ascii	"dupacks\000"
 7101      636B7300 
 7102              	.LASF60:
 7103 03ce 7072696F 		.ascii	"prio\000"
 7103      00
 7104              	.LASF62:
 7105 03d3 61636365 		.ascii	"accept\000"
 7105      707400
 7106              	.LASF138:
 7107 03da 4D454D50 		.ascii	"MEMP_PBUF\000"
 7107      5F504255 
 7107      4600
 7108              	.LASF95:
 7109 03e4 706F6C6C 		.ascii	"poll\000"
 7109      00
 7110              	.LASF15:
 7111 03e9 63686172 		.ascii	"char\000"
 7111      00
 7112              	.LASF168:
 7113 03ee 6C617374 		.ascii	"last_unsent\000"
 7113      5F756E73 
 7113      656E7400 
 7114              	.LASF24:
 7115 03fa 6D656D5F 		.ascii	"mem_size_t\000"
 7115      73697A65 
 7115      5F7400
 7116              	.LASF141:
 7117 0405 73746174 		.ascii	"stats_proto\000"
 7117      735F7072 
 7117      6F746F00 
 7118              	.LASF84:
 7119 0411 61636B65 		.ascii	"acked\000"
 7119      6400
 7120              	.LASF113:
 7121 0417 434C4F53 		.ascii	"CLOSE_WAIT\000"
 7121      455F5741 
 7121      495400
 7122              	.LASF210:
 7123 0422 474E5520 		.ascii	"GNU C 4.6.2 20120613 (release) [ARM/embedded-4_6-br"
 7123      4320342E 
 7123      362E3220 
 7123      32303132 
 7123      30363133 
 7124 0455 616E6368 		.ascii	"anch revision 188521]\000"
 7124      20726576 
 7124      6973696F 
ARM GAS  /tmp/ccKKWSFE.s 			page 130


 7124      6E203138 
 7124      38353231 
 7125              	.LASF188:
 7126 046b 73706163 		.ascii	"space\000"
 7126      6500
 7127              	.LASF92:
 7128 0471 73656E74 		.ascii	"sent\000"
 7128      00
 7129              	.LASF3:
 7130 0476 75696E74 		.ascii	"uint8_t\000"
 7130      385F7400 
 7131              	.LASF81:
 7132 047e 736E645F 		.ascii	"snd_wl1\000"
 7132      776C3100 
 7133              	.LASF82:
 7134 0486 736E645F 		.ascii	"snd_wl2\000"
 7134      776C3200 
 7135              	.LASF104:
 7136 048e 7463705F 		.ascii	"tcp_err_fn\000"
 7136      6572725F 
 7136      666E00
 7137              	.LASF83:
 7138 0499 736E645F 		.ascii	"snd_lbb\000"
 7138      6C626200 
 7139              	.LASF133:
 7140 04a1 4D454D50 		.ascii	"MEMP_NETBUF\000"
 7140      5F4E4554 
 7140      42554600 
 7141              	.LASF44:
 7142 04ad 6E65746D 		.ascii	"netmask\000"
 7142      61736B00 
 7143              	.LASF13:
 7144 04b5 6C6F6E67 		.ascii	"long long int\000"
 7144      206C6F6E 
 7144      6720696E 
 7144      7400
 7145              	.LASF122:
 7146 04c3 61636B6E 		.ascii	"ackno\000"
 7146      6F00
 7147              	.LASF207:
 7148 04c9 7463705F 		.ascii	"tcp_input_pcb\000"
 7148      696E7075 
 7148      745F7063 
 7148      6200
 7149              	.LASF99:
 7150 04d7 70657273 		.ascii	"persist_backoff\000"
 7150      6973745F 
 7150      6261636B 
 7150      6F666600 
 7151              	.LASF128:
 7152 04e7 4D454D50 		.ascii	"MEMP_TCP_PCB\000"
 7152      5F544350 
 7152      5F504342 
 7152      00
 7153              	.LASF164:
 7154 04f4 6D656D70 		.ascii	"memp\000"
 7154      00
ARM GAS  /tmp/ccKKWSFE.s 			page 131


 7155              	.LASF16:
 7156 04f9 75385F74 		.ascii	"u8_t\000"
 7156      00
 7157              	.LASF171:
 7158 04fe 6F707466 		.ascii	"optflags\000"
 7158      6C616773 
 7158      00
 7159              	.LASF64:
 7160 0507 72656D6F 		.ascii	"remote_port\000"
 7160      74655F70 
 7160      6F727400 
 7161              	.LASF153:
 7162 0513 75736564 		.ascii	"used\000"
 7162      00
 7163              	.LASF192:
 7164 0518 6D61785F 		.ascii	"max_len\000"
 7164      6C656E00 
 7165              	.LASF67:
 7166 0520 7263765F 		.ascii	"rcv_ann_wnd\000"
 7166      616E6E5F 
 7166      776E6400 
 7167              	.LASF144:
 7168 052c 63686B65 		.ascii	"chkerr\000"
 7168      727200
 7169              	.LASF131:
 7170 0533 4D454D50 		.ascii	"MEMP_REASSDATA\000"
 7170      5F524541 
 7170      53534441 
 7170      544100
 7171              	.LASF101:
 7172 0542 7463705F 		.ascii	"tcp_recv_fn\000"
 7172      72656376 
 7172      5F666E00 
 7173              	.LASF27:
 7174 054e 50425546 		.ascii	"PBUF_LINK\000"
 7174      5F4C494E 
 7174      4B00
 7175              	.LASF103:
 7176 0558 7463705F 		.ascii	"tcp_poll_fn\000"
 7176      706F6C6C 
 7176      5F666E00 
 7177              	.LASF7:
 7178 0564 75696E74 		.ascii	"uint16_t\000"
 7178      31365F74 
 7178      00
 7179              	.LASF181:
 7180 056d 7463705F 		.ascii	"tcp_send_fin\000"
 7180      73656E64 
 7180      5F66696E 
 7180      00
 7181              	.LASF96:
 7182 057a 65727266 		.ascii	"errf\000"
 7182      00
 7183              	.LASF80:
 7184 057f 736E645F 		.ascii	"snd_wnd\000"
 7184      776E6400 
 7185              	.LASF169:
ARM GAS  /tmp/ccKKWSFE.s 			page 132


 7186 0587 7463705F 		.ascii	"tcp_output_alloc_header\000"
 7186      6F757470 
 7186      75745F61 
 7186      6C6C6F63 
 7186      5F686561 
 7187              	.LASF199:
 7188 059f 7463705F 		.ascii	"tcp_rst\000"
 7188      72737400 
 7189              	.LASF90:
 7190 05a7 6F6F7365 		.ascii	"ooseq\000"
 7190      7100
 7191              	.LASF175:
 7192 05ad 6D61785F 		.ascii	"max_length\000"
 7192      6C656E67 
 7192      746800
 7193              	.LASF106:
 7194 05b8 434C4F53 		.ascii	"CLOSED\000"
 7194      454400
 7195              	.LASF20:
 7196 05bf 7533325F 		.ascii	"u32_t\000"
 7196      7400
 7197              	.LASF179:
 7198 05c5 616C6C6F 		.ascii	"alloc\000"
 7198      6300
 7199              	.LASF6:
 7200 05cb 73686F72 		.ascii	"short int\000"
 7200      7420696E 
 7200      7400
 7201              	.LASF163:
 7202 05d5 69636D70 		.ascii	"icmp\000"
 7202      00
 7203              	.LASF183:
 7204 05da 636F6E63 		.ascii	"concat_p\000"
 7204      61745F70 
 7204      00
 7205              	.LASF10:
 7206 05e3 6C6F6E67 		.ascii	"long int\000"
 7206      20696E74 
 7206      00
 7207              	.LASF147:
 7208 05ec 72746572 		.ascii	"rterr\000"
 7208      7200
 7209              	.LASF152:
 7210 05f2 61766169 		.ascii	"avail\000"
 7210      6C00
 7211              	.LASF174:
 7212 05f8 6C656E67 		.ascii	"length\000"
 7212      746800
 7213              	.LASF88:
 7214 05ff 756E7365 		.ascii	"unsent\000"
 7214      6E7400
 7215              	.LASF66:
 7216 0606 7263765F 		.ascii	"rcv_wnd\000"
 7216      776E6400 
 7217              	.LASF72:
 7218 060e 72747465 		.ascii	"rttest\000"
 7218      737400
ARM GAS  /tmp/ccKKWSFE.s 			page 133


 7219              	.LASF195:
 7220 0615 7463705F 		.ascii	"tcp_send_empty_ack\000"
 7220      73656E64 
 7220      5F656D70 
 7220      74795F61 
 7220      636B00
 7221              	.LASF198:
 7222 0628 6F707473 		.ascii	"opts\000"
 7222      00
 7223              	.LASF170:
 7224 062d 7463705F 		.ascii	"tcp_create_segment\000"
 7224      63726561 
 7224      74655F73 
 7224      65676D65 
 7224      6E7400
 7225              	.LASF137:
 7226 0640 4D454D50 		.ascii	"MEMP_SYS_TIMEOUT\000"
 7226      5F535953 
 7226      5F54494D 
 7226      454F5554 
 7226      00
 7227              	.LASF127:
 7228 0651 4D454D50 		.ascii	"MEMP_UDP_PCB\000"
 7228      5F554450 
 7228      5F504342 
 7228      00
 7229              	.LASF57:
 7230 065e 6C6F6361 		.ascii	"local_ip\000"
 7230      6C5F6970 
 7230      00
 7231              	.LASF166:
 7232 0667 64617461 		.ascii	"datalen\000"
 7232      6C656E00 
 7233              	.LASF158:
 7234 066f 6D626F78 		.ascii	"mbox\000"
 7234      00
 7235              	.LASF87:
 7236 0674 756E7365 		.ascii	"unsent_oversize\000"
 7236      6E745F6F 
 7236      76657273 
 7236      697A6500 
 7237              	.LASF79:
 7238 0684 736E645F 		.ascii	"snd_nxt\000"
 7238      6E787400 
 7239              	.LASF191:
 7240 068c 6C656674 		.ascii	"left\000"
 7240      00
 7241              	.LASF22:
 7242 0691 6D656D5F 		.ascii	"mem_ptr_t\000"
 7242      7074725F 
 7242      7400
 7243              	.LASF110:
 7244 069b 45535441 		.ascii	"ESTABLISHED\000"
 7244      424C4953 
 7244      48454400 
 7245              	.LASF150:
 7246 06a7 63616368 		.ascii	"cachehit\000"
ARM GAS  /tmp/ccKKWSFE.s 			page 134


 7246      65686974 
 7246      00
 7247              	.LASF51:
 7248 06b0 6E616D65 		.ascii	"name\000"
 7248      00
 7249              	.LASF54:
 7250 06b5 6E657469 		.ascii	"netif_linkoutput_fn\000"
 7250      665F6C69 
 7250      6E6B6F75 
 7250      74707574 
 7250      5F666E00 
 7251              	.LASF132:
 7252 06c9 4D454D50 		.ascii	"MEMP_FRAG_PBUF\000"
 7252      5F465241 
 7252      475F5042 
 7252      554600
 7253              	.LASF78:
 7254 06d8 73737468 		.ascii	"ssthresh\000"
 7254      72657368 
 7254      00
 7255              	.LASF85:
 7256 06e1 736E645F 		.ascii	"snd_buf\000"
 7256      62756600 
 7257              	.LASF70:
 7258 06e9 706F6C6C 		.ascii	"pollinterval\000"
 7258      696E7465 
 7258      7276616C 
 7258      00
 7259              	.LASF126:
 7260 06f6 4D454D50 		.ascii	"MEMP_RAW_PCB\000"
 7260      5F524157 
 7260      5F504342 
 7260      00
 7261              	.LASF123:
 7262 0703 5F686472 		.ascii	"_hdrlen_rsvd_flags\000"
 7262      6C656E5F 
 7262      72737664 
 7262      5F666C61 
 7262      677300
 7263              	.LASF145:
 7264 0716 6C656E65 		.ascii	"lenerr\000"
 7264      727200
 7265              	.LASF12:
 7266 071d 6C6F6E67 		.ascii	"long unsigned int\000"
 7266      20756E73 
 7266      69676E65 
 7266      6420696E 
 7266      7400
 7267              	.LASF208:
 7268 072f 7463705F 		.ascii	"tcp_ticks\000"
 7268      7469636B 
 7268      7300
 7269              	.LASF118:
 7270 0739 74637068 		.ascii	"tcphdr\000"
 7270      647200
 7271              	.LASF19:
 7272 0740 7331365F 		.ascii	"s16_t\000"
ARM GAS  /tmp/ccKKWSFE.s 			page 135


 7272      7400
 7273              	.LASF9:
 7274 0746 696E7433 		.ascii	"int32_t\000"
 7274      325F7400 
 7275              	.LASF29:
 7276 074e 70627566 		.ascii	"pbuf_layer\000"
 7276      5F6C6179 
 7276      657200
 7277              	.LASF177:
 7278 0759 61706966 		.ascii	"apiflags\000"
 7278      6C616773 
 7278      00
 7279              	.LASF91:
 7280 0762 72656675 		.ascii	"refused_data\000"
 7280      7365645F 
 7280      64617461 
 7280      00
 7281              	.LASF185:
 7282 076f 71756575 		.ascii	"queue\000"
 7282      6500
 7283              	.LASF148:
 7284 0775 70726F74 		.ascii	"proterr\000"
 7284      65727200 
 7285              	.LASF184:
 7286 077d 70726576 		.ascii	"prev_seg\000"
 7286      5F736567 
 7286      00
 7287              	.LASF119:
 7288 0786 7463705F 		.ascii	"tcp_hdr\000"
 7288      68647200 
 7289              	.LASF37:
 7290 078e 74797065 		.ascii	"type\000"
 7290      00
 7291              	.LASF156:
 7292 0793 73746174 		.ascii	"stats_sys\000"
 7292      735F7379 
 7292      7300
 7293              	.LASF4:
 7294 079d 756E7369 		.ascii	"unsigned char\000"
 7294      676E6564 
 7294      20636861 
 7294      7200
 7295              	.LASF111:
 7296 07ab 46494E5F 		.ascii	"FIN_WAIT_1\000"
 7296      57414954 
 7296      5F3100
 7297              	.LASF112:
 7298 07b6 46494E5F 		.ascii	"FIN_WAIT_2\000"
 7298      57414954 
 7298      5F3200
 7299              	.LASF146:
 7300 07c1 6D656D65 		.ascii	"memerr\000"
 7300      727200
 7301              	.LASF130:
 7302 07c8 4D454D50 		.ascii	"MEMP_TCP_SEG\000"
 7302      5F544350 
 7302      5F534547 
ARM GAS  /tmp/ccKKWSFE.s 			page 136


 7302      00
 7303              	.LASF167:
 7304 07d5 7365716E 		.ascii	"seqno_be\000"
 7304      6F5F6265 
 7304      00
 7305              	.LASF108:
 7306 07de 53594E5F 		.ascii	"SYN_SENT\000"
 7306      53454E54 
 7306      00
 7307              	.LASF97:
 7308 07e7 6B656570 		.ascii	"keep_idle\000"
 7308      5F69646C 
 7308      6500
 7309              	.LASF61:
 7310 07f1 63616C6C 		.ascii	"callback_arg\000"
 7310      6261636B 
 7310      5F617267 
 7310      00
 7311              	.LASF107:
 7312 07fe 4C495354 		.ascii	"LISTEN\000"
 7312      454E00
 7313              	.LASF41:
 7314 0805 61646472 		.ascii	"addr\000"
 7314      00
 7315              	.LASF143:
 7316 080a 64726F70 		.ascii	"drop\000"
 7316      00
 7317              	.LASF48:
 7318 080f 73746174 		.ascii	"state\000"
 7318      6500
 7319              	.LASF43:
 7320 0815 6E657469 		.ascii	"netif\000"
 7320      6600
 7321              	.LASF86:
 7322 081b 736E645F 		.ascii	"snd_queuelen\000"
 7322      71756575 
 7322      656C656E 
 7322      00
 7323              	.LASF124:
 7324 0828 63686B73 		.ascii	"chksum\000"
 7324      756D00
 7325              	.LASF182:
 7326 082f 7463705F 		.ascii	"tcp_write\000"
 7326      77726974 
 7326      6500
 7327              	.LASF93:
 7328 0839 72656376 		.ascii	"recv\000"
 7328      00
 7329              	.LASF1:
 7330 083e 7369676E 		.ascii	"signed char\000"
 7330      65642063 
 7330      68617200 
 7331              	.LASF56:
 7332 084a 7463705F 		.ascii	"tcp_pcb\000"
 7332      70636200 
 7333              	.LASF8:
 7334 0852 73686F72 		.ascii	"short unsigned int\000"
ARM GAS  /tmp/ccKKWSFE.s 			page 137


 7334      7420756E 
 7334      7369676E 
 7334      65642069 
 7334      6E7400
 7335              	.LASF190:
 7336 0865 7365676C 		.ascii	"seglen\000"
 7336      656E00
 7337              	.LASF197:
 7338 086c 6375725F 		.ascii	"cur_seg\000"
 7338      73656700 
 7339              	.LASF186:
 7340 0874 71756575 		.ascii	"queuelen\000"
 7340      656C656E 
 7340      00
 7341              	.LASF142:
 7342 087d 786D6974 		.ascii	"xmit\000"
 7342      00
 7343              	.LASF98:
 7344 0882 70657273 		.ascii	"persist_cnt\000"
 7344      6973745F 
 7344      636E7400 
 7345              	.LASF58:
 7346 088e 72656D6F 		.ascii	"remote_ip\000"
 7346      74655F69 
 7346      7000
 7347              	.LASF202:
 7348 0898 7463705F 		.ascii	"tcp_rexmit_fast\000"
 7348      7265786D 
 7348      69745F66 
 7348      61737400 
 7349              	.LASF42:
 7350 08a8 69705F61 		.ascii	"ip_addr_t\000"
 7350      6464725F 
 7350      7400
 7351              	.LASF31:
 7352 08b2 50425546 		.ascii	"PBUF_ROM\000"
 7352      5F524F4D 
 7352      00
 7353              	.LASF74:
 7354 08bb 6E727478 		.ascii	"nrtx\000"
 7354      00
 7355              	.LASF120:
 7356 08c0 64657374 		.ascii	"dest\000"
 7356      00
 7357              	.LASF109:
 7358 08c5 53594E5F 		.ascii	"SYN_RCVD\000"
 7358      52435644 
 7358      00
 7359              	.LASF40:
 7360 08ce 69705F61 		.ascii	"ip_addr\000"
 7360      64647200 
 7361              		.ident	"GCC: (GNU Tools for ARM Embedded Processors) 4.6.2 20120613 (release) [ARM/embedded-4_6-br
ARM GAS  /tmp/ccKKWSFE.s 			page 138


DEFINED SYMBOLS
                            *ABS*:00000000 tcp_out.c
     /tmp/ccKKWSFE.s:19     .text.tcp_output_alloc_header:00000000 $t
     /tmp/ccKKWSFE.s:24     .text.tcp_output_alloc_header:00000000 tcp_output_alloc_header
     /tmp/ccKKWSFE.s:162    .text.tcp_send_fin:00000000 $t
     /tmp/ccKKWSFE.s:168    .text.tcp_send_fin:00000000 tcp_send_fin
     /tmp/ccKKWSFE.s:1488   .text.tcp_enqueue_flags:00000000 tcp_enqueue_flags
     /tmp/ccKKWSFE.s:250    .text.tcp_create_segment:00000000 $t
     /tmp/ccKKWSFE.s:255    .text.tcp_create_segment:00000000 tcp_create_segment
     /tmp/ccKKWSFE.s:428    .text.tcp_pbuf_prealloc:00000000 $t
     /tmp/ccKKWSFE.s:433    .text.tcp_pbuf_prealloc:00000000 tcp_pbuf_prealloc
     /tmp/ccKKWSFE.s:553    .text.tcp_write_checks:00000000 $t
     /tmp/ccKKWSFE.s:558    .text.tcp_write_checks:00000000 tcp_write_checks
     /tmp/ccKKWSFE.s:703    .text.tcp_write:00000000 $t
     /tmp/ccKKWSFE.s:709    .text.tcp_write:00000000 tcp_write
     /tmp/ccKKWSFE.s:1482   .text.tcp_enqueue_flags:00000000 $t
     /tmp/ccKKWSFE.s:1819   .text.tcp_send_empty_ack:00000000 $t
     /tmp/ccKKWSFE.s:1825   .text.tcp_send_empty_ack:00000000 tcp_send_empty_ack
     /tmp/ccKKWSFE.s:1922   .text.tcp_output:00000000 $t
     /tmp/ccKKWSFE.s:1928   .text.tcp_output:00000000 tcp_output
     /tmp/ccKKWSFE.s:2378   .text.tcp_output_segment:00000000 tcp_output_segment
     /tmp/ccKKWSFE.s:2373   .text.tcp_output_segment:00000000 $t
     /tmp/ccKKWSFE.s:2610   .text.tcp_rst:00000000 $t
     /tmp/ccKKWSFE.s:2616   .text.tcp_rst:00000000 tcp_rst
     /tmp/ccKKWSFE.s:2760   .text.tcp_rexmit_rto:00000000 $t
     /tmp/ccKKWSFE.s:2766   .text.tcp_rexmit_rto:00000000 tcp_rexmit_rto
     /tmp/ccKKWSFE.s:2842   .text.tcp_rexmit:00000000 $t
     /tmp/ccKKWSFE.s:2848   .text.tcp_rexmit:00000000 tcp_rexmit
     /tmp/ccKKWSFE.s:2946   .text.tcp_rexmit_fast:00000000 $t
     /tmp/ccKKWSFE.s:2952   .text.tcp_rexmit_fast:00000000 tcp_rexmit_fast
     /tmp/ccKKWSFE.s:3049   .text.tcp_keepalive:00000000 $t
     /tmp/ccKKWSFE.s:3055   .text.tcp_keepalive:00000000 tcp_keepalive
     /tmp/ccKKWSFE.s:3145   .text.tcp_zero_window_probe:00000000 $t
     /tmp/ccKKWSFE.s:3151   .text.tcp_zero_window_probe:00000000 tcp_zero_window_probe
                     .debug_frame:00000010 $d

UNDEFINED SYMBOLS
pbuf_alloc
port_halt
lwip_htons
lwip_htonl
lwip_ntohs
memp_malloc
pbuf_free
pbuf_header
lwip_stats
tcp_seg_free
memcpy
pbuf_clen
pbuf_cat
tcp_segs_free
inet_chksum_pseudo
ip_output
tcp_input_pcb
lwip_ntohl
ip_route
tcp_ticks
ARM GAS  /tmp/ccKKWSFE.s 			page 139


pbuf_copy_partial
