ARM GAS  /tmp/ccVdJZXA.s 			page 1


   1              		.syntax unified
   2              		.cpu cortex-m3
   3              		.fpu softvfp
   4              		.eabi_attribute 20, 1
   5              		.eabi_attribute 21, 1
   6              		.eabi_attribute 23, 3
   7              		.eabi_attribute 24, 1
   8              		.eabi_attribute 25, 1
   9              		.eabi_attribute 26, 1
  10              		.eabi_attribute 30, 6
  11              		.eabi_attribute 34, 1
  12              		.eabi_attribute 18, 4
  13              		.thumb
  14              		.file	"testbmk.c"
  15              		.text
  16              	.Ltext0:
  17              		.cfi_sections	.debug_frame
  18              		.section	.bss.sem1,"aw",%nobits
  19              		.align	2
  20              		.type	sem1, %object
  21              		.size	sem1, 12
  22              	sem1:
  23 0000 00000000 		.space	12
  23      00000000 
  23      00000000 
  24              		.section	.bss.mtx1,"aw",%nobits
  25              		.align	2
  26              		.type	mtx1, %object
  27              		.size	mtx1, 16
  28              	mtx1:
  29 0000 00000000 		.space	16
  29      00000000 
  29      00000000 
  29      00000000 
  30              		.section	.text.thread1,"ax",%progbits
  31              		.align	2
  32              		.p2align 4,,15
  33              		.thumb
  34              		.thumb_func
  35              		.type	thread1, %function
  36              	thread1:
  37              	.LFB7:
  38              		.file 1 "../../test/testbmk.c"
  39              		.loc 1 68 0
  40              		.cfi_startproc
  41              		@ args = 0, pretend = 0, frame = 16
  42              		@ frame_needed = 0, uses_anonymous_args = 0
  43 0000 00B5     		push	{lr}
  44              	.LCFI0:
  45              		.cfi_def_cfa_offset 4
  46              		.cfi_offset 14, -4
  47 0002 85B0     		sub	sp, sp, #20
  48              	.LCFI1:
  49              		.cfi_def_cfa_offset 24
  50 0004 0190     		str	r0, [sp, #4]
  51              	.L2:
  52              		.loc 1 74 0 discriminator 1
ARM GAS  /tmp/ccVdJZXA.s 			page 2


  53 0006 FFF7FEFF 		bl	chMsgWait
  54 000a 0346     		mov	r3, r0
  55 000c 0393     		str	r3, [sp, #12]
  56              		.loc 1 75 0 discriminator 1
  57 000e 039B     		ldr	r3, [sp, #12]
  58 0010 9B6B     		ldr	r3, [r3, #56]
  59 0012 0293     		str	r3, [sp, #8]
  60              		.loc 1 76 0 discriminator 1
  61 0014 0398     		ldr	r0, [sp, #12]
  62 0016 0299     		ldr	r1, [sp, #8]
  63 0018 FFF7FEFF 		bl	chMsgRelease
  64              		.loc 1 77 0 discriminator 1
  65 001c 029B     		ldr	r3, [sp, #8]
  66 001e 002B     		cmp	r3, #0
  67 0020 F1D1     		bne	.L2
  68              		.loc 1 78 0
  69 0022 4FF00003 		mov	r3, #0
  70              		.loc 1 79 0
  71 0026 1846     		mov	r0, r3
  72 0028 05B0     		add	sp, sp, #20
  73 002a 00BD     		pop	{pc}
  74              		.cfi_endproc
  75              	.LFE7:
  76              		.size	thread1, .-thread1
  77 002c AFF30080 		.section	.text.msg_loop_test,"ax",%progbits
  78              		.align	2
  79              		.p2align 4,,15
  80              		.thumb
  81              		.thumb_func
  82              		.type	msg_loop_test, %function
  83              	msg_loop_test:
  84              	.LFB8:
  85              		.loc 1 84 0
  86              		.cfi_startproc
  87              		@ args = 0, pretend = 0, frame = 16
  88              		@ frame_needed = 0, uses_anonymous_args = 0
  89 0000 00B5     		push	{lr}
  90              	.LCFI2:
  91              		.cfi_def_cfa_offset 4
  92              		.cfi_offset 14, -4
  93 0002 85B0     		sub	sp, sp, #20
  94              	.LCFI3:
  95              		.cfi_def_cfa_offset 24
  96 0004 0190     		str	r0, [sp, #4]
  97              		.loc 1 86 0
  98 0006 4FF00003 		mov	r3, #0
  99 000a 0393     		str	r3, [sp, #12]
 100              		.loc 1 87 0
 101 000c FFF7FEFF 		bl	test_wait_tick
 102              		.loc 1 88 0
 103 0010 4FF47A70 		mov	r0, #1000
 104 0014 FFF7FEFF 		bl	test_start_timer
 105              	.L4:
 106              		.loc 1 90 0 discriminator 1
 107 0018 0198     		ldr	r0, [sp, #4]
 108 001a 4FF00101 		mov	r1, #1
 109 001e FFF7FEFF 		bl	chMsgSend
ARM GAS  /tmp/ccVdJZXA.s 			page 3


 110              		.loc 1 91 0 discriminator 1
 111 0022 039B     		ldr	r3, [sp, #12]
 112 0024 03F10103 		add	r3, r3, #1
 113 0028 0393     		str	r3, [sp, #12]
 114              		.loc 1 95 0 discriminator 1
 115 002a 40F20003 		movw	r3, #:lower16:test_timer_done
 116 002e C0F20003 		movt	r3, #:upper16:test_timer_done
 117 0032 1B68     		ldr	r3, [r3, #0]
 118 0034 002B     		cmp	r3, #0
 119 0036 EFD0     		beq	.L4
 120              		.loc 1 96 0
 121 0038 0198     		ldr	r0, [sp, #4]
 122 003a 4FF00001 		mov	r1, #0
 123 003e FFF7FEFF 		bl	chMsgSend
 124              		.loc 1 97 0
 125 0042 039B     		ldr	r3, [sp, #12]
 126              		.loc 1 98 0
 127 0044 1846     		mov	r0, r3
 128 0046 05B0     		add	sp, sp, #20
 129 0048 00BD     		pop	{pc}
 130              		.cfi_endproc
 131              	.LFE8:
 132              		.size	msg_loop_test, .-msg_loop_test
 133 004a 00BFAFF3 		.section	.rodata
 133      0080
 134              		.align	2
 135              	.LC0:
 136 0000 2D2D2D20 		.ascii	"--- Score : \000"
 136      53636F72 
 136      65203A20 
 136      00
 137 000d 000000   		.align	2
 138              	.LC1:
 139 0010 206D7367 		.ascii	" msgs/S, \000"
 139      732F532C 
 139      2000
 140 001a 0000     		.align	2
 141              	.LC2:
 142 001c 20637478 		.ascii	" ctxswc/S\000"
 142      7377632F 
 142      5300
 143              		.section	.text.bmk1_execute,"ax",%progbits
 144              		.align	2
 145              		.p2align 4,,15
 146              		.thumb
 147              		.thumb_func
 148              		.type	bmk1_execute, %function
 149              	bmk1_execute:
 150              	.LFB9:
 151              		.loc 1 109 0
 152              		.cfi_startproc
 153              		@ args = 0, pretend = 0, frame = 8
 154              		@ frame_needed = 0, uses_anonymous_args = 0
 155 0000 00B5     		push	{lr}
 156              	.LCFI4:
 157              		.cfi_def_cfa_offset 4
 158              		.cfi_offset 14, -4
ARM GAS  /tmp/ccVdJZXA.s 			page 4


 159 0002 85B0     		sub	sp, sp, #20
 160              	.LCFI5:
 161              		.cfi_def_cfa_offset 24
 162              		.loc 1 112 0
 163 0004 40F20003 		movw	r3, #:lower16:wa
 164 0008 C0F20003 		movt	r3, #:upper16:wa
 165 000c 1A68     		ldr	r2, [r3, #0]
 166 000e 40F20003 		movw	r3, #:lower16:rlist
 167 0012 C0F20003 		movt	r3, #:upper16:rlist
 168 0016 9B69     		ldr	r3, [r3, #24]
 169 0018 9B68     		ldr	r3, [r3, #8]
 170 001a 03F1FF33 		add	r3, r3, #-1
 171 001e 4FF00001 		mov	r1, #0
 172 0022 0091     		str	r1, [sp, #0]
 173 0024 1046     		mov	r0, r2
 174 0026 4FF49871 		mov	r1, #304
 175 002a 1A46     		mov	r2, r3
 176 002c 40F20003 		movw	r3, #:lower16:thread1
 177 0030 C0F20003 		movt	r3, #:upper16:thread1
 178 0034 FFF7FEFF 		bl	chThdCreateStatic
 179 0038 0246     		mov	r2, r0
 180 003a 40F20003 		movw	r3, #:lower16:threads
 181 003e C0F20003 		movt	r3, #:upper16:threads
 182 0042 1A60     		str	r2, [r3, #0]
 183              		.loc 1 113 0
 184 0044 40F20003 		movw	r3, #:lower16:threads
 185 0048 C0F20003 		movt	r3, #:upper16:threads
 186 004c 1B68     		ldr	r3, [r3, #0]
 187 004e 1846     		mov	r0, r3
 188 0050 FFF7FEFF 		bl	msg_loop_test
 189 0054 0346     		mov	r3, r0
 190 0056 0393     		str	r3, [sp, #12]
 191              		.loc 1 114 0
 192 0058 FFF7FEFF 		bl	test_wait_threads
 193              		.loc 1 115 0
 194 005c 40F20000 		movw	r0, #:lower16:.LC0
 195 0060 C0F20000 		movt	r0, #:upper16:.LC0
 196 0064 FFF7FEFF 		bl	test_print
 197              		.loc 1 116 0
 198 0068 0398     		ldr	r0, [sp, #12]
 199 006a FFF7FEFF 		bl	test_printn
 200              		.loc 1 117 0
 201 006e 40F20000 		movw	r0, #:lower16:.LC1
 202 0072 C0F20000 		movt	r0, #:upper16:.LC1
 203 0076 FFF7FEFF 		bl	test_print
 204              		.loc 1 118 0
 205 007a 039B     		ldr	r3, [sp, #12]
 206 007c 4FEA4303 		lsl	r3, r3, #1
 207 0080 1846     		mov	r0, r3
 208 0082 FFF7FEFF 		bl	test_printn
 209              		.loc 1 119 0
 210 0086 40F20000 		movw	r0, #:lower16:.LC2
 211 008a C0F20000 		movt	r0, #:upper16:.LC2
 212 008e FFF7FEFF 		bl	test_println
 213              		.loc 1 120 0
 214 0092 05B0     		add	sp, sp, #20
 215 0094 00BD     		pop	{pc}
ARM GAS  /tmp/ccVdJZXA.s 			page 5


 216              		.cfi_endproc
 217              	.LFE9:
 218              		.size	bmk1_execute, .-bmk1_execute
 219              		.global	testbmk1
 220 0096 00BFAFF3 		.section	.rodata
 220      0080AFF3 
 220      0080
 221 0026 0000     		.align	2
 222              	.LC3:
 223 0028 42656E63 		.ascii	"Benchmark, messages #1\000"
 223      686D6172 
 223      6B2C206D 
 223      65737361 
 223      67657320 
 224              		.section	.rodata.testbmk1,"a",%progbits
 225              		.align	2
 226              		.type	testbmk1, %object
 227              		.size	testbmk1, 16
 228              	testbmk1:
 229 0000 28000000 		.word	.LC3
 230 0004 00000000 		.word	0
 231 0008 00000000 		.word	0
 232 000c 00000000 		.word	bmk1_execute
 233              		.section	.text.bmk2_execute,"ax",%progbits
 234              		.align	2
 235              		.p2align 4,,15
 236              		.thumb
 237              		.thumb_func
 238              		.type	bmk2_execute, %function
 239              	bmk2_execute:
 240              	.LFB10:
 241              		.loc 1 138 0
 242              		.cfi_startproc
 243              		@ args = 0, pretend = 0, frame = 8
 244              		@ frame_needed = 0, uses_anonymous_args = 0
 245 0000 00B5     		push	{lr}
 246              	.LCFI6:
 247              		.cfi_def_cfa_offset 4
 248              		.cfi_offset 14, -4
 249 0002 85B0     		sub	sp, sp, #20
 250              	.LCFI7:
 251              		.cfi_def_cfa_offset 24
 252              		.loc 1 141 0
 253 0004 40F20003 		movw	r3, #:lower16:wa
 254 0008 C0F20003 		movt	r3, #:upper16:wa
 255 000c 1A68     		ldr	r2, [r3, #0]
 256 000e 40F20003 		movw	r3, #:lower16:rlist
 257 0012 C0F20003 		movt	r3, #:upper16:rlist
 258 0016 9B69     		ldr	r3, [r3, #24]
 259 0018 9B68     		ldr	r3, [r3, #8]
 260 001a 03F10103 		add	r3, r3, #1
 261 001e 4FF00001 		mov	r1, #0
 262 0022 0091     		str	r1, [sp, #0]
 263 0024 1046     		mov	r0, r2
 264 0026 4FF49871 		mov	r1, #304
 265 002a 1A46     		mov	r2, r3
 266 002c 40F20003 		movw	r3, #:lower16:thread1
ARM GAS  /tmp/ccVdJZXA.s 			page 6


 267 0030 C0F20003 		movt	r3, #:upper16:thread1
 268 0034 FFF7FEFF 		bl	chThdCreateStatic
 269 0038 0246     		mov	r2, r0
 270 003a 40F20003 		movw	r3, #:lower16:threads
 271 003e C0F20003 		movt	r3, #:upper16:threads
 272 0042 1A60     		str	r2, [r3, #0]
 273              		.loc 1 142 0
 274 0044 40F20003 		movw	r3, #:lower16:threads
 275 0048 C0F20003 		movt	r3, #:upper16:threads
 276 004c 1B68     		ldr	r3, [r3, #0]
 277 004e 1846     		mov	r0, r3
 278 0050 FFF7FEFF 		bl	msg_loop_test
 279 0054 0346     		mov	r3, r0
 280 0056 0393     		str	r3, [sp, #12]
 281              		.loc 1 143 0
 282 0058 FFF7FEFF 		bl	test_wait_threads
 283              		.loc 1 144 0
 284 005c 40F20000 		movw	r0, #:lower16:.LC0
 285 0060 C0F20000 		movt	r0, #:upper16:.LC0
 286 0064 FFF7FEFF 		bl	test_print
 287              		.loc 1 145 0
 288 0068 0398     		ldr	r0, [sp, #12]
 289 006a FFF7FEFF 		bl	test_printn
 290              		.loc 1 146 0
 291 006e 40F20000 		movw	r0, #:lower16:.LC1
 292 0072 C0F20000 		movt	r0, #:upper16:.LC1
 293 0076 FFF7FEFF 		bl	test_print
 294              		.loc 1 147 0
 295 007a 039B     		ldr	r3, [sp, #12]
 296 007c 4FEA4303 		lsl	r3, r3, #1
 297 0080 1846     		mov	r0, r3
 298 0082 FFF7FEFF 		bl	test_printn
 299              		.loc 1 148 0
 300 0086 40F20000 		movw	r0, #:lower16:.LC2
 301 008a C0F20000 		movt	r0, #:upper16:.LC2
 302 008e FFF7FEFF 		bl	test_println
 303              		.loc 1 149 0
 304 0092 05B0     		add	sp, sp, #20
 305 0094 00BD     		pop	{pc}
 306              		.cfi_endproc
 307              	.LFE10:
 308              		.size	bmk2_execute, .-bmk2_execute
 309              		.global	testbmk2
 310 0096 00BFAFF3 		.section	.rodata
 310      0080AFF3 
 310      0080
 311 003f 00       		.align	2
 312              	.LC4:
 313 0040 42656E63 		.ascii	"Benchmark, messages #2\000"
 313      686D6172 
 313      6B2C206D 
 313      65737361 
 313      67657320 
 314              		.section	.rodata.testbmk2,"a",%progbits
 315              		.align	2
 316              		.type	testbmk2, %object
 317              		.size	testbmk2, 16
ARM GAS  /tmp/ccVdJZXA.s 			page 7


 318              	testbmk2:
 319 0000 40000000 		.word	.LC4
 320 0004 00000000 		.word	0
 321 0008 00000000 		.word	0
 322 000c 00000000 		.word	bmk2_execute
 323              		.section	.text.thread2,"ax",%progbits
 324              		.align	2
 325              		.p2align 4,,15
 326              		.thumb
 327              		.thumb_func
 328              		.type	thread2, %function
 329              	thread2:
 330              	.LFB11:
 331              		.loc 1 158 0
 332              		.cfi_startproc
 333              		@ args = 0, pretend = 0, frame = 8
 334              		@ frame_needed = 0, uses_anonymous_args = 0
 335              		@ link register save eliminated.
 336 0000 82B0     		sub	sp, sp, #8
 337              	.LCFI8:
 338              		.cfi_def_cfa_offset 8
 339 0002 0190     		str	r0, [sp, #4]
 340              		.loc 1 160 0
 341 0004 019B     		ldr	r3, [sp, #4]
 342              		.loc 1 161 0
 343 0006 1846     		mov	r0, r3
 344 0008 02B0     		add	sp, sp, #8
 345 000a 7047     		bx	lr
 346              		.cfi_endproc
 347              	.LFE11:
 348              		.size	thread2, .-thread2
 349 000c AFF30080 		.section	.text.bmk3_execute,"ax",%progbits
 350              		.align	2
 351              		.p2align 4,,15
 352              		.thumb
 353              		.thumb_func
 354              		.type	bmk3_execute, %function
 355              	bmk3_execute:
 356              	.LFB12:
 357              		.loc 1 173 0
 358              		.cfi_startproc
 359              		@ args = 0, pretend = 0, frame = 8
 360              		@ frame_needed = 0, uses_anonymous_args = 0
 361 0000 00B5     		push	{lr}
 362              	.LCFI9:
 363              		.cfi_def_cfa_offset 4
 364              		.cfi_offset 14, -4
 365 0002 85B0     		sub	sp, sp, #20
 366              	.LCFI10:
 367              		.cfi_def_cfa_offset 24
 368              		.loc 1 176 0
 369 0004 40F20003 		movw	r3, #:lower16:wa
 370 0008 C0F20003 		movt	r3, #:upper16:wa
 371 000c 1A68     		ldr	r2, [r3, #0]
 372 000e 40F20003 		movw	r3, #:lower16:rlist
 373 0012 C0F20003 		movt	r3, #:upper16:rlist
 374 0016 9B69     		ldr	r3, [r3, #24]
ARM GAS  /tmp/ccVdJZXA.s 			page 8


 375 0018 9B68     		ldr	r3, [r3, #8]
 376 001a 03F10103 		add	r3, r3, #1
 377 001e 4FF00001 		mov	r1, #0
 378 0022 0091     		str	r1, [sp, #0]
 379 0024 1046     		mov	r0, r2
 380 0026 4FF49871 		mov	r1, #304
 381 002a 1A46     		mov	r2, r3
 382 002c 40F20003 		movw	r3, #:lower16:thread1
 383 0030 C0F20003 		movt	r3, #:upper16:thread1
 384 0034 FFF7FEFF 		bl	chThdCreateStatic
 385 0038 0246     		mov	r2, r0
 386 003a 40F20003 		movw	r3, #:lower16:threads
 387 003e C0F20003 		movt	r3, #:upper16:threads
 388 0042 1A60     		str	r2, [r3, #0]
 389              		.loc 1 177 0
 390 0044 40F20003 		movw	r3, #:lower16:wa
 391 0048 C0F20003 		movt	r3, #:upper16:wa
 392 004c 5A68     		ldr	r2, [r3, #4]
 393 004e 40F20003 		movw	r3, #:lower16:rlist
 394 0052 C0F20003 		movt	r3, #:upper16:rlist
 395 0056 9B69     		ldr	r3, [r3, #24]
 396 0058 9B68     		ldr	r3, [r3, #8]
 397 005a A3F10203 		sub	r3, r3, #2
 398 005e 4FF00001 		mov	r1, #0
 399 0062 0091     		str	r1, [sp, #0]
 400 0064 1046     		mov	r0, r2
 401 0066 4FF49871 		mov	r1, #304
 402 006a 1A46     		mov	r2, r3
 403 006c 40F20003 		movw	r3, #:lower16:thread2
 404 0070 C0F20003 		movt	r3, #:upper16:thread2
 405 0074 FFF7FEFF 		bl	chThdCreateStatic
 406 0078 0246     		mov	r2, r0
 407 007a 40F20003 		movw	r3, #:lower16:threads
 408 007e C0F20003 		movt	r3, #:upper16:threads
 409 0082 5A60     		str	r2, [r3, #4]
 410              		.loc 1 178 0
 411 0084 40F20003 		movw	r3, #:lower16:wa
 412 0088 C0F20003 		movt	r3, #:upper16:wa
 413 008c 9A68     		ldr	r2, [r3, #8]
 414 008e 40F20003 		movw	r3, #:lower16:rlist
 415 0092 C0F20003 		movt	r3, #:upper16:rlist
 416 0096 9B69     		ldr	r3, [r3, #24]
 417 0098 9B68     		ldr	r3, [r3, #8]
 418 009a A3F10303 		sub	r3, r3, #3
 419 009e 4FF00001 		mov	r1, #0
 420 00a2 0091     		str	r1, [sp, #0]
 421 00a4 1046     		mov	r0, r2
 422 00a6 4FF49871 		mov	r1, #304
 423 00aa 1A46     		mov	r2, r3
 424 00ac 40F20003 		movw	r3, #:lower16:thread2
 425 00b0 C0F20003 		movt	r3, #:upper16:thread2
 426 00b4 FFF7FEFF 		bl	chThdCreateStatic
 427 00b8 0246     		mov	r2, r0
 428 00ba 40F20003 		movw	r3, #:lower16:threads
 429 00be C0F20003 		movt	r3, #:upper16:threads
 430 00c2 9A60     		str	r2, [r3, #8]
 431              		.loc 1 179 0
ARM GAS  /tmp/ccVdJZXA.s 			page 9


 432 00c4 40F20003 		movw	r3, #:lower16:wa
 433 00c8 C0F20003 		movt	r3, #:upper16:wa
 434 00cc DA68     		ldr	r2, [r3, #12]
 435 00ce 40F20003 		movw	r3, #:lower16:rlist
 436 00d2 C0F20003 		movt	r3, #:upper16:rlist
 437 00d6 9B69     		ldr	r3, [r3, #24]
 438 00d8 9B68     		ldr	r3, [r3, #8]
 439 00da A3F10403 		sub	r3, r3, #4
 440 00de 4FF00001 		mov	r1, #0
 441 00e2 0091     		str	r1, [sp, #0]
 442 00e4 1046     		mov	r0, r2
 443 00e6 4FF49871 		mov	r1, #304
 444 00ea 1A46     		mov	r2, r3
 445 00ec 40F20003 		movw	r3, #:lower16:thread2
 446 00f0 C0F20003 		movt	r3, #:upper16:thread2
 447 00f4 FFF7FEFF 		bl	chThdCreateStatic
 448 00f8 0246     		mov	r2, r0
 449 00fa 40F20003 		movw	r3, #:lower16:threads
 450 00fe C0F20003 		movt	r3, #:upper16:threads
 451 0102 DA60     		str	r2, [r3, #12]
 452              		.loc 1 180 0
 453 0104 40F20003 		movw	r3, #:lower16:wa
 454 0108 C0F20003 		movt	r3, #:upper16:wa
 455 010c 1A69     		ldr	r2, [r3, #16]
 456 010e 40F20003 		movw	r3, #:lower16:rlist
 457 0112 C0F20003 		movt	r3, #:upper16:rlist
 458 0116 9B69     		ldr	r3, [r3, #24]
 459 0118 9B68     		ldr	r3, [r3, #8]
 460 011a A3F10503 		sub	r3, r3, #5
 461 011e 4FF00001 		mov	r1, #0
 462 0122 0091     		str	r1, [sp, #0]
 463 0124 1046     		mov	r0, r2
 464 0126 4FF49871 		mov	r1, #304
 465 012a 1A46     		mov	r2, r3
 466 012c 40F20003 		movw	r3, #:lower16:thread2
 467 0130 C0F20003 		movt	r3, #:upper16:thread2
 468 0134 FFF7FEFF 		bl	chThdCreateStatic
 469 0138 0246     		mov	r2, r0
 470 013a 40F20003 		movw	r3, #:lower16:threads
 471 013e C0F20003 		movt	r3, #:upper16:threads
 472 0142 1A61     		str	r2, [r3, #16]
 473              		.loc 1 181 0
 474 0144 40F20003 		movw	r3, #:lower16:threads
 475 0148 C0F20003 		movt	r3, #:upper16:threads
 476 014c 1B68     		ldr	r3, [r3, #0]
 477 014e 1846     		mov	r0, r3
 478 0150 FFF7FEFF 		bl	msg_loop_test
 479 0154 0346     		mov	r3, r0
 480 0156 0393     		str	r3, [sp, #12]
 481              		.loc 1 182 0
 482 0158 FFF7FEFF 		bl	test_wait_threads
 483              		.loc 1 183 0
 484 015c 40F20000 		movw	r0, #:lower16:.LC0
 485 0160 C0F20000 		movt	r0, #:upper16:.LC0
 486 0164 FFF7FEFF 		bl	test_print
 487              		.loc 1 184 0
 488 0168 0398     		ldr	r0, [sp, #12]
ARM GAS  /tmp/ccVdJZXA.s 			page 10


 489 016a FFF7FEFF 		bl	test_printn
 490              		.loc 1 185 0
 491 016e 40F20000 		movw	r0, #:lower16:.LC1
 492 0172 C0F20000 		movt	r0, #:upper16:.LC1
 493 0176 FFF7FEFF 		bl	test_print
 494              		.loc 1 186 0
 495 017a 039B     		ldr	r3, [sp, #12]
 496 017c 4FEA4303 		lsl	r3, r3, #1
 497 0180 1846     		mov	r0, r3
 498 0182 FFF7FEFF 		bl	test_printn
 499              		.loc 1 187 0
 500 0186 40F20000 		movw	r0, #:lower16:.LC2
 501 018a C0F20000 		movt	r0, #:upper16:.LC2
 502 018e FFF7FEFF 		bl	test_println
 503              		.loc 1 188 0
 504 0192 05B0     		add	sp, sp, #20
 505 0194 00BD     		pop	{pc}
 506              		.cfi_endproc
 507              	.LFE12:
 508              		.size	bmk3_execute, .-bmk3_execute
 509              		.global	testbmk3
 510 0196 00BFAFF3 		.section	.rodata
 510      0080AFF3 
 510      0080
 511 0057 00       		.align	2
 512              	.LC5:
 513 0058 42656E63 		.ascii	"Benchmark, messages #3\000"
 513      686D6172 
 513      6B2C206D 
 513      65737361 
 513      67657320 
 514              		.section	.rodata.testbmk3,"a",%progbits
 515              		.align	2
 516              		.type	testbmk3, %object
 517              		.size	testbmk3, 16
 518              	testbmk3:
 519 0000 58000000 		.word	.LC5
 520 0004 00000000 		.word	0
 521 0008 00000000 		.word	0
 522 000c 00000000 		.word	bmk3_execute
 523              		.section	.text.thread4,"ax",%progbits
 524              		.align	2
 525              		.p2align 4,,15
 526              		.global	thread4
 527              		.thumb
 528              		.thumb_func
 529              		.type	thread4, %function
 530              	thread4:
 531              	.LFB13:
 532              		.loc 1 207 0
 533              		.cfi_startproc
 534              		@ args = 0, pretend = 0, frame = 16
 535              		@ frame_needed = 0, uses_anonymous_args = 0
 536 0000 00B5     		push	{lr}
 537              	.LCFI11:
 538              		.cfi_def_cfa_offset 4
 539              		.cfi_offset 14, -4
ARM GAS  /tmp/ccVdJZXA.s 			page 11


 540 0002 85B0     		sub	sp, sp, #20
 541              	.LCFI12:
 542              		.cfi_def_cfa_offset 24
 543 0004 0190     		str	r0, [sp, #4]
 544              		.loc 1 209 0
 545 0006 40F20003 		movw	r3, #:lower16:rlist
 546 000a C0F20003 		movt	r3, #:upper16:rlist
 547 000e 9B69     		ldr	r3, [r3, #24]
 548 0010 0393     		str	r3, [sp, #12]
 549              	.LBB2:
 550              		.loc 1 212 0
 551 0012 4FF02003 		mov	r3, #32
 552              	@ 212 "../../test/testbmk.c" 1
 553 0016 83F31188 		msr     BASEPRI, r3
 554              	@ 0 "" 2
 555              		.thumb
 556              	.LBE2:
 557 001a FFF7FEFF 		bl	dbg_check_lock
 558              	.L10:
 559              		.loc 1 214 0 discriminator 1
 560 001e 4FF00200 		mov	r0, #2
 561 0022 FFF7FEFF 		bl	chSchGoSleepS
 562              		.loc 1 215 0 discriminator 1
 563 0026 039B     		ldr	r3, [sp, #12]
 564 0028 9B6A     		ldr	r3, [r3, #40]
 565 002a 0293     		str	r3, [sp, #8]
 566              		.loc 1 216 0 discriminator 1
 567 002c 029B     		ldr	r3, [sp, #8]
 568 002e 002B     		cmp	r3, #0
 569 0030 F5D0     		beq	.L10
 570              		.loc 1 217 0
 571 0032 FFF7FEFF 		bl	dbg_check_unlock
 572              	.LBB3:
 573 0036 4FF00003 		mov	r3, #0
 574              	@ 217 "../../test/testbmk.c" 1
 575 003a 83F31188 		msr     BASEPRI, r3
 576              	@ 0 "" 2
 577              		.thumb
 578              	.LBE3:
 579              		.loc 1 218 0
 580 003e 4FF00003 		mov	r3, #0
 581              		.loc 1 219 0
 582 0042 1846     		mov	r0, r3
 583 0044 05B0     		add	sp, sp, #20
 584 0046 00BD     		pop	{pc}
 585              		.cfi_endproc
 586              	.LFE13:
 587              		.size	thread4, .-thread4
 588 0048 AFF30080 		.section	.text.bmk4_execute,"ax",%progbits
 588      AFF30080 
 589              		.align	2
 590              		.p2align 4,,15
 591              		.thumb
 592              		.thumb_func
 593              		.type	bmk4_execute, %function
 594              	bmk4_execute:
 595              	.LFB14:
ARM GAS  /tmp/ccVdJZXA.s 			page 12


 596              		.loc 1 221 0
 597              		.cfi_startproc
 598              		@ args = 0, pretend = 0, frame = 8
 599              		@ frame_needed = 0, uses_anonymous_args = 0
 600 0000 00B5     		push	{lr}
 601              	.LCFI13:
 602              		.cfi_def_cfa_offset 4
 603              		.cfi_offset 14, -4
 604 0002 85B0     		sub	sp, sp, #20
 605              	.LCFI14:
 606              		.cfi_def_cfa_offset 24
 607              		.loc 1 225 0
 608 0004 40F20003 		movw	r3, #:lower16:wa
 609 0008 C0F20003 		movt	r3, #:upper16:wa
 610 000c 1A68     		ldr	r2, [r3, #0]
 611 000e 40F20003 		movw	r3, #:lower16:rlist
 612 0012 C0F20003 		movt	r3, #:upper16:rlist
 613 0016 9B69     		ldr	r3, [r3, #24]
 614 0018 9B68     		ldr	r3, [r3, #8]
 615 001a 03F10103 		add	r3, r3, #1
 616 001e 4FF00001 		mov	r1, #0
 617 0022 0091     		str	r1, [sp, #0]
 618 0024 1046     		mov	r0, r2
 619 0026 4FF49871 		mov	r1, #304
 620 002a 1A46     		mov	r2, r3
 621 002c 40F20003 		movw	r3, #:lower16:thread4
 622 0030 C0F20003 		movt	r3, #:upper16:thread4
 623 0034 FFF7FEFF 		bl	chThdCreateStatic
 624 0038 0246     		mov	r2, r0
 625 003a 40F20003 		movw	r3, #:lower16:threads
 626 003e C0F20003 		movt	r3, #:upper16:threads
 627 0042 1A60     		str	r2, [r3, #0]
 628 0044 40F20003 		movw	r3, #:lower16:threads
 629 0048 C0F20003 		movt	r3, #:upper16:threads
 630 004c 1B68     		ldr	r3, [r3, #0]
 631 004e 0293     		str	r3, [sp, #8]
 632              		.loc 1 226 0
 633 0050 4FF00003 		mov	r3, #0
 634 0054 0393     		str	r3, [sp, #12]
 635              		.loc 1 227 0
 636 0056 FFF7FEFF 		bl	test_wait_tick
 637              		.loc 1 228 0
 638 005a 4FF47A70 		mov	r0, #1000
 639 005e FFF7FEFF 		bl	test_start_timer
 640              	.L12:
 641              	.LBB4:
 642              		.loc 1 230 0 discriminator 1
 643 0062 4FF02003 		mov	r3, #32
 644              	@ 230 "../../test/testbmk.c" 1
 645 0066 83F31188 		msr     BASEPRI, r3
 646              	@ 0 "" 2
 647              		.thumb
 648              	.LBE4:
 649 006a FFF7FEFF 		bl	dbg_check_lock
 650              		.loc 1 231 0 discriminator 1
 651 006e 0298     		ldr	r0, [sp, #8]
 652 0070 4FF00001 		mov	r1, #0
ARM GAS  /tmp/ccVdJZXA.s 			page 13


 653 0074 FFF7FEFF 		bl	chSchWakeupS
 654              		.loc 1 232 0 discriminator 1
 655 0078 0298     		ldr	r0, [sp, #8]
 656 007a 4FF00001 		mov	r1, #0
 657 007e FFF7FEFF 		bl	chSchWakeupS
 658              		.loc 1 233 0 discriminator 1
 659 0082 0298     		ldr	r0, [sp, #8]
 660 0084 4FF00001 		mov	r1, #0
 661 0088 FFF7FEFF 		bl	chSchWakeupS
 662              		.loc 1 234 0 discriminator 1
 663 008c 0298     		ldr	r0, [sp, #8]
 664 008e 4FF00001 		mov	r1, #0
 665 0092 FFF7FEFF 		bl	chSchWakeupS
 666              		.loc 1 235 0 discriminator 1
 667 0096 FFF7FEFF 		bl	dbg_check_unlock
 668              	.LBB5:
 669 009a 4FF00003 		mov	r3, #0
 670              	@ 235 "../../test/testbmk.c" 1
 671 009e 83F31188 		msr     BASEPRI, r3
 672              	@ 0 "" 2
 673              		.thumb
 674              	.LBE5:
 675              		.loc 1 236 0 discriminator 1
 676 00a2 039B     		ldr	r3, [sp, #12]
 677 00a4 03F10403 		add	r3, r3, #4
 678 00a8 0393     		str	r3, [sp, #12]
 679              		.loc 1 240 0 discriminator 1
 680 00aa 40F20003 		movw	r3, #:lower16:test_timer_done
 681 00ae C0F20003 		movt	r3, #:upper16:test_timer_done
 682 00b2 1B68     		ldr	r3, [r3, #0]
 683 00b4 002B     		cmp	r3, #0
 684 00b6 D4D0     		beq	.L12
 685              	.LBB6:
 686              		.loc 1 241 0
 687 00b8 4FF02003 		mov	r3, #32
 688              	@ 241 "../../test/testbmk.c" 1
 689 00bc 83F31188 		msr     BASEPRI, r3
 690              	@ 0 "" 2
 691              		.thumb
 692              	.LBE6:
 693 00c0 FFF7FEFF 		bl	dbg_check_lock
 694              		.loc 1 242 0
 695 00c4 0298     		ldr	r0, [sp, #8]
 696 00c6 4FF0FF31 		mov	r1, #-1
 697 00ca FFF7FEFF 		bl	chSchWakeupS
 698              		.loc 1 243 0
 699 00ce FFF7FEFF 		bl	dbg_check_unlock
 700              	.LBB7:
 701 00d2 4FF00003 		mov	r3, #0
 702              	@ 243 "../../test/testbmk.c" 1
 703 00d6 83F31188 		msr     BASEPRI, r3
 704              	@ 0 "" 2
 705              		.thumb
 706              	.LBE7:
 707              		.loc 1 245 0
 708 00da FFF7FEFF 		bl	test_wait_threads
 709              		.loc 1 246 0
ARM GAS  /tmp/ccVdJZXA.s 			page 14


 710 00de 40F20000 		movw	r0, #:lower16:.LC0
 711 00e2 C0F20000 		movt	r0, #:upper16:.LC0
 712 00e6 FFF7FEFF 		bl	test_print
 713              		.loc 1 247 0
 714 00ea 039B     		ldr	r3, [sp, #12]
 715 00ec 4FEA4303 		lsl	r3, r3, #1
 716 00f0 1846     		mov	r0, r3
 717 00f2 FFF7FEFF 		bl	test_printn
 718              		.loc 1 248 0
 719 00f6 40F20000 		movw	r0, #:lower16:.LC2
 720 00fa C0F20000 		movt	r0, #:upper16:.LC2
 721 00fe FFF7FEFF 		bl	test_println
 722              		.loc 1 249 0
 723 0102 05B0     		add	sp, sp, #20
 724 0104 00BD     		pop	{pc}
 725              		.cfi_endproc
 726              	.LFE14:
 727              		.size	bmk4_execute, .-bmk4_execute
 728              		.global	testbmk4
 729 0106 00BFAFF3 		.section	.rodata
 729      0080AFF3 
 729      0080
 730 006f 00       		.align	2
 731              	.LC6:
 732 0070 42656E63 		.ascii	"Benchmark, context switch\000"
 732      686D6172 
 732      6B2C2063 
 732      6F6E7465 
 732      78742073 
 733              		.section	.rodata.testbmk4,"a",%progbits
 734              		.align	2
 735              		.type	testbmk4, %object
 736              		.size	testbmk4, 16
 737              	testbmk4:
 738 0000 70000000 		.word	.LC6
 739 0004 00000000 		.word	0
 740 0008 00000000 		.word	0
 741 000c 00000000 		.word	bmk4_execute
 742              		.section	.rodata
 743 008a 0000     		.align	2
 744              	.LC7:
 745 008c 20746872 		.ascii	" threads/S\000"
 745      65616473 
 745      2F5300
 746              		.section	.text.bmk5_execute,"ax",%progbits
 747              		.align	2
 748              		.p2align 4,,15
 749              		.thumb
 750              		.thumb_func
 751              		.type	bmk5_execute, %function
 752              	bmk5_execute:
 753              	.LFB15:
 754              		.loc 1 269 0
 755              		.cfi_startproc
 756              		@ args = 0, pretend = 0, frame = 16
 757              		@ frame_needed = 0, uses_anonymous_args = 0
 758 0000 00B5     		push	{lr}
ARM GAS  /tmp/ccVdJZXA.s 			page 15


 759              	.LCFI15:
 760              		.cfi_def_cfa_offset 4
 761              		.cfi_offset 14, -4
 762 0002 87B0     		sub	sp, sp, #28
 763              	.LCFI16:
 764              		.cfi_def_cfa_offset 32
 765              		.loc 1 271 0
 766 0004 4FF00003 		mov	r3, #0
 767 0008 0593     		str	r3, [sp, #20]
 768              		.loc 1 272 0
 769 000a 40F20003 		movw	r3, #:lower16:wa
 770 000e C0F20003 		movt	r3, #:upper16:wa
 771 0012 1B68     		ldr	r3, [r3, #0]
 772 0014 0493     		str	r3, [sp, #16]
 773              		.loc 1 273 0
 774 0016 40F20003 		movw	r3, #:lower16:rlist
 775 001a C0F20003 		movt	r3, #:upper16:rlist
 776 001e 9B69     		ldr	r3, [r3, #24]
 777 0020 9B68     		ldr	r3, [r3, #8]
 778 0022 03F1FF33 		add	r3, r3, #-1
 779 0026 0393     		str	r3, [sp, #12]
 780              		.loc 1 274 0
 781 0028 FFF7FEFF 		bl	test_wait_tick
 782              		.loc 1 275 0
 783 002c 4FF47A70 		mov	r0, #1000
 784 0030 FFF7FEFF 		bl	test_start_timer
 785              	.L14:
 786              		.loc 1 277 0 discriminator 1
 787 0034 4FF00003 		mov	r3, #0
 788 0038 0093     		str	r3, [sp, #0]
 789 003a 0498     		ldr	r0, [sp, #16]
 790 003c 4FF49871 		mov	r1, #304
 791 0040 039A     		ldr	r2, [sp, #12]
 792 0042 40F20003 		movw	r3, #:lower16:thread2
 793 0046 C0F20003 		movt	r3, #:upper16:thread2
 794 004a FFF7FEFF 		bl	chThdCreateStatic
 795 004e 0346     		mov	r3, r0
 796 0050 1846     		mov	r0, r3
 797 0052 FFF7FEFF 		bl	chThdWait
 798              		.loc 1 278 0 discriminator 1
 799 0056 059B     		ldr	r3, [sp, #20]
 800 0058 03F10103 		add	r3, r3, #1
 801 005c 0593     		str	r3, [sp, #20]
 802              		.loc 1 282 0 discriminator 1
 803 005e 40F20003 		movw	r3, #:lower16:test_timer_done
 804 0062 C0F20003 		movt	r3, #:upper16:test_timer_done
 805 0066 1B68     		ldr	r3, [r3, #0]
 806 0068 002B     		cmp	r3, #0
 807 006a E3D0     		beq	.L14
 808              		.loc 1 283 0
 809 006c 40F20000 		movw	r0, #:lower16:.LC0
 810 0070 C0F20000 		movt	r0, #:upper16:.LC0
 811 0074 FFF7FEFF 		bl	test_print
 812              		.loc 1 284 0
 813 0078 0598     		ldr	r0, [sp, #20]
 814 007a FFF7FEFF 		bl	test_printn
 815              		.loc 1 285 0
ARM GAS  /tmp/ccVdJZXA.s 			page 16


 816 007e 40F20000 		movw	r0, #:lower16:.LC7
 817 0082 C0F20000 		movt	r0, #:upper16:.LC7
 818 0086 FFF7FEFF 		bl	test_println
 819              		.loc 1 286 0
 820 008a 07B0     		add	sp, sp, #28
 821 008c 00BD     		pop	{pc}
 822              		.cfi_endproc
 823              	.LFE15:
 824              		.size	bmk5_execute, .-bmk5_execute
 825              		.global	testbmk5
 826 008e 00BF     		.section	.rodata
 827 0097 00       		.align	2
 828              	.LC8:
 829 0098 42656E63 		.ascii	"Benchmark, threads, full cycle\000"
 829      686D6172 
 829      6B2C2074 
 829      68726561 
 829      64732C20 
 830              		.section	.rodata.testbmk5,"a",%progbits
 831              		.align	2
 832              		.type	testbmk5, %object
 833              		.size	testbmk5, 16
 834              	testbmk5:
 835 0000 98000000 		.word	.LC8
 836 0004 00000000 		.word	0
 837 0008 00000000 		.word	0
 838 000c 00000000 		.word	bmk5_execute
 839              		.section	.text.bmk6_execute,"ax",%progbits
 840              		.align	2
 841              		.p2align 4,,15
 842              		.thumb
 843              		.thumb_func
 844              		.type	bmk6_execute, %function
 845              	bmk6_execute:
 846              	.LFB16:
 847              		.loc 1 308 0
 848              		.cfi_startproc
 849              		@ args = 0, pretend = 0, frame = 16
 850              		@ frame_needed = 0, uses_anonymous_args = 0
 851 0000 00B5     		push	{lr}
 852              	.LCFI17:
 853              		.cfi_def_cfa_offset 4
 854              		.cfi_offset 14, -4
 855 0002 87B0     		sub	sp, sp, #28
 856              	.LCFI18:
 857              		.cfi_def_cfa_offset 32
 858              		.loc 1 310 0
 859 0004 4FF00003 		mov	r3, #0
 860 0008 0593     		str	r3, [sp, #20]
 861              		.loc 1 311 0
 862 000a 40F20003 		movw	r3, #:lower16:wa
 863 000e C0F20003 		movt	r3, #:upper16:wa
 864 0012 1B68     		ldr	r3, [r3, #0]
 865 0014 0493     		str	r3, [sp, #16]
 866              		.loc 1 312 0
 867 0016 40F20003 		movw	r3, #:lower16:rlist
 868 001a C0F20003 		movt	r3, #:upper16:rlist
ARM GAS  /tmp/ccVdJZXA.s 			page 17


 869 001e 9B69     		ldr	r3, [r3, #24]
 870 0020 9B68     		ldr	r3, [r3, #8]
 871 0022 03F10103 		add	r3, r3, #1
 872 0026 0393     		str	r3, [sp, #12]
 873              		.loc 1 313 0
 874 0028 FFF7FEFF 		bl	test_wait_tick
 875              		.loc 1 314 0
 876 002c 4FF47A70 		mov	r0, #1000
 877 0030 FFF7FEFF 		bl	test_start_timer
 878              	.L16:
 879              		.loc 1 316 0 discriminator 1
 880 0034 4FF00003 		mov	r3, #0
 881 0038 0093     		str	r3, [sp, #0]
 882 003a 0498     		ldr	r0, [sp, #16]
 883 003c 4FF49871 		mov	r1, #304
 884 0040 039A     		ldr	r2, [sp, #12]
 885 0042 40F20003 		movw	r3, #:lower16:thread2
 886 0046 C0F20003 		movt	r3, #:upper16:thread2
 887 004a FFF7FEFF 		bl	chThdCreateStatic
 888              		.loc 1 317 0 discriminator 1
 889 004e 059B     		ldr	r3, [sp, #20]
 890 0050 03F10103 		add	r3, r3, #1
 891 0054 0593     		str	r3, [sp, #20]
 892              		.loc 1 321 0 discriminator 1
 893 0056 40F20003 		movw	r3, #:lower16:test_timer_done
 894 005a C0F20003 		movt	r3, #:upper16:test_timer_done
 895 005e 1B68     		ldr	r3, [r3, #0]
 896 0060 002B     		cmp	r3, #0
 897 0062 E7D0     		beq	.L16
 898              		.loc 1 322 0
 899 0064 40F20000 		movw	r0, #:lower16:.LC0
 900 0068 C0F20000 		movt	r0, #:upper16:.LC0
 901 006c FFF7FEFF 		bl	test_print
 902              		.loc 1 323 0
 903 0070 0598     		ldr	r0, [sp, #20]
 904 0072 FFF7FEFF 		bl	test_printn
 905              		.loc 1 324 0
 906 0076 40F20000 		movw	r0, #:lower16:.LC7
 907 007a C0F20000 		movt	r0, #:upper16:.LC7
 908 007e FFF7FEFF 		bl	test_println
 909              		.loc 1 325 0
 910 0082 07B0     		add	sp, sp, #28
 911 0084 00BD     		pop	{pc}
 912              		.cfi_endproc
 913              	.LFE16:
 914              		.size	bmk6_execute, .-bmk6_execute
 915              		.global	testbmk6
 916 0086 00BFAFF3 		.section	.rodata
 916      0080AFF3 
 916      0080
 917 00b7 00       		.align	2
 918              	.LC9:
 919 00b8 42656E63 		.ascii	"Benchmark, threads, create only\000"
 919      686D6172 
 919      6B2C2074 
 919      68726561 
 919      64732C20 
ARM GAS  /tmp/ccVdJZXA.s 			page 18


 920              		.section	.rodata.testbmk6,"a",%progbits
 921              		.align	2
 922              		.type	testbmk6, %object
 923              		.size	testbmk6, 16
 924              	testbmk6:
 925 0000 B8000000 		.word	.LC9
 926 0004 00000000 		.word	0
 927 0008 00000000 		.word	0
 928 000c 00000000 		.word	bmk6_execute
 929              		.section	.text.thread3,"ax",%progbits
 930              		.align	2
 931              		.p2align 4,,15
 932              		.thumb
 933              		.thumb_func
 934              		.type	thread3, %function
 935              	thread3:
 936              	.LFB17:
 937              		.loc 1 345 0
 938              		.cfi_startproc
 939              		@ args = 0, pretend = 0, frame = 8
 940              		@ frame_needed = 0, uses_anonymous_args = 0
 941 0000 00B5     		push	{lr}
 942              	.LCFI19:
 943              		.cfi_def_cfa_offset 4
 944              		.cfi_offset 14, -4
 945 0002 83B0     		sub	sp, sp, #12
 946              	.LCFI20:
 947              		.cfi_def_cfa_offset 16
 948 0004 0190     		str	r0, [sp, #4]
 949              		.loc 1 348 0
 950 0006 05E0     		b	.L18
 951              	.L19:
 952              		.loc 1 349 0
 953 0008 40F20000 		movw	r0, #:lower16:sem1
 954 000c C0F20000 		movt	r0, #:upper16:sem1
 955 0010 FFF7FEFF 		bl	chSemWait
 956              	.L18:
 957              		.loc 1 348 0 discriminator 1
 958 0014 40F20003 		movw	r3, #:lower16:rlist
 959 0018 C0F20003 		movt	r3, #:upper16:rlist
 960 001c 9B69     		ldr	r3, [r3, #24]
 961 001e 93F82130 		ldrb	r3, [r3, #33]	@ zero_extendqisi2
 962 0022 03F00403 		and	r3, r3, #4
 963 0026 002B     		cmp	r3, #0
 964 0028 EED0     		beq	.L19
 965              		.loc 1 350 0
 966 002a 4FF00003 		mov	r3, #0
 967              		.loc 1 351 0
 968 002e 1846     		mov	r0, r3
 969 0030 03B0     		add	sp, sp, #12
 970 0032 00BD     		pop	{pc}
 971              		.cfi_endproc
 972              	.LFE17:
 973              		.size	thread3, .-thread3
 974 0034 AFF30080 		.section	.text.bmk7_setup,"ax",%progbits
 974      AFF30080 
 974      AFF30080 
ARM GAS  /tmp/ccVdJZXA.s 			page 19


 975              		.align	2
 976              		.p2align 4,,15
 977              		.thumb
 978              		.thumb_func
 979              		.type	bmk7_setup, %function
 980              	bmk7_setup:
 981              	.LFB18:
 982              		.loc 1 353 0
 983              		.cfi_startproc
 984              		@ args = 0, pretend = 0, frame = 0
 985              		@ frame_needed = 0, uses_anonymous_args = 0
 986 0000 08B5     		push	{r3, lr}
 987              	.LCFI21:
 988              		.cfi_def_cfa_offset 8
 989              		.cfi_offset 14, -4
 990              		.cfi_offset 3, -8
 991              		.loc 1 355 0
 992 0002 40F20000 		movw	r0, #:lower16:sem1
 993 0006 C0F20000 		movt	r0, #:upper16:sem1
 994 000a 4FF00001 		mov	r1, #0
 995 000e FFF7FEFF 		bl	chSemInit
 996              		.loc 1 356 0
 997 0012 08BD     		pop	{r3, pc}
 998              		.cfi_endproc
 999              	.LFE18:
 1000              		.size	bmk7_setup, .-bmk7_setup
 1001 0014 AFF30080 		.section	.rodata
 1001      AFF30080 
 1001      AFF30080 
 1002              		.align	2
 1003              	.LC10:
 1004 00d8 20726573 		.ascii	" reschedules/S, \000"
 1004      63686564 
 1004      756C6573 
 1004      2F532C20 
 1004      00
 1005              		.section	.text.bmk7_execute,"ax",%progbits
 1006              		.align	2
 1007              		.p2align 4,,15
 1008              		.thumb
 1009              		.thumb_func
 1010              		.type	bmk7_execute, %function
 1011              	bmk7_execute:
 1012              	.LFB19:
 1013              		.loc 1 358 0
 1014              		.cfi_startproc
 1015              		@ args = 0, pretend = 0, frame = 8
 1016              		@ frame_needed = 0, uses_anonymous_args = 0
 1017 0000 00B5     		push	{lr}
 1018              	.LCFI22:
 1019              		.cfi_def_cfa_offset 4
 1020              		.cfi_offset 14, -4
 1021 0002 85B0     		sub	sp, sp, #20
 1022              	.LCFI23:
 1023              		.cfi_def_cfa_offset 24
 1024              		.loc 1 361 0
 1025 0004 40F20003 		movw	r3, #:lower16:wa
ARM GAS  /tmp/ccVdJZXA.s 			page 20


 1026 0008 C0F20003 		movt	r3, #:upper16:wa
 1027 000c 1A68     		ldr	r2, [r3, #0]
 1028 000e 40F20003 		movw	r3, #:lower16:rlist
 1029 0012 C0F20003 		movt	r3, #:upper16:rlist
 1030 0016 9B69     		ldr	r3, [r3, #24]
 1031 0018 9B68     		ldr	r3, [r3, #8]
 1032 001a 03F10503 		add	r3, r3, #5
 1033 001e 4FF00001 		mov	r1, #0
 1034 0022 0091     		str	r1, [sp, #0]
 1035 0024 1046     		mov	r0, r2
 1036 0026 4FF49871 		mov	r1, #304
 1037 002a 1A46     		mov	r2, r3
 1038 002c 40F20003 		movw	r3, #:lower16:thread3
 1039 0030 C0F20003 		movt	r3, #:upper16:thread3
 1040 0034 FFF7FEFF 		bl	chThdCreateStatic
 1041 0038 0246     		mov	r2, r0
 1042 003a 40F20003 		movw	r3, #:lower16:threads
 1043 003e C0F20003 		movt	r3, #:upper16:threads
 1044 0042 1A60     		str	r2, [r3, #0]
 1045              		.loc 1 362 0
 1046 0044 40F20003 		movw	r3, #:lower16:wa
 1047 0048 C0F20003 		movt	r3, #:upper16:wa
 1048 004c 5A68     		ldr	r2, [r3, #4]
 1049 004e 40F20003 		movw	r3, #:lower16:rlist
 1050 0052 C0F20003 		movt	r3, #:upper16:rlist
 1051 0056 9B69     		ldr	r3, [r3, #24]
 1052 0058 9B68     		ldr	r3, [r3, #8]
 1053 005a 03F10403 		add	r3, r3, #4
 1054 005e 4FF00001 		mov	r1, #0
 1055 0062 0091     		str	r1, [sp, #0]
 1056 0064 1046     		mov	r0, r2
 1057 0066 4FF49871 		mov	r1, #304
 1058 006a 1A46     		mov	r2, r3
 1059 006c 40F20003 		movw	r3, #:lower16:thread3
 1060 0070 C0F20003 		movt	r3, #:upper16:thread3
 1061 0074 FFF7FEFF 		bl	chThdCreateStatic
 1062 0078 0246     		mov	r2, r0
 1063 007a 40F20003 		movw	r3, #:lower16:threads
 1064 007e C0F20003 		movt	r3, #:upper16:threads
 1065 0082 5A60     		str	r2, [r3, #4]
 1066              		.loc 1 363 0
 1067 0084 40F20003 		movw	r3, #:lower16:wa
 1068 0088 C0F20003 		movt	r3, #:upper16:wa
 1069 008c 9A68     		ldr	r2, [r3, #8]
 1070 008e 40F20003 		movw	r3, #:lower16:rlist
 1071 0092 C0F20003 		movt	r3, #:upper16:rlist
 1072 0096 9B69     		ldr	r3, [r3, #24]
 1073 0098 9B68     		ldr	r3, [r3, #8]
 1074 009a 03F10303 		add	r3, r3, #3
 1075 009e 4FF00001 		mov	r1, #0
 1076 00a2 0091     		str	r1, [sp, #0]
 1077 00a4 1046     		mov	r0, r2
 1078 00a6 4FF49871 		mov	r1, #304
 1079 00aa 1A46     		mov	r2, r3
 1080 00ac 40F20003 		movw	r3, #:lower16:thread3
 1081 00b0 C0F20003 		movt	r3, #:upper16:thread3
 1082 00b4 FFF7FEFF 		bl	chThdCreateStatic
ARM GAS  /tmp/ccVdJZXA.s 			page 21


 1083 00b8 0246     		mov	r2, r0
 1084 00ba 40F20003 		movw	r3, #:lower16:threads
 1085 00be C0F20003 		movt	r3, #:upper16:threads
 1086 00c2 9A60     		str	r2, [r3, #8]
 1087              		.loc 1 364 0
 1088 00c4 40F20003 		movw	r3, #:lower16:wa
 1089 00c8 C0F20003 		movt	r3, #:upper16:wa
 1090 00cc DA68     		ldr	r2, [r3, #12]
 1091 00ce 40F20003 		movw	r3, #:lower16:rlist
 1092 00d2 C0F20003 		movt	r3, #:upper16:rlist
 1093 00d6 9B69     		ldr	r3, [r3, #24]
 1094 00d8 9B68     		ldr	r3, [r3, #8]
 1095 00da 03F10203 		add	r3, r3, #2
 1096 00de 4FF00001 		mov	r1, #0
 1097 00e2 0091     		str	r1, [sp, #0]
 1098 00e4 1046     		mov	r0, r2
 1099 00e6 4FF49871 		mov	r1, #304
 1100 00ea 1A46     		mov	r2, r3
 1101 00ec 40F20003 		movw	r3, #:lower16:thread3
 1102 00f0 C0F20003 		movt	r3, #:upper16:thread3
 1103 00f4 FFF7FEFF 		bl	chThdCreateStatic
 1104 00f8 0246     		mov	r2, r0
 1105 00fa 40F20003 		movw	r3, #:lower16:threads
 1106 00fe C0F20003 		movt	r3, #:upper16:threads
 1107 0102 DA60     		str	r2, [r3, #12]
 1108              		.loc 1 365 0
 1109 0104 40F20003 		movw	r3, #:lower16:wa
 1110 0108 C0F20003 		movt	r3, #:upper16:wa
 1111 010c 1A69     		ldr	r2, [r3, #16]
 1112 010e 40F20003 		movw	r3, #:lower16:rlist
 1113 0112 C0F20003 		movt	r3, #:upper16:rlist
 1114 0116 9B69     		ldr	r3, [r3, #24]
 1115 0118 9B68     		ldr	r3, [r3, #8]
 1116 011a 03F10103 		add	r3, r3, #1
 1117 011e 4FF00001 		mov	r1, #0
 1118 0122 0091     		str	r1, [sp, #0]
 1119 0124 1046     		mov	r0, r2
 1120 0126 4FF49871 		mov	r1, #304
 1121 012a 1A46     		mov	r2, r3
 1122 012c 40F20003 		movw	r3, #:lower16:thread3
 1123 0130 C0F20003 		movt	r3, #:upper16:thread3
 1124 0134 FFF7FEFF 		bl	chThdCreateStatic
 1125 0138 0246     		mov	r2, r0
 1126 013a 40F20003 		movw	r3, #:lower16:threads
 1127 013e C0F20003 		movt	r3, #:upper16:threads
 1128 0142 1A61     		str	r2, [r3, #16]
 1129              		.loc 1 367 0
 1130 0144 4FF00003 		mov	r3, #0
 1131 0148 0393     		str	r3, [sp, #12]
 1132              		.loc 1 368 0
 1133 014a FFF7FEFF 		bl	test_wait_tick
 1134              		.loc 1 369 0
 1135 014e 4FF47A70 		mov	r0, #1000
 1136 0152 FFF7FEFF 		bl	test_start_timer
 1137              	.L22:
 1138              		.loc 1 371 0 discriminator 1
 1139 0156 40F20000 		movw	r0, #:lower16:sem1
ARM GAS  /tmp/ccVdJZXA.s 			page 22


 1140 015a C0F20000 		movt	r0, #:upper16:sem1
 1141 015e 4FF00001 		mov	r1, #0
 1142 0162 FFF7FEFF 		bl	chSemReset
 1143              		.loc 1 372 0 discriminator 1
 1144 0166 039B     		ldr	r3, [sp, #12]
 1145 0168 03F10103 		add	r3, r3, #1
 1146 016c 0393     		str	r3, [sp, #12]
 1147              		.loc 1 376 0 discriminator 1
 1148 016e 40F20003 		movw	r3, #:lower16:test_timer_done
 1149 0172 C0F20003 		movt	r3, #:upper16:test_timer_done
 1150 0176 1B68     		ldr	r3, [r3, #0]
 1151 0178 002B     		cmp	r3, #0
 1152 017a ECD0     		beq	.L22
 1153              		.loc 1 377 0
 1154 017c FFF7FEFF 		bl	test_terminate_threads
 1155              		.loc 1 378 0
 1156 0180 40F20000 		movw	r0, #:lower16:sem1
 1157 0184 C0F20000 		movt	r0, #:upper16:sem1
 1158 0188 4FF00001 		mov	r1, #0
 1159 018c FFF7FEFF 		bl	chSemReset
 1160              		.loc 1 379 0
 1161 0190 FFF7FEFF 		bl	test_wait_threads
 1162              		.loc 1 381 0
 1163 0194 40F20000 		movw	r0, #:lower16:.LC0
 1164 0198 C0F20000 		movt	r0, #:upper16:.LC0
 1165 019c FFF7FEFF 		bl	test_print
 1166              		.loc 1 382 0
 1167 01a0 0398     		ldr	r0, [sp, #12]
 1168 01a2 FFF7FEFF 		bl	test_printn
 1169              		.loc 1 383 0
 1170 01a6 40F20000 		movw	r0, #:lower16:.LC10
 1171 01aa C0F20000 		movt	r0, #:upper16:.LC10
 1172 01ae FFF7FEFF 		bl	test_print
 1173              		.loc 1 384 0
 1174 01b2 039A     		ldr	r2, [sp, #12]
 1175 01b4 1346     		mov	r3, r2
 1176 01b6 4FEA4303 		lsl	r3, r3, #1
 1177 01ba 9B18     		adds	r3, r3, r2
 1178 01bc 4FEA4303 		lsl	r3, r3, #1
 1179 01c0 1846     		mov	r0, r3
 1180 01c2 FFF7FEFF 		bl	test_printn
 1181              		.loc 1 385 0
 1182 01c6 40F20000 		movw	r0, #:lower16:.LC2
 1183 01ca C0F20000 		movt	r0, #:upper16:.LC2
 1184 01ce FFF7FEFF 		bl	test_println
 1185              		.loc 1 386 0
 1186 01d2 05B0     		add	sp, sp, #20
 1187 01d4 00BD     		pop	{pc}
 1188              		.cfi_endproc
 1189              	.LFE19:
 1190              		.size	bmk7_execute, .-bmk7_execute
 1191              		.global	testbmk7
 1192 01d6 00BFAFF3 		.section	.rodata
 1192      0080AFF3 
 1192      0080
 1193 00e9 000000   		.align	2
 1194              	.LC11:
ARM GAS  /tmp/ccVdJZXA.s 			page 23


 1195 00ec 42656E63 		.ascii	"Benchmark, mass reschedule, 5 threads\000"
 1195      686D6172 
 1195      6B2C206D 
 1195      61737320 
 1195      72657363 
 1196              		.section	.rodata.testbmk7,"a",%progbits
 1197              		.align	2
 1198              		.type	testbmk7, %object
 1199              		.size	testbmk7, 16
 1200              	testbmk7:
 1201 0000 EC000000 		.word	.LC11
 1202 0004 00000000 		.word	bmk7_setup
 1203 0008 00000000 		.word	0
 1204 000c 00000000 		.word	bmk7_execute
 1205              		.section	.text.thread8,"ax",%progbits
 1206              		.align	2
 1207              		.p2align 4,,15
 1208              		.thumb
 1209              		.thumb_func
 1210              		.type	thread8, %function
 1211              	thread8:
 1212              	.LFB20:
 1213              		.loc 1 405 0
 1214              		.cfi_startproc
 1215              		@ args = 0, pretend = 0, frame = 8
 1216              		@ frame_needed = 0, uses_anonymous_args = 0
 1217 0000 00B5     		push	{lr}
 1218              	.LCFI24:
 1219              		.cfi_def_cfa_offset 4
 1220              		.cfi_offset 14, -4
 1221 0002 83B0     		sub	sp, sp, #12
 1222              	.LCFI25:
 1223              		.cfi_def_cfa_offset 16
 1224 0004 0190     		str	r0, [sp, #4]
 1225              	.L24:
 1226              		.loc 1 408 0 discriminator 1
 1227 0006 FFF7FEFF 		bl	chThdYield
 1228              		.loc 1 409 0 discriminator 1
 1229 000a FFF7FEFF 		bl	chThdYield
 1230              		.loc 1 410 0 discriminator 1
 1231 000e FFF7FEFF 		bl	chThdYield
 1232              		.loc 1 411 0 discriminator 1
 1233 0012 FFF7FEFF 		bl	chThdYield
 1234              		.loc 1 412 0 discriminator 1
 1235 0016 019B     		ldr	r3, [sp, #4]
 1236 0018 1B68     		ldr	r3, [r3, #0]
 1237 001a 03F10402 		add	r2, r3, #4
 1238 001e 019B     		ldr	r3, [sp, #4]
 1239 0020 1A60     		str	r2, [r3, #0]
 1240              		.loc 1 416 0 discriminator 1
 1241 0022 40F20003 		movw	r3, #:lower16:rlist
 1242 0026 C0F20003 		movt	r3, #:upper16:rlist
 1243 002a 9B69     		ldr	r3, [r3, #24]
 1244 002c 93F82130 		ldrb	r3, [r3, #33]	@ zero_extendqisi2
 1245 0030 03F00403 		and	r3, r3, #4
 1246 0034 002B     		cmp	r3, #0
 1247 0036 E6D0     		beq	.L24
ARM GAS  /tmp/ccVdJZXA.s 			page 24


 1248              		.loc 1 417 0
 1249 0038 4FF00003 		mov	r3, #0
 1250              		.loc 1 418 0
 1251 003c 1846     		mov	r0, r3
 1252 003e 03B0     		add	sp, sp, #12
 1253 0040 00BD     		pop	{pc}
 1254              		.cfi_endproc
 1255              	.LFE20:
 1256              		.size	thread8, .-thread8
 1257 0042 00BFAFF3 		.section	.text.bmk8_execute,"ax",%progbits
 1257      0080AFF3 
 1257      0080AFF3 
 1257      0080
 1258              		.align	2
 1259              		.p2align 4,,15
 1260              		.thumb
 1261              		.thumb_func
 1262              		.type	bmk8_execute, %function
 1263              	bmk8_execute:
 1264              	.LFB21:
 1265              		.loc 1 420 0
 1266              		.cfi_startproc
 1267              		@ args = 0, pretend = 0, frame = 8
 1268              		@ frame_needed = 0, uses_anonymous_args = 0
 1269 0000 00B5     		push	{lr}
 1270              	.LCFI26:
 1271              		.cfi_def_cfa_offset 4
 1272              		.cfi_offset 14, -4
 1273 0002 85B0     		sub	sp, sp, #20
 1274              	.LCFI27:
 1275              		.cfi_def_cfa_offset 24
 1276              		.loc 1 423 0
 1277 0004 4FF00003 		mov	r3, #0
 1278 0008 0393     		str	r3, [sp, #12]
 1279              		.loc 1 424 0
 1280 000a FFF7FEFF 		bl	test_wait_tick
 1281              		.loc 1 426 0
 1282 000e 40F20003 		movw	r3, #:lower16:wa
 1283 0012 C0F20003 		movt	r3, #:upper16:wa
 1284 0016 1A68     		ldr	r2, [r3, #0]
 1285 0018 40F20003 		movw	r3, #:lower16:rlist
 1286 001c C0F20003 		movt	r3, #:upper16:rlist
 1287 0020 9B69     		ldr	r3, [r3, #24]
 1288 0022 9B68     		ldr	r3, [r3, #8]
 1289 0024 03F1FF33 		add	r3, r3, #-1
 1290 0028 03A9     		add	r1, sp, #12
 1291 002a 0091     		str	r1, [sp, #0]
 1292 002c 1046     		mov	r0, r2
 1293 002e 4FF49871 		mov	r1, #304
 1294 0032 1A46     		mov	r2, r3
 1295 0034 40F20003 		movw	r3, #:lower16:thread8
 1296 0038 C0F20003 		movt	r3, #:upper16:thread8
 1297 003c FFF7FEFF 		bl	chThdCreateStatic
 1298 0040 0246     		mov	r2, r0
 1299 0042 40F20003 		movw	r3, #:lower16:threads
 1300 0046 C0F20003 		movt	r3, #:upper16:threads
 1301 004a 1A60     		str	r2, [r3, #0]
ARM GAS  /tmp/ccVdJZXA.s 			page 25


 1302              		.loc 1 427 0
 1303 004c 40F20003 		movw	r3, #:lower16:wa
 1304 0050 C0F20003 		movt	r3, #:upper16:wa
 1305 0054 5A68     		ldr	r2, [r3, #4]
 1306 0056 40F20003 		movw	r3, #:lower16:rlist
 1307 005a C0F20003 		movt	r3, #:upper16:rlist
 1308 005e 9B69     		ldr	r3, [r3, #24]
 1309 0060 9B68     		ldr	r3, [r3, #8]
 1310 0062 03F1FF33 		add	r3, r3, #-1
 1311 0066 03A9     		add	r1, sp, #12
 1312 0068 0091     		str	r1, [sp, #0]
 1313 006a 1046     		mov	r0, r2
 1314 006c 4FF49871 		mov	r1, #304
 1315 0070 1A46     		mov	r2, r3
 1316 0072 40F20003 		movw	r3, #:lower16:thread8
 1317 0076 C0F20003 		movt	r3, #:upper16:thread8
 1318 007a FFF7FEFF 		bl	chThdCreateStatic
 1319 007e 0246     		mov	r2, r0
 1320 0080 40F20003 		movw	r3, #:lower16:threads
 1321 0084 C0F20003 		movt	r3, #:upper16:threads
 1322 0088 5A60     		str	r2, [r3, #4]
 1323              		.loc 1 428 0
 1324 008a 40F20003 		movw	r3, #:lower16:wa
 1325 008e C0F20003 		movt	r3, #:upper16:wa
 1326 0092 9A68     		ldr	r2, [r3, #8]
 1327 0094 40F20003 		movw	r3, #:lower16:rlist
 1328 0098 C0F20003 		movt	r3, #:upper16:rlist
 1329 009c 9B69     		ldr	r3, [r3, #24]
 1330 009e 9B68     		ldr	r3, [r3, #8]
 1331 00a0 03F1FF33 		add	r3, r3, #-1
 1332 00a4 03A9     		add	r1, sp, #12
 1333 00a6 0091     		str	r1, [sp, #0]
 1334 00a8 1046     		mov	r0, r2
 1335 00aa 4FF49871 		mov	r1, #304
 1336 00ae 1A46     		mov	r2, r3
 1337 00b0 40F20003 		movw	r3, #:lower16:thread8
 1338 00b4 C0F20003 		movt	r3, #:upper16:thread8
 1339 00b8 FFF7FEFF 		bl	chThdCreateStatic
 1340 00bc 0246     		mov	r2, r0
 1341 00be 40F20003 		movw	r3, #:lower16:threads
 1342 00c2 C0F20003 		movt	r3, #:upper16:threads
 1343 00c6 9A60     		str	r2, [r3, #8]
 1344              		.loc 1 429 0
 1345 00c8 40F20003 		movw	r3, #:lower16:wa
 1346 00cc C0F20003 		movt	r3, #:upper16:wa
 1347 00d0 DA68     		ldr	r2, [r3, #12]
 1348 00d2 40F20003 		movw	r3, #:lower16:rlist
 1349 00d6 C0F20003 		movt	r3, #:upper16:rlist
 1350 00da 9B69     		ldr	r3, [r3, #24]
 1351 00dc 9B68     		ldr	r3, [r3, #8]
 1352 00de 03F1FF33 		add	r3, r3, #-1
 1353 00e2 03A9     		add	r1, sp, #12
 1354 00e4 0091     		str	r1, [sp, #0]
 1355 00e6 1046     		mov	r0, r2
 1356 00e8 4FF49871 		mov	r1, #304
 1357 00ec 1A46     		mov	r2, r3
 1358 00ee 40F20003 		movw	r3, #:lower16:thread8
ARM GAS  /tmp/ccVdJZXA.s 			page 26


 1359 00f2 C0F20003 		movt	r3, #:upper16:thread8
 1360 00f6 FFF7FEFF 		bl	chThdCreateStatic
 1361 00fa 0246     		mov	r2, r0
 1362 00fc 40F20003 		movw	r3, #:lower16:threads
 1363 0100 C0F20003 		movt	r3, #:upper16:threads
 1364 0104 DA60     		str	r2, [r3, #12]
 1365              		.loc 1 430 0
 1366 0106 40F20003 		movw	r3, #:lower16:wa
 1367 010a C0F20003 		movt	r3, #:upper16:wa
 1368 010e 1A69     		ldr	r2, [r3, #16]
 1369 0110 40F20003 		movw	r3, #:lower16:rlist
 1370 0114 C0F20003 		movt	r3, #:upper16:rlist
 1371 0118 9B69     		ldr	r3, [r3, #24]
 1372 011a 9B68     		ldr	r3, [r3, #8]
 1373 011c 03F1FF33 		add	r3, r3, #-1
 1374 0120 03A9     		add	r1, sp, #12
 1375 0122 0091     		str	r1, [sp, #0]
 1376 0124 1046     		mov	r0, r2
 1377 0126 4FF49871 		mov	r1, #304
 1378 012a 1A46     		mov	r2, r3
 1379 012c 40F20003 		movw	r3, #:lower16:thread8
 1380 0130 C0F20003 		movt	r3, #:upper16:thread8
 1381 0134 FFF7FEFF 		bl	chThdCreateStatic
 1382 0138 0246     		mov	r2, r0
 1383 013a 40F20003 		movw	r3, #:lower16:threads
 1384 013e C0F20003 		movt	r3, #:upper16:threads
 1385 0142 1A61     		str	r2, [r3, #16]
 1386              		.loc 1 432 0
 1387 0144 4FF47A70 		mov	r0, #1000
 1388 0148 FFF7FEFF 		bl	chThdSleep
 1389              		.loc 1 433 0
 1390 014c FFF7FEFF 		bl	test_terminate_threads
 1391              		.loc 1 434 0
 1392 0150 FFF7FEFF 		bl	test_wait_threads
 1393              		.loc 1 436 0
 1394 0154 40F20000 		movw	r0, #:lower16:.LC0
 1395 0158 C0F20000 		movt	r0, #:upper16:.LC0
 1396 015c FFF7FEFF 		bl	test_print
 1397              		.loc 1 437 0
 1398 0160 039B     		ldr	r3, [sp, #12]
 1399 0162 1846     		mov	r0, r3
 1400 0164 FFF7FEFF 		bl	test_printn
 1401              		.loc 1 438 0
 1402 0168 40F20000 		movw	r0, #:lower16:.LC2
 1403 016c C0F20000 		movt	r0, #:upper16:.LC2
 1404 0170 FFF7FEFF 		bl	test_println
 1405              		.loc 1 439 0
 1406 0174 05B0     		add	sp, sp, #20
 1407 0176 00BD     		pop	{pc}
 1408              		.cfi_endproc
 1409              	.LFE21:
 1410              		.size	bmk8_execute, .-bmk8_execute
 1411              		.global	testbmk8
 1412 0178 AFF30080 		.section	.rodata
 1412      AFF30080 
 1413 0112 0000     		.align	2
 1414              	.LC12:
ARM GAS  /tmp/ccVdJZXA.s 			page 27


 1415 0114 42656E63 		.ascii	"Benchmark, round robin context switching\000"
 1415      686D6172 
 1415      6B2C2072 
 1415      6F756E64 
 1415      20726F62 
 1416              		.section	.rodata.testbmk8,"a",%progbits
 1417              		.align	2
 1418              		.type	testbmk8, %object
 1419              		.size	testbmk8, 16
 1420              	testbmk8:
 1421 0000 14010000 		.word	.LC12
 1422 0004 00000000 		.word	0
 1423 0008 00000000 		.word	0
 1424 000c 00000000 		.word	bmk8_execute
 1425              		.section	.rodata
 1426 013d 000000   		.align	2
 1427              	.LC13:
 1428 0140 20627974 		.ascii	" bytes/S\000"
 1428      65732F53 
 1428      00
 1429              		.section	.text.bmk9_execute,"ax",%progbits
 1430              		.align	2
 1431              		.p2align 4,,15
 1432              		.thumb
 1433              		.thumb_func
 1434              		.type	bmk9_execute, %function
 1435              	bmk9_execute:
 1436              	.LFB22:
 1437              		.loc 1 458 0
 1438              		.cfi_startproc
 1439              		@ args = 0, pretend = 0, frame = 8
 1440              		@ frame_needed = 0, uses_anonymous_args = 0
 1441 0000 00B5     		push	{lr}
 1442              	.LCFI28:
 1443              		.cfi_def_cfa_offset 4
 1444              		.cfi_offset 14, -4
 1445 0002 85B0     		sub	sp, sp, #20
 1446              	.LCFI29:
 1447              		.cfi_def_cfa_offset 24
 1448              		.loc 1 463 0
 1449 0004 4FF00003 		mov	r3, #0
 1450 0008 0093     		str	r3, [sp, #0]
 1451 000a 40F20000 		movw	r0, #:lower16:iq.4832
 1452 000e C0F20000 		movt	r0, #:upper16:iq.4832
 1453 0012 40F20001 		movw	r1, #:lower16:ib.4831
 1454 0016 C0F20001 		movt	r1, #:upper16:ib.4831
 1455 001a 4FF01002 		mov	r2, #16
 1456 001e 4FF00003 		mov	r3, #0
 1457 0022 FFF7FEFF 		bl	chIQInit
 1458              		.loc 1 464 0
 1459 0026 4FF00003 		mov	r3, #0
 1460 002a 0393     		str	r3, [sp, #12]
 1461              		.loc 1 465 0
 1462 002c FFF7FEFF 		bl	test_wait_tick
 1463              		.loc 1 466 0
 1464 0030 4FF47A70 		mov	r0, #1000
 1465 0034 FFF7FEFF 		bl	test_start_timer
ARM GAS  /tmp/ccVdJZXA.s 			page 28


 1466              	.L27:
 1467              	.LBB8:
 1468              		.loc 1 468 0 discriminator 1
 1469 0038 4FF02003 		mov	r3, #32
 1470              	@ 468 "../../test/testbmk.c" 1
 1471 003c 83F31188 		msr     BASEPRI, r3
 1472              	@ 0 "" 2
 1473              		.thumb
 1474              	.LBE8:
 1475 0040 FFF7FEFF 		bl	dbg_check_lock
 1476              		.loc 1 469 0 discriminator 1
 1477 0044 40F20000 		movw	r0, #:lower16:iq.4832
 1478 0048 C0F20000 		movt	r0, #:upper16:iq.4832
 1479 004c 4FF00001 		mov	r1, #0
 1480 0050 FFF7FEFF 		bl	chIQPutI
 1481              		.loc 1 470 0 discriminator 1
 1482 0054 40F20000 		movw	r0, #:lower16:iq.4832
 1483 0058 C0F20000 		movt	r0, #:upper16:iq.4832
 1484 005c 4FF00101 		mov	r1, #1
 1485 0060 FFF7FEFF 		bl	chIQPutI
 1486              		.loc 1 471 0 discriminator 1
 1487 0064 40F20000 		movw	r0, #:lower16:iq.4832
 1488 0068 C0F20000 		movt	r0, #:upper16:iq.4832
 1489 006c 4FF00201 		mov	r1, #2
 1490 0070 FFF7FEFF 		bl	chIQPutI
 1491              		.loc 1 472 0 discriminator 1
 1492 0074 40F20000 		movw	r0, #:lower16:iq.4832
 1493 0078 C0F20000 		movt	r0, #:upper16:iq.4832
 1494 007c 4FF00301 		mov	r1, #3
 1495 0080 FFF7FEFF 		bl	chIQPutI
 1496              		.loc 1 473 0 discriminator 1
 1497 0084 FFF7FEFF 		bl	dbg_check_unlock
 1498              	.LBB9:
 1499 0088 4FF00003 		mov	r3, #0
 1500              	@ 473 "../../test/testbmk.c" 1
 1501 008c 83F31188 		msr     BASEPRI, r3
 1502              	@ 0 "" 2
 1503              		.thumb
 1504              	.LBE9:
 1505              		.loc 1 474 0 discriminator 1
 1506 0090 40F20000 		movw	r0, #:lower16:iq.4832
 1507 0094 C0F20000 		movt	r0, #:upper16:iq.4832
 1508 0098 4FF0FF31 		mov	r1, #-1
 1509 009c FFF7FEFF 		bl	chIQGetTimeout
 1510              		.loc 1 475 0 discriminator 1
 1511 00a0 40F20000 		movw	r0, #:lower16:iq.4832
 1512 00a4 C0F20000 		movt	r0, #:upper16:iq.4832
 1513 00a8 4FF0FF31 		mov	r1, #-1
 1514 00ac FFF7FEFF 		bl	chIQGetTimeout
 1515              		.loc 1 476 0 discriminator 1
 1516 00b0 40F20000 		movw	r0, #:lower16:iq.4832
 1517 00b4 C0F20000 		movt	r0, #:upper16:iq.4832
 1518 00b8 4FF0FF31 		mov	r1, #-1
 1519 00bc FFF7FEFF 		bl	chIQGetTimeout
 1520              		.loc 1 477 0 discriminator 1
 1521 00c0 40F20000 		movw	r0, #:lower16:iq.4832
 1522 00c4 C0F20000 		movt	r0, #:upper16:iq.4832
ARM GAS  /tmp/ccVdJZXA.s 			page 29


 1523 00c8 4FF0FF31 		mov	r1, #-1
 1524 00cc FFF7FEFF 		bl	chIQGetTimeout
 1525              		.loc 1 478 0 discriminator 1
 1526 00d0 039B     		ldr	r3, [sp, #12]
 1527 00d2 03F10103 		add	r3, r3, #1
 1528 00d6 0393     		str	r3, [sp, #12]
 1529              		.loc 1 482 0 discriminator 1
 1530 00d8 40F20003 		movw	r3, #:lower16:test_timer_done
 1531 00dc C0F20003 		movt	r3, #:upper16:test_timer_done
 1532 00e0 1B68     		ldr	r3, [r3, #0]
 1533 00e2 002B     		cmp	r3, #0
 1534 00e4 A8D0     		beq	.L27
 1535              		.loc 1 483 0
 1536 00e6 40F20000 		movw	r0, #:lower16:.LC0
 1537 00ea C0F20000 		movt	r0, #:upper16:.LC0
 1538 00ee FFF7FEFF 		bl	test_print
 1539              		.loc 1 484 0
 1540 00f2 039B     		ldr	r3, [sp, #12]
 1541 00f4 4FEA8303 		lsl	r3, r3, #2
 1542 00f8 1846     		mov	r0, r3
 1543 00fa FFF7FEFF 		bl	test_printn
 1544              		.loc 1 485 0
 1545 00fe 40F20000 		movw	r0, #:lower16:.LC13
 1546 0102 C0F20000 		movt	r0, #:upper16:.LC13
 1547 0106 FFF7FEFF 		bl	test_println
 1548              		.loc 1 486 0
 1549 010a 05B0     		add	sp, sp, #20
 1550 010c 00BD     		pop	{pc}
 1551              		.cfi_endproc
 1552              	.LFE22:
 1553              		.size	bmk9_execute, .-bmk9_execute
 1554              		.global	testbmk9
 1555 010e 00BF     		.section	.rodata
 1556 0149 000000   		.align	2
 1557              	.LC14:
 1558 014c 42656E63 		.ascii	"Benchmark, I/O Queues throughput\000"
 1558      686D6172 
 1558      6B2C2049 
 1558      2F4F2051 
 1558      75657565 
 1559              		.section	.rodata.testbmk9,"a",%progbits
 1560              		.align	2
 1561              		.type	testbmk9, %object
 1562              		.size	testbmk9, 16
 1563              	testbmk9:
 1564 0000 4C010000 		.word	.LC14
 1565 0004 00000000 		.word	0
 1566 0008 00000000 		.word	0
 1567 000c 00000000 		.word	bmk9_execute
 1568              		.section	.text.tmo,"ax",%progbits
 1569              		.align	2
 1570              		.p2align 4,,15
 1571              		.thumb
 1572              		.thumb_func
 1573              		.type	tmo, %function
 1574              	tmo:
 1575              	.LFB23:
ARM GAS  /tmp/ccVdJZXA.s 			page 30


 1576              		.loc 1 504 0
 1577              		.cfi_startproc
 1578              		@ args = 0, pretend = 0, frame = 8
 1579              		@ frame_needed = 0, uses_anonymous_args = 0
 1580              		@ link register save eliminated.
 1581 0000 82B0     		sub	sp, sp, #8
 1582              	.LCFI30:
 1583              		.cfi_def_cfa_offset 8
 1584 0002 0190     		str	r0, [sp, #4]
 1585              		.loc 1 504 0
 1586 0004 02B0     		add	sp, sp, #8
 1587 0006 7047     		bx	lr
 1588              		.cfi_endproc
 1589              	.LFE23:
 1590              		.size	tmo, .-tmo
 1591 0008 AFF30080 		.section	.rodata
 1591      AFF30080 
 1592 016d 000000   		.align	2
 1593              	.LC15:
 1594 0170 2074696D 		.ascii	" timers/S\000"
 1594      6572732F 
 1594      5300
 1595              		.section	.text.bmk10_execute,"ax",%progbits
 1596              		.align	2
 1597              		.p2align 4,,15
 1598              		.thumb
 1599              		.thumb_func
 1600              		.type	bmk10_execute, %function
 1601              	bmk10_execute:
 1602              	.LFB24:
 1603              		.loc 1 506 0
 1604              		.cfi_startproc
 1605              		@ args = 0, pretend = 0, frame = 8
 1606              		@ frame_needed = 0, uses_anonymous_args = 0
 1607 0000 00B5     		push	{lr}
 1608              	.LCFI31:
 1609              		.cfi_def_cfa_offset 4
 1610              		.cfi_offset 14, -4
 1611 0002 83B0     		sub	sp, sp, #12
 1612              	.LCFI32:
 1613              		.cfi_def_cfa_offset 16
 1614              		.loc 1 508 0
 1615 0004 4FF00003 		mov	r3, #0
 1616 0008 0193     		str	r3, [sp, #4]
 1617              		.loc 1 510 0
 1618 000a FFF7FEFF 		bl	test_wait_tick
 1619              		.loc 1 511 0
 1620 000e 4FF47A70 		mov	r0, #1000
 1621 0012 FFF7FEFF 		bl	test_start_timer
 1622              	.L30:
 1623              	.LBB10:
 1624              		.loc 1 513 0 discriminator 1
 1625 0016 4FF02003 		mov	r3, #32
 1626              	@ 513 "../../test/testbmk.c" 1
 1627 001a 83F31188 		msr     BASEPRI, r3
 1628              	@ 0 "" 2
 1629              		.thumb
ARM GAS  /tmp/ccVdJZXA.s 			page 31


 1630              	.LBE10:
 1631 001e FFF7FEFF 		bl	dbg_check_lock
 1632              		.loc 1 514 0 discriminator 1
 1633 0022 40F20000 		movw	r0, #:lower16:vt1.4844
 1634 0026 C0F20000 		movt	r0, #:upper16:vt1.4844
 1635 002a 4FF00101 		mov	r1, #1
 1636 002e 40F20002 		movw	r2, #:lower16:tmo
 1637 0032 C0F20002 		movt	r2, #:upper16:tmo
 1638 0036 4FF00003 		mov	r3, #0
 1639 003a FFF7FEFF 		bl	chVTSetI
 1640              		.loc 1 515 0 discriminator 1
 1641 003e 40F20000 		movw	r0, #:lower16:vt2.4845
 1642 0042 C0F20000 		movt	r0, #:upper16:vt2.4845
 1643 0046 42F21071 		movw	r1, #10000
 1644 004a 40F20002 		movw	r2, #:lower16:tmo
 1645 004e C0F20002 		movt	r2, #:upper16:tmo
 1646 0052 4FF00003 		mov	r3, #0
 1647 0056 FFF7FEFF 		bl	chVTSetI
 1648              		.loc 1 516 0 discriminator 1
 1649 005a 40F20000 		movw	r0, #:lower16:vt1.4844
 1650 005e C0F20000 		movt	r0, #:upper16:vt1.4844
 1651 0062 FFF7FEFF 		bl	chVTResetI
 1652              		.loc 1 517 0 discriminator 1
 1653 0066 40F20000 		movw	r0, #:lower16:vt2.4845
 1654 006a C0F20000 		movt	r0, #:upper16:vt2.4845
 1655 006e FFF7FEFF 		bl	chVTResetI
 1656              		.loc 1 518 0 discriminator 1
 1657 0072 FFF7FEFF 		bl	dbg_check_unlock
 1658              	.LBB11:
 1659 0076 4FF00003 		mov	r3, #0
 1660              	@ 518 "../../test/testbmk.c" 1
 1661 007a 83F31188 		msr     BASEPRI, r3
 1662              	@ 0 "" 2
 1663              		.thumb
 1664              	.LBE11:
 1665              		.loc 1 519 0 discriminator 1
 1666 007e 019B     		ldr	r3, [sp, #4]
 1667 0080 03F10103 		add	r3, r3, #1
 1668 0084 0193     		str	r3, [sp, #4]
 1669              		.loc 1 523 0 discriminator 1
 1670 0086 40F20003 		movw	r3, #:lower16:test_timer_done
 1671 008a C0F20003 		movt	r3, #:upper16:test_timer_done
 1672 008e 1B68     		ldr	r3, [r3, #0]
 1673 0090 002B     		cmp	r3, #0
 1674 0092 C0D0     		beq	.L30
 1675              		.loc 1 524 0
 1676 0094 40F20000 		movw	r0, #:lower16:.LC0
 1677 0098 C0F20000 		movt	r0, #:upper16:.LC0
 1678 009c FFF7FEFF 		bl	test_print
 1679              		.loc 1 525 0
 1680 00a0 019B     		ldr	r3, [sp, #4]
 1681 00a2 4FEA4303 		lsl	r3, r3, #1
 1682 00a6 1846     		mov	r0, r3
 1683 00a8 FFF7FEFF 		bl	test_printn
 1684              		.loc 1 526 0
 1685 00ac 40F20000 		movw	r0, #:lower16:.LC15
 1686 00b0 C0F20000 		movt	r0, #:upper16:.LC15
ARM GAS  /tmp/ccVdJZXA.s 			page 32


 1687 00b4 FFF7FEFF 		bl	test_println
 1688              		.loc 1 527 0
 1689 00b8 03B0     		add	sp, sp, #12
 1690 00ba 00BD     		pop	{pc}
 1691              		.cfi_endproc
 1692              	.LFE24:
 1693              		.size	bmk10_execute, .-bmk10_execute
 1694              		.global	testbmk10
 1695 00bc AFF30080 		.section	.rodata
 1696 017a 0000     		.align	2
 1697              	.LC16:
 1698 017c 42656E63 		.ascii	"Benchmark, virtual timers set/reset\000"
 1698      686D6172 
 1698      6B2C2076 
 1698      69727475 
 1698      616C2074 
 1699              		.section	.rodata.testbmk10,"a",%progbits
 1700              		.align	2
 1701              		.type	testbmk10, %object
 1702              		.size	testbmk10, 16
 1703              	testbmk10:
 1704 0000 7C010000 		.word	.LC16
 1705 0004 00000000 		.word	0
 1706 0008 00000000 		.word	0
 1707 000c 00000000 		.word	bmk10_execute
 1708              		.section	.text.bmk11_setup,"ax",%progbits
 1709              		.align	2
 1710              		.p2align 4,,15
 1711              		.thumb
 1712              		.thumb_func
 1713              		.type	bmk11_setup, %function
 1714              	bmk11_setup:
 1715              	.LFB25:
 1716              		.loc 1 546 0
 1717              		.cfi_startproc
 1718              		@ args = 0, pretend = 0, frame = 0
 1719              		@ frame_needed = 0, uses_anonymous_args = 0
 1720 0000 08B5     		push	{r3, lr}
 1721              	.LCFI33:
 1722              		.cfi_def_cfa_offset 8
 1723              		.cfi_offset 14, -4
 1724              		.cfi_offset 3, -8
 1725              		.loc 1 548 0
 1726 0002 40F20000 		movw	r0, #:lower16:sem1
 1727 0006 C0F20000 		movt	r0, #:upper16:sem1
 1728 000a 4FF00101 		mov	r1, #1
 1729 000e FFF7FEFF 		bl	chSemInit
 1730              		.loc 1 549 0
 1731 0012 08BD     		pop	{r3, pc}
 1732              		.cfi_endproc
 1733              	.LFE25:
 1734              		.size	bmk11_setup, .-bmk11_setup
 1735 0014 AFF30080 		.section	.rodata
 1735      AFF30080 
 1735      AFF30080 
 1736              		.align	2
 1737              	.LC17:
ARM GAS  /tmp/ccVdJZXA.s 			page 33


 1738 01a0 20776169 		.ascii	" wait+signal/S\000"
 1738      742B7369 
 1738      676E616C 
 1738      2F5300
 1739              		.section	.text.bmk11_execute,"ax",%progbits
 1740              		.align	2
 1741              		.p2align 4,,15
 1742              		.thumb
 1743              		.thumb_func
 1744              		.type	bmk11_execute, %function
 1745              	bmk11_execute:
 1746              	.LFB26:
 1747              		.loc 1 551 0
 1748              		.cfi_startproc
 1749              		@ args = 0, pretend = 0, frame = 8
 1750              		@ frame_needed = 0, uses_anonymous_args = 0
 1751 0000 00B5     		push	{lr}
 1752              	.LCFI34:
 1753              		.cfi_def_cfa_offset 4
 1754              		.cfi_offset 14, -4
 1755 0002 83B0     		sub	sp, sp, #12
 1756              	.LCFI35:
 1757              		.cfi_def_cfa_offset 16
 1758              		.loc 1 552 0
 1759 0004 4FF00003 		mov	r3, #0
 1760 0008 0193     		str	r3, [sp, #4]
 1761              		.loc 1 554 0
 1762 000a FFF7FEFF 		bl	test_wait_tick
 1763              		.loc 1 555 0
 1764 000e 4FF47A70 		mov	r0, #1000
 1765 0012 FFF7FEFF 		bl	test_start_timer
 1766              	.L33:
 1767              		.loc 1 557 0 discriminator 1
 1768 0016 40F20000 		movw	r0, #:lower16:sem1
 1769 001a C0F20000 		movt	r0, #:upper16:sem1
 1770 001e FFF7FEFF 		bl	chSemWait
 1771              		.loc 1 558 0 discriminator 1
 1772 0022 40F20000 		movw	r0, #:lower16:sem1
 1773 0026 C0F20000 		movt	r0, #:upper16:sem1
 1774 002a FFF7FEFF 		bl	chSemSignal
 1775              		.loc 1 559 0 discriminator 1
 1776 002e 40F20000 		movw	r0, #:lower16:sem1
 1777 0032 C0F20000 		movt	r0, #:upper16:sem1
 1778 0036 FFF7FEFF 		bl	chSemWait
 1779              		.loc 1 560 0 discriminator 1
 1780 003a 40F20000 		movw	r0, #:lower16:sem1
 1781 003e C0F20000 		movt	r0, #:upper16:sem1
 1782 0042 FFF7FEFF 		bl	chSemSignal
 1783              		.loc 1 561 0 discriminator 1
 1784 0046 40F20000 		movw	r0, #:lower16:sem1
 1785 004a C0F20000 		movt	r0, #:upper16:sem1
 1786 004e FFF7FEFF 		bl	chSemWait
 1787              		.loc 1 562 0 discriminator 1
 1788 0052 40F20000 		movw	r0, #:lower16:sem1
 1789 0056 C0F20000 		movt	r0, #:upper16:sem1
 1790 005a FFF7FEFF 		bl	chSemSignal
 1791              		.loc 1 563 0 discriminator 1
ARM GAS  /tmp/ccVdJZXA.s 			page 34


 1792 005e 40F20000 		movw	r0, #:lower16:sem1
 1793 0062 C0F20000 		movt	r0, #:upper16:sem1
 1794 0066 FFF7FEFF 		bl	chSemWait
 1795              		.loc 1 564 0 discriminator 1
 1796 006a 40F20000 		movw	r0, #:lower16:sem1
 1797 006e C0F20000 		movt	r0, #:upper16:sem1
 1798 0072 FFF7FEFF 		bl	chSemSignal
 1799              		.loc 1 565 0 discriminator 1
 1800 0076 019B     		ldr	r3, [sp, #4]
 1801 0078 03F10103 		add	r3, r3, #1
 1802 007c 0193     		str	r3, [sp, #4]
 1803              		.loc 1 569 0 discriminator 1
 1804 007e 40F20003 		movw	r3, #:lower16:test_timer_done
 1805 0082 C0F20003 		movt	r3, #:upper16:test_timer_done
 1806 0086 1B68     		ldr	r3, [r3, #0]
 1807 0088 002B     		cmp	r3, #0
 1808 008a C4D0     		beq	.L33
 1809              		.loc 1 570 0
 1810 008c 40F20000 		movw	r0, #:lower16:.LC0
 1811 0090 C0F20000 		movt	r0, #:upper16:.LC0
 1812 0094 FFF7FEFF 		bl	test_print
 1813              		.loc 1 571 0
 1814 0098 019B     		ldr	r3, [sp, #4]
 1815 009a 4FEA8303 		lsl	r3, r3, #2
 1816 009e 1846     		mov	r0, r3
 1817 00a0 FFF7FEFF 		bl	test_printn
 1818              		.loc 1 572 0
 1819 00a4 40F20000 		movw	r0, #:lower16:.LC17
 1820 00a8 C0F20000 		movt	r0, #:upper16:.LC17
 1821 00ac FFF7FEFF 		bl	test_println
 1822              		.loc 1 573 0
 1823 00b0 03B0     		add	sp, sp, #12
 1824 00b2 00BD     		pop	{pc}
 1825              		.cfi_endproc
 1826              	.LFE26:
 1827              		.size	bmk11_execute, .-bmk11_execute
 1828              		.global	testbmk11
 1829 00b4 AFF30080 		.section	.rodata
 1829      AFF30080 
 1829      AFF30080 
 1830 01af 00       		.align	2
 1831              	.LC18:
 1832 01b0 42656E63 		.ascii	"Benchmark, semaphores wait/signal\000"
 1832      686D6172 
 1832      6B2C2073 
 1832      656D6170 
 1832      686F7265 
 1833              		.section	.rodata.testbmk11,"a",%progbits
 1834              		.align	2
 1835              		.type	testbmk11, %object
 1836              		.size	testbmk11, 16
 1837              	testbmk11:
 1838 0000 B0010000 		.word	.LC18
 1839 0004 00000000 		.word	bmk11_setup
 1840 0008 00000000 		.word	0
 1841 000c 00000000 		.word	bmk11_execute
 1842              		.section	.text.bmk12_setup,"ax",%progbits
ARM GAS  /tmp/ccVdJZXA.s 			page 35


 1843              		.align	2
 1844              		.p2align 4,,15
 1845              		.thumb
 1846              		.thumb_func
 1847              		.type	bmk12_setup, %function
 1848              	bmk12_setup:
 1849              	.LFB27:
 1850              		.loc 1 593 0
 1851              		.cfi_startproc
 1852              		@ args = 0, pretend = 0, frame = 0
 1853              		@ frame_needed = 0, uses_anonymous_args = 0
 1854 0000 08B5     		push	{r3, lr}
 1855              	.LCFI36:
 1856              		.cfi_def_cfa_offset 8
 1857              		.cfi_offset 14, -4
 1858              		.cfi_offset 3, -8
 1859              		.loc 1 595 0
 1860 0002 40F20000 		movw	r0, #:lower16:mtx1
 1861 0006 C0F20000 		movt	r0, #:upper16:mtx1
 1862 000a FFF7FEFF 		bl	chMtxInit
 1863              		.loc 1 596 0
 1864 000e 08BD     		pop	{r3, pc}
 1865              		.cfi_endproc
 1866              	.LFE27:
 1867              		.size	bmk12_setup, .-bmk12_setup
 1868              		.section	.rodata
 1869 01d2 0000     		.align	2
 1870              	.LC19:
 1871 01d4 206C6F63 		.ascii	" lock+unlock/S\000"
 1871      6B2B756E 
 1871      6C6F636B 
 1871      2F5300
 1872              		.section	.text.bmk12_execute,"ax",%progbits
 1873              		.align	2
 1874              		.p2align 4,,15
 1875              		.thumb
 1876              		.thumb_func
 1877              		.type	bmk12_execute, %function
 1878              	bmk12_execute:
 1879              	.LFB28:
 1880              		.loc 1 598 0
 1881              		.cfi_startproc
 1882              		@ args = 0, pretend = 0, frame = 8
 1883              		@ frame_needed = 0, uses_anonymous_args = 0
 1884 0000 00B5     		push	{lr}
 1885              	.LCFI37:
 1886              		.cfi_def_cfa_offset 4
 1887              		.cfi_offset 14, -4
 1888 0002 83B0     		sub	sp, sp, #12
 1889              	.LCFI38:
 1890              		.cfi_def_cfa_offset 16
 1891              		.loc 1 599 0
 1892 0004 4FF00003 		mov	r3, #0
 1893 0008 0193     		str	r3, [sp, #4]
 1894              		.loc 1 601 0
 1895 000a FFF7FEFF 		bl	test_wait_tick
 1896              		.loc 1 602 0
ARM GAS  /tmp/ccVdJZXA.s 			page 36


 1897 000e 4FF47A70 		mov	r0, #1000
 1898 0012 FFF7FEFF 		bl	test_start_timer
 1899              	.L36:
 1900              		.loc 1 604 0 discriminator 1
 1901 0016 40F20000 		movw	r0, #:lower16:mtx1
 1902 001a C0F20000 		movt	r0, #:upper16:mtx1
 1903 001e FFF7FEFF 		bl	chMtxLock
 1904              		.loc 1 605 0 discriminator 1
 1905 0022 FFF7FEFF 		bl	chMtxUnlock
 1906              		.loc 1 606 0 discriminator 1
 1907 0026 40F20000 		movw	r0, #:lower16:mtx1
 1908 002a C0F20000 		movt	r0, #:upper16:mtx1
 1909 002e FFF7FEFF 		bl	chMtxLock
 1910              		.loc 1 607 0 discriminator 1
 1911 0032 FFF7FEFF 		bl	chMtxUnlock
 1912              		.loc 1 608 0 discriminator 1
 1913 0036 40F20000 		movw	r0, #:lower16:mtx1
 1914 003a C0F20000 		movt	r0, #:upper16:mtx1
 1915 003e FFF7FEFF 		bl	chMtxLock
 1916              		.loc 1 609 0 discriminator 1
 1917 0042 FFF7FEFF 		bl	chMtxUnlock
 1918              		.loc 1 610 0 discriminator 1
 1919 0046 40F20000 		movw	r0, #:lower16:mtx1
 1920 004a C0F20000 		movt	r0, #:upper16:mtx1
 1921 004e FFF7FEFF 		bl	chMtxLock
 1922              		.loc 1 611 0 discriminator 1
 1923 0052 FFF7FEFF 		bl	chMtxUnlock
 1924              		.loc 1 612 0 discriminator 1
 1925 0056 019B     		ldr	r3, [sp, #4]
 1926 0058 03F10103 		add	r3, r3, #1
 1927 005c 0193     		str	r3, [sp, #4]
 1928              		.loc 1 616 0 discriminator 1
 1929 005e 40F20003 		movw	r3, #:lower16:test_timer_done
 1930 0062 C0F20003 		movt	r3, #:upper16:test_timer_done
 1931 0066 1B68     		ldr	r3, [r3, #0]
 1932 0068 002B     		cmp	r3, #0
 1933 006a D4D0     		beq	.L36
 1934              		.loc 1 617 0
 1935 006c 40F20000 		movw	r0, #:lower16:.LC0
 1936 0070 C0F20000 		movt	r0, #:upper16:.LC0
 1937 0074 FFF7FEFF 		bl	test_print
 1938              		.loc 1 618 0
 1939 0078 019B     		ldr	r3, [sp, #4]
 1940 007a 4FEA8303 		lsl	r3, r3, #2
 1941 007e 1846     		mov	r0, r3
 1942 0080 FFF7FEFF 		bl	test_printn
 1943              		.loc 1 619 0
 1944 0084 40F20000 		movw	r0, #:lower16:.LC19
 1945 0088 C0F20000 		movt	r0, #:upper16:.LC19
 1946 008c FFF7FEFF 		bl	test_println
 1947              		.loc 1 620 0
 1948 0090 03B0     		add	sp, sp, #12
 1949 0092 00BD     		pop	{pc}
 1950              		.cfi_endproc
 1951              	.LFE28:
 1952              		.size	bmk12_execute, .-bmk12_execute
 1953              		.global	testbmk12
ARM GAS  /tmp/ccVdJZXA.s 			page 37


 1954 0094 AFF30080 		.section	.rodata
 1954      AFF30080 
 1954      AFF30080 
 1955 01e3 00       		.align	2
 1956              	.LC20:
 1957 01e4 42656E63 		.ascii	"Benchmark, mutexes lock/unlock\000"
 1957      686D6172 
 1957      6B2C206D 
 1957      75746578 
 1957      6573206C 
 1958              		.section	.rodata.testbmk12,"a",%progbits
 1959              		.align	2
 1960              		.type	testbmk12, %object
 1961              		.size	testbmk12, 16
 1962              	testbmk12:
 1963 0000 E4010000 		.word	.LC20
 1964 0004 00000000 		.word	bmk12_setup
 1965 0008 00000000 		.word	0
 1966 000c 00000000 		.word	bmk12_execute
 1967              		.section	.rodata
 1968 0203 00       		.align	2
 1969              	.LC21:
 1970 0204 2D2D2D20 		.ascii	"--- System: \000"
 1970      53797374 
 1970      656D3A20 
 1970      00
 1971 0211 000000   		.align	2
 1972              	.LC22:
 1973 0214 20627974 		.ascii	" bytes\000"
 1973      657300
 1974 021b 00       		.align	2
 1975              	.LC23:
 1976 021c 2D2D2D20 		.ascii	"--- Thread: \000"
 1976      54687265 
 1976      61643A20 
 1976      00
 1977 0229 000000   		.align	2
 1978              	.LC24:
 1979 022c 2D2D2D20 		.ascii	"--- Timer : \000"
 1979      54696D65 
 1979      72203A20 
 1979      00
 1980 0239 000000   		.align	2
 1981              	.LC25:
 1982 023c 2D2D2D20 		.ascii	"--- Semaph: \000"
 1982      53656D61 
 1982      70683A20 
 1982      00
 1983 0249 000000   		.align	2
 1984              	.LC26:
 1985 024c 2D2D2D20 		.ascii	"--- EventS: \000"
 1985      4576656E 
 1985      74533A20 
 1985      00
 1986 0259 000000   		.align	2
 1987              	.LC27:
 1988 025c 2D2D2D20 		.ascii	"--- EventL: \000"
ARM GAS  /tmp/ccVdJZXA.s 			page 38


 1988      4576656E 
 1988      744C3A20 
 1988      00
 1989 0269 000000   		.align	2
 1990              	.LC28:
 1991 026c 2D2D2D20 		.ascii	"--- Mutex : \000"
 1991      4D757465 
 1991      78203A20 
 1991      00
 1992 0279 000000   		.align	2
 1993              	.LC29:
 1994 027c 2D2D2D20 		.ascii	"--- CondV.: \000"
 1994      436F6E64 
 1994      562E3A20 
 1994      00
 1995 0289 000000   		.align	2
 1996              	.LC30:
 1997 028c 2D2D2D20 		.ascii	"--- Queue : \000"
 1997      51756575 
 1997      65203A20 
 1997      00
 1998 0299 000000   		.align	2
 1999              	.LC31:
 2000 029c 2D2D2D20 		.ascii	"--- MailB.: \000"
 2000      4D61696C 
 2000      422E3A20 
 2000      00
 2001              		.section	.text.bmk13_execute,"ax",%progbits
 2002              		.align	2
 2003              		.p2align 4,,15
 2004              		.thumb
 2005              		.thumb_func
 2006              		.type	bmk13_execute, %function
 2007              	bmk13_execute:
 2008              	.LFB29:
 2009              		.loc 1 637 0
 2010              		.cfi_startproc
 2011              		@ args = 0, pretend = 0, frame = 0
 2012              		@ frame_needed = 0, uses_anonymous_args = 0
 2013 0000 08B5     		push	{r3, lr}
 2014              	.LCFI39:
 2015              		.cfi_def_cfa_offset 8
 2016              		.cfi_offset 14, -4
 2017              		.cfi_offset 3, -8
 2018              		.loc 1 639 0
 2019 0002 40F20000 		movw	r0, #:lower16:.LC21
 2020 0006 C0F20000 		movt	r0, #:upper16:.LC21
 2021 000a FFF7FEFF 		bl	test_print
 2022              		.loc 1 640 0
 2023 000e 4FF4CE70 		mov	r0, #412
 2024 0012 FFF7FEFF 		bl	test_printn
 2025              		.loc 1 645 0
 2026 0016 40F20000 		movw	r0, #:lower16:.LC22
 2027 001a C0F20000 		movt	r0, #:upper16:.LC22
 2028 001e FFF7FEFF 		bl	test_println
 2029              		.loc 1 646 0
 2030 0022 40F20000 		movw	r0, #:lower16:.LC23
ARM GAS  /tmp/ccVdJZXA.s 			page 39


 2031 0026 C0F20000 		movt	r0, #:upper16:.LC23
 2032 002a FFF7FEFF 		bl	test_print
 2033              		.loc 1 647 0
 2034 002e 4FF04C00 		mov	r0, #76
 2035 0032 FFF7FEFF 		bl	test_printn
 2036              		.loc 1 648 0
 2037 0036 40F20000 		movw	r0, #:lower16:.LC22
 2038 003a C0F20000 		movt	r0, #:upper16:.LC22
 2039 003e FFF7FEFF 		bl	test_println
 2040              		.loc 1 649 0
 2041 0042 40F20000 		movw	r0, #:lower16:.LC24
 2042 0046 C0F20000 		movt	r0, #:upper16:.LC24
 2043 004a FFF7FEFF 		bl	test_print
 2044              		.loc 1 650 0
 2045 004e 4FF01400 		mov	r0, #20
 2046 0052 FFF7FEFF 		bl	test_printn
 2047              		.loc 1 651 0
 2048 0056 40F20000 		movw	r0, #:lower16:.LC22
 2049 005a C0F20000 		movt	r0, #:upper16:.LC22
 2050 005e FFF7FEFF 		bl	test_println
 2051              		.loc 1 652 0
 2052 0062 40F20000 		movw	r0, #:lower16:.LC25
 2053 0066 C0F20000 		movt	r0, #:upper16:.LC25
 2054 006a FFF7FEFF 		bl	test_print
 2055              		.loc 1 653 0
 2056 006e 4FF00C00 		mov	r0, #12
 2057 0072 FFF7FEFF 		bl	test_printn
 2058              		.loc 1 654 0
 2059 0076 40F20000 		movw	r0, #:lower16:.LC22
 2060 007a C0F20000 		movt	r0, #:upper16:.LC22
 2061 007e FFF7FEFF 		bl	test_println
 2062              		.loc 1 656 0
 2063 0082 40F20000 		movw	r0, #:lower16:.LC26
 2064 0086 C0F20000 		movt	r0, #:upper16:.LC26
 2065 008a FFF7FEFF 		bl	test_print
 2066              		.loc 1 657 0
 2067 008e 4FF00400 		mov	r0, #4
 2068 0092 FFF7FEFF 		bl	test_printn
 2069              		.loc 1 658 0
 2070 0096 40F20000 		movw	r0, #:lower16:.LC22
 2071 009a C0F20000 		movt	r0, #:upper16:.LC22
 2072 009e FFF7FEFF 		bl	test_println
 2073              		.loc 1 659 0
 2074 00a2 40F20000 		movw	r0, #:lower16:.LC27
 2075 00a6 C0F20000 		movt	r0, #:upper16:.LC27
 2076 00aa FFF7FEFF 		bl	test_print
 2077              		.loc 1 660 0
 2078 00ae 4FF00C00 		mov	r0, #12
 2079 00b2 FFF7FEFF 		bl	test_printn
 2080              		.loc 1 661 0
 2081 00b6 40F20000 		movw	r0, #:lower16:.LC22
 2082 00ba C0F20000 		movt	r0, #:upper16:.LC22
 2083 00be FFF7FEFF 		bl	test_println
 2084              		.loc 1 664 0
 2085 00c2 40F20000 		movw	r0, #:lower16:.LC28
 2086 00c6 C0F20000 		movt	r0, #:upper16:.LC28
 2087 00ca FFF7FEFF 		bl	test_print
ARM GAS  /tmp/ccVdJZXA.s 			page 40


 2088              		.loc 1 665 0
 2089 00ce 4FF01000 		mov	r0, #16
 2090 00d2 FFF7FEFF 		bl	test_printn
 2091              		.loc 1 666 0
 2092 00d6 40F20000 		movw	r0, #:lower16:.LC22
 2093 00da C0F20000 		movt	r0, #:upper16:.LC22
 2094 00de FFF7FEFF 		bl	test_println
 2095              		.loc 1 669 0
 2096 00e2 40F20000 		movw	r0, #:lower16:.LC29
 2097 00e6 C0F20000 		movt	r0, #:upper16:.LC29
 2098 00ea FFF7FEFF 		bl	test_print
 2099              		.loc 1 670 0
 2100 00ee 4FF00800 		mov	r0, #8
 2101 00f2 FFF7FEFF 		bl	test_printn
 2102              		.loc 1 671 0
 2103 00f6 40F20000 		movw	r0, #:lower16:.LC22
 2104 00fa C0F20000 		movt	r0, #:upper16:.LC22
 2105 00fe FFF7FEFF 		bl	test_println
 2106              		.loc 1 674 0
 2107 0102 40F20000 		movw	r0, #:lower16:.LC30
 2108 0106 C0F20000 		movt	r0, #:upper16:.LC30
 2109 010a FFF7FEFF 		bl	test_print
 2110              		.loc 1 675 0
 2111 010e 4FF02400 		mov	r0, #36
 2112 0112 FFF7FEFF 		bl	test_printn
 2113              		.loc 1 676 0
 2114 0116 40F20000 		movw	r0, #:lower16:.LC22
 2115 011a C0F20000 		movt	r0, #:upper16:.LC22
 2116 011e FFF7FEFF 		bl	test_println
 2117              		.loc 1 679 0
 2118 0122 40F20000 		movw	r0, #:lower16:.LC31
 2119 0126 C0F20000 		movt	r0, #:upper16:.LC31
 2120 012a FFF7FEFF 		bl	test_print
 2121              		.loc 1 680 0
 2122 012e 4FF02800 		mov	r0, #40
 2123 0132 FFF7FEFF 		bl	test_printn
 2124              		.loc 1 681 0
 2125 0136 40F20000 		movw	r0, #:lower16:.LC22
 2126 013a C0F20000 		movt	r0, #:upper16:.LC22
 2127 013e FFF7FEFF 		bl	test_println
 2128              		.loc 1 683 0
 2129 0142 08BD     		pop	{r3, pc}
 2130              		.cfi_endproc
 2131              	.LFE29:
 2132              		.size	bmk13_execute, .-bmk13_execute
 2133              		.global	testbmk13
 2134 0144 AFF30080 		.section	.rodata
 2134      AFF30080 
 2134      AFF30080 
 2135 02a9 000000   		.align	2
 2136              	.LC32:
 2137 02ac 42656E63 		.ascii	"Benchmark, RAM footprint\000"
 2137      686D6172 
 2137      6B2C2052 
 2137      414D2066 
 2137      6F6F7470 
 2138 02c5 000000   		.section	.rodata.testbmk13,"a",%progbits
ARM GAS  /tmp/ccVdJZXA.s 			page 41


 2139              		.align	2
 2140              		.type	testbmk13, %object
 2141              		.size	testbmk13, 16
 2142              	testbmk13:
 2143 0000 AC020000 		.word	.LC32
 2144 0004 00000000 		.word	0
 2145 0008 00000000 		.word	0
 2146 000c 00000000 		.word	bmk13_execute
 2147              		.global	patternbmk
 2148              		.section	.rodata.patternbmk,"a",%progbits
 2149              		.align	2
 2150              		.type	patternbmk, %object
 2151              		.size	patternbmk, 56
 2152              	patternbmk:
 2153 0000 00000000 		.word	testbmk1
 2154 0004 00000000 		.word	testbmk2
 2155 0008 00000000 		.word	testbmk3
 2156 000c 00000000 		.word	testbmk4
 2157 0010 00000000 		.word	testbmk5
 2158 0014 00000000 		.word	testbmk6
 2159 0018 00000000 		.word	testbmk7
 2160 001c 00000000 		.word	testbmk8
 2161 0020 00000000 		.word	testbmk9
 2162 0024 00000000 		.word	testbmk10
 2163 0028 00000000 		.word	testbmk11
 2164 002c 00000000 		.word	testbmk12
 2165 0030 00000000 		.word	testbmk13
 2166 0034 00000000 		.word	0
 2167              		.section	.bss.vt1.4844,"aw",%nobits
 2168              		.align	2
 2169              		.type	vt1.4844, %object
 2170              		.size	vt1.4844, 20
 2171              	vt1.4844:
 2172 0000 00000000 		.space	20
 2172      00000000 
 2172      00000000 
 2172      00000000 
 2172      00000000 
 2173              		.section	.bss.vt2.4845,"aw",%nobits
 2174              		.align	2
 2175              		.type	vt2.4845, %object
 2176              		.size	vt2.4845, 20
 2177              	vt2.4845:
 2178 0000 00000000 		.space	20
 2178      00000000 
 2178      00000000 
 2178      00000000 
 2178      00000000 
 2179              		.section	.bss.iq.4832,"aw",%nobits
 2180              		.align	2
 2181              		.type	iq.4832, %object
 2182              		.size	iq.4832, 36
 2183              	iq.4832:
 2184 0000 00000000 		.space	36
 2184      00000000 
 2184      00000000 
 2184      00000000 
ARM GAS  /tmp/ccVdJZXA.s 			page 42


 2184      00000000 
 2185              		.section	.bss.ib.4831,"aw",%nobits
 2186              		.align	2
 2187              		.type	ib.4831, %object
 2188              		.size	ib.4831, 16
 2189              	ib.4831:
 2190 0000 00000000 		.space	16
 2190      00000000 
 2190      00000000 
 2190      00000000 
 2191              		.text
 2192              	.Letext0:
 2193              		.file 2 "/home/texzk/ChibiStudio/tools/GNU Tools ARM Embedded/4.6 2012q2/bin/../lib/gcc/arm-none-e
 2194              		.file 3 "/home/texzk/ChibiStudio/tools/GNU Tools ARM Embedded/4.6 2012q2/bin/../lib/gcc/arm-none-e
 2195              		.file 4 "../../os/ports/GCC/ARMCMx/chtypes.h"
 2196              		.file 5 "../../os/kernel/include/chlists.h"
 2197              		.file 6 "../../os/kernel/include/chthreads.h"
 2198              		.file 7 "../../os/ports/GCC/ARMCMx/chcore_v7m.h"
 2199              		.file 8 "../../os/kernel/include/chvt.h"
 2200              		.file 9 "../../os/kernel/include/chschd.h"
 2201              		.file 10 "../../os/kernel/include/chsem.h"
 2202              		.file 11 "../../os/kernel/include/chmtx.h"
 2203              		.file 12 "../../os/kernel/include/chqueues.h"
 2204              		.file 13 "../../test/test.h"