ARM GAS  /tmp/ccskAj9V.s 			page 1


   1              		.syntax unified
   2              		.cpu cortex-m3
   3              		.fpu softvfp
   4              		.eabi_attribute 20, 1
   5              		.eabi_attribute 21, 1
   6              		.eabi_attribute 23, 3
   7              		.eabi_attribute 24, 1
   8              		.eabi_attribute 25, 1
   9              		.eabi_attribute 26, 1
  10              		.eabi_attribute 30, 6
  11              		.eabi_attribute 34, 1
  12              		.eabi_attribute 18, 4
  13              		.thumb
  14              		.file	"testmtx.c"
  15              		.text
  16              	.Ltext0:
  17              		.cfi_sections	.debug_frame
  18              		.section	.data.m1,"aw",%progbits
  19              		.align	2
  20              		.type	m1, %object
  21              		.size	m1, 16
  22              	m1:
  23 0000 00000000 		.word	m1
  24 0004 00000000 		.word	m1
  25 0008 00000000 		.word	0
  26 000c 00000000 		.word	0
  27              		.section	.data.m2,"aw",%progbits
  28              		.align	2
  29              		.type	m2, %object
  30              		.size	m2, 16
  31              	m2:
  32 0000 00000000 		.word	m2
  33 0004 00000000 		.word	m2
  34 0008 00000000 		.word	0
  35 000c 00000000 		.word	0
  36              		.section	.data.c1,"aw",%progbits
  37              		.align	2
  38              		.type	c1, %object
  39              		.size	c1, 8
  40              	c1:
  41 0000 00000000 		.word	c1
  42 0004 00000000 		.word	c1
  43              		.section	.text.mtx1_setup,"ax",%progbits
  44              		.align	2
  45              		.p2align 4,,15
  46              		.thumb
  47              		.thumb_func
  48              		.type	mtx1_setup, %function
  49              	mtx1_setup:
  50              	.LFB7:
  51              		.file 1 "../../test/testmtx.c"
  52              		.loc 1 88 0
  53              		.cfi_startproc
  54              		@ args = 0, pretend = 0, frame = 0
  55              		@ frame_needed = 0, uses_anonymous_args = 0
  56 0000 08B5     		push	{r3, lr}
  57              	.LCFI0:
ARM GAS  /tmp/ccskAj9V.s 			page 2


  58              		.cfi_def_cfa_offset 8
  59              		.cfi_offset 14, -4
  60              		.cfi_offset 3, -8
  61              		.loc 1 90 0
  62 0002 40F20000 		movw	r0, #:lower16:m1
  63 0006 C0F20000 		movt	r0, #:upper16:m1
  64 000a FFF7FEFF 		bl	chMtxInit
  65              		.loc 1 91 0
  66 000e 08BD     		pop	{r3, pc}
  67              		.cfi_endproc
  68              	.LFE7:
  69              		.size	mtx1_setup, .-mtx1_setup
  70              		.section	.text.thread1,"ax",%progbits
  71              		.align	2
  72              		.p2align 4,,15
  73              		.thumb
  74              		.thumb_func
  75              		.type	thread1, %function
  76              	thread1:
  77              	.LFB8:
  78              		.loc 1 93 0
  79              		.cfi_startproc
  80              		@ args = 0, pretend = 0, frame = 8
  81              		@ frame_needed = 0, uses_anonymous_args = 0
  82 0000 00B5     		push	{lr}
  83              	.LCFI1:
  84              		.cfi_def_cfa_offset 4
  85              		.cfi_offset 14, -4
  86 0002 83B0     		sub	sp, sp, #12
  87              	.LCFI2:
  88              		.cfi_def_cfa_offset 16
  89 0004 0190     		str	r0, [sp, #4]
  90              		.loc 1 95 0
  91 0006 40F20000 		movw	r0, #:lower16:m1
  92 000a C0F20000 		movt	r0, #:upper16:m1
  93 000e FFF7FEFF 		bl	chMtxLock
  94              		.loc 1 96 0
  95 0012 019B     		ldr	r3, [sp, #4]
  96 0014 1B78     		ldrb	r3, [r3, #0]	@ zero_extendqisi2
  97 0016 1846     		mov	r0, r3
  98 0018 FFF7FEFF 		bl	test_emit_token
  99              		.loc 1 97 0
 100 001c FFF7FEFF 		bl	chMtxUnlock
 101              		.loc 1 98 0
 102 0020 4FF00003 		mov	r3, #0
 103              		.loc 1 99 0
 104 0024 1846     		mov	r0, r3
 105 0026 03B0     		add	sp, sp, #12
 106 0028 00BD     		pop	{pc}
 107              		.cfi_endproc
 108              	.LFE8:
 109              		.size	thread1, .-thread1
 110 002a 00BFAFF3 		.section	.rodata
 110      0080
 111              		.align	2
 112              	.LC0:
 113 0000 4500     		.ascii	"E\000"
ARM GAS  /tmp/ccskAj9V.s 			page 3


 114 0002 0000     		.align	2
 115              	.LC1:
 116 0004 4400     		.ascii	"D\000"
 117 0006 0000     		.align	2
 118              	.LC2:
 119 0008 4300     		.ascii	"C\000"
 120 000a 0000     		.align	2
 121              	.LC3:
 122 000c 4200     		.ascii	"B\000"
 123 000e 0000     		.align	2
 124              	.LC4:
 125 0010 4100     		.ascii	"A\000"
 126 0012 0000     		.align	2
 127              	.LC5:
 128 0014 41424344 		.ascii	"ABCDE\000"
 128      4500
 129              		.section	.text.mtx1_execute,"ax",%progbits
 130              		.align	2
 131              		.p2align 4,,15
 132              		.thumb
 133              		.thumb_func
 134              		.type	mtx1_execute, %function
 135              	mtx1_execute:
 136              	.LFB9:
 137              		.loc 1 101 0
 138              		.cfi_startproc
 139              		@ args = 0, pretend = 0, frame = 8
 140              		@ frame_needed = 0, uses_anonymous_args = 0
 141 0000 00B5     		push	{lr}
 142              	.LCFI3:
 143              		.cfi_def_cfa_offset 4
 144              		.cfi_offset 14, -4
 145 0002 85B0     		sub	sp, sp, #20
 146              	.LCFI4:
 147              		.cfi_def_cfa_offset 24
 148              		.loc 1 103 0
 149 0004 40F20003 		movw	r3, #:lower16:rlist
 150 0008 C0F20003 		movt	r3, #:upper16:rlist
 151 000c 9B69     		ldr	r3, [r3, #24]
 152 000e 9B68     		ldr	r3, [r3, #8]
 153 0010 0393     		str	r3, [sp, #12]
 154              		.loc 1 104 0
 155 0012 40F20000 		movw	r0, #:lower16:m1
 156 0016 C0F20000 		movt	r0, #:upper16:m1
 157 001a FFF7FEFF 		bl	chMtxLock
 158              		.loc 1 105 0
 159 001e 40F20003 		movw	r3, #:lower16:wa
 160 0022 C0F20003 		movt	r3, #:upper16:wa
 161 0026 1968     		ldr	r1, [r3, #0]
 162 0028 039B     		ldr	r3, [sp, #12]
 163 002a 03F10102 		add	r2, r3, #1
 164 002e 40F20003 		movw	r3, #:lower16:.LC0
 165 0032 C0F20003 		movt	r3, #:upper16:.LC0
 166 0036 0093     		str	r3, [sp, #0]
 167 0038 0846     		mov	r0, r1
 168 003a 4FF49871 		mov	r1, #304
 169 003e 40F20003 		movw	r3, #:lower16:thread1
ARM GAS  /tmp/ccskAj9V.s 			page 4


 170 0042 C0F20003 		movt	r3, #:upper16:thread1
 171 0046 FFF7FEFF 		bl	chThdCreateStatic
 172 004a 0246     		mov	r2, r0
 173 004c 40F20003 		movw	r3, #:lower16:threads
 174 0050 C0F20003 		movt	r3, #:upper16:threads
 175 0054 1A60     		str	r2, [r3, #0]
 176              		.loc 1 106 0
 177 0056 40F20003 		movw	r3, #:lower16:wa
 178 005a C0F20003 		movt	r3, #:upper16:wa
 179 005e 5968     		ldr	r1, [r3, #4]
 180 0060 039B     		ldr	r3, [sp, #12]
 181 0062 03F10202 		add	r2, r3, #2
 182 0066 40F20003 		movw	r3, #:lower16:.LC1
 183 006a C0F20003 		movt	r3, #:upper16:.LC1
 184 006e 0093     		str	r3, [sp, #0]
 185 0070 0846     		mov	r0, r1
 186 0072 4FF49871 		mov	r1, #304
 187 0076 40F20003 		movw	r3, #:lower16:thread1
 188 007a C0F20003 		movt	r3, #:upper16:thread1
 189 007e FFF7FEFF 		bl	chThdCreateStatic
 190 0082 0246     		mov	r2, r0
 191 0084 40F20003 		movw	r3, #:lower16:threads
 192 0088 C0F20003 		movt	r3, #:upper16:threads
 193 008c 5A60     		str	r2, [r3, #4]
 194              		.loc 1 107 0
 195 008e 40F20003 		movw	r3, #:lower16:wa
 196 0092 C0F20003 		movt	r3, #:upper16:wa
 197 0096 9968     		ldr	r1, [r3, #8]
 198 0098 039B     		ldr	r3, [sp, #12]
 199 009a 03F10302 		add	r2, r3, #3
 200 009e 40F20003 		movw	r3, #:lower16:.LC2
 201 00a2 C0F20003 		movt	r3, #:upper16:.LC2
 202 00a6 0093     		str	r3, [sp, #0]
 203 00a8 0846     		mov	r0, r1
 204 00aa 4FF49871 		mov	r1, #304
 205 00ae 40F20003 		movw	r3, #:lower16:thread1
 206 00b2 C0F20003 		movt	r3, #:upper16:thread1
 207 00b6 FFF7FEFF 		bl	chThdCreateStatic
 208 00ba 0246     		mov	r2, r0
 209 00bc 40F20003 		movw	r3, #:lower16:threads
 210 00c0 C0F20003 		movt	r3, #:upper16:threads
 211 00c4 9A60     		str	r2, [r3, #8]
 212              		.loc 1 108 0
 213 00c6 40F20003 		movw	r3, #:lower16:wa
 214 00ca C0F20003 		movt	r3, #:upper16:wa
 215 00ce D968     		ldr	r1, [r3, #12]
 216 00d0 039B     		ldr	r3, [sp, #12]
 217 00d2 03F10402 		add	r2, r3, #4
 218 00d6 40F20003 		movw	r3, #:lower16:.LC3
 219 00da C0F20003 		movt	r3, #:upper16:.LC3
 220 00de 0093     		str	r3, [sp, #0]
 221 00e0 0846     		mov	r0, r1
 222 00e2 4FF49871 		mov	r1, #304
 223 00e6 40F20003 		movw	r3, #:lower16:thread1
 224 00ea C0F20003 		movt	r3, #:upper16:thread1
 225 00ee FFF7FEFF 		bl	chThdCreateStatic
 226 00f2 0246     		mov	r2, r0
ARM GAS  /tmp/ccskAj9V.s 			page 5


 227 00f4 40F20003 		movw	r3, #:lower16:threads
 228 00f8 C0F20003 		movt	r3, #:upper16:threads
 229 00fc DA60     		str	r2, [r3, #12]
 230              		.loc 1 109 0
 231 00fe 40F20003 		movw	r3, #:lower16:wa
 232 0102 C0F20003 		movt	r3, #:upper16:wa
 233 0106 1969     		ldr	r1, [r3, #16]
 234 0108 039B     		ldr	r3, [sp, #12]
 235 010a 03F10502 		add	r2, r3, #5
 236 010e 40F20003 		movw	r3, #:lower16:.LC4
 237 0112 C0F20003 		movt	r3, #:upper16:.LC4
 238 0116 0093     		str	r3, [sp, #0]
 239 0118 0846     		mov	r0, r1
 240 011a 4FF49871 		mov	r1, #304
 241 011e 40F20003 		movw	r3, #:lower16:thread1
 242 0122 C0F20003 		movt	r3, #:upper16:thread1
 243 0126 FFF7FEFF 		bl	chThdCreateStatic
 244 012a 0246     		mov	r2, r0
 245 012c 40F20003 		movw	r3, #:lower16:threads
 246 0130 C0F20003 		movt	r3, #:upper16:threads
 247 0134 1A61     		str	r2, [r3, #16]
 248              		.loc 1 110 0
 249 0136 FFF7FEFF 		bl	chMtxUnlock
 250              		.loc 1 111 0
 251 013a FFF7FEFF 		bl	test_wait_threads
 252              		.loc 1 112 0
 253 013e 40F20003 		movw	r3, #:lower16:rlist
 254 0142 C0F20003 		movt	r3, #:upper16:rlist
 255 0146 9B69     		ldr	r3, [r3, #24]
 256 0148 9A68     		ldr	r2, [r3, #8]
 257 014a 039B     		ldr	r3, [sp, #12]
 258 014c 9A42     		cmp	r2, r3
 259 014e 14BF     		ite	ne
 260 0150 0023     		movne	r3, #0
 261 0152 0123     		moveq	r3, #1
 262 0154 4FF00100 		mov	r0, #1
 263 0158 1946     		mov	r1, r3
 264 015a FFF7FEFF 		bl	_test_assert
 265 015e 0346     		mov	r3, r0
 266 0160 002B     		cmp	r3, #0
 267 0162 09D1     		bne	.L3
 268              	.L4:
 269              		.loc 1 113 0
 270 0164 4FF00200 		mov	r0, #2
 271 0168 40F20001 		movw	r1, #:lower16:.LC5
 272 016c C0F20001 		movt	r1, #:upper16:.LC5
 273 0170 FFF7FEFF 		bl	_test_assert_sequence
 274 0174 0346     		mov	r3, r0
 275 0176 002B     		cmp	r3, #0
 276              	.L3:
 277              		.loc 1 114 0
 278 0178 05B0     		add	sp, sp, #20
 279 017a 00BD     		pop	{pc}
 280              		.cfi_endproc
 281              	.LFE9:
 282              		.size	mtx1_execute, .-mtx1_execute
 283              		.global	testmtx1
ARM GAS  /tmp/ccskAj9V.s 			page 6


 284 017c AFF30080 		.section	.rodata
 285 001a 0000     		.align	2
 286              	.LC6:
 287 001c 4D757465 		.ascii	"Mutexes, priority enqueuing test\000"
 287      7865732C 
 287      20707269 
 287      6F726974 
 287      7920656E 
 288              		.section	.rodata.testmtx1,"a",%progbits
 289              		.align	2
 290              		.type	testmtx1, %object
 291              		.size	testmtx1, 16
 292              	testmtx1:
 293 0000 1C000000 		.word	.LC6
 294 0004 00000000 		.word	mtx1_setup
 295 0008 00000000 		.word	0
 296 000c 00000000 		.word	mtx1_execute
 297              		.section	.text.mtx2_setup,"ax",%progbits
 298              		.align	2
 299              		.p2align 4,,15
 300              		.thumb
 301              		.thumb_func
 302              		.type	mtx2_setup, %function
 303              	mtx2_setup:
 304              	.LFB10:
 305              		.loc 1 155 0
 306              		.cfi_startproc
 307              		@ args = 0, pretend = 0, frame = 0
 308              		@ frame_needed = 0, uses_anonymous_args = 0
 309 0000 08B5     		push	{r3, lr}
 310              	.LCFI5:
 311              		.cfi_def_cfa_offset 8
 312              		.cfi_offset 14, -4
 313              		.cfi_offset 3, -8
 314              		.loc 1 157 0
 315 0002 40F20000 		movw	r0, #:lower16:m1
 316 0006 C0F20000 		movt	r0, #:upper16:m1
 317 000a FFF7FEFF 		bl	chMtxInit
 318              		.loc 1 158 0
 319 000e 08BD     		pop	{r3, pc}
 320              		.cfi_endproc
 321              	.LFE10:
 322              		.size	mtx2_setup, .-mtx2_setup
 323              		.section	.text.thread2L,"ax",%progbits
 324              		.align	2
 325              		.p2align 4,,15
 326              		.thumb
 327              		.thumb_func
 328              		.type	thread2L, %function
 329              	thread2L:
 330              	.LFB11:
 331              		.loc 1 161 0
 332              		.cfi_startproc
 333              		@ args = 0, pretend = 0, frame = 8
 334              		@ frame_needed = 0, uses_anonymous_args = 0
 335 0000 00B5     		push	{lr}
 336              	.LCFI6:
ARM GAS  /tmp/ccskAj9V.s 			page 7


 337              		.cfi_def_cfa_offset 4
 338              		.cfi_offset 14, -4
 339 0002 83B0     		sub	sp, sp, #12
 340              	.LCFI7:
 341              		.cfi_def_cfa_offset 16
 342 0004 0190     		str	r0, [sp, #4]
 343              		.loc 1 164 0
 344 0006 40F20000 		movw	r0, #:lower16:m1
 345 000a C0F20000 		movt	r0, #:upper16:m1
 346 000e FFF7FEFF 		bl	chMtxLock
 347              		.loc 1 165 0
 348 0012 4FF02800 		mov	r0, #40
 349 0016 FFF7FEFF 		bl	test_cpu_pulse
 350              		.loc 1 166 0
 351 001a FFF7FEFF 		bl	chMtxUnlock
 352              		.loc 1 167 0
 353 001e 4FF00A00 		mov	r0, #10
 354 0022 FFF7FEFF 		bl	test_cpu_pulse
 355              		.loc 1 168 0
 356 0026 4FF04300 		mov	r0, #67
 357 002a FFF7FEFF 		bl	test_emit_token
 358              		.loc 1 169 0
 359 002e 4FF00003 		mov	r3, #0
 360              		.loc 1 170 0
 361 0032 1846     		mov	r0, r3
 362 0034 03B0     		add	sp, sp, #12
 363 0036 00BD     		pop	{pc}
 364              		.cfi_endproc
 365              	.LFE11:
 366              		.size	thread2L, .-thread2L
 367 0038 AFF30080 		.section	.text.thread2M,"ax",%progbits
 367      AFF30080 
 368              		.align	2
 369              		.p2align 4,,15
 370              		.thumb
 371              		.thumb_func
 372              		.type	thread2M, %function
 373              	thread2M:
 374              	.LFB12:
 375              		.loc 1 173 0
 376              		.cfi_startproc
 377              		@ args = 0, pretend = 0, frame = 8
 378              		@ frame_needed = 0, uses_anonymous_args = 0
 379 0000 00B5     		push	{lr}
 380              	.LCFI8:
 381              		.cfi_def_cfa_offset 4
 382              		.cfi_offset 14, -4
 383 0002 83B0     		sub	sp, sp, #12
 384              	.LCFI9:
 385              		.cfi_def_cfa_offset 16
 386 0004 0190     		str	r0, [sp, #4]
 387              		.loc 1 176 0
 388 0006 4FF01400 		mov	r0, #20
 389 000a FFF7FEFF 		bl	chThdSleep
 390              		.loc 1 177 0
 391 000e 4FF02800 		mov	r0, #40
 392 0012 FFF7FEFF 		bl	test_cpu_pulse
ARM GAS  /tmp/ccskAj9V.s 			page 8


 393              		.loc 1 178 0
 394 0016 4FF04200 		mov	r0, #66
 395 001a FFF7FEFF 		bl	test_emit_token
 396              		.loc 1 179 0
 397 001e 4FF00003 		mov	r3, #0
 398              		.loc 1 180 0
 399 0022 1846     		mov	r0, r3
 400 0024 03B0     		add	sp, sp, #12
 401 0026 00BD     		pop	{pc}
 402              		.cfi_endproc
 403              	.LFE12:
 404              		.size	thread2M, .-thread2M
 405 0028 AFF30080 		.section	.text.thread2H,"ax",%progbits
 405      AFF30080 
 406              		.align	2
 407              		.p2align 4,,15
 408              		.thumb
 409              		.thumb_func
 410              		.type	thread2H, %function
 411              	thread2H:
 412              	.LFB13:
 413              		.loc 1 183 0
 414              		.cfi_startproc
 415              		@ args = 0, pretend = 0, frame = 8
 416              		@ frame_needed = 0, uses_anonymous_args = 0
 417 0000 00B5     		push	{lr}
 418              	.LCFI10:
 419              		.cfi_def_cfa_offset 4
 420              		.cfi_offset 14, -4
 421 0002 83B0     		sub	sp, sp, #12
 422              	.LCFI11:
 423              		.cfi_def_cfa_offset 16
 424 0004 0190     		str	r0, [sp, #4]
 425              		.loc 1 186 0
 426 0006 4FF02800 		mov	r0, #40
 427 000a FFF7FEFF 		bl	chThdSleep
 428              		.loc 1 187 0
 429 000e 40F20000 		movw	r0, #:lower16:m1
 430 0012 C0F20000 		movt	r0, #:upper16:m1
 431 0016 FFF7FEFF 		bl	chMtxLock
 432              		.loc 1 188 0
 433 001a 4FF00A00 		mov	r0, #10
 434 001e FFF7FEFF 		bl	test_cpu_pulse
 435              		.loc 1 189 0
 436 0022 FFF7FEFF 		bl	chMtxUnlock
 437              		.loc 1 190 0
 438 0026 4FF04100 		mov	r0, #65
 439 002a FFF7FEFF 		bl	test_emit_token
 440              		.loc 1 191 0
 441 002e 4FF00003 		mov	r3, #0
 442              		.loc 1 192 0
 443 0032 1846     		mov	r0, r3
 444 0034 03B0     		add	sp, sp, #12
 445 0036 00BD     		pop	{pc}
 446              		.cfi_endproc
 447              	.LFE13:
 448              		.size	thread2H, .-thread2H
ARM GAS  /tmp/ccskAj9V.s 			page 9


 449 0038 AFF30080 		.section	.rodata
 449      AFF30080 
 450 003d 000000   		.align	2
 451              	.LC7:
 452 0040 41424300 		.ascii	"ABC\000"
 453              		.section	.text.mtx2_execute,"ax",%progbits
 454              		.align	2
 455              		.p2align 4,,15
 456              		.thumb
 457              		.thumb_func
 458              		.type	mtx2_execute, %function
 459              	mtx2_execute:
 460              	.LFB14:
 461              		.loc 1 194 0
 462              		.cfi_startproc
 463              		@ args = 0, pretend = 0, frame = 8
 464              		@ frame_needed = 0, uses_anonymous_args = 0
 465 0000 00B5     		push	{lr}
 466              	.LCFI12:
 467              		.cfi_def_cfa_offset 4
 468              		.cfi_offset 14, -4
 469 0002 85B0     		sub	sp, sp, #20
 470              	.LCFI13:
 471              		.cfi_def_cfa_offset 24
 472              		.loc 1 197 0
 473 0004 FFF7FEFF 		bl	test_wait_tick
 474              		.loc 1 198 0
 475 0008 40F20003 		movw	r3, #:lower16:vtlist
 476 000c C0F20003 		movt	r3, #:upper16:vtlist
 477 0010 DB68     		ldr	r3, [r3, #12]
 478 0012 0393     		str	r3, [sp, #12]
 479              		.loc 1 199 0
 480 0014 40F20003 		movw	r3, #:lower16:wa
 481 0018 C0F20003 		movt	r3, #:upper16:wa
 482 001c 1A68     		ldr	r2, [r3, #0]
 483 001e 40F20003 		movw	r3, #:lower16:rlist
 484 0022 C0F20003 		movt	r3, #:upper16:rlist
 485 0026 9B69     		ldr	r3, [r3, #24]
 486 0028 9B68     		ldr	r3, [r3, #8]
 487 002a 03F1FF33 		add	r3, r3, #-1
 488 002e 4FF00001 		mov	r1, #0
 489 0032 0091     		str	r1, [sp, #0]
 490 0034 1046     		mov	r0, r2
 491 0036 4FF49871 		mov	r1, #304
 492 003a 1A46     		mov	r2, r3
 493 003c 40F20003 		movw	r3, #:lower16:thread2H
 494 0040 C0F20003 		movt	r3, #:upper16:thread2H
 495 0044 FFF7FEFF 		bl	chThdCreateStatic
 496 0048 0246     		mov	r2, r0
 497 004a 40F20003 		movw	r3, #:lower16:threads
 498 004e C0F20003 		movt	r3, #:upper16:threads
 499 0052 1A60     		str	r2, [r3, #0]
 500              		.loc 1 200 0
 501 0054 40F20003 		movw	r3, #:lower16:wa
 502 0058 C0F20003 		movt	r3, #:upper16:wa
 503 005c 5A68     		ldr	r2, [r3, #4]
 504 005e 40F20003 		movw	r3, #:lower16:rlist
ARM GAS  /tmp/ccskAj9V.s 			page 10


 505 0062 C0F20003 		movt	r3, #:upper16:rlist
 506 0066 9B69     		ldr	r3, [r3, #24]
 507 0068 9B68     		ldr	r3, [r3, #8]
 508 006a A3F10203 		sub	r3, r3, #2
 509 006e 4FF00001 		mov	r1, #0
 510 0072 0091     		str	r1, [sp, #0]
 511 0074 1046     		mov	r0, r2
 512 0076 4FF49871 		mov	r1, #304
 513 007a 1A46     		mov	r2, r3
 514 007c 40F20003 		movw	r3, #:lower16:thread2M
 515 0080 C0F20003 		movt	r3, #:upper16:thread2M
 516 0084 FFF7FEFF 		bl	chThdCreateStatic
 517 0088 0246     		mov	r2, r0
 518 008a 40F20003 		movw	r3, #:lower16:threads
 519 008e C0F20003 		movt	r3, #:upper16:threads
 520 0092 5A60     		str	r2, [r3, #4]
 521              		.loc 1 201 0
 522 0094 40F20003 		movw	r3, #:lower16:wa
 523 0098 C0F20003 		movt	r3, #:upper16:wa
 524 009c 9A68     		ldr	r2, [r3, #8]
 525 009e 40F20003 		movw	r3, #:lower16:rlist
 526 00a2 C0F20003 		movt	r3, #:upper16:rlist
 527 00a6 9B69     		ldr	r3, [r3, #24]
 528 00a8 9B68     		ldr	r3, [r3, #8]
 529 00aa A3F10303 		sub	r3, r3, #3
 530 00ae 4FF00001 		mov	r1, #0
 531 00b2 0091     		str	r1, [sp, #0]
 532 00b4 1046     		mov	r0, r2
 533 00b6 4FF49871 		mov	r1, #304
 534 00ba 1A46     		mov	r2, r3
 535 00bc 40F20003 		movw	r3, #:lower16:thread2L
 536 00c0 C0F20003 		movt	r3, #:upper16:thread2L
 537 00c4 FFF7FEFF 		bl	chThdCreateStatic
 538 00c8 0246     		mov	r2, r0
 539 00ca 40F20003 		movw	r3, #:lower16:threads
 540 00ce C0F20003 		movt	r3, #:upper16:threads
 541 00d2 9A60     		str	r2, [r3, #8]
 542              		.loc 1 202 0
 543 00d4 FFF7FEFF 		bl	test_wait_threads
 544              		.loc 1 203 0
 545 00d8 4FF00100 		mov	r0, #1
 546 00dc 40F20001 		movw	r1, #:lower16:.LC7
 547 00e0 C0F20001 		movt	r1, #:upper16:.LC7
 548 00e4 FFF7FEFF 		bl	_test_assert_sequence
 549 00e8 0346     		mov	r3, r0
 550 00ea 002B     		cmp	r3, #0
 551 00ec 0DD1     		bne	.L10
 552              	.L11:
 553              		.loc 1 204 0
 554 00ee 039B     		ldr	r3, [sp, #12]
 555 00f0 03F16402 		add	r2, r3, #100
 556 00f4 039B     		ldr	r3, [sp, #12]
 557 00f6 03F16903 		add	r3, r3, #105
 558 00fa 4FF00200 		mov	r0, #2
 559 00fe 1146     		mov	r1, r2
 560 0100 1A46     		mov	r2, r3
 561 0102 FFF7FEFF 		bl	_test_assert_time_window
ARM GAS  /tmp/ccskAj9V.s 			page 11


 562 0106 0346     		mov	r3, r0
 563 0108 002B     		cmp	r3, #0
 564              	.L10:
 565              		.loc 1 205 0
 566 010a 05B0     		add	sp, sp, #20
 567 010c 00BD     		pop	{pc}
 568              		.cfi_endproc
 569              	.LFE14:
 570              		.size	mtx2_execute, .-mtx2_execute
 571              		.global	testmtx2
 572 010e 00BF     		.section	.rodata
 573              		.align	2
 574              	.LC8:
 575 0044 4D757465 		.ascii	"Mutexes, priority inheritance, simple case\000"
 575      7865732C 
 575      20707269 
 575      6F726974 
 575      7920696E 
 576              		.section	.rodata.testmtx2,"a",%progbits
 577              		.align	2
 578              		.type	testmtx2, %object
 579              		.size	testmtx2, 16
 580              	testmtx2:
 581 0000 44000000 		.word	.LC8
 582 0004 00000000 		.word	mtx2_setup
 583 0008 00000000 		.word	0
 584 000c 00000000 		.word	mtx2_execute
 585              		.section	.text.mtx3_setup,"ax",%progbits
 586              		.align	2
 587              		.p2align 4,,15
 588              		.thumb
 589              		.thumb_func
 590              		.type	mtx3_setup, %function
 591              	mtx3_setup:
 592              	.LFB15:
 593              		.loc 1 245 0
 594              		.cfi_startproc
 595              		@ args = 0, pretend = 0, frame = 0
 596              		@ frame_needed = 0, uses_anonymous_args = 0
 597 0000 08B5     		push	{r3, lr}
 598              	.LCFI14:
 599              		.cfi_def_cfa_offset 8
 600              		.cfi_offset 14, -4
 601              		.cfi_offset 3, -8
 602              		.loc 1 247 0
 603 0002 40F20000 		movw	r0, #:lower16:m1
 604 0006 C0F20000 		movt	r0, #:upper16:m1
 605 000a FFF7FEFF 		bl	chMtxInit
 606              		.loc 1 248 0
 607 000e 40F20000 		movw	r0, #:lower16:m2
 608 0012 C0F20000 		movt	r0, #:upper16:m2
 609 0016 FFF7FEFF 		bl	chMtxInit
 610              		.loc 1 249 0
 611 001a 08BD     		pop	{r3, pc}
 612              		.cfi_endproc
 613              	.LFE15:
 614              		.size	mtx3_setup, .-mtx3_setup
ARM GAS  /tmp/ccskAj9V.s 			page 12


 615 001c AFF30080 		.section	.text.thread3LL,"ax",%progbits
 616              		.align	2
 617              		.p2align 4,,15
 618              		.thumb
 619              		.thumb_func
 620              		.type	thread3LL, %function
 621              	thread3LL:
 622              	.LFB16:
 623              		.loc 1 252 0
 624              		.cfi_startproc
 625              		@ args = 0, pretend = 0, frame = 8
 626              		@ frame_needed = 0, uses_anonymous_args = 0
 627 0000 00B5     		push	{lr}
 628              	.LCFI15:
 629              		.cfi_def_cfa_offset 4
 630              		.cfi_offset 14, -4
 631 0002 83B0     		sub	sp, sp, #12
 632              	.LCFI16:
 633              		.cfi_def_cfa_offset 16
 634 0004 0190     		str	r0, [sp, #4]
 635              		.loc 1 255 0
 636 0006 40F20000 		movw	r0, #:lower16:m1
 637 000a C0F20000 		movt	r0, #:upper16:m1
 638 000e FFF7FEFF 		bl	chMtxLock
 639              		.loc 1 256 0
 640 0012 4FF01E00 		mov	r0, #30
 641 0016 FFF7FEFF 		bl	test_cpu_pulse
 642              		.loc 1 257 0
 643 001a FFF7FEFF 		bl	chMtxUnlock
 644              		.loc 1 258 0
 645 001e 4FF04500 		mov	r0, #69
 646 0022 FFF7FEFF 		bl	test_emit_token
 647              		.loc 1 259 0
 648 0026 4FF00003 		mov	r3, #0
 649              		.loc 1 260 0
 650 002a 1846     		mov	r0, r3
 651 002c 03B0     		add	sp, sp, #12
 652 002e 00BD     		pop	{pc}
 653              		.cfi_endproc
 654              	.LFE16:
 655              		.size	thread3LL, .-thread3LL
 656              		.section	.text.thread3L,"ax",%progbits
 657              		.align	2
 658              		.p2align 4,,15
 659              		.thumb
 660              		.thumb_func
 661              		.type	thread3L, %function
 662              	thread3L:
 663              	.LFB17:
 664              		.loc 1 263 0
 665              		.cfi_startproc
 666              		@ args = 0, pretend = 0, frame = 8
 667              		@ frame_needed = 0, uses_anonymous_args = 0
 668 0000 00B5     		push	{lr}
 669              	.LCFI17:
 670              		.cfi_def_cfa_offset 4
 671              		.cfi_offset 14, -4
ARM GAS  /tmp/ccskAj9V.s 			page 13


 672 0002 83B0     		sub	sp, sp, #12
 673              	.LCFI18:
 674              		.cfi_def_cfa_offset 16
 675 0004 0190     		str	r0, [sp, #4]
 676              		.loc 1 266 0
 677 0006 4FF00A00 		mov	r0, #10
 678 000a FFF7FEFF 		bl	chThdSleep
 679              		.loc 1 267 0
 680 000e 40F20000 		movw	r0, #:lower16:m2
 681 0012 C0F20000 		movt	r0, #:upper16:m2
 682 0016 FFF7FEFF 		bl	chMtxLock
 683              		.loc 1 268 0
 684 001a 4FF01400 		mov	r0, #20
 685 001e FFF7FEFF 		bl	test_cpu_pulse
 686              		.loc 1 269 0
 687 0022 40F20000 		movw	r0, #:lower16:m1
 688 0026 C0F20000 		movt	r0, #:upper16:m1
 689 002a FFF7FEFF 		bl	chMtxLock
 690              		.loc 1 270 0
 691 002e 4FF00A00 		mov	r0, #10
 692 0032 FFF7FEFF 		bl	test_cpu_pulse
 693              		.loc 1 271 0
 694 0036 FFF7FEFF 		bl	chMtxUnlock
 695              		.loc 1 272 0
 696 003a 4FF00A00 		mov	r0, #10
 697 003e FFF7FEFF 		bl	test_cpu_pulse
 698              		.loc 1 273 0
 699 0042 FFF7FEFF 		bl	chMtxUnlock
 700              		.loc 1 274 0
 701 0046 4FF04400 		mov	r0, #68
 702 004a FFF7FEFF 		bl	test_emit_token
 703              		.loc 1 275 0
 704 004e 4FF00003 		mov	r3, #0
 705              		.loc 1 276 0
 706 0052 1846     		mov	r0, r3
 707 0054 03B0     		add	sp, sp, #12
 708 0056 00BD     		pop	{pc}
 709              		.cfi_endproc
 710              	.LFE17:
 711              		.size	thread3L, .-thread3L
 712 0058 AFF30080 		.section	.text.thread3M,"ax",%progbits
 712      AFF30080 
 713              		.align	2
 714              		.p2align 4,,15
 715              		.thumb
 716              		.thumb_func
 717              		.type	thread3M, %function
 718              	thread3M:
 719              	.LFB18:
 720              		.loc 1 279 0
 721              		.cfi_startproc
 722              		@ args = 0, pretend = 0, frame = 8
 723              		@ frame_needed = 0, uses_anonymous_args = 0
 724 0000 00B5     		push	{lr}
 725              	.LCFI19:
 726              		.cfi_def_cfa_offset 4
 727              		.cfi_offset 14, -4
ARM GAS  /tmp/ccskAj9V.s 			page 14


 728 0002 83B0     		sub	sp, sp, #12
 729              	.LCFI20:
 730              		.cfi_def_cfa_offset 16
 731 0004 0190     		str	r0, [sp, #4]
 732              		.loc 1 282 0
 733 0006 4FF01400 		mov	r0, #20
 734 000a FFF7FEFF 		bl	chThdSleep
 735              		.loc 1 283 0
 736 000e 40F20000 		movw	r0, #:lower16:m2
 737 0012 C0F20000 		movt	r0, #:upper16:m2
 738 0016 FFF7FEFF 		bl	chMtxLock
 739              		.loc 1 284 0
 740 001a 4FF00A00 		mov	r0, #10
 741 001e FFF7FEFF 		bl	test_cpu_pulse
 742              		.loc 1 285 0
 743 0022 FFF7FEFF 		bl	chMtxUnlock
 744              		.loc 1 286 0
 745 0026 4FF04300 		mov	r0, #67
 746 002a FFF7FEFF 		bl	test_emit_token
 747              		.loc 1 287 0
 748 002e 4FF00003 		mov	r3, #0
 749              		.loc 1 288 0
 750 0032 1846     		mov	r0, r3
 751 0034 03B0     		add	sp, sp, #12
 752 0036 00BD     		pop	{pc}
 753              		.cfi_endproc
 754              	.LFE18:
 755              		.size	thread3M, .-thread3M
 756 0038 AFF30080 		.section	.text.thread3H,"ax",%progbits
 756      AFF30080 
 757              		.align	2
 758              		.p2align 4,,15
 759              		.thumb
 760              		.thumb_func
 761              		.type	thread3H, %function
 762              	thread3H:
 763              	.LFB19:
 764              		.loc 1 291 0
 765              		.cfi_startproc
 766              		@ args = 0, pretend = 0, frame = 8
 767              		@ frame_needed = 0, uses_anonymous_args = 0
 768 0000 00B5     		push	{lr}
 769              	.LCFI21:
 770              		.cfi_def_cfa_offset 4
 771              		.cfi_offset 14, -4
 772 0002 83B0     		sub	sp, sp, #12
 773              	.LCFI22:
 774              		.cfi_def_cfa_offset 16
 775 0004 0190     		str	r0, [sp, #4]
 776              		.loc 1 294 0
 777 0006 4FF02800 		mov	r0, #40
 778 000a FFF7FEFF 		bl	chThdSleep
 779              		.loc 1 295 0
 780 000e 4FF01400 		mov	r0, #20
 781 0012 FFF7FEFF 		bl	test_cpu_pulse
 782              		.loc 1 296 0
 783 0016 4FF04200 		mov	r0, #66
ARM GAS  /tmp/ccskAj9V.s 			page 15


 784 001a FFF7FEFF 		bl	test_emit_token
 785              		.loc 1 297 0
 786 001e 4FF00003 		mov	r3, #0
 787              		.loc 1 298 0
 788 0022 1846     		mov	r0, r3
 789 0024 03B0     		add	sp, sp, #12
 790 0026 00BD     		pop	{pc}
 791              		.cfi_endproc
 792              	.LFE19:
 793              		.size	thread3H, .-thread3H
 794 0028 AFF30080 		.section	.text.thread3HH,"ax",%progbits
 794      AFF30080 
 795              		.align	2
 796              		.p2align 4,,15
 797              		.thumb
 798              		.thumb_func
 799              		.type	thread3HH, %function
 800              	thread3HH:
 801              	.LFB20:
 802              		.loc 1 301 0
 803              		.cfi_startproc
 804              		@ args = 0, pretend = 0, frame = 8
 805              		@ frame_needed = 0, uses_anonymous_args = 0
 806 0000 00B5     		push	{lr}
 807              	.LCFI23:
 808              		.cfi_def_cfa_offset 4
 809              		.cfi_offset 14, -4
 810 0002 83B0     		sub	sp, sp, #12
 811              	.LCFI24:
 812              		.cfi_def_cfa_offset 16
 813 0004 0190     		str	r0, [sp, #4]
 814              		.loc 1 304 0
 815 0006 4FF03200 		mov	r0, #50
 816 000a FFF7FEFF 		bl	chThdSleep
 817              		.loc 1 305 0
 818 000e 40F20000 		movw	r0, #:lower16:m2
 819 0012 C0F20000 		movt	r0, #:upper16:m2
 820 0016 FFF7FEFF 		bl	chMtxLock
 821              		.loc 1 306 0
 822 001a 4FF00A00 		mov	r0, #10
 823 001e FFF7FEFF 		bl	test_cpu_pulse
 824              		.loc 1 307 0
 825 0022 FFF7FEFF 		bl	chMtxUnlock
 826              		.loc 1 308 0
 827 0026 4FF04100 		mov	r0, #65
 828 002a FFF7FEFF 		bl	test_emit_token
 829              		.loc 1 309 0
 830 002e 4FF00003 		mov	r3, #0
 831              		.loc 1 310 0
 832 0032 1846     		mov	r0, r3
 833 0034 03B0     		add	sp, sp, #12
 834 0036 00BD     		pop	{pc}
 835              		.cfi_endproc
 836              	.LFE20:
 837              		.size	thread3HH, .-thread3HH
 838 0038 AFF30080 		.section	.text.mtx3_execute,"ax",%progbits
 838      AFF30080 
ARM GAS  /tmp/ccskAj9V.s 			page 16


 839              		.align	2
 840              		.p2align 4,,15
 841              		.thumb
 842              		.thumb_func
 843              		.type	mtx3_execute, %function
 844              	mtx3_execute:
 845              	.LFB21:
 846              		.loc 1 312 0
 847              		.cfi_startproc
 848              		@ args = 0, pretend = 0, frame = 8
 849              		@ frame_needed = 0, uses_anonymous_args = 0
 850 0000 00B5     		push	{lr}
 851              	.LCFI25:
 852              		.cfi_def_cfa_offset 4
 853              		.cfi_offset 14, -4
 854 0002 85B0     		sub	sp, sp, #20
 855              	.LCFI26:
 856              		.cfi_def_cfa_offset 24
 857              		.loc 1 315 0
 858 0004 FFF7FEFF 		bl	test_wait_tick
 859              		.loc 1 316 0
 860 0008 40F20003 		movw	r3, #:lower16:vtlist
 861 000c C0F20003 		movt	r3, #:upper16:vtlist
 862 0010 DB68     		ldr	r3, [r3, #12]
 863 0012 0393     		str	r3, [sp, #12]
 864              		.loc 1 317 0
 865 0014 40F20003 		movw	r3, #:lower16:wa
 866 0018 C0F20003 		movt	r3, #:upper16:wa
 867 001c 1A68     		ldr	r2, [r3, #0]
 868 001e 40F20003 		movw	r3, #:lower16:rlist
 869 0022 C0F20003 		movt	r3, #:upper16:rlist
 870 0026 9B69     		ldr	r3, [r3, #24]
 871 0028 9B68     		ldr	r3, [r3, #8]
 872 002a A3F10503 		sub	r3, r3, #5
 873 002e 4FF00001 		mov	r1, #0
 874 0032 0091     		str	r1, [sp, #0]
 875 0034 1046     		mov	r0, r2
 876 0036 4FF49871 		mov	r1, #304
 877 003a 1A46     		mov	r2, r3
 878 003c 40F20003 		movw	r3, #:lower16:thread3LL
 879 0040 C0F20003 		movt	r3, #:upper16:thread3LL
 880 0044 FFF7FEFF 		bl	chThdCreateStatic
 881 0048 0246     		mov	r2, r0
 882 004a 40F20003 		movw	r3, #:lower16:threads
 883 004e C0F20003 		movt	r3, #:upper16:threads
 884 0052 1A60     		str	r2, [r3, #0]
 885              		.loc 1 318 0
 886 0054 40F20003 		movw	r3, #:lower16:wa
 887 0058 C0F20003 		movt	r3, #:upper16:wa
 888 005c 5A68     		ldr	r2, [r3, #4]
 889 005e 40F20003 		movw	r3, #:lower16:rlist
 890 0062 C0F20003 		movt	r3, #:upper16:rlist
 891 0066 9B69     		ldr	r3, [r3, #24]
 892 0068 9B68     		ldr	r3, [r3, #8]
 893 006a A3F10403 		sub	r3, r3, #4
 894 006e 4FF00001 		mov	r1, #0
 895 0072 0091     		str	r1, [sp, #0]
ARM GAS  /tmp/ccskAj9V.s 			page 17


 896 0074 1046     		mov	r0, r2
 897 0076 4FF49871 		mov	r1, #304
 898 007a 1A46     		mov	r2, r3
 899 007c 40F20003 		movw	r3, #:lower16:thread3L
 900 0080 C0F20003 		movt	r3, #:upper16:thread3L
 901 0084 FFF7FEFF 		bl	chThdCreateStatic
 902 0088 0246     		mov	r2, r0
 903 008a 40F20003 		movw	r3, #:lower16:threads
 904 008e C0F20003 		movt	r3, #:upper16:threads
 905 0092 5A60     		str	r2, [r3, #4]
 906              		.loc 1 319 0
 907 0094 40F20003 		movw	r3, #:lower16:wa
 908 0098 C0F20003 		movt	r3, #:upper16:wa
 909 009c 9A68     		ldr	r2, [r3, #8]
 910 009e 40F20003 		movw	r3, #:lower16:rlist
 911 00a2 C0F20003 		movt	r3, #:upper16:rlist
 912 00a6 9B69     		ldr	r3, [r3, #24]
 913 00a8 9B68     		ldr	r3, [r3, #8]
 914 00aa A3F10303 		sub	r3, r3, #3
 915 00ae 4FF00001 		mov	r1, #0
 916 00b2 0091     		str	r1, [sp, #0]
 917 00b4 1046     		mov	r0, r2
 918 00b6 4FF49871 		mov	r1, #304
 919 00ba 1A46     		mov	r2, r3
 920 00bc 40F20003 		movw	r3, #:lower16:thread3M
 921 00c0 C0F20003 		movt	r3, #:upper16:thread3M
 922 00c4 FFF7FEFF 		bl	chThdCreateStatic
 923 00c8 0246     		mov	r2, r0
 924 00ca 40F20003 		movw	r3, #:lower16:threads
 925 00ce C0F20003 		movt	r3, #:upper16:threads
 926 00d2 9A60     		str	r2, [r3, #8]
 927              		.loc 1 320 0
 928 00d4 40F20003 		movw	r3, #:lower16:wa
 929 00d8 C0F20003 		movt	r3, #:upper16:wa
 930 00dc DA68     		ldr	r2, [r3, #12]
 931 00de 40F20003 		movw	r3, #:lower16:rlist
 932 00e2 C0F20003 		movt	r3, #:upper16:rlist
 933 00e6 9B69     		ldr	r3, [r3, #24]
 934 00e8 9B68     		ldr	r3, [r3, #8]
 935 00ea A3F10203 		sub	r3, r3, #2
 936 00ee 4FF00001 		mov	r1, #0
 937 00f2 0091     		str	r1, [sp, #0]
 938 00f4 1046     		mov	r0, r2
 939 00f6 4FF49871 		mov	r1, #304
 940 00fa 1A46     		mov	r2, r3
 941 00fc 40F20003 		movw	r3, #:lower16:thread3H
 942 0100 C0F20003 		movt	r3, #:upper16:thread3H
 943 0104 FFF7FEFF 		bl	chThdCreateStatic
 944 0108 0246     		mov	r2, r0
 945 010a 40F20003 		movw	r3, #:lower16:threads
 946 010e C0F20003 		movt	r3, #:upper16:threads
 947 0112 DA60     		str	r2, [r3, #12]
 948              		.loc 1 321 0
 949 0114 40F20003 		movw	r3, #:lower16:wa
 950 0118 C0F20003 		movt	r3, #:upper16:wa
 951 011c 1A69     		ldr	r2, [r3, #16]
 952 011e 40F20003 		movw	r3, #:lower16:rlist
ARM GAS  /tmp/ccskAj9V.s 			page 18


 953 0122 C0F20003 		movt	r3, #:upper16:rlist
 954 0126 9B69     		ldr	r3, [r3, #24]
 955 0128 9B68     		ldr	r3, [r3, #8]
 956 012a 03F1FF33 		add	r3, r3, #-1
 957 012e 4FF00001 		mov	r1, #0
 958 0132 0091     		str	r1, [sp, #0]
 959 0134 1046     		mov	r0, r2
 960 0136 4FF49871 		mov	r1, #304
 961 013a 1A46     		mov	r2, r3
 962 013c 40F20003 		movw	r3, #:lower16:thread3HH
 963 0140 C0F20003 		movt	r3, #:upper16:thread3HH
 964 0144 FFF7FEFF 		bl	chThdCreateStatic
 965 0148 0246     		mov	r2, r0
 966 014a 40F20003 		movw	r3, #:lower16:threads
 967 014e C0F20003 		movt	r3, #:upper16:threads
 968 0152 1A61     		str	r2, [r3, #16]
 969              		.loc 1 322 0
 970 0154 FFF7FEFF 		bl	test_wait_threads
 971              		.loc 1 323 0
 972 0158 4FF00100 		mov	r0, #1
 973 015c 40F20001 		movw	r1, #:lower16:.LC5
 974 0160 C0F20001 		movt	r1, #:upper16:.LC5
 975 0164 FFF7FEFF 		bl	_test_assert_sequence
 976 0168 0346     		mov	r3, r0
 977 016a 002B     		cmp	r3, #0
 978 016c 0DD1     		bne	.L19
 979              	.L20:
 980              		.loc 1 324 0
 981 016e 039B     		ldr	r3, [sp, #12]
 982 0170 03F16E02 		add	r2, r3, #110
 983 0174 039B     		ldr	r3, [sp, #12]
 984 0176 03F17303 		add	r3, r3, #115
 985 017a 4FF00200 		mov	r0, #2
 986 017e 1146     		mov	r1, r2
 987 0180 1A46     		mov	r2, r3
 988 0182 FFF7FEFF 		bl	_test_assert_time_window
 989 0186 0346     		mov	r3, r0
 990 0188 002B     		cmp	r3, #0
 991              	.L19:
 992              		.loc 1 325 0
 993 018a 05B0     		add	sp, sp, #20
 994 018c 00BD     		pop	{pc}
 995              		.cfi_endproc
 996              	.LFE21:
 997              		.size	mtx3_execute, .-mtx3_execute
 998              		.global	testmtx3
 999 018e 00BF     		.section	.rodata
 1000 006f 00       		.align	2
 1001              	.LC9:
 1002 0070 4D757465 		.ascii	"Mutexes, priority inheritance, complex case\000"
 1002      7865732C 
 1002      20707269 
 1002      6F726974 
 1002      7920696E 
 1003              		.section	.rodata.testmtx3,"a",%progbits
 1004              		.align	2
 1005              		.type	testmtx3, %object
ARM GAS  /tmp/ccskAj9V.s 			page 19


 1006              		.size	testmtx3, 16
 1007              	testmtx3:
 1008 0000 70000000 		.word	.LC9
 1009 0004 00000000 		.word	mtx3_setup
 1010 0008 00000000 		.word	0
 1011 000c 00000000 		.word	mtx3_execute
 1012              		.section	.text.mtx4_setup,"ax",%progbits
 1013              		.align	2
 1014              		.p2align 4,,15
 1015              		.thumb
 1016              		.thumb_func
 1017              		.type	mtx4_setup, %function
 1018              	mtx4_setup:
 1019              	.LFB22:
 1020              		.loc 1 345 0
 1021              		.cfi_startproc
 1022              		@ args = 0, pretend = 0, frame = 0
 1023              		@ frame_needed = 0, uses_anonymous_args = 0
 1024 0000 08B5     		push	{r3, lr}
 1025              	.LCFI27:
 1026              		.cfi_def_cfa_offset 8
 1027              		.cfi_offset 14, -4
 1028              		.cfi_offset 3, -8
 1029              		.loc 1 347 0
 1030 0002 40F20000 		movw	r0, #:lower16:m1
 1031 0006 C0F20000 		movt	r0, #:upper16:m1
 1032 000a FFF7FEFF 		bl	chMtxInit
 1033              		.loc 1 348 0
 1034 000e 40F20000 		movw	r0, #:lower16:m2
 1035 0012 C0F20000 		movt	r0, #:upper16:m2
 1036 0016 FFF7FEFF 		bl	chMtxInit
 1037              		.loc 1 349 0
 1038 001a 08BD     		pop	{r3, pc}
 1039              		.cfi_endproc
 1040              	.LFE22:
 1041              		.size	mtx4_setup, .-mtx4_setup
 1042 001c AFF30080 		.section	.text.thread4a,"ax",%progbits
 1043              		.align	2
 1044              		.p2align 4,,15
 1045              		.thumb
 1046              		.thumb_func
 1047              		.type	thread4a, %function
 1048              	thread4a:
 1049              	.LFB23:
 1050              		.loc 1 351 0
 1051              		.cfi_startproc
 1052              		@ args = 0, pretend = 0, frame = 8
 1053              		@ frame_needed = 0, uses_anonymous_args = 0
 1054 0000 00B5     		push	{lr}
 1055              	.LCFI28:
 1056              		.cfi_def_cfa_offset 4
 1057              		.cfi_offset 14, -4
 1058 0002 83B0     		sub	sp, sp, #12
 1059              	.LCFI29:
 1060              		.cfi_def_cfa_offset 16
 1061 0004 0190     		str	r0, [sp, #4]
 1062              		.loc 1 354 0
ARM GAS  /tmp/ccskAj9V.s 			page 20


 1063 0006 4FF03200 		mov	r0, #50
 1064 000a FFF7FEFF 		bl	chThdSleep
 1065              		.loc 1 355 0
 1066 000e 40F20000 		movw	r0, #:lower16:m2
 1067 0012 C0F20000 		movt	r0, #:upper16:m2
 1068 0016 FFF7FEFF 		bl	chMtxLock
 1069              		.loc 1 356 0
 1070 001a FFF7FEFF 		bl	chMtxUnlock
 1071              		.loc 1 357 0
 1072 001e 4FF00003 		mov	r3, #0
 1073              		.loc 1 358 0
 1074 0022 1846     		mov	r0, r3
 1075 0024 03B0     		add	sp, sp, #12
 1076 0026 00BD     		pop	{pc}
 1077              		.cfi_endproc
 1078              	.LFE23:
 1079              		.size	thread4a, .-thread4a
 1080 0028 AFF30080 		.section	.text.thread4b,"ax",%progbits
 1080      AFF30080 
 1081              		.align	2
 1082              		.p2align 4,,15
 1083              		.thumb
 1084              		.thumb_func
 1085              		.type	thread4b, %function
 1086              	thread4b:
 1087              	.LFB24:
 1088              		.loc 1 360 0
 1089              		.cfi_startproc
 1090              		@ args = 0, pretend = 0, frame = 8
 1091              		@ frame_needed = 0, uses_anonymous_args = 0
 1092 0000 00B5     		push	{lr}
 1093              	.LCFI30:
 1094              		.cfi_def_cfa_offset 4
 1095              		.cfi_offset 14, -4
 1096 0002 83B0     		sub	sp, sp, #12
 1097              	.LCFI31:
 1098              		.cfi_def_cfa_offset 16
 1099 0004 0190     		str	r0, [sp, #4]
 1100              		.loc 1 363 0
 1101 0006 4FF09600 		mov	r0, #150
 1102 000a FFF7FEFF 		bl	chThdSleep
 1103              		.loc 1 364 0
 1104 000e 40F20000 		movw	r0, #:lower16:m1
 1105 0012 C0F20000 		movt	r0, #:upper16:m1
 1106 0016 FFF7FEFF 		bl	chMtxLock
 1107              		.loc 1 365 0
 1108 001a FFF7FEFF 		bl	chMtxUnlock
 1109              		.loc 1 366 0
 1110 001e 4FF00003 		mov	r3, #0
 1111              		.loc 1 367 0
 1112 0022 1846     		mov	r0, r3
 1113 0024 03B0     		add	sp, sp, #12
 1114 0026 00BD     		pop	{pc}
 1115              		.cfi_endproc
 1116              	.LFE24:
 1117              		.size	thread4b, .-thread4b
 1118 0028 AFF30080 		.section	.text.mtx4_execute,"ax",%progbits
ARM GAS  /tmp/ccskAj9V.s 			page 21


 1118      AFF30080 
 1119              		.align	2
 1120              		.p2align 4,,15
 1121              		.thumb
 1122              		.thumb_func
 1123              		.type	mtx4_execute, %function
 1124              	mtx4_execute:
 1125              	.LFB25:
 1126              		.loc 1 369 0
 1127              		.cfi_startproc
 1128              		@ args = 0, pretend = 0, frame = 16
 1129              		@ frame_needed = 0, uses_anonymous_args = 0
 1130 0000 00B5     		push	{lr}
 1131              	.LCFI32:
 1132              		.cfi_def_cfa_offset 4
 1133              		.cfi_offset 14, -4
 1134 0002 87B0     		sub	sp, sp, #28
 1135              	.LCFI33:
 1136              		.cfi_def_cfa_offset 32
 1137              		.loc 1 372 0
 1138 0004 40F20003 		movw	r3, #:lower16:rlist
 1139 0008 C0F20003 		movt	r3, #:upper16:rlist
 1140 000c 9B69     		ldr	r3, [r3, #24]
 1141 000e 9B68     		ldr	r3, [r3, #8]
 1142 0010 0593     		str	r3, [sp, #20]
 1143              		.loc 1 373 0
 1144 0012 059B     		ldr	r3, [sp, #20]
 1145 0014 03F10103 		add	r3, r3, #1
 1146 0018 0493     		str	r3, [sp, #16]
 1147              		.loc 1 374 0
 1148 001a 059B     		ldr	r3, [sp, #20]
 1149 001c 03F10203 		add	r3, r3, #2
 1150 0020 0393     		str	r3, [sp, #12]
 1151              		.loc 1 375 0
 1152 0022 40F20003 		movw	r3, #:lower16:wa
 1153 0026 C0F20003 		movt	r3, #:upper16:wa
 1154 002a 1A68     		ldr	r2, [r3, #0]
 1155 002c 40F20003 		movw	r3, #:lower16:.LC3
 1156 0030 C0F20003 		movt	r3, #:upper16:.LC3
 1157 0034 0093     		str	r3, [sp, #0]
 1158 0036 1046     		mov	r0, r2
 1159 0038 4FF49871 		mov	r1, #304
 1160 003c 049A     		ldr	r2, [sp, #16]
 1161 003e 40F20003 		movw	r3, #:lower16:thread4a
 1162 0042 C0F20003 		movt	r3, #:upper16:thread4a
 1163 0046 FFF7FEFF 		bl	chThdCreateStatic
 1164 004a 0246     		mov	r2, r0
 1165 004c 40F20003 		movw	r3, #:lower16:threads
 1166 0050 C0F20003 		movt	r3, #:upper16:threads
 1167 0054 1A60     		str	r2, [r3, #0]
 1168              		.loc 1 376 0
 1169 0056 40F20003 		movw	r3, #:lower16:wa
 1170 005a C0F20003 		movt	r3, #:upper16:wa
 1171 005e 5A68     		ldr	r2, [r3, #4]
 1172 0060 40F20003 		movw	r3, #:lower16:.LC4
 1173 0064 C0F20003 		movt	r3, #:upper16:.LC4
 1174 0068 0093     		str	r3, [sp, #0]
ARM GAS  /tmp/ccskAj9V.s 			page 22


 1175 006a 1046     		mov	r0, r2
 1176 006c 4FF49871 		mov	r1, #304
 1177 0070 039A     		ldr	r2, [sp, #12]
 1178 0072 40F20003 		movw	r3, #:lower16:thread4b
 1179 0076 C0F20003 		movt	r3, #:upper16:thread4b
 1180 007a FFF7FEFF 		bl	chThdCreateStatic
 1181 007e 0246     		mov	r2, r0
 1182 0080 40F20003 		movw	r3, #:lower16:threads
 1183 0084 C0F20003 		movt	r3, #:upper16:threads
 1184 0088 5A60     		str	r2, [r3, #4]
 1185              		.loc 1 377 0
 1186 008a 40F20000 		movw	r0, #:lower16:m2
 1187 008e C0F20000 		movt	r0, #:upper16:m2
 1188 0092 FFF7FEFF 		bl	chMtxLock
 1189              		.loc 1 378 0
 1190 0096 40F20003 		movw	r3, #:lower16:rlist
 1191 009a C0F20003 		movt	r3, #:upper16:rlist
 1192 009e 9B69     		ldr	r3, [r3, #24]
 1193 00a0 9A68     		ldr	r2, [r3, #8]
 1194 00a2 059B     		ldr	r3, [sp, #20]
 1195 00a4 9A42     		cmp	r2, r3
 1196 00a6 14BF     		ite	ne
 1197 00a8 0023     		movne	r3, #0
 1198 00aa 0123     		moveq	r3, #1
 1199 00ac 4FF00100 		mov	r0, #1
 1200 00b0 1946     		mov	r1, r3
 1201 00b2 FFF7FEFF 		bl	_test_assert
 1202 00b6 0346     		mov	r3, r0
 1203 00b8 002B     		cmp	r3, #0
 1204 00ba 40F07481 		bne	.L25
 1205              	.L26:
 1206              		.loc 1 379 0
 1207 00be 4FF06400 		mov	r0, #100
 1208 00c2 FFF7FEFF 		bl	chThdSleep
 1209              		.loc 1 380 0
 1210 00c6 40F20003 		movw	r3, #:lower16:rlist
 1211 00ca C0F20003 		movt	r3, #:upper16:rlist
 1212 00ce 9B69     		ldr	r3, [r3, #24]
 1213 00d0 9A68     		ldr	r2, [r3, #8]
 1214 00d2 049B     		ldr	r3, [sp, #16]
 1215 00d4 9A42     		cmp	r2, r3
 1216 00d6 14BF     		ite	ne
 1217 00d8 0023     		movne	r3, #0
 1218 00da 0123     		moveq	r3, #1
 1219 00dc 4FF00200 		mov	r0, #2
 1220 00e0 1946     		mov	r1, r3
 1221 00e2 FFF7FEFF 		bl	_test_assert
 1222 00e6 0346     		mov	r3, r0
 1223 00e8 002B     		cmp	r3, #0
 1224 00ea 40F05C81 		bne	.L25
 1225              	.L28:
 1226              		.loc 1 381 0
 1227 00ee 40F20000 		movw	r0, #:lower16:m1
 1228 00f2 C0F20000 		movt	r0, #:upper16:m1
 1229 00f6 FFF7FEFF 		bl	chMtxLock
 1230              		.loc 1 382 0
 1231 00fa 40F20003 		movw	r3, #:lower16:rlist
ARM GAS  /tmp/ccskAj9V.s 			page 23


 1232 00fe C0F20003 		movt	r3, #:upper16:rlist
 1233 0102 9B69     		ldr	r3, [r3, #24]
 1234 0104 9A68     		ldr	r2, [r3, #8]
 1235 0106 049B     		ldr	r3, [sp, #16]
 1236 0108 9A42     		cmp	r2, r3
 1237 010a 14BF     		ite	ne
 1238 010c 0023     		movne	r3, #0
 1239 010e 0123     		moveq	r3, #1
 1240 0110 4FF00300 		mov	r0, #3
 1241 0114 1946     		mov	r1, r3
 1242 0116 FFF7FEFF 		bl	_test_assert
 1243 011a 0346     		mov	r3, r0
 1244 011c 002B     		cmp	r3, #0
 1245 011e 40F04281 		bne	.L25
 1246              	.L29:
 1247              		.loc 1 383 0
 1248 0122 4FF06400 		mov	r0, #100
 1249 0126 FFF7FEFF 		bl	chThdSleep
 1250              		.loc 1 384 0
 1251 012a 40F20003 		movw	r3, #:lower16:rlist
 1252 012e C0F20003 		movt	r3, #:upper16:rlist
 1253 0132 9B69     		ldr	r3, [r3, #24]
 1254 0134 9A68     		ldr	r2, [r3, #8]
 1255 0136 039B     		ldr	r3, [sp, #12]
 1256 0138 9A42     		cmp	r2, r3
 1257 013a 14BF     		ite	ne
 1258 013c 0023     		movne	r3, #0
 1259 013e 0123     		moveq	r3, #1
 1260 0140 4FF00400 		mov	r0, #4
 1261 0144 1946     		mov	r1, r3
 1262 0146 FFF7FEFF 		bl	_test_assert
 1263 014a 0346     		mov	r3, r0
 1264 014c 002B     		cmp	r3, #0
 1265 014e 40F02A81 		bne	.L25
 1266              	.L30:
 1267              		.loc 1 385 0
 1268 0152 FFF7FEFF 		bl	chMtxUnlock
 1269              		.loc 1 386 0
 1270 0156 40F20003 		movw	r3, #:lower16:rlist
 1271 015a C0F20003 		movt	r3, #:upper16:rlist
 1272 015e 9B69     		ldr	r3, [r3, #24]
 1273 0160 9A68     		ldr	r2, [r3, #8]
 1274 0162 049B     		ldr	r3, [sp, #16]
 1275 0164 9A42     		cmp	r2, r3
 1276 0166 14BF     		ite	ne
 1277 0168 0023     		movne	r3, #0
 1278 016a 0123     		moveq	r3, #1
 1279 016c 4FF00500 		mov	r0, #5
 1280 0170 1946     		mov	r1, r3
 1281 0172 FFF7FEFF 		bl	_test_assert
 1282 0176 0346     		mov	r3, r0
 1283 0178 002B     		cmp	r3, #0
 1284 017a 40F01481 		bne	.L25
 1285              	.L31:
 1286              		.loc 1 387 0
 1287 017e 4FF06400 		mov	r0, #100
 1288 0182 FFF7FEFF 		bl	chThdSleep
ARM GAS  /tmp/ccskAj9V.s 			page 24


 1289              		.loc 1 388 0
 1290 0186 40F20003 		movw	r3, #:lower16:rlist
 1291 018a C0F20003 		movt	r3, #:upper16:rlist
 1292 018e 9B69     		ldr	r3, [r3, #24]
 1293 0190 9A68     		ldr	r2, [r3, #8]
 1294 0192 049B     		ldr	r3, [sp, #16]
 1295 0194 9A42     		cmp	r2, r3
 1296 0196 14BF     		ite	ne
 1297 0198 0023     		movne	r3, #0
 1298 019a 0123     		moveq	r3, #1
 1299 019c 4FF00600 		mov	r0, #6
 1300 01a0 1946     		mov	r1, r3
 1301 01a2 FFF7FEFF 		bl	_test_assert
 1302 01a6 0346     		mov	r3, r0
 1303 01a8 002B     		cmp	r3, #0
 1304 01aa 40F0FC80 		bne	.L25
 1305              	.L32:
 1306              		.loc 1 389 0
 1307 01ae FFF7FEFF 		bl	chMtxUnlockAll
 1308              		.loc 1 390 0
 1309 01b2 40F20003 		movw	r3, #:lower16:rlist
 1310 01b6 C0F20003 		movt	r3, #:upper16:rlist
 1311 01ba 9B69     		ldr	r3, [r3, #24]
 1312 01bc 9A68     		ldr	r2, [r3, #8]
 1313 01be 059B     		ldr	r3, [sp, #20]
 1314 01c0 9A42     		cmp	r2, r3
 1315 01c2 14BF     		ite	ne
 1316 01c4 0023     		movne	r3, #0
 1317 01c6 0123     		moveq	r3, #1
 1318 01c8 4FF00700 		mov	r0, #7
 1319 01cc 1946     		mov	r1, r3
 1320 01ce FFF7FEFF 		bl	_test_assert
 1321 01d2 0346     		mov	r3, r0
 1322 01d4 002B     		cmp	r3, #0
 1323 01d6 40F0E680 		bne	.L25
 1324              	.L33:
 1325              		.loc 1 391 0
 1326 01da FFF7FEFF 		bl	test_wait_threads
 1327              		.loc 1 394 0
 1328 01de 40F20003 		movw	r3, #:lower16:wa
 1329 01e2 C0F20003 		movt	r3, #:upper16:wa
 1330 01e6 1A68     		ldr	r2, [r3, #0]
 1331 01e8 40F20003 		movw	r3, #:lower16:.LC1
 1332 01ec C0F20003 		movt	r3, #:upper16:.LC1
 1333 01f0 0093     		str	r3, [sp, #0]
 1334 01f2 1046     		mov	r0, r2
 1335 01f4 4FF49871 		mov	r1, #304
 1336 01f8 049A     		ldr	r2, [sp, #16]
 1337 01fa 40F20003 		movw	r3, #:lower16:thread4a
 1338 01fe C0F20003 		movt	r3, #:upper16:thread4a
 1339 0202 FFF7FEFF 		bl	chThdCreateStatic
 1340 0206 0246     		mov	r2, r0
 1341 0208 40F20003 		movw	r3, #:lower16:threads
 1342 020c C0F20003 		movt	r3, #:upper16:threads
 1343 0210 1A60     		str	r2, [r3, #0]
 1344              		.loc 1 395 0
 1345 0212 40F20003 		movw	r3, #:lower16:wa
ARM GAS  /tmp/ccskAj9V.s 			page 25


 1346 0216 C0F20003 		movt	r3, #:upper16:wa
 1347 021a 5A68     		ldr	r2, [r3, #4]
 1348 021c 40F20003 		movw	r3, #:lower16:.LC2
 1349 0220 C0F20003 		movt	r3, #:upper16:.LC2
 1350 0224 0093     		str	r3, [sp, #0]
 1351 0226 1046     		mov	r0, r2
 1352 0228 4FF49871 		mov	r1, #304
 1353 022c 039A     		ldr	r2, [sp, #12]
 1354 022e 40F20003 		movw	r3, #:lower16:thread4b
 1355 0232 C0F20003 		movt	r3, #:upper16:thread4b
 1356 0236 FFF7FEFF 		bl	chThdCreateStatic
 1357 023a 0246     		mov	r2, r0
 1358 023c 40F20003 		movw	r3, #:lower16:threads
 1359 0240 C0F20003 		movt	r3, #:upper16:threads
 1360 0244 5A60     		str	r2, [r3, #4]
 1361              		.loc 1 396 0
 1362 0246 40F20000 		movw	r0, #:lower16:m2
 1363 024a C0F20000 		movt	r0, #:upper16:m2
 1364 024e FFF7FEFF 		bl	chMtxLock
 1365              		.loc 1 397 0
 1366 0252 40F20003 		movw	r3, #:lower16:rlist
 1367 0256 C0F20003 		movt	r3, #:upper16:rlist
 1368 025a 9B69     		ldr	r3, [r3, #24]
 1369 025c 9A68     		ldr	r2, [r3, #8]
 1370 025e 059B     		ldr	r3, [sp, #20]
 1371 0260 9A42     		cmp	r2, r3
 1372 0262 14BF     		ite	ne
 1373 0264 0023     		movne	r3, #0
 1374 0266 0123     		moveq	r3, #1
 1375 0268 4FF00800 		mov	r0, #8
 1376 026c 1946     		mov	r1, r3
 1377 026e FFF7FEFF 		bl	_test_assert
 1378 0272 0346     		mov	r3, r0
 1379 0274 002B     		cmp	r3, #0
 1380 0276 40F09680 		bne	.L25
 1381              	.L34:
 1382              		.loc 1 398 0
 1383 027a 4FF06400 		mov	r0, #100
 1384 027e FFF7FEFF 		bl	chThdSleep
 1385              		.loc 1 399 0
 1386 0282 40F20003 		movw	r3, #:lower16:rlist
 1387 0286 C0F20003 		movt	r3, #:upper16:rlist
 1388 028a 9B69     		ldr	r3, [r3, #24]
 1389 028c 9A68     		ldr	r2, [r3, #8]
 1390 028e 049B     		ldr	r3, [sp, #16]
 1391 0290 9A42     		cmp	r2, r3
 1392 0292 14BF     		ite	ne
 1393 0294 0023     		movne	r3, #0
 1394 0296 0123     		moveq	r3, #1
 1395 0298 4FF00900 		mov	r0, #9
 1396 029c 1946     		mov	r1, r3
 1397 029e FFF7FEFF 		bl	_test_assert
 1398 02a2 0346     		mov	r3, r0
 1399 02a4 002B     		cmp	r3, #0
 1400 02a6 7ED1     		bne	.L25
 1401              	.L35:
 1402              		.loc 1 400 0
ARM GAS  /tmp/ccskAj9V.s 			page 26


 1403 02a8 40F20000 		movw	r0, #:lower16:m1
 1404 02ac C0F20000 		movt	r0, #:upper16:m1
 1405 02b0 FFF7FEFF 		bl	chMtxLock
 1406              		.loc 1 401 0
 1407 02b4 40F20003 		movw	r3, #:lower16:rlist
 1408 02b8 C0F20003 		movt	r3, #:upper16:rlist
 1409 02bc 9B69     		ldr	r3, [r3, #24]
 1410 02be 9A68     		ldr	r2, [r3, #8]
 1411 02c0 049B     		ldr	r3, [sp, #16]
 1412 02c2 9A42     		cmp	r2, r3
 1413 02c4 14BF     		ite	ne
 1414 02c6 0023     		movne	r3, #0
 1415 02c8 0123     		moveq	r3, #1
 1416 02ca 4FF00A00 		mov	r0, #10
 1417 02ce 1946     		mov	r1, r3
 1418 02d0 FFF7FEFF 		bl	_test_assert
 1419 02d4 0346     		mov	r3, r0
 1420 02d6 002B     		cmp	r3, #0
 1421 02d8 65D1     		bne	.L25
 1422              	.L36:
 1423              		.loc 1 402 0
 1424 02da 4FF06400 		mov	r0, #100
 1425 02de FFF7FEFF 		bl	chThdSleep
 1426              		.loc 1 403 0
 1427 02e2 40F20003 		movw	r3, #:lower16:rlist
 1428 02e6 C0F20003 		movt	r3, #:upper16:rlist
 1429 02ea 9B69     		ldr	r3, [r3, #24]
 1430 02ec 9A68     		ldr	r2, [r3, #8]
 1431 02ee 039B     		ldr	r3, [sp, #12]
 1432 02f0 9A42     		cmp	r2, r3
 1433 02f2 14BF     		ite	ne
 1434 02f4 0023     		movne	r3, #0
 1435 02f6 0123     		moveq	r3, #1
 1436 02f8 4FF00B00 		mov	r0, #11
 1437 02fc 1946     		mov	r1, r3
 1438 02fe FFF7FEFF 		bl	_test_assert
 1439 0302 0346     		mov	r3, r0
 1440 0304 002B     		cmp	r3, #0
 1441 0306 4ED1     		bne	.L25
 1442              	.L37:
 1443              	.LBB2:
 1444              		.loc 1 404 0
 1445 0308 4FF02003 		mov	r3, #32
 1446              	@ 404 "../../test/testmtx.c" 1
 1447 030c 83F31188 		msr     BASEPRI, r3
 1448              	@ 0 "" 2
 1449              		.thumb
 1450              	.LBE2:
 1451 0310 FFF7FEFF 		bl	dbg_check_lock
 1452              		.loc 1 405 0
 1453 0314 FFF7FEFF 		bl	chMtxUnlockS
 1454              		.loc 1 406 0
 1455 0318 FFF7FEFF 		bl	dbg_check_unlock
 1456              	.LBB3:
 1457 031c 4FF00003 		mov	r3, #0
 1458              	@ 406 "../../test/testmtx.c" 1
 1459 0320 83F31188 		msr     BASEPRI, r3
ARM GAS  /tmp/ccskAj9V.s 			page 27


 1460              	@ 0 "" 2
 1461              		.thumb
 1462              	.LBE3:
 1463              		.loc 1 407 0
 1464 0324 40F20003 		movw	r3, #:lower16:rlist
 1465 0328 C0F20003 		movt	r3, #:upper16:rlist
 1466 032c 9B69     		ldr	r3, [r3, #24]
 1467 032e 9A68     		ldr	r2, [r3, #8]
 1468 0330 049B     		ldr	r3, [sp, #16]
 1469 0332 9A42     		cmp	r2, r3
 1470 0334 14BF     		ite	ne
 1471 0336 0023     		movne	r3, #0
 1472 0338 0123     		moveq	r3, #1
 1473 033a 4FF00C00 		mov	r0, #12
 1474 033e 1946     		mov	r1, r3
 1475 0340 FFF7FEFF 		bl	_test_assert
 1476 0344 0346     		mov	r3, r0
 1477 0346 002B     		cmp	r3, #0
 1478 0348 2DD1     		bne	.L25
 1479              	.L38:
 1480              		.loc 1 408 0
 1481 034a 4FF06400 		mov	r0, #100
 1482 034e FFF7FEFF 		bl	chThdSleep
 1483              		.loc 1 409 0
 1484 0352 40F20003 		movw	r3, #:lower16:rlist
 1485 0356 C0F20003 		movt	r3, #:upper16:rlist
 1486 035a 9B69     		ldr	r3, [r3, #24]
 1487 035c 9A68     		ldr	r2, [r3, #8]
 1488 035e 049B     		ldr	r3, [sp, #16]
 1489 0360 9A42     		cmp	r2, r3
 1490 0362 14BF     		ite	ne
 1491 0364 0023     		movne	r3, #0
 1492 0366 0123     		moveq	r3, #1
 1493 0368 4FF00D00 		mov	r0, #13
 1494 036c 1946     		mov	r1, r3
 1495 036e FFF7FEFF 		bl	_test_assert
 1496 0372 0346     		mov	r3, r0
 1497 0374 002B     		cmp	r3, #0
 1498 0376 16D1     		bne	.L25
 1499              	.L39:
 1500              		.loc 1 410 0
 1501 0378 FFF7FEFF 		bl	chMtxUnlockAll
 1502              		.loc 1 411 0
 1503 037c 40F20003 		movw	r3, #:lower16:rlist
 1504 0380 C0F20003 		movt	r3, #:upper16:rlist
 1505 0384 9B69     		ldr	r3, [r3, #24]
 1506 0386 9A68     		ldr	r2, [r3, #8]
 1507 0388 059B     		ldr	r3, [sp, #20]
 1508 038a 9A42     		cmp	r2, r3
 1509 038c 14BF     		ite	ne
 1510 038e 0023     		movne	r3, #0
 1511 0390 0123     		moveq	r3, #1
 1512 0392 4FF00E00 		mov	r0, #14
 1513 0396 1946     		mov	r1, r3
 1514 0398 FFF7FEFF 		bl	_test_assert
 1515 039c 0346     		mov	r3, r0
 1516 039e 002B     		cmp	r3, #0
ARM GAS  /tmp/ccskAj9V.s 			page 28


 1517 03a0 01D1     		bne	.L25
 1518              	.L40:
 1519              		.loc 1 412 0
 1520 03a2 FFF7FEFF 		bl	test_wait_threads
 1521              	.L25:
 1522              		.loc 1 413 0
 1523 03a6 07B0     		add	sp, sp, #28
 1524 03a8 00BD     		pop	{pc}
 1525              		.cfi_endproc
 1526              	.LFE25:
 1527              		.size	mtx4_execute, .-mtx4_execute
 1528              		.global	testmtx4
 1529 03aa 00BFAFF3 		.section	.rodata
 1529      0080
 1530              		.align	2
 1531              	.LC10:
 1532 009c 4D757465 		.ascii	"Mutexes, priority return\000"
 1532      7865732C 
 1532      20707269 
 1532      6F726974 
 1532      79207265 
 1533              		.section	.rodata.testmtx4,"a",%progbits
 1534              		.align	2
 1535              		.type	testmtx4, %object
 1536              		.size	testmtx4, 16
 1537              	testmtx4:
 1538 0000 9C000000 		.word	.LC10
 1539 0004 00000000 		.word	mtx4_setup
 1540 0008 00000000 		.word	0
 1541 000c 00000000 		.word	mtx4_execute
 1542              		.section	.text.mtx5_setup,"ax",%progbits
 1543              		.align	2
 1544              		.p2align 4,,15
 1545              		.thumb
 1546              		.thumb_func
 1547              		.type	mtx5_setup, %function
 1548              	mtx5_setup:
 1549              	.LFB26:
 1550              		.loc 1 432 0
 1551              		.cfi_startproc
 1552              		@ args = 0, pretend = 0, frame = 0
 1553              		@ frame_needed = 0, uses_anonymous_args = 0
 1554 0000 08B5     		push	{r3, lr}
 1555              	.LCFI34:
 1556              		.cfi_def_cfa_offset 8
 1557              		.cfi_offset 14, -4
 1558              		.cfi_offset 3, -8
 1559              		.loc 1 434 0
 1560 0002 40F20000 		movw	r0, #:lower16:m1
 1561 0006 C0F20000 		movt	r0, #:upper16:m1
 1562 000a FFF7FEFF 		bl	chMtxInit
 1563              		.loc 1 435 0
 1564 000e 08BD     		pop	{r3, pc}
 1565              		.cfi_endproc
 1566              	.LFE26:
 1567              		.size	mtx5_setup, .-mtx5_setup
 1568              		.section	.text.mtx5_execute,"ax",%progbits
ARM GAS  /tmp/ccskAj9V.s 			page 29


 1569              		.align	2
 1570              		.p2align 4,,15
 1571              		.thumb
 1572              		.thumb_func
 1573              		.type	mtx5_execute, %function
 1574              	mtx5_execute:
 1575              	.LFB27:
 1576              		.loc 1 437 0
 1577              		.cfi_startproc
 1578              		@ args = 0, pretend = 0, frame = 8
 1579              		@ frame_needed = 0, uses_anonymous_args = 0
 1580 0000 00B5     		push	{lr}
 1581              	.LCFI35:
 1582              		.cfi_def_cfa_offset 4
 1583              		.cfi_offset 14, -4
 1584 0002 83B0     		sub	sp, sp, #12
 1585              	.LCFI36:
 1586              		.cfi_def_cfa_offset 16
 1587              		.loc 1 441 0
 1588 0004 40F20003 		movw	r3, #:lower16:rlist
 1589 0008 C0F20003 		movt	r3, #:upper16:rlist
 1590 000c 9B69     		ldr	r3, [r3, #24]
 1591 000e 9B68     		ldr	r3, [r3, #8]
 1592 0010 0193     		str	r3, [sp, #4]
 1593              		.loc 1 443 0
 1594 0012 40F20000 		movw	r0, #:lower16:m1
 1595 0016 C0F20000 		movt	r0, #:upper16:m1
 1596 001a FFF7FEFF 		bl	chMtxTryLock
 1597 001e 0346     		mov	r3, r0
 1598 0020 0093     		str	r3, [sp, #0]
 1599              		.loc 1 444 0
 1600 0022 4FF00100 		mov	r0, #1
 1601 0026 0099     		ldr	r1, [sp, #0]
 1602 0028 FFF7FEFF 		bl	_test_assert
 1603 002c 0346     		mov	r3, r0
 1604 002e 002B     		cmp	r3, #0
 1605 0030 40F08980 		bne	.L42
 1606              	.L43:
 1607              		.loc 1 446 0
 1608 0034 40F20000 		movw	r0, #:lower16:m1
 1609 0038 C0F20000 		movt	r0, #:upper16:m1
 1610 003c FFF7FEFF 		bl	chMtxTryLock
 1611 0040 0346     		mov	r3, r0
 1612 0042 0093     		str	r3, [sp, #0]
 1613              		.loc 1 447 0
 1614 0044 009B     		ldr	r3, [sp, #0]
 1615 0046 002B     		cmp	r3, #0
 1616 0048 14BF     		ite	ne
 1617 004a 0023     		movne	r3, #0
 1618 004c 0123     		moveq	r3, #1
 1619 004e 4FF00200 		mov	r0, #2
 1620 0052 1946     		mov	r1, r3
 1621 0054 FFF7FEFF 		bl	_test_assert
 1622 0058 0346     		mov	r3, r0
 1623 005a 002B     		cmp	r3, #0
 1624 005c 73D1     		bne	.L42
 1625              	.L45:
ARM GAS  /tmp/ccskAj9V.s 			page 30


 1626              	.LBB4:
 1627              		.loc 1 449 0
 1628 005e 4FF02003 		mov	r3, #32
 1629              	@ 449 "../../test/testmtx.c" 1
 1630 0062 83F31188 		msr     BASEPRI, r3
 1631              	@ 0 "" 2
 1632              		.thumb
 1633              	.LBE4:
 1634 0066 FFF7FEFF 		bl	dbg_check_lock
 1635              		.loc 1 450 0
 1636 006a FFF7FEFF 		bl	chMtxUnlockS
 1637              		.loc 1 451 0
 1638 006e FFF7FEFF 		bl	dbg_check_unlock
 1639              	.LBB5:
 1640 0072 4FF00003 		mov	r3, #0
 1641              	@ 451 "../../test/testmtx.c" 1
 1642 0076 83F31188 		msr     BASEPRI, r3
 1643              	@ 0 "" 2
 1644              		.thumb
 1645              	.LBE5:
 1646              		.loc 1 453 0
 1647 007a 40F20003 		movw	r3, #:lower16:m1
 1648 007e C0F20003 		movt	r3, #:upper16:m1
 1649 0082 1A68     		ldr	r2, [r3, #0]
 1650 0084 40F20003 		movw	r3, #:lower16:m1
 1651 0088 C0F20003 		movt	r3, #:upper16:m1
 1652 008c 9A42     		cmp	r2, r3
 1653 008e 14BF     		ite	ne
 1654 0090 0023     		movne	r3, #0
 1655 0092 0123     		moveq	r3, #1
 1656 0094 4FF00300 		mov	r0, #3
 1657 0098 1946     		mov	r1, r3
 1658 009a FFF7FEFF 		bl	_test_assert
 1659 009e 0346     		mov	r3, r0
 1660 00a0 002B     		cmp	r3, #0
 1661 00a2 50D1     		bne	.L42
 1662              	.L46:
 1663              		.loc 1 454 0
 1664 00a4 40F20003 		movw	r3, #:lower16:m1
 1665 00a8 C0F20003 		movt	r3, #:upper16:m1
 1666 00ac 9B68     		ldr	r3, [r3, #8]
 1667 00ae 002B     		cmp	r3, #0
 1668 00b0 14BF     		ite	ne
 1669 00b2 0023     		movne	r3, #0
 1670 00b4 0123     		moveq	r3, #1
 1671 00b6 4FF00400 		mov	r0, #4
 1672 00ba 1946     		mov	r1, r3
 1673 00bc FFF7FEFF 		bl	_test_assert
 1674 00c0 0346     		mov	r3, r0
 1675 00c2 002B     		cmp	r3, #0
 1676 00c4 3FD1     		bne	.L42
 1677              	.L47:
 1678              		.loc 1 455 0
 1679 00c6 40F20003 		movw	r3, #:lower16:rlist
 1680 00ca C0F20003 		movt	r3, #:upper16:rlist
 1681 00ce 9B69     		ldr	r3, [r3, #24]
 1682 00d0 9A68     		ldr	r2, [r3, #8]
ARM GAS  /tmp/ccskAj9V.s 			page 31


 1683 00d2 019B     		ldr	r3, [sp, #4]
 1684 00d4 9A42     		cmp	r2, r3
 1685 00d6 14BF     		ite	ne
 1686 00d8 0023     		movne	r3, #0
 1687 00da 0123     		moveq	r3, #1
 1688 00dc 4FF00500 		mov	r0, #5
 1689 00e0 1946     		mov	r1, r3
 1690 00e2 FFF7FEFF 		bl	_test_assert
 1691 00e6 0346     		mov	r3, r0
 1692 00e8 002B     		cmp	r3, #0
 1693 00ea 2CD1     		bne	.L42
 1694              	.L48:
 1695              		.loc 1 457 0
 1696 00ec 40F20000 		movw	r0, #:lower16:m1
 1697 00f0 C0F20000 		movt	r0, #:upper16:m1
 1698 00f4 FFF7FEFF 		bl	chMtxLock
 1699              		.loc 1 458 0
 1700 00f8 FFF7FEFF 		bl	chMtxUnlockAll
 1701              		.loc 1 459 0
 1702 00fc 40F20003 		movw	r3, #:lower16:m1
 1703 0100 C0F20003 		movt	r3, #:upper16:m1
 1704 0104 1A68     		ldr	r2, [r3, #0]
 1705 0106 40F20003 		movw	r3, #:lower16:m1
 1706 010a C0F20003 		movt	r3, #:upper16:m1
 1707 010e 9A42     		cmp	r2, r3
 1708 0110 14BF     		ite	ne
 1709 0112 0023     		movne	r3, #0
 1710 0114 0123     		moveq	r3, #1
 1711 0116 4FF00600 		mov	r0, #6
 1712 011a 1946     		mov	r1, r3
 1713 011c FFF7FEFF 		bl	_test_assert
 1714 0120 0346     		mov	r3, r0
 1715 0122 002B     		cmp	r3, #0
 1716 0124 0FD1     		bne	.L42
 1717              	.L49:
 1718              		.loc 1 460 0
 1719 0126 40F20003 		movw	r3, #:lower16:m1
 1720 012a C0F20003 		movt	r3, #:upper16:m1
 1721 012e 9B68     		ldr	r3, [r3, #8]
 1722 0130 002B     		cmp	r3, #0
 1723 0132 14BF     		ite	ne
 1724 0134 0023     		movne	r3, #0
 1725 0136 0123     		moveq	r3, #1
 1726 0138 4FF00700 		mov	r0, #7
 1727 013c 1946     		mov	r1, r3
 1728 013e FFF7FEFF 		bl	_test_assert
 1729 0142 0346     		mov	r3, r0
 1730 0144 002B     		cmp	r3, #0
 1731              	.L42:
 1732              		.loc 1 461 0
 1733 0146 03B0     		add	sp, sp, #12
 1734 0148 00BD     		pop	{pc}
 1735              		.cfi_endproc
 1736              	.LFE27:
 1737              		.size	mtx5_execute, .-mtx5_execute
 1738              		.global	testmtx5
 1739 014a 00BFAFF3 		.section	.rodata
ARM GAS  /tmp/ccskAj9V.s 			page 32


 1739      0080
 1740 00b5 000000   		.align	2
 1741              	.LC11:
 1742 00b8 4D757465 		.ascii	"Mutexes, status\000"
 1742      7865732C 
 1742      20737461 
 1742      74757300 
 1743              		.section	.rodata.testmtx5,"a",%progbits
 1744              		.align	2
 1745              		.type	testmtx5, %object
 1746              		.size	testmtx5, 16
 1747              	testmtx5:
 1748 0000 B8000000 		.word	.LC11
 1749 0004 00000000 		.word	mtx5_setup
 1750 0008 00000000 		.word	0
 1751 000c 00000000 		.word	mtx5_execute
 1752              		.section	.text.mtx6_setup,"ax",%progbits
 1753              		.align	2
 1754              		.p2align 4,,15
 1755              		.thumb
 1756              		.thumb_func
 1757              		.type	mtx6_setup, %function
 1758              	mtx6_setup:
 1759              	.LFB28:
 1760              		.loc 1 482 0
 1761              		.cfi_startproc
 1762              		@ args = 0, pretend = 0, frame = 0
 1763              		@ frame_needed = 0, uses_anonymous_args = 0
 1764 0000 08B5     		push	{r3, lr}
 1765              	.LCFI37:
 1766              		.cfi_def_cfa_offset 8
 1767              		.cfi_offset 14, -4
 1768              		.cfi_offset 3, -8
 1769              		.loc 1 484 0
 1770 0002 40F20000 		movw	r0, #:lower16:c1
 1771 0006 C0F20000 		movt	r0, #:upper16:c1
 1772 000a FFF7FEFF 		bl	chCondInit
 1773              		.loc 1 485 0
 1774 000e 40F20000 		movw	r0, #:lower16:m1
 1775 0012 C0F20000 		movt	r0, #:upper16:m1
 1776 0016 FFF7FEFF 		bl	chMtxInit
 1777              		.loc 1 486 0
 1778 001a 08BD     		pop	{r3, pc}
 1779              		.cfi_endproc
 1780              	.LFE28:
 1781              		.size	mtx6_setup, .-mtx6_setup
 1782 001c AFF30080 		.section	.text.thread10,"ax",%progbits
 1783              		.align	2
 1784              		.p2align 4,,15
 1785              		.thumb
 1786              		.thumb_func
 1787              		.type	thread10, %function
 1788              	thread10:
 1789              	.LFB29:
 1790              		.loc 1 488 0
 1791              		.cfi_startproc
 1792              		@ args = 0, pretend = 0, frame = 8
ARM GAS  /tmp/ccskAj9V.s 			page 33


 1793              		@ frame_needed = 0, uses_anonymous_args = 0
 1794 0000 00B5     		push	{lr}
 1795              	.LCFI38:
 1796              		.cfi_def_cfa_offset 4
 1797              		.cfi_offset 14, -4
 1798 0002 83B0     		sub	sp, sp, #12
 1799              	.LCFI39:
 1800              		.cfi_def_cfa_offset 16
 1801 0004 0190     		str	r0, [sp, #4]
 1802              		.loc 1 490 0
 1803 0006 40F20000 		movw	r0, #:lower16:m1
 1804 000a C0F20000 		movt	r0, #:upper16:m1
 1805 000e FFF7FEFF 		bl	chMtxLock
 1806              		.loc 1 491 0
 1807 0012 40F20000 		movw	r0, #:lower16:c1
 1808 0016 C0F20000 		movt	r0, #:upper16:c1
 1809 001a FFF7FEFF 		bl	chCondWait
 1810              		.loc 1 492 0
 1811 001e 019B     		ldr	r3, [sp, #4]
 1812 0020 1B78     		ldrb	r3, [r3, #0]	@ zero_extendqisi2
 1813 0022 1846     		mov	r0, r3
 1814 0024 FFF7FEFF 		bl	test_emit_token
 1815              		.loc 1 493 0
 1816 0028 FFF7FEFF 		bl	chMtxUnlock
 1817              		.loc 1 494 0
 1818 002c 4FF00003 		mov	r3, #0
 1819              		.loc 1 495 0
 1820 0030 1846     		mov	r0, r3
 1821 0032 03B0     		add	sp, sp, #12
 1822 0034 00BD     		pop	{pc}
 1823              		.cfi_endproc
 1824              	.LFE29:
 1825              		.size	thread10, .-thread10
 1826 0036 00BFAFF3 		.section	.text.mtx6_execute,"ax",%progbits
 1826      0080AFF3 
 1826      0080
 1827              		.align	2
 1828              		.p2align 4,,15
 1829              		.thumb
 1830              		.thumb_func
 1831              		.type	mtx6_execute, %function
 1832              	mtx6_execute:
 1833              	.LFB30:
 1834              		.loc 1 497 0
 1835              		.cfi_startproc
 1836              		@ args = 0, pretend = 0, frame = 8
 1837              		@ frame_needed = 0, uses_anonymous_args = 0
 1838 0000 00B5     		push	{lr}
 1839              	.LCFI40:
 1840              		.cfi_def_cfa_offset 4
 1841              		.cfi_offset 14, -4
 1842 0002 85B0     		sub	sp, sp, #20
 1843              	.LCFI41:
 1844              		.cfi_def_cfa_offset 24
 1845              		.loc 1 499 0
 1846 0004 40F20003 		movw	r3, #:lower16:rlist
 1847 0008 C0F20003 		movt	r3, #:upper16:rlist
ARM GAS  /tmp/ccskAj9V.s 			page 34


 1848 000c 9B69     		ldr	r3, [r3, #24]
 1849 000e 9B68     		ldr	r3, [r3, #8]
 1850 0010 0393     		str	r3, [sp, #12]
 1851              		.loc 1 500 0
 1852 0012 40F20003 		movw	r3, #:lower16:wa
 1853 0016 C0F20003 		movt	r3, #:upper16:wa
 1854 001a 1968     		ldr	r1, [r3, #0]
 1855 001c 039B     		ldr	r3, [sp, #12]
 1856 001e 03F10102 		add	r2, r3, #1
 1857 0022 40F20003 		movw	r3, #:lower16:.LC0
 1858 0026 C0F20003 		movt	r3, #:upper16:.LC0
 1859 002a 0093     		str	r3, [sp, #0]
 1860 002c 0846     		mov	r0, r1
 1861 002e 4FF49871 		mov	r1, #304
 1862 0032 40F20003 		movw	r3, #:lower16:thread10
 1863 0036 C0F20003 		movt	r3, #:upper16:thread10
 1864 003a FFF7FEFF 		bl	chThdCreateStatic
 1865 003e 0246     		mov	r2, r0
 1866 0040 40F20003 		movw	r3, #:lower16:threads
 1867 0044 C0F20003 		movt	r3, #:upper16:threads
 1868 0048 1A60     		str	r2, [r3, #0]
 1869              		.loc 1 501 0
 1870 004a 40F20003 		movw	r3, #:lower16:wa
 1871 004e C0F20003 		movt	r3, #:upper16:wa
 1872 0052 5968     		ldr	r1, [r3, #4]
 1873 0054 039B     		ldr	r3, [sp, #12]
 1874 0056 03F10202 		add	r2, r3, #2
 1875 005a 40F20003 		movw	r3, #:lower16:.LC1
 1876 005e C0F20003 		movt	r3, #:upper16:.LC1
 1877 0062 0093     		str	r3, [sp, #0]
 1878 0064 0846     		mov	r0, r1
 1879 0066 4FF49871 		mov	r1, #304
 1880 006a 40F20003 		movw	r3, #:lower16:thread10
 1881 006e C0F20003 		movt	r3, #:upper16:thread10
 1882 0072 FFF7FEFF 		bl	chThdCreateStatic
 1883 0076 0246     		mov	r2, r0
 1884 0078 40F20003 		movw	r3, #:lower16:threads
 1885 007c C0F20003 		movt	r3, #:upper16:threads
 1886 0080 5A60     		str	r2, [r3, #4]
 1887              		.loc 1 502 0
 1888 0082 40F20003 		movw	r3, #:lower16:wa
 1889 0086 C0F20003 		movt	r3, #:upper16:wa
 1890 008a 9968     		ldr	r1, [r3, #8]
 1891 008c 039B     		ldr	r3, [sp, #12]
 1892 008e 03F10302 		add	r2, r3, #3
 1893 0092 40F20003 		movw	r3, #:lower16:.LC2
 1894 0096 C0F20003 		movt	r3, #:upper16:.LC2
 1895 009a 0093     		str	r3, [sp, #0]
 1896 009c 0846     		mov	r0, r1
 1897 009e 4FF49871 		mov	r1, #304
 1898 00a2 40F20003 		movw	r3, #:lower16:thread10
 1899 00a6 C0F20003 		movt	r3, #:upper16:thread10
 1900 00aa FFF7FEFF 		bl	chThdCreateStatic
 1901 00ae 0246     		mov	r2, r0
 1902 00b0 40F20003 		movw	r3, #:lower16:threads
 1903 00b4 C0F20003 		movt	r3, #:upper16:threads
 1904 00b8 9A60     		str	r2, [r3, #8]
ARM GAS  /tmp/ccskAj9V.s 			page 35


 1905              		.loc 1 503 0
 1906 00ba 40F20003 		movw	r3, #:lower16:wa
 1907 00be C0F20003 		movt	r3, #:upper16:wa
 1908 00c2 D968     		ldr	r1, [r3, #12]
 1909 00c4 039B     		ldr	r3, [sp, #12]
 1910 00c6 03F10402 		add	r2, r3, #4
 1911 00ca 40F20003 		movw	r3, #:lower16:.LC3
 1912 00ce C0F20003 		movt	r3, #:upper16:.LC3
 1913 00d2 0093     		str	r3, [sp, #0]
 1914 00d4 0846     		mov	r0, r1
 1915 00d6 4FF49871 		mov	r1, #304
 1916 00da 40F20003 		movw	r3, #:lower16:thread10
 1917 00de C0F20003 		movt	r3, #:upper16:thread10
 1918 00e2 FFF7FEFF 		bl	chThdCreateStatic
 1919 00e6 0246     		mov	r2, r0
 1920 00e8 40F20003 		movw	r3, #:lower16:threads
 1921 00ec C0F20003 		movt	r3, #:upper16:threads
 1922 00f0 DA60     		str	r2, [r3, #12]
 1923              		.loc 1 504 0
 1924 00f2 40F20003 		movw	r3, #:lower16:wa
 1925 00f6 C0F20003 		movt	r3, #:upper16:wa
 1926 00fa 1969     		ldr	r1, [r3, #16]
 1927 00fc 039B     		ldr	r3, [sp, #12]
 1928 00fe 03F10502 		add	r2, r3, #5
 1929 0102 40F20003 		movw	r3, #:lower16:.LC4
 1930 0106 C0F20003 		movt	r3, #:upper16:.LC4
 1931 010a 0093     		str	r3, [sp, #0]
 1932 010c 0846     		mov	r0, r1
 1933 010e 4FF49871 		mov	r1, #304
 1934 0112 40F20003 		movw	r3, #:lower16:thread10
 1935 0116 C0F20003 		movt	r3, #:upper16:thread10
 1936 011a FFF7FEFF 		bl	chThdCreateStatic
 1937 011e 0246     		mov	r2, r0
 1938 0120 40F20003 		movw	r3, #:lower16:threads
 1939 0124 C0F20003 		movt	r3, #:upper16:threads
 1940 0128 1A61     		str	r2, [r3, #16]
 1941              	.LBB6:
 1942              		.loc 1 505 0
 1943 012a 4FF02003 		mov	r3, #32
 1944              	@ 505 "../../test/testmtx.c" 1
 1945 012e 83F31188 		msr     BASEPRI, r3
 1946              	@ 0 "" 2
 1947              		.thumb
 1948              	.LBE6:
 1949 0132 FFF7FEFF 		bl	dbg_check_lock
 1950              		.loc 1 506 0
 1951 0136 40F20000 		movw	r0, #:lower16:c1
 1952 013a C0F20000 		movt	r0, #:upper16:c1
 1953 013e FFF7FEFF 		bl	chCondSignalI
 1954              		.loc 1 507 0
 1955 0142 40F20000 		movw	r0, #:lower16:c1
 1956 0146 C0F20000 		movt	r0, #:upper16:c1
 1957 014a FFF7FEFF 		bl	chCondSignalI
 1958              		.loc 1 508 0
 1959 014e 40F20000 		movw	r0, #:lower16:c1
 1960 0152 C0F20000 		movt	r0, #:upper16:c1
 1961 0156 FFF7FEFF 		bl	chCondSignalI
ARM GAS  /tmp/ccskAj9V.s 			page 36


 1962              		.loc 1 509 0
 1963 015a 40F20000 		movw	r0, #:lower16:c1
 1964 015e C0F20000 		movt	r0, #:upper16:c1
 1965 0162 FFF7FEFF 		bl	chCondSignalI
 1966              		.loc 1 510 0
 1967 0166 40F20000 		movw	r0, #:lower16:c1
 1968 016a C0F20000 		movt	r0, #:upper16:c1
 1969 016e FFF7FEFF 		bl	chCondSignalI
 1970              		.loc 1 511 0
 1971 0172 FFF7FEFF 		bl	chSchRescheduleS
 1972              		.loc 1 512 0
 1973 0176 FFF7FEFF 		bl	dbg_check_unlock
 1974              	.LBB7:
 1975 017a 4FF00003 		mov	r3, #0
 1976              	@ 512 "../../test/testmtx.c" 1
 1977 017e 83F31188 		msr     BASEPRI, r3
 1978              	@ 0 "" 2
 1979              		.thumb
 1980              	.LBE7:
 1981              		.loc 1 513 0
 1982 0182 FFF7FEFF 		bl	test_wait_threads
 1983              		.loc 1 514 0
 1984 0186 4FF00100 		mov	r0, #1
 1985 018a 40F20001 		movw	r1, #:lower16:.LC5
 1986 018e C0F20001 		movt	r1, #:upper16:.LC5
 1987 0192 FFF7FEFF 		bl	_test_assert_sequence
 1988 0196 0346     		mov	r3, r0
 1989 0198 002B     		cmp	r3, #0
 1990              		.loc 1 515 0
 1991 019a 05B0     		add	sp, sp, #20
 1992 019c 00BD     		pop	{pc}
 1993              		.cfi_endproc
 1994              	.LFE30:
 1995              		.size	mtx6_execute, .-mtx6_execute
 1996              		.global	testmtx6
 1997 019e 00BF     		.section	.rodata
 1998              		.align	2
 1999              	.LC12:
 2000 00c8 436F6E64 		.ascii	"CondVar, signal test\000"
 2000      5661722C 
 2000      20736967 
 2000      6E616C20 
 2000      74657374 
 2001              		.section	.rodata.testmtx6,"a",%progbits
 2002              		.align	2
 2003              		.type	testmtx6, %object
 2004              		.size	testmtx6, 16
 2005              	testmtx6:
 2006 0000 C8000000 		.word	.LC12
 2007 0004 00000000 		.word	mtx6_setup
 2008 0008 00000000 		.word	0
 2009 000c 00000000 		.word	mtx6_execute
 2010              		.section	.text.mtx7_setup,"ax",%progbits
 2011              		.align	2
 2012              		.p2align 4,,15
 2013              		.thumb
 2014              		.thumb_func
ARM GAS  /tmp/ccskAj9V.s 			page 37


 2015              		.type	mtx7_setup, %function
 2016              	mtx7_setup:
 2017              	.LFB31:
 2018              		.loc 1 534 0
 2019              		.cfi_startproc
 2020              		@ args = 0, pretend = 0, frame = 0
 2021              		@ frame_needed = 0, uses_anonymous_args = 0
 2022 0000 08B5     		push	{r3, lr}
 2023              	.LCFI42:
 2024              		.cfi_def_cfa_offset 8
 2025              		.cfi_offset 14, -4
 2026              		.cfi_offset 3, -8
 2027              		.loc 1 536 0
 2028 0002 40F20000 		movw	r0, #:lower16:c1
 2029 0006 C0F20000 		movt	r0, #:upper16:c1
 2030 000a FFF7FEFF 		bl	chCondInit
 2031              		.loc 1 537 0
 2032 000e 40F20000 		movw	r0, #:lower16:m1
 2033 0012 C0F20000 		movt	r0, #:upper16:m1
 2034 0016 FFF7FEFF 		bl	chMtxInit
 2035              		.loc 1 538 0
 2036 001a 08BD     		pop	{r3, pc}
 2037              		.cfi_endproc
 2038              	.LFE31:
 2039              		.size	mtx7_setup, .-mtx7_setup
 2040 001c AFF30080 		.section	.text.mtx7_execute,"ax",%progbits
 2041              		.align	2
 2042              		.p2align 4,,15
 2043              		.thumb
 2044              		.thumb_func
 2045              		.type	mtx7_execute, %function
 2046              	mtx7_execute:
 2047              	.LFB32:
 2048              		.loc 1 540 0
 2049              		.cfi_startproc
 2050              		@ args = 0, pretend = 0, frame = 8
 2051              		@ frame_needed = 0, uses_anonymous_args = 0
 2052 0000 00B5     		push	{lr}
 2053              	.LCFI43:
 2054              		.cfi_def_cfa_offset 4
 2055              		.cfi_offset 14, -4
 2056 0002 85B0     		sub	sp, sp, #20
 2057              	.LCFI44:
 2058              		.cfi_def_cfa_offset 24
 2059              		.loc 1 542 0
 2060 0004 40F20003 		movw	r3, #:lower16:rlist
 2061 0008 C0F20003 		movt	r3, #:upper16:rlist
 2062 000c 9B69     		ldr	r3, [r3, #24]
 2063 000e 9B68     		ldr	r3, [r3, #8]
 2064 0010 0393     		str	r3, [sp, #12]
 2065              		.loc 1 543 0
 2066 0012 40F20003 		movw	r3, #:lower16:wa
 2067 0016 C0F20003 		movt	r3, #:upper16:wa
 2068 001a 1968     		ldr	r1, [r3, #0]
 2069 001c 039B     		ldr	r3, [sp, #12]
 2070 001e 03F10102 		add	r2, r3, #1
 2071 0022 40F20003 		movw	r3, #:lower16:.LC0
ARM GAS  /tmp/ccskAj9V.s 			page 38


 2072 0026 C0F20003 		movt	r3, #:upper16:.LC0
 2073 002a 0093     		str	r3, [sp, #0]
 2074 002c 0846     		mov	r0, r1
 2075 002e 4FF49871 		mov	r1, #304
 2076 0032 40F20003 		movw	r3, #:lower16:thread10
 2077 0036 C0F20003 		movt	r3, #:upper16:thread10
 2078 003a FFF7FEFF 		bl	chThdCreateStatic
 2079 003e 0246     		mov	r2, r0
 2080 0040 40F20003 		movw	r3, #:lower16:threads
 2081 0044 C0F20003 		movt	r3, #:upper16:threads
 2082 0048 1A60     		str	r2, [r3, #0]
 2083              		.loc 1 544 0
 2084 004a 40F20003 		movw	r3, #:lower16:wa
 2085 004e C0F20003 		movt	r3, #:upper16:wa
 2086 0052 5968     		ldr	r1, [r3, #4]
 2087 0054 039B     		ldr	r3, [sp, #12]
 2088 0056 03F10202 		add	r2, r3, #2
 2089 005a 40F20003 		movw	r3, #:lower16:.LC1
 2090 005e C0F20003 		movt	r3, #:upper16:.LC1
 2091 0062 0093     		str	r3, [sp, #0]
 2092 0064 0846     		mov	r0, r1
 2093 0066 4FF49871 		mov	r1, #304
 2094 006a 40F20003 		movw	r3, #:lower16:thread10
 2095 006e C0F20003 		movt	r3, #:upper16:thread10
 2096 0072 FFF7FEFF 		bl	chThdCreateStatic
 2097 0076 0246     		mov	r2, r0
 2098 0078 40F20003 		movw	r3, #:lower16:threads
 2099 007c C0F20003 		movt	r3, #:upper16:threads
 2100 0080 5A60     		str	r2, [r3, #4]
 2101              		.loc 1 545 0
 2102 0082 40F20003 		movw	r3, #:lower16:wa
 2103 0086 C0F20003 		movt	r3, #:upper16:wa
 2104 008a 9968     		ldr	r1, [r3, #8]
 2105 008c 039B     		ldr	r3, [sp, #12]
 2106 008e 03F10302 		add	r2, r3, #3
 2107 0092 40F20003 		movw	r3, #:lower16:.LC2
 2108 0096 C0F20003 		movt	r3, #:upper16:.LC2
 2109 009a 0093     		str	r3, [sp, #0]
 2110 009c 0846     		mov	r0, r1
 2111 009e 4FF49871 		mov	r1, #304
 2112 00a2 40F20003 		movw	r3, #:lower16:thread10
 2113 00a6 C0F20003 		movt	r3, #:upper16:thread10
 2114 00aa FFF7FEFF 		bl	chThdCreateStatic
 2115 00ae 0246     		mov	r2, r0
 2116 00b0 40F20003 		movw	r3, #:lower16:threads
 2117 00b4 C0F20003 		movt	r3, #:upper16:threads
 2118 00b8 9A60     		str	r2, [r3, #8]
 2119              		.loc 1 546 0
 2120 00ba 40F20003 		movw	r3, #:lower16:wa
 2121 00be C0F20003 		movt	r3, #:upper16:wa
 2122 00c2 D968     		ldr	r1, [r3, #12]
 2123 00c4 039B     		ldr	r3, [sp, #12]
 2124 00c6 03F10402 		add	r2, r3, #4
 2125 00ca 40F20003 		movw	r3, #:lower16:.LC3
 2126 00ce C0F20003 		movt	r3, #:upper16:.LC3
 2127 00d2 0093     		str	r3, [sp, #0]
 2128 00d4 0846     		mov	r0, r1
ARM GAS  /tmp/ccskAj9V.s 			page 39


 2129 00d6 4FF49871 		mov	r1, #304
 2130 00da 40F20003 		movw	r3, #:lower16:thread10
 2131 00de C0F20003 		movt	r3, #:upper16:thread10
 2132 00e2 FFF7FEFF 		bl	chThdCreateStatic
 2133 00e6 0246     		mov	r2, r0
 2134 00e8 40F20003 		movw	r3, #:lower16:threads
 2135 00ec C0F20003 		movt	r3, #:upper16:threads
 2136 00f0 DA60     		str	r2, [r3, #12]
 2137              		.loc 1 547 0
 2138 00f2 40F20003 		movw	r3, #:lower16:wa
 2139 00f6 C0F20003 		movt	r3, #:upper16:wa
 2140 00fa 1969     		ldr	r1, [r3, #16]
 2141 00fc 039B     		ldr	r3, [sp, #12]
 2142 00fe 03F10502 		add	r2, r3, #5
 2143 0102 40F20003 		movw	r3, #:lower16:.LC4
 2144 0106 C0F20003 		movt	r3, #:upper16:.LC4
 2145 010a 0093     		str	r3, [sp, #0]
 2146 010c 0846     		mov	r0, r1
 2147 010e 4FF49871 		mov	r1, #304
 2148 0112 40F20003 		movw	r3, #:lower16:thread10
 2149 0116 C0F20003 		movt	r3, #:upper16:thread10
 2150 011a FFF7FEFF 		bl	chThdCreateStatic
 2151 011e 0246     		mov	r2, r0
 2152 0120 40F20003 		movw	r3, #:lower16:threads
 2153 0124 C0F20003 		movt	r3, #:upper16:threads
 2154 0128 1A61     		str	r2, [r3, #16]
 2155              		.loc 1 548 0
 2156 012a 40F20000 		movw	r0, #:lower16:c1
 2157 012e C0F20000 		movt	r0, #:upper16:c1
 2158 0132 FFF7FEFF 		bl	chCondBroadcast
 2159              		.loc 1 549 0
 2160 0136 FFF7FEFF 		bl	test_wait_threads
 2161              		.loc 1 550 0
 2162 013a 4FF00100 		mov	r0, #1
 2163 013e 40F20001 		movw	r1, #:lower16:.LC5
 2164 0142 C0F20001 		movt	r1, #:upper16:.LC5
 2165 0146 FFF7FEFF 		bl	_test_assert_sequence
 2166 014a 0346     		mov	r3, r0
 2167 014c 002B     		cmp	r3, #0
 2168              		.loc 1 551 0
 2169 014e 05B0     		add	sp, sp, #20
 2170 0150 00BD     		pop	{pc}
 2171              		.cfi_endproc
 2172              	.LFE32:
 2173              		.size	mtx7_execute, .-mtx7_execute
 2174              		.global	testmtx7
 2175 0152 00BFAFF3 		.section	.rodata
 2175      0080AFF3 
 2175      0080AFF3 
 2175      0080
 2176 00dd 000000   		.align	2
 2177              	.LC13:
 2178 00e0 436F6E64 		.ascii	"CondVar, broadcast test\000"
 2178      5661722C 
 2178      2062726F 
 2178      61646361 
 2178      73742074 
ARM GAS  /tmp/ccskAj9V.s 			page 40


 2179              		.section	.rodata.testmtx7,"a",%progbits
 2180              		.align	2
 2181              		.type	testmtx7, %object
 2182              		.size	testmtx7, 16
 2183              	testmtx7:
 2184 0000 E0000000 		.word	.LC13
 2185 0004 00000000 		.word	mtx7_setup
 2186 0008 00000000 		.word	0
 2187 000c 00000000 		.word	mtx7_execute
 2188              		.section	.text.mtx8_setup,"ax",%progbits
 2189              		.align	2
 2190              		.p2align 4,,15
 2191              		.thumb
 2192              		.thumb_func
 2193              		.type	mtx8_setup, %function
 2194              	mtx8_setup:
 2195              	.LFB33:
 2196              		.loc 1 569 0
 2197              		.cfi_startproc
 2198              		@ args = 0, pretend = 0, frame = 0
 2199              		@ frame_needed = 0, uses_anonymous_args = 0
 2200 0000 08B5     		push	{r3, lr}
 2201              	.LCFI45:
 2202              		.cfi_def_cfa_offset 8
 2203              		.cfi_offset 14, -4
 2204              		.cfi_offset 3, -8
 2205              		.loc 1 571 0
 2206 0002 40F20000 		movw	r0, #:lower16:c1
 2207 0006 C0F20000 		movt	r0, #:upper16:c1
 2208 000a FFF7FEFF 		bl	chCondInit
 2209              		.loc 1 572 0
 2210 000e 40F20000 		movw	r0, #:lower16:m1
 2211 0012 C0F20000 		movt	r0, #:upper16:m1
 2212 0016 FFF7FEFF 		bl	chMtxInit
 2213              		.loc 1 573 0
 2214 001a 40F20000 		movw	r0, #:lower16:m2
 2215 001e C0F20000 		movt	r0, #:upper16:m2
 2216 0022 FFF7FEFF 		bl	chMtxInit
 2217              		.loc 1 574 0
 2218 0026 08BD     		pop	{r3, pc}
 2219              		.cfi_endproc
 2220              	.LFE33:
 2221              		.size	mtx8_setup, .-mtx8_setup
 2222 0028 AFF30080 		.section	.text.thread11,"ax",%progbits
 2222      AFF30080 
 2223              		.align	2
 2224              		.p2align 4,,15
 2225              		.thumb
 2226              		.thumb_func
 2227              		.type	thread11, %function
 2228              	thread11:
 2229              	.LFB34:
 2230              		.loc 1 576 0
 2231              		.cfi_startproc
 2232              		@ args = 0, pretend = 0, frame = 8
 2233              		@ frame_needed = 0, uses_anonymous_args = 0
 2234 0000 00B5     		push	{lr}
ARM GAS  /tmp/ccskAj9V.s 			page 41


 2235              	.LCFI46:
 2236              		.cfi_def_cfa_offset 4
 2237              		.cfi_offset 14, -4
 2238 0002 83B0     		sub	sp, sp, #12
 2239              	.LCFI47:
 2240              		.cfi_def_cfa_offset 16
 2241 0004 0190     		str	r0, [sp, #4]
 2242              		.loc 1 578 0
 2243 0006 40F20000 		movw	r0, #:lower16:m2
 2244 000a C0F20000 		movt	r0, #:upper16:m2
 2245 000e FFF7FEFF 		bl	chMtxLock
 2246              		.loc 1 579 0
 2247 0012 40F20000 		movw	r0, #:lower16:m1
 2248 0016 C0F20000 		movt	r0, #:upper16:m1
 2249 001a FFF7FEFF 		bl	chMtxLock
 2250              		.loc 1 581 0
 2251 001e 40F20000 		movw	r0, #:lower16:c1
 2252 0022 C0F20000 		movt	r0, #:upper16:c1
 2253 0026 4FF0FF31 		mov	r1, #-1
 2254 002a FFF7FEFF 		bl	chCondWaitTimeout
 2255              		.loc 1 585 0
 2256 002e 019B     		ldr	r3, [sp, #4]
 2257 0030 1B78     		ldrb	r3, [r3, #0]	@ zero_extendqisi2
 2258 0032 1846     		mov	r0, r3
 2259 0034 FFF7FEFF 		bl	test_emit_token
 2260              		.loc 1 586 0
 2261 0038 FFF7FEFF 		bl	chMtxUnlock
 2262              		.loc 1 587 0
 2263 003c FFF7FEFF 		bl	chMtxUnlock
 2264              		.loc 1 588 0
 2265 0040 4FF00003 		mov	r3, #0
 2266              		.loc 1 589 0
 2267 0044 1846     		mov	r0, r3
 2268 0046 03B0     		add	sp, sp, #12
 2269 0048 00BD     		pop	{pc}
 2270              		.cfi_endproc
 2271              	.LFE34:
 2272              		.size	thread11, .-thread11
 2273 004a 00BFAFF3 		.section	.text.thread12,"ax",%progbits
 2273      0080
 2274              		.align	2
 2275              		.p2align 4,,15
 2276              		.thumb
 2277              		.thumb_func
 2278              		.type	thread12, %function
 2279              	thread12:
 2280              	.LFB35:
 2281              		.loc 1 591 0
 2282              		.cfi_startproc
 2283              		@ args = 0, pretend = 0, frame = 8
 2284              		@ frame_needed = 0, uses_anonymous_args = 0
 2285 0000 00B5     		push	{lr}
 2286              	.LCFI48:
 2287              		.cfi_def_cfa_offset 4
 2288              		.cfi_offset 14, -4
 2289 0002 83B0     		sub	sp, sp, #12
 2290              	.LCFI49:
ARM GAS  /tmp/ccskAj9V.s 			page 42


 2291              		.cfi_def_cfa_offset 16
 2292 0004 0190     		str	r0, [sp, #4]
 2293              		.loc 1 593 0
 2294 0006 40F20000 		movw	r0, #:lower16:m2
 2295 000a C0F20000 		movt	r0, #:upper16:m2
 2296 000e FFF7FEFF 		bl	chMtxLock
 2297              		.loc 1 594 0
 2298 0012 019B     		ldr	r3, [sp, #4]
 2299 0014 1B78     		ldrb	r3, [r3, #0]	@ zero_extendqisi2
 2300 0016 1846     		mov	r0, r3
 2301 0018 FFF7FEFF 		bl	test_emit_token
 2302              		.loc 1 595 0
 2303 001c FFF7FEFF 		bl	chMtxUnlock
 2304              		.loc 1 596 0
 2305 0020 4FF00003 		mov	r3, #0
 2306              		.loc 1 597 0
 2307 0024 1846     		mov	r0, r3
 2308 0026 03B0     		add	sp, sp, #12
 2309 0028 00BD     		pop	{pc}
 2310              		.cfi_endproc
 2311              	.LFE35:
 2312              		.size	thread12, .-thread12
 2313 002a 00BFAFF3 		.section	.text.mtx8_execute,"ax",%progbits
 2313      0080
 2314              		.align	2
 2315              		.p2align 4,,15
 2316              		.thumb
 2317              		.thumb_func
 2318              		.type	mtx8_execute, %function
 2319              	mtx8_execute:
 2320              	.LFB36:
 2321              		.loc 1 599 0
 2322              		.cfi_startproc
 2323              		@ args = 0, pretend = 0, frame = 8
 2324              		@ frame_needed = 0, uses_anonymous_args = 0
 2325 0000 00B5     		push	{lr}
 2326              	.LCFI50:
 2327              		.cfi_def_cfa_offset 4
 2328              		.cfi_offset 14, -4
 2329 0002 85B0     		sub	sp, sp, #20
 2330              	.LCFI51:
 2331              		.cfi_def_cfa_offset 24
 2332              		.loc 1 601 0
 2333 0004 40F20003 		movw	r3, #:lower16:rlist
 2334 0008 C0F20003 		movt	r3, #:upper16:rlist
 2335 000c 9B69     		ldr	r3, [r3, #24]
 2336 000e 9B68     		ldr	r3, [r3, #8]
 2337 0010 0393     		str	r3, [sp, #12]
 2338              		.loc 1 602 0
 2339 0012 40F20003 		movw	r3, #:lower16:wa
 2340 0016 C0F20003 		movt	r3, #:upper16:wa
 2341 001a 1968     		ldr	r1, [r3, #0]
 2342 001c 039B     		ldr	r3, [sp, #12]
 2343 001e 03F10102 		add	r2, r3, #1
 2344 0022 40F20003 		movw	r3, #:lower16:.LC4
 2345 0026 C0F20003 		movt	r3, #:upper16:.LC4
 2346 002a 0093     		str	r3, [sp, #0]
ARM GAS  /tmp/ccskAj9V.s 			page 43


 2347 002c 0846     		mov	r0, r1
 2348 002e 4FF49871 		mov	r1, #304
 2349 0032 40F20003 		movw	r3, #:lower16:thread11
 2350 0036 C0F20003 		movt	r3, #:upper16:thread11
 2351 003a FFF7FEFF 		bl	chThdCreateStatic
 2352 003e 0246     		mov	r2, r0
 2353 0040 40F20003 		movw	r3, #:lower16:threads
 2354 0044 C0F20003 		movt	r3, #:upper16:threads
 2355 0048 1A60     		str	r2, [r3, #0]
 2356              		.loc 1 603 0
 2357 004a 40F20003 		movw	r3, #:lower16:wa
 2358 004e C0F20003 		movt	r3, #:upper16:wa
 2359 0052 5968     		ldr	r1, [r3, #4]
 2360 0054 039B     		ldr	r3, [sp, #12]
 2361 0056 03F10202 		add	r2, r3, #2
 2362 005a 40F20003 		movw	r3, #:lower16:.LC2
 2363 005e C0F20003 		movt	r3, #:upper16:.LC2
 2364 0062 0093     		str	r3, [sp, #0]
 2365 0064 0846     		mov	r0, r1
 2366 0066 4FF49871 		mov	r1, #304
 2367 006a 40F20003 		movw	r3, #:lower16:thread10
 2368 006e C0F20003 		movt	r3, #:upper16:thread10
 2369 0072 FFF7FEFF 		bl	chThdCreateStatic
 2370 0076 0246     		mov	r2, r0
 2371 0078 40F20003 		movw	r3, #:lower16:threads
 2372 007c C0F20003 		movt	r3, #:upper16:threads
 2373 0080 5A60     		str	r2, [r3, #4]
 2374              		.loc 1 604 0
 2375 0082 40F20003 		movw	r3, #:lower16:wa
 2376 0086 C0F20003 		movt	r3, #:upper16:wa
 2377 008a 9968     		ldr	r1, [r3, #8]
 2378 008c 039B     		ldr	r3, [sp, #12]
 2379 008e 03F10302 		add	r2, r3, #3
 2380 0092 40F20003 		movw	r3, #:lower16:.LC3
 2381 0096 C0F20003 		movt	r3, #:upper16:.LC3
 2382 009a 0093     		str	r3, [sp, #0]
 2383 009c 0846     		mov	r0, r1
 2384 009e 4FF49871 		mov	r1, #304
 2385 00a2 40F20003 		movw	r3, #:lower16:thread12
 2386 00a6 C0F20003 		movt	r3, #:upper16:thread12
 2387 00aa FFF7FEFF 		bl	chThdCreateStatic
 2388 00ae 0246     		mov	r2, r0
 2389 00b0 40F20003 		movw	r3, #:lower16:threads
 2390 00b4 C0F20003 		movt	r3, #:upper16:threads
 2391 00b8 9A60     		str	r2, [r3, #8]
 2392              		.loc 1 605 0
 2393 00ba 40F20000 		movw	r0, #:lower16:c1
 2394 00be C0F20000 		movt	r0, #:upper16:c1
 2395 00c2 FFF7FEFF 		bl	chCondSignal
 2396              		.loc 1 606 0
 2397 00c6 40F20000 		movw	r0, #:lower16:c1
 2398 00ca C0F20000 		movt	r0, #:upper16:c1
 2399 00ce FFF7FEFF 		bl	chCondSignal
 2400              		.loc 1 607 0
 2401 00d2 FFF7FEFF 		bl	test_wait_threads
 2402              		.loc 1 608 0
 2403 00d6 4FF00100 		mov	r0, #1
ARM GAS  /tmp/ccskAj9V.s 			page 44


 2404 00da 40F20001 		movw	r1, #:lower16:.LC7
 2405 00de C0F20001 		movt	r1, #:upper16:.LC7
 2406 00e2 FFF7FEFF 		bl	_test_assert_sequence
 2407 00e6 0346     		mov	r3, r0
 2408 00e8 002B     		cmp	r3, #0
 2409              		.loc 1 609 0
 2410 00ea 05B0     		add	sp, sp, #20
 2411 00ec 00BD     		pop	{pc}
 2412              		.cfi_endproc
 2413              	.LFE36:
 2414              		.size	mtx8_execute, .-mtx8_execute
 2415              		.global	testmtx8
 2416 00ee 00BF     		.section	.rodata
 2417              		.align	2
 2418              	.LC14:
 2419 00f8 436F6E64 		.ascii	"CondVar, boost test\000"
 2419      5661722C 
 2419      20626F6F 
 2419      73742074 
 2419      65737400 
 2420              		.section	.rodata.testmtx8,"a",%progbits
 2421              		.align	2
 2422              		.type	testmtx8, %object
 2423              		.size	testmtx8, 16
 2424              	testmtx8:
 2425 0000 F8000000 		.word	.LC14
 2426 0004 00000000 		.word	mtx8_setup
 2427 0008 00000000 		.word	0
 2428 000c 00000000 		.word	mtx8_execute
 2429              		.global	patternmtx
 2430              		.section	.rodata.patternmtx,"a",%progbits
 2431              		.align	2
 2432              		.type	patternmtx, %object
 2433              		.size	patternmtx, 36
 2434              	patternmtx:
 2435 0000 00000000 		.word	testmtx1
 2436 0004 00000000 		.word	testmtx2
 2437 0008 00000000 		.word	testmtx3
 2438 000c 00000000 		.word	testmtx4
 2439 0010 00000000 		.word	testmtx5
 2440 0014 00000000 		.word	testmtx6
 2441 0018 00000000 		.word	testmtx7
 2442 001c 00000000 		.word	testmtx8
 2443 0020 00000000 		.word	0
 2444              		.text
 2445              	.Letext0:
 2446              		.file 2 "/home/texzk/ChibiStudio/tools/GNU Tools ARM Embedded/4.6 2012q2/bin/../lib/gcc/arm-none-e
 2447              		.file 3 "../../os/ports/GCC/ARMCMx/chtypes.h"
 2448              		.file 4 "../../os/kernel/include/chlists.h"
 2449              		.file 5 "../../os/kernel/include/chthreads.h"
 2450              		.file 6 "../../os/ports/GCC/ARMCMx/chcore_v7m.h"
 2451              		.file 7 "../../os/kernel/include/chvt.h"
 2452              		.file 8 "../../os/kernel/include/chschd.h"
 2453              		.file 9 "../../os/kernel/include/chmtx.h"
 2454              		.file 10 "../../os/kernel/include/chcond.h"
 2455              		.file 11 "../../test/test.h"