ARM GAS  /tmp/ccvdAPFH.s 			page 1


   1              		.syntax unified
   2              		.cpu cortex-m3
   3              		.fpu softvfp
   4              		.eabi_attribute 20, 1
   5              		.eabi_attribute 21, 1
   6              		.eabi_attribute 23, 3
   7              		.eabi_attribute 24, 1
   8              		.eabi_attribute 25, 1
   9              		.eabi_attribute 26, 1
  10              		.eabi_attribute 30, 6
  11              		.eabi_attribute 34, 1
  12              		.eabi_attribute 18, 4
  13              		.thumb
  14              		.file	"timers.c"
  15              		.text
  16              	.Ltext0:
  17              		.cfi_sections	.debug_frame
  18              		.section	.bss.next_timeout,"aw",%nobits
  19              		.align	2
  20              		.type	next_timeout, %object
  21              		.size	next_timeout, 4
  22              	next_timeout:
  23 0000 00000000 		.space	4
  24              		.section	.bss.tcpip_tcp_timer_active,"aw",%nobits
  25              		.align	2
  26              		.type	tcpip_tcp_timer_active, %object
  27              		.size	tcpip_tcp_timer_active, 4
  28              	tcpip_tcp_timer_active:
  29 0000 00000000 		.space	4
  30              		.section	.text.tcpip_tcp_timer,"ax",%progbits
  31              		.align	2
  32              		.p2align 4,,15
  33              		.thumb
  34              		.thumb_func
  35              		.type	tcpip_tcp_timer, %function
  36              	tcpip_tcp_timer:
  37              	.LFB7:
  38              		.file 1 "../../ext/lwip/src/core/timers.c"
  39              		.loc 1 78 0
  40              		.cfi_startproc
  41              		@ args = 0, pretend = 0, frame = 8
  42              		@ frame_needed = 0, uses_anonymous_args = 0
  43 0000 00B5     		push	{lr}
  44              	.LCFI0:
  45              		.cfi_def_cfa_offset 4
  46              		.cfi_offset 14, -4
  47 0002 83B0     		sub	sp, sp, #12
  48              	.LCFI1:
  49              		.cfi_def_cfa_offset 16
  50 0004 0190     		str	r0, [sp, #4]
  51              		.loc 1 82 0
  52 0006 FFF7FEFF 		bl	tcp_tmr
  53              		.loc 1 84 0
  54 000a 40F20003 		movw	r3, #:lower16:tcp_active_pcbs
  55 000e C0F20003 		movt	r3, #:upper16:tcp_active_pcbs
  56 0012 1B68     		ldr	r3, [r3, #0]
  57 0014 002B     		cmp	r3, #0
ARM GAS  /tmp/ccvdAPFH.s 			page 2


  58 0016 06D1     		bne	.L2
  59              		.loc 1 84 0 is_stmt 0 discriminator 1
  60 0018 40F20003 		movw	r3, #:lower16:tcp_tw_pcbs
  61 001c C0F20003 		movt	r3, #:upper16:tcp_tw_pcbs
  62 0020 1B68     		ldr	r3, [r3, #0]
  63 0022 002B     		cmp	r3, #0
  64 0024 0AD0     		beq	.L3
  65              	.L2:
  66              		.loc 1 86 0 is_stmt 1
  67 0026 4FF0FA00 		mov	r0, #250
  68 002a 40F20001 		movw	r1, #:lower16:tcpip_tcp_timer
  69 002e C0F20001 		movt	r1, #:upper16:tcpip_tcp_timer
  70 0032 4FF00002 		mov	r2, #0
  71 0036 FFF7FEFF 		bl	sys_timeout
  72 003a 06E0     		b	.L1
  73              	.L3:
  74              		.loc 1 89 0
  75 003c 40F20003 		movw	r3, #:lower16:tcpip_tcp_timer_active
  76 0040 C0F20003 		movt	r3, #:upper16:tcpip_tcp_timer_active
  77 0044 4FF00002 		mov	r2, #0
  78 0048 1A60     		str	r2, [r3, #0]
  79              	.L1:
  80              		.loc 1 91 0
  81 004a 03B0     		add	sp, sp, #12
  82 004c 00BD     		pop	{pc}
  83              		.cfi_endproc
  84              	.LFE7:
  85              		.size	tcpip_tcp_timer, .-tcpip_tcp_timer
  86 004e 00BF     		.section	.text.tcp_timer_needed,"ax",%progbits
  87              		.align	2
  88              		.p2align 4,,15
  89              		.global	tcp_timer_needed
  90              		.thumb
  91              		.thumb_func
  92              		.type	tcp_timer_needed, %function
  93              	tcp_timer_needed:
  94              	.LFB8:
  95              		.loc 1 100 0
  96              		.cfi_startproc
  97              		@ args = 0, pretend = 0, frame = 0
  98              		@ frame_needed = 0, uses_anonymous_args = 0
  99 0000 08B5     		push	{r3, lr}
 100              	.LCFI2:
 101              		.cfi_def_cfa_offset 8
 102              		.cfi_offset 14, -4
 103              		.cfi_offset 3, -8
 104              		.loc 1 102 0
 105 0002 40F20003 		movw	r3, #:lower16:tcpip_tcp_timer_active
 106 0006 C0F20003 		movt	r3, #:upper16:tcpip_tcp_timer_active
 107 000a 1B68     		ldr	r3, [r3, #0]
 108 000c 002B     		cmp	r3, #0
 109 000e 1ED1     		bne	.L5
 110              		.loc 1 102 0 is_stmt 0 discriminator 1
 111 0010 40F20003 		movw	r3, #:lower16:tcp_active_pcbs
 112 0014 C0F20003 		movt	r3, #:upper16:tcp_active_pcbs
 113 0018 1B68     		ldr	r3, [r3, #0]
 114 001a 002B     		cmp	r3, #0
ARM GAS  /tmp/ccvdAPFH.s 			page 3


 115 001c 06D1     		bne	.L7
 116 001e 40F20003 		movw	r3, #:lower16:tcp_tw_pcbs
 117 0022 C0F20003 		movt	r3, #:upper16:tcp_tw_pcbs
 118 0026 1B68     		ldr	r3, [r3, #0]
 119 0028 002B     		cmp	r3, #0
 120 002a 10D0     		beq	.L5
 121              	.L7:
 122              		.loc 1 104 0 is_stmt 1
 123 002c 40F20003 		movw	r3, #:lower16:tcpip_tcp_timer_active
 124 0030 C0F20003 		movt	r3, #:upper16:tcpip_tcp_timer_active
 125 0034 4FF00102 		mov	r2, #1
 126 0038 1A60     		str	r2, [r3, #0]
 127              		.loc 1 105 0
 128 003a 4FF0FA00 		mov	r0, #250
 129 003e 40F20001 		movw	r1, #:lower16:tcpip_tcp_timer
 130 0042 C0F20001 		movt	r1, #:upper16:tcpip_tcp_timer
 131 0046 4FF00002 		mov	r2, #0
 132 004a FFF7FEFF 		bl	sys_timeout
 133              	.L5:
 134              		.loc 1 107 0
 135 004e 08BD     		pop	{r3, pc}
 136              		.cfi_endproc
 137              	.LFE8:
 138              		.size	tcp_timer_needed, .-tcp_timer_needed
 139              		.section	.text.ip_reass_timer,"ax",%progbits
 140              		.align	2
 141              		.p2align 4,,15
 142              		.thumb
 143              		.thumb_func
 144              		.type	ip_reass_timer, %function
 145              	ip_reass_timer:
 146              	.LFB9:
 147              		.loc 1 118 0
 148              		.cfi_startproc
 149              		@ args = 0, pretend = 0, frame = 8
 150              		@ frame_needed = 0, uses_anonymous_args = 0
 151 0000 00B5     		push	{lr}
 152              	.LCFI3:
 153              		.cfi_def_cfa_offset 4
 154              		.cfi_offset 14, -4
 155 0002 83B0     		sub	sp, sp, #12
 156              	.LCFI4:
 157              		.cfi_def_cfa_offset 16
 158 0004 0190     		str	r0, [sp, #4]
 159              		.loc 1 121 0
 160 0006 FFF7FEFF 		bl	ip_reass_tmr
 161              		.loc 1 122 0
 162 000a 4FF47A70 		mov	r0, #1000
 163 000e 40F20001 		movw	r1, #:lower16:ip_reass_timer
 164 0012 C0F20001 		movt	r1, #:upper16:ip_reass_timer
 165 0016 4FF00002 		mov	r2, #0
 166 001a FFF7FEFF 		bl	sys_timeout
 167              		.loc 1 123 0
 168 001e 03B0     		add	sp, sp, #12
 169 0020 00BD     		pop	{pc}
 170              		.cfi_endproc
 171              	.LFE9:
ARM GAS  /tmp/ccvdAPFH.s 			page 4


 172              		.size	ip_reass_timer, .-ip_reass_timer
 173 0022 00BFAFF3 		.section	.text.arp_timer,"ax",%progbits
 173      0080AFF3 
 173      0080AFF3 
 173      0080
 174              		.align	2
 175              		.p2align 4,,15
 176              		.thumb
 177              		.thumb_func
 178              		.type	arp_timer, %function
 179              	arp_timer:
 180              	.LFB10:
 181              		.loc 1 134 0
 182              		.cfi_startproc
 183              		@ args = 0, pretend = 0, frame = 8
 184              		@ frame_needed = 0, uses_anonymous_args = 0
 185 0000 00B5     		push	{lr}
 186              	.LCFI5:
 187              		.cfi_def_cfa_offset 4
 188              		.cfi_offset 14, -4
 189 0002 83B0     		sub	sp, sp, #12
 190              	.LCFI6:
 191              		.cfi_def_cfa_offset 16
 192 0004 0190     		str	r0, [sp, #4]
 193              		.loc 1 137 0
 194 0006 FFF7FEFF 		bl	etharp_tmr
 195              		.loc 1 138 0
 196 000a 41F28830 		movw	r0, #5000
 197 000e 40F20001 		movw	r1, #:lower16:arp_timer
 198 0012 C0F20001 		movt	r1, #:upper16:arp_timer
 199 0016 4FF00002 		mov	r2, #0
 200 001a FFF7FEFF 		bl	sys_timeout
 201              		.loc 1 139 0
 202 001e 03B0     		add	sp, sp, #12
 203 0020 00BD     		pop	{pc}
 204              		.cfi_endproc
 205              	.LFE10:
 206              		.size	arp_timer, .-arp_timer
 207 0022 00BFAFF3 		.section	.text.sys_timeouts_init,"ax",%progbits
 207      0080AFF3 
 207      0080AFF3 
 207      0080
 208              		.align	2
 209              		.p2align 4,,15
 210              		.global	sys_timeouts_init
 211              		.thumb
 212              		.thumb_func
 213              		.type	sys_timeouts_init, %function
 214              	sys_timeouts_init:
 215              	.LFB11:
 216              		.loc 1 222 0
 217              		.cfi_startproc
 218              		@ args = 0, pretend = 0, frame = 0
 219              		@ frame_needed = 0, uses_anonymous_args = 0
 220 0000 08B5     		push	{r3, lr}
 221              	.LCFI7:
 222              		.cfi_def_cfa_offset 8
ARM GAS  /tmp/ccvdAPFH.s 			page 5


 223              		.cfi_offset 14, -4
 224              		.cfi_offset 3, -8
 225              		.loc 1 224 0
 226 0002 4FF47A70 		mov	r0, #1000
 227 0006 40F20001 		movw	r1, #:lower16:ip_reass_timer
 228 000a C0F20001 		movt	r1, #:upper16:ip_reass_timer
 229 000e 4FF00002 		mov	r2, #0
 230 0012 FFF7FEFF 		bl	sys_timeout
 231              		.loc 1 227 0
 232 0016 41F28830 		movw	r0, #5000
 233 001a 40F20001 		movw	r1, #:lower16:arp_timer
 234 001e C0F20001 		movt	r1, #:upper16:arp_timer
 235 0022 4FF00002 		mov	r2, #0
 236 0026 FFF7FEFF 		bl	sys_timeout
 237              		.loc 1 247 0
 238 002a 08BD     		pop	{r3, pc}
 239              		.cfi_endproc
 240              	.LFE11:
 241              		.size	sys_timeouts_init, .-sys_timeouts_init
 242 002c AFF30080 		.section	.text.sys_timeout,"ax",%progbits
 243              		.align	2
 244              		.p2align 4,,15
 245              		.global	sys_timeout
 246              		.thumb
 247              		.thumb_func
 248              		.type	sys_timeout, %function
 249              	sys_timeout:
 250              	.LFB12:
 251              		.loc 1 266 0
 252              		.cfi_startproc
 253              		@ args = 0, pretend = 0, frame = 24
 254              		@ frame_needed = 0, uses_anonymous_args = 0
 255 0000 00B5     		push	{lr}
 256              	.LCFI8:
 257              		.cfi_def_cfa_offset 4
 258              		.cfi_offset 14, -4
 259 0002 87B0     		sub	sp, sp, #28
 260              	.LCFI9:
 261              		.cfi_def_cfa_offset 32
 262 0004 0390     		str	r0, [sp, #12]
 263 0006 0291     		str	r1, [sp, #8]
 264 0008 0192     		str	r2, [sp, #4]
 265              		.loc 1 269 0
 266 000a 4FF00B00 		mov	r0, #11
 267 000e FFF7FEFF 		bl	memp_malloc
 268 0012 0346     		mov	r3, r0
 269 0014 0493     		str	r3, [sp, #16]
 270              		.loc 1 270 0
 271 0016 049B     		ldr	r3, [sp, #16]
 272 0018 002B     		cmp	r3, #0
 273 001a 05D1     		bne	.L12
 274              		.loc 1 271 0
 275 001c 049B     		ldr	r3, [sp, #16]
 276 001e 002B     		cmp	r3, #0
 277 0020 77D1     		bne	.L22
 278              		.loc 1 271 0 is_stmt 0 discriminator 1
 279 0022 FFF7FEFF 		bl	port_halt
ARM GAS  /tmp/ccvdAPFH.s 			page 6


 280              		.loc 1 272 0 is_stmt 1 discriminator 1
 281 0026 74E0     		b	.L22
 282              	.L12:
 283              		.loc 1 274 0
 284 0028 049B     		ldr	r3, [sp, #16]
 285 002a 4FF00002 		mov	r2, #0
 286 002e 1A60     		str	r2, [r3, #0]
 287              		.loc 1 275 0
 288 0030 049B     		ldr	r3, [sp, #16]
 289 0032 029A     		ldr	r2, [sp, #8]
 290 0034 9A60     		str	r2, [r3, #8]
 291              		.loc 1 276 0
 292 0036 049B     		ldr	r3, [sp, #16]
 293 0038 019A     		ldr	r2, [sp, #4]
 294 003a DA60     		str	r2, [r3, #12]
 295              		.loc 1 277 0
 296 003c 049B     		ldr	r3, [sp, #16]
 297 003e 039A     		ldr	r2, [sp, #12]
 298 0040 5A60     		str	r2, [r3, #4]
 299              		.loc 1 284 0
 300 0042 40F20003 		movw	r3, #:lower16:next_timeout
 301 0046 C0F20003 		movt	r3, #:upper16:next_timeout
 302 004a 1B68     		ldr	r3, [r3, #0]
 303 004c 002B     		cmp	r3, #0
 304 004e 06D1     		bne	.L15
 305              		.loc 1 285 0
 306 0050 40F20003 		movw	r3, #:lower16:next_timeout
 307 0054 C0F20003 		movt	r3, #:upper16:next_timeout
 308 0058 049A     		ldr	r2, [sp, #16]
 309 005a 1A60     		str	r2, [r3, #0]
 310              		.loc 1 286 0
 311 005c 5AE0     		b	.L11
 312              	.L15:
 313              		.loc 1 289 0
 314 005e 40F20003 		movw	r3, #:lower16:next_timeout
 315 0062 C0F20003 		movt	r3, #:upper16:next_timeout
 316 0066 1B68     		ldr	r3, [r3, #0]
 317 0068 5A68     		ldr	r2, [r3, #4]
 318 006a 039B     		ldr	r3, [sp, #12]
 319 006c 9A42     		cmp	r2, r3
 320 006e 1BD9     		bls	.L16
 321              		.loc 1 290 0
 322 0070 40F20003 		movw	r3, #:lower16:next_timeout
 323 0074 C0F20003 		movt	r3, #:upper16:next_timeout
 324 0078 1A68     		ldr	r2, [r3, #0]
 325 007a 40F20003 		movw	r3, #:lower16:next_timeout
 326 007e C0F20003 		movt	r3, #:upper16:next_timeout
 327 0082 1B68     		ldr	r3, [r3, #0]
 328 0084 5968     		ldr	r1, [r3, #4]
 329 0086 039B     		ldr	r3, [sp, #12]
 330 0088 CB1A     		subs	r3, r1, r3
 331 008a 5360     		str	r3, [r2, #4]
 332              		.loc 1 291 0
 333 008c 40F20003 		movw	r3, #:lower16:next_timeout
 334 0090 C0F20003 		movt	r3, #:upper16:next_timeout
 335 0094 1A68     		ldr	r2, [r3, #0]
 336 0096 049B     		ldr	r3, [sp, #16]
ARM GAS  /tmp/ccvdAPFH.s 			page 7


 337 0098 1A60     		str	r2, [r3, #0]
 338              		.loc 1 292 0
 339 009a 40F20003 		movw	r3, #:lower16:next_timeout
 340 009e C0F20003 		movt	r3, #:upper16:next_timeout
 341 00a2 049A     		ldr	r2, [sp, #16]
 342 00a4 1A60     		str	r2, [r3, #0]
 343 00a6 35E0     		b	.L11
 344              	.L16:
 345              		.loc 1 294 0
 346 00a8 40F20003 		movw	r3, #:lower16:next_timeout
 347 00ac C0F20003 		movt	r3, #:upper16:next_timeout
 348 00b0 1B68     		ldr	r3, [r3, #0]
 349 00b2 0593     		str	r3, [sp, #20]
 350 00b4 29E0     		b	.L17
 351              	.L21:
 352              		.loc 1 295 0
 353 00b6 049B     		ldr	r3, [sp, #16]
 354 00b8 5A68     		ldr	r2, [r3, #4]
 355 00ba 059B     		ldr	r3, [sp, #20]
 356 00bc 5B68     		ldr	r3, [r3, #4]
 357 00be D21A     		subs	r2, r2, r3
 358 00c0 049B     		ldr	r3, [sp, #16]
 359 00c2 5A60     		str	r2, [r3, #4]
 360              		.loc 1 296 0
 361 00c4 059B     		ldr	r3, [sp, #20]
 362 00c6 1B68     		ldr	r3, [r3, #0]
 363 00c8 002B     		cmp	r3, #0
 364 00ca 06D0     		beq	.L18
 365              		.loc 1 296 0 is_stmt 0 discriminator 1
 366 00cc 059B     		ldr	r3, [sp, #20]
 367 00ce 1B68     		ldr	r3, [r3, #0]
 368 00d0 5A68     		ldr	r2, [r3, #4]
 369 00d2 049B     		ldr	r3, [sp, #16]
 370 00d4 5B68     		ldr	r3, [r3, #4]
 371 00d6 9A42     		cmp	r2, r3
 372 00d8 14D9     		bls	.L19
 373              	.L18:
 374              		.loc 1 297 0 is_stmt 1
 375 00da 059B     		ldr	r3, [sp, #20]
 376 00dc 1B68     		ldr	r3, [r3, #0]
 377 00de 002B     		cmp	r3, #0
 378 00e0 08D0     		beq	.L20
 379              		.loc 1 298 0
 380 00e2 059B     		ldr	r3, [sp, #20]
 381 00e4 1B68     		ldr	r3, [r3, #0]
 382 00e6 059A     		ldr	r2, [sp, #20]
 383 00e8 1268     		ldr	r2, [r2, #0]
 384 00ea 5168     		ldr	r1, [r2, #4]
 385 00ec 049A     		ldr	r2, [sp, #16]
 386 00ee 5268     		ldr	r2, [r2, #4]
 387 00f0 8A1A     		subs	r2, r1, r2
 388 00f2 5A60     		str	r2, [r3, #4]
 389              	.L20:
 390              		.loc 1 300 0
 391 00f4 059B     		ldr	r3, [sp, #20]
 392 00f6 1A68     		ldr	r2, [r3, #0]
 393 00f8 049B     		ldr	r3, [sp, #16]
ARM GAS  /tmp/ccvdAPFH.s 			page 8


 394 00fa 1A60     		str	r2, [r3, #0]
 395              		.loc 1 301 0
 396 00fc 059B     		ldr	r3, [sp, #20]
 397 00fe 049A     		ldr	r2, [sp, #16]
 398 0100 1A60     		str	r2, [r3, #0]
 399              		.loc 1 302 0
 400 0102 07E0     		b	.L11
 401              	.L19:
 402              		.loc 1 294 0
 403 0104 059B     		ldr	r3, [sp, #20]
 404 0106 1B68     		ldr	r3, [r3, #0]
 405 0108 0593     		str	r3, [sp, #20]
 406              	.L17:
 407              		.loc 1 294 0 is_stmt 0 discriminator 1
 408 010a 059B     		ldr	r3, [sp, #20]
 409 010c 002B     		cmp	r3, #0
 410 010e D2D1     		bne	.L21
 411 0110 00E0     		b	.L11
 412              	.L22:
 413              		.loc 1 272 0 is_stmt 1
 414 0112 00BF     		nop
 415              	.L11:
 416              		.loc 1 306 0
 417 0114 07B0     		add	sp, sp, #28
 418 0116 00BD     		pop	{pc}
 419              		.cfi_endproc
 420              	.LFE12:
 421              		.size	sys_timeout, .-sys_timeout
 422 0118 AFF30080 		.section	.text.sys_untimeout,"ax",%progbits
 422      AFF30080 
 423              		.align	2
 424              		.p2align 4,,15
 425              		.global	sys_untimeout
 426              		.thumb
 427              		.thumb_func
 428              		.type	sys_untimeout, %function
 429              	sys_untimeout:
 430              	.LFB13:
 431              		.loc 1 320 0
 432              		.cfi_startproc
 433              		@ args = 0, pretend = 0, frame = 16
 434              		@ frame_needed = 0, uses_anonymous_args = 0
 435 0000 00B5     		push	{lr}
 436              	.LCFI10:
 437              		.cfi_def_cfa_offset 4
 438              		.cfi_offset 14, -4
 439 0002 85B0     		sub	sp, sp, #20
 440              	.LCFI11:
 441              		.cfi_def_cfa_offset 24
 442 0004 0190     		str	r0, [sp, #4]
 443 0006 0091     		str	r1, [sp, #0]
 444              		.loc 1 323 0
 445 0008 40F20003 		movw	r3, #:lower16:next_timeout
 446 000c C0F20003 		movt	r3, #:upper16:next_timeout
 447 0010 1B68     		ldr	r3, [r3, #0]
 448 0012 002B     		cmp	r3, #0
 449 0014 3ED0     		beq	.L32
ARM GAS  /tmp/ccvdAPFH.s 			page 9


 450              	.L24:
 451              		.loc 1 327 0
 452 0016 40F20003 		movw	r3, #:lower16:next_timeout
 453 001a C0F20003 		movt	r3, #:upper16:next_timeout
 454 001e 1B68     		ldr	r3, [r3, #0]
 455 0020 0293     		str	r3, [sp, #8]
 456 0022 4FF00003 		mov	r3, #0
 457 0026 0393     		str	r3, [sp, #12]
 458 0028 30E0     		b	.L26
 459              	.L31:
 460              		.loc 1 328 0
 461 002a 029B     		ldr	r3, [sp, #8]
 462 002c 9A68     		ldr	r2, [r3, #8]
 463 002e 019B     		ldr	r3, [sp, #4]
 464 0030 9A42     		cmp	r2, r3
 465 0032 26D1     		bne	.L27
 466              		.loc 1 328 0 is_stmt 0 discriminator 1
 467 0034 029B     		ldr	r3, [sp, #8]
 468 0036 DA68     		ldr	r2, [r3, #12]
 469 0038 009B     		ldr	r3, [sp, #0]
 470 003a 9A42     		cmp	r2, r3
 471 003c 21D1     		bne	.L27
 472              		.loc 1 331 0 is_stmt 1
 473 003e 039B     		ldr	r3, [sp, #12]
 474 0040 002B     		cmp	r3, #0
 475 0042 07D1     		bne	.L28
 476              		.loc 1 332 0
 477 0044 029B     		ldr	r3, [sp, #8]
 478 0046 1A68     		ldr	r2, [r3, #0]
 479 0048 40F20003 		movw	r3, #:lower16:next_timeout
 480 004c C0F20003 		movt	r3, #:upper16:next_timeout
 481 0050 1A60     		str	r2, [r3, #0]
 482 0052 03E0     		b	.L29
 483              	.L28:
 484              		.loc 1 334 0
 485 0054 029B     		ldr	r3, [sp, #8]
 486 0056 1A68     		ldr	r2, [r3, #0]
 487 0058 039B     		ldr	r3, [sp, #12]
 488 005a 1A60     		str	r2, [r3, #0]
 489              	.L29:
 490              		.loc 1 337 0
 491 005c 029B     		ldr	r3, [sp, #8]
 492 005e 1B68     		ldr	r3, [r3, #0]
 493 0060 002B     		cmp	r3, #0
 494 0062 08D0     		beq	.L30
 495              		.loc 1 338 0
 496 0064 029B     		ldr	r3, [sp, #8]
 497 0066 1B68     		ldr	r3, [r3, #0]
 498 0068 029A     		ldr	r2, [sp, #8]
 499 006a 1268     		ldr	r2, [r2, #0]
 500 006c 5168     		ldr	r1, [r2, #4]
 501 006e 029A     		ldr	r2, [sp, #8]
 502 0070 5268     		ldr	r2, [r2, #4]
 503 0072 8A18     		adds	r2, r1, r2
 504 0074 5A60     		str	r2, [r3, #4]
 505              	.L30:
 506              		.loc 1 340 0
ARM GAS  /tmp/ccvdAPFH.s 			page 10


 507 0076 4FF00B00 		mov	r0, #11
 508 007a 0299     		ldr	r1, [sp, #8]
 509 007c FFF7FEFF 		bl	memp_free
 510              		.loc 1 341 0
 511 0080 09E0     		b	.L23
 512              	.L27:
 513              		.loc 1 327 0
 514 0082 029B     		ldr	r3, [sp, #8]
 515 0084 0393     		str	r3, [sp, #12]
 516 0086 029B     		ldr	r3, [sp, #8]
 517 0088 1B68     		ldr	r3, [r3, #0]
 518 008a 0293     		str	r3, [sp, #8]
 519              	.L26:
 520              		.loc 1 327 0 is_stmt 0 discriminator 1
 521 008c 029B     		ldr	r3, [sp, #8]
 522 008e 002B     		cmp	r3, #0
 523 0090 CBD1     		bne	.L31
 524              		.loc 1 344 0 is_stmt 1
 525 0092 00E0     		b	.L23
 526              	.L32:
 527              		.loc 1 324 0
 528 0094 00BF     		nop
 529              	.L23:
 530              		.loc 1 345 0
 531 0096 05B0     		add	sp, sp, #20
 532 0098 00BD     		pop	{pc}
 533              		.cfi_endproc
 534              	.LFE13:
 535              		.size	sys_untimeout, .-sys_untimeout
 536 009a 00BFAFF3 		.section	.text.sys_timeouts_mbox_fetch,"ax",%progbits
 536      0080
 537              		.align	2
 538              		.p2align 4,,15
 539              		.global	sys_timeouts_mbox_fetch
 540              		.thumb
 541              		.thumb_func
 542              		.type	sys_timeouts_mbox_fetch, %function
 543              	sys_timeouts_mbox_fetch:
 544              	.LFB14:
 545              		.loc 1 419 0
 546              		.cfi_startproc
 547              		@ args = 0, pretend = 0, frame = 24
 548              		@ frame_needed = 0, uses_anonymous_args = 0
 549 0000 00B5     		push	{lr}
 550              	.LCFI12:
 551              		.cfi_def_cfa_offset 4
 552              		.cfi_offset 14, -4
 553 0002 87B0     		sub	sp, sp, #28
 554              	.LCFI13:
 555              		.cfi_def_cfa_offset 32
 556 0004 0190     		str	r0, [sp, #4]
 557 0006 0091     		str	r1, [sp, #0]
 558 0008 00E0     		b	.L34
 559              	.L42:
 560              		.loc 1 460 0
 561 000a 00BF     		nop
 562              	.L34:
ARM GAS  /tmp/ccvdAPFH.s 			page 11


 563              		.loc 1 426 0
 564 000c 40F20003 		movw	r3, #:lower16:next_timeout
 565 0010 C0F20003 		movt	r3, #:upper16:next_timeout
 566 0014 1B68     		ldr	r3, [r3, #0]
 567 0016 002B     		cmp	r3, #0
 568 0018 08D1     		bne	.L35
 569              		.loc 1 427 0
 570 001a 0198     		ldr	r0, [sp, #4]
 571 001c 0099     		ldr	r1, [sp, #0]
 572 001e 4FF00002 		mov	r2, #0
 573 0022 FFF7FEFF 		bl	sys_arch_mbox_fetch
 574 0026 0346     		mov	r3, r0
 575 0028 0593     		str	r3, [sp, #20]
 576 002a 5BE0     		b	.L33
 577              	.L35:
 578              		.loc 1 429 0
 579 002c 40F20003 		movw	r3, #:lower16:next_timeout
 580 0030 C0F20003 		movt	r3, #:upper16:next_timeout
 581 0034 1B68     		ldr	r3, [r3, #0]
 582 0036 5B68     		ldr	r3, [r3, #4]
 583 0038 002B     		cmp	r3, #0
 584 003a 0DD0     		beq	.L37
 585              		.loc 1 430 0
 586 003c 40F20003 		movw	r3, #:lower16:next_timeout
 587 0040 C0F20003 		movt	r3, #:upper16:next_timeout
 588 0044 1B68     		ldr	r3, [r3, #0]
 589 0046 5B68     		ldr	r3, [r3, #4]
 590 0048 0198     		ldr	r0, [sp, #4]
 591 004a 0099     		ldr	r1, [sp, #0]
 592 004c 1A46     		mov	r2, r3
 593 004e FFF7FEFF 		bl	sys_arch_mbox_fetch
 594 0052 0346     		mov	r3, r0
 595 0054 0593     		str	r3, [sp, #20]
 596 0056 02E0     		b	.L38
 597              	.L37:
 598              		.loc 1 432 0
 599 0058 4FF0FF33 		mov	r3, #-1
 600 005c 0593     		str	r3, [sp, #20]
 601              	.L38:
 602              		.loc 1 435 0
 603 005e 059B     		ldr	r3, [sp, #20]
 604 0060 B3F1FF3F 		cmp	r3, #-1
 605 0064 1ED1     		bne	.L39
 606              		.loc 1 439 0
 607 0066 40F20003 		movw	r3, #:lower16:next_timeout
 608 006a C0F20003 		movt	r3, #:upper16:next_timeout
 609 006e 1B68     		ldr	r3, [r3, #0]
 610 0070 0493     		str	r3, [sp, #16]
 611              		.loc 1 440 0
 612 0072 049B     		ldr	r3, [sp, #16]
 613 0074 1A68     		ldr	r2, [r3, #0]
 614 0076 40F20003 		movw	r3, #:lower16:next_timeout
 615 007a C0F20003 		movt	r3, #:upper16:next_timeout
 616 007e 1A60     		str	r2, [r3, #0]
 617              		.loc 1 441 0
 618 0080 049B     		ldr	r3, [sp, #16]
 619 0082 9B68     		ldr	r3, [r3, #8]
ARM GAS  /tmp/ccvdAPFH.s 			page 12


 620 0084 0393     		str	r3, [sp, #12]
 621              		.loc 1 442 0
 622 0086 049B     		ldr	r3, [sp, #16]
 623 0088 DB68     		ldr	r3, [r3, #12]
 624 008a 0293     		str	r3, [sp, #8]
 625              		.loc 1 449 0
 626 008c 4FF00B00 		mov	r0, #11
 627 0090 0499     		ldr	r1, [sp, #16]
 628 0092 FFF7FEFF 		bl	memp_free
 629              		.loc 1 450 0
 630 0096 039B     		ldr	r3, [sp, #12]
 631 0098 002B     		cmp	r3, #0
 632 009a B6D0     		beq	.L42
 633              		.loc 1 454 0
 634 009c 039B     		ldr	r3, [sp, #12]
 635 009e 0298     		ldr	r0, [sp, #8]
 636 00a0 9847     		blx	r3
 637              		.loc 1 460 0
 638 00a2 B2E7     		b	.L42
 639              	.L39:
 640              		.loc 1 465 0
 641 00a4 40F20003 		movw	r3, #:lower16:next_timeout
 642 00a8 C0F20003 		movt	r3, #:upper16:next_timeout
 643 00ac 1B68     		ldr	r3, [r3, #0]
 644 00ae 5A68     		ldr	r2, [r3, #4]
 645 00b0 059B     		ldr	r3, [sp, #20]
 646 00b2 9A42     		cmp	r2, r3
 647 00b4 0ED9     		bls	.L41
 648              		.loc 1 466 0
 649 00b6 40F20003 		movw	r3, #:lower16:next_timeout
 650 00ba C0F20003 		movt	r3, #:upper16:next_timeout
 651 00be 1A68     		ldr	r2, [r3, #0]
 652 00c0 40F20003 		movw	r3, #:lower16:next_timeout
 653 00c4 C0F20003 		movt	r3, #:upper16:next_timeout
 654 00c8 1B68     		ldr	r3, [r3, #0]
 655 00ca 5968     		ldr	r1, [r3, #4]
 656 00cc 059B     		ldr	r3, [sp, #20]
 657 00ce CB1A     		subs	r3, r1, r3
 658 00d0 5360     		str	r3, [r2, #4]
 659 00d2 07E0     		b	.L33
 660              	.L41:
 661              		.loc 1 468 0
 662 00d4 40F20003 		movw	r3, #:lower16:next_timeout
 663 00d8 C0F20003 		movt	r3, #:upper16:next_timeout
 664 00dc 1B68     		ldr	r3, [r3, #0]
 665 00de 4FF00002 		mov	r2, #0
 666 00e2 5A60     		str	r2, [r3, #4]
 667              	.L33:
 668              		.loc 1 472 0
 669 00e4 07B0     		add	sp, sp, #28
 670 00e6 00BD     		pop	{pc}
 671              		.cfi_endproc
 672              	.LFE14:
 673              		.size	sys_timeouts_mbox_fetch, .-sys_timeouts_mbox_fetch
 674 00e8 AFF30080 		.text
 674      AFF30080 
 675              	.Letext0:
ARM GAS  /tmp/ccvdAPFH.s 			page 13


 676              		.file 2 "/home/texzk/ChibiStudio/tools/GNU Tools ARM Embedded/4.6 2012q2/bin/../lib/gcc/arm-none-e
 677              		.file 3 "../../os/ports/GCC/ARMCMx/chtypes.h"
 678              		.file 4 "../../os/kernel/include/chlists.h"
 679              		.file 5 "../../os/kernel/include/chthreads.h"
 680              		.file 6 "../../os/ports/GCC/ARMCMx/chcore_v7m.h"
 681              		.file 7 "../../os/kernel/include/chsem.h"
 682              		.file 8 "../../os/kernel/include/chmtx.h"
 683              		.file 9 "../../os/kernel/include/chmboxes.h"
 684              		.file 10 "../../os/various/lwip_bindings/arch/cc.h"
 685              		.file 11 "../../ext/lwip/src/include/lwip/err.h"
 686              		.file 12 "../../os/various/lwip_bindings/arch/sys_arch.h"
 687              		.file 13 "../../ext/lwip/src/include/lwip/timers.h"
 688              		.file 14 "../../ext/lwip/src/include/lwip/pbuf.h"
 689              		.file 15 "../../ext/lwip/src/include/ipv4/lwip/ip_addr.h"
 690              		.file 16 "../../ext/lwip/src/include/lwip/tcp.h"
 691              		.file 17 "../../ext/lwip/src/include/lwip/tcp_impl.h"
 692              		.file 18 "../../ext/lwip/src/include/lwip/memp.h"
 693              		.section	.debug_info,"",%progbits
 694              	.Ldebug_info0:
 695 0000 D00D0000 		.4byte	0xdd0
 696 0004 0200     		.2byte	0x2
 697 0006 00000000 		.4byte	.Ldebug_abbrev0
 698 000a 04       		.byte	0x4
 699 000b 01       		.uleb128 0x1
 700 000c 84030000 		.4byte	.LASF196
 701 0010 01       		.byte	0x1
 702 0011 C8020000 		.4byte	.LASF197
 703 0015 E3010000 		.4byte	.LASF198
 704 0019 00000000 		.4byte	0
 705 001d 00000000 		.4byte	0
 706 0021 00000000 		.4byte	.Ldebug_ranges0+0
 707 0025 00000000 		.4byte	.Ldebug_line0
 708 0029 02       		.uleb128 0x2
 709 002a 04       		.byte	0x4
 710 002b 05       		.byte	0x5
 711 002c 696E7400 		.ascii	"int\000"
 712 0030 03       		.uleb128 0x3
 713 0031 04       		.byte	0x4
 714 0032 07       		.byte	0x7
 715 0033 BE000000 		.4byte	.LASF0
 716 0037 04       		.uleb128 0x4
 717 0038 7E010000 		.4byte	.LASF2
 718 003c 02       		.byte	0x2
 719 003d 29       		.byte	0x29
 720 003e 42000000 		.4byte	0x42
 721 0042 03       		.uleb128 0x3
 722 0043 01       		.byte	0x1
 723 0044 06       		.byte	0x6
 724 0045 94070000 		.4byte	.LASF1
 725 0049 04       		.uleb128 0x4
 726 004a F6030000 		.4byte	.LASF3
 727 004e 02       		.byte	0x2
 728 004f 2A       		.byte	0x2a
 729 0050 54000000 		.4byte	0x54
 730 0054 03       		.uleb128 0x3
 731 0055 01       		.byte	0x1
 732 0056 08       		.byte	0x8
ARM GAS  /tmp/ccvdAPFH.s 			page 14


 733 0057 E1060000 		.4byte	.LASF4
 734 005b 04       		.uleb128 0x4
 735 005c BC010000 		.4byte	.LASF5
 736 0060 02       		.byte	0x2
 737 0061 35       		.byte	0x35
 738 0062 66000000 		.4byte	0x66
 739 0066 03       		.uleb128 0x3
 740 0067 02       		.byte	0x2
 741 0068 05       		.byte	0x5
 742 0069 54050000 		.4byte	.LASF6
 743 006d 04       		.uleb128 0x4
 744 006e 11050000 		.4byte	.LASF7
 745 0072 02       		.byte	0x2
 746 0073 36       		.byte	0x36
 747 0074 78000000 		.4byte	0x78
 748 0078 03       		.uleb128 0x3
 749 0079 02       		.byte	0x2
 750 007a 07       		.byte	0x7
 751 007b A8070000 		.4byte	.LASF8
 752 007f 04       		.uleb128 0x4
 753 0080 BF060000 		.4byte	.LASF9
 754 0084 02       		.byte	0x2
 755 0085 4F       		.byte	0x4f
 756 0086 8A000000 		.4byte	0x8a
 757 008a 03       		.uleb128 0x3
 758 008b 04       		.byte	0x4
 759 008c 05       		.byte	0x5
 760 008d 7A050000 		.4byte	.LASF10
 761 0091 04       		.uleb128 0x4
 762 0092 75010000 		.4byte	.LASF11
 763 0096 02       		.byte	0x2
 764 0097 50       		.byte	0x50
 765 0098 9C000000 		.4byte	0x9c
 766 009c 03       		.uleb128 0x3
 767 009d 04       		.byte	0x4
 768 009e 07       		.byte	0x7
 769 009f 89060000 		.4byte	.LASF12
 770 00a3 03       		.uleb128 0x3
 771 00a4 08       		.byte	0x8
 772 00a5 05       		.byte	0x5
 773 00a6 4A040000 		.4byte	.LASF13
 774 00aa 04       		.uleb128 0x4
 775 00ab D1050000 		.4byte	.LASF14
 776 00af 02       		.byte	0x2
 777 00b0 78       		.byte	0x78
 778 00b1 B5000000 		.4byte	0xb5
 779 00b5 03       		.uleb128 0x3
 780 00b6 08       		.byte	0x8
 781 00b7 07       		.byte	0x7
 782 00b8 CC010000 		.4byte	.LASF15
 783 00bc 04       		.uleb128 0x4
 784 00bd FD040000 		.4byte	.LASF16
 785 00c1 03       		.byte	0x3
 786 00c2 28       		.byte	0x28
 787 00c3 49000000 		.4byte	0x49
 788 00c7 04       		.uleb128 0x4
 789 00c8 CD030000 		.4byte	.LASF17
ARM GAS  /tmp/ccvdAPFH.s 			page 15


 790 00cc 03       		.byte	0x3
 791 00cd 29       		.byte	0x29
 792 00ce 49000000 		.4byte	0x49
 793 00d2 04       		.uleb128 0x4
 794 00d3 81060000 		.4byte	.LASF18
 795 00d7 03       		.byte	0x3
 796 00d8 2A       		.byte	0x2a
 797 00d9 49000000 		.4byte	0x49
 798 00dd 04       		.uleb128 0x4
 799 00de C3040000 		.4byte	.LASF19
 800 00e2 03       		.byte	0x3
 801 00e3 2B       		.byte	0x2b
 802 00e4 49000000 		.4byte	0x49
 803 00e8 04       		.uleb128 0x4
 804 00e9 B4010000 		.4byte	.LASF20
 805 00ed 03       		.byte	0x3
 806 00ee 2C       		.byte	0x2c
 807 00ef 91000000 		.4byte	0x91
 808 00f3 04       		.uleb128 0x4
 809 00f4 6E040000 		.4byte	.LASF21
 810 00f8 03       		.byte	0x3
 811 00f9 2D       		.byte	0x2d
 812 00fa 7F000000 		.4byte	0x7f
 813 00fe 04       		.uleb128 0x4
 814 00ff 8A010000 		.4byte	.LASF22
 815 0103 03       		.byte	0x3
 816 0104 2F       		.byte	0x2f
 817 0105 91000000 		.4byte	0x91
 818 0109 04       		.uleb128 0x4
 819 010a 99000000 		.4byte	.LASF23
 820 010e 03       		.byte	0x3
 821 010f 30       		.byte	0x30
 822 0110 91000000 		.4byte	0x91
 823 0114 04       		.uleb128 0x4
 824 0115 28020000 		.4byte	.LASF24
 825 0119 03       		.byte	0x3
 826 011a 31       		.byte	0x31
 827 011b 7F000000 		.4byte	0x7f
 828 011f 04       		.uleb128 0x4
 829 0120 7D030000 		.4byte	.LASF25
 830 0124 04       		.byte	0x4
 831 0125 23       		.byte	0x23
 832 0126 2A010000 		.4byte	0x12a
 833 012a 05       		.uleb128 0x5
 834 012b 7D030000 		.4byte	.LASF25
 835 012f 4C       		.byte	0x4c
 836 0130 05       		.byte	0x5
 837 0131 57       		.byte	0x57
 838 0132 5D020000 		.4byte	0x25d
 839 0136 06       		.uleb128 0x6
 840 0137 B4050000 		.4byte	.LASF26
 841 013b 05       		.byte	0x5
 842 013c 58       		.byte	0x58
 843 013d 82020000 		.4byte	0x282
 844 0141 02       		.byte	0x2
 845 0142 23       		.byte	0x23
 846 0143 00       		.uleb128 0
ARM GAS  /tmp/ccvdAPFH.s 			page 16


 847 0144 06       		.uleb128 0x6
 848 0145 6F060000 		.4byte	.LASF27
 849 0149 05       		.byte	0x5
 850 014a 5A       		.byte	0x5a
 851 014b 82020000 		.4byte	0x282
 852 014f 02       		.byte	0x2
 853 0150 23       		.byte	0x23
 854 0151 04       		.uleb128 0x4
 855 0152 06       		.uleb128 0x6
 856 0153 57000000 		.4byte	.LASF28
 857 0157 05       		.byte	0x5
 858 0158 5C       		.byte	0x5c
 859 0159 E8000000 		.4byte	0xe8
 860 015d 02       		.byte	0x2
 861 015e 23       		.byte	0x23
 862 015f 08       		.uleb128 0x8
 863 0160 06       		.uleb128 0x6
 864 0161 DA050000 		.4byte	.LASF29
 865 0165 05       		.byte	0x5
 866 0166 5D       		.byte	0x5d
 867 0167 5B030000 		.4byte	0x35b
 868 016b 02       		.byte	0x2
 869 016c 23       		.byte	0x23
 870 016d 0C       		.uleb128 0xc
 871 016e 06       		.uleb128 0x6
 872 016f 39020000 		.4byte	.LASF30
 873 0173 05       		.byte	0x5
 874 0174 5F       		.byte	0x5f
 875 0175 82020000 		.4byte	0x282
 876 0179 02       		.byte	0x2
 877 017a 23       		.byte	0x23
 878 017b 10       		.uleb128 0x10
 879 017c 06       		.uleb128 0x6
 880 017d D6030000 		.4byte	.LASF31
 881 0181 05       		.byte	0x5
 882 0182 60       		.byte	0x60
 883 0183 82020000 		.4byte	0x282
 884 0187 02       		.byte	0x2
 885 0188 23       		.byte	0x23
 886 0189 14       		.uleb128 0x14
 887 018a 06       		.uleb128 0x6
 888 018b 24030000 		.4byte	.LASF32
 889 018f 05       		.byte	0x5
 890 0190 67       		.byte	0x67
 891 0191 B4040000 		.4byte	0x4b4
 892 0195 02       		.byte	0x2
 893 0196 23       		.byte	0x23
 894 0197 18       		.uleb128 0x18
 895 0198 06       		.uleb128 0x6
 896 0199 E6030000 		.4byte	.LASF33
 897 019d 05       		.byte	0x5
 898 019e 6D       		.byte	0x6d
 899 019f C6040000 		.4byte	0x4c6
 900 01a3 02       		.byte	0x2
 901 01a4 23       		.byte	0x23
 902 01a5 1C       		.uleb128 0x1c
 903 01a6 06       		.uleb128 0x6
ARM GAS  /tmp/ccvdAPFH.s 			page 17


 904 01a7 DE030000 		.4byte	.LASF34
 905 01ab 05       		.byte	0x5
 906 01ac 72       		.byte	0x72
 907 01ad C7000000 		.4byte	0xc7
 908 01b1 02       		.byte	0x2
 909 01b2 23       		.byte	0x23
 910 01b3 20       		.uleb128 0x20
 911 01b4 06       		.uleb128 0x6
 912 01b5 8B040000 		.4byte	.LASF35
 913 01b9 05       		.byte	0x5
 914 01ba 76       		.byte	0x76
 915 01bb BC000000 		.4byte	0xbc
 916 01bf 02       		.byte	0x2
 917 01c0 23       		.byte	0x23
 918 01c1 21       		.uleb128 0x21
 919 01c2 06       		.uleb128 0x6
 920 01c3 05070000 		.4byte	.LASF36
 921 01c7 05       		.byte	0x5
 922 01c8 7B       		.byte	0x7b
 923 01c9 D2000000 		.4byte	0xd2
 924 01cd 02       		.byte	0x2
 925 01ce 23       		.byte	0x23
 926 01cf 22       		.uleb128 0x22
 927 01d0 06       		.uleb128 0x6
 928 01d1 40070000 		.4byte	.LASF37
 929 01d5 05       		.byte	0x5
 930 01d6 81       		.byte	0x81
 931 01d7 DD000000 		.4byte	0xdd
 932 01db 02       		.byte	0x2
 933 01dc 23       		.byte	0x23
 934 01dd 23       		.uleb128 0x23
 935 01de 06       		.uleb128 0x6
 936 01df 3C000000 		.4byte	.LASF38
 937 01e3 05       		.byte	0x5
 938 01e4 88       		.byte	0x88
 939 01e5 90030000 		.4byte	0x390
 940 01e9 02       		.byte	0x2
 941 01ea 23       		.byte	0x23
 942 01eb 24       		.uleb128 0x24
 943 01ec 07       		.uleb128 0x7
 944 01ed 705F7500 		.ascii	"p_u\000"
 945 01f1 05       		.byte	0x5
 946 01f2 AD       		.byte	0xad
 947 01f3 7F040000 		.4byte	0x47f
 948 01f7 02       		.byte	0x2
 949 01f8 23       		.byte	0x23
 950 01f9 28       		.uleb128 0x28
 951 01fa 06       		.uleb128 0x6
 952 01fb 1E000000 		.4byte	.LASF39
 953 01ff 05       		.byte	0x5
 954 0200 B2       		.byte	0xb2
 955 0201 AA020000 		.4byte	0x2aa
 956 0205 02       		.byte	0x2
 957 0206 23       		.byte	0x23
 958 0207 2C       		.uleb128 0x2c
 959 0208 06       		.uleb128 0x6
 960 0209 B3000000 		.4byte	.LASF40
ARM GAS  /tmp/ccvdAPFH.s 			page 18


 961 020d 05       		.byte	0x5
 962 020e B8       		.byte	0xb8
 963 020f 88020000 		.4byte	0x288
 964 0213 02       		.byte	0x2
 965 0214 23       		.byte	0x23
 966 0215 30       		.uleb128 0x30
 967 0216 06       		.uleb128 0x6
 968 0217 F7040000 		.4byte	.LASF41
 969 021b 05       		.byte	0x5
 970 021c BC       		.byte	0xbc
 971 021d F3000000 		.4byte	0xf3
 972 0221 02       		.byte	0x2
 973 0222 23       		.byte	0x23
 974 0223 38       		.uleb128 0x38
 975 0224 06       		.uleb128 0x6
 976 0225 67050000 		.4byte	.LASF42
 977 0229 05       		.byte	0x5
 978 022a C2       		.byte	0xc2
 979 022b FE000000 		.4byte	0xfe
 980 022f 02       		.byte	0x2
 981 0230 23       		.byte	0x23
 982 0231 3C       		.uleb128 0x3c
 983 0232 06       		.uleb128 0x6
 984 0233 21040000 		.4byte	.LASF43
 985 0237 05       		.byte	0x5
 986 0238 C9       		.byte	0xc9
 987 0239 CC040000 		.4byte	0x4cc
 988 023d 02       		.byte	0x2
 989 023e 23       		.byte	0x23
 990 023f 40       		.uleb128 0x40
 991 0240 06       		.uleb128 0x6
 992 0241 3C050000 		.4byte	.LASF44
 993 0245 05       		.byte	0x5
 994 0246 CD       		.byte	0xcd
 995 0247 E8000000 		.4byte	0xe8
 996 024b 02       		.byte	0x2
 997 024c 23       		.byte	0x23
 998 024d 44       		.uleb128 0x44
 999 024e 06       		.uleb128 0x6
 1000 024f 19040000 		.4byte	.LASF45
 1001 0253 05       		.byte	0x5
 1002 0254 D3       		.byte	0xd3
 1003 0255 C0020000 		.4byte	0x2c0
 1004 0259 02       		.byte	0x2
 1005 025a 23       		.byte	0x23
 1006 025b 48       		.uleb128 0x48
 1007 025c 00       		.byte	0
 1008 025d 08       		.uleb128 0x8
 1009 025e 08       		.byte	0x8
 1010 025f 04       		.byte	0x4
 1011 0260 5A       		.byte	0x5a
 1012 0261 82020000 		.4byte	0x282
 1013 0265 06       		.uleb128 0x6
 1014 0266 B4050000 		.4byte	.LASF26
 1015 026a 04       		.byte	0x4
 1016 026b 5B       		.byte	0x5b
 1017 026c 82020000 		.4byte	0x282
ARM GAS  /tmp/ccvdAPFH.s 			page 19


 1018 0270 02       		.byte	0x2
 1019 0271 23       		.byte	0x23
 1020 0272 00       		.uleb128 0
 1021 0273 06       		.uleb128 0x6
 1022 0274 6F060000 		.4byte	.LASF27
 1023 0278 04       		.byte	0x4
 1024 0279 5D       		.byte	0x5d
 1025 027a 82020000 		.4byte	0x282
 1026 027e 02       		.byte	0x2
 1027 027f 23       		.byte	0x23
 1028 0280 04       		.uleb128 0x4
 1029 0281 00       		.byte	0
 1030 0282 09       		.uleb128 0x9
 1031 0283 04       		.byte	0x4
 1032 0284 1F010000 		.4byte	0x11f
 1033 0288 04       		.uleb128 0x4
 1034 0289 4E030000 		.4byte	.LASF46
 1035 028d 04       		.byte	0x4
 1036 028e 5F       		.byte	0x5f
 1037 028f 5D020000 		.4byte	0x25d
 1038 0293 08       		.uleb128 0x8
 1039 0294 04       		.byte	0x4
 1040 0295 04       		.byte	0x4
 1041 0296 64       		.byte	0x64
 1042 0297 AA020000 		.4byte	0x2aa
 1043 029b 06       		.uleb128 0x6
 1044 029c B4050000 		.4byte	.LASF26
 1045 02a0 04       		.byte	0x4
 1046 02a1 66       		.byte	0x66
 1047 02a2 82020000 		.4byte	0x282
 1048 02a6 02       		.byte	0x2
 1049 02a7 23       		.byte	0x23
 1050 02a8 00       		.uleb128 0
 1051 02a9 00       		.byte	0
 1052 02aa 04       		.uleb128 0x4
 1053 02ab 12000000 		.4byte	.LASF47
 1054 02af 04       		.byte	0x4
 1055 02b0 69       		.byte	0x69
 1056 02b1 93020000 		.4byte	0x293
 1057 02b5 04       		.uleb128 0x4
 1058 02b6 4E000000 		.4byte	.LASF48
 1059 02ba 06       		.byte	0x6
 1060 02bb DE       		.byte	0xde
 1061 02bc C0020000 		.4byte	0x2c0
 1062 02c0 0A       		.uleb128 0xa
 1063 02c1 04       		.byte	0x4
 1064 02c2 04       		.uleb128 0x4
 1065 02c3 BB070000 		.4byte	.LASF49
 1066 02c7 06       		.byte	0x6
 1067 02c8 E4       		.byte	0xe4
 1068 02c9 AA000000 		.4byte	0xaa
 1069 02cd 0B       		.uleb128 0xb
 1070 02ce 1F050000 		.4byte	.LASF50
 1071 02d2 24       		.byte	0x24
 1072 02d3 06       		.byte	0x6
 1073 02d4 0501     		.2byte	0x105
 1074 02d6 5B030000 		.4byte	0x35b
ARM GAS  /tmp/ccvdAPFH.s 			page 20


 1075 02da 0C       		.uleb128 0xc
 1076 02db 723400   		.ascii	"r4\000"
 1077 02de 06       		.byte	0x6
 1078 02df 1801     		.2byte	0x118
 1079 02e1 B5020000 		.4byte	0x2b5
 1080 02e5 02       		.byte	0x2
 1081 02e6 23       		.byte	0x23
 1082 02e7 00       		.uleb128 0
 1083 02e8 0C       		.uleb128 0xc
 1084 02e9 723500   		.ascii	"r5\000"
 1085 02ec 06       		.byte	0x6
 1086 02ed 1901     		.2byte	0x119
 1087 02ef B5020000 		.4byte	0x2b5
 1088 02f3 02       		.byte	0x2
 1089 02f4 23       		.byte	0x23
 1090 02f5 04       		.uleb128 0x4
 1091 02f6 0C       		.uleb128 0xc
 1092 02f7 723600   		.ascii	"r6\000"
 1093 02fa 06       		.byte	0x6
 1094 02fb 1A01     		.2byte	0x11a
 1095 02fd B5020000 		.4byte	0x2b5
 1096 0301 02       		.byte	0x2
 1097 0302 23       		.byte	0x23
 1098 0303 08       		.uleb128 0x8
 1099 0304 0C       		.uleb128 0xc
 1100 0305 723700   		.ascii	"r7\000"
 1101 0308 06       		.byte	0x6
 1102 0309 1B01     		.2byte	0x11b
 1103 030b B5020000 		.4byte	0x2b5
 1104 030f 02       		.byte	0x2
 1105 0310 23       		.byte	0x23
 1106 0311 0C       		.uleb128 0xc
 1107 0312 0C       		.uleb128 0xc
 1108 0313 723800   		.ascii	"r8\000"
 1109 0316 06       		.byte	0x6
 1110 0317 1C01     		.2byte	0x11c
 1111 0319 B5020000 		.4byte	0x2b5
 1112 031d 02       		.byte	0x2
 1113 031e 23       		.byte	0x23
 1114 031f 10       		.uleb128 0x10
 1115 0320 0C       		.uleb128 0xc
 1116 0321 723900   		.ascii	"r9\000"
 1117 0324 06       		.byte	0x6
 1118 0325 1D01     		.2byte	0x11d
 1119 0327 B5020000 		.4byte	0x2b5
 1120 032b 02       		.byte	0x2
 1121 032c 23       		.byte	0x23
 1122 032d 14       		.uleb128 0x14
 1123 032e 0C       		.uleb128 0xc
 1124 032f 72313000 		.ascii	"r10\000"
 1125 0333 06       		.byte	0x6
 1126 0334 1E01     		.2byte	0x11e
 1127 0336 B5020000 		.4byte	0x2b5
 1128 033a 02       		.byte	0x2
 1129 033b 23       		.byte	0x23
 1130 033c 18       		.uleb128 0x18
 1131 033d 0C       		.uleb128 0xc
ARM GAS  /tmp/ccvdAPFH.s 			page 21


 1132 033e 72313100 		.ascii	"r11\000"
 1133 0342 06       		.byte	0x6
 1134 0343 1F01     		.2byte	0x11f
 1135 0345 B5020000 		.4byte	0x2b5
 1136 0349 02       		.byte	0x2
 1137 034a 23       		.byte	0x23
 1138 034b 1C       		.uleb128 0x1c
 1139 034c 0C       		.uleb128 0xc
 1140 034d 6C7200   		.ascii	"lr\000"
 1141 0350 06       		.byte	0x6
 1142 0351 2001     		.2byte	0x120
 1143 0353 B5020000 		.4byte	0x2b5
 1144 0357 02       		.byte	0x2
 1145 0358 23       		.byte	0x23
 1146 0359 20       		.uleb128 0x20
 1147 035a 00       		.byte	0
 1148 035b 0B       		.uleb128 0xb
 1149 035c 7E040000 		.4byte	.LASF51
 1150 0360 04       		.byte	0x4
 1151 0361 06       		.byte	0x6
 1152 0362 2A01     		.2byte	0x12a
 1153 0364 78030000 		.4byte	0x378
 1154 0368 0C       		.uleb128 0xc
 1155 0369 72313300 		.ascii	"r13\000"
 1156 036d 06       		.byte	0x6
 1157 036e 2B01     		.2byte	0x12b
 1158 0370 78030000 		.4byte	0x378
 1159 0374 02       		.byte	0x2
 1160 0375 23       		.byte	0x23
 1161 0376 00       		.uleb128 0
 1162 0377 00       		.byte	0
 1163 0378 09       		.uleb128 0x9
 1164 0379 04       		.byte	0x4
 1165 037a CD020000 		.4byte	0x2cd
 1166 037e 09       		.uleb128 0x9
 1167 037f 04       		.byte	0x4
 1168 0380 84030000 		.4byte	0x384
 1169 0384 0D       		.uleb128 0xd
 1170 0385 01       		.byte	0x1
 1171 0386 90030000 		.4byte	0x390
 1172 038a 0E       		.uleb128 0xe
 1173 038b C0020000 		.4byte	0x2c0
 1174 038f 00       		.byte	0
 1175 0390 0F       		.uleb128 0xf
 1176 0391 09010000 		.4byte	0x109
 1177 0395 05       		.uleb128 0x5
 1178 0396 18060000 		.4byte	.LASF52
 1179 039a 0C       		.byte	0xc
 1180 039b 07       		.byte	0x7
 1181 039c 25       		.byte	0x25
 1182 039d BE030000 		.4byte	0x3be
 1183 03a1 06       		.uleb128 0x6
 1184 03a2 AB000000 		.4byte	.LASF53
 1185 03a6 07       		.byte	0x7
 1186 03a7 26       		.byte	0x26
 1187 03a8 88020000 		.4byte	0x288
 1188 03ac 02       		.byte	0x2
ARM GAS  /tmp/ccvdAPFH.s 			page 22


 1189 03ad 23       		.byte	0x23
 1190 03ae 00       		.uleb128 0
 1191 03af 06       		.uleb128 0x6
 1192 03b0 69010000 		.4byte	.LASF54
 1193 03b4 07       		.byte	0x7
 1194 03b5 28       		.byte	0x28
 1195 03b6 14010000 		.4byte	0x114
 1196 03ba 02       		.byte	0x2
 1197 03bb 23       		.byte	0x23
 1198 03bc 08       		.uleb128 0x8
 1199 03bd 00       		.byte	0
 1200 03be 04       		.uleb128 0x4
 1201 03bf 18060000 		.4byte	.LASF52
 1202 03c3 07       		.byte	0x7
 1203 03c4 29       		.byte	0x29
 1204 03c5 95030000 		.4byte	0x395
 1205 03c9 05       		.uleb128 0x5
 1206 03ca FF020000 		.4byte	.LASF55
 1207 03ce 10       		.byte	0x10
 1208 03cf 08       		.byte	0x8
 1209 03d0 25       		.byte	0x25
 1210 03d1 00040000 		.4byte	0x400
 1211 03d5 06       		.uleb128 0x6
 1212 03d6 72050000 		.4byte	.LASF56
 1213 03da 08       		.byte	0x8
 1214 03db 26       		.byte	0x26
 1215 03dc 88020000 		.4byte	0x288
 1216 03e0 02       		.byte	0x2
 1217 03e1 23       		.byte	0x23
 1218 03e2 00       		.uleb128 0
 1219 03e3 06       		.uleb128 0x6
 1220 03e4 A3000000 		.4byte	.LASF57
 1221 03e8 08       		.byte	0x8
 1222 03e9 28       		.byte	0x28
 1223 03ea 82020000 		.4byte	0x282
 1224 03ee 02       		.byte	0x2
 1225 03ef 23       		.byte	0x23
 1226 03f0 08       		.uleb128 0x8
 1227 03f1 06       		.uleb128 0x6
 1228 03f2 8D070000 		.4byte	.LASF58
 1229 03f6 08       		.byte	0x8
 1230 03f7 2A       		.byte	0x2a
 1231 03f8 00040000 		.4byte	0x400
 1232 03fc 02       		.byte	0x2
 1233 03fd 23       		.byte	0x23
 1234 03fe 0C       		.uleb128 0xc
 1235 03ff 00       		.byte	0
 1236 0400 09       		.uleb128 0x9
 1237 0401 04       		.byte	0x4
 1238 0402 C9030000 		.4byte	0x3c9
 1239 0406 04       		.uleb128 0x4
 1240 0407 FF020000 		.4byte	.LASF55
 1241 040b 08       		.byte	0x8
 1242 040c 2C       		.byte	0x2c
 1243 040d C9030000 		.4byte	0x3c9
 1244 0411 08       		.uleb128 0x8
 1245 0412 28       		.byte	0x28
ARM GAS  /tmp/ccvdAPFH.s 			page 23


 1246 0413 09       		.byte	0x9
 1247 0414 2C       		.byte	0x2c
 1248 0415 6E040000 		.4byte	0x46e
 1249 0419 06       		.uleb128 0x6
 1250 041a 9B060000 		.4byte	.LASF59
 1251 041e 09       		.byte	0x9
 1252 041f 2D       		.byte	0x2d
 1253 0420 6E040000 		.4byte	0x46e
 1254 0424 02       		.byte	0x2
 1255 0425 23       		.byte	0x23
 1256 0426 00       		.uleb128 0
 1257 0427 06       		.uleb128 0x6
 1258 0428 B0040000 		.4byte	.LASF60
 1259 042c 09       		.byte	0x9
 1260 042d 2F       		.byte	0x2f
 1261 042e 6E040000 		.4byte	0x46e
 1262 0432 02       		.byte	0x2
 1263 0433 23       		.byte	0x23
 1264 0434 04       		.uleb128 0x4
 1265 0435 06       		.uleb128 0x6
 1266 0436 5E050000 		.4byte	.LASF61
 1267 043a 09       		.byte	0x9
 1268 043b 31       		.byte	0x31
 1269 043c 6E040000 		.4byte	0x46e
 1270 0440 02       		.byte	0x2
 1271 0441 23       		.byte	0x23
 1272 0442 08       		.uleb128 0x8
 1273 0443 06       		.uleb128 0x6
 1274 0444 B7020000 		.4byte	.LASF62
 1275 0448 09       		.byte	0x9
 1276 0449 32       		.byte	0x32
 1277 044a 6E040000 		.4byte	0x46e
 1278 044e 02       		.byte	0x2
 1279 044f 23       		.byte	0x23
 1280 0450 0C       		.uleb128 0xc
 1281 0451 06       		.uleb128 0x6
 1282 0452 FE030000 		.4byte	.LASF63
 1283 0456 09       		.byte	0x9
 1284 0457 33       		.byte	0x33
 1285 0458 BE030000 		.4byte	0x3be
 1286 045c 02       		.byte	0x2
 1287 045d 23       		.byte	0x23
 1288 045e 10       		.uleb128 0x10
 1289 045f 06       		.uleb128 0x6
 1290 0460 05030000 		.4byte	.LASF64
 1291 0464 09       		.byte	0x9
 1292 0465 35       		.byte	0x35
 1293 0466 BE030000 		.4byte	0x3be
 1294 046a 02       		.byte	0x2
 1295 046b 23       		.byte	0x23
 1296 046c 1C       		.uleb128 0x1c
 1297 046d 00       		.byte	0
 1298 046e 09       		.uleb128 0x9
 1299 046f 04       		.byte	0x4
 1300 0470 F3000000 		.4byte	0xf3
 1301 0474 04       		.uleb128 0x4
 1302 0475 55010000 		.4byte	.LASF65
ARM GAS  /tmp/ccvdAPFH.s 			page 24


 1303 0479 09       		.byte	0x9
 1304 047a 37       		.byte	0x37
 1305 047b 11040000 		.4byte	0x411
 1306 047f 10       		.uleb128 0x10
 1307 0480 04       		.byte	0x4
 1308 0481 05       		.byte	0x5
 1309 0482 8F       		.byte	0x8f
 1310 0483 B4040000 		.4byte	0x4b4
 1311 0487 11       		.uleb128 0x11
 1312 0488 8F020000 		.4byte	.LASF66
 1313 048c 05       		.byte	0x5
 1314 048d 96       		.byte	0x96
 1315 048e F3000000 		.4byte	0xf3
 1316 0492 11       		.uleb128 0x11
 1317 0493 1C080000 		.4byte	.LASF67
 1318 0497 05       		.byte	0x5
 1319 0498 9D       		.byte	0x9d
 1320 0499 F3000000 		.4byte	0xf3
 1321 049d 11       		.uleb128 0x11
 1322 049e 1E010000 		.4byte	.LASF68
 1323 04a2 05       		.byte	0x5
 1324 04a3 A4       		.byte	0xa4
 1325 04a4 C0020000 		.4byte	0x2c0
 1326 04a8 11       		.uleb128 0x11
 1327 04a9 40010000 		.4byte	.LASF69
 1328 04ad 05       		.byte	0x5
 1329 04ae AB       		.byte	0xab
 1330 04af FE000000 		.4byte	0xfe
 1331 04b3 00       		.byte	0
 1332 04b4 09       		.uleb128 0x9
 1333 04b5 04       		.byte	0x4
 1334 04b6 BA040000 		.4byte	0x4ba
 1335 04ba 12       		.uleb128 0x12
 1336 04bb BF040000 		.4byte	0x4bf
 1337 04bf 03       		.uleb128 0x3
 1338 04c0 01       		.byte	0x1
 1339 04c1 08       		.byte	0x8
 1340 04c2 5B030000 		.4byte	.LASF70
 1341 04c6 09       		.uleb128 0x9
 1342 04c7 04       		.byte	0x4
 1343 04c8 C2020000 		.4byte	0x2c2
 1344 04cc 09       		.uleb128 0x9
 1345 04cd 04       		.byte	0x4
 1346 04ce 06040000 		.4byte	0x406
 1347 04d2 04       		.uleb128 0x4
 1348 04d3 86040000 		.4byte	.LASF71
 1349 04d7 0A       		.byte	0xa
 1350 04d8 3C       		.byte	0x3c
 1351 04d9 49000000 		.4byte	0x49
 1352 04dd 04       		.uleb128 0x4
 1353 04de FA020000 		.4byte	.LASF72
 1354 04e2 0A       		.byte	0xa
 1355 04e3 3D       		.byte	0x3d
 1356 04e4 37000000 		.4byte	0x37
 1357 04e8 04       		.uleb128 0x4
 1358 04e9 0C010000 		.4byte	.LASF73
 1359 04ed 0A       		.byte	0xa
ARM GAS  /tmp/ccvdAPFH.s 			page 25


 1360 04ee 3E       		.byte	0x3e
 1361 04ef 6D000000 		.4byte	0x6d
 1362 04f3 04       		.uleb128 0x4
 1363 04f4 B9060000 		.4byte	.LASF74
 1364 04f8 0A       		.byte	0xa
 1365 04f9 3F       		.byte	0x3f
 1366 04fa 5B000000 		.4byte	0x5b
 1367 04fe 04       		.uleb128 0x4
 1368 04ff 4E050000 		.4byte	.LASF75
 1369 0503 0A       		.byte	0xa
 1370 0504 40       		.byte	0x40
 1371 0505 91000000 		.4byte	0x91
 1372 0509 04       		.uleb128 0x4
 1373 050a EF000000 		.4byte	.LASF76
 1374 050e 0B       		.byte	0xb
 1375 050f 2F       		.byte	0x2f
 1376 0510 DD040000 		.4byte	0x4dd
 1377 0514 04       		.uleb128 0x4
 1378 0515 76060000 		.4byte	.LASF77
 1379 0519 0C       		.byte	0xc
 1380 051a 3D       		.byte	0x3d
 1381 051b 1F050000 		.4byte	0x51f
 1382 051f 09       		.uleb128 0x9
 1383 0520 04       		.byte	0x4
 1384 0521 74040000 		.4byte	0x474
 1385 0525 04       		.uleb128 0x4
 1386 0526 64000000 		.4byte	.LASF78
 1387 052a 0D       		.byte	0xd
 1388 052b 3F       		.byte	0x3f
 1389 052c 7E030000 		.4byte	0x37e
 1390 0530 05       		.uleb128 0x5
 1391 0531 99050000 		.4byte	.LASF79
 1392 0535 10       		.byte	0x10
 1393 0536 0D       		.byte	0xd
 1394 0537 41       		.byte	0x41
 1395 0538 73050000 		.4byte	0x573
 1396 053c 06       		.uleb128 0x6
 1397 053d DC000000 		.4byte	.LASF80
 1398 0541 0D       		.byte	0xd
 1399 0542 42       		.byte	0x42
 1400 0543 73050000 		.4byte	0x573
 1401 0547 02       		.byte	0x2
 1402 0548 23       		.byte	0x23
 1403 0549 00       		.uleb128 0
 1404 054a 06       		.uleb128 0x6
 1405 054b 34020000 		.4byte	.LASF81
 1406 054f 0D       		.byte	0xd
 1407 0550 43       		.byte	0x43
 1408 0551 FE040000 		.4byte	0x4fe
 1409 0555 02       		.byte	0x2
 1410 0556 23       		.byte	0x23
 1411 0557 04       		.uleb128 0x4
 1412 0558 07       		.uleb128 0x7
 1413 0559 6800     		.ascii	"h\000"
 1414 055b 0D       		.byte	0xd
 1415 055c 44       		.byte	0x44
 1416 055d 25050000 		.4byte	0x525
ARM GAS  /tmp/ccvdAPFH.s 			page 26


 1417 0561 02       		.byte	0x2
 1418 0562 23       		.byte	0x23
 1419 0563 08       		.uleb128 0x8
 1420 0564 07       		.uleb128 0x7
 1421 0565 61726700 		.ascii	"arg\000"
 1422 0569 0D       		.byte	0xd
 1423 056a 45       		.byte	0x45
 1424 056b C0020000 		.4byte	0x2c0
 1425 056f 02       		.byte	0x2
 1426 0570 23       		.byte	0x23
 1427 0571 0C       		.uleb128 0xc
 1428 0572 00       		.byte	0
 1429 0573 09       		.uleb128 0x9
 1430 0574 04       		.byte	0x4
 1431 0575 30050000 		.4byte	0x530
 1432 0579 05       		.uleb128 0x5
 1433 057a B2020000 		.4byte	.LASF82
 1434 057e 10       		.byte	0x10
 1435 057f 0E       		.byte	0xe
 1436 0580 49       		.byte	0x49
 1437 0581 E8050000 		.4byte	0x5e8
 1438 0585 06       		.uleb128 0x6
 1439 0586 DC000000 		.4byte	.LASF80
 1440 058a 0E       		.byte	0xe
 1441 058b 4B       		.byte	0x4b
 1442 058c E8050000 		.4byte	0x5e8
 1443 0590 02       		.byte	0x2
 1444 0591 23       		.byte	0x23
 1445 0592 00       		.uleb128 0
 1446 0593 06       		.uleb128 0x6
 1447 0594 96020000 		.4byte	.LASF83
 1448 0598 0E       		.byte	0xe
 1449 0599 4E       		.byte	0x4e
 1450 059a C0020000 		.4byte	0x2c0
 1451 059e 02       		.byte	0x2
 1452 059f 23       		.byte	0x23
 1453 05a0 04       		.uleb128 0x4
 1454 05a1 06       		.uleb128 0x6
 1455 05a2 87020000 		.4byte	.LASF84
 1456 05a6 0E       		.byte	0xe
 1457 05a7 57       		.byte	0x57
 1458 05a8 E8040000 		.4byte	0x4e8
 1459 05ac 02       		.byte	0x2
 1460 05ad 23       		.byte	0x23
 1461 05ae 08       		.uleb128 0x8
 1462 05af 07       		.uleb128 0x7
 1463 05b0 6C656E00 		.ascii	"len\000"
 1464 05b4 0E       		.byte	0xe
 1465 05b5 5A       		.byte	0x5a
 1466 05b6 E8040000 		.4byte	0x4e8
 1467 05ba 02       		.byte	0x2
 1468 05bb 23       		.byte	0x23
 1469 05bc 0A       		.uleb128 0xa
 1470 05bd 06       		.uleb128 0x6
 1471 05be DC060000 		.4byte	.LASF85
 1472 05c2 0E       		.byte	0xe
 1473 05c3 5D       		.byte	0x5d
ARM GAS  /tmp/ccvdAPFH.s 			page 27


 1474 05c4 D2040000 		.4byte	0x4d2
 1475 05c8 02       		.byte	0x2
 1476 05c9 23       		.byte	0x23
 1477 05ca 0C       		.uleb128 0xc
 1478 05cb 06       		.uleb128 0x6
 1479 05cc 93000000 		.4byte	.LASF86
 1480 05d0 0E       		.byte	0xe
 1481 05d1 60       		.byte	0x60
 1482 05d2 D2040000 		.4byte	0x4d2
 1483 05d6 02       		.byte	0x2
 1484 05d7 23       		.byte	0x23
 1485 05d8 0D       		.uleb128 0xd
 1486 05d9 07       		.uleb128 0x7
 1487 05da 72656600 		.ascii	"ref\000"
 1488 05de 0E       		.byte	0xe
 1489 05df 67       		.byte	0x67
 1490 05e0 E8040000 		.4byte	0x4e8
 1491 05e4 02       		.byte	0x2
 1492 05e5 23       		.byte	0x23
 1493 05e6 0E       		.uleb128 0xe
 1494 05e7 00       		.byte	0
 1495 05e8 09       		.uleb128 0x9
 1496 05e9 04       		.byte	0x4
 1497 05ea 79050000 		.4byte	0x579
 1498 05ee 05       		.uleb128 0x5
 1499 05ef 2E080000 		.4byte	.LASF87
 1500 05f3 04       		.byte	0x4
 1501 05f4 0F       		.byte	0xf
 1502 05f5 2C       		.byte	0x2c
 1503 05f6 09060000 		.4byte	0x609
 1504 05fa 06       		.uleb128 0x6
 1505 05fb 4A070000 		.4byte	.LASF88
 1506 05ff 0F       		.byte	0xf
 1507 0600 2D       		.byte	0x2d
 1508 0601 FE040000 		.4byte	0x4fe
 1509 0605 02       		.byte	0x2
 1510 0606 23       		.byte	0x23
 1511 0607 00       		.uleb128 0
 1512 0608 00       		.byte	0
 1513 0609 04       		.uleb128 0x4
 1514 060a E8070000 		.4byte	.LASF89
 1515 060e 0F       		.byte	0xf
 1516 060f 40       		.byte	0x40
 1517 0610 EE050000 		.4byte	0x5ee
 1518 0614 04       		.uleb128 0x4
 1519 0615 85000000 		.4byte	.LASF90
 1520 0619 10       		.byte	0x10
 1521 061a 3D       		.byte	0x3d
 1522 061b 1F060000 		.4byte	0x61f
 1523 061f 09       		.uleb128 0x9
 1524 0620 04       		.byte	0x4
 1525 0621 25060000 		.4byte	0x625
 1526 0625 13       		.uleb128 0x13
 1527 0626 01       		.byte	0x1
 1528 0627 09050000 		.4byte	0x509
 1529 062b 3F060000 		.4byte	0x63f
 1530 062f 0E       		.uleb128 0xe
ARM GAS  /tmp/ccvdAPFH.s 			page 28


 1531 0630 C0020000 		.4byte	0x2c0
 1532 0634 0E       		.uleb128 0xe
 1533 0635 3F060000 		.4byte	0x63f
 1534 0639 0E       		.uleb128 0xe
 1535 063a 09050000 		.4byte	0x509
 1536 063e 00       		.byte	0
 1537 063f 09       		.uleb128 0x9
 1538 0640 04       		.byte	0x4
 1539 0641 45060000 		.4byte	0x645
 1540 0645 05       		.uleb128 0x5
 1541 0646 A0070000 		.4byte	.LASF91
 1542 064a A4       		.byte	0xa4
 1543 064b 10       		.byte	0x10
 1544 064c A9       		.byte	0xa9
 1545 064d 54090000 		.4byte	0x954
 1546 0651 06       		.uleb128 0x6
 1547 0652 C8050000 		.4byte	.LASF92
 1548 0656 10       		.byte	0x10
 1549 0657 AB       		.byte	0xab
 1550 0658 09060000 		.4byte	0x609
 1551 065c 02       		.byte	0x2
 1552 065d 23       		.byte	0x23
 1553 065e 00       		.uleb128 0
 1554 065f 06       		.uleb128 0x6
 1555 0660 D2070000 		.4byte	.LASF93
 1556 0664 10       		.byte	0x10
 1557 0665 AB       		.byte	0xab
 1558 0666 09060000 		.4byte	0x609
 1559 066a 02       		.byte	0x2
 1560 066b 23       		.byte	0x23
 1561 066c 04       		.uleb128 0x4
 1562 066d 06       		.uleb128 0x6
 1563 066e 43000000 		.4byte	.LASF94
 1564 0672 10       		.byte	0x10
 1565 0673 AB       		.byte	0xab
 1566 0674 D2040000 		.4byte	0x4d2
 1567 0678 02       		.byte	0x2
 1568 0679 23       		.byte	0x23
 1569 067a 08       		.uleb128 0x8
 1570 067b 07       		.uleb128 0x7
 1571 067c 746F7300 		.ascii	"tos\000"
 1572 0680 10       		.byte	0x10
 1573 0681 AB       		.byte	0xab
 1574 0682 D2040000 		.4byte	0x4d2
 1575 0686 02       		.byte	0x2
 1576 0687 23       		.byte	0x23
 1577 0688 09       		.uleb128 0x9
 1578 0689 07       		.uleb128 0x7
 1579 068a 74746C00 		.ascii	"ttl\000"
 1580 068e 10       		.byte	0x10
 1581 068f AB       		.byte	0xab
 1582 0690 D2040000 		.4byte	0x4d2
 1583 0694 02       		.byte	0x2
 1584 0695 23       		.byte	0x23
 1585 0696 0A       		.uleb128 0xa
 1586 0697 06       		.uleb128 0x6
 1587 0698 DC000000 		.4byte	.LASF80
ARM GAS  /tmp/ccvdAPFH.s 			page 29


 1588 069c 10       		.byte	0x10
 1589 069d AD       		.byte	0xad
 1590 069e 3F060000 		.4byte	0x63f
 1591 06a2 02       		.byte	0x2
 1592 06a3 23       		.byte	0x23
 1593 06a4 0C       		.uleb128 0xc
 1594 06a5 06       		.uleb128 0x6
 1595 06a6 61070000 		.4byte	.LASF95
 1596 06aa 10       		.byte	0x10
 1597 06ab AD       		.byte	0xad
 1598 06ac 020A0000 		.4byte	0xa02
 1599 06b0 02       		.byte	0x2
 1600 06b1 23       		.byte	0x23
 1601 06b2 10       		.uleb128 0x10
 1602 06b3 06       		.uleb128 0x6
 1603 06b4 33030000 		.4byte	.LASF96
 1604 06b8 10       		.byte	0x10
 1605 06b9 AD       		.byte	0xad
 1606 06ba D2040000 		.4byte	0x4d2
 1607 06be 02       		.byte	0x2
 1608 06bf 23       		.byte	0x23
 1609 06c0 11       		.uleb128 0x11
 1610 06c1 06       		.uleb128 0x6
 1611 06c2 2C070000 		.4byte	.LASF97
 1612 06c6 10       		.byte	0x10
 1613 06c7 AD       		.byte	0xad
 1614 06c8 C0020000 		.4byte	0x2c0
 1615 06cc 02       		.byte	0x2
 1616 06cd 23       		.byte	0x23
 1617 06ce 14       		.uleb128 0x14
 1618 06cf 06       		.uleb128 0x6
 1619 06d0 38030000 		.4byte	.LASF98
 1620 06d4 10       		.byte	0x10
 1621 06d5 AD       		.byte	0xad
 1622 06d6 14060000 		.4byte	0x614
 1623 06da 02       		.byte	0x2
 1624 06db 23       		.byte	0x23
 1625 06dc 18       		.uleb128 0x18
 1626 06dd 06       		.uleb128 0x6
 1627 06de A9010000 		.4byte	.LASF99
 1628 06e2 10       		.byte	0x10
 1629 06e3 AD       		.byte	0xad
 1630 06e4 E8040000 		.4byte	0x4e8
 1631 06e8 02       		.byte	0x2
 1632 06e9 23       		.byte	0x23
 1633 06ea 1C       		.uleb128 0x1c
 1634 06eb 06       		.uleb128 0x6
 1635 06ec A4040000 		.4byte	.LASF100
 1636 06f0 10       		.byte	0x10
 1637 06f1 B0       		.byte	0xb0
 1638 06f2 E8040000 		.4byte	0x4e8
 1639 06f6 02       		.byte	0x2
 1640 06f7 23       		.byte	0x23
 1641 06f8 1E       		.uleb128 0x1e
 1642 06f9 06       		.uleb128 0x6
 1643 06fa 93000000 		.4byte	.LASF86
 1644 06fe 10       		.byte	0x10
ARM GAS  /tmp/ccvdAPFH.s 			page 30


 1645 06ff B2       		.byte	0xb2
 1646 0700 D2040000 		.4byte	0x4d2
 1647 0704 02       		.byte	0x2
 1648 0705 23       		.byte	0x23
 1649 0706 20       		.uleb128 0x20
 1650 0707 06       		.uleb128 0x6
 1651 0708 41020000 		.4byte	.LASF101
 1652 070c 10       		.byte	0x10
 1653 070d BF       		.byte	0xbf
 1654 070e FE040000 		.4byte	0x4fe
 1655 0712 02       		.byte	0x2
 1656 0713 23       		.byte	0x23
 1657 0714 24       		.uleb128 0x24
 1658 0715 06       		.uleb128 0x6
 1659 0716 8A050000 		.4byte	.LASF102
 1660 071a 10       		.byte	0x10
 1661 071b C0       		.byte	0xc0
 1662 071c E8040000 		.4byte	0x4e8
 1663 0720 02       		.byte	0x2
 1664 0721 23       		.byte	0x23
 1665 0722 28       		.uleb128 0x28
 1666 0723 06       		.uleb128 0x6
 1667 0724 B7040000 		.4byte	.LASF103
 1668 0728 10       		.byte	0x10
 1669 0729 C1       		.byte	0xc1
 1670 072a E8040000 		.4byte	0x4e8
 1671 072e 02       		.byte	0x2
 1672 072f 23       		.byte	0x23
 1673 0730 2A       		.uleb128 0x2a
 1674 0731 06       		.uleb128 0x6
 1675 0732 2D010000 		.4byte	.LASF104
 1676 0736 10       		.byte	0x10
 1677 0737 C2       		.byte	0xc2
 1678 0738 FE040000 		.4byte	0x4fe
 1679 073c 02       		.byte	0x2
 1680 073d 23       		.byte	0x23
 1681 073e 2C       		.uleb128 0x2c
 1682 073f 07       		.uleb128 0x7
 1683 0740 746D7200 		.ascii	"tmr\000"
 1684 0744 10       		.byte	0x10
 1685 0745 C5       		.byte	0xc5
 1686 0746 FE040000 		.4byte	0x4fe
 1687 074a 02       		.byte	0x2
 1688 074b 23       		.byte	0x23
 1689 074c 30       		.uleb128 0x30
 1690 074d 06       		.uleb128 0x6
 1691 074e 7D000000 		.4byte	.LASF105
 1692 0752 10       		.byte	0x10
 1693 0753 C6       		.byte	0xc6
 1694 0754 D2040000 		.4byte	0x4d2
 1695 0758 02       		.byte	0x2
 1696 0759 23       		.byte	0x23
 1697 075a 34       		.uleb128 0x34
 1698 075b 06       		.uleb128 0x6
 1699 075c 42060000 		.4byte	.LASF106
 1700 0760 10       		.byte	0x10
 1701 0761 C6       		.byte	0xc6
ARM GAS  /tmp/ccvdAPFH.s 			page 31


 1702 0762 D2040000 		.4byte	0x4d2
 1703 0766 02       		.byte	0x2
 1704 0767 23       		.byte	0x23
 1705 0768 35       		.uleb128 0x35
 1706 0769 06       		.uleb128 0x6
 1707 076a 2E020000 		.4byte	.LASF107
 1708 076e 10       		.byte	0x10
 1709 076f C9       		.byte	0xc9
 1710 0770 F3040000 		.4byte	0x4f3
 1711 0774 02       		.byte	0x2
 1712 0775 23       		.byte	0x23
 1713 0776 36       		.uleb128 0x36
 1714 0777 07       		.uleb128 0x7
 1715 0778 6D737300 		.ascii	"mss\000"
 1716 077c 10       		.byte	0x10
 1717 077d CB       		.byte	0xcb
 1718 077e E8040000 		.4byte	0x4e8
 1719 0782 02       		.byte	0x2
 1720 0783 23       		.byte	0x23
 1721 0784 38       		.uleb128 0x38
 1722 0785 06       		.uleb128 0x6
 1723 0786 92050000 		.4byte	.LASF108
 1724 078a 10       		.byte	0x10
 1725 078b CE       		.byte	0xce
 1726 078c FE040000 		.4byte	0x4fe
 1727 0790 02       		.byte	0x2
 1728 0791 23       		.byte	0x23
 1729 0792 3C       		.uleb128 0x3c
 1730 0793 06       		.uleb128 0x6
 1731 0794 1E030000 		.4byte	.LASF109
 1732 0798 10       		.byte	0x10
 1733 0799 CF       		.byte	0xcf
 1734 079a FE040000 		.4byte	0x4fe
 1735 079e 02       		.byte	0x2
 1736 079f 23       		.byte	0x23
 1737 07a0 40       		.uleb128 0x40
 1738 07a1 07       		.uleb128 0x7
 1739 07a2 736100   		.ascii	"sa\000"
 1740 07a5 10       		.byte	0x10
 1741 07a6 D0       		.byte	0xd0
 1742 07a7 F3040000 		.4byte	0x4f3
 1743 07ab 02       		.byte	0x2
 1744 07ac 23       		.byte	0x23
 1745 07ad 44       		.uleb128 0x44
 1746 07ae 07       		.uleb128 0x7
 1747 07af 737600   		.ascii	"sv\000"
 1748 07b2 10       		.byte	0x10
 1749 07b3 D0       		.byte	0xd0
 1750 07b4 F3040000 		.4byte	0x4f3
 1751 07b8 02       		.byte	0x2
 1752 07b9 23       		.byte	0x23
 1753 07ba 46       		.uleb128 0x46
 1754 07bb 07       		.uleb128 0x7
 1755 07bc 72746F00 		.ascii	"rto\000"
 1756 07c0 10       		.byte	0x10
 1757 07c1 D2       		.byte	0xd2
 1758 07c2 F3040000 		.4byte	0x4f3
ARM GAS  /tmp/ccvdAPFH.s 			page 32


 1759 07c6 02       		.byte	0x2
 1760 07c7 23       		.byte	0x23
 1761 07c8 48       		.uleb128 0x48
 1762 07c9 06       		.uleb128 0x6
 1763 07ca 0C080000 		.4byte	.LASF110
 1764 07ce 10       		.byte	0x10
 1765 07cf D3       		.byte	0xd3
 1766 07d0 D2040000 		.4byte	0x4d2
 1767 07d4 02       		.byte	0x2
 1768 07d5 23       		.byte	0x23
 1769 07d6 4A       		.uleb128 0x4a
 1770 07d7 06       		.uleb128 0x6
 1771 07d8 E9020000 		.4byte	.LASF111
 1772 07dc 10       		.byte	0x10
 1773 07dd D6       		.byte	0xd6
 1774 07de FE040000 		.4byte	0x4fe
 1775 07e2 02       		.byte	0x2
 1776 07e3 23       		.byte	0x23
 1777 07e4 4C       		.uleb128 0x4c
 1778 07e5 06       		.uleb128 0x6
 1779 07e6 2B030000 		.4byte	.LASF112
 1780 07ea 10       		.byte	0x10
 1781 07eb D7       		.byte	0xd7
 1782 07ec D2040000 		.4byte	0x4d2
 1783 07f0 02       		.byte	0x2
 1784 07f1 23       		.byte	0x23
 1785 07f2 50       		.uleb128 0x50
 1786 07f3 06       		.uleb128 0x6
 1787 07f4 85010000 		.4byte	.LASF113
 1788 07f8 10       		.byte	0x10
 1789 07f9 DA       		.byte	0xda
 1790 07fa E8040000 		.4byte	0x4e8
 1791 07fe 02       		.byte	0x2
 1792 07ff 23       		.byte	0x23
 1793 0800 52       		.uleb128 0x52
 1794 0801 06       		.uleb128 0x6
 1795 0802 31060000 		.4byte	.LASF114
 1796 0806 10       		.byte	0x10
 1797 0807 DB       		.byte	0xdb
 1798 0808 E8040000 		.4byte	0x4e8
 1799 080c 02       		.byte	0x2
 1800 080d 23       		.byte	0x23
 1801 080e 54       		.uleb128 0x54
 1802 080f 06       		.uleb128 0x6
 1803 0810 04060000 		.4byte	.LASF115
 1804 0814 10       		.byte	0x10
 1805 0815 DE       		.byte	0xde
 1806 0816 FE040000 		.4byte	0x4fe
 1807 081a 02       		.byte	0x2
 1808 081b 23       		.byte	0x23
 1809 081c 58       		.uleb128 0x58
 1810 081d 06       		.uleb128 0x6
 1811 081e 26050000 		.4byte	.LASF116
 1812 0822 10       		.byte	0x10
 1813 0823 DF       		.byte	0xdf
 1814 0824 E8040000 		.4byte	0x4e8
 1815 0828 02       		.byte	0x2
ARM GAS  /tmp/ccvdAPFH.s 			page 33


 1816 0829 23       		.byte	0x23
 1817 082a 5C       		.uleb128 0x5c
 1818 082b 06       		.uleb128 0x6
 1819 082c 09040000 		.4byte	.LASF117
 1820 0830 10       		.byte	0x10
 1821 0831 E0       		.byte	0xe0
 1822 0832 FE040000 		.4byte	0x4fe
 1823 0836 02       		.byte	0x2
 1824 0837 23       		.byte	0x23
 1825 0838 60       		.uleb128 0x60
 1826 0839 06       		.uleb128 0x6
 1827 083a 11040000 		.4byte	.LASF118
 1828 083e 10       		.byte	0x10
 1829 083f E0       		.byte	0xe0
 1830 0840 FE040000 		.4byte	0x4fe
 1831 0844 02       		.byte	0x2
 1832 0845 23       		.byte	0x23
 1833 0846 64       		.uleb128 0x64
 1834 0847 06       		.uleb128 0x6
 1835 0848 36040000 		.4byte	.LASF119
 1836 084c 10       		.byte	0x10
 1837 084d E2       		.byte	0xe2
 1838 084e FE040000 		.4byte	0x4fe
 1839 0852 02       		.byte	0x2
 1840 0853 23       		.byte	0x23
 1841 0854 68       		.uleb128 0x68
 1842 0855 06       		.uleb128 0x6
 1843 0856 6C030000 		.4byte	.LASF120
 1844 085a 10       		.byte	0x10
 1845 085b E4       		.byte	0xe4
 1846 085c E8040000 		.4byte	0x4e8
 1847 0860 02       		.byte	0x2
 1848 0861 23       		.byte	0x23
 1849 0862 6C       		.uleb128 0x6c
 1850 0863 06       		.uleb128 0x6
 1851 0864 3A060000 		.4byte	.LASF121
 1852 0868 10       		.byte	0x10
 1853 0869 E6       		.byte	0xe6
 1854 086a E8040000 		.4byte	0x4e8
 1855 086e 02       		.byte	0x2
 1856 086f 23       		.byte	0x23
 1857 0870 6E       		.uleb128 0x6e
 1858 0871 06       		.uleb128 0x6
 1859 0872 74070000 		.4byte	.LASF122
 1860 0876 10       		.byte	0x10
 1861 0877 E8       		.byte	0xe8
 1862 0878 E8040000 		.4byte	0x4e8
 1863 087c 02       		.byte	0x2
 1864 087d 23       		.byte	0x23
 1865 087e 70       		.uleb128 0x70
 1866 087f 06       		.uleb128 0x6
 1867 0880 E5050000 		.4byte	.LASF123
 1868 0884 10       		.byte	0x10
 1869 0885 EC       		.byte	0xec
 1870 0886 E8040000 		.4byte	0x4e8
 1871 088a 02       		.byte	0x2
 1872 088b 23       		.byte	0x23
ARM GAS  /tmp/ccvdAPFH.s 			page 34


 1873 088c 72       		.uleb128 0x72
 1874 088d 06       		.uleb128 0x6
 1875 088e 83050000 		.4byte	.LASF124
 1876 0892 10       		.byte	0x10
 1877 0893 F0       		.byte	0xf0
 1878 0894 A80A0000 		.4byte	0xaa8
 1879 0898 02       		.byte	0x2
 1880 0899 23       		.byte	0x23
 1881 089a 74       		.uleb128 0x74
 1882 089b 06       		.uleb128 0x6
 1883 089c 5E020000 		.4byte	.LASF125
 1884 08a0 10       		.byte	0x10
 1885 08a1 F1       		.byte	0xf1
 1886 08a2 A80A0000 		.4byte	0xaa8
 1887 08a6 02       		.byte	0x2
 1888 08a7 23       		.byte	0x23
 1889 08a8 78       		.uleb128 0x78
 1890 08a9 06       		.uleb128 0x6
 1891 08aa 36050000 		.4byte	.LASF126
 1892 08ae 10       		.byte	0x10
 1893 08af F3       		.byte	0xf3
 1894 08b0 A80A0000 		.4byte	0xaa8
 1895 08b4 02       		.byte	0x2
 1896 08b5 23       		.byte	0x23
 1897 08b6 7C       		.uleb128 0x7c
 1898 08b7 06       		.uleb128 0x6
 1899 08b8 C7060000 		.4byte	.LASF127
 1900 08bc 10       		.byte	0x10
 1901 08bd F6       		.byte	0xf6
 1902 08be E8050000 		.4byte	0x5e8
 1903 08c2 03       		.byte	0x3
 1904 08c3 23       		.byte	0x23
 1905 08c4 8001     		.uleb128 0x80
 1906 08c6 06       		.uleb128 0x6
 1907 08c7 F1030000 		.4byte	.LASF128
 1908 08cb 10       		.byte	0x10
 1909 08cc FA       		.byte	0xfa
 1910 08cd 84090000 		.4byte	0x984
 1911 08d1 03       		.byte	0x3
 1912 08d2 23       		.byte	0x23
 1913 08d3 8401     		.uleb128 0x84
 1914 08d5 06       		.uleb128 0x6
 1915 08d6 88070000 		.4byte	.LASF129
 1916 08da 10       		.byte	0x10
 1917 08db FC       		.byte	0xfc
 1918 08dc 54090000 		.4byte	0x954
 1919 08e0 03       		.byte	0x3
 1920 08e1 23       		.byte	0x23
 1921 08e2 8801     		.uleb128 0x88
 1922 08e4 06       		.uleb128 0x6
 1923 08e5 A8020000 		.4byte	.LASF130
 1924 08e9 10       		.byte	0x10
 1925 08ea FE       		.byte	0xfe
 1926 08eb F7090000 		.4byte	0x9f7
 1927 08ef 03       		.byte	0x3
 1928 08f0 23       		.byte	0x23
 1929 08f1 8C01     		.uleb128 0x8c
ARM GAS  /tmp/ccvdAPFH.s 			page 35


 1930 08f3 14       		.uleb128 0x14
 1931 08f4 49030000 		.4byte	.LASF131
 1932 08f8 10       		.byte	0x10
 1933 08f9 0001     		.2byte	0x100
 1934 08fb AF090000 		.4byte	0x9af
 1935 08ff 03       		.byte	0x3
 1936 0900 23       		.byte	0x23
 1937 0901 9001     		.uleb128 0x90
 1938 0903 14       		.uleb128 0x14
 1939 0904 1A050000 		.4byte	.LASF132
 1940 0908 10       		.byte	0x10
 1941 0909 0201     		.2byte	0x102
 1942 090b D5090000 		.4byte	0x9d5
 1943 090f 03       		.byte	0x3
 1944 0910 23       		.byte	0x23
 1945 0911 9401     		.uleb128 0x94
 1946 0913 14       		.uleb128 0x14
 1947 0914 22070000 		.4byte	.LASF133
 1948 0918 10       		.byte	0x10
 1949 0919 0B01     		.2byte	0x10b
 1950 091b FE040000 		.4byte	0x4fe
 1951 091f 03       		.byte	0x3
 1952 0920 23       		.byte	0x23
 1953 0921 9801     		.uleb128 0x98
 1954 0923 14       		.uleb128 0x14
 1955 0924 C6070000 		.4byte	.LASF134
 1956 0928 10       		.byte	0x10
 1957 0929 1201     		.2byte	0x112
 1958 092b FE040000 		.4byte	0x4fe
 1959 092f 03       		.byte	0x3
 1960 0930 23       		.byte	0x23
 1961 0931 9C01     		.uleb128 0x9c
 1962 0933 14       		.uleb128 0x14
 1963 0934 5E040000 		.4byte	.LASF135
 1964 0938 10       		.byte	0x10
 1965 0939 1401     		.2byte	0x114
 1966 093b D2040000 		.4byte	0x4d2
 1967 093f 03       		.byte	0x3
 1968 0940 23       		.byte	0x23
 1969 0941 A001     		.uleb128 0xa0
 1970 0943 14       		.uleb128 0x14
 1971 0944 47010000 		.4byte	.LASF136
 1972 0948 10       		.byte	0x10
 1973 0949 1701     		.2byte	0x117
 1974 094b D2040000 		.4byte	0x4d2
 1975 094f 03       		.byte	0x3
 1976 0950 23       		.byte	0x23
 1977 0951 A101     		.uleb128 0xa1
 1978 0953 00       		.byte	0
 1979 0954 04       		.uleb128 0x4
 1980 0955 EB040000 		.4byte	.LASF137
 1981 0959 10       		.byte	0x10
 1982 095a 49       		.byte	0x49
 1983 095b 5F090000 		.4byte	0x95f
 1984 095f 09       		.uleb128 0x9
 1985 0960 04       		.byte	0x4
 1986 0961 65090000 		.4byte	0x965
ARM GAS  /tmp/ccvdAPFH.s 			page 36


 1987 0965 13       		.uleb128 0x13
 1988 0966 01       		.byte	0x1
 1989 0967 09050000 		.4byte	0x509
 1990 096b 84090000 		.4byte	0x984
 1991 096f 0E       		.uleb128 0xe
 1992 0970 C0020000 		.4byte	0x2c0
 1993 0974 0E       		.uleb128 0xe
 1994 0975 3F060000 		.4byte	0x63f
 1995 0979 0E       		.uleb128 0xe
 1996 097a E8050000 		.4byte	0x5e8
 1997 097e 0E       		.uleb128 0xe
 1998 097f 09050000 		.4byte	0x509
 1999 0983 00       		.byte	0
 2000 0984 04       		.uleb128 0x4
 2001 0985 5D010000 		.4byte	.LASF138
 2002 0989 10       		.byte	0x10
 2003 098a 57       		.byte	0x57
 2004 098b 8F090000 		.4byte	0x98f
 2005 098f 09       		.uleb128 0x9
 2006 0990 04       		.byte	0x4
 2007 0991 95090000 		.4byte	0x995
 2008 0995 13       		.uleb128 0x13
 2009 0996 01       		.byte	0x1
 2010 0997 09050000 		.4byte	0x509
 2011 099b AF090000 		.4byte	0x9af
 2012 099f 0E       		.uleb128 0xe
 2013 09a0 C0020000 		.4byte	0x2c0
 2014 09a4 0E       		.uleb128 0xe
 2015 09a5 3F060000 		.4byte	0x63f
 2016 09a9 0E       		.uleb128 0xe
 2017 09aa E8040000 		.4byte	0x4e8
 2018 09ae 00       		.byte	0
 2019 09af 04       		.uleb128 0x4
 2020 09b0 05050000 		.4byte	.LASF139
 2021 09b4 10       		.byte	0x10
 2022 09b5 63       		.byte	0x63
 2023 09b6 BA090000 		.4byte	0x9ba
 2024 09ba 09       		.uleb128 0x9
 2025 09bb 04       		.byte	0x4
 2026 09bc C0090000 		.4byte	0x9c0
 2027 09c0 13       		.uleb128 0x13
 2028 09c1 01       		.byte	0x1
 2029 09c2 09050000 		.4byte	0x509
 2030 09c6 D5090000 		.4byte	0x9d5
 2031 09ca 0E       		.uleb128 0xe
 2032 09cb C0020000 		.4byte	0x2c0
 2033 09cf 0E       		.uleb128 0xe
 2034 09d0 3F060000 		.4byte	0x63f
 2035 09d4 00       		.byte	0
 2036 09d5 04       		.uleb128 0x4
 2037 09d6 2B040000 		.4byte	.LASF140
 2038 09da 10       		.byte	0x10
 2039 09db 6F       		.byte	0x6f
 2040 09dc E0090000 		.4byte	0x9e0
 2041 09e0 09       		.uleb128 0x9
 2042 09e1 04       		.byte	0x4
 2043 09e2 E6090000 		.4byte	0x9e6
ARM GAS  /tmp/ccvdAPFH.s 			page 37


 2044 09e6 0D       		.uleb128 0xd
 2045 09e7 01       		.byte	0x1
 2046 09e8 F7090000 		.4byte	0x9f7
 2047 09ec 0E       		.uleb128 0xe
 2048 09ed C0020000 		.4byte	0x2c0
 2049 09f1 0E       		.uleb128 0xe
 2050 09f2 09050000 		.4byte	0x509
 2051 09f6 00       		.byte	0
 2052 09f7 04       		.uleb128 0x4
 2053 09f8 CB000000 		.4byte	.LASF141
 2054 09fc 10       		.byte	0x10
 2055 09fd 7D       		.byte	0x7d
 2056 09fe 1F060000 		.4byte	0x61f
 2057 0a02 15       		.uleb128 0x15
 2058 0a03 F2070000 		.4byte	.LASF199
 2059 0a07 01       		.byte	0x1
 2060 0a08 10       		.byte	0x10
 2061 0a09 7F       		.byte	0x7f
 2062 0a0a 510A0000 		.4byte	0xa51
 2063 0a0e 16       		.uleb128 0x16
 2064 0a0f 47050000 		.4byte	.LASF142
 2065 0a13 00       		.sleb128 0
 2066 0a14 16       		.uleb128 0x16
 2067 0a15 39070000 		.4byte	.LASF143
 2068 0a19 01       		.sleb128 1
 2069 0a1a 16       		.uleb128 0x16
 2070 0a1b 19070000 		.4byte	.LASF144
 2071 0a1f 02       		.sleb128 2
 2072 0a20 16       		.uleb128 0x16
 2073 0a21 25080000 		.4byte	.LASF145
 2074 0a25 03       		.sleb128 3
 2075 0a26 16       		.uleb128 0x16
 2076 0a27 0C060000 		.4byte	.LASF146
 2077 0a2b 04       		.sleb128 4
 2078 0a2c 16       		.uleb128 0x16
 2079 0a2d EF060000 		.4byte	.LASF147
 2080 0a31 05       		.sleb128 5
 2081 0a32 16       		.uleb128 0x16
 2082 0a33 FA060000 		.4byte	.LASF148
 2083 0a37 06       		.sleb128 6
 2084 0a38 16       		.uleb128 0x16
 2085 0a39 72030000 		.4byte	.LASF149
 2086 0a3d 07       		.sleb128 7
 2087 0a3e 16       		.uleb128 0x16
 2088 0a3f C0020000 		.4byte	.LASF150
 2089 0a43 08       		.sleb128 8
 2090 0a44 16       		.uleb128 0x16
 2091 0a45 7E020000 		.4byte	.LASF151
 2092 0a49 09       		.sleb128 9
 2093 0a4a 16       		.uleb128 0x16
 2094 0a4b 74040000 		.4byte	.LASF152
 2095 0a4f 0A       		.sleb128 10
 2096 0a50 00       		.byte	0
 2097 0a51 0B       		.uleb128 0xb
 2098 0a52 C4010000 		.4byte	.LASF153
 2099 0a56 10       		.byte	0x10
 2100 0a57 11       		.byte	0x11
ARM GAS  /tmp/ccvdAPFH.s 			page 38


 2101 0a58 1601     		.2byte	0x116
 2102 0a5a A80A0000 		.4byte	0xaa8
 2103 0a5e 14       		.uleb128 0x14
 2104 0a5f DC000000 		.4byte	.LASF80
 2105 0a63 11       		.byte	0x11
 2106 0a64 1701     		.2byte	0x117
 2107 0a66 A80A0000 		.4byte	0xaa8
 2108 0a6a 02       		.byte	0x2
 2109 0a6b 23       		.byte	0x23
 2110 0a6c 00       		.uleb128 0
 2111 0a6d 0C       		.uleb128 0xc
 2112 0a6e 7000     		.ascii	"p\000"
 2113 0a70 11       		.byte	0x11
 2114 0a71 1801     		.2byte	0x118
 2115 0a73 E8050000 		.4byte	0x5e8
 2116 0a77 02       		.byte	0x2
 2117 0a78 23       		.byte	0x23
 2118 0a79 04       		.uleb128 0x4
 2119 0a7a 0C       		.uleb128 0xc
 2120 0a7b 6C656E00 		.ascii	"len\000"
 2121 0a7f 11       		.byte	0x11
 2122 0a80 1901     		.2byte	0x119
 2123 0a82 E8040000 		.4byte	0x4e8
 2124 0a86 02       		.byte	0x2
 2125 0a87 23       		.byte	0x23
 2126 0a88 08       		.uleb128 0x8
 2127 0a89 14       		.uleb128 0x14
 2128 0a8a 93000000 		.4byte	.LASF86
 2129 0a8e 11       		.byte	0x11
 2130 0a8f 2301     		.2byte	0x123
 2131 0a91 D2040000 		.4byte	0x4d2
 2132 0a95 02       		.byte	0x2
 2133 0a96 23       		.byte	0x23
 2134 0a97 0A       		.uleb128 0xa
 2135 0a98 14       		.uleb128 0x14
 2136 0a99 B2060000 		.4byte	.LASF154
 2137 0a9d 11       		.byte	0x11
 2138 0a9e 2801     		.2byte	0x128
 2139 0aa0 2B0B0000 		.4byte	0xb2b
 2140 0aa4 02       		.byte	0x2
 2141 0aa5 23       		.byte	0x23
 2142 0aa6 0C       		.uleb128 0xc
 2143 0aa7 00       		.byte	0
 2144 0aa8 09       		.uleb128 0x9
 2145 0aa9 04       		.byte	0x4
 2146 0aaa 510A0000 		.4byte	0xa51
 2147 0aae 05       		.uleb128 0x5
 2148 0aaf D4060000 		.4byte	.LASF155
 2149 0ab3 14       		.byte	0x14
 2150 0ab4 11       		.byte	0x11
 2151 0ab5 9E       		.byte	0x9e
 2152 0ab6 2B0B0000 		.4byte	0xb2b
 2153 0aba 07       		.uleb128 0x7
 2154 0abb 73726300 		.ascii	"src\000"
 2155 0abf 11       		.byte	0x11
 2156 0ac0 9F       		.byte	0x9f
 2157 0ac1 E8040000 		.4byte	0x4e8
ARM GAS  /tmp/ccvdAPFH.s 			page 39


 2158 0ac5 02       		.byte	0x2
 2159 0ac6 23       		.byte	0x23
 2160 0ac7 00       		.uleb128 0
 2161 0ac8 06       		.uleb128 0x6
 2162 0ac9 17080000 		.4byte	.LASF156
 2163 0acd 11       		.byte	0x11
 2164 0ace A0       		.byte	0xa0
 2165 0acf E8040000 		.4byte	0x4e8
 2166 0ad3 02       		.byte	0x2
 2167 0ad4 23       		.byte	0x23
 2168 0ad5 02       		.uleb128 0x2
 2169 0ad6 06       		.uleb128 0x6
 2170 0ad7 6F010000 		.4byte	.LASF157
 2171 0adb 11       		.byte	0x11
 2172 0adc A1       		.byte	0xa1
 2173 0add FE040000 		.4byte	0x4fe
 2174 0ae1 02       		.byte	0x2
 2175 0ae2 23       		.byte	0x23
 2176 0ae3 04       		.uleb128 0x4
 2177 0ae4 06       		.uleb128 0x6
 2178 0ae5 58040000 		.4byte	.LASF158
 2179 0ae9 11       		.byte	0x11
 2180 0aea A2       		.byte	0xa2
 2181 0aeb FE040000 		.4byte	0x4fe
 2182 0aef 02       		.byte	0x2
 2183 0af0 23       		.byte	0x23
 2184 0af1 08       		.uleb128 0x8
 2185 0af2 06       		.uleb128 0x6
 2186 0af3 5C060000 		.4byte	.LASF159
 2187 0af7 11       		.byte	0x11
 2188 0af8 A3       		.byte	0xa3
 2189 0af9 E8040000 		.4byte	0x4e8
 2190 0afd 02       		.byte	0x2
 2191 0afe 23       		.byte	0x23
 2192 0aff 0C       		.uleb128 0xc
 2193 0b00 07       		.uleb128 0x7
 2194 0b01 776E6400 		.ascii	"wnd\000"
 2195 0b05 11       		.byte	0x11
 2196 0b06 A4       		.byte	0xa4
 2197 0b07 E8040000 		.4byte	0x4e8
 2198 0b0b 02       		.byte	0x2
 2199 0b0c 23       		.byte	0x23
 2200 0b0d 0E       		.uleb128 0xe
 2201 0b0e 06       		.uleb128 0x6
 2202 0b0f 81070000 		.4byte	.LASF160
 2203 0b13 11       		.byte	0x11
 2204 0b14 A5       		.byte	0xa5
 2205 0b15 E8040000 		.4byte	0x4e8
 2206 0b19 02       		.byte	0x2
 2207 0b1a 23       		.byte	0x23
 2208 0b1b 10       		.uleb128 0x10
 2209 0b1c 06       		.uleb128 0x6
 2210 0b1d 78000000 		.4byte	.LASF161
 2211 0b21 11       		.byte	0x11
 2212 0b22 A6       		.byte	0xa6
 2213 0b23 E8040000 		.4byte	0x4e8
 2214 0b27 02       		.byte	0x2
ARM GAS  /tmp/ccvdAPFH.s 			page 40


 2215 0b28 23       		.byte	0x23
 2216 0b29 12       		.uleb128 0x12
 2217 0b2a 00       		.byte	0
 2218 0b2b 09       		.uleb128 0x9
 2219 0b2c 04       		.byte	0x4
 2220 0b2d AE0A0000 		.4byte	0xaae
 2221 0b31 17       		.uleb128 0x17
 2222 0b32 01       		.byte	0x1
 2223 0b33 12       		.byte	0x12
 2224 0b34 2B       		.byte	0x2b
 2225 0b35 940B0000 		.4byte	0xb94
 2226 0b39 16       		.uleb128 0x16
 2227 0b3a 4F060000 		.4byte	.LASF162
 2228 0b3e 00       		.sleb128 0
 2229 0b3f 16       		.uleb128 0x16
 2230 0b40 BB050000 		.4byte	.LASF163
 2231 0b44 01       		.sleb128 1
 2232 0b45 16       		.uleb128 0x16
 2233 0b46 A5060000 		.4byte	.LASF164
 2234 0b4a 02       		.sleb128 2
 2235 0b4b 16       		.uleb128 0x16
 2236 0b4c 28000000 		.4byte	.LASF165
 2237 0b50 03       		.sleb128 3
 2238 0b51 16       		.uleb128 0x16
 2239 0b52 0C070000 		.4byte	.LASF166
 2240 0b56 04       		.sleb128 4
 2241 0b57 16       		.uleb128 0x16
 2242 0b58 CD040000 		.4byte	.LASF167
 2243 0b5c 05       		.sleb128 5
 2244 0b5d 16       		.uleb128 0x16
 2245 0b5e 22060000 		.4byte	.LASF168
 2246 0b62 06       		.sleb128 6
 2247 0b63 16       		.uleb128 0x16
 2248 0b64 3E040000 		.4byte	.LASF169
 2249 0b68 07       		.sleb128 7
 2250 0b69 16       		.uleb128 0x16
 2251 0b6a 11030000 		.4byte	.LASF170
 2252 0b6e 08       		.sleb128 8
 2253 0b6f 16       		.uleb128 0x16
 2254 0b70 96010000 		.4byte	.LASF171
 2255 0b74 09       		.sleb128 9
 2256 0b75 16       		.uleb128 0x16
 2257 0b76 49020000 		.4byte	.LASF172
 2258 0b7a 0A       		.sleb128 10
 2259 0b7b 16       		.uleb128 0x16
 2260 0b7c A3050000 		.4byte	.LASF173
 2261 0b80 0B       		.sleb128 11
 2262 0b81 16       		.uleb128 0x16
 2263 0b82 3F030000 		.4byte	.LASF174
 2264 0b86 0C       		.sleb128 12
 2265 0b87 16       		.uleb128 0x16
 2266 0b88 DC040000 		.4byte	.LASF175
 2267 0b8c 0D       		.sleb128 13
 2268 0b8d 16       		.uleb128 0x16
 2269 0b8e F1020000 		.4byte	.LASF176
 2270 0b92 0E       		.sleb128 14
 2271 0b93 00       		.byte	0
ARM GAS  /tmp/ccvdAPFH.s 			page 41


 2272 0b94 18       		.uleb128 0x18
 2273 0b95 36080000 		.4byte	.LASF177
 2274 0b99 01       		.byte	0x1
 2275 0b9a 4D       		.byte	0x4d
 2276 0b9b 01       		.byte	0x1
 2277 0b9c 00000000 		.4byte	.LFB7
 2278 0ba0 4E000000 		.4byte	.LFE7
 2279 0ba4 00000000 		.4byte	.LLST0
 2280 0ba8 BB0B0000 		.4byte	0xbbb
 2281 0bac 19       		.uleb128 0x19
 2282 0bad 61726700 		.ascii	"arg\000"
 2283 0bb1 01       		.byte	0x1
 2284 0bb2 4D       		.byte	0x4d
 2285 0bb3 C0020000 		.4byte	0x2c0
 2286 0bb7 02       		.byte	0x2
 2287 0bb8 91       		.byte	0x91
 2288 0bb9 74       		.sleb128 -12
 2289 0bba 00       		.byte	0
 2290 0bbb 1A       		.uleb128 0x1a
 2291 0bbc 01       		.byte	0x1
 2292 0bbd 93040000 		.4byte	.LASF180
 2293 0bc1 01       		.byte	0x1
 2294 0bc2 63       		.byte	0x63
 2295 0bc3 01       		.byte	0x1
 2296 0bc4 00000000 		.4byte	.LFB8
 2297 0bc8 50000000 		.4byte	.LFE8
 2298 0bcc 2C000000 		.4byte	.LLST1
 2299 0bd0 18       		.uleb128 0x18
 2300 0bd1 F5050000 		.4byte	.LASF178
 2301 0bd5 01       		.byte	0x1
 2302 0bd6 75       		.byte	0x75
 2303 0bd7 01       		.byte	0x1
 2304 0bd8 00000000 		.4byte	.LFB9
 2305 0bdc 22000000 		.4byte	.LFE9
 2306 0be0 4C000000 		.4byte	.LLST2
 2307 0be4 F70B0000 		.4byte	0xbf7
 2308 0be8 19       		.uleb128 0x19
 2309 0be9 61726700 		.ascii	"arg\000"
 2310 0bed 01       		.byte	0x1
 2311 0bee 75       		.byte	0x75
 2312 0bef C0020000 		.4byte	0x2c0
 2313 0bf3 02       		.byte	0x2
 2314 0bf4 91       		.byte	0x91
 2315 0bf5 74       		.sleb128 -12
 2316 0bf6 00       		.byte	0
 2317 0bf7 18       		.uleb128 0x18
 2318 0bf8 9E020000 		.4byte	.LASF179
 2319 0bfc 01       		.byte	0x1
 2320 0bfd 85       		.byte	0x85
 2321 0bfe 01       		.byte	0x1
 2322 0bff 00000000 		.4byte	.LFB10
 2323 0c03 22000000 		.4byte	.LFE10
 2324 0c07 78000000 		.4byte	.LLST3
 2325 0c0b 1E0C0000 		.4byte	0xc1e
 2326 0c0f 19       		.uleb128 0x19
 2327 0c10 61726700 		.ascii	"arg\000"
 2328 0c14 01       		.byte	0x1
ARM GAS  /tmp/ccvdAPFH.s 			page 42


 2329 0c15 85       		.byte	0x85
 2330 0c16 C0020000 		.4byte	0x2c0
 2331 0c1a 02       		.byte	0x2
 2332 0c1b 91       		.byte	0x91
 2333 0c1c 74       		.sleb128 -12
 2334 0c1d 00       		.byte	0
 2335 0c1e 1A       		.uleb128 0x1a
 2336 0c1f 01       		.byte	0x1
 2337 0c20 4F070000 		.4byte	.LASF181
 2338 0c24 01       		.byte	0x1
 2339 0c25 DD       		.byte	0xdd
 2340 0c26 01       		.byte	0x1
 2341 0c27 00000000 		.4byte	.LFB11
 2342 0c2b 2C000000 		.4byte	.LFE11
 2343 0c2f A4000000 		.4byte	.LLST4
 2344 0c33 1B       		.uleb128 0x1b
 2345 0c34 01       		.byte	0x1
 2346 0c35 60030000 		.4byte	.LASF185
 2347 0c39 01       		.byte	0x1
 2348 0c3a 0801     		.2byte	0x108
 2349 0c3c 01       		.byte	0x1
 2350 0c3d 00000000 		.4byte	.LFB12
 2351 0c41 18010000 		.4byte	.LFE12
 2352 0c45 C4000000 		.4byte	.LLST5
 2353 0c49 970C0000 		.4byte	0xc97
 2354 0c4d 1C       		.uleb128 0x1c
 2355 0c4e 11080000 		.4byte	.LASF182
 2356 0c52 01       		.byte	0x1
 2357 0c53 0801     		.2byte	0x108
 2358 0c55 FE040000 		.4byte	0x4fe
 2359 0c59 02       		.byte	0x2
 2360 0c5a 91       		.byte	0x91
 2361 0c5b 6C       		.sleb128 -20
 2362 0c5c 1C       		.uleb128 0x1c
 2363 0c5d 25010000 		.4byte	.LASF183
 2364 0c61 01       		.byte	0x1
 2365 0c62 0801     		.2byte	0x108
 2366 0c64 25050000 		.4byte	0x525
 2367 0c68 02       		.byte	0x2
 2368 0c69 91       		.byte	0x91
 2369 0c6a 68       		.sleb128 -24
 2370 0c6b 1D       		.uleb128 0x1d
 2371 0c6c 61726700 		.ascii	"arg\000"
 2372 0c70 01       		.byte	0x1
 2373 0c71 0801     		.2byte	0x108
 2374 0c73 C0020000 		.4byte	0x2c0
 2375 0c77 02       		.byte	0x2
 2376 0c78 91       		.byte	0x91
 2377 0c79 64       		.sleb128 -28
 2378 0c7a 1E       		.uleb128 0x1e
 2379 0c7b 2E050000 		.4byte	.LASF184
 2380 0c7f 01       		.byte	0x1
 2381 0c80 0B01     		.2byte	0x10b
 2382 0c82 73050000 		.4byte	0x573
 2383 0c86 02       		.byte	0x2
 2384 0c87 91       		.byte	0x91
 2385 0c88 70       		.sleb128 -16
ARM GAS  /tmp/ccvdAPFH.s 			page 43


 2386 0c89 1F       		.uleb128 0x1f
 2387 0c8a 7400     		.ascii	"t\000"
 2388 0c8c 01       		.byte	0x1
 2389 0c8d 0B01     		.2byte	0x10b
 2390 0c8f 73050000 		.4byte	0x573
 2391 0c93 02       		.byte	0x2
 2392 0c94 91       		.byte	0x91
 2393 0c95 74       		.sleb128 -12
 2394 0c96 00       		.byte	0
 2395 0c97 1B       		.uleb128 0x1b
 2396 0c98 01       		.byte	0x1
 2397 0c99 E1000000 		.4byte	.LASF186
 2398 0c9d 01       		.byte	0x1
 2399 0c9e 3F01     		.2byte	0x13f
 2400 0ca0 01       		.byte	0x1
 2401 0ca1 00000000 		.4byte	.LFB13
 2402 0ca5 9A000000 		.4byte	.LFE13
 2403 0ca9 F0000000 		.4byte	.LLST6
 2404 0cad EC0C0000 		.4byte	0xcec
 2405 0cb1 1C       		.uleb128 0x1c
 2406 0cb2 25010000 		.4byte	.LASF183
 2407 0cb6 01       		.byte	0x1
 2408 0cb7 3F01     		.2byte	0x13f
 2409 0cb9 25050000 		.4byte	0x525
 2410 0cbd 02       		.byte	0x2
 2411 0cbe 91       		.byte	0x91
 2412 0cbf 6C       		.sleb128 -20
 2413 0cc0 1D       		.uleb128 0x1d
 2414 0cc1 61726700 		.ascii	"arg\000"
 2415 0cc5 01       		.byte	0x1
 2416 0cc6 3F01     		.2byte	0x13f
 2417 0cc8 C0020000 		.4byte	0x2c0
 2418 0ccc 02       		.byte	0x2
 2419 0ccd 91       		.byte	0x91
 2420 0cce 68       		.sleb128 -24
 2421 0ccf 1E       		.uleb128 0x1e
 2422 0cd0 00000000 		.4byte	.LASF187
 2423 0cd4 01       		.byte	0x1
 2424 0cd5 4101     		.2byte	0x141
 2425 0cd7 73050000 		.4byte	0x573
 2426 0cdb 02       		.byte	0x2
 2427 0cdc 91       		.byte	0x91
 2428 0cdd 74       		.sleb128 -12
 2429 0cde 1F       		.uleb128 0x1f
 2430 0cdf 7400     		.ascii	"t\000"
 2431 0ce1 01       		.byte	0x1
 2432 0ce2 4101     		.2byte	0x141
 2433 0ce4 73050000 		.4byte	0x573
 2434 0ce8 02       		.byte	0x2
 2435 0ce9 91       		.byte	0x91
 2436 0cea 70       		.sleb128 -16
 2437 0ceb 00       		.byte	0
 2438 0cec 1B       		.uleb128 0x1b
 2439 0ced 01       		.byte	0x1
 2440 0cee 66020000 		.4byte	.LASF188
 2441 0cf2 01       		.byte	0x1
 2442 0cf3 A201     		.2byte	0x1a2
ARM GAS  /tmp/ccvdAPFH.s 			page 44


 2443 0cf5 01       		.byte	0x1
 2444 0cf6 00000000 		.4byte	.LFB14
 2445 0cfa E8000000 		.4byte	.LFE14
 2446 0cfe 1C010000 		.4byte	.LLST7
 2447 0d02 6D0D0000 		.4byte	0xd6d
 2448 0d06 1C       		.uleb128 0x1c
 2449 0d07 E0050000 		.4byte	.LASF189
 2450 0d0b 01       		.byte	0x1
 2451 0d0c A201     		.2byte	0x1a2
 2452 0d0e 6D0D0000 		.4byte	0xd6d
 2453 0d12 02       		.byte	0x2
 2454 0d13 91       		.byte	0x91
 2455 0d14 64       		.sleb128 -28
 2456 0d15 1D       		.uleb128 0x1d
 2457 0d16 6D736700 		.ascii	"msg\000"
 2458 0d1a 01       		.byte	0x1
 2459 0d1b A201     		.2byte	0x1a2
 2460 0d1d 730D0000 		.4byte	0xd73
 2461 0d21 02       		.byte	0x2
 2462 0d22 91       		.byte	0x91
 2463 0d23 60       		.sleb128 -32
 2464 0d24 1E       		.uleb128 0x1e
 2465 0d25 12010000 		.4byte	.LASF190
 2466 0d29 01       		.byte	0x1
 2467 0d2a A401     		.2byte	0x1a4
 2468 0d2c FE040000 		.4byte	0x4fe
 2469 0d30 02       		.byte	0x2
 2470 0d31 91       		.byte	0x91
 2471 0d32 74       		.sleb128 -12
 2472 0d33 1E       		.uleb128 0x1e
 2473 0d34 07000000 		.4byte	.LASF191
 2474 0d38 01       		.byte	0x1
 2475 0d39 A501     		.2byte	0x1a5
 2476 0d3b 73050000 		.4byte	0x573
 2477 0d3f 02       		.byte	0x2
 2478 0d40 91       		.byte	0x91
 2479 0d41 70       		.sleb128 -16
 2480 0d42 1E       		.uleb128 0x1e
 2481 0d43 25010000 		.4byte	.LASF183
 2482 0d47 01       		.byte	0x1
 2483 0d48 A601     		.2byte	0x1a6
 2484 0d4a 25050000 		.4byte	0x525
 2485 0d4e 02       		.byte	0x2
 2486 0d4f 91       		.byte	0x91
 2487 0d50 6C       		.sleb128 -20
 2488 0d51 1F       		.uleb128 0x1f
 2489 0d52 61726700 		.ascii	"arg\000"
 2490 0d56 01       		.byte	0x1
 2491 0d57 A701     		.2byte	0x1a7
 2492 0d59 C0020000 		.4byte	0x2c0
 2493 0d5d 02       		.byte	0x2
 2494 0d5e 91       		.byte	0x91
 2495 0d5f 68       		.sleb128 -24
 2496 0d60 20       		.uleb128 0x20
 2497 0d61 5E000000 		.4byte	.LASF200
 2498 0d65 01       		.byte	0x1
 2499 0d66 A901     		.2byte	0x1a9
ARM GAS  /tmp/ccvdAPFH.s 			page 45


 2500 0d68 0C000000 		.4byte	.L34
 2501 0d6c 00       		.byte	0
 2502 0d6d 09       		.uleb128 0x9
 2503 0d6e 04       		.byte	0x4
 2504 0d6f 14050000 		.4byte	0x514
 2505 0d73 09       		.uleb128 0x9
 2506 0d74 04       		.byte	0x4
 2507 0d75 C0020000 		.4byte	0x2c0
 2508 0d79 21       		.uleb128 0x21
 2509 0d7a FC070000 		.4byte	.LASF192
 2510 0d7e 11       		.byte	0x11
 2511 0d7f 4001     		.2byte	0x140
 2512 0d81 3F060000 		.4byte	0x63f
 2513 0d85 01       		.byte	0x1
 2514 0d86 01       		.byte	0x1
 2515 0d87 21       		.uleb128 0x21
 2516 0d88 DC070000 		.4byte	.LASF193
 2517 0d8c 11       		.byte	0x11
 2518 0d8d 4301     		.2byte	0x143
 2519 0d8f 3F060000 		.4byte	0x63f
 2520 0d93 01       		.byte	0x1
 2521 0d94 01       		.byte	0x1
 2522 0d95 22       		.uleb128 0x22
 2523 0d96 67070000 		.4byte	.LASF194
 2524 0d9a 01       		.byte	0x1
 2525 0d9b 3E       		.byte	0x3e
 2526 0d9c 73050000 		.4byte	0x573
 2527 0da0 05       		.byte	0x5
 2528 0da1 03       		.byte	0x3
 2529 0da2 00000000 		.4byte	next_timeout
 2530 0da6 22       		.uleb128 0x22
 2531 0da7 F5000000 		.4byte	.LASF195
 2532 0dab 01       		.byte	0x1
 2533 0dac 45       		.byte	0x45
 2534 0dad 29000000 		.4byte	0x29
 2535 0db1 05       		.byte	0x5
 2536 0db2 03       		.byte	0x3
 2537 0db3 00000000 		.4byte	tcpip_tcp_timer_active
 2538 0db7 21       		.uleb128 0x21
 2539 0db8 FC070000 		.4byte	.LASF192
 2540 0dbc 11       		.byte	0x11
 2541 0dbd 4001     		.2byte	0x140
 2542 0dbf 3F060000 		.4byte	0x63f
 2543 0dc3 01       		.byte	0x1
 2544 0dc4 01       		.byte	0x1
 2545 0dc5 21       		.uleb128 0x21
 2546 0dc6 DC070000 		.4byte	.LASF193
 2547 0dca 11       		.byte	0x11
 2548 0dcb 4301     		.2byte	0x143
 2549 0dcd 3F060000 		.4byte	0x63f
 2550 0dd1 01       		.byte	0x1
 2551 0dd2 01       		.byte	0x1
 2552 0dd3 00       		.byte	0
 2553              		.section	.debug_abbrev,"",%progbits
 2554              	.Ldebug_abbrev0:
 2555 0000 01       		.uleb128 0x1
 2556 0001 11       		.uleb128 0x11
ARM GAS  /tmp/ccvdAPFH.s 			page 46


 2557 0002 01       		.byte	0x1
 2558 0003 25       		.uleb128 0x25
 2559 0004 0E       		.uleb128 0xe
 2560 0005 13       		.uleb128 0x13
 2561 0006 0B       		.uleb128 0xb
 2562 0007 03       		.uleb128 0x3
 2563 0008 0E       		.uleb128 0xe
 2564 0009 1B       		.uleb128 0x1b
 2565 000a 0E       		.uleb128 0xe
 2566 000b 11       		.uleb128 0x11
 2567 000c 01       		.uleb128 0x1
 2568 000d 52       		.uleb128 0x52
 2569 000e 01       		.uleb128 0x1
 2570 000f 55       		.uleb128 0x55
 2571 0010 06       		.uleb128 0x6
 2572 0011 10       		.uleb128 0x10
 2573 0012 06       		.uleb128 0x6
 2574 0013 00       		.byte	0
 2575 0014 00       		.byte	0
 2576 0015 02       		.uleb128 0x2
 2577 0016 24       		.uleb128 0x24
 2578 0017 00       		.byte	0
 2579 0018 0B       		.uleb128 0xb
 2580 0019 0B       		.uleb128 0xb
 2581 001a 3E       		.uleb128 0x3e
 2582 001b 0B       		.uleb128 0xb
 2583 001c 03       		.uleb128 0x3
 2584 001d 08       		.uleb128 0x8
 2585 001e 00       		.byte	0
 2586 001f 00       		.byte	0
 2587 0020 03       		.uleb128 0x3
 2588 0021 24       		.uleb128 0x24
 2589 0022 00       		.byte	0
 2590 0023 0B       		.uleb128 0xb
 2591 0024 0B       		.uleb128 0xb
 2592 0025 3E       		.uleb128 0x3e
 2593 0026 0B       		.uleb128 0xb
 2594 0027 03       		.uleb128 0x3
 2595 0028 0E       		.uleb128 0xe
 2596 0029 00       		.byte	0
 2597 002a 00       		.byte	0
 2598 002b 04       		.uleb128 0x4
 2599 002c 16       		.uleb128 0x16
 2600 002d 00       		.byte	0
 2601 002e 03       		.uleb128 0x3
 2602 002f 0E       		.uleb128 0xe
 2603 0030 3A       		.uleb128 0x3a
 2604 0031 0B       		.uleb128 0xb
 2605 0032 3B       		.uleb128 0x3b
 2606 0033 0B       		.uleb128 0xb
 2607 0034 49       		.uleb128 0x49
 2608 0035 13       		.uleb128 0x13
 2609 0036 00       		.byte	0
 2610 0037 00       		.byte	0
 2611 0038 05       		.uleb128 0x5
 2612 0039 13       		.uleb128 0x13
 2613 003a 01       		.byte	0x1
ARM GAS  /tmp/ccvdAPFH.s 			page 47


 2614 003b 03       		.uleb128 0x3
 2615 003c 0E       		.uleb128 0xe
 2616 003d 0B       		.uleb128 0xb
 2617 003e 0B       		.uleb128 0xb
 2618 003f 3A       		.uleb128 0x3a
 2619 0040 0B       		.uleb128 0xb
 2620 0041 3B       		.uleb128 0x3b
 2621 0042 0B       		.uleb128 0xb
 2622 0043 01       		.uleb128 0x1
 2623 0044 13       		.uleb128 0x13
 2624 0045 00       		.byte	0
 2625 0046 00       		.byte	0
 2626 0047 06       		.uleb128 0x6
 2627 0048 0D       		.uleb128 0xd
 2628 0049 00       		.byte	0
 2629 004a 03       		.uleb128 0x3
 2630 004b 0E       		.uleb128 0xe
 2631 004c 3A       		.uleb128 0x3a
 2632 004d 0B       		.uleb128 0xb
 2633 004e 3B       		.uleb128 0x3b
 2634 004f 0B       		.uleb128 0xb
 2635 0050 49       		.uleb128 0x49
 2636 0051 13       		.uleb128 0x13
 2637 0052 38       		.uleb128 0x38
 2638 0053 0A       		.uleb128 0xa
 2639 0054 00       		.byte	0
 2640 0055 00       		.byte	0
 2641 0056 07       		.uleb128 0x7
 2642 0057 0D       		.uleb128 0xd
 2643 0058 00       		.byte	0
 2644 0059 03       		.uleb128 0x3
 2645 005a 08       		.uleb128 0x8
 2646 005b 3A       		.uleb128 0x3a
 2647 005c 0B       		.uleb128 0xb
 2648 005d 3B       		.uleb128 0x3b
 2649 005e 0B       		.uleb128 0xb
 2650 005f 49       		.uleb128 0x49
 2651 0060 13       		.uleb128 0x13
 2652 0061 38       		.uleb128 0x38
 2653 0062 0A       		.uleb128 0xa
 2654 0063 00       		.byte	0
 2655 0064 00       		.byte	0
 2656 0065 08       		.uleb128 0x8
 2657 0066 13       		.uleb128 0x13
 2658 0067 01       		.byte	0x1
 2659 0068 0B       		.uleb128 0xb
 2660 0069 0B       		.uleb128 0xb
 2661 006a 3A       		.uleb128 0x3a
 2662 006b 0B       		.uleb128 0xb
 2663 006c 3B       		.uleb128 0x3b
 2664 006d 0B       		.uleb128 0xb
 2665 006e 01       		.uleb128 0x1
 2666 006f 13       		.uleb128 0x13
 2667 0070 00       		.byte	0
 2668 0071 00       		.byte	0
 2669 0072 09       		.uleb128 0x9
 2670 0073 0F       		.uleb128 0xf
ARM GAS  /tmp/ccvdAPFH.s 			page 48


 2671 0074 00       		.byte	0
 2672 0075 0B       		.uleb128 0xb
 2673 0076 0B       		.uleb128 0xb
 2674 0077 49       		.uleb128 0x49
 2675 0078 13       		.uleb128 0x13
 2676 0079 00       		.byte	0
 2677 007a 00       		.byte	0
 2678 007b 0A       		.uleb128 0xa
 2679 007c 0F       		.uleb128 0xf
 2680 007d 00       		.byte	0
 2681 007e 0B       		.uleb128 0xb
 2682 007f 0B       		.uleb128 0xb
 2683 0080 00       		.byte	0
 2684 0081 00       		.byte	0
 2685 0082 0B       		.uleb128 0xb
 2686 0083 13       		.uleb128 0x13
 2687 0084 01       		.byte	0x1
 2688 0085 03       		.uleb128 0x3
 2689 0086 0E       		.uleb128 0xe
 2690 0087 0B       		.uleb128 0xb
 2691 0088 0B       		.uleb128 0xb
 2692 0089 3A       		.uleb128 0x3a
 2693 008a 0B       		.uleb128 0xb
 2694 008b 3B       		.uleb128 0x3b
 2695 008c 05       		.uleb128 0x5
 2696 008d 01       		.uleb128 0x1
 2697 008e 13       		.uleb128 0x13
 2698 008f 00       		.byte	0
 2699 0090 00       		.byte	0
 2700 0091 0C       		.uleb128 0xc
 2701 0092 0D       		.uleb128 0xd
 2702 0093 00       		.byte	0
 2703 0094 03       		.uleb128 0x3
 2704 0095 08       		.uleb128 0x8
 2705 0096 3A       		.uleb128 0x3a
 2706 0097 0B       		.uleb128 0xb
 2707 0098 3B       		.uleb128 0x3b
 2708 0099 05       		.uleb128 0x5
 2709 009a 49       		.uleb128 0x49
 2710 009b 13       		.uleb128 0x13
 2711 009c 38       		.uleb128 0x38
 2712 009d 0A       		.uleb128 0xa
 2713 009e 00       		.byte	0
 2714 009f 00       		.byte	0
 2715 00a0 0D       		.uleb128 0xd
 2716 00a1 15       		.uleb128 0x15
 2717 00a2 01       		.byte	0x1
 2718 00a3 27       		.uleb128 0x27
 2719 00a4 0C       		.uleb128 0xc
 2720 00a5 01       		.uleb128 0x1
 2721 00a6 13       		.uleb128 0x13
 2722 00a7 00       		.byte	0
 2723 00a8 00       		.byte	0
 2724 00a9 0E       		.uleb128 0xe
 2725 00aa 05       		.uleb128 0x5
 2726 00ab 00       		.byte	0
 2727 00ac 49       		.uleb128 0x49
ARM GAS  /tmp/ccvdAPFH.s 			page 49


 2728 00ad 13       		.uleb128 0x13
 2729 00ae 00       		.byte	0
 2730 00af 00       		.byte	0
 2731 00b0 0F       		.uleb128 0xf
 2732 00b1 35       		.uleb128 0x35
 2733 00b2 00       		.byte	0
 2734 00b3 49       		.uleb128 0x49
 2735 00b4 13       		.uleb128 0x13
 2736 00b5 00       		.byte	0
 2737 00b6 00       		.byte	0
 2738 00b7 10       		.uleb128 0x10
 2739 00b8 17       		.uleb128 0x17
 2740 00b9 01       		.byte	0x1
 2741 00ba 0B       		.uleb128 0xb
 2742 00bb 0B       		.uleb128 0xb
 2743 00bc 3A       		.uleb128 0x3a
 2744 00bd 0B       		.uleb128 0xb
 2745 00be 3B       		.uleb128 0x3b
 2746 00bf 0B       		.uleb128 0xb
 2747 00c0 01       		.uleb128 0x1
 2748 00c1 13       		.uleb128 0x13
 2749 00c2 00       		.byte	0
 2750 00c3 00       		.byte	0
 2751 00c4 11       		.uleb128 0x11
 2752 00c5 0D       		.uleb128 0xd
 2753 00c6 00       		.byte	0
 2754 00c7 03       		.uleb128 0x3
 2755 00c8 0E       		.uleb128 0xe
 2756 00c9 3A       		.uleb128 0x3a
 2757 00ca 0B       		.uleb128 0xb
 2758 00cb 3B       		.uleb128 0x3b
 2759 00cc 0B       		.uleb128 0xb
 2760 00cd 49       		.uleb128 0x49
 2761 00ce 13       		.uleb128 0x13
 2762 00cf 00       		.byte	0
 2763 00d0 00       		.byte	0
 2764 00d1 12       		.uleb128 0x12
 2765 00d2 26       		.uleb128 0x26
 2766 00d3 00       		.byte	0
 2767 00d4 49       		.uleb128 0x49
 2768 00d5 13       		.uleb128 0x13
 2769 00d6 00       		.byte	0
 2770 00d7 00       		.byte	0
 2771 00d8 13       		.uleb128 0x13
 2772 00d9 15       		.uleb128 0x15
 2773 00da 01       		.byte	0x1
 2774 00db 27       		.uleb128 0x27
 2775 00dc 0C       		.uleb128 0xc
 2776 00dd 49       		.uleb128 0x49
 2777 00de 13       		.uleb128 0x13
 2778 00df 01       		.uleb128 0x1
 2779 00e0 13       		.uleb128 0x13
 2780 00e1 00       		.byte	0
 2781 00e2 00       		.byte	0
 2782 00e3 14       		.uleb128 0x14
 2783 00e4 0D       		.uleb128 0xd
 2784 00e5 00       		.byte	0
ARM GAS  /tmp/ccvdAPFH.s 			page 50


 2785 00e6 03       		.uleb128 0x3
 2786 00e7 0E       		.uleb128 0xe
 2787 00e8 3A       		.uleb128 0x3a
 2788 00e9 0B       		.uleb128 0xb
 2789 00ea 3B       		.uleb128 0x3b
 2790 00eb 05       		.uleb128 0x5
 2791 00ec 49       		.uleb128 0x49
 2792 00ed 13       		.uleb128 0x13
 2793 00ee 38       		.uleb128 0x38
 2794 00ef 0A       		.uleb128 0xa
 2795 00f0 00       		.byte	0
 2796 00f1 00       		.byte	0
 2797 00f2 15       		.uleb128 0x15
 2798 00f3 04       		.uleb128 0x4
 2799 00f4 01       		.byte	0x1
 2800 00f5 03       		.uleb128 0x3
 2801 00f6 0E       		.uleb128 0xe
 2802 00f7 0B       		.uleb128 0xb
 2803 00f8 0B       		.uleb128 0xb
 2804 00f9 3A       		.uleb128 0x3a
 2805 00fa 0B       		.uleb128 0xb
 2806 00fb 3B       		.uleb128 0x3b
 2807 00fc 0B       		.uleb128 0xb
 2808 00fd 01       		.uleb128 0x1
 2809 00fe 13       		.uleb128 0x13
 2810 00ff 00       		.byte	0
 2811 0100 00       		.byte	0
 2812 0101 16       		.uleb128 0x16
 2813 0102 28       		.uleb128 0x28
 2814 0103 00       		.byte	0
 2815 0104 03       		.uleb128 0x3
 2816 0105 0E       		.uleb128 0xe
 2817 0106 1C       		.uleb128 0x1c
 2818 0107 0D       		.uleb128 0xd
 2819 0108 00       		.byte	0
 2820 0109 00       		.byte	0
 2821 010a 17       		.uleb128 0x17
 2822 010b 04       		.uleb128 0x4
 2823 010c 01       		.byte	0x1
 2824 010d 0B       		.uleb128 0xb
 2825 010e 0B       		.uleb128 0xb
 2826 010f 3A       		.uleb128 0x3a
 2827 0110 0B       		.uleb128 0xb
 2828 0111 3B       		.uleb128 0x3b
 2829 0112 0B       		.uleb128 0xb
 2830 0113 01       		.uleb128 0x1
 2831 0114 13       		.uleb128 0x13
 2832 0115 00       		.byte	0
 2833 0116 00       		.byte	0
 2834 0117 18       		.uleb128 0x18
 2835 0118 2E       		.uleb128 0x2e
 2836 0119 01       		.byte	0x1
 2837 011a 03       		.uleb128 0x3
 2838 011b 0E       		.uleb128 0xe
 2839 011c 3A       		.uleb128 0x3a
 2840 011d 0B       		.uleb128 0xb
 2841 011e 3B       		.uleb128 0x3b
ARM GAS  /tmp/ccvdAPFH.s 			page 51


 2842 011f 0B       		.uleb128 0xb
 2843 0120 27       		.uleb128 0x27
 2844 0121 0C       		.uleb128 0xc
 2845 0122 11       		.uleb128 0x11
 2846 0123 01       		.uleb128 0x1
 2847 0124 12       		.uleb128 0x12
 2848 0125 01       		.uleb128 0x1
 2849 0126 40       		.uleb128 0x40
 2850 0127 06       		.uleb128 0x6
 2851 0128 01       		.uleb128 0x1
 2852 0129 13       		.uleb128 0x13
 2853 012a 00       		.byte	0
 2854 012b 00       		.byte	0
 2855 012c 19       		.uleb128 0x19
 2856 012d 05       		.uleb128 0x5
 2857 012e 00       		.byte	0
 2858 012f 03       		.uleb128 0x3
 2859 0130 08       		.uleb128 0x8
 2860 0131 3A       		.uleb128 0x3a
 2861 0132 0B       		.uleb128 0xb
 2862 0133 3B       		.uleb128 0x3b
 2863 0134 0B       		.uleb128 0xb
 2864 0135 49       		.uleb128 0x49
 2865 0136 13       		.uleb128 0x13
 2866 0137 02       		.uleb128 0x2
 2867 0138 0A       		.uleb128 0xa
 2868 0139 00       		.byte	0
 2869 013a 00       		.byte	0
 2870 013b 1A       		.uleb128 0x1a
 2871 013c 2E       		.uleb128 0x2e
 2872 013d 00       		.byte	0
 2873 013e 3F       		.uleb128 0x3f
 2874 013f 0C       		.uleb128 0xc
 2875 0140 03       		.uleb128 0x3
 2876 0141 0E       		.uleb128 0xe
 2877 0142 3A       		.uleb128 0x3a
 2878 0143 0B       		.uleb128 0xb
 2879 0144 3B       		.uleb128 0x3b
 2880 0145 0B       		.uleb128 0xb
 2881 0146 27       		.uleb128 0x27
 2882 0147 0C       		.uleb128 0xc
 2883 0148 11       		.uleb128 0x11
 2884 0149 01       		.uleb128 0x1
 2885 014a 12       		.uleb128 0x12
 2886 014b 01       		.uleb128 0x1
 2887 014c 40       		.uleb128 0x40
 2888 014d 06       		.uleb128 0x6
 2889 014e 00       		.byte	0
 2890 014f 00       		.byte	0
 2891 0150 1B       		.uleb128 0x1b
 2892 0151 2E       		.uleb128 0x2e
 2893 0152 01       		.byte	0x1
 2894 0153 3F       		.uleb128 0x3f
 2895 0154 0C       		.uleb128 0xc
 2896 0155 03       		.uleb128 0x3
 2897 0156 0E       		.uleb128 0xe
 2898 0157 3A       		.uleb128 0x3a
ARM GAS  /tmp/ccvdAPFH.s 			page 52


 2899 0158 0B       		.uleb128 0xb
 2900 0159 3B       		.uleb128 0x3b
 2901 015a 05       		.uleb128 0x5
 2902 015b 27       		.uleb128 0x27
 2903 015c 0C       		.uleb128 0xc
 2904 015d 11       		.uleb128 0x11
 2905 015e 01       		.uleb128 0x1
 2906 015f 12       		.uleb128 0x12
 2907 0160 01       		.uleb128 0x1
 2908 0161 40       		.uleb128 0x40
 2909 0162 06       		.uleb128 0x6
 2910 0163 01       		.uleb128 0x1
 2911 0164 13       		.uleb128 0x13
 2912 0165 00       		.byte	0
 2913 0166 00       		.byte	0
 2914 0167 1C       		.uleb128 0x1c
 2915 0168 05       		.uleb128 0x5
 2916 0169 00       		.byte	0
 2917 016a 03       		.uleb128 0x3
 2918 016b 0E       		.uleb128 0xe
 2919 016c 3A       		.uleb128 0x3a
 2920 016d 0B       		.uleb128 0xb
 2921 016e 3B       		.uleb128 0x3b
 2922 016f 05       		.uleb128 0x5
 2923 0170 49       		.uleb128 0x49
 2924 0171 13       		.uleb128 0x13
 2925 0172 02       		.uleb128 0x2
 2926 0173 0A       		.uleb128 0xa
 2927 0174 00       		.byte	0
 2928 0175 00       		.byte	0
 2929 0176 1D       		.uleb128 0x1d
 2930 0177 05       		.uleb128 0x5
 2931 0178 00       		.byte	0
 2932 0179 03       		.uleb128 0x3
 2933 017a 08       		.uleb128 0x8
 2934 017b 3A       		.uleb128 0x3a
 2935 017c 0B       		.uleb128 0xb
 2936 017d 3B       		.uleb128 0x3b
 2937 017e 05       		.uleb128 0x5
 2938 017f 49       		.uleb128 0x49
 2939 0180 13       		.uleb128 0x13
 2940 0181 02       		.uleb128 0x2
 2941 0182 0A       		.uleb128 0xa
 2942 0183 00       		.byte	0
 2943 0184 00       		.byte	0
 2944 0185 1E       		.uleb128 0x1e
 2945 0186 34       		.uleb128 0x34
 2946 0187 00       		.byte	0
 2947 0188 03       		.uleb128 0x3
 2948 0189 0E       		.uleb128 0xe
 2949 018a 3A       		.uleb128 0x3a
 2950 018b 0B       		.uleb128 0xb
 2951 018c 3B       		.uleb128 0x3b
 2952 018d 05       		.uleb128 0x5
 2953 018e 49       		.uleb128 0x49
 2954 018f 13       		.uleb128 0x13
 2955 0190 02       		.uleb128 0x2
ARM GAS  /tmp/ccvdAPFH.s 			page 53


 2956 0191 0A       		.uleb128 0xa
 2957 0192 00       		.byte	0
 2958 0193 00       		.byte	0
 2959 0194 1F       		.uleb128 0x1f
 2960 0195 34       		.uleb128 0x34
 2961 0196 00       		.byte	0
 2962 0197 03       		.uleb128 0x3
 2963 0198 08       		.uleb128 0x8
 2964 0199 3A       		.uleb128 0x3a
 2965 019a 0B       		.uleb128 0xb
 2966 019b 3B       		.uleb128 0x3b
 2967 019c 05       		.uleb128 0x5
 2968 019d 49       		.uleb128 0x49
 2969 019e 13       		.uleb128 0x13
 2970 019f 02       		.uleb128 0x2
 2971 01a0 0A       		.uleb128 0xa
 2972 01a1 00       		.byte	0
 2973 01a2 00       		.byte	0
 2974 01a3 20       		.uleb128 0x20
 2975 01a4 0A       		.uleb128 0xa
 2976 01a5 00       		.byte	0
 2977 01a6 03       		.uleb128 0x3
 2978 01a7 0E       		.uleb128 0xe
 2979 01a8 3A       		.uleb128 0x3a
 2980 01a9 0B       		.uleb128 0xb
 2981 01aa 3B       		.uleb128 0x3b
 2982 01ab 05       		.uleb128 0x5
 2983 01ac 11       		.uleb128 0x11
 2984 01ad 01       		.uleb128 0x1
 2985 01ae 00       		.byte	0
 2986 01af 00       		.byte	0
 2987 01b0 21       		.uleb128 0x21
 2988 01b1 34       		.uleb128 0x34
 2989 01b2 00       		.byte	0
 2990 01b3 03       		.uleb128 0x3
 2991 01b4 0E       		.uleb128 0xe
 2992 01b5 3A       		.uleb128 0x3a
 2993 01b6 0B       		.uleb128 0xb
 2994 01b7 3B       		.uleb128 0x3b
 2995 01b8 05       		.uleb128 0x5
 2996 01b9 49       		.uleb128 0x49
 2997 01ba 13       		.uleb128 0x13
 2998 01bb 3F       		.uleb128 0x3f
 2999 01bc 0C       		.uleb128 0xc
 3000 01bd 3C       		.uleb128 0x3c
 3001 01be 0C       		.uleb128 0xc
 3002 01bf 00       		.byte	0
 3003 01c0 00       		.byte	0
 3004 01c1 22       		.uleb128 0x22
 3005 01c2 34       		.uleb128 0x34
 3006 01c3 00       		.byte	0
 3007 01c4 03       		.uleb128 0x3
 3008 01c5 0E       		.uleb128 0xe
 3009 01c6 3A       		.uleb128 0x3a
 3010 01c7 0B       		.uleb128 0xb
 3011 01c8 3B       		.uleb128 0x3b
 3012 01c9 0B       		.uleb128 0xb
ARM GAS  /tmp/ccvdAPFH.s 			page 54


 3013 01ca 49       		.uleb128 0x49
 3014 01cb 13       		.uleb128 0x13
 3015 01cc 02       		.uleb128 0x2
 3016 01cd 0A       		.uleb128 0xa
 3017 01ce 00       		.byte	0
 3018 01cf 00       		.byte	0
 3019 01d0 00       		.byte	0
 3020              		.section	.debug_loc,"",%progbits
 3021              	.Ldebug_loc0:
 3022              	.LLST0:
 3023 0000 00000000 		.4byte	.LFB7
 3024 0004 02000000 		.4byte	.LCFI0
 3025 0008 0200     		.2byte	0x2
 3026 000a 7D       		.byte	0x7d
 3027 000b 00       		.sleb128 0
 3028 000c 02000000 		.4byte	.LCFI0
 3029 0010 04000000 		.4byte	.LCFI1
 3030 0014 0200     		.2byte	0x2
 3031 0016 7D       		.byte	0x7d
 3032 0017 04       		.sleb128 4
 3033 0018 04000000 		.4byte	.LCFI1
 3034 001c 4E000000 		.4byte	.LFE7
 3035 0020 0200     		.2byte	0x2
 3036 0022 7D       		.byte	0x7d
 3037 0023 10       		.sleb128 16
 3038 0024 00000000 		.4byte	0
 3039 0028 00000000 		.4byte	0
 3040              	.LLST1:
 3041 002c 00000000 		.4byte	.LFB8
 3042 0030 02000000 		.4byte	.LCFI2
 3043 0034 0200     		.2byte	0x2
 3044 0036 7D       		.byte	0x7d
 3045 0037 00       		.sleb128 0
 3046 0038 02000000 		.4byte	.LCFI2
 3047 003c 50000000 		.4byte	.LFE8
 3048 0040 0200     		.2byte	0x2
 3049 0042 7D       		.byte	0x7d
 3050 0043 08       		.sleb128 8
 3051 0044 00000000 		.4byte	0
 3052 0048 00000000 		.4byte	0
 3053              	.LLST2:
 3054 004c 00000000 		.4byte	.LFB9
 3055 0050 02000000 		.4byte	.LCFI3
 3056 0054 0200     		.2byte	0x2
 3057 0056 7D       		.byte	0x7d
 3058 0057 00       		.sleb128 0
 3059 0058 02000000 		.4byte	.LCFI3
 3060 005c 04000000 		.4byte	.LCFI4
 3061 0060 0200     		.2byte	0x2
 3062 0062 7D       		.byte	0x7d
 3063 0063 04       		.sleb128 4
 3064 0064 04000000 		.4byte	.LCFI4
 3065 0068 22000000 		.4byte	.LFE9
 3066 006c 0200     		.2byte	0x2
 3067 006e 7D       		.byte	0x7d
 3068 006f 10       		.sleb128 16
 3069 0070 00000000 		.4byte	0
ARM GAS  /tmp/ccvdAPFH.s 			page 55


 3070 0074 00000000 		.4byte	0
 3071              	.LLST3:
 3072 0078 00000000 		.4byte	.LFB10
 3073 007c 02000000 		.4byte	.LCFI5
 3074 0080 0200     		.2byte	0x2
 3075 0082 7D       		.byte	0x7d
 3076 0083 00       		.sleb128 0
 3077 0084 02000000 		.4byte	.LCFI5
 3078 0088 04000000 		.4byte	.LCFI6
 3079 008c 0200     		.2byte	0x2
 3080 008e 7D       		.byte	0x7d
 3081 008f 04       		.sleb128 4
 3082 0090 04000000 		.4byte	.LCFI6
 3083 0094 22000000 		.4byte	.LFE10
 3084 0098 0200     		.2byte	0x2
 3085 009a 7D       		.byte	0x7d
 3086 009b 10       		.sleb128 16
 3087 009c 00000000 		.4byte	0
 3088 00a0 00000000 		.4byte	0
 3089              	.LLST4:
 3090 00a4 00000000 		.4byte	.LFB11
 3091 00a8 02000000 		.4byte	.LCFI7
 3092 00ac 0200     		.2byte	0x2
 3093 00ae 7D       		.byte	0x7d
 3094 00af 00       		.sleb128 0
 3095 00b0 02000000 		.4byte	.LCFI7
 3096 00b4 2C000000 		.4byte	.LFE11
 3097 00b8 0200     		.2byte	0x2
 3098 00ba 7D       		.byte	0x7d
 3099 00bb 08       		.sleb128 8
 3100 00bc 00000000 		.4byte	0
 3101 00c0 00000000 		.4byte	0
 3102              	.LLST5:
 3103 00c4 00000000 		.4byte	.LFB12
 3104 00c8 02000000 		.4byte	.LCFI8
 3105 00cc 0200     		.2byte	0x2
 3106 00ce 7D       		.byte	0x7d
 3107 00cf 00       		.sleb128 0
 3108 00d0 02000000 		.4byte	.LCFI8
 3109 00d4 04000000 		.4byte	.LCFI9
 3110 00d8 0200     		.2byte	0x2
 3111 00da 7D       		.byte	0x7d
 3112 00db 04       		.sleb128 4
 3113 00dc 04000000 		.4byte	.LCFI9
 3114 00e0 18010000 		.4byte	.LFE12
 3115 00e4 0200     		.2byte	0x2
 3116 00e6 7D       		.byte	0x7d
 3117 00e7 20       		.sleb128 32
 3118 00e8 00000000 		.4byte	0
 3119 00ec 00000000 		.4byte	0
 3120              	.LLST6:
 3121 00f0 00000000 		.4byte	.LFB13
 3122 00f4 02000000 		.4byte	.LCFI10
 3123 00f8 0200     		.2byte	0x2
 3124 00fa 7D       		.byte	0x7d
 3125 00fb 00       		.sleb128 0
 3126 00fc 02000000 		.4byte	.LCFI10
ARM GAS  /tmp/ccvdAPFH.s 			page 56


 3127 0100 04000000 		.4byte	.LCFI11
 3128 0104 0200     		.2byte	0x2
 3129 0106 7D       		.byte	0x7d
 3130 0107 04       		.sleb128 4
 3131 0108 04000000 		.4byte	.LCFI11
 3132 010c 9A000000 		.4byte	.LFE13
 3133 0110 0200     		.2byte	0x2
 3134 0112 7D       		.byte	0x7d
 3135 0113 18       		.sleb128 24
 3136 0114 00000000 		.4byte	0
 3137 0118 00000000 		.4byte	0
 3138              	.LLST7:
 3139 011c 00000000 		.4byte	.LFB14
 3140 0120 02000000 		.4byte	.LCFI12
 3141 0124 0200     		.2byte	0x2
 3142 0126 7D       		.byte	0x7d
 3143 0127 00       		.sleb128 0
 3144 0128 02000000 		.4byte	.LCFI12
 3145 012c 04000000 		.4byte	.LCFI13
 3146 0130 0200     		.2byte	0x2
 3147 0132 7D       		.byte	0x7d
 3148 0133 04       		.sleb128 4
 3149 0134 04000000 		.4byte	.LCFI13
 3150 0138 E8000000 		.4byte	.LFE14
 3151 013c 0200     		.2byte	0x2
 3152 013e 7D       		.byte	0x7d
 3153 013f 20       		.sleb128 32
 3154 0140 00000000 		.4byte	0
 3155 0144 00000000 		.4byte	0
 3156              		.section	.debug_aranges,"",%progbits
 3157 0000 54000000 		.4byte	0x54
 3158 0004 0200     		.2byte	0x2
 3159 0006 00000000 		.4byte	.Ldebug_info0
 3160 000a 04       		.byte	0x4
 3161 000b 00       		.byte	0
 3162 000c 0000     		.2byte	0
 3163 000e 0000     		.2byte	0
 3164 0010 00000000 		.4byte	.LFB7
 3165 0014 4E000000 		.4byte	.LFE7-.LFB7
 3166 0018 00000000 		.4byte	.LFB8
 3167 001c 50000000 		.4byte	.LFE8-.LFB8
 3168 0020 00000000 		.4byte	.LFB9
 3169 0024 22000000 		.4byte	.LFE9-.LFB9
 3170 0028 00000000 		.4byte	.LFB10
 3171 002c 22000000 		.4byte	.LFE10-.LFB10
 3172 0030 00000000 		.4byte	.LFB11
 3173 0034 2C000000 		.4byte	.LFE11-.LFB11
 3174 0038 00000000 		.4byte	.LFB12
 3175 003c 18010000 		.4byte	.LFE12-.LFB12
 3176 0040 00000000 		.4byte	.LFB13
 3177 0044 9A000000 		.4byte	.LFE13-.LFB13
 3178 0048 00000000 		.4byte	.LFB14
 3179 004c E8000000 		.4byte	.LFE14-.LFB14
 3180 0050 00000000 		.4byte	0
 3181 0054 00000000 		.4byte	0
 3182              		.section	.debug_ranges,"",%progbits
 3183              	.Ldebug_ranges0:
ARM GAS  /tmp/ccvdAPFH.s 			page 57


 3184 0000 00000000 		.4byte	.LFB7
 3185 0004 4E000000 		.4byte	.LFE7
 3186 0008 00000000 		.4byte	.LFB8
 3187 000c 50000000 		.4byte	.LFE8
 3188 0010 00000000 		.4byte	.LFB9
 3189 0014 22000000 		.4byte	.LFE9
 3190 0018 00000000 		.4byte	.LFB10
 3191 001c 22000000 		.4byte	.LFE10
 3192 0020 00000000 		.4byte	.LFB11
 3193 0024 2C000000 		.4byte	.LFE11
 3194 0028 00000000 		.4byte	.LFB12
 3195 002c 18010000 		.4byte	.LFE12
 3196 0030 00000000 		.4byte	.LFB13
 3197 0034 9A000000 		.4byte	.LFE13
 3198 0038 00000000 		.4byte	.LFB14
 3199 003c E8000000 		.4byte	.LFE14
 3200 0040 00000000 		.4byte	0
 3201 0044 00000000 		.4byte	0
 3202              		.section	.debug_line,"",%progbits
 3203              	.Ldebug_line0:
 3204 0000 3F030000 		.section	.debug_str,"MS",%progbits,1
 3204      02002302 
 3204      00000201 
 3204      FB0E0D00 
 3204      01010101 
 3205              	.LASF187:
 3206 0000 70726576 		.ascii	"prev_t\000"
 3206      5F7400
 3207              	.LASF191:
 3208 0007 746D7074 		.ascii	"tmptimeout\000"
 3208      696D656F 
 3208      757400
 3209              	.LASF47:
 3210 0012 54687265 		.ascii	"ThreadsList\000"
 3210      6164734C 
 3210      69737400 
 3211              	.LASF39:
 3212 001e 705F7761 		.ascii	"p_waiting\000"
 3212      6974696E 
 3212      6700
 3213              	.LASF165:
 3214 0028 4D454D50 		.ascii	"MEMP_TCP_PCB_LISTEN\000"
 3214      5F544350 
 3214      5F504342 
 3214      5F4C4953 
 3214      54454E00 
 3215              	.LASF38:
 3216 003c 705F7469 		.ascii	"p_time\000"
 3216      6D6500
 3217              	.LASF94:
 3218 0043 736F5F6F 		.ascii	"so_options\000"
 3218      7074696F 
 3218      6E7300
 3219              	.LASF48:
 3220 004e 72656761 		.ascii	"regarm_t\000"
 3220      726D5F74 
 3220      00
ARM GAS  /tmp/ccvdAPFH.s 			page 58


 3221              	.LASF28:
 3222 0057 705F7072 		.ascii	"p_prio\000"
 3222      696F00
 3223              	.LASF200:
 3224 005e 61676169 		.ascii	"again\000"
 3224      6E00
 3225              	.LASF78:
 3226 0064 7379735F 		.ascii	"sys_timeout_handler\000"
 3226      74696D65 
 3226      6F75745F 
 3226      68616E64 
 3226      6C657200 
 3227              	.LASF161:
 3228 0078 75726770 		.ascii	"urgp\000"
 3228      00
 3229              	.LASF105:
 3230 007d 706F6C6C 		.ascii	"polltmr\000"
 3230      746D7200 
 3231              	.LASF90:
 3232 0085 7463705F 		.ascii	"tcp_accept_fn\000"
 3232      61636365 
 3232      70745F66 
 3232      6E00
 3233              	.LASF86:
 3234 0093 666C6167 		.ascii	"flags\000"
 3234      7300
 3235              	.LASF23:
 3236 0099 73797374 		.ascii	"systime_t\000"
 3236      696D655F 
 3236      7400
 3237              	.LASF57:
 3238 00a3 6D5F6F77 		.ascii	"m_owner\000"
 3238      6E657200 
 3239              	.LASF53:
 3240 00ab 735F7175 		.ascii	"s_queue\000"
 3240      65756500 
 3241              	.LASF40:
 3242 00b3 705F6D73 		.ascii	"p_msgqueue\000"
 3242      67717565 
 3242      756500
 3243              	.LASF0:
 3244 00be 756E7369 		.ascii	"unsigned int\000"
 3244      676E6564 
 3244      20696E74 
 3244      00
 3245              	.LASF141:
 3246 00cb 7463705F 		.ascii	"tcp_connected_fn\000"
 3246      636F6E6E 
 3246      65637465 
 3246      645F666E 
 3246      00
 3247              	.LASF80:
 3248 00dc 6E657874 		.ascii	"next\000"
 3248      00
 3249              	.LASF186:
 3250 00e1 7379735F 		.ascii	"sys_untimeout\000"
 3250      756E7469 
ARM GAS  /tmp/ccvdAPFH.s 			page 59


 3250      6D656F75 
 3250      7400
 3251              	.LASF76:
 3252 00ef 6572725F 		.ascii	"err_t\000"
 3252      7400
 3253              	.LASF195:
 3254 00f5 74637069 		.ascii	"tcpip_tcp_timer_active\000"
 3254      705F7463 
 3254      705F7469 
 3254      6D65725F 
 3254      61637469 
 3255              	.LASF73:
 3256 010c 7531365F 		.ascii	"u16_t\000"
 3256      7400
 3257              	.LASF190:
 3258 0112 74696D65 		.ascii	"time_needed\000"
 3258      5F6E6565 
 3258      64656400 
 3259              	.LASF68:
 3260 011e 77746F62 		.ascii	"wtobjp\000"
 3260      6A7000
 3261              	.LASF183:
 3262 0125 68616E64 		.ascii	"handler\000"
 3262      6C657200 
 3263              	.LASF104:
 3264 012d 7263765F 		.ascii	"rcv_ann_right_edge\000"
 3264      616E6E5F 
 3264      72696768 
 3264      745F6564 
 3264      676500
 3265              	.LASF69:
 3266 0140 65776D61 		.ascii	"ewmask\000"
 3266      736B00
 3267              	.LASF136:
 3268 0147 6B656570 		.ascii	"keep_cnt_sent\000"
 3268      5F636E74 
 3268      5F73656E 
 3268      7400
 3269              	.LASF65:
 3270 0155 4D61696C 		.ascii	"Mailbox\000"
 3270      626F7800 
 3271              	.LASF138:
 3272 015d 7463705F 		.ascii	"tcp_sent_fn\000"
 3272      73656E74 
 3272      5F666E00 
 3273              	.LASF54:
 3274 0169 735F636E 		.ascii	"s_cnt\000"
 3274      7400
 3275              	.LASF157:
 3276 016f 7365716E 		.ascii	"seqno\000"
 3276      6F00
 3277              	.LASF11:
 3278 0175 75696E74 		.ascii	"uint32_t\000"
 3278      33325F74 
 3278      00
 3279              	.LASF2:
 3280 017e 696E7438 		.ascii	"int8_t\000"
ARM GAS  /tmp/ccvdAPFH.s 			page 60


 3280      5F7400
 3281              	.LASF113:
 3282 0185 63776E64 		.ascii	"cwnd\000"
 3282      00
 3283              	.LASF22:
 3284 018a 6576656E 		.ascii	"eventmask_t\000"
 3284      746D6173 
 3284      6B5F7400 
 3285              	.LASF171:
 3286 0196 4D454D50 		.ascii	"MEMP_TCPIP_MSG_API\000"
 3286      5F544350 
 3286      49505F4D 
 3286      53475F41 
 3286      504900
 3287              	.LASF99:
 3288 01a9 6C6F6361 		.ascii	"local_port\000"
 3288      6C5F706F 
 3288      727400
 3289              	.LASF20:
 3290 01b4 74707269 		.ascii	"tprio_t\000"
 3290      6F5F7400 
 3291              	.LASF5:
 3292 01bc 696E7431 		.ascii	"int16_t\000"
 3292      365F7400 
 3293              	.LASF153:
 3294 01c4 7463705F 		.ascii	"tcp_seg\000"
 3294      73656700 
 3295              	.LASF15:
 3296 01cc 6C6F6E67 		.ascii	"long long unsigned int\000"
 3296      206C6F6E 
 3296      6720756E 
 3296      7369676E 
 3296      65642069 
 3297              	.LASF198:
 3298 01e3 2F686F6D 		.ascii	"/home/texzk/ChibiStudio/chibios/demos/ARMCM3-STM32F"
 3298      652F7465 
 3298      787A6B2F 
 3298      43686962 
 3298      69537475 
 3299 0216 3230372D 		.ascii	"207-STM3220G-LWIP\000"
 3299      53544D33 
 3299      32323047 
 3299      2D4C5749 
 3299      5000
 3300              	.LASF24:
 3301 0228 636E745F 		.ascii	"cnt_t\000"
 3301      7400
 3302              	.LASF107:
 3303 022e 7274696D 		.ascii	"rtime\000"
 3303      6500
 3304              	.LASF81:
 3305 0234 74696D65 		.ascii	"time\000"
 3305      00
 3306              	.LASF30:
 3307 0239 705F6E65 		.ascii	"p_newer\000"
 3307      77657200 
 3308              	.LASF101:
ARM GAS  /tmp/ccvdAPFH.s 			page 61


 3309 0241 7263765F 		.ascii	"rcv_nxt\000"
 3309      6E787400 
 3310              	.LASF172:
 3311 0249 4D454D50 		.ascii	"MEMP_TCPIP_MSG_INPKT\000"
 3311      5F544350 
 3311      49505F4D 
 3311      53475F49 
 3311      4E504B54 
 3312              	.LASF125:
 3313 025e 756E6163 		.ascii	"unacked\000"
 3313      6B656400 
 3314              	.LASF188:
 3315 0266 7379735F 		.ascii	"sys_timeouts_mbox_fetch\000"
 3315      74696D65 
 3315      6F757473 
 3315      5F6D626F 
 3315      785F6665 
 3316              	.LASF151:
 3317 027e 4C415354 		.ascii	"LAST_ACK\000"
 3317      5F41434B 
 3317      00
 3318              	.LASF84:
 3319 0287 746F745F 		.ascii	"tot_len\000"
 3319      6C656E00 
 3320              	.LASF66:
 3321 028f 7264796D 		.ascii	"rdymsg\000"
 3321      736700
 3322              	.LASF83:
 3323 0296 7061796C 		.ascii	"payload\000"
 3323      6F616400 
 3324              	.LASF179:
 3325 029e 6172705F 		.ascii	"arp_timer\000"
 3325      74696D65 
 3325      7200
 3326              	.LASF130:
 3327 02a8 636F6E6E 		.ascii	"connected\000"
 3327      65637465 
 3327      6400
 3328              	.LASF82:
 3329 02b2 70627566 		.ascii	"pbuf\000"
 3329      00
 3330              	.LASF62:
 3331 02b7 6D625F72 		.ascii	"mb_rdptr\000"
 3331      64707472 
 3331      00
 3332              	.LASF150:
 3333 02c0 434C4F53 		.ascii	"CLOSING\000"
 3333      494E4700 
 3334              	.LASF197:
 3335 02c8 2E2E2F2E 		.ascii	"../../ext/lwip/src/core/timers.c\000"
 3335      2E2F6578 
 3335      742F6C77 
 3335      69702F73 
 3335      72632F63 
 3336              	.LASF111:
 3337 02e9 6C617374 		.ascii	"lastack\000"
 3337      61636B00 
ARM GAS  /tmp/ccvdAPFH.s 			page 62


 3338              	.LASF176:
 3339 02f1 4D454D50 		.ascii	"MEMP_MAX\000"
 3339      5F4D4158 
 3339      00
 3340              	.LASF72:
 3341 02fa 73385F74 		.ascii	"s8_t\000"
 3341      00
 3342              	.LASF55:
 3343 02ff 4D757465 		.ascii	"Mutex\000"
 3343      7800
 3344              	.LASF64:
 3345 0305 6D625F65 		.ascii	"mb_emptysem\000"
 3345      6D707479 
 3345      73656D00 
 3346              	.LASF170:
 3347 0311 4D454D50 		.ascii	"MEMP_NETCONN\000"
 3347      5F4E4554 
 3347      434F4E4E 
 3347      00
 3348              	.LASF109:
 3349 031e 72747365 		.ascii	"rtseq\000"
 3349      7100
 3350              	.LASF32:
 3351 0324 705F6E61 		.ascii	"p_name\000"
 3351      6D6500
 3352              	.LASF112:
 3353 032b 64757061 		.ascii	"dupacks\000"
 3353      636B7300 
 3354              	.LASF96:
 3355 0333 7072696F 		.ascii	"prio\000"
 3355      00
 3356              	.LASF98:
 3357 0338 61636365 		.ascii	"accept\000"
 3357      707400
 3358              	.LASF174:
 3359 033f 4D454D50 		.ascii	"MEMP_PBUF\000"
 3359      5F504255 
 3359      4600
 3360              	.LASF131:
 3361 0349 706F6C6C 		.ascii	"poll\000"
 3361      00
 3362              	.LASF46:
 3363 034e 54687265 		.ascii	"ThreadsQueue\000"
 3363      61647351 
 3363      75657565 
 3363      00
 3364              	.LASF70:
 3365 035b 63686172 		.ascii	"char\000"
 3365      00
 3366              	.LASF185:
 3367 0360 7379735F 		.ascii	"sys_timeout\000"
 3367      74696D65 
 3367      6F757400 
 3368              	.LASF120:
 3369 036c 61636B65 		.ascii	"acked\000"
 3369      6400
 3370              	.LASF149:
ARM GAS  /tmp/ccvdAPFH.s 			page 63


 3371 0372 434C4F53 		.ascii	"CLOSE_WAIT\000"
 3371      455F5741 
 3371      495400
 3372              	.LASF25:
 3373 037d 54687265 		.ascii	"Thread\000"
 3373      616400
 3374              	.LASF196:
 3375 0384 474E5520 		.ascii	"GNU C 4.6.2 20120613 (release) [ARM/embedded-4_6-br"
 3375      4320342E 
 3375      362E3220 
 3375      32303132 
 3375      30363133 
 3376 03b7 616E6368 		.ascii	"anch revision 188521]\000"
 3376      20726576 
 3376      6973696F 
 3376      6E203138 
 3376      38353231 
 3377              	.LASF17:
 3378 03cd 74737461 		.ascii	"tstate_t\000"
 3378      74655F74 
 3378      00
 3379              	.LASF31:
 3380 03d6 705F6F6C 		.ascii	"p_older\000"
 3380      64657200 
 3381              	.LASF34:
 3382 03de 705F7374 		.ascii	"p_state\000"
 3382      61746500 
 3383              	.LASF33:
 3384 03e6 705F7374 		.ascii	"p_stklimit\000"
 3384      6B6C696D 
 3384      697400
 3385              	.LASF128:
 3386 03f1 73656E74 		.ascii	"sent\000"
 3386      00
 3387              	.LASF3:
 3388 03f6 75696E74 		.ascii	"uint8_t\000"
 3388      385F7400 
 3389              	.LASF63:
 3390 03fe 6D625F66 		.ascii	"mb_fullsem\000"
 3390      756C6C73 
 3390      656D00
 3391              	.LASF117:
 3392 0409 736E645F 		.ascii	"snd_wl1\000"
 3392      776C3100 
 3393              	.LASF118:
 3394 0411 736E645F 		.ascii	"snd_wl2\000"
 3394      776C3200 
 3395              	.LASF45:
 3396 0419 705F6D70 		.ascii	"p_mpool\000"
 3396      6F6F6C00 
 3397              	.LASF43:
 3398 0421 705F6D74 		.ascii	"p_mtxlist\000"
 3398      786C6973 
 3398      7400
 3399              	.LASF140:
 3400 042b 7463705F 		.ascii	"tcp_err_fn\000"
 3400      6572725F 
ARM GAS  /tmp/ccvdAPFH.s 			page 64


 3400      666E00
 3401              	.LASF119:
 3402 0436 736E645F 		.ascii	"snd_lbb\000"
 3402      6C626200 
 3403              	.LASF169:
 3404 043e 4D454D50 		.ascii	"MEMP_NETBUF\000"
 3404      5F4E4554 
 3404      42554600 
 3405              	.LASF13:
 3406 044a 6C6F6E67 		.ascii	"long long int\000"
 3406      206C6F6E 
 3406      6720696E 
 3406      7400
 3407              	.LASF158:
 3408 0458 61636B6E 		.ascii	"ackno\000"
 3408      6F00
 3409              	.LASF135:
 3410 045e 70657273 		.ascii	"persist_backoff\000"
 3410      6973745F 
 3410      6261636B 
 3410      6F666600 
 3411              	.LASF21:
 3412 046e 6D73675F 		.ascii	"msg_t\000"
 3412      7400
 3413              	.LASF152:
 3414 0474 54494D45 		.ascii	"TIME_WAIT\000"
 3414      5F574149 
 3414      5400
 3415              	.LASF51:
 3416 047e 636F6E74 		.ascii	"context\000"
 3416      65787400 
 3417              	.LASF71:
 3418 0486 75385F74 		.ascii	"u8_t\000"
 3418      00
 3419              	.LASF35:
 3420 048b 705F666C 		.ascii	"p_flags\000"
 3420      61677300 
 3421              	.LASF180:
 3422 0493 7463705F 		.ascii	"tcp_timer_needed\000"
 3422      74696D65 
 3422      725F6E65 
 3422      65646564 
 3422      00
 3423              	.LASF100:
 3424 04a4 72656D6F 		.ascii	"remote_port\000"
 3424      74655F70 
 3424      6F727400 
 3425              	.LASF60:
 3426 04b0 6D625F74 		.ascii	"mb_top\000"
 3426      6F7000
 3427              	.LASF103:
 3428 04b7 7263765F 		.ascii	"rcv_ann_wnd\000"
 3428      616E6E5F 
 3428      776E6400 
 3429              	.LASF19:
 3430 04c3 74736C69 		.ascii	"tslices_t\000"
 3430      6365735F 
ARM GAS  /tmp/ccvdAPFH.s 			page 65


 3430      7400
 3431              	.LASF167:
 3432 04cd 4D454D50 		.ascii	"MEMP_REASSDATA\000"
 3432      5F524541 
 3432      53534441 
 3432      544100
 3433              	.LASF175:
 3434 04dc 4D454D50 		.ascii	"MEMP_PBUF_POOL\000"
 3434      5F504255 
 3434      465F504F 
 3434      4F4C00
 3435              	.LASF137:
 3436 04eb 7463705F 		.ascii	"tcp_recv_fn\000"
 3436      72656376 
 3436      5F666E00 
 3437              	.LASF41:
 3438 04f7 705F6D73 		.ascii	"p_msg\000"
 3438      6700
 3439              	.LASF16:
 3440 04fd 746D6F64 		.ascii	"tmode_t\000"
 3440      655F7400 
 3441              	.LASF139:
 3442 0505 7463705F 		.ascii	"tcp_poll_fn\000"
 3442      706F6C6C 
 3442      5F666E00 
 3443              	.LASF7:
 3444 0511 75696E74 		.ascii	"uint16_t\000"
 3444      31365F74 
 3444      00
 3445              	.LASF132:
 3446 051a 65727266 		.ascii	"errf\000"
 3446      00
 3447              	.LASF50:
 3448 051f 696E7463 		.ascii	"intctx\000"
 3448      747800
 3449              	.LASF116:
 3450 0526 736E645F 		.ascii	"snd_wnd\000"
 3450      776E6400 
 3451              	.LASF184:
 3452 052e 74696D65 		.ascii	"timeout\000"
 3452      6F757400 
 3453              	.LASF126:
 3454 0536 6F6F7365 		.ascii	"ooseq\000"
 3454      7100
 3455              	.LASF44:
 3456 053c 705F7265 		.ascii	"p_realprio\000"
 3456      616C7072 
 3456      696F00
 3457              	.LASF142:
 3458 0547 434C4F53 		.ascii	"CLOSED\000"
 3458      454400
 3459              	.LASF75:
 3460 054e 7533325F 		.ascii	"u32_t\000"
 3460      7400
 3461              	.LASF6:
 3462 0554 73686F72 		.ascii	"short int\000"
 3462      7420696E 
ARM GAS  /tmp/ccvdAPFH.s 			page 66


 3462      7400
 3463              	.LASF61:
 3464 055e 6D625F77 		.ascii	"mb_wrptr\000"
 3464      72707472 
 3464      00
 3465              	.LASF42:
 3466 0567 705F6570 		.ascii	"p_epending\000"
 3466      656E6469 
 3466      6E6700
 3467              	.LASF56:
 3468 0572 6D5F7175 		.ascii	"m_queue\000"
 3468      65756500 
 3469              	.LASF10:
 3470 057a 6C6F6E67 		.ascii	"long int\000"
 3470      20696E74 
 3470      00
 3471              	.LASF124:
 3472 0583 756E7365 		.ascii	"unsent\000"
 3472      6E7400
 3473              	.LASF102:
 3474 058a 7263765F 		.ascii	"rcv_wnd\000"
 3474      776E6400 
 3475              	.LASF108:
 3476 0592 72747465 		.ascii	"rttest\000"
 3476      737400
 3477              	.LASF79:
 3478 0599 7379735F 		.ascii	"sys_timeo\000"
 3478      74696D65 
 3478      6F00
 3479              	.LASF173:
 3480 05a3 4D454D50 		.ascii	"MEMP_SYS_TIMEOUT\000"
 3480      5F535953 
 3480      5F54494D 
 3480      454F5554 
 3480      00
 3481              	.LASF26:
 3482 05b4 705F6E65 		.ascii	"p_next\000"
 3482      787400
 3483              	.LASF163:
 3484 05bb 4D454D50 		.ascii	"MEMP_UDP_PCB\000"
 3484      5F554450 
 3484      5F504342 
 3484      00
 3485              	.LASF92:
 3486 05c8 6C6F6361 		.ascii	"local_ip\000"
 3486      6C5F6970 
 3486      00
 3487              	.LASF14:
 3488 05d1 75696E74 		.ascii	"uint64_t\000"
 3488      36345F74 
 3488      00
 3489              	.LASF29:
 3490 05da 705F6374 		.ascii	"p_ctx\000"
 3490      7800
 3491              	.LASF189:
 3492 05e0 6D626F78 		.ascii	"mbox\000"
 3492      00
ARM GAS  /tmp/ccvdAPFH.s 			page 67


 3493              	.LASF123:
 3494 05e5 756E7365 		.ascii	"unsent_oversize\000"
 3494      6E745F6F 
 3494      76657273 
 3494      697A6500 
 3495              	.LASF178:
 3496 05f5 69705F72 		.ascii	"ip_reass_timer\000"
 3496      65617373 
 3496      5F74696D 
 3496      657200
 3497              	.LASF115:
 3498 0604 736E645F 		.ascii	"snd_nxt\000"
 3498      6E787400 
 3499              	.LASF146:
 3500 060c 45535441 		.ascii	"ESTABLISHED\000"
 3500      424C4953 
 3500      48454400 
 3501              	.LASF52:
 3502 0618 53656D61 		.ascii	"Semaphore\000"
 3502      70686F72 
 3502      6500
 3503              	.LASF168:
 3504 0622 4D454D50 		.ascii	"MEMP_FRAG_PBUF\000"
 3504      5F465241 
 3504      475F5042 
 3504      554600
 3505              	.LASF114:
 3506 0631 73737468 		.ascii	"ssthresh\000"
 3506      72657368 
 3506      00
 3507              	.LASF121:
 3508 063a 736E645F 		.ascii	"snd_buf\000"
 3508      62756600 
 3509              	.LASF106:
 3510 0642 706F6C6C 		.ascii	"pollinterval\000"
 3510      696E7465 
 3510      7276616C 
 3510      00
 3511              	.LASF162:
 3512 064f 4D454D50 		.ascii	"MEMP_RAW_PCB\000"
 3512      5F524157 
 3512      5F504342 
 3512      00
 3513              	.LASF159:
 3514 065c 5F686472 		.ascii	"_hdrlen_rsvd_flags\000"
 3514      6C656E5F 
 3514      72737664 
 3514      5F666C61 
 3514      677300
 3515              	.LASF27:
 3516 066f 705F7072 		.ascii	"p_prev\000"
 3516      657600
 3517              	.LASF77:
 3518 0676 7379735F 		.ascii	"sys_mbox_t\000"
 3518      6D626F78 
 3518      5F7400
 3519              	.LASF18:
ARM GAS  /tmp/ccvdAPFH.s 			page 68


 3520 0681 74726566 		.ascii	"trefs_t\000"
 3520      735F7400 
 3521              	.LASF12:
 3522 0689 6C6F6E67 		.ascii	"long unsigned int\000"
 3522      20756E73 
 3522      69676E65 
 3522      6420696E 
 3522      7400
 3523              	.LASF59:
 3524 069b 6D625F62 		.ascii	"mb_buffer\000"
 3524      75666665 
 3524      7200
 3525              	.LASF164:
 3526 06a5 4D454D50 		.ascii	"MEMP_TCP_PCB\000"
 3526      5F544350 
 3526      5F504342 
 3526      00
 3527              	.LASF154:
 3528 06b2 74637068 		.ascii	"tcphdr\000"
 3528      647200
 3529              	.LASF74:
 3530 06b9 7331365F 		.ascii	"s16_t\000"
 3530      7400
 3531              	.LASF9:
 3532 06bf 696E7433 		.ascii	"int32_t\000"
 3532      325F7400 
 3533              	.LASF127:
 3534 06c7 72656675 		.ascii	"refused_data\000"
 3534      7365645F 
 3534      64617461 
 3534      00
 3535              	.LASF155:
 3536 06d4 7463705F 		.ascii	"tcp_hdr\000"
 3536      68647200 
 3537              	.LASF85:
 3538 06dc 74797065 		.ascii	"type\000"
 3538      00
 3539              	.LASF4:
 3540 06e1 756E7369 		.ascii	"unsigned char\000"
 3540      676E6564 
 3540      20636861 
 3540      7200
 3541              	.LASF147:
 3542 06ef 46494E5F 		.ascii	"FIN_WAIT_1\000"
 3542      57414954 
 3542      5F3100
 3543              	.LASF148:
 3544 06fa 46494E5F 		.ascii	"FIN_WAIT_2\000"
 3544      57414954 
 3544      5F3200
 3545              	.LASF36:
 3546 0705 705F7265 		.ascii	"p_refs\000"
 3546      667300
 3547              	.LASF166:
 3548 070c 4D454D50 		.ascii	"MEMP_TCP_SEG\000"
 3548      5F544350 
 3548      5F534547 
ARM GAS  /tmp/ccvdAPFH.s 			page 69


 3548      00
 3549              	.LASF144:
 3550 0719 53594E5F 		.ascii	"SYN_SENT\000"
 3550      53454E54 
 3550      00
 3551              	.LASF133:
 3552 0722 6B656570 		.ascii	"keep_idle\000"
 3552      5F69646C 
 3552      6500
 3553              	.LASF97:
 3554 072c 63616C6C 		.ascii	"callback_arg\000"
 3554      6261636B 
 3554      5F617267 
 3554      00
 3555              	.LASF143:
 3556 0739 4C495354 		.ascii	"LISTEN\000"
 3556      454E00
 3557              	.LASF37:
 3558 0740 705F7072 		.ascii	"p_preempt\000"
 3558      65656D70 
 3558      7400
 3559              	.LASF88:
 3560 074a 61646472 		.ascii	"addr\000"
 3560      00
 3561              	.LASF181:
 3562 074f 7379735F 		.ascii	"sys_timeouts_init\000"
 3562      74696D65 
 3562      6F757473 
 3562      5F696E69 
 3562      7400
 3563              	.LASF95:
 3564 0761 73746174 		.ascii	"state\000"
 3564      6500
 3565              	.LASF194:
 3566 0767 6E657874 		.ascii	"next_timeout\000"
 3566      5F74696D 
 3566      656F7574 
 3566      00
 3567              	.LASF122:
 3568 0774 736E645F 		.ascii	"snd_queuelen\000"
 3568      71756575 
 3568      656C656E 
 3568      00
 3569              	.LASF160:
 3570 0781 63686B73 		.ascii	"chksum\000"
 3570      756D00
 3571              	.LASF129:
 3572 0788 72656376 		.ascii	"recv\000"
 3572      00
 3573              	.LASF58:
 3574 078d 6D5F6E65 		.ascii	"m_next\000"
 3574      787400
 3575              	.LASF1:
 3576 0794 7369676E 		.ascii	"signed char\000"
 3576      65642063 
 3576      68617200 
 3577              	.LASF91:
ARM GAS  /tmp/ccvdAPFH.s 			page 70


 3578 07a0 7463705F 		.ascii	"tcp_pcb\000"
 3578      70636200 
 3579              	.LASF8:
 3580 07a8 73686F72 		.ascii	"short unsigned int\000"
 3580      7420756E 
 3580      7369676E 
 3580      65642069 
 3580      6E7400
 3581              	.LASF49:
 3582 07bb 73746B61 		.ascii	"stkalign_t\000"
 3582      6C69676E 
 3582      5F7400
 3583              	.LASF134:
 3584 07c6 70657273 		.ascii	"persist_cnt\000"
 3584      6973745F 
 3584      636E7400 
 3585              	.LASF93:
 3586 07d2 72656D6F 		.ascii	"remote_ip\000"
 3586      74655F69 
 3586      7000
 3587              	.LASF193:
 3588 07dc 7463705F 		.ascii	"tcp_tw_pcbs\000"
 3588      74775F70 
 3588      63627300 
 3589              	.LASF89:
 3590 07e8 69705F61 		.ascii	"ip_addr_t\000"
 3590      6464725F 
 3590      7400
 3591              	.LASF199:
 3592 07f2 7463705F 		.ascii	"tcp_state\000"
 3592      73746174 
 3592      6500
 3593              	.LASF192:
 3594 07fc 7463705F 		.ascii	"tcp_active_pcbs\000"
 3594      61637469 
 3594      76655F70 
 3594      63627300 
 3595              	.LASF110:
 3596 080c 6E727478 		.ascii	"nrtx\000"
 3596      00
 3597              	.LASF182:
 3598 0811 6D736563 		.ascii	"msecs\000"
 3598      7300
 3599              	.LASF156:
 3600 0817 64657374 		.ascii	"dest\000"
 3600      00
 3601              	.LASF67:
 3602 081c 65786974 		.ascii	"exitcode\000"
 3602      636F6465 
 3602      00
 3603              	.LASF145:
 3604 0825 53594E5F 		.ascii	"SYN_RCVD\000"
 3604      52435644 
 3604      00
 3605              	.LASF87:
 3606 082e 69705F61 		.ascii	"ip_addr\000"
 3606      64647200 
ARM GAS  /tmp/ccvdAPFH.s 			page 71


 3607              	.LASF177:
 3608 0836 74637069 		.ascii	"tcpip_tcp_timer\000"
 3608      705F7463 
 3608      705F7469 
 3608      6D657200 
 3609              		.ident	"GCC: (GNU Tools for ARM Embedded Processors) 4.6.2 20120613 (release) [ARM/embedded-4_6-br
ARM GAS  /tmp/ccvdAPFH.s 			page 72


DEFINED SYMBOLS
                            *ABS*:00000000 timers.c
     /tmp/ccvdAPFH.s:19     .bss.next_timeout:00000000 $d
     /tmp/ccvdAPFH.s:22     .bss.next_timeout:00000000 next_timeout
     /tmp/ccvdAPFH.s:25     .bss.tcpip_tcp_timer_active:00000000 $d
     /tmp/ccvdAPFH.s:28     .bss.tcpip_tcp_timer_active:00000000 tcpip_tcp_timer_active
     /tmp/ccvdAPFH.s:31     .text.tcpip_tcp_timer:00000000 $t
     /tmp/ccvdAPFH.s:36     .text.tcpip_tcp_timer:00000000 tcpip_tcp_timer
     /tmp/ccvdAPFH.s:249    .text.sys_timeout:00000000 sys_timeout
     /tmp/ccvdAPFH.s:87     .text.tcp_timer_needed:00000000 $t
     /tmp/ccvdAPFH.s:93     .text.tcp_timer_needed:00000000 tcp_timer_needed
     /tmp/ccvdAPFH.s:140    .text.ip_reass_timer:00000000 $t
     /tmp/ccvdAPFH.s:145    .text.ip_reass_timer:00000000 ip_reass_timer
     /tmp/ccvdAPFH.s:174    .text.arp_timer:00000000 $t
     /tmp/ccvdAPFH.s:179    .text.arp_timer:00000000 arp_timer
     /tmp/ccvdAPFH.s:208    .text.sys_timeouts_init:00000000 $t
     /tmp/ccvdAPFH.s:214    .text.sys_timeouts_init:00000000 sys_timeouts_init
     /tmp/ccvdAPFH.s:243    .text.sys_timeout:00000000 $t
     /tmp/ccvdAPFH.s:423    .text.sys_untimeout:00000000 $t
     /tmp/ccvdAPFH.s:429    .text.sys_untimeout:00000000 sys_untimeout
     /tmp/ccvdAPFH.s:537    .text.sys_timeouts_mbox_fetch:00000000 $t
     /tmp/ccvdAPFH.s:543    .text.sys_timeouts_mbox_fetch:00000000 sys_timeouts_mbox_fetch
                     .debug_frame:00000010 $d

UNDEFINED SYMBOLS
tcp_tmr
tcp_active_pcbs
tcp_tw_pcbs
ip_reass_tmr
etharp_tmr
memp_malloc
port_halt
memp_free
sys_arch_mbox_fetch
