ARM GAS  /tmp/ccvdAPFH.s 			page 1


   1              		.syntax unified
   2              		.cpu cortex-m3
   3              		.fpu softvfp
   4              		.eabi_attribute 20, 1
   5              		.eabi_attribute 21, 1
   6              		.eabi_attribute 23, 3
   7              		.eabi_attribute 24, 1
   8              		.eabi_attribute 25, 1
   9              		.eabi_attribute 26, 1
  10              		.eabi_attribute 30, 6
  11              		.eabi_attribute 34, 1
  12              		.eabi_attribute 18, 4
  13              		.thumb
  14              		.file	"timers.c"
  15              		.text
  16              	.Ltext0:
  17              		.cfi_sections	.debug_frame
  18              		.section	.bss.next_timeout,"aw",%nobits
  19              		.align	2
  20              		.type	next_timeout, %object
  21              		.size	next_timeout, 4
  22              	next_timeout:
  23 0000 00000000 		.space	4
  24              		.section	.bss.tcpip_tcp_timer_active,"aw",%nobits
  25              		.align	2
  26              		.type	tcpip_tcp_timer_active, %object
  27              		.size	tcpip_tcp_timer_active, 4
  28              	tcpip_tcp_timer_active:
  29 0000 00000000 		.space	4
  30              		.section	.text.tcpip_tcp_timer,"ax",%progbits
  31              		.align	2
  32              		.p2align 4,,15
  33              		.thumb
  34              		.thumb_func
  35              		.type	tcpip_tcp_timer, %function
  36              	tcpip_tcp_timer:
  37              	.LFB7:
  38              		.file 1 "../../ext/lwip/src/core/timers.c"
  39              		.loc 1 78 0
  40              		.cfi_startproc
  41              		@ args = 0, pretend = 0, frame = 8
  42              		@ frame_needed = 0, uses_anonymous_args = 0
  43 0000 00B5     		push	{lr}
  44              	.LCFI0:
  45              		.cfi_def_cfa_offset 4
  46              		.cfi_offset 14, -4
  47 0002 83B0     		sub	sp, sp, #12
  48              	.LCFI1:
  49              		.cfi_def_cfa_offset 16
  50 0004 0190     		str	r0, [sp, #4]
  51              		.loc 1 82 0
  52 0006 FFF7FEFF 		bl	tcp_tmr
  53              		.loc 1 84 0
  54 000a 40F20003 		movw	r3, #:lower16:tcp_active_pcbs
  55 000e C0F20003 		movt	r3, #:upper16:tcp_active_pcbs
  56 0012 1B68     		ldr	r3, [r3, #0]
  57 0014 002B     		cmp	r3, #0
ARM GAS  /tmp/ccvdAPFH.s 			page 2


  58 0016 06D1     		bne	.L2
  59              		.loc 1 84 0 is_stmt 0 discriminator 1
  60 0018 40F20003 		movw	r3, #:lower16:tcp_tw_pcbs
  61 001c C0F20003 		movt	r3, #:upper16:tcp_tw_pcbs
  62 0020 1B68     		ldr	r3, [r3, #0]
  63 0022 002B     		cmp	r3, #0
  64 0024 0AD0     		beq	.L3
  65              	.L2:
  66              		.loc 1 86 0 is_stmt 1
  67 0026 4FF0FA00 		mov	r0, #250
  68 002a 40F20001 		movw	r1, #:lower16:tcpip_tcp_timer
  69 002e C0F20001 		movt	r1, #:upper16:tcpip_tcp_timer
  70 0032 4FF00002 		mov	r2, #0
  71 0036 FFF7FEFF 		bl	sys_timeout
  72 003a 06E0     		b	.L1
  73              	.L3:
  74              		.loc 1 89 0
  75 003c 40F20003 		movw	r3, #:lower16:tcpip_tcp_timer_active
  76 0040 C0F20003 		movt	r3, #:upper16:tcpip_tcp_timer_active
  77 0044 4FF00002 		mov	r2, #0
  78 0048 1A60     		str	r2, [r3, #0]
  79              	.L1:
  80              		.loc 1 91 0
  81 004a 03B0     		add	sp, sp, #12
  82 004c 00BD     		pop	{pc}
  83              		.cfi_endproc
  84              	.LFE7:
  85              		.size	tcpip_tcp_timer, .-tcpip_tcp_timer
  86 004e 00BF     		.section	.text.tcp_timer_needed,"ax",%progbits
  87              		.align	2
  88              		.p2align 4,,15
  89              		.global	tcp_timer_needed
  90              		.thumb
  91              		.thumb_func
  92              		.type	tcp_timer_needed, %function
  93              	tcp_timer_needed:
  94              	.LFB8:
  95              		.loc 1 100 0
  96              		.cfi_startproc
  97              		@ args = 0, pretend = 0, frame = 0
  98              		@ frame_needed = 0, uses_anonymous_args = 0
  99 0000 08B5     		push	{r3, lr}
 100              	.LCFI2:
 101              		.cfi_def_cfa_offset 8
 102              		.cfi_offset 14, -4
 103              		.cfi_offset 3, -8
 104              		.loc 1 102 0
 105 0002 40F20003 		movw	r3, #:lower16:tcpip_tcp_timer_active
 106 0006 C0F20003 		movt	r3, #:upper16:tcpip_tcp_timer_active
 107 000a 1B68     		ldr	r3, [r3, #0]
 108 000c 002B     		cmp	r3, #0
 109 000e 1ED1     		bne	.L5
 110              		.loc 1 102 0 is_stmt 0 discriminator 1
 111 0010 40F20003 		movw	r3, #:lower16:tcp_active_pcbs
 112 0014 C0F20003 		movt	r3, #:upper16:tcp_active_pcbs
 113 0018 1B68     		ldr	r3, [r3, #0]
 114 001a 002B     		cmp	r3, #0
ARM GAS  /tmp/ccvdAPFH.s 			page 3


 115 001c 06D1     		bne	.L7
 116 001e 40F20003 		movw	r3, #:lower16:tcp_tw_pcbs
 117 0022 C0F20003 		movt	r3, #:upper16:tcp_tw_pcbs
 118 0026 1B68     		ldr	r3, [r3, #0]
 119 0028 002B     		cmp	r3, #0
 120 002a 10D0     		beq	.L5
 121              	.L7:
 122              		.loc 1 104 0 is_stmt 1
 123 002c 40F20003 		movw	r3, #:lower16:tcpip_tcp_timer_active
 124 0030 C0F20003 		movt	r3, #:upper16:tcpip_tcp_timer_active
 125 0034 4FF00102 		mov	r2, #1
 126 0038 1A60     		str	r2, [r3, #0]
 127              		.loc 1 105 0
 128 003a 4FF0FA00 		mov	r0, #250
 129 003e 40F20001 		movw	r1, #:lower16:tcpip_tcp_timer
 130 0042 C0F20001 		movt	r1, #:upper16:tcpip_tcp_timer
 131 0046 4FF00002 		mov	r2, #0
 132 004a FFF7FEFF 		bl	sys_timeout
 133              	.L5:
 134              		.loc 1 107 0
 135 004e 08BD     		pop	{r3, pc}
 136              		.cfi_endproc
 137              	.LFE8:
 138              		.size	tcp_timer_needed, .-tcp_timer_needed
 139              		.section	.text.ip_reass_timer,"ax",%progbits
 140              		.align	2
 141              		.p2align 4,,15
 142              		.thumb
 143              		.thumb_func
 144              		.type	ip_reass_timer, %function
 145              	ip_reass_timer:
 146              	.LFB9:
 147              		.loc 1 118 0
 148              		.cfi_startproc
 149              		@ args = 0, pretend = 0, frame = 8
 150              		@ frame_needed = 0, uses_anonymous_args = 0
 151 0000 00B5     		push	{lr}
 152              	.LCFI3:
 153              		.cfi_def_cfa_offset 4
 154              		.cfi_offset 14, -4
 155 0002 83B0     		sub	sp, sp, #12
 156              	.LCFI4:
 157              		.cfi_def_cfa_offset 16
 158 0004 0190     		str	r0, [sp, #4]
 159              		.loc 1 121 0
 160 0006 FFF7FEFF 		bl	ip_reass_tmr
 161              		.loc 1 122 0
 162 000a 4FF47A70 		mov	r0, #1000
 163 000e 40F20001 		movw	r1, #:lower16:ip_reass_timer
 164 0012 C0F20001 		movt	r1, #:upper16:ip_reass_timer
 165 0016 4FF00002 		mov	r2, #0
 166 001a FFF7FEFF 		bl	sys_timeout
 167              		.loc 1 123 0
 168 001e 03B0     		add	sp, sp, #12
 169 0020 00BD     		pop	{pc}
 170              		.cfi_endproc
 171              	.LFE9:
ARM GAS  /tmp/ccvdAPFH.s 			page 4


 172              		.size	ip_reass_timer, .-ip_reass_timer
 173 0022 00BFAFF3 		.section	.text.arp_timer,"ax",%progbits
 173      0080AFF3 
 173      0080AFF3 
 173      0080
 174              		.align	2
 175              		.p2align 4,,15
 176              		.thumb
 177              		.thumb_func
 178              		.type	arp_timer, %function
 179              	arp_timer:
 180              	.LFB10:
 181              		.loc 1 134 0
 182              		.cfi_startproc
 183              		@ args = 0, pretend = 0, frame = 8
 184              		@ frame_needed = 0, uses_anonymous_args = 0
 185 0000 00B5     		push	{lr}
 186              	.LCFI5:
 187              		.cfi_def_cfa_offset 4
 188              		.cfi_offset 14, -4
 189 0002 83B0     		sub	sp, sp, #12
 190              	.LCFI6:
 191              		.cfi_def_cfa_offset 16
 192 0004 0190     		str	r0, [sp, #4]
 193              		.loc 1 137 0
 194 0006 FFF7FEFF 		bl	etharp_tmr
 195              		.loc 1 138 0
 196 000a 41F28830 		movw	r0, #5000
 197 000e 40F20001 		movw	r1, #:lower16:arp_timer
 198 0012 C0F20001 		movt	r1, #:upper16:arp_timer
 199 0016 4FF00002 		mov	r2, #0
 200 001a FFF7FEFF 		bl	sys_timeout
 201              		.loc 1 139 0
 202 001e 03B0     		add	sp, sp, #12
 203 0020 00BD     		pop	{pc}
 204              		.cfi_endproc
 205              	.LFE10:
 206              		.size	arp_timer, .-arp_timer
 207 0022 00BFAFF3 		.section	.text.sys_timeouts_init,"ax",%progbits
 207      0080AFF3 
 207      0080AFF3 
 207      0080
 208              		.align	2
 209              		.p2align 4,,15
 210              		.global	sys_timeouts_init
 211              		.thumb
 212              		.thumb_func
 213              		.type	sys_timeouts_init, %function
 214              	sys_timeouts_init:
 215              	.LFB11:
 216              		.loc 1 222 0
 217              		.cfi_startproc
 218              		@ args = 0, pretend = 0, frame = 0
 219              		@ frame_needed = 0, uses_anonymous_args = 0
 220 0000 08B5     		push	{r3, lr}
 221              	.LCFI7:
 222              		.cfi_def_cfa_offset 8
ARM GAS  /tmp/ccvdAPFH.s 			page 5


 223              		.cfi_offset 14, -4
 224              		.cfi_offset 3, -8
 225              		.loc 1 224 0
 226 0002 4FF47A70 		mov	r0, #1000
 227 0006 40F20001 		movw	r1, #:lower16:ip_reass_timer
 228 000a C0F20001 		movt	r1, #:upper16:ip_reass_timer
 229 000e 4FF00002 		mov	r2, #0
 230 0012 FFF7FEFF 		bl	sys_timeout
 231              		.loc 1 227 0
 232 0016 41F28830 		movw	r0, #5000
 233 001a 40F20001 		movw	r1, #:lower16:arp_timer
 234 001e C0F20001 		movt	r1, #:upper16:arp_timer
 235 0022 4FF00002 		mov	r2, #0
 236 0026 FFF7FEFF 		bl	sys_timeout
 237              		.loc 1 247 0
 238 002a 08BD     		pop	{r3, pc}
 239              		.cfi_endproc
 240              	.LFE11:
 241              		.size	sys_timeouts_init, .-sys_timeouts_init
 242 002c AFF30080 		.section	.text.sys_timeout,"ax",%progbits
 243              		.align	2
 244              		.p2align 4,,15
 245              		.global	sys_timeout
 246              		.thumb
 247              		.thumb_func
 248              		.type	sys_timeout, %function
 249              	sys_timeout:
 250              	.LFB12:
 251              		.loc 1 266 0
 252              		.cfi_startproc
 253              		@ args = 0, pretend = 0, frame = 24
 254              		@ frame_needed = 0, uses_anonymous_args = 0
 255 0000 00B5     		push	{lr}
 256              	.LCFI8:
 257              		.cfi_def_cfa_offset 4
 258              		.cfi_offset 14, -4
 259 0002 87B0     		sub	sp, sp, #28
 260              	.LCFI9:
 261              		.cfi_def_cfa_offset 32
 262 0004 0390     		str	r0, [sp, #12]
 263 0006 0291     		str	r1, [sp, #8]
 264 0008 0192     		str	r2, [sp, #4]
 265              		.loc 1 269 0
 266 000a 4FF00B00 		mov	r0, #11
 267 000e FFF7FEFF 		bl	memp_malloc
 268 0012 0346     		mov	r3, r0
 269 0014 0493     		str	r3, [sp, #16]
 270              		.loc 1 270 0
 271 0016 049B     		ldr	r3, [sp, #16]
 272 0018 002B     		cmp	r3, #0
 273 001a 05D1     		bne	.L12
 274              		.loc 1 271 0
 275 001c 049B     		ldr	r3, [sp, #16]
 276 001e 002B     		cmp	r3, #0
 277 0020 77D1     		bne	.L22
 278              		.loc 1 271 0 is_stmt 0 discriminator 1
 279 0022 FFF7FEFF 		bl	port_halt
ARM GAS  /tmp/ccvdAPFH.s 			page 6


 280              		.loc 1 272 0 is_stmt 1 discriminator 1
 281 0026 74E0     		b	.L22
 282              	.L12:
 283              		.loc 1 274 0
 284 0028 049B     		ldr	r3, [sp, #16]
 285 002a 4FF00002 		mov	r2, #0
 286 002e 1A60     		str	r2, [r3, #0]
 287              		.loc 1 275 0
 288 0030 049B     		ldr	r3, [sp, #16]
 289 0032 029A     		ldr	r2, [sp, #8]
 290 0034 9A60     		str	r2, [r3, #8]
 291              		.loc 1 276 0
 292 0036 049B     		ldr	r3, [sp, #16]
 293 0038 019A     		ldr	r2, [sp, #4]
 294 003a DA60     		str	r2, [r3, #12]
 295              		.loc 1 277 0
 296 003c 049B     		ldr	r3, [sp, #16]
 297 003e 039A     		ldr	r2, [sp, #12]
 298 0040 5A60     		str	r2, [r3, #4]
 299              		.loc 1 284 0
 300 0042 40F20003 		movw	r3, #:lower16:next_timeout
 301 0046 C0F20003 		movt	r3, #:upper16:next_timeout
 302 004a 1B68     		ldr	r3, [r3, #0]
 303 004c 002B     		cmp	r3, #0
 304 004e 06D1     		bne	.L15
 305              		.loc 1 285 0
 306 0050 40F20003 		movw	r3, #:lower16:next_timeout
 307 0054 C0F20003 		movt	r3, #:upper16:next_timeout
 308 0058 049A     		ldr	r2, [sp, #16]
 309 005a 1A60     		str	r2, [r3, #0]
 310              		.loc 1 286 0
 311 005c 5AE0     		b	.L11
 312              	.L15:
 313              		.loc 1 289 0
 314 005e 40F20003 		movw	r3, #:lower16:next_timeout
 315 0062 C0F20003 		movt	r3, #:upper16:next_timeout
 316 0066 1B68     		ldr	r3, [r3, #0]
 317 0068 5A68     		ldr	r2, [r3, #4]
 318 006a 039B     		ldr	r3, [sp, #12]
 319 006c 9A42     		cmp	r2, r3
 320 006e 1BD9     		bls	.L16
 321              		.loc 1 290 0
 322 0070 40F20003 		movw	r3, #:lower16:next_timeout
 323 0074 C0F20003 		movt	r3, #:upper16:next_timeout
 324 0078 1A68     		ldr	r2, [r3, #0]
 325 007a 40F20003 		movw	r3, #:lower16:next_timeout
 326 007e C0F20003 		movt	r3, #:upper16:next_timeout
 327 0082 1B68     		ldr	r3, [r3, #0]
 328 0084 5968     		ldr	r1, [r3, #4]
 329 0086 039B     		ldr	r3, [sp, #12]
 330 0088 CB1A     		subs	r3, r1, r3
 331 008a 5360     		str	r3, [r2, #4]
 332              		.loc 1 291 0
 333 008c 40F20003 		movw	r3, #:lower16:next_timeout
 334 0090 C0F20003 		movt	r3, #:upper16:next_timeout
 335 0094 1A68     		ldr	r2, [r3, #0]
 336 0096 049B     		ldr	r3, [sp, #16]
ARM GAS  /tmp/ccvdAPFH.s 			page 7


 337 0098 1A60     		str	r2, [r3, #0]
 338              		.loc 1 292 0
 339 009a 40F20003 		movw	r3, #:lower16:next_timeout
 340 009e C0F20003 		movt	r3, #:upper16:next_timeout
 341 00a2 049A     		ldr	r2, [sp, #16]
 342 00a4 1A60     		str	r2, [r3, #0]
 343 00a6 35E0     		b	.L11
 344              	.L16:
 345              		.loc 1 294 0
 346 00a8 40F20003 		movw	r3, #:lower16:next_timeout
 347 00ac C0F20003 		movt	r3, #:upper16:next_timeout
 348 00b0 1B68     		ldr	r3, [r3, #0]
 349 00b2 0593     		str	r3, [sp, #20]
 350 00b4 29E0     		b	.L17
 351              	.L21:
 352              		.loc 1 295 0
 353 00b6 049B     		ldr	r3, [sp, #16]
 354 00b8 5A68     		ldr	r2, [r3, #4]
 355 00ba 059B     		ldr	r3, [sp, #20]
 356 00bc 5B68     		ldr	r3, [r3, #4]
 357 00be D21A     		subs	r2, r2, r3
 358 00c0 049B     		ldr	r3, [sp, #16]
 359 00c2 5A60     		str	r2, [r3, #4]
 360              		.loc 1 296 0
 361 00c4 059B     		ldr	r3, [sp, #20]
 362 00c6 1B68     		ldr	r3, [r3, #0]
 363 00c8 002B     		cmp	r3, #0
 364 00ca 06D0     		beq	.L18
 365              		.loc 1 296 0 is_stmt 0 discriminator 1
 366 00cc 059B     		ldr	r3, [sp, #20]
 367 00ce 1B68     		ldr	r3, [r3, #0]
 368 00d0 5A68     		ldr	r2, [r3, #4]
 369 00d2 049B     		ldr	r3, [sp, #16]
 370 00d4 5B68     		ldr	r3, [r3, #4]
 371 00d6 9A42     		cmp	r2, r3
 372 00d8 14D9     		bls	.L19
 373              	.L18:
 374              		.loc 1 297 0 is_stmt 1
 375 00da 059B     		ldr	r3, [sp, #20]
 376 00dc 1B68     		ldr	r3, [r3, #0]
 377 00de 002B     		cmp	r3, #0
 378 00e0 08D0     		beq	.L20
 379              		.loc 1 298 0
 380 00e2 059B     		ldr	r3, [sp, #20]
 381 00e4 1B68     		ldr	r3, [r3, #0]
 382 00e6 059A     		ldr	r2, [sp, #20]
 383 00e8 1268     		ldr	r2, [r2, #0]
 384 00ea 5168     		ldr	r1, [r2, #4]
 385 00ec 049A     		ldr	r2, [sp, #16]
 386 00ee 5268     		ldr	r2, [r2, #4]
 387 00f0 8A1A     		subs	r2, r1, r2
 388 00f2 5A60     		str	r2, [r3, #4]
 389              	.L20:
 390              		.loc 1 300 0
 391 00f4 059B     		ldr	r3, [sp, #20]
 392 00f6 1A68     		ldr	r2, [r3, #0]
 393 00f8 049B     		ldr	r3, [sp, #16]
ARM GAS  /tmp/ccvdAPFH.s 			page 8


 394 00fa 1A60     		str	r2, [r3, #0]
 395              		.loc 1 301 0
 396 00fc 059B     		ldr	r3, [sp, #20]
 397 00fe 049A     		ldr	r2, [sp, #16]
 398 0100 1A60     		str	r2, [r3, #0]
 399              		.loc 1 302 0
 400 0102 07E0     		b	.L11
 401              	.L19:
 402              		.loc 1 294 0
 403 0104 059B     		ldr	r3, [sp, #20]
 404 0106 1B68     		ldr	r3, [r3, #0]
 405 0108 0593     		str	r3, [sp, #20]
 406              	.L17:
 407              		.loc 1 294 0 is_stmt 0 discriminator 1
 408 010a 059B     		ldr	r3, [sp, #20]
 409 010c 002B     		cmp	r3, #0
 410 010e D2D1     		bne	.L21
 411 0110 00E0     		b	.L11
 412              	.L22:
 413              		.loc 1 272 0 is_stmt 1
 414 0112 00BF     		nop
 415              	.L11:
 416              		.loc 1 306 0
 417 0114 07B0     		add	sp, sp, #28
 418 0116 00BD     		pop	{pc}
 419              		.cfi_endproc
 420              	.LFE12:
 421              		.size	sys_timeout, .-sys_timeout
 422 0118 AFF30080 		.section	.text.sys_untimeout,"ax",%progbits
 422      AFF30080 
 423              		.align	2
 424              		.p2align 4,,15
 425              		.global	sys_untimeout
 426              		.thumb
 427              		.thumb_func
 428              		.type	sys_untimeout, %function
 429              	sys_untimeout:
 430              	.LFB13:
 431              		.loc 1 320 0
 432              		.cfi_startproc
 433              		@ args = 0, pretend = 0, frame = 16
 434              		@ frame_needed = 0, uses_anonymous_args = 0
 435 0000 00B5     		push	{lr}
 436              	.LCFI10:
 437              		.cfi_def_cfa_offset 4
 438              		.cfi_offset 14, -4
 439 0002 85B0     		sub	sp, sp, #20
 440              	.LCFI11:
 441              		.cfi_def_cfa_offset 24
 442 0004 0190     		str	r0, [sp, #4]
 443 0006 0091     		str	r1, [sp, #0]
 444              		.loc 1 323 0
 445 0008 40F20003 		movw	r3, #:lower16:next_timeout
 446 000c C0F20003 		movt	r3, #:upper16:next_timeout
 447 0010 1B68     		ldr	r3, [r3, #0]
 448 0012 002B     		cmp	r3, #0
 449 0014 3ED0     		beq	.L32
ARM GAS  /tmp/ccvdAPFH.s 			page 9


 450              	.L24:
 451              		.loc 1 327 0
 452 0016 40F20003 		movw	r3, #:lower16:next_timeout
 453 001a C0F20003 		movt	r3, #:upper16:next_timeout
 454 001e 1B68     		ldr	r3, [r3, #0]
 455 0020 0293     		str	r3, [sp, #8]
 456 0022 4FF00003 		mov	r3, #0
 457 0026 0393     		str	r3, [sp, #12]
 458 0028 30E0     		b	.L26
 459              	.L31:
 460              		.loc 1 328 0
 461 002a 029B     		ldr	r3, [sp, #8]
 462 002c 9A68     		ldr	r2, [r3, #8]
 463 002e 019B     		ldr	r3, [sp, #4]
 464 0030 9A42     		cmp	r2, r3
 465 0032 26D1     		bne	.L27
 466              		.loc 1 328 0 is_stmt 0 discriminator 1
 467 0034 029B     		ldr	r3, [sp, #8]
 468 0036 DA68     		ldr	r2, [r3, #12]
 469 0038 009B     		ldr	r3, [sp, #0]
 470 003a 9A42     		cmp	r2, r3
 471 003c 21D1     		bne	.L27
 472              		.loc 1 331 0 is_stmt 1
 473 003e 039B     		ldr	r3, [sp, #12]
 474 0040 002B     		cmp	r3, #0
 475 0042 07D1     		bne	.L28
 476              		.loc 1 332 0
 477 0044 029B     		ldr	r3, [sp, #8]
 478 0046 1A68     		ldr	r2, [r3, #0]
 479 0048 40F20003 		movw	r3, #:lower16:next_timeout
 480 004c C0F20003 		movt	r3, #:upper16:next_timeout
 481 0050 1A60     		str	r2, [r3, #0]
 482 0052 03E0     		b	.L29
 483              	.L28:
 484              		.loc 1 334 0
 485 0054 029B     		ldr	r3, [sp, #8]
 486 0056 1A68     		ldr	r2, [r3, #0]
 487 0058 039B     		ldr	r3, [sp, #12]
 488 005a 1A60     		str	r2, [r3, #0]
 489              	.L29:
 490              		.loc 1 337 0
 491 005c 029B     		ldr	r3, [sp, #8]
 492 005e 1B68     		ldr	r3, [r3, #0]
 493 0060 002B     		cmp	r3, #0
 494 0062 08D0     		beq	.L30
 495              		.loc 1 338 0
 496 0064 029B     		ldr	r3, [sp, #8]
 497 0066 1B68     		ldr	r3, [r3, #0]
 498 0068 029A     		ldr	r2, [sp, #8]
 499 006a 1268     		ldr	r2, [r2, #0]
 500 006c 5168     		ldr	r1, [r2, #4]
 501 006e 029A     		ldr	r2, [sp, #8]
 502 0070 5268     		ldr	r2, [r2, #4]
 503 0072 8A18     		adds	r2, r1, r2
 504 0074 5A60     		str	r2, [r3, #4]
 505              	.L30:
 506              		.loc 1 340 0
ARM GAS  /tmp/ccvdAPFH.s 			page 10


 507 0076 4FF00B00 		mov	r0, #11
 508 007a 0299     		ldr	r1, [sp, #8]
 509 007c FFF7FEFF 		bl	memp_free
 510              		.loc 1 341 0
 511 0080 09E0     		b	.L23
 512              	.L27:
 513              		.loc 1 327 0
 514 0082 029B     		ldr	r3, [sp, #8]
 515 0084 0393     		str	r3, [sp, #12]
 516 0086 029B     		ldr	r3, [sp, #8]
 517 0088 1B68     		ldr	r3, [r3, #0]
 518 008a 0293     		str	r3, [sp, #8]
 519              	.L26:
 520              		.loc 1 327 0 is_stmt 0 discriminator 1
 521 008c 029B     		ldr	r3, [sp, #8]
 522 008e 002B     		cmp	r3, #0
 523 0090 CBD1     		bne	.L31
 524              		.loc 1 344 0 is_stmt 1
 525 0092 00E0     		b	.L23
 526              	.L32:
 527              		.loc 1 324 0
 528 0094 00BF     		nop
 529              	.L23:
 530              		.loc 1 345 0
 531 0096 05B0     		add	sp, sp, #20
 532 0098 00BD     		pop	{pc}
 533              		.cfi_endproc
 534              	.LFE13:
 535              		.size	sys_untimeout, .-sys_untimeout
 536 009a 00BFAFF3 		.section	.text.sys_timeouts_mbox_fetch,"ax",%progbits
 536      0080
 537              		.align	2
 538              		.p2align 4,,15
 539              		.global	sys_timeouts_mbox_fetch
 540              		.thumb
 541              		.thumb_func
 542              		.type	sys_timeouts_mbox_fetch, %function
 543              	sys_timeouts_mbox_fetch:
 544              	.LFB14:
 545              		.loc 1 419 0
 546              		.cfi_startproc
 547              		@ args = 0, pretend = 0, frame = 24
 548              		@ frame_needed = 0, uses_anonymous_args = 0
 549 0000 00B5     		push	{lr}
 550              	.LCFI12:
 551              		.cfi_def_cfa_offset 4
 552              		.cfi_offset 14, -4
 553 0002 87B0     		sub	sp, sp, #28
 554              	.LCFI13:
 555              		.cfi_def_cfa_offset 32
 556 0004 0190     		str	r0, [sp, #4]
 557 0006 0091     		str	r1, [sp, #0]
 558 0008 00E0     		b	.L34
 559              	.L42:
 560              		.loc 1 460 0
 561 000a 00BF     		nop
 562              	.L34:
ARM GAS  /tmp/ccvdAPFH.s 			page 11


 563              		.loc 1 426 0
 564 000c 40F20003 		movw	r3, #:lower16:next_timeout
 565 0010 C0F20003 		movt	r3, #:upper16:next_timeout
 566 0014 1B68     		ldr	r3, [r3, #0]
 567 0016 002B     		cmp	r3, #0
 568 0018 08D1     		bne	.L35
 569              		.loc 1 427 0
 570 001a 0198     		ldr	r0, [sp, #4]
 571 001c 0099     		ldr	r1, [sp, #0]
 572 001e 4FF00002 		mov	r2, #0
 573 0022 FFF7FEFF 		bl	sys_arch_mbox_fetch
 574 0026 0346     		mov	r3, r0
 575 0028 0593     		str	r3, [sp, #20]
 576 002a 5BE0     		b	.L33
 577              	.L35:
 578              		.loc 1 429 0
 579 002c 40F20003 		movw	r3, #:lower16:next_timeout
 580 0030 C0F20003 		movt	r3, #:upper16:next_timeout
 581 0034 1B68     		ldr	r3, [r3, #0]
 582 0036 5B68     		ldr	r3, [r3, #4]
 583 0038 002B     		cmp	r3, #0
 584 003a 0DD0     		beq	.L37
 585              		.loc 1 430 0
 586 003c 40F20003 		movw	r3, #:lower16:next_timeout
 587 0040 C0F20003 		movt	r3, #:upper16:next_timeout
 588 0044 1B68     		ldr	r3, [r3, #0]
 589 0046 5B68     		ldr	r3, [r3, #4]
 590 0048 0198     		ldr	r0, [sp, #4]
 591 004a 0099     		ldr	r1, [sp, #0]
 592 004c 1A46     		mov	r2, r3
 593 004e FFF7FEFF 		bl	sys_arch_mbox_fetch
 594 0052 0346     		mov	r3, r0
 595 0054 0593     		str	r3, [sp, #20]
 596 0056 02E0     		b	.L38
 597              	.L37:
 598              		.loc 1 432 0
 599 0058 4FF0FF33 		mov	r3, #-1
 600 005c 0593     		str	r3, [sp, #20]
 601              	.L38:
 602              		.loc 1 435 0
 603 005e 059B     		ldr	r3, [sp, #20]
 604 0060 B3F1FF3F 		cmp	r3, #-1
 605 0064 1ED1     		bne	.L39
 606              		.loc 1 439 0
 607 0066 40F20003 		movw	r3, #:lower16:next_timeout
 608 006a C0F20003 		movt	r3, #:upper16:next_timeout
 609 006e 1B68     		ldr	r3, [r3, #0]
 610 0070 0493     		str	r3, [sp, #16]
 611              		.loc 1 440 0
 612 0072 049B     		ldr	r3, [sp, #16]
 613 0074 1A68     		ldr	r2, [r3, #0]
 614 0076 40F20003 		movw	r3, #:lower16:next_timeout
 615 007a C0F20003 		movt	r3, #:upper16:next_timeout
 616 007e 1A60     		str	r2, [r3, #0]
 617              		.loc 1 441 0
 618 0080 049B     		ldr	r3, [sp, #16]
 619 0082 9B68     		ldr	r3, [r3, #8]
ARM GAS  /tmp/ccvdAPFH.s 			page 12


 620 0084 0393     		str	r3, [sp, #12]
 621              		.loc 1 442 0
 622 0086 049B     		ldr	r3, [sp, #16]
 623 0088 DB68     		ldr	r3, [r3, #12]
 624 008a 0293     		str	r3, [sp, #8]
 625              		.loc 1 449 0
 626 008c 4FF00B00 		mov	r0, #11
 627 0090 0499     		ldr	r1, [sp, #16]
 628 0092 FFF7FEFF 		bl	memp_free
 629              		.loc 1 450 0
 630 0096 039B     		ldr	r3, [sp, #12]
 631 0098 002B     		cmp	r3, #0
 632 009a B6D0     		beq	.L42
 633              		.loc 1 454 0
 634 009c 039B     		ldr	r3, [sp, #12]
 635 009e 0298     		ldr	r0, [sp, #8]
 636 00a0 9847     		blx	r3
 637              		.loc 1 460 0
 638 00a2 B2E7     		b	.L42
 639              	.L39:
 640              		.loc 1 465 0
 641 00a4 40F20003 		movw	r3, #:lower16:next_timeout
 642 00a8 C0F20003 		movt	r3, #:upper16:next_timeout
 643 00ac 1B68     		ldr	r3, [r3, #0]
 644 00ae 5A68     		ldr	r2, [r3, #4]
 645 00b0 059B     		ldr	r3, [sp, #20]
 646 00b2 9A42     		cmp	r2, r3
 647 00b4 0ED9     		bls	.L41
 648              		.loc 1 466 0
 649 00b6 40F20003 		movw	r3, #:lower16:next_timeout
 650 00ba C0F20003 		movt	r3, #:upper16:next_timeout
 651 00be 1A68     		ldr	r2, [r3, #0]
 652 00c0 40F20003 		movw	r3, #:lower16:next_timeout
 653 00c4 C0F20003 		movt	r3, #:upper16:next_timeout
 654 00c8 1B68     		ldr	r3, [r3, #0]
 655 00ca 5968     		ldr	r1, [r3, #4]
 656 00cc 059B     		ldr	r3, [sp, #20]
 657 00ce CB1A     		subs	r3, r1, r3
 658 00d0 5360     		str	r3, [r2, #4]
 659 00d2 07E0     		b	.L33
 660              	.L41:
 661              		.loc 1 468 0
 662 00d4 40F20003 		movw	r3, #:lower16:next_timeout
 663 00d8 C0F20003 		movt	r3, #:upper16:next_timeout
 664 00dc 1B68     		ldr	r3, [r3, #0]
 665 00de 4FF00002 		mov	r2, #0
 666 00e2 5A60     		str	r2, [r3, #4]
 667              	.L33:
 668              		.loc 1 472 0
 669 00e4 07B0     		add	sp, sp, #28
 670 00e6 00BD     		pop	{pc}
 671              		.cfi_endproc
 672              	.LFE14:
 673              		.size	sys_timeouts_mbox_fetch, .-sys_timeouts_mbox_fetch
 674 00e8 AFF30080 		.text
 674      AFF30080 
 675              	.Letext0:
ARM GAS  /tmp/ccvdAPFH.s 			page 13


 676              		.file 2 "/home/texzk/ChibiStudio/tools/GNU Tools ARM Embedded/4.6 2012q2/bin/../lib/gcc/arm-none-e
 677              		.file 3 "../../os/ports/GCC/ARMCMx/chtypes.h"
 678              		.file 4 "../../os/kernel/include/chlists.h"
 679              		.file 5 "../../os/kernel/include/chthreads.h"
 680              		.file 6 "../../os/ports/GCC/ARMCMx/chcore_v7m.h"
 681              		.file 7 "../../os/kernel/include/chsem.h"
 682              		.file 8 "../../os/kernel/include/chmtx.h"
 683              		.file 9 "../../os/kernel/include/chmboxes.h"
 684              		.file 10 "../../os/various/lwip_bindings/arch/cc.h"
 685              		.file 11 "../../ext/lwip/src/include/lwip/err.h"
 686              		.file 12 "../../os/various/lwip_bindings/arch/sys_arch.h"
 687              		.file 13 "../../ext/lwip/src/include/lwip/timers.h"
 688              		.file 14 "../../ext/lwip/src/include/lwip/pbuf.h"
 689              		.file 15 "../../ext/lwip/src/include/ipv4/lwip/ip_addr.h"
 690              		.file 16 "../../ext/lwip/src/include/lwip/tcp.h"
 691              		.file 17 "../../ext/lwip/src/include/lwip/tcp_impl.h"
 692              		.file 18 "../../ext/lwip/src/include/lwip/memp.h"