ARM GAS  /tmp/ccawWU6f.s 			page 1


   1              		.syntax unified
   2              		.cpu cortex-m3
   3              		.fpu softvfp
   4              		.eabi_attribute 20, 1
   5              		.eabi_attribute 21, 1
   6              		.eabi_attribute 23, 3
   7              		.eabi_attribute 24, 1
   8              		.eabi_attribute 25, 1
   9              		.eabi_attribute 26, 1
  10              		.eabi_attribute 30, 6
  11              		.eabi_attribute 34, 1
  12              		.eabi_attribute 18, 4
  13              		.thumb
  14              		.file	"tm.c"
  15              		.text
  16              	.Ltext0:
  17              		.cfi_sections	.debug_frame
  18              		.section	.bss.measurement_offset,"aw",%nobits
  19              		.align	2
  20              		.type	measurement_offset, %object
  21              		.size	measurement_offset, 4
  22              	measurement_offset:
  23 0000 00000000 		.space	4
  24              		.section	.text.tm_start,"ax",%progbits
  25              		.align	2
  26              		.p2align 4,,15
  27              		.thumb
  28              		.thumb_func
  29              		.type	tm_start, %function
  30              	tm_start:
  31              	.LFB63:
  32              		.file 1 "../../os/hal/src/tm.c"
  33              		.loc 1 62 0
  34              		.cfi_startproc
  35              		@ args = 0, pretend = 0, frame = 8
  36              		@ frame_needed = 0, uses_anonymous_args = 0
  37              		@ link register save eliminated.
  38 0000 82B0     		sub	sp, sp, #8
  39              	.LCFI0:
  40              		.cfi_def_cfa_offset 8
  41 0002 0190     		str	r0, [sp, #4]
  42              		.loc 1 64 0
  43 0004 4FF48053 		mov	r3, #4096
  44 0008 CEF20003 		movt	r3, 57344
  45 000c 5B68     		ldr	r3, [r3, #4]
  46 000e 1A46     		mov	r2, r3
  47 0010 019B     		ldr	r3, [sp, #4]
  48 0012 9A60     		str	r2, [r3, #8]
  49              		.loc 1 65 0
  50 0014 02B0     		add	sp, sp, #8
  51 0016 7047     		bx	lr
  52              		.cfi_endproc
  53              	.LFE63:
  54              		.size	tm_start, .-tm_start
  55 0018 AFF30080 		.section	.text.tm_stop,"ax",%progbits
  55      AFF30080 
  56              		.align	2
ARM GAS  /tmp/ccawWU6f.s 			page 2


  57              		.p2align 4,,15
  58              		.thumb
  59              		.thumb_func
  60              		.type	tm_stop, %function
  61              	tm_stop:
  62              	.LFB64:
  63              		.loc 1 74 0
  64              		.cfi_startproc
  65              		@ args = 0, pretend = 0, frame = 16
  66              		@ frame_needed = 0, uses_anonymous_args = 0
  67              		@ link register save eliminated.
  68 0000 84B0     		sub	sp, sp, #16
  69              	.LCFI1:
  70              		.cfi_def_cfa_offset 16
  71 0002 0190     		str	r0, [sp, #4]
  72              		.loc 1 76 0
  73 0004 4FF48053 		mov	r3, #4096
  74 0008 CEF20003 		movt	r3, 57344
  75 000c 5B68     		ldr	r3, [r3, #4]
  76 000e 0393     		str	r3, [sp, #12]
  77              		.loc 1 77 0
  78 0010 019B     		ldr	r3, [sp, #4]
  79 0012 9B68     		ldr	r3, [r3, #8]
  80 0014 039A     		ldr	r2, [sp, #12]
  81 0016 D21A     		subs	r2, r2, r3
  82 0018 40F20003 		movw	r3, #:lower16:measurement_offset
  83 001c C0F20003 		movt	r3, #:upper16:measurement_offset
  84 0020 1B68     		ldr	r3, [r3, #0]
  85 0022 D21A     		subs	r2, r2, r3
  86 0024 019B     		ldr	r3, [sp, #4]
  87 0026 9A60     		str	r2, [r3, #8]
  88              		.loc 1 78 0
  89 0028 019B     		ldr	r3, [sp, #4]
  90 002a 9A68     		ldr	r2, [r3, #8]
  91 002c 019B     		ldr	r3, [sp, #4]
  92 002e DB68     		ldr	r3, [r3, #12]
  93 0030 9A42     		cmp	r2, r3
  94 0032 04D9     		bls	.L3
  95              		.loc 1 79 0
  96 0034 019B     		ldr	r3, [sp, #4]
  97 0036 9A68     		ldr	r2, [r3, #8]
  98 0038 019B     		ldr	r3, [sp, #4]
  99 003a DA60     		str	r2, [r3, #12]
 100 003c 09E0     		b	.L2
 101              	.L3:
 102              		.loc 1 80 0
 103 003e 019B     		ldr	r3, [sp, #4]
 104 0040 9A68     		ldr	r2, [r3, #8]
 105 0042 019B     		ldr	r3, [sp, #4]
 106 0044 1B69     		ldr	r3, [r3, #16]
 107 0046 9A42     		cmp	r2, r3
 108 0048 03D2     		bcs	.L2
 109              		.loc 1 81 0
 110 004a 019B     		ldr	r3, [sp, #4]
 111 004c 9A68     		ldr	r2, [r3, #8]
 112 004e 019B     		ldr	r3, [sp, #4]
 113 0050 1A61     		str	r2, [r3, #16]
ARM GAS  /tmp/ccawWU6f.s 			page 3


 114              	.L2:
 115              		.loc 1 82 0
 116 0052 04B0     		add	sp, sp, #16
 117 0054 7047     		bx	lr
 118              		.cfi_endproc
 119              	.LFE64:
 120              		.size	tm_stop, .-tm_stop
 121 0056 00BFAFF3 		.section	.text.tmInit,"ax",%progbits
 121      0080AFF3 
 121      0080
 122              		.align	2
 123              		.p2align 4,,15
 124              		.global	tmInit
 125              		.thumb
 126              		.thumb_func
 127              		.type	tmInit, %function
 128              	tmInit:
 129              	.LFB65:
 130              		.loc 1 97 0
 131              		.cfi_startproc
 132              		@ args = 0, pretend = 0, frame = 24
 133              		@ frame_needed = 0, uses_anonymous_args = 0
 134 0000 00B5     		push	{lr}
 135              	.LCFI2:
 136              		.cfi_def_cfa_offset 4
 137              		.cfi_offset 14, -4
 138 0002 87B0     		sub	sp, sp, #28
 139              	.LCFI3:
 140              		.cfi_def_cfa_offset 32
 141              		.loc 1 103 0
 142 0004 40F20003 		movw	r3, #:lower16:measurement_offset
 143 0008 C0F20003 		movt	r3, #:upper16:measurement_offset
 144 000c 4FF00002 		mov	r2, #0
 145 0010 1A60     		str	r2, [r3, #0]
 146              		.loc 1 104 0
 147 0012 01AB     		add	r3, sp, #4
 148 0014 1846     		mov	r0, r3
 149 0016 FFF7FEFF 		bl	tmObjectInit
 150              		.loc 1 105 0
 151 001a 019B     		ldr	r3, [sp, #4]
 152 001c 01AA     		add	r2, sp, #4
 153 001e 1046     		mov	r0, r2
 154 0020 9847     		blx	r3
 155              		.loc 1 106 0
 156 0022 029B     		ldr	r3, [sp, #8]
 157 0024 01AA     		add	r2, sp, #4
 158 0026 1046     		mov	r0, r2
 159 0028 9847     		blx	r3
 160              		.loc 1 107 0
 161 002a 039A     		ldr	r2, [sp, #12]
 162 002c 40F20003 		movw	r3, #:lower16:measurement_offset
 163 0030 C0F20003 		movt	r3, #:upper16:measurement_offset
 164 0034 1A60     		str	r2, [r3, #0]
 165              		.loc 1 108 0
 166 0036 07B0     		add	sp, sp, #28
 167 0038 00BD     		pop	{pc}
 168              		.cfi_endproc
ARM GAS  /tmp/ccawWU6f.s 			page 4


 169              	.LFE65:
 170              		.size	tmInit, .-tmInit
 171 003a 00BFAFF3 		.section	.text.tmObjectInit,"ax",%progbits
 171      0080
 172              		.align	2
 173              		.p2align 4,,15
 174              		.global	tmObjectInit
 175              		.thumb
 176              		.thumb_func
 177              		.type	tmObjectInit, %function
 178              	tmObjectInit:
 179              	.LFB66:
 180              		.loc 1 117 0
 181              		.cfi_startproc
 182              		@ args = 0, pretend = 0, frame = 8
 183              		@ frame_needed = 0, uses_anonymous_args = 0
 184              		@ link register save eliminated.
 185 0000 82B0     		sub	sp, sp, #8
 186              	.LCFI4:
 187              		.cfi_def_cfa_offset 8
 188 0002 0190     		str	r0, [sp, #4]
 189              		.loc 1 119 0
 190 0004 019A     		ldr	r2, [sp, #4]
 191 0006 40F20003 		movw	r3, #:lower16:tm_start
 192 000a C0F20003 		movt	r3, #:upper16:tm_start
 193 000e 1360     		str	r3, [r2, #0]
 194              		.loc 1 120 0
 195 0010 019A     		ldr	r2, [sp, #4]
 196 0012 40F20003 		movw	r3, #:lower16:tm_stop
 197 0016 C0F20003 		movt	r3, #:upper16:tm_stop
 198 001a 5360     		str	r3, [r2, #4]
 199              		.loc 1 121 0
 200 001c 019B     		ldr	r3, [sp, #4]
 201 001e 4FF00002 		mov	r2, #0
 202 0022 9A60     		str	r2, [r3, #8]
 203              		.loc 1 122 0
 204 0024 019B     		ldr	r3, [sp, #4]
 205 0026 4FF00002 		mov	r2, #0
 206 002a DA60     		str	r2, [r3, #12]
 207              		.loc 1 123 0
 208 002c 019B     		ldr	r3, [sp, #4]
 209 002e 4FF0FF32 		mov	r2, #-1
 210 0032 1A61     		str	r2, [r3, #16]
 211              		.loc 1 124 0
 212 0034 02B0     		add	sp, sp, #8
 213 0036 7047     		bx	lr
 214              		.cfi_endproc
 215              	.LFE66:
 216              		.size	tmObjectInit, .-tmObjectInit
 217 0038 AFF30080 		.text
 217      AFF30080 
 218              	.Letext0:
 219              		.file 2 "/home/texzk/ChibiStudio/tools/GNU Tools ARM Embedded/4.6 2012q2/bin/../lib/gcc/arm-none-e
 220              		.file 3 "../../os/ports/common/ARMCMx/nvic.h"
 221              		.file 4 "../../os/hal/platforms/STM32F2xx/hal_lld.h"
 222              		.file 5 "../../os/hal/include/tm.h"
 223              		.file 6 "../../os/ports/common/ARMCMx/CMSIS/include/core_cm3.h"
ARM GAS  /tmp/ccawWU6f.s 			page 5

