ARM GAS  /tmp/ccw4TIrd.s 			page 1


   1              		.syntax unified
   2              		.cpu cortex-m3
   3              		.fpu softvfp
   4              		.eabi_attribute 20, 1
   5              		.eabi_attribute 21, 1
   6              		.eabi_attribute 23, 3
   7              		.eabi_attribute 24, 1
   8              		.eabi_attribute 25, 1
   9              		.eabi_attribute 26, 1
  10              		.eabi_attribute 30, 6
  11              		.eabi_attribute 34, 1
  12              		.eabi_attribute 18, 4
  13              		.thumb
  14              		.file	"chmboxes.c"
  15              		.text
  16              	.Ltext0:
  17              		.cfi_sections	.debug_frame
  18              		.section	.rodata
  19              		.align	2
  20              	.LC0:
  21 0000 2263684D 		.ascii	"\"chMBInit\"()\000"
  21      42496E69 
  21      74222829 
  21      00
  22              		.section	.text.chMBInit,"ax",%progbits
  23              		.align	2
  24              		.p2align 4,,15
  25              		.global	chMBInit
  26              		.thumb
  27              		.thumb_func
  28              		.type	chMBInit, %function
  29              	chMBInit:
  30              	.LFB7:
  31              		.file 1 "../../os/kernel/src/chmboxes.c"
  32              		.loc 1 65 0
  33              		.cfi_startproc
  34              		@ args = 0, pretend = 0, frame = 16
  35              		@ frame_needed = 0, uses_anonymous_args = 0
  36 0000 00B5     		push	{lr}
  37              	.LCFI0:
  38              		.cfi_def_cfa_offset 4
  39              		.cfi_offset 14, -4
  40 0002 85B0     		sub	sp, sp, #20
  41              	.LCFI1:
  42              		.cfi_def_cfa_offset 24
  43 0004 0390     		str	r0, [sp, #12]
  44 0006 0291     		str	r1, [sp, #8]
  45 0008 0192     		str	r2, [sp, #4]
  46              		.loc 1 67 0
  47 000a 039B     		ldr	r3, [sp, #12]
  48 000c 002B     		cmp	r3, #0
  49 000e 05D0     		beq	.L2
  50              		.loc 1 67 0 is_stmt 0 discriminator 2
  51 0010 029B     		ldr	r3, [sp, #8]
  52 0012 002B     		cmp	r3, #0
  53 0014 02D0     		beq	.L2
  54              		.loc 1 67 0 discriminator 3
ARM GAS  /tmp/ccw4TIrd.s 			page 2


  55 0016 019B     		ldr	r3, [sp, #4]
  56 0018 002B     		cmp	r3, #0
  57 001a 05DC     		bgt	.L3
  58              	.L2:
  59              		.loc 1 67 0 discriminator 1
  60 001c 40F20000 		movw	r0, #:lower16:.LC0
  61 0020 C0F20000 		movt	r0, #:upper16:.LC0
  62 0024 FFF7FEFF 		bl	chDbgPanic
  63              	.L3:
  64              		.loc 1 69 0 is_stmt 1
  65 0028 039B     		ldr	r3, [sp, #12]
  66 002a 029A     		ldr	r2, [sp, #8]
  67 002c DA60     		str	r2, [r3, #12]
  68 002e 039B     		ldr	r3, [sp, #12]
  69 0030 DA68     		ldr	r2, [r3, #12]
  70 0032 039B     		ldr	r3, [sp, #12]
  71 0034 9A60     		str	r2, [r3, #8]
  72 0036 039B     		ldr	r3, [sp, #12]
  73 0038 9A68     		ldr	r2, [r3, #8]
  74 003a 039B     		ldr	r3, [sp, #12]
  75 003c 1A60     		str	r2, [r3, #0]
  76              		.loc 1 70 0
  77 003e 019B     		ldr	r3, [sp, #4]
  78 0040 4FEA8303 		lsl	r3, r3, #2
  79 0044 029A     		ldr	r2, [sp, #8]
  80 0046 D218     		adds	r2, r2, r3
  81 0048 039B     		ldr	r3, [sp, #12]
  82 004a 5A60     		str	r2, [r3, #4]
  83              		.loc 1 71 0
  84 004c 039B     		ldr	r3, [sp, #12]
  85 004e 03F11C03 		add	r3, r3, #28
  86 0052 1846     		mov	r0, r3
  87 0054 0199     		ldr	r1, [sp, #4]
  88 0056 FFF7FEFF 		bl	chSemInit
  89              		.loc 1 72 0
  90 005a 039B     		ldr	r3, [sp, #12]
  91 005c 03F11003 		add	r3, r3, #16
  92 0060 1846     		mov	r0, r3
  93 0062 4FF00001 		mov	r1, #0
  94 0066 FFF7FEFF 		bl	chSemInit
  95              		.loc 1 73 0
  96 006a 05B0     		add	sp, sp, #20
  97 006c 00BD     		pop	{pc}
  98              		.cfi_endproc
  99              	.LFE7:
 100              		.size	chMBInit, .-chMBInit
 101 006e 00BF     		.section	.rodata
 102 000d 000000   		.align	2
 103              	.LC1:
 104 0010 2263684D 		.ascii	"\"chMBReset\"()\000"
 104      42526573 
 104      65742228 
 104      2900
 105              		.section	.text.chMBReset,"ax",%progbits
 106              		.align	2
 107              		.p2align 4,,15
 108              		.global	chMBReset
ARM GAS  /tmp/ccw4TIrd.s 			page 3


 109              		.thumb
 110              		.thumb_func
 111              		.type	chMBReset, %function
 112              	chMBReset:
 113              	.LFB8:
 114              		.loc 1 84 0
 115              		.cfi_startproc
 116              		@ args = 0, pretend = 0, frame = 8
 117              		@ frame_needed = 0, uses_anonymous_args = 0
 118 0000 00B5     		push	{lr}
 119              	.LCFI2:
 120              		.cfi_def_cfa_offset 4
 121              		.cfi_offset 14, -4
 122 0002 83B0     		sub	sp, sp, #12
 123              	.LCFI3:
 124              		.cfi_def_cfa_offset 16
 125 0004 0190     		str	r0, [sp, #4]
 126              		.loc 1 86 0
 127 0006 019B     		ldr	r3, [sp, #4]
 128 0008 002B     		cmp	r3, #0
 129 000a 05D1     		bne	.L5
 130              		.loc 1 86 0 is_stmt 0 discriminator 1
 131 000c 40F20000 		movw	r0, #:lower16:.LC1
 132 0010 C0F20000 		movt	r0, #:upper16:.LC1
 133 0014 FFF7FEFF 		bl	chDbgPanic
 134              	.L5:
 135              	.LBB2:
 136              		.loc 1 88 0 is_stmt 1
 137 0018 4FF02003 		mov	r3, #32
 138              	@ 88 "../../os/kernel/src/chmboxes.c" 1
 139 001c 83F31188 		msr     BASEPRI, r3
 140              	@ 0 "" 2
 141              		.thumb
 142              	.LBE2:
 143 0020 FFF7FEFF 		bl	dbg_check_lock
 144              		.loc 1 89 0
 145 0024 019B     		ldr	r3, [sp, #4]
 146 0026 1A68     		ldr	r2, [r3, #0]
 147 0028 019B     		ldr	r3, [sp, #4]
 148 002a DA60     		str	r2, [r3, #12]
 149 002c 019B     		ldr	r3, [sp, #4]
 150 002e DA68     		ldr	r2, [r3, #12]
 151 0030 019B     		ldr	r3, [sp, #4]
 152 0032 9A60     		str	r2, [r3, #8]
 153              		.loc 1 90 0
 154 0034 019B     		ldr	r3, [sp, #4]
 155 0036 03F11C02 		add	r2, r3, #28
 156 003a 019B     		ldr	r3, [sp, #4]
 157 003c 5B68     		ldr	r3, [r3, #4]
 158 003e 1946     		mov	r1, r3
 159 0040 019B     		ldr	r3, [sp, #4]
 160 0042 1B68     		ldr	r3, [r3, #0]
 161 0044 CB1A     		subs	r3, r1, r3
 162 0046 4FEAA303 		asr	r3, r3, #2
 163 004a 1046     		mov	r0, r2
 164 004c 1946     		mov	r1, r3
 165 004e FFF7FEFF 		bl	chSemResetI
ARM GAS  /tmp/ccw4TIrd.s 			page 4


 166              		.loc 1 91 0
 167 0052 019B     		ldr	r3, [sp, #4]
 168 0054 03F11003 		add	r3, r3, #16
 169 0058 1846     		mov	r0, r3
 170 005a 4FF00001 		mov	r1, #0
 171 005e FFF7FEFF 		bl	chSemResetI
 172              		.loc 1 92 0
 173 0062 FFF7FEFF 		bl	chSchRescheduleS
 174              		.loc 1 93 0
 175 0066 FFF7FEFF 		bl	dbg_check_unlock
 176              	.LBB3:
 177 006a 4FF00003 		mov	r3, #0
 178              	@ 93 "../../os/kernel/src/chmboxes.c" 1
 179 006e 83F31188 		msr     BASEPRI, r3
 180              	@ 0 "" 2
 181              		.thumb
 182              	.LBE3:
 183              		.loc 1 94 0
 184 0072 03B0     		add	sp, sp, #12
 185 0074 00BD     		pop	{pc}
 186              		.cfi_endproc
 187              	.LFE8:
 188              		.size	chMBReset, .-chMBReset
 189 0076 00BFAFF3 		.section	.text.chMBPost,"ax",%progbits
 189      0080AFF3 
 189      0080
 190              		.align	2
 191              		.p2align 4,,15
 192              		.global	chMBPost
 193              		.thumb
 194              		.thumb_func
 195              		.type	chMBPost, %function
 196              	chMBPost:
 197              	.LFB9:
 198              		.loc 1 115 0
 199              		.cfi_startproc
 200              		@ args = 0, pretend = 0, frame = 24
 201              		@ frame_needed = 0, uses_anonymous_args = 0
 202 0000 00B5     		push	{lr}
 203              	.LCFI4:
 204              		.cfi_def_cfa_offset 4
 205              		.cfi_offset 14, -4
 206 0002 87B0     		sub	sp, sp, #28
 207              	.LCFI5:
 208              		.cfi_def_cfa_offset 32
 209 0004 0390     		str	r0, [sp, #12]
 210 0006 0291     		str	r1, [sp, #8]
 211 0008 0192     		str	r2, [sp, #4]
 212              	.LBB4:
 213              		.loc 1 118 0
 214 000a 4FF02003 		mov	r3, #32
 215              	@ 118 "../../os/kernel/src/chmboxes.c" 1
 216 000e 83F31188 		msr     BASEPRI, r3
 217              	@ 0 "" 2
 218              		.thumb
 219              	.LBE4:
 220 0012 FFF7FEFF 		bl	dbg_check_lock
ARM GAS  /tmp/ccw4TIrd.s 			page 5


 221              		.loc 1 119 0
 222 0016 0398     		ldr	r0, [sp, #12]
 223 0018 0299     		ldr	r1, [sp, #8]
 224 001a 019A     		ldr	r2, [sp, #4]
 225 001c FFF7FEFF 		bl	chMBPostS
 226 0020 0346     		mov	r3, r0
 227 0022 0593     		str	r3, [sp, #20]
 228              		.loc 1 120 0
 229 0024 FFF7FEFF 		bl	dbg_check_unlock
 230              	.LBB5:
 231 0028 4FF00003 		mov	r3, #0
 232              	@ 120 "../../os/kernel/src/chmboxes.c" 1
 233 002c 83F31188 		msr     BASEPRI, r3
 234              	@ 0 "" 2
 235              		.thumb
 236              	.LBE5:
 237              		.loc 1 121 0
 238 0030 059B     		ldr	r3, [sp, #20]
 239              		.loc 1 122 0
 240 0032 1846     		mov	r0, r3
 241 0034 07B0     		add	sp, sp, #28
 242 0036 00BD     		pop	{pc}
 243              		.cfi_endproc
 244              	.LFE9:
 245              		.size	chMBPost, .-chMBPost
 246 0038 AFF30080 		.section	.rodata
 246      AFF30080 
 247 001e 0000     		.align	2
 248              	.LC2:
 249 0020 2263684D 		.ascii	"\"chMBPostS\"()\000"
 249      42506F73 
 249      74532228 
 249      2900
 250              		.section	.text.chMBPostS,"ax",%progbits
 251              		.align	2
 252              		.p2align 4,,15
 253              		.global	chMBPostS
 254              		.thumb
 255              		.thumb_func
 256              		.type	chMBPostS, %function
 257              	chMBPostS:
 258              	.LFB10:
 259              		.loc 1 143 0
 260              		.cfi_startproc
 261              		@ args = 0, pretend = 0, frame = 24
 262              		@ frame_needed = 0, uses_anonymous_args = 0
 263 0000 00B5     		push	{lr}
 264              	.LCFI6:
 265              		.cfi_def_cfa_offset 4
 266              		.cfi_offset 14, -4
 267 0002 87B0     		sub	sp, sp, #28
 268              	.LCFI7:
 269              		.cfi_def_cfa_offset 32
 270 0004 0390     		str	r0, [sp, #12]
 271 0006 0291     		str	r1, [sp, #8]
 272 0008 0192     		str	r2, [sp, #4]
 273              		.loc 1 146 0
ARM GAS  /tmp/ccw4TIrd.s 			page 6


 274 000a FFF7FEFF 		bl	chDbgCheckClassS
 275              		.loc 1 147 0
 276 000e 039B     		ldr	r3, [sp, #12]
 277 0010 002B     		cmp	r3, #0
 278 0012 05D1     		bne	.L8
 279              		.loc 1 147 0 is_stmt 0 discriminator 1
 280 0014 40F20000 		movw	r0, #:lower16:.LC2
 281 0018 C0F20000 		movt	r0, #:upper16:.LC2
 282 001c FFF7FEFF 		bl	chDbgPanic
 283              	.L8:
 284              		.loc 1 149 0 is_stmt 1
 285 0020 039B     		ldr	r3, [sp, #12]
 286 0022 03F11C03 		add	r3, r3, #28
 287 0026 1846     		mov	r0, r3
 288 0028 0199     		ldr	r1, [sp, #4]
 289 002a FFF7FEFF 		bl	chSemWaitTimeoutS
 290 002e 0346     		mov	r3, r0
 291 0030 0593     		str	r3, [sp, #20]
 292              		.loc 1 150 0
 293 0032 059B     		ldr	r3, [sp, #20]
 294 0034 002B     		cmp	r3, #0
 295 0036 19D1     		bne	.L9
 296              		.loc 1 151 0
 297 0038 039B     		ldr	r3, [sp, #12]
 298 003a 9B68     		ldr	r3, [r3, #8]
 299 003c 029A     		ldr	r2, [sp, #8]
 300 003e 1A60     		str	r2, [r3, #0]
 301 0040 03F10402 		add	r2, r3, #4
 302 0044 039B     		ldr	r3, [sp, #12]
 303 0046 9A60     		str	r2, [r3, #8]
 304              		.loc 1 152 0
 305 0048 039B     		ldr	r3, [sp, #12]
 306 004a 9A68     		ldr	r2, [r3, #8]
 307 004c 039B     		ldr	r3, [sp, #12]
 308 004e 5B68     		ldr	r3, [r3, #4]
 309 0050 9A42     		cmp	r2, r3
 310 0052 03D3     		bcc	.L10
 311              		.loc 1 153 0
 312 0054 039B     		ldr	r3, [sp, #12]
 313 0056 1A68     		ldr	r2, [r3, #0]
 314 0058 039B     		ldr	r3, [sp, #12]
 315 005a 9A60     		str	r2, [r3, #8]
 316              	.L10:
 317              		.loc 1 154 0
 318 005c 039B     		ldr	r3, [sp, #12]
 319 005e 03F11003 		add	r3, r3, #16
 320 0062 1846     		mov	r0, r3
 321 0064 FFF7FEFF 		bl	chSemSignalI
 322              		.loc 1 155 0
 323 0068 FFF7FEFF 		bl	chSchRescheduleS
 324              	.L9:
 325              		.loc 1 157 0
 326 006c 059B     		ldr	r3, [sp, #20]
 327              		.loc 1 158 0
 328 006e 1846     		mov	r0, r3
 329 0070 07B0     		add	sp, sp, #28
 330 0072 00BD     		pop	{pc}
ARM GAS  /tmp/ccw4TIrd.s 			page 7


 331              		.cfi_endproc
 332              	.LFE10:
 333              		.size	chMBPostS, .-chMBPostS
 334 0074 AFF30080 		.section	.rodata
 334      AFF30080 
 334      AFF30080 
 335 002e 0000     		.align	2
 336              	.LC3:
 337 0030 2263684D 		.ascii	"\"chMBPostI\"()\000"
 337      42506F73 
 337      74492228 
 337      2900
 338              		.section	.text.chMBPostI,"ax",%progbits
 339              		.align	2
 340              		.p2align 4,,15
 341              		.global	chMBPostI
 342              		.thumb
 343              		.thumb_func
 344              		.type	chMBPostI, %function
 345              	chMBPostI:
 346              	.LFB11:
 347              		.loc 1 174 0
 348              		.cfi_startproc
 349              		@ args = 0, pretend = 0, frame = 8
 350              		@ frame_needed = 0, uses_anonymous_args = 0
 351 0000 00B5     		push	{lr}
 352              	.LCFI8:
 353              		.cfi_def_cfa_offset 4
 354              		.cfi_offset 14, -4
 355 0002 83B0     		sub	sp, sp, #12
 356              	.LCFI9:
 357              		.cfi_def_cfa_offset 16
 358 0004 0190     		str	r0, [sp, #4]
 359 0006 0091     		str	r1, [sp, #0]
 360              		.loc 1 176 0
 361 0008 FFF7FEFF 		bl	chDbgCheckClassI
 362              		.loc 1 177 0
 363 000c 019B     		ldr	r3, [sp, #4]
 364 000e 002B     		cmp	r3, #0
 365 0010 05D1     		bne	.L12
 366              		.loc 1 177 0 is_stmt 0 discriminator 1
 367 0012 40F20000 		movw	r0, #:lower16:.LC3
 368 0016 C0F20000 		movt	r0, #:upper16:.LC3
 369 001a FFF7FEFF 		bl	chDbgPanic
 370              	.L12:
 371              		.loc 1 179 0 is_stmt 1
 372 001e 019B     		ldr	r3, [sp, #4]
 373 0020 5B6A     		ldr	r3, [r3, #36]
 374 0022 002B     		cmp	r3, #0
 375 0024 02DC     		bgt	.L13
 376              		.loc 1 180 0
 377 0026 4FF0FF33 		mov	r3, #-1
 378 002a 1FE0     		b	.L14
 379              	.L13:
 380              		.loc 1 181 0
 381 002c 019B     		ldr	r3, [sp, #4]
 382 002e 5B6A     		ldr	r3, [r3, #36]
ARM GAS  /tmp/ccw4TIrd.s 			page 8


 383 0030 03F1FF32 		add	r2, r3, #-1
 384 0034 019B     		ldr	r3, [sp, #4]
 385 0036 5A62     		str	r2, [r3, #36]
 386              		.loc 1 182 0
 387 0038 019B     		ldr	r3, [sp, #4]
 388 003a 9B68     		ldr	r3, [r3, #8]
 389 003c 009A     		ldr	r2, [sp, #0]
 390 003e 1A60     		str	r2, [r3, #0]
 391 0040 03F10402 		add	r2, r3, #4
 392 0044 019B     		ldr	r3, [sp, #4]
 393 0046 9A60     		str	r2, [r3, #8]
 394              		.loc 1 183 0
 395 0048 019B     		ldr	r3, [sp, #4]
 396 004a 9A68     		ldr	r2, [r3, #8]
 397 004c 019B     		ldr	r3, [sp, #4]
 398 004e 5B68     		ldr	r3, [r3, #4]
 399 0050 9A42     		cmp	r2, r3
 400 0052 03D3     		bcc	.L15
 401              		.loc 1 184 0
 402 0054 019B     		ldr	r3, [sp, #4]
 403 0056 1A68     		ldr	r2, [r3, #0]
 404 0058 019B     		ldr	r3, [sp, #4]
 405 005a 9A60     		str	r2, [r3, #8]
 406              	.L15:
 407              		.loc 1 185 0
 408 005c 019B     		ldr	r3, [sp, #4]
 409 005e 03F11003 		add	r3, r3, #16
 410 0062 1846     		mov	r0, r3
 411 0064 FFF7FEFF 		bl	chSemSignalI
 412              		.loc 1 186 0
 413 0068 4FF00003 		mov	r3, #0
 414              	.L14:
 415              		.loc 1 187 0
 416 006c 1846     		mov	r0, r3
 417 006e 03B0     		add	sp, sp, #12
 418 0070 00BD     		pop	{pc}
 419              		.cfi_endproc
 420              	.LFE11:
 421              		.size	chMBPostI, .-chMBPostI
 422 0072 00BFAFF3 		.section	.text.chMBPostAhead,"ax",%progbits
 422      0080AFF3 
 422      0080AFF3 
 422      0080
 423              		.align	2
 424              		.p2align 4,,15
 425              		.global	chMBPostAhead
 426              		.thumb
 427              		.thumb_func
 428              		.type	chMBPostAhead, %function
 429              	chMBPostAhead:
 430              	.LFB12:
 431              		.loc 1 208 0
 432              		.cfi_startproc
 433              		@ args = 0, pretend = 0, frame = 24
 434              		@ frame_needed = 0, uses_anonymous_args = 0
 435 0000 00B5     		push	{lr}
 436              	.LCFI10:
ARM GAS  /tmp/ccw4TIrd.s 			page 9


 437              		.cfi_def_cfa_offset 4
 438              		.cfi_offset 14, -4
 439 0002 87B0     		sub	sp, sp, #28
 440              	.LCFI11:
 441              		.cfi_def_cfa_offset 32
 442 0004 0390     		str	r0, [sp, #12]
 443 0006 0291     		str	r1, [sp, #8]
 444 0008 0192     		str	r2, [sp, #4]
 445              	.LBB6:
 446              		.loc 1 211 0
 447 000a 4FF02003 		mov	r3, #32
 448              	@ 211 "../../os/kernel/src/chmboxes.c" 1
 449 000e 83F31188 		msr     BASEPRI, r3
 450              	@ 0 "" 2
 451              		.thumb
 452              	.LBE6:
 453 0012 FFF7FEFF 		bl	dbg_check_lock
 454              		.loc 1 212 0
 455 0016 0398     		ldr	r0, [sp, #12]
 456 0018 0299     		ldr	r1, [sp, #8]
 457 001a 019A     		ldr	r2, [sp, #4]
 458 001c FFF7FEFF 		bl	chMBPostAheadS
 459 0020 0346     		mov	r3, r0
 460 0022 0593     		str	r3, [sp, #20]
 461              		.loc 1 213 0
 462 0024 FFF7FEFF 		bl	dbg_check_unlock
 463              	.LBB7:
 464 0028 4FF00003 		mov	r3, #0
 465              	@ 213 "../../os/kernel/src/chmboxes.c" 1
 466 002c 83F31188 		msr     BASEPRI, r3
 467              	@ 0 "" 2
 468              		.thumb
 469              	.LBE7:
 470              		.loc 1 214 0
 471 0030 059B     		ldr	r3, [sp, #20]
 472              		.loc 1 215 0
 473 0032 1846     		mov	r0, r3
 474 0034 07B0     		add	sp, sp, #28
 475 0036 00BD     		pop	{pc}
 476              		.cfi_endproc
 477              	.LFE12:
 478              		.size	chMBPostAhead, .-chMBPostAhead
 479 0038 AFF30080 		.section	.rodata
 479      AFF30080 
 480 003e 0000     		.align	2
 481              	.LC4:
 482 0040 2263684D 		.ascii	"\"chMBPostAheadS\"()\000"
 482      42506F73 
 482      74416865 
 482      61645322 
 482      282900
 483              		.section	.text.chMBPostAheadS,"ax",%progbits
 484              		.align	2
 485              		.p2align 4,,15
 486              		.global	chMBPostAheadS
 487              		.thumb
 488              		.thumb_func
ARM GAS  /tmp/ccw4TIrd.s 			page 10


 489              		.type	chMBPostAheadS, %function
 490              	chMBPostAheadS:
 491              	.LFB13:
 492              		.loc 1 236 0
 493              		.cfi_startproc
 494              		@ args = 0, pretend = 0, frame = 24
 495              		@ frame_needed = 0, uses_anonymous_args = 0
 496 0000 00B5     		push	{lr}
 497              	.LCFI12:
 498              		.cfi_def_cfa_offset 4
 499              		.cfi_offset 14, -4
 500 0002 87B0     		sub	sp, sp, #28
 501              	.LCFI13:
 502              		.cfi_def_cfa_offset 32
 503 0004 0390     		str	r0, [sp, #12]
 504 0006 0291     		str	r1, [sp, #8]
 505 0008 0192     		str	r2, [sp, #4]
 506              		.loc 1 239 0
 507 000a FFF7FEFF 		bl	chDbgCheckClassS
 508              		.loc 1 240 0
 509 000e 039B     		ldr	r3, [sp, #12]
 510 0010 002B     		cmp	r3, #0
 511 0012 05D1     		bne	.L18
 512              		.loc 1 240 0 is_stmt 0 discriminator 1
 513 0014 40F20000 		movw	r0, #:lower16:.LC4
 514 0018 C0F20000 		movt	r0, #:upper16:.LC4
 515 001c FFF7FEFF 		bl	chDbgPanic
 516              	.L18:
 517              		.loc 1 242 0 is_stmt 1
 518 0020 039B     		ldr	r3, [sp, #12]
 519 0022 03F11C03 		add	r3, r3, #28
 520 0026 1846     		mov	r0, r3
 521 0028 0199     		ldr	r1, [sp, #4]
 522 002a FFF7FEFF 		bl	chSemWaitTimeoutS
 523 002e 0346     		mov	r3, r0
 524 0030 0593     		str	r3, [sp, #20]
 525              		.loc 1 243 0
 526 0032 059B     		ldr	r3, [sp, #20]
 527 0034 002B     		cmp	r3, #0
 528 0036 1DD1     		bne	.L19
 529              		.loc 1 244 0
 530 0038 039B     		ldr	r3, [sp, #12]
 531 003a DB68     		ldr	r3, [r3, #12]
 532 003c A3F10402 		sub	r2, r3, #4
 533 0040 039B     		ldr	r3, [sp, #12]
 534 0042 DA60     		str	r2, [r3, #12]
 535 0044 039B     		ldr	r3, [sp, #12]
 536 0046 DA68     		ldr	r2, [r3, #12]
 537 0048 039B     		ldr	r3, [sp, #12]
 538 004a 1B68     		ldr	r3, [r3, #0]
 539 004c 9A42     		cmp	r2, r3
 540 004e 05D2     		bcs	.L20
 541              		.loc 1 245 0
 542 0050 039B     		ldr	r3, [sp, #12]
 543 0052 5B68     		ldr	r3, [r3, #4]
 544 0054 A3F10402 		sub	r2, r3, #4
 545 0058 039B     		ldr	r3, [sp, #12]
ARM GAS  /tmp/ccw4TIrd.s 			page 11


 546 005a DA60     		str	r2, [r3, #12]
 547              	.L20:
 548              		.loc 1 246 0
 549 005c 039B     		ldr	r3, [sp, #12]
 550 005e DB68     		ldr	r3, [r3, #12]
 551 0060 029A     		ldr	r2, [sp, #8]
 552 0062 1A60     		str	r2, [r3, #0]
 553              		.loc 1 247 0
 554 0064 039B     		ldr	r3, [sp, #12]
 555 0066 03F11003 		add	r3, r3, #16
 556 006a 1846     		mov	r0, r3
 557 006c FFF7FEFF 		bl	chSemSignalI
 558              		.loc 1 248 0
 559 0070 FFF7FEFF 		bl	chSchRescheduleS
 560              	.L19:
 561              		.loc 1 250 0
 562 0074 059B     		ldr	r3, [sp, #20]
 563              		.loc 1 251 0
 564 0076 1846     		mov	r0, r3
 565 0078 07B0     		add	sp, sp, #28
 566 007a 00BD     		pop	{pc}
 567              		.cfi_endproc
 568              	.LFE13:
 569              		.size	chMBPostAheadS, .-chMBPostAheadS
 570 007c AFF30080 		.section	.rodata
 571 0053 00       		.align	2
 572              	.LC5:
 573 0054 2263684D 		.ascii	"\"chMBPostAheadI\"()\000"
 573      42506F73 
 573      74416865 
 573      61644922 
 573      282900
 574              		.section	.text.chMBPostAheadI,"ax",%progbits
 575              		.align	2
 576              		.p2align 4,,15
 577              		.global	chMBPostAheadI
 578              		.thumb
 579              		.thumb_func
 580              		.type	chMBPostAheadI, %function
 581              	chMBPostAheadI:
 582              	.LFB14:
 583              		.loc 1 267 0
 584              		.cfi_startproc
 585              		@ args = 0, pretend = 0, frame = 8
 586              		@ frame_needed = 0, uses_anonymous_args = 0
 587 0000 00B5     		push	{lr}
 588              	.LCFI14:
 589              		.cfi_def_cfa_offset 4
 590              		.cfi_offset 14, -4
 591 0002 83B0     		sub	sp, sp, #12
 592              	.LCFI15:
 593              		.cfi_def_cfa_offset 16
 594 0004 0190     		str	r0, [sp, #4]
 595 0006 0091     		str	r1, [sp, #0]
 596              		.loc 1 269 0
 597 0008 FFF7FEFF 		bl	chDbgCheckClassI
 598              		.loc 1 270 0
ARM GAS  /tmp/ccw4TIrd.s 			page 12


 599 000c 019B     		ldr	r3, [sp, #4]
 600 000e 002B     		cmp	r3, #0
 601 0010 05D1     		bne	.L22
 602              		.loc 1 270 0 is_stmt 0 discriminator 1
 603 0012 40F20000 		movw	r0, #:lower16:.LC5
 604 0016 C0F20000 		movt	r0, #:upper16:.LC5
 605 001a FFF7FEFF 		bl	chDbgPanic
 606              	.L22:
 607              		.loc 1 272 0 is_stmt 1
 608 001e 019B     		ldr	r3, [sp, #4]
 609 0020 5B6A     		ldr	r3, [r3, #36]
 610 0022 002B     		cmp	r3, #0
 611 0024 02DC     		bgt	.L23
 612              		.loc 1 273 0
 613 0026 4FF0FF33 		mov	r3, #-1
 614 002a 23E0     		b	.L24
 615              	.L23:
 616              		.loc 1 274 0
 617 002c 019B     		ldr	r3, [sp, #4]
 618 002e 5B6A     		ldr	r3, [r3, #36]
 619 0030 03F1FF32 		add	r2, r3, #-1
 620 0034 019B     		ldr	r3, [sp, #4]
 621 0036 5A62     		str	r2, [r3, #36]
 622              		.loc 1 275 0
 623 0038 019B     		ldr	r3, [sp, #4]
 624 003a DB68     		ldr	r3, [r3, #12]
 625 003c A3F10402 		sub	r2, r3, #4
 626 0040 019B     		ldr	r3, [sp, #4]
 627 0042 DA60     		str	r2, [r3, #12]
 628 0044 019B     		ldr	r3, [sp, #4]
 629 0046 DA68     		ldr	r2, [r3, #12]
 630 0048 019B     		ldr	r3, [sp, #4]
 631 004a 1B68     		ldr	r3, [r3, #0]
 632 004c 9A42     		cmp	r2, r3
 633 004e 05D2     		bcs	.L25
 634              		.loc 1 276 0
 635 0050 019B     		ldr	r3, [sp, #4]
 636 0052 5B68     		ldr	r3, [r3, #4]
 637 0054 A3F10402 		sub	r2, r3, #4
 638 0058 019B     		ldr	r3, [sp, #4]
 639 005a DA60     		str	r2, [r3, #12]
 640              	.L25:
 641              		.loc 1 277 0
 642 005c 019B     		ldr	r3, [sp, #4]
 643 005e DB68     		ldr	r3, [r3, #12]
 644 0060 009A     		ldr	r2, [sp, #0]
 645 0062 1A60     		str	r2, [r3, #0]
 646              		.loc 1 278 0
 647 0064 019B     		ldr	r3, [sp, #4]
 648 0066 03F11003 		add	r3, r3, #16
 649 006a 1846     		mov	r0, r3
 650 006c FFF7FEFF 		bl	chSemSignalI
 651              		.loc 1 279 0
 652 0070 4FF00003 		mov	r3, #0
 653              	.L24:
 654              		.loc 1 280 0
 655 0074 1846     		mov	r0, r3
ARM GAS  /tmp/ccw4TIrd.s 			page 13


 656 0076 03B0     		add	sp, sp, #12
 657 0078 00BD     		pop	{pc}
 658              		.cfi_endproc
 659              	.LFE14:
 660              		.size	chMBPostAheadI, .-chMBPostAheadI
 661 007a 00BFAFF3 		.section	.text.chMBFetch,"ax",%progbits
 661      0080
 662              		.align	2
 663              		.p2align 4,,15
 664              		.global	chMBFetch
 665              		.thumb
 666              		.thumb_func
 667              		.type	chMBFetch, %function
 668              	chMBFetch:
 669              	.LFB15:
 670              		.loc 1 301 0
 671              		.cfi_startproc
 672              		@ args = 0, pretend = 0, frame = 24
 673              		@ frame_needed = 0, uses_anonymous_args = 0
 674 0000 00B5     		push	{lr}
 675              	.LCFI16:
 676              		.cfi_def_cfa_offset 4
 677              		.cfi_offset 14, -4
 678 0002 87B0     		sub	sp, sp, #28
 679              	.LCFI17:
 680              		.cfi_def_cfa_offset 32
 681 0004 0390     		str	r0, [sp, #12]
 682 0006 0291     		str	r1, [sp, #8]
 683 0008 0192     		str	r2, [sp, #4]
 684              	.LBB8:
 685              		.loc 1 304 0
 686 000a 4FF02003 		mov	r3, #32
 687              	@ 304 "../../os/kernel/src/chmboxes.c" 1
 688 000e 83F31188 		msr     BASEPRI, r3
 689              	@ 0 "" 2
 690              		.thumb
 691              	.LBE8:
 692 0012 FFF7FEFF 		bl	dbg_check_lock
 693              		.loc 1 305 0
 694 0016 0398     		ldr	r0, [sp, #12]
 695 0018 0299     		ldr	r1, [sp, #8]
 696 001a 019A     		ldr	r2, [sp, #4]
 697 001c FFF7FEFF 		bl	chMBFetchS
 698 0020 0346     		mov	r3, r0
 699 0022 0593     		str	r3, [sp, #20]
 700              		.loc 1 306 0
 701 0024 FFF7FEFF 		bl	dbg_check_unlock
 702              	.LBB9:
 703 0028 4FF00003 		mov	r3, #0
 704              	@ 306 "../../os/kernel/src/chmboxes.c" 1
 705 002c 83F31188 		msr     BASEPRI, r3
 706              	@ 0 "" 2
 707              		.thumb
 708              	.LBE9:
 709              		.loc 1 307 0
 710 0030 059B     		ldr	r3, [sp, #20]
 711              		.loc 1 308 0
ARM GAS  /tmp/ccw4TIrd.s 			page 14


 712 0032 1846     		mov	r0, r3
 713 0034 07B0     		add	sp, sp, #28
 714 0036 00BD     		pop	{pc}
 715              		.cfi_endproc
 716              	.LFE15:
 717              		.size	chMBFetch, .-chMBFetch
 718 0038 AFF30080 		.section	.rodata
 718      AFF30080 
 719 0067 00       		.align	2
 720              	.LC6:
 721 0068 2263684D 		.ascii	"\"chMBFetchS\"()\000"
 721      42466574 
 721      63685322 
 721      282900
 722              		.section	.text.chMBFetchS,"ax",%progbits
 723              		.align	2
 724              		.p2align 4,,15
 725              		.global	chMBFetchS
 726              		.thumb
 727              		.thumb_func
 728              		.type	chMBFetchS, %function
 729              	chMBFetchS:
 730              	.LFB16:
 731              		.loc 1 329 0
 732              		.cfi_startproc
 733              		@ args = 0, pretend = 0, frame = 24
 734              		@ frame_needed = 0, uses_anonymous_args = 0
 735 0000 00B5     		push	{lr}
 736              	.LCFI18:
 737              		.cfi_def_cfa_offset 4
 738              		.cfi_offset 14, -4
 739 0002 87B0     		sub	sp, sp, #28
 740              	.LCFI19:
 741              		.cfi_def_cfa_offset 32
 742 0004 0390     		str	r0, [sp, #12]
 743 0006 0291     		str	r1, [sp, #8]
 744 0008 0192     		str	r2, [sp, #4]
 745              		.loc 1 332 0
 746 000a FFF7FEFF 		bl	chDbgCheckClassS
 747              		.loc 1 333 0
 748 000e 039B     		ldr	r3, [sp, #12]
 749 0010 002B     		cmp	r3, #0
 750 0012 02D0     		beq	.L28
 751              		.loc 1 333 0 is_stmt 0 discriminator 2
 752 0014 029B     		ldr	r3, [sp, #8]
 753 0016 002B     		cmp	r3, #0
 754 0018 05D1     		bne	.L29
 755              	.L28:
 756              		.loc 1 333 0 discriminator 1
 757 001a 40F20000 		movw	r0, #:lower16:.LC6
 758 001e C0F20000 		movt	r0, #:upper16:.LC6
 759 0022 FFF7FEFF 		bl	chDbgPanic
 760              	.L29:
 761              		.loc 1 335 0 is_stmt 1
 762 0026 039B     		ldr	r3, [sp, #12]
 763 0028 03F11003 		add	r3, r3, #16
 764 002c 1846     		mov	r0, r3
ARM GAS  /tmp/ccw4TIrd.s 			page 15


 765 002e 0199     		ldr	r1, [sp, #4]
 766 0030 FFF7FEFF 		bl	chSemWaitTimeoutS
 767 0034 0346     		mov	r3, r0
 768 0036 0593     		str	r3, [sp, #20]
 769              		.loc 1 336 0
 770 0038 059B     		ldr	r3, [sp, #20]
 771 003a 002B     		cmp	r3, #0
 772 003c 1AD1     		bne	.L30
 773              		.loc 1 337 0
 774 003e 039B     		ldr	r3, [sp, #12]
 775 0040 DB68     		ldr	r3, [r3, #12]
 776 0042 1968     		ldr	r1, [r3, #0]
 777 0044 029A     		ldr	r2, [sp, #8]
 778 0046 1160     		str	r1, [r2, #0]
 779 0048 03F10402 		add	r2, r3, #4
 780 004c 039B     		ldr	r3, [sp, #12]
 781 004e DA60     		str	r2, [r3, #12]
 782              		.loc 1 338 0
 783 0050 039B     		ldr	r3, [sp, #12]
 784 0052 DA68     		ldr	r2, [r3, #12]
 785 0054 039B     		ldr	r3, [sp, #12]
 786 0056 5B68     		ldr	r3, [r3, #4]
 787 0058 9A42     		cmp	r2, r3
 788 005a 03D3     		bcc	.L31
 789              		.loc 1 339 0
 790 005c 039B     		ldr	r3, [sp, #12]
 791 005e 1A68     		ldr	r2, [r3, #0]
 792 0060 039B     		ldr	r3, [sp, #12]
 793 0062 DA60     		str	r2, [r3, #12]
 794              	.L31:
 795              		.loc 1 340 0
 796 0064 039B     		ldr	r3, [sp, #12]
 797 0066 03F11C03 		add	r3, r3, #28
 798 006a 1846     		mov	r0, r3
 799 006c FFF7FEFF 		bl	chSemSignalI
 800              		.loc 1 341 0
 801 0070 FFF7FEFF 		bl	chSchRescheduleS
 802              	.L30:
 803              		.loc 1 343 0
 804 0074 059B     		ldr	r3, [sp, #20]
 805              		.loc 1 344 0
 806 0076 1846     		mov	r0, r3
 807 0078 07B0     		add	sp, sp, #28
 808 007a 00BD     		pop	{pc}
 809              		.cfi_endproc
 810              	.LFE16:
 811              		.size	chMBFetchS, .-chMBFetchS
 812 007c AFF30080 		.section	.rodata
 813 0077 00       		.align	2
 814              	.LC7:
 815 0078 2263684D 		.ascii	"\"chMBFetchI\"()\000"
 815      42466574 
 815      63684922 
 815      282900
 816 0087 00       		.section	.text.chMBFetchI,"ax",%progbits
 817              		.align	2
 818              		.p2align 4,,15
ARM GAS  /tmp/ccw4TIrd.s 			page 16


 819              		.global	chMBFetchI
 820              		.thumb
 821              		.thumb_func
 822              		.type	chMBFetchI, %function
 823              	chMBFetchI:
 824              	.LFB17:
 825              		.loc 1 360 0
 826              		.cfi_startproc
 827              		@ args = 0, pretend = 0, frame = 8
 828              		@ frame_needed = 0, uses_anonymous_args = 0
 829 0000 00B5     		push	{lr}
 830              	.LCFI20:
 831              		.cfi_def_cfa_offset 4
 832              		.cfi_offset 14, -4
 833 0002 83B0     		sub	sp, sp, #12
 834              	.LCFI21:
 835              		.cfi_def_cfa_offset 16
 836 0004 0190     		str	r0, [sp, #4]
 837 0006 0091     		str	r1, [sp, #0]
 838              		.loc 1 362 0
 839 0008 FFF7FEFF 		bl	chDbgCheckClassI
 840              		.loc 1 363 0
 841 000c 019B     		ldr	r3, [sp, #4]
 842 000e 002B     		cmp	r3, #0
 843 0010 02D0     		beq	.L33
 844              		.loc 1 363 0 is_stmt 0 discriminator 2
 845 0012 009B     		ldr	r3, [sp, #0]
 846 0014 002B     		cmp	r3, #0
 847 0016 05D1     		bne	.L34
 848              	.L33:
 849              		.loc 1 363 0 discriminator 1
 850 0018 40F20000 		movw	r0, #:lower16:.LC7
 851 001c C0F20000 		movt	r0, #:upper16:.LC7
 852 0020 FFF7FEFF 		bl	chDbgPanic
 853              	.L34:
 854              		.loc 1 365 0 is_stmt 1
 855 0024 019B     		ldr	r3, [sp, #4]
 856 0026 9B69     		ldr	r3, [r3, #24]
 857 0028 002B     		cmp	r3, #0
 858 002a 02DC     		bgt	.L35
 859              		.loc 1 366 0
 860 002c 4FF0FF33 		mov	r3, #-1
 861 0030 20E0     		b	.L36
 862              	.L35:
 863              		.loc 1 367 0
 864 0032 019B     		ldr	r3, [sp, #4]
 865 0034 9B69     		ldr	r3, [r3, #24]
 866 0036 03F1FF32 		add	r2, r3, #-1
 867 003a 019B     		ldr	r3, [sp, #4]
 868 003c 9A61     		str	r2, [r3, #24]
 869              		.loc 1 368 0
 870 003e 019B     		ldr	r3, [sp, #4]
 871 0040 DB68     		ldr	r3, [r3, #12]
 872 0042 1968     		ldr	r1, [r3, #0]
 873 0044 009A     		ldr	r2, [sp, #0]
 874 0046 1160     		str	r1, [r2, #0]
 875 0048 03F10402 		add	r2, r3, #4
ARM GAS  /tmp/ccw4TIrd.s 			page 17


 876 004c 019B     		ldr	r3, [sp, #4]
 877 004e DA60     		str	r2, [r3, #12]
 878              		.loc 1 369 0
 879 0050 019B     		ldr	r3, [sp, #4]
 880 0052 DA68     		ldr	r2, [r3, #12]
 881 0054 019B     		ldr	r3, [sp, #4]
 882 0056 5B68     		ldr	r3, [r3, #4]
 883 0058 9A42     		cmp	r2, r3
 884 005a 03D3     		bcc	.L37
 885              		.loc 1 370 0
 886 005c 019B     		ldr	r3, [sp, #4]
 887 005e 1A68     		ldr	r2, [r3, #0]
 888 0060 019B     		ldr	r3, [sp, #4]
 889 0062 DA60     		str	r2, [r3, #12]
 890              	.L37:
 891              		.loc 1 371 0
 892 0064 019B     		ldr	r3, [sp, #4]
 893 0066 03F11C03 		add	r3, r3, #28
 894 006a 1846     		mov	r0, r3
 895 006c FFF7FEFF 		bl	chSemSignalI
 896              		.loc 1 372 0
 897 0070 4FF00003 		mov	r3, #0
 898              	.L36:
 899              		.loc 1 373 0
 900 0074 1846     		mov	r0, r3
 901 0076 03B0     		add	sp, sp, #12
 902 0078 00BD     		pop	{pc}
 903              		.cfi_endproc
 904              	.LFE17:
 905              		.size	chMBFetchI, .-chMBFetchI
 906 007a 00BFAFF3 		.text
 906      0080
 907              	.Letext0:
 908              		.file 2 "/home/texzk/ChibiStudio/tools/GNU Tools ARM Embedded/4.6 2012q2/bin/../lib/gcc/arm-none-e
 909              		.file 3 "../../os/ports/GCC/ARMCMx/chtypes.h"
 910              		.file 4 "../../os/kernel/include/chlists.h"
 911              		.file 5 "../../os/kernel/include/chthreads.h"
 912              		.file 6 "../../os/ports/GCC/ARMCMx/chcore_v7m.h"
 913              		.file 7 "../../os/kernel/include/chsem.h"
 914              		.file 8 "../../os/kernel/include/chmtx.h"
 915              		.file 9 "../../os/kernel/include/chmboxes.h"