ARM GAS  /tmp/ccw4TIrd.s 			page 1


   1              		.syntax unified
   2              		.cpu cortex-m3
   3              		.fpu softvfp
   4              		.eabi_attribute 20, 1
   5              		.eabi_attribute 21, 1
   6              		.eabi_attribute 23, 3
   7              		.eabi_attribute 24, 1
   8              		.eabi_attribute 25, 1
   9              		.eabi_attribute 26, 1
  10              		.eabi_attribute 30, 6
  11              		.eabi_attribute 34, 1
  12              		.eabi_attribute 18, 4
  13              		.thumb
  14              		.file	"chmboxes.c"
  15              		.text
  16              	.Ltext0:
  17              		.cfi_sections	.debug_frame
  18              		.section	.rodata
  19              		.align	2
  20              	.LC0:
  21 0000 2263684D 		.ascii	"\"chMBInit\"()\000"
  21      42496E69 
  21      74222829 
  21      00
  22              		.section	.text.chMBInit,"ax",%progbits
  23              		.align	2
  24              		.p2align 4,,15
  25              		.global	chMBInit
  26              		.thumb
  27              		.thumb_func
  28              		.type	chMBInit, %function
  29              	chMBInit:
  30              	.LFB7:
  31              		.file 1 "../../os/kernel/src/chmboxes.c"
  32              		.loc 1 65 0
  33              		.cfi_startproc
  34              		@ args = 0, pretend = 0, frame = 16
  35              		@ frame_needed = 0, uses_anonymous_args = 0
  36 0000 00B5     		push	{lr}
  37              	.LCFI0:
  38              		.cfi_def_cfa_offset 4
  39              		.cfi_offset 14, -4
  40 0002 85B0     		sub	sp, sp, #20
  41              	.LCFI1:
  42              		.cfi_def_cfa_offset 24
  43 0004 0390     		str	r0, [sp, #12]
  44 0006 0291     		str	r1, [sp, #8]
  45 0008 0192     		str	r2, [sp, #4]
  46              		.loc 1 67 0
  47 000a 039B     		ldr	r3, [sp, #12]
  48 000c 002B     		cmp	r3, #0
  49 000e 05D0     		beq	.L2
  50              		.loc 1 67 0 is_stmt 0 discriminator 2
  51 0010 029B     		ldr	r3, [sp, #8]
  52 0012 002B     		cmp	r3, #0
  53 0014 02D0     		beq	.L2
  54              		.loc 1 67 0 discriminator 3
ARM GAS  /tmp/ccw4TIrd.s 			page 2


  55 0016 019B     		ldr	r3, [sp, #4]
  56 0018 002B     		cmp	r3, #0
  57 001a 05DC     		bgt	.L3
  58              	.L2:
  59              		.loc 1 67 0 discriminator 1
  60 001c 40F20000 		movw	r0, #:lower16:.LC0
  61 0020 C0F20000 		movt	r0, #:upper16:.LC0
  62 0024 FFF7FEFF 		bl	chDbgPanic
  63              	.L3:
  64              		.loc 1 69 0 is_stmt 1
  65 0028 039B     		ldr	r3, [sp, #12]
  66 002a 029A     		ldr	r2, [sp, #8]
  67 002c DA60     		str	r2, [r3, #12]
  68 002e 039B     		ldr	r3, [sp, #12]
  69 0030 DA68     		ldr	r2, [r3, #12]
  70 0032 039B     		ldr	r3, [sp, #12]
  71 0034 9A60     		str	r2, [r3, #8]
  72 0036 039B     		ldr	r3, [sp, #12]
  73 0038 9A68     		ldr	r2, [r3, #8]
  74 003a 039B     		ldr	r3, [sp, #12]
  75 003c 1A60     		str	r2, [r3, #0]
  76              		.loc 1 70 0
  77 003e 019B     		ldr	r3, [sp, #4]
  78 0040 4FEA8303 		lsl	r3, r3, #2
  79 0044 029A     		ldr	r2, [sp, #8]
  80 0046 D218     		adds	r2, r2, r3
  81 0048 039B     		ldr	r3, [sp, #12]
  82 004a 5A60     		str	r2, [r3, #4]
  83              		.loc 1 71 0
  84 004c 039B     		ldr	r3, [sp, #12]
  85 004e 03F11C03 		add	r3, r3, #28
  86 0052 1846     		mov	r0, r3
  87 0054 0199     		ldr	r1, [sp, #4]
  88 0056 FFF7FEFF 		bl	chSemInit
  89              		.loc 1 72 0
  90 005a 039B     		ldr	r3, [sp, #12]
  91 005c 03F11003 		add	r3, r3, #16
  92 0060 1846     		mov	r0, r3
  93 0062 4FF00001 		mov	r1, #0
  94 0066 FFF7FEFF 		bl	chSemInit
  95              		.loc 1 73 0
  96 006a 05B0     		add	sp, sp, #20
  97 006c 00BD     		pop	{pc}
  98              		.cfi_endproc
  99              	.LFE7:
 100              		.size	chMBInit, .-chMBInit
 101 006e 00BF     		.section	.rodata
 102 000d 000000   		.align	2
 103              	.LC1:
 104 0010 2263684D 		.ascii	"\"chMBReset\"()\000"
 104      42526573 
 104      65742228 
 104      2900
 105              		.section	.text.chMBReset,"ax",%progbits
 106              		.align	2
 107              		.p2align 4,,15
 108              		.global	chMBReset
ARM GAS  /tmp/ccw4TIrd.s 			page 3


 109              		.thumb
 110              		.thumb_func
 111              		.type	chMBReset, %function
 112              	chMBReset:
 113              	.LFB8:
 114              		.loc 1 84 0
 115              		.cfi_startproc
 116              		@ args = 0, pretend = 0, frame = 8
 117              		@ frame_needed = 0, uses_anonymous_args = 0
 118 0000 00B5     		push	{lr}
 119              	.LCFI2:
 120              		.cfi_def_cfa_offset 4
 121              		.cfi_offset 14, -4
 122 0002 83B0     		sub	sp, sp, #12
 123              	.LCFI3:
 124              		.cfi_def_cfa_offset 16
 125 0004 0190     		str	r0, [sp, #4]
 126              		.loc 1 86 0
 127 0006 019B     		ldr	r3, [sp, #4]
 128 0008 002B     		cmp	r3, #0
 129 000a 05D1     		bne	.L5
 130              		.loc 1 86 0 is_stmt 0 discriminator 1
 131 000c 40F20000 		movw	r0, #:lower16:.LC1
 132 0010 C0F20000 		movt	r0, #:upper16:.LC1
 133 0014 FFF7FEFF 		bl	chDbgPanic
 134              	.L5:
 135              	.LBB2:
 136              		.loc 1 88 0 is_stmt 1
 137 0018 4FF02003 		mov	r3, #32
 138              	@ 88 "../../os/kernel/src/chmboxes.c" 1
 139 001c 83F31188 		msr     BASEPRI, r3
 140              	@ 0 "" 2
 141              		.thumb
 142              	.LBE2:
 143 0020 FFF7FEFF 		bl	dbg_check_lock
 144              		.loc 1 89 0
 145 0024 019B     		ldr	r3, [sp, #4]
 146 0026 1A68     		ldr	r2, [r3, #0]
 147 0028 019B     		ldr	r3, [sp, #4]
 148 002a DA60     		str	r2, [r3, #12]
 149 002c 019B     		ldr	r3, [sp, #4]
 150 002e DA68     		ldr	r2, [r3, #12]
 151 0030 019B     		ldr	r3, [sp, #4]
 152 0032 9A60     		str	r2, [r3, #8]
 153              		.loc 1 90 0
 154 0034 019B     		ldr	r3, [sp, #4]
 155 0036 03F11C02 		add	r2, r3, #28
 156 003a 019B     		ldr	r3, [sp, #4]
 157 003c 5B68     		ldr	r3, [r3, #4]
 158 003e 1946     		mov	r1, r3
 159 0040 019B     		ldr	r3, [sp, #4]
 160 0042 1B68     		ldr	r3, [r3, #0]
 161 0044 CB1A     		subs	r3, r1, r3
 162 0046 4FEAA303 		asr	r3, r3, #2
 163 004a 1046     		mov	r0, r2
 164 004c 1946     		mov	r1, r3
 165 004e FFF7FEFF 		bl	chSemResetI
ARM GAS  /tmp/ccw4TIrd.s 			page 4


 166              		.loc 1 91 0
 167 0052 019B     		ldr	r3, [sp, #4]
 168 0054 03F11003 		add	r3, r3, #16
 169 0058 1846     		mov	r0, r3
 170 005a 4FF00001 		mov	r1, #0
 171 005e FFF7FEFF 		bl	chSemResetI
 172              		.loc 1 92 0
 173 0062 FFF7FEFF 		bl	chSchRescheduleS
 174              		.loc 1 93 0
 175 0066 FFF7FEFF 		bl	dbg_check_unlock
 176              	.LBB3:
 177 006a 4FF00003 		mov	r3, #0
 178              	@ 93 "../../os/kernel/src/chmboxes.c" 1
 179 006e 83F31188 		msr     BASEPRI, r3
 180              	@ 0 "" 2
 181              		.thumb
 182              	.LBE3:
 183              		.loc 1 94 0
 184 0072 03B0     		add	sp, sp, #12
 185 0074 00BD     		pop	{pc}
 186              		.cfi_endproc
 187              	.LFE8:
 188              		.size	chMBReset, .-chMBReset
 189 0076 00BFAFF3 		.section	.text.chMBPost,"ax",%progbits
 189      0080AFF3 
 189      0080
 190              		.align	2
 191              		.p2align 4,,15
 192              		.global	chMBPost
 193              		.thumb
 194              		.thumb_func
 195              		.type	chMBPost, %function
 196              	chMBPost:
 197              	.LFB9:
 198              		.loc 1 115 0
 199              		.cfi_startproc
 200              		@ args = 0, pretend = 0, frame = 24
 201              		@ frame_needed = 0, uses_anonymous_args = 0
 202 0000 00B5     		push	{lr}
 203              	.LCFI4:
 204              		.cfi_def_cfa_offset 4
 205              		.cfi_offset 14, -4
 206 0002 87B0     		sub	sp, sp, #28
 207              	.LCFI5:
 208              		.cfi_def_cfa_offset 32
 209 0004 0390     		str	r0, [sp, #12]
 210 0006 0291     		str	r1, [sp, #8]
 211 0008 0192     		str	r2, [sp, #4]
 212              	.LBB4:
 213              		.loc 1 118 0
 214 000a 4FF02003 		mov	r3, #32
 215              	@ 118 "../../os/kernel/src/chmboxes.c" 1
 216 000e 83F31188 		msr     BASEPRI, r3
 217              	@ 0 "" 2
 218              		.thumb
 219              	.LBE4:
 220 0012 FFF7FEFF 		bl	dbg_check_lock
ARM GAS  /tmp/ccw4TIrd.s 			page 5


 221              		.loc 1 119 0
 222 0016 0398     		ldr	r0, [sp, #12]
 223 0018 0299     		ldr	r1, [sp, #8]
 224 001a 019A     		ldr	r2, [sp, #4]
 225 001c FFF7FEFF 		bl	chMBPostS
 226 0020 0346     		mov	r3, r0
 227 0022 0593     		str	r3, [sp, #20]
 228              		.loc 1 120 0
 229 0024 FFF7FEFF 		bl	dbg_check_unlock
 230              	.LBB5:
 231 0028 4FF00003 		mov	r3, #0
 232              	@ 120 "../../os/kernel/src/chmboxes.c" 1
 233 002c 83F31188 		msr     BASEPRI, r3
 234              	@ 0 "" 2
 235              		.thumb
 236              	.LBE5:
 237              		.loc 1 121 0
 238 0030 059B     		ldr	r3, [sp, #20]
 239              		.loc 1 122 0
 240 0032 1846     		mov	r0, r3
 241 0034 07B0     		add	sp, sp, #28
 242 0036 00BD     		pop	{pc}
 243              		.cfi_endproc
 244              	.LFE9:
 245              		.size	chMBPost, .-chMBPost
 246 0038 AFF30080 		.section	.rodata
 246      AFF30080 
 247 001e 0000     		.align	2
 248              	.LC2:
 249 0020 2263684D 		.ascii	"\"chMBPostS\"()\000"
 249      42506F73 
 249      74532228 
 249      2900
 250              		.section	.text.chMBPostS,"ax",%progbits
 251              		.align	2
 252              		.p2align 4,,15
 253              		.global	chMBPostS
 254              		.thumb
 255              		.thumb_func
 256              		.type	chMBPostS, %function
 257              	chMBPostS:
 258              	.LFB10:
 259              		.loc 1 143 0
 260              		.cfi_startproc
 261              		@ args = 0, pretend = 0, frame = 24
 262              		@ frame_needed = 0, uses_anonymous_args = 0
 263 0000 00B5     		push	{lr}
 264              	.LCFI6:
 265              		.cfi_def_cfa_offset 4
 266              		.cfi_offset 14, -4
 267 0002 87B0     		sub	sp, sp, #28
 268              	.LCFI7:
 269              		.cfi_def_cfa_offset 32
 270 0004 0390     		str	r0, [sp, #12]
 271 0006 0291     		str	r1, [sp, #8]
 272 0008 0192     		str	r2, [sp, #4]
 273              		.loc 1 146 0
ARM GAS  /tmp/ccw4TIrd.s 			page 6


 274 000a FFF7FEFF 		bl	chDbgCheckClassS
 275              		.loc 1 147 0
 276 000e 039B     		ldr	r3, [sp, #12]
 277 0010 002B     		cmp	r3, #0
 278 0012 05D1     		bne	.L8
 279              		.loc 1 147 0 is_stmt 0 discriminator 1
 280 0014 40F20000 		movw	r0, #:lower16:.LC2
 281 0018 C0F20000 		movt	r0, #:upper16:.LC2
 282 001c FFF7FEFF 		bl	chDbgPanic
 283              	.L8:
 284              		.loc 1 149 0 is_stmt 1
 285 0020 039B     		ldr	r3, [sp, #12]
 286 0022 03F11C03 		add	r3, r3, #28
 287 0026 1846     		mov	r0, r3
 288 0028 0199     		ldr	r1, [sp, #4]
 289 002a FFF7FEFF 		bl	chSemWaitTimeoutS
 290 002e 0346     		mov	r3, r0
 291 0030 0593     		str	r3, [sp, #20]
 292              		.loc 1 150 0
 293 0032 059B     		ldr	r3, [sp, #20]
 294 0034 002B     		cmp	r3, #0
 295 0036 19D1     		bne	.L9
 296              		.loc 1 151 0
 297 0038 039B     		ldr	r3, [sp, #12]
 298 003a 9B68     		ldr	r3, [r3, #8]
 299 003c 029A     		ldr	r2, [sp, #8]
 300 003e 1A60     		str	r2, [r3, #0]
 301 0040 03F10402 		add	r2, r3, #4
 302 0044 039B     		ldr	r3, [sp, #12]
 303 0046 9A60     		str	r2, [r3, #8]
 304              		.loc 1 152 0
 305 0048 039B     		ldr	r3, [sp, #12]
 306 004a 9A68     		ldr	r2, [r3, #8]
 307 004c 039B     		ldr	r3, [sp, #12]
 308 004e 5B68     		ldr	r3, [r3, #4]
 309 0050 9A42     		cmp	r2, r3
 310 0052 03D3     		bcc	.L10
 311              		.loc 1 153 0
 312 0054 039B     		ldr	r3, [sp, #12]
 313 0056 1A68     		ldr	r2, [r3, #0]
 314 0058 039B     		ldr	r3, [sp, #12]
 315 005a 9A60     		str	r2, [r3, #8]
 316              	.L10:
 317              		.loc 1 154 0
 318 005c 039B     		ldr	r3, [sp, #12]
 319 005e 03F11003 		add	r3, r3, #16
 320 0062 1846     		mov	r0, r3
 321 0064 FFF7FEFF 		bl	chSemSignalI
 322              		.loc 1 155 0
 323 0068 FFF7FEFF 		bl	chSchRescheduleS
 324              	.L9:
 325              		.loc 1 157 0
 326 006c 059B     		ldr	r3, [sp, #20]
 327              		.loc 1 158 0
 328 006e 1846     		mov	r0, r3
 329 0070 07B0     		add	sp, sp, #28
 330 0072 00BD     		pop	{pc}
ARM GAS  /tmp/ccw4TIrd.s 			page 7


 331              		.cfi_endproc
 332              	.LFE10:
 333              		.size	chMBPostS, .-chMBPostS
 334 0074 AFF30080 		.section	.rodata
 334      AFF30080 
 334      AFF30080 
 335 002e 0000     		.align	2
 336              	.LC3:
 337 0030 2263684D 		.ascii	"\"chMBPostI\"()\000"
 337      42506F73 
 337      74492228 
 337      2900
 338              		.section	.text.chMBPostI,"ax",%progbits
 339              		.align	2
 340              		.p2align 4,,15
 341              		.global	chMBPostI
 342              		.thumb
 343              		.thumb_func
 344              		.type	chMBPostI, %function
 345              	chMBPostI:
 346              	.LFB11:
 347              		.loc 1 174 0
 348              		.cfi_startproc
 349              		@ args = 0, pretend = 0, frame = 8
 350              		@ frame_needed = 0, uses_anonymous_args = 0
 351 0000 00B5     		push	{lr}
 352              	.LCFI8:
 353              		.cfi_def_cfa_offset 4
 354              		.cfi_offset 14, -4
 355 0002 83B0     		sub	sp, sp, #12
 356              	.LCFI9:
 357              		.cfi_def_cfa_offset 16
 358 0004 0190     		str	r0, [sp, #4]
 359 0006 0091     		str	r1, [sp, #0]
 360              		.loc 1 176 0
 361 0008 FFF7FEFF 		bl	chDbgCheckClassI
 362              		.loc 1 177 0
 363 000c 019B     		ldr	r3, [sp, #4]
 364 000e 002B     		cmp	r3, #0
 365 0010 05D1     		bne	.L12
 366              		.loc 1 177 0 is_stmt 0 discriminator 1
 367 0012 40F20000 		movw	r0, #:lower16:.LC3
 368 0016 C0F20000 		movt	r0, #:upper16:.LC3
 369 001a FFF7FEFF 		bl	chDbgPanic
 370              	.L12:
 371              		.loc 1 179 0 is_stmt 1
 372 001e 019B     		ldr	r3, [sp, #4]
 373 0020 5B6A     		ldr	r3, [r3, #36]
 374 0022 002B     		cmp	r3, #0
 375 0024 02DC     		bgt	.L13
 376              		.loc 1 180 0
 377 0026 4FF0FF33 		mov	r3, #-1
 378 002a 1FE0     		b	.L14
 379              	.L13:
 380              		.loc 1 181 0
 381 002c 019B     		ldr	r3, [sp, #4]
 382 002e 5B6A     		ldr	r3, [r3, #36]
ARM GAS  /tmp/ccw4TIrd.s 			page 8


 383 0030 03F1FF32 		add	r2, r3, #-1
 384 0034 019B     		ldr	r3, [sp, #4]
 385 0036 5A62     		str	r2, [r3, #36]
 386              		.loc 1 182 0
 387 0038 019B     		ldr	r3, [sp, #4]
 388 003a 9B68     		ldr	r3, [r3, #8]
 389 003c 009A     		ldr	r2, [sp, #0]
 390 003e 1A60     		str	r2, [r3, #0]
 391 0040 03F10402 		add	r2, r3, #4
 392 0044 019B     		ldr	r3, [sp, #4]
 393 0046 9A60     		str	r2, [r3, #8]
 394              		.loc 1 183 0
 395 0048 019B     		ldr	r3, [sp, #4]
 396 004a 9A68     		ldr	r2, [r3, #8]
 397 004c 019B     		ldr	r3, [sp, #4]
 398 004e 5B68     		ldr	r3, [r3, #4]
 399 0050 9A42     		cmp	r2, r3
 400 0052 03D3     		bcc	.L15
 401              		.loc 1 184 0
 402 0054 019B     		ldr	r3, [sp, #4]
 403 0056 1A68     		ldr	r2, [r3, #0]
 404 0058 019B     		ldr	r3, [sp, #4]
 405 005a 9A60     		str	r2, [r3, #8]
 406              	.L15:
 407              		.loc 1 185 0
 408 005c 019B     		ldr	r3, [sp, #4]
 409 005e 03F11003 		add	r3, r3, #16
 410 0062 1846     		mov	r0, r3
 411 0064 FFF7FEFF 		bl	chSemSignalI
 412              		.loc 1 186 0
 413 0068 4FF00003 		mov	r3, #0
 414              	.L14:
 415              		.loc 1 187 0
 416 006c 1846     		mov	r0, r3
 417 006e 03B0     		add	sp, sp, #12
 418 0070 00BD     		pop	{pc}
 419              		.cfi_endproc
 420              	.LFE11:
 421              		.size	chMBPostI, .-chMBPostI
 422 0072 00BFAFF3 		.section	.text.chMBPostAhead,"ax",%progbits
 422      0080AFF3 
 422      0080AFF3 
 422      0080
 423              		.align	2
 424              		.p2align 4,,15
 425              		.global	chMBPostAhead
 426              		.thumb
 427              		.thumb_func
 428              		.type	chMBPostAhead, %function
 429              	chMBPostAhead:
 430              	.LFB12:
 431              		.loc 1 208 0
 432              		.cfi_startproc
 433              		@ args = 0, pretend = 0, frame = 24
 434              		@ frame_needed = 0, uses_anonymous_args = 0
 435 0000 00B5     		push	{lr}
 436              	.LCFI10:
ARM GAS  /tmp/ccw4TIrd.s 			page 9


 437              		.cfi_def_cfa_offset 4
 438              		.cfi_offset 14, -4
 439 0002 87B0     		sub	sp, sp, #28
 440              	.LCFI11:
 441              		.cfi_def_cfa_offset 32
 442 0004 0390     		str	r0, [sp, #12]
 443 0006 0291     		str	r1, [sp, #8]
 444 0008 0192     		str	r2, [sp, #4]
 445              	.LBB6:
 446              		.loc 1 211 0
 447 000a 4FF02003 		mov	r3, #32
 448              	@ 211 "../../os/kernel/src/chmboxes.c" 1
 449 000e 83F31188 		msr     BASEPRI, r3
 450              	@ 0 "" 2
 451              		.thumb
 452              	.LBE6:
 453 0012 FFF7FEFF 		bl	dbg_check_lock
 454              		.loc 1 212 0
 455 0016 0398     		ldr	r0, [sp, #12]
 456 0018 0299     		ldr	r1, [sp, #8]
 457 001a 019A     		ldr	r2, [sp, #4]
 458 001c FFF7FEFF 		bl	chMBPostAheadS
 459 0020 0346     		mov	r3, r0
 460 0022 0593     		str	r3, [sp, #20]
 461              		.loc 1 213 0
 462 0024 FFF7FEFF 		bl	dbg_check_unlock
 463              	.LBB7:
 464 0028 4FF00003 		mov	r3, #0
 465              	@ 213 "../../os/kernel/src/chmboxes.c" 1
 466 002c 83F31188 		msr     BASEPRI, r3
 467              	@ 0 "" 2
 468              		.thumb
 469              	.LBE7:
 470              		.loc 1 214 0
 471 0030 059B     		ldr	r3, [sp, #20]
 472              		.loc 1 215 0
 473 0032 1846     		mov	r0, r3
 474 0034 07B0     		add	sp, sp, #28
 475 0036 00BD     		pop	{pc}
 476              		.cfi_endproc
 477              	.LFE12:
 478              		.size	chMBPostAhead, .-chMBPostAhead
 479 0038 AFF30080 		.section	.rodata
 479      AFF30080 
 480 003e 0000     		.align	2
 481              	.LC4:
 482 0040 2263684D 		.ascii	"\"chMBPostAheadS\"()\000"
 482      42506F73 
 482      74416865 
 482      61645322 
 482      282900
 483              		.section	.text.chMBPostAheadS,"ax",%progbits
 484              		.align	2
 485              		.p2align 4,,15
 486              		.global	chMBPostAheadS
 487              		.thumb
 488              		.thumb_func
ARM GAS  /tmp/ccw4TIrd.s 			page 10


 489              		.type	chMBPostAheadS, %function
 490              	chMBPostAheadS:
 491              	.LFB13:
 492              		.loc 1 236 0
 493              		.cfi_startproc
 494              		@ args = 0, pretend = 0, frame = 24
 495              		@ frame_needed = 0, uses_anonymous_args = 0
 496 0000 00B5     		push	{lr}
 497              	.LCFI12:
 498              		.cfi_def_cfa_offset 4
 499              		.cfi_offset 14, -4
 500 0002 87B0     		sub	sp, sp, #28
 501              	.LCFI13:
 502              		.cfi_def_cfa_offset 32
 503 0004 0390     		str	r0, [sp, #12]
 504 0006 0291     		str	r1, [sp, #8]
 505 0008 0192     		str	r2, [sp, #4]
 506              		.loc 1 239 0
 507 000a FFF7FEFF 		bl	chDbgCheckClassS
 508              		.loc 1 240 0
 509 000e 039B     		ldr	r3, [sp, #12]
 510 0010 002B     		cmp	r3, #0
 511 0012 05D1     		bne	.L18
 512              		.loc 1 240 0 is_stmt 0 discriminator 1
 513 0014 40F20000 		movw	r0, #:lower16:.LC4
 514 0018 C0F20000 		movt	r0, #:upper16:.LC4
 515 001c FFF7FEFF 		bl	chDbgPanic
 516              	.L18:
 517              		.loc 1 242 0 is_stmt 1
 518 0020 039B     		ldr	r3, [sp, #12]
 519 0022 03F11C03 		add	r3, r3, #28
 520 0026 1846     		mov	r0, r3
 521 0028 0199     		ldr	r1, [sp, #4]
 522 002a FFF7FEFF 		bl	chSemWaitTimeoutS
 523 002e 0346     		mov	r3, r0
 524 0030 0593     		str	r3, [sp, #20]
 525              		.loc 1 243 0
 526 0032 059B     		ldr	r3, [sp, #20]
 527 0034 002B     		cmp	r3, #0
 528 0036 1DD1     		bne	.L19
 529              		.loc 1 244 0
 530 0038 039B     		ldr	r3, [sp, #12]
 531 003a DB68     		ldr	r3, [r3, #12]
 532 003c A3F10402 		sub	r2, r3, #4
 533 0040 039B     		ldr	r3, [sp, #12]
 534 0042 DA60     		str	r2, [r3, #12]
 535 0044 039B     		ldr	r3, [sp, #12]
 536 0046 DA68     		ldr	r2, [r3, #12]
 537 0048 039B     		ldr	r3, [sp, #12]
 538 004a 1B68     		ldr	r3, [r3, #0]
 539 004c 9A42     		cmp	r2, r3
 540 004e 05D2     		bcs	.L20
 541              		.loc 1 245 0
 542 0050 039B     		ldr	r3, [sp, #12]
 543 0052 5B68     		ldr	r3, [r3, #4]
 544 0054 A3F10402 		sub	r2, r3, #4
 545 0058 039B     		ldr	r3, [sp, #12]
ARM GAS  /tmp/ccw4TIrd.s 			page 11


 546 005a DA60     		str	r2, [r3, #12]
 547              	.L20:
 548              		.loc 1 246 0
 549 005c 039B     		ldr	r3, [sp, #12]
 550 005e DB68     		ldr	r3, [r3, #12]
 551 0060 029A     		ldr	r2, [sp, #8]
 552 0062 1A60     		str	r2, [r3, #0]
 553              		.loc 1 247 0
 554 0064 039B     		ldr	r3, [sp, #12]
 555 0066 03F11003 		add	r3, r3, #16
 556 006a 1846     		mov	r0, r3
 557 006c FFF7FEFF 		bl	chSemSignalI
 558              		.loc 1 248 0
 559 0070 FFF7FEFF 		bl	chSchRescheduleS
 560              	.L19:
 561              		.loc 1 250 0
 562 0074 059B     		ldr	r3, [sp, #20]
 563              		.loc 1 251 0
 564 0076 1846     		mov	r0, r3
 565 0078 07B0     		add	sp, sp, #28
 566 007a 00BD     		pop	{pc}
 567              		.cfi_endproc
 568              	.LFE13:
 569              		.size	chMBPostAheadS, .-chMBPostAheadS
 570 007c AFF30080 		.section	.rodata
 571 0053 00       		.align	2
 572              	.LC5:
 573 0054 2263684D 		.ascii	"\"chMBPostAheadI\"()\000"
 573      42506F73 
 573      74416865 
 573      61644922 
 573      282900
 574              		.section	.text.chMBPostAheadI,"ax",%progbits
 575              		.align	2
 576              		.p2align 4,,15
 577              		.global	chMBPostAheadI
 578              		.thumb
 579              		.thumb_func
 580              		.type	chMBPostAheadI, %function
 581              	chMBPostAheadI:
 582              	.LFB14:
 583              		.loc 1 267 0
 584              		.cfi_startproc
 585              		@ args = 0, pretend = 0, frame = 8
 586              		@ frame_needed = 0, uses_anonymous_args = 0
 587 0000 00B5     		push	{lr}
 588              	.LCFI14:
 589              		.cfi_def_cfa_offset 4
 590              		.cfi_offset 14, -4
 591 0002 83B0     		sub	sp, sp, #12
 592              	.LCFI15:
 593              		.cfi_def_cfa_offset 16
 594 0004 0190     		str	r0, [sp, #4]
 595 0006 0091     		str	r1, [sp, #0]
 596              		.loc 1 269 0
 597 0008 FFF7FEFF 		bl	chDbgCheckClassI
 598              		.loc 1 270 0
ARM GAS  /tmp/ccw4TIrd.s 			page 12


 599 000c 019B     		ldr	r3, [sp, #4]
 600 000e 002B     		cmp	r3, #0
 601 0010 05D1     		bne	.L22
 602              		.loc 1 270 0 is_stmt 0 discriminator 1
 603 0012 40F20000 		movw	r0, #:lower16:.LC5
 604 0016 C0F20000 		movt	r0, #:upper16:.LC5
 605 001a FFF7FEFF 		bl	chDbgPanic
 606              	.L22:
 607              		.loc 1 272 0 is_stmt 1
 608 001e 019B     		ldr	r3, [sp, #4]
 609 0020 5B6A     		ldr	r3, [r3, #36]
 610 0022 002B     		cmp	r3, #0
 611 0024 02DC     		bgt	.L23
 612              		.loc 1 273 0
 613 0026 4FF0FF33 		mov	r3, #-1
 614 002a 23E0     		b	.L24
 615              	.L23:
 616              		.loc 1 274 0
 617 002c 019B     		ldr	r3, [sp, #4]
 618 002e 5B6A     		ldr	r3, [r3, #36]
 619 0030 03F1FF32 		add	r2, r3, #-1
 620 0034 019B     		ldr	r3, [sp, #4]
 621 0036 5A62     		str	r2, [r3, #36]
 622              		.loc 1 275 0
 623 0038 019B     		ldr	r3, [sp, #4]
 624 003a DB68     		ldr	r3, [r3, #12]
 625 003c A3F10402 		sub	r2, r3, #4
 626 0040 019B     		ldr	r3, [sp, #4]
 627 0042 DA60     		str	r2, [r3, #12]
 628 0044 019B     		ldr	r3, [sp, #4]
 629 0046 DA68     		ldr	r2, [r3, #12]
 630 0048 019B     		ldr	r3, [sp, #4]
 631 004a 1B68     		ldr	r3, [r3, #0]
 632 004c 9A42     		cmp	r2, r3
 633 004e 05D2     		bcs	.L25
 634              		.loc 1 276 0
 635 0050 019B     		ldr	r3, [sp, #4]
 636 0052 5B68     		ldr	r3, [r3, #4]
 637 0054 A3F10402 		sub	r2, r3, #4
 638 0058 019B     		ldr	r3, [sp, #4]
 639 005a DA60     		str	r2, [r3, #12]
 640              	.L25:
 641              		.loc 1 277 0
 642 005c 019B     		ldr	r3, [sp, #4]
 643 005e DB68     		ldr	r3, [r3, #12]
 644 0060 009A     		ldr	r2, [sp, #0]
 645 0062 1A60     		str	r2, [r3, #0]
 646              		.loc 1 278 0
 647 0064 019B     		ldr	r3, [sp, #4]
 648 0066 03F11003 		add	r3, r3, #16
 649 006a 1846     		mov	r0, r3
 650 006c FFF7FEFF 		bl	chSemSignalI
 651              		.loc 1 279 0
 652 0070 4FF00003 		mov	r3, #0
 653              	.L24:
 654              		.loc 1 280 0
 655 0074 1846     		mov	r0, r3
ARM GAS  /tmp/ccw4TIrd.s 			page 13


 656 0076 03B0     		add	sp, sp, #12
 657 0078 00BD     		pop	{pc}
 658              		.cfi_endproc
 659              	.LFE14:
 660              		.size	chMBPostAheadI, .-chMBPostAheadI
 661 007a 00BFAFF3 		.section	.text.chMBFetch,"ax",%progbits
 661      0080
 662              		.align	2
 663              		.p2align 4,,15
 664              		.global	chMBFetch
 665              		.thumb
 666              		.thumb_func
 667              		.type	chMBFetch, %function
 668              	chMBFetch:
 669              	.LFB15:
 670              		.loc 1 301 0
 671              		.cfi_startproc
 672              		@ args = 0, pretend = 0, frame = 24
 673              		@ frame_needed = 0, uses_anonymous_args = 0
 674 0000 00B5     		push	{lr}
 675              	.LCFI16:
 676              		.cfi_def_cfa_offset 4
 677              		.cfi_offset 14, -4
 678 0002 87B0     		sub	sp, sp, #28
 679              	.LCFI17:
 680              		.cfi_def_cfa_offset 32
 681 0004 0390     		str	r0, [sp, #12]
 682 0006 0291     		str	r1, [sp, #8]
 683 0008 0192     		str	r2, [sp, #4]
 684              	.LBB8:
 685              		.loc 1 304 0
 686 000a 4FF02003 		mov	r3, #32
 687              	@ 304 "../../os/kernel/src/chmboxes.c" 1
 688 000e 83F31188 		msr     BASEPRI, r3
 689              	@ 0 "" 2
 690              		.thumb
 691              	.LBE8:
 692 0012 FFF7FEFF 		bl	dbg_check_lock
 693              		.loc 1 305 0
 694 0016 0398     		ldr	r0, [sp, #12]
 695 0018 0299     		ldr	r1, [sp, #8]
 696 001a 019A     		ldr	r2, [sp, #4]
 697 001c FFF7FEFF 		bl	chMBFetchS
 698 0020 0346     		mov	r3, r0
 699 0022 0593     		str	r3, [sp, #20]
 700              		.loc 1 306 0
 701 0024 FFF7FEFF 		bl	dbg_check_unlock
 702              	.LBB9:
 703 0028 4FF00003 		mov	r3, #0
 704              	@ 306 "../../os/kernel/src/chmboxes.c" 1
 705 002c 83F31188 		msr     BASEPRI, r3
 706              	@ 0 "" 2
 707              		.thumb
 708              	.LBE9:
 709              		.loc 1 307 0
 710 0030 059B     		ldr	r3, [sp, #20]
 711              		.loc 1 308 0
ARM GAS  /tmp/ccw4TIrd.s 			page 14


 712 0032 1846     		mov	r0, r3
 713 0034 07B0     		add	sp, sp, #28
 714 0036 00BD     		pop	{pc}
 715              		.cfi_endproc
 716              	.LFE15:
 717              		.size	chMBFetch, .-chMBFetch
 718 0038 AFF30080 		.section	.rodata
 718      AFF30080 
 719 0067 00       		.align	2
 720              	.LC6:
 721 0068 2263684D 		.ascii	"\"chMBFetchS\"()\000"
 721      42466574 
 721      63685322 
 721      282900
 722              		.section	.text.chMBFetchS,"ax",%progbits
 723              		.align	2
 724              		.p2align 4,,15
 725              		.global	chMBFetchS
 726              		.thumb
 727              		.thumb_func
 728              		.type	chMBFetchS, %function
 729              	chMBFetchS:
 730              	.LFB16:
 731              		.loc 1 329 0
 732              		.cfi_startproc
 733              		@ args = 0, pretend = 0, frame = 24
 734              		@ frame_needed = 0, uses_anonymous_args = 0
 735 0000 00B5     		push	{lr}
 736              	.LCFI18:
 737              		.cfi_def_cfa_offset 4
 738              		.cfi_offset 14, -4
 739 0002 87B0     		sub	sp, sp, #28
 740              	.LCFI19:
 741              		.cfi_def_cfa_offset 32
 742 0004 0390     		str	r0, [sp, #12]
 743 0006 0291     		str	r1, [sp, #8]
 744 0008 0192     		str	r2, [sp, #4]
 745              		.loc 1 332 0
 746 000a FFF7FEFF 		bl	chDbgCheckClassS
 747              		.loc 1 333 0
 748 000e 039B     		ldr	r3, [sp, #12]
 749 0010 002B     		cmp	r3, #0
 750 0012 02D0     		beq	.L28
 751              		.loc 1 333 0 is_stmt 0 discriminator 2
 752 0014 029B     		ldr	r3, [sp, #8]
 753 0016 002B     		cmp	r3, #0
 754 0018 05D1     		bne	.L29
 755              	.L28:
 756              		.loc 1 333 0 discriminator 1
 757 001a 40F20000 		movw	r0, #:lower16:.LC6
 758 001e C0F20000 		movt	r0, #:upper16:.LC6
 759 0022 FFF7FEFF 		bl	chDbgPanic
 760              	.L29:
 761              		.loc 1 335 0 is_stmt 1
 762 0026 039B     		ldr	r3, [sp, #12]
 763 0028 03F11003 		add	r3, r3, #16
 764 002c 1846     		mov	r0, r3
ARM GAS  /tmp/ccw4TIrd.s 			page 15


 765 002e 0199     		ldr	r1, [sp, #4]
 766 0030 FFF7FEFF 		bl	chSemWaitTimeoutS
 767 0034 0346     		mov	r3, r0
 768 0036 0593     		str	r3, [sp, #20]
 769              		.loc 1 336 0
 770 0038 059B     		ldr	r3, [sp, #20]
 771 003a 002B     		cmp	r3, #0
 772 003c 1AD1     		bne	.L30
 773              		.loc 1 337 0
 774 003e 039B     		ldr	r3, [sp, #12]
 775 0040 DB68     		ldr	r3, [r3, #12]
 776 0042 1968     		ldr	r1, [r3, #0]
 777 0044 029A     		ldr	r2, [sp, #8]
 778 0046 1160     		str	r1, [r2, #0]
 779 0048 03F10402 		add	r2, r3, #4
 780 004c 039B     		ldr	r3, [sp, #12]
 781 004e DA60     		str	r2, [r3, #12]
 782              		.loc 1 338 0
 783 0050 039B     		ldr	r3, [sp, #12]
 784 0052 DA68     		ldr	r2, [r3, #12]
 785 0054 039B     		ldr	r3, [sp, #12]
 786 0056 5B68     		ldr	r3, [r3, #4]
 787 0058 9A42     		cmp	r2, r3
 788 005a 03D3     		bcc	.L31
 789              		.loc 1 339 0
 790 005c 039B     		ldr	r3, [sp, #12]
 791 005e 1A68     		ldr	r2, [r3, #0]
 792 0060 039B     		ldr	r3, [sp, #12]
 793 0062 DA60     		str	r2, [r3, #12]
 794              	.L31:
 795              		.loc 1 340 0
 796 0064 039B     		ldr	r3, [sp, #12]
 797 0066 03F11C03 		add	r3, r3, #28
 798 006a 1846     		mov	r0, r3
 799 006c FFF7FEFF 		bl	chSemSignalI
 800              		.loc 1 341 0
 801 0070 FFF7FEFF 		bl	chSchRescheduleS
 802              	.L30:
 803              		.loc 1 343 0
 804 0074 059B     		ldr	r3, [sp, #20]
 805              		.loc 1 344 0
 806 0076 1846     		mov	r0, r3
 807 0078 07B0     		add	sp, sp, #28
 808 007a 00BD     		pop	{pc}
 809              		.cfi_endproc
 810              	.LFE16:
 811              		.size	chMBFetchS, .-chMBFetchS
 812 007c AFF30080 		.section	.rodata
 813 0077 00       		.align	2
 814              	.LC7:
 815 0078 2263684D 		.ascii	"\"chMBFetchI\"()\000"
 815      42466574 
 815      63684922 
 815      282900
 816 0087 00       		.section	.text.chMBFetchI,"ax",%progbits
 817              		.align	2
 818              		.p2align 4,,15
ARM GAS  /tmp/ccw4TIrd.s 			page 16


 819              		.global	chMBFetchI
 820              		.thumb
 821              		.thumb_func
 822              		.type	chMBFetchI, %function
 823              	chMBFetchI:
 824              	.LFB17:
 825              		.loc 1 360 0
 826              		.cfi_startproc
 827              		@ args = 0, pretend = 0, frame = 8
 828              		@ frame_needed = 0, uses_anonymous_args = 0
 829 0000 00B5     		push	{lr}
 830              	.LCFI20:
 831              		.cfi_def_cfa_offset 4
 832              		.cfi_offset 14, -4
 833 0002 83B0     		sub	sp, sp, #12
 834              	.LCFI21:
 835              		.cfi_def_cfa_offset 16
 836 0004 0190     		str	r0, [sp, #4]
 837 0006 0091     		str	r1, [sp, #0]
 838              		.loc 1 362 0
 839 0008 FFF7FEFF 		bl	chDbgCheckClassI
 840              		.loc 1 363 0
 841 000c 019B     		ldr	r3, [sp, #4]
 842 000e 002B     		cmp	r3, #0
 843 0010 02D0     		beq	.L33
 844              		.loc 1 363 0 is_stmt 0 discriminator 2
 845 0012 009B     		ldr	r3, [sp, #0]
 846 0014 002B     		cmp	r3, #0
 847 0016 05D1     		bne	.L34
 848              	.L33:
 849              		.loc 1 363 0 discriminator 1
 850 0018 40F20000 		movw	r0, #:lower16:.LC7
 851 001c C0F20000 		movt	r0, #:upper16:.LC7
 852 0020 FFF7FEFF 		bl	chDbgPanic
 853              	.L34:
 854              		.loc 1 365 0 is_stmt 1
 855 0024 019B     		ldr	r3, [sp, #4]
 856 0026 9B69     		ldr	r3, [r3, #24]
 857 0028 002B     		cmp	r3, #0
 858 002a 02DC     		bgt	.L35
 859              		.loc 1 366 0
 860 002c 4FF0FF33 		mov	r3, #-1
 861 0030 20E0     		b	.L36
 862              	.L35:
 863              		.loc 1 367 0
 864 0032 019B     		ldr	r3, [sp, #4]
 865 0034 9B69     		ldr	r3, [r3, #24]
 866 0036 03F1FF32 		add	r2, r3, #-1
 867 003a 019B     		ldr	r3, [sp, #4]
 868 003c 9A61     		str	r2, [r3, #24]
 869              		.loc 1 368 0
 870 003e 019B     		ldr	r3, [sp, #4]
 871 0040 DB68     		ldr	r3, [r3, #12]
 872 0042 1968     		ldr	r1, [r3, #0]
 873 0044 009A     		ldr	r2, [sp, #0]
 874 0046 1160     		str	r1, [r2, #0]
 875 0048 03F10402 		add	r2, r3, #4
ARM GAS  /tmp/ccw4TIrd.s 			page 17


 876 004c 019B     		ldr	r3, [sp, #4]
 877 004e DA60     		str	r2, [r3, #12]
 878              		.loc 1 369 0
 879 0050 019B     		ldr	r3, [sp, #4]
 880 0052 DA68     		ldr	r2, [r3, #12]
 881 0054 019B     		ldr	r3, [sp, #4]
 882 0056 5B68     		ldr	r3, [r3, #4]
 883 0058 9A42     		cmp	r2, r3
 884 005a 03D3     		bcc	.L37
 885              		.loc 1 370 0
 886 005c 019B     		ldr	r3, [sp, #4]
 887 005e 1A68     		ldr	r2, [r3, #0]
 888 0060 019B     		ldr	r3, [sp, #4]
 889 0062 DA60     		str	r2, [r3, #12]
 890              	.L37:
 891              		.loc 1 371 0
 892 0064 019B     		ldr	r3, [sp, #4]
 893 0066 03F11C03 		add	r3, r3, #28
 894 006a 1846     		mov	r0, r3
 895 006c FFF7FEFF 		bl	chSemSignalI
 896              		.loc 1 372 0
 897 0070 4FF00003 		mov	r3, #0
 898              	.L36:
 899              		.loc 1 373 0
 900 0074 1846     		mov	r0, r3
 901 0076 03B0     		add	sp, sp, #12
 902 0078 00BD     		pop	{pc}
 903              		.cfi_endproc
 904              	.LFE17:
 905              		.size	chMBFetchI, .-chMBFetchI
 906 007a 00BFAFF3 		.text
 906      0080
 907              	.Letext0:
 908              		.file 2 "/home/texzk/ChibiStudio/tools/GNU Tools ARM Embedded/4.6 2012q2/bin/../lib/gcc/arm-none-e
 909              		.file 3 "../../os/ports/GCC/ARMCMx/chtypes.h"
 910              		.file 4 "../../os/kernel/include/chlists.h"
 911              		.file 5 "../../os/kernel/include/chthreads.h"
 912              		.file 6 "../../os/ports/GCC/ARMCMx/chcore_v7m.h"
 913              		.file 7 "../../os/kernel/include/chsem.h"
 914              		.file 8 "../../os/kernel/include/chmtx.h"
 915              		.file 9 "../../os/kernel/include/chmboxes.h"
 916              		.section	.debug_info,"",%progbits
 917              	.Ldebug_info0:
 918 0000 94080000 		.4byte	0x894
 919 0004 0200     		.2byte	0x2
 920 0006 00000000 		.4byte	.Ldebug_abbrev0
 921 000a 04       		.byte	0x4
 922 000b 01       		.uleb128 0x1
 923 000c BD000000 		.4byte	.LASF81
 924 0010 01       		.byte	0x1
 925 0011 1F010000 		.4byte	.LASF82
 926 0015 4E030000 		.4byte	.LASF83
 927 0019 00000000 		.4byte	0
 928 001d 00000000 		.4byte	0
 929 0021 00000000 		.4byte	.Ldebug_ranges0+0
 930 0025 00000000 		.4byte	.Ldebug_line0
 931 0029 02       		.uleb128 0x2
ARM GAS  /tmp/ccw4TIrd.s 			page 18


 932 002a 04       		.byte	0x4
 933 002b 05       		.byte	0x5
 934 002c 696E7400 		.ascii	"int\000"
 935 0030 03       		.uleb128 0x3
 936 0031 04       		.byte	0x4
 937 0032 07       		.byte	0x7
 938 0033 58010000 		.4byte	.LASF0
 939 0037 03       		.uleb128 0x3
 940 0038 01       		.byte	0x1
 941 0039 06       		.byte	0x6
 942 003a 8E000000 		.4byte	.LASF1
 943 003e 04       		.uleb128 0x4
 944 003f 3F030000 		.4byte	.LASF5
 945 0043 02       		.byte	0x2
 946 0044 2A       		.byte	0x2a
 947 0045 49000000 		.4byte	0x49
 948 0049 03       		.uleb128 0x3
 949 004a 01       		.byte	0x1
 950 004b 08       		.byte	0x8
 951 004c 55020000 		.4byte	.LASF2
 952 0050 03       		.uleb128 0x3
 953 0051 02       		.byte	0x2
 954 0052 05       		.byte	0x5
 955 0053 74020000 		.4byte	.LASF3
 956 0057 03       		.uleb128 0x3
 957 0058 02       		.byte	0x2
 958 0059 07       		.byte	0x7
 959 005a 9A010000 		.4byte	.LASF4
 960 005e 04       		.uleb128 0x4
 961 005f 4D020000 		.4byte	.LASF6
 962 0063 02       		.byte	0x2
 963 0064 4F       		.byte	0x4f
 964 0065 69000000 		.4byte	0x69
 965 0069 03       		.uleb128 0x3
 966 006a 04       		.byte	0x4
 967 006b 05       		.byte	0x5
 968 006c B4000000 		.4byte	.LASF7
 969 0070 04       		.uleb128 0x4
 970 0071 C1020000 		.4byte	.LASF8
 971 0075 02       		.byte	0x2
 972 0076 50       		.byte	0x50
 973 0077 7B000000 		.4byte	0x7b
 974 007b 03       		.uleb128 0x3
 975 007c 04       		.byte	0x4
 976 007d 07       		.byte	0x7
 977 007e 6E010000 		.4byte	.LASF9
 978 0082 03       		.uleb128 0x3
 979 0083 08       		.byte	0x8
 980 0084 05       		.byte	0x5
 981 0085 80000000 		.4byte	.LASF10
 982 0089 04       		.uleb128 0x4
 983 008a 0D000000 		.4byte	.LASF11
 984 008e 02       		.byte	0x2
 985 008f 78       		.byte	0x78
 986 0090 94000000 		.4byte	0x94
 987 0094 03       		.uleb128 0x3
 988 0095 08       		.byte	0x8
ARM GAS  /tmp/ccw4TIrd.s 			page 19


 989 0096 07       		.byte	0x7
 990 0097 41000000 		.4byte	.LASF12
 991 009b 04       		.uleb128 0x4
 992 009c C9010000 		.4byte	.LASF13
 993 00a0 03       		.byte	0x3
 994 00a1 28       		.byte	0x28
 995 00a2 3E000000 		.4byte	0x3e
 996 00a6 04       		.uleb128 0x4
 997 00a7 06010000 		.4byte	.LASF14
 998 00ab 03       		.byte	0x3
 999 00ac 29       		.byte	0x29
 1000 00ad 3E000000 		.4byte	0x3e
 1001 00b1 04       		.uleb128 0x4
 1002 00b2 36020000 		.4byte	.LASF15
 1003 00b6 03       		.byte	0x3
 1004 00b7 2A       		.byte	0x2a
 1005 00b8 3E000000 		.4byte	0x3e
 1006 00bc 04       		.uleb128 0x4
 1007 00bd AA000000 		.4byte	.LASF16
 1008 00c1 03       		.byte	0x3
 1009 00c2 2B       		.byte	0x2b
 1010 00c3 3E000000 		.4byte	0x3e
 1011 00c7 04       		.uleb128 0x4
 1012 00c8 45020000 		.4byte	.LASF17
 1013 00cc 03       		.byte	0x3
 1014 00cd 2C       		.byte	0x2c
 1015 00ce 70000000 		.4byte	0x70
 1016 00d2 04       		.uleb128 0x4
 1017 00d3 B8010000 		.4byte	.LASF18
 1018 00d7 03       		.byte	0x3
 1019 00d8 2D       		.byte	0x2d
 1020 00d9 5E000000 		.4byte	0x5e
 1021 00dd 04       		.uleb128 0x4
 1022 00de DD010000 		.4byte	.LASF19
 1023 00e2 03       		.byte	0x3
 1024 00e3 2F       		.byte	0x2f
 1025 00e4 70000000 		.4byte	0x70
 1026 00e8 04       		.uleb128 0x4
 1027 00e9 D6020000 		.4byte	.LASF20
 1028 00ed 03       		.byte	0x3
 1029 00ee 30       		.byte	0x30
 1030 00ef 70000000 		.4byte	0x70
 1031 00f3 04       		.uleb128 0x4
 1032 00f4 47010000 		.4byte	.LASF21
 1033 00f8 03       		.byte	0x3
 1034 00f9 31       		.byte	0x31
 1035 00fa 5E000000 		.4byte	0x5e
 1036 00fe 04       		.uleb128 0x4
 1037 00ff AF020000 		.4byte	.LASF22
 1038 0103 04       		.byte	0x4
 1039 0104 23       		.byte	0x23
 1040 0105 09010000 		.4byte	0x109
 1041 0109 05       		.uleb128 0x5
 1042 010a AF020000 		.4byte	.LASF22
 1043 010e 4C       		.byte	0x4c
 1044 010f 05       		.byte	0x5
 1045 0110 57       		.byte	0x57
ARM GAS  /tmp/ccw4TIrd.s 			page 20


 1046 0111 3C020000 		.4byte	0x23c
 1047 0115 06       		.uleb128 0x6
 1048 0116 97020000 		.4byte	.LASF23
 1049 011a 05       		.byte	0x5
 1050 011b 58       		.byte	0x58
 1051 011c 61020000 		.4byte	0x261
 1052 0120 02       		.byte	0x2
 1053 0121 23       		.byte	0x23
 1054 0122 00       		.uleb128 0
 1055 0123 06       		.uleb128 0x6
 1056 0124 3E020000 		.4byte	.LASF24
 1057 0128 05       		.byte	0x5
 1058 0129 5A       		.byte	0x5a
 1059 012a 61020000 		.4byte	0x261
 1060 012e 02       		.byte	0x2
 1061 012f 23       		.byte	0x23
 1062 0130 04       		.uleb128 0x4
 1063 0131 06       		.uleb128 0x6
 1064 0132 79000000 		.4byte	.LASF25
 1065 0136 05       		.byte	0x5
 1066 0137 5C       		.byte	0x5c
 1067 0138 C7000000 		.4byte	0xc7
 1068 013c 02       		.byte	0x2
 1069 013d 23       		.byte	0x23
 1070 013e 08       		.uleb128 0x8
 1071 013f 06       		.uleb128 0x6
 1072 0140 9B030000 		.4byte	.LASF26
 1073 0144 05       		.byte	0x5
 1074 0145 5D       		.byte	0x5d
 1075 0146 3A030000 		.4byte	0x33a
 1076 014a 02       		.byte	0x2
 1077 014b 23       		.byte	0x23
 1078 014c 0C       		.uleb128 0xc
 1079 014d 06       		.uleb128 0x6
 1080 014e 0F010000 		.4byte	.LASF27
 1081 0152 05       		.byte	0x5
 1082 0153 5F       		.byte	0x5f
 1083 0154 61020000 		.4byte	0x261
 1084 0158 02       		.byte	0x2
 1085 0159 23       		.byte	0x23
 1086 015a 10       		.uleb128 0x10
 1087 015b 06       		.uleb128 0x6
 1088 015c 12020000 		.4byte	.LASF28
 1089 0160 05       		.byte	0x5
 1090 0161 60       		.byte	0x60
 1091 0162 61020000 		.4byte	0x261
 1092 0166 02       		.byte	0x2
 1093 0167 23       		.byte	0x23
 1094 0168 14       		.uleb128 0x14
 1095 0169 06       		.uleb128 0x6
 1096 016a 31030000 		.4byte	.LASF29
 1097 016e 05       		.byte	0x5
 1098 016f 67       		.byte	0x67
 1099 0170 81040000 		.4byte	0x481
 1100 0174 02       		.byte	0x2
 1101 0175 23       		.byte	0x23
 1102 0176 18       		.uleb128 0x18
ARM GAS  /tmp/ccw4TIrd.s 			page 21


 1103 0177 06       		.uleb128 0x6
 1104 0178 4D010000 		.4byte	.LASF30
 1105 017c 05       		.byte	0x5
 1106 017d 6D       		.byte	0x6d
 1107 017e 93040000 		.4byte	0x493
 1108 0182 02       		.byte	0x2
 1109 0183 23       		.byte	0x23
 1110 0184 1C       		.uleb128 0x1c
 1111 0185 06       		.uleb128 0x6
 1112 0186 7E020000 		.4byte	.LASF31
 1113 018a 05       		.byte	0x5
 1114 018b 72       		.byte	0x72
 1115 018c A6000000 		.4byte	0xa6
 1116 0190 02       		.byte	0x2
 1117 0191 23       		.byte	0x23
 1118 0192 20       		.uleb128 0x20
 1119 0193 06       		.uleb128 0x6
 1120 0194 9E020000 		.4byte	.LASF32
 1121 0198 05       		.byte	0x5
 1122 0199 76       		.byte	0x76
 1123 019a 9B000000 		.4byte	0x9b
 1124 019e 02       		.byte	0x2
 1125 019f 23       		.byte	0x23
 1126 01a0 21       		.uleb128 0x21
 1127 01a1 06       		.uleb128 0x6
 1128 01a2 38030000 		.4byte	.LASF33
 1129 01a6 05       		.byte	0x5
 1130 01a7 7B       		.byte	0x7b
 1131 01a8 B1000000 		.4byte	0xb1
 1132 01ac 02       		.byte	0x2
 1133 01ad 23       		.byte	0x23
 1134 01ae 22       		.uleb128 0x22
 1135 01af 06       		.uleb128 0x6
 1136 01b0 86020000 		.4byte	.LASF34
 1137 01b4 05       		.byte	0x5
 1138 01b5 81       		.byte	0x81
 1139 01b6 BC000000 		.4byte	0xbc
 1140 01ba 02       		.byte	0x2
 1141 01bb 23       		.byte	0x23
 1142 01bc 23       		.uleb128 0x23
 1143 01bd 06       		.uleb128 0x6
 1144 01be EB020000 		.4byte	.LASF35
 1145 01c2 05       		.byte	0x5
 1146 01c3 88       		.byte	0x88
 1147 01c4 5D030000 		.4byte	0x35d
 1148 01c8 02       		.byte	0x2
 1149 01c9 23       		.byte	0x23
 1150 01ca 24       		.uleb128 0x24
 1151 01cb 07       		.uleb128 0x7
 1152 01cc 705F7500 		.ascii	"p_u\000"
 1153 01d0 05       		.byte	0x5
 1154 01d1 AD       		.byte	0xad
 1155 01d2 4C040000 		.4byte	0x44c
 1156 01d6 02       		.byte	0x2
 1157 01d7 23       		.byte	0x23
 1158 01d8 28       		.uleb128 0x28
 1159 01d9 06       		.uleb128 0x6
ARM GAS  /tmp/ccw4TIrd.s 			page 22


 1160 01da A1030000 		.4byte	.LASF36
 1161 01de 05       		.byte	0x5
 1162 01df B2       		.byte	0xb2
 1163 01e0 89020000 		.4byte	0x289
 1164 01e4 02       		.byte	0x2
 1165 01e5 23       		.byte	0x23
 1166 01e6 2C       		.uleb128 0x2c
 1167 01e7 06       		.uleb128 0x6
 1168 01e8 07030000 		.4byte	.LASF37
 1169 01ec 05       		.byte	0x5
 1170 01ed B8       		.byte	0xb8
 1171 01ee 67020000 		.4byte	0x267
 1172 01f2 02       		.byte	0x2
 1173 01f3 23       		.byte	0x23
 1174 01f4 30       		.uleb128 0x30
 1175 01f5 06       		.uleb128 0x6
 1176 01f6 00000000 		.4byte	.LASF38
 1177 01fa 05       		.byte	0x5
 1178 01fb BC       		.byte	0xbc
 1179 01fc D2000000 		.4byte	0xd2
 1180 0200 02       		.byte	0x2
 1181 0201 23       		.byte	0x23
 1182 0202 38       		.uleb128 0x38
 1183 0203 06       		.uleb128 0x6
 1184 0204 B6020000 		.4byte	.LASF39
 1185 0208 05       		.byte	0x5
 1186 0209 C2       		.byte	0xc2
 1187 020a DD000000 		.4byte	0xdd
 1188 020e 02       		.byte	0x2
 1189 020f 23       		.byte	0x23
 1190 0210 3C       		.uleb128 0x3c
 1191 0211 06       		.uleb128 0x6
 1192 0212 6A020000 		.4byte	.LASF40
 1193 0216 05       		.byte	0x5
 1194 0217 C9       		.byte	0xc9
 1195 0218 99040000 		.4byte	0x499
 1196 021c 02       		.byte	0x2
 1197 021d 23       		.byte	0x23
 1198 021e 40       		.uleb128 0x40
 1199 021f 06       		.uleb128 0x6
 1200 0220 E0020000 		.4byte	.LASF41
 1201 0224 05       		.byte	0x5
 1202 0225 CD       		.byte	0xcd
 1203 0226 C7000000 		.4byte	0xc7
 1204 022a 02       		.byte	0x2
 1205 022b 23       		.byte	0x23
 1206 022c 44       		.uleb128 0x44
 1207 022d 06       		.uleb128 0x6
 1208 022e 9A000000 		.4byte	.LASF42
 1209 0232 05       		.byte	0x5
 1210 0233 D3       		.byte	0xd3
 1211 0234 9F020000 		.4byte	0x29f
 1212 0238 02       		.byte	0x2
 1213 0239 23       		.byte	0x23
 1214 023a 48       		.uleb128 0x48
 1215 023b 00       		.byte	0
 1216 023c 08       		.uleb128 0x8
ARM GAS  /tmp/ccw4TIrd.s 			page 23


 1217 023d 08       		.byte	0x8
 1218 023e 04       		.byte	0x4
 1219 023f 5A       		.byte	0x5a
 1220 0240 61020000 		.4byte	0x261
 1221 0244 06       		.uleb128 0x6
 1222 0245 97020000 		.4byte	.LASF23
 1223 0249 04       		.byte	0x4
 1224 024a 5B       		.byte	0x5b
 1225 024b 61020000 		.4byte	0x261
 1226 024f 02       		.byte	0x2
 1227 0250 23       		.byte	0x23
 1228 0251 00       		.uleb128 0
 1229 0252 06       		.uleb128 0x6
 1230 0253 3E020000 		.4byte	.LASF24
 1231 0257 04       		.byte	0x4
 1232 0258 5D       		.byte	0x5d
 1233 0259 61020000 		.4byte	0x261
 1234 025d 02       		.byte	0x2
 1235 025e 23       		.byte	0x23
 1236 025f 04       		.uleb128 0x4
 1237 0260 00       		.byte	0
 1238 0261 09       		.uleb128 0x9
 1239 0262 04       		.byte	0x4
 1240 0263 FE000000 		.4byte	0xfe
 1241 0267 04       		.uleb128 0x4
 1242 0268 1A020000 		.4byte	.LASF43
 1243 026c 04       		.byte	0x4
 1244 026d 5F       		.byte	0x5f
 1245 026e 3C020000 		.4byte	0x23c
 1246 0272 08       		.uleb128 0x8
 1247 0273 04       		.byte	0x4
 1248 0274 04       		.byte	0x4
 1249 0275 64       		.byte	0x64
 1250 0276 89020000 		.4byte	0x289
 1251 027a 06       		.uleb128 0x6
 1252 027b 97020000 		.4byte	.LASF23
 1253 027f 04       		.byte	0x4
 1254 0280 66       		.byte	0x66
 1255 0281 61020000 		.4byte	0x261
 1256 0285 02       		.byte	0x2
 1257 0286 23       		.byte	0x23
 1258 0287 00       		.uleb128 0
 1259 0288 00       		.byte	0
 1260 0289 04       		.uleb128 0x4
 1261 028a D1010000 		.4byte	.LASF44
 1262 028e 04       		.byte	0x4
 1263 028f 69       		.byte	0x69
 1264 0290 72020000 		.4byte	0x272
 1265 0294 04       		.uleb128 0x4
 1266 0295 3E010000 		.4byte	.LASF45
 1267 0299 06       		.byte	0x6
 1268 029a DE       		.byte	0xde
 1269 029b 9F020000 		.4byte	0x29f
 1270 029f 0A       		.uleb128 0xa
 1271 02a0 04       		.byte	0x4
 1272 02a1 04       		.uleb128 0x4
 1273 02a2 F4010000 		.4byte	.LASF46
ARM GAS  /tmp/ccw4TIrd.s 			page 24


 1274 02a6 06       		.byte	0x6
 1275 02a7 E4       		.byte	0xe4
 1276 02a8 89000000 		.4byte	0x89
 1277 02ac 0B       		.uleb128 0xb
 1278 02ad 00030000 		.4byte	.LASF47
 1279 02b1 24       		.byte	0x24
 1280 02b2 06       		.byte	0x6
 1281 02b3 0501     		.2byte	0x105
 1282 02b5 3A030000 		.4byte	0x33a
 1283 02b9 0C       		.uleb128 0xc
 1284 02ba 723400   		.ascii	"r4\000"
 1285 02bd 06       		.byte	0x6
 1286 02be 1801     		.2byte	0x118
 1287 02c0 94020000 		.4byte	0x294
 1288 02c4 02       		.byte	0x2
 1289 02c5 23       		.byte	0x23
 1290 02c6 00       		.uleb128 0
 1291 02c7 0C       		.uleb128 0xc
 1292 02c8 723500   		.ascii	"r5\000"
 1293 02cb 06       		.byte	0x6
 1294 02cc 1901     		.2byte	0x119
 1295 02ce 94020000 		.4byte	0x294
 1296 02d2 02       		.byte	0x2
 1297 02d3 23       		.byte	0x23
 1298 02d4 04       		.uleb128 0x4
 1299 02d5 0C       		.uleb128 0xc
 1300 02d6 723600   		.ascii	"r6\000"
 1301 02d9 06       		.byte	0x6
 1302 02da 1A01     		.2byte	0x11a
 1303 02dc 94020000 		.4byte	0x294
 1304 02e0 02       		.byte	0x2
 1305 02e1 23       		.byte	0x23
 1306 02e2 08       		.uleb128 0x8
 1307 02e3 0C       		.uleb128 0xc
 1308 02e4 723700   		.ascii	"r7\000"
 1309 02e7 06       		.byte	0x6
 1310 02e8 1B01     		.2byte	0x11b
 1311 02ea 94020000 		.4byte	0x294
 1312 02ee 02       		.byte	0x2
 1313 02ef 23       		.byte	0x23
 1314 02f0 0C       		.uleb128 0xc
 1315 02f1 0C       		.uleb128 0xc
 1316 02f2 723800   		.ascii	"r8\000"
 1317 02f5 06       		.byte	0x6
 1318 02f6 1C01     		.2byte	0x11c
 1319 02f8 94020000 		.4byte	0x294
 1320 02fc 02       		.byte	0x2
 1321 02fd 23       		.byte	0x23
 1322 02fe 10       		.uleb128 0x10
 1323 02ff 0C       		.uleb128 0xc
 1324 0300 723900   		.ascii	"r9\000"
 1325 0303 06       		.byte	0x6
 1326 0304 1D01     		.2byte	0x11d
 1327 0306 94020000 		.4byte	0x294
 1328 030a 02       		.byte	0x2
 1329 030b 23       		.byte	0x23
 1330 030c 14       		.uleb128 0x14
ARM GAS  /tmp/ccw4TIrd.s 			page 25


 1331 030d 0C       		.uleb128 0xc
 1332 030e 72313000 		.ascii	"r10\000"
 1333 0312 06       		.byte	0x6
 1334 0313 1E01     		.2byte	0x11e
 1335 0315 94020000 		.4byte	0x294
 1336 0319 02       		.byte	0x2
 1337 031a 23       		.byte	0x23
 1338 031b 18       		.uleb128 0x18
 1339 031c 0C       		.uleb128 0xc
 1340 031d 72313100 		.ascii	"r11\000"
 1341 0321 06       		.byte	0x6
 1342 0322 1F01     		.2byte	0x11f
 1343 0324 94020000 		.4byte	0x294
 1344 0328 02       		.byte	0x2
 1345 0329 23       		.byte	0x23
 1346 032a 1C       		.uleb128 0x1c
 1347 032b 0C       		.uleb128 0xc
 1348 032c 6C7200   		.ascii	"lr\000"
 1349 032f 06       		.byte	0x6
 1350 0330 2001     		.2byte	0x120
 1351 0332 94020000 		.4byte	0x294
 1352 0336 02       		.byte	0x2
 1353 0337 23       		.byte	0x23
 1354 0338 20       		.uleb128 0x20
 1355 0339 00       		.byte	0
 1356 033a 0B       		.uleb128 0xb
 1357 033b 92010000 		.4byte	.LASF48
 1358 033f 04       		.byte	0x4
 1359 0340 06       		.byte	0x6
 1360 0341 2A01     		.2byte	0x12a
 1361 0343 57030000 		.4byte	0x357
 1362 0347 0C       		.uleb128 0xc
 1363 0348 72313300 		.ascii	"r13\000"
 1364 034c 06       		.byte	0x6
 1365 034d 2B01     		.2byte	0x12b
 1366 034f 57030000 		.4byte	0x357
 1367 0353 02       		.byte	0x2
 1368 0354 23       		.byte	0x23
 1369 0355 00       		.uleb128 0
 1370 0356 00       		.byte	0
 1371 0357 09       		.uleb128 0x9
 1372 0358 04       		.byte	0x4
 1373 0359 AC020000 		.4byte	0x2ac
 1374 035d 0D       		.uleb128 0xd
 1375 035e E8000000 		.4byte	0xe8
 1376 0362 05       		.uleb128 0x5
 1377 0363 1C030000 		.4byte	.LASF49
 1378 0367 0C       		.byte	0xc
 1379 0368 07       		.byte	0x7
 1380 0369 25       		.byte	0x25
 1381 036a 8B030000 		.4byte	0x38b
 1382 036e 06       		.uleb128 0x6
 1383 036f 17010000 		.4byte	.LASF50
 1384 0373 07       		.byte	0x7
 1385 0374 26       		.byte	0x26
 1386 0375 67020000 		.4byte	0x267
 1387 0379 02       		.byte	0x2
ARM GAS  /tmp/ccw4TIrd.s 			page 26


 1388 037a 23       		.byte	0x23
 1389 037b 00       		.uleb128 0
 1390 037c 06       		.uleb128 0x6
 1391 037d 8C010000 		.4byte	.LASF51
 1392 0381 07       		.byte	0x7
 1393 0382 28       		.byte	0x28
 1394 0383 F3000000 		.4byte	0xf3
 1395 0387 02       		.byte	0x2
 1396 0388 23       		.byte	0x23
 1397 0389 08       		.uleb128 0x8
 1398 038a 00       		.byte	0
 1399 038b 04       		.uleb128 0x4
 1400 038c 1C030000 		.4byte	.LASF49
 1401 0390 07       		.byte	0x7
 1402 0391 29       		.byte	0x29
 1403 0392 62030000 		.4byte	0x362
 1404 0396 05       		.uleb128 0x5
 1405 0397 E9010000 		.4byte	.LASF52
 1406 039b 10       		.byte	0x10
 1407 039c 08       		.byte	0x8
 1408 039d 25       		.byte	0x25
 1409 039e CD030000 		.4byte	0x3cd
 1410 03a2 06       		.uleb128 0x6
 1411 03a3 A2000000 		.4byte	.LASF53
 1412 03a7 08       		.byte	0x8
 1413 03a8 26       		.byte	0x26
 1414 03a9 67020000 		.4byte	0x267
 1415 03ad 02       		.byte	0x2
 1416 03ae 23       		.byte	0x23
 1417 03af 00       		.uleb128 0
 1418 03b0 06       		.uleb128 0x6
 1419 03b1 93030000 		.4byte	.LASF54
 1420 03b5 08       		.byte	0x8
 1421 03b6 28       		.byte	0x28
 1422 03b7 61020000 		.4byte	0x261
 1423 03bb 02       		.byte	0x2
 1424 03bc 23       		.byte	0x23
 1425 03bd 08       		.uleb128 0x8
 1426 03be 06       		.uleb128 0x6
 1427 03bf CF020000 		.4byte	.LASF55
 1428 03c3 08       		.byte	0x8
 1429 03c4 2A       		.byte	0x2a
 1430 03c5 CD030000 		.4byte	0x3cd
 1431 03c9 02       		.byte	0x2
 1432 03ca 23       		.byte	0x23
 1433 03cb 0C       		.uleb128 0xc
 1434 03cc 00       		.byte	0
 1435 03cd 09       		.uleb128 0x9
 1436 03ce 04       		.byte	0x4
 1437 03cf 96030000 		.4byte	0x396
 1438 03d3 04       		.uleb128 0x4
 1439 03d4 E9010000 		.4byte	.LASF52
 1440 03d8 08       		.byte	0x8
 1441 03d9 2C       		.byte	0x2c
 1442 03da 96030000 		.4byte	0x396
 1443 03de 08       		.uleb128 0x8
 1444 03df 28       		.byte	0x28
ARM GAS  /tmp/ccw4TIrd.s 			page 27


 1445 03e0 09       		.byte	0x9
 1446 03e1 2C       		.byte	0x2c
 1447 03e2 3B040000 		.4byte	0x43b
 1448 03e6 06       		.uleb128 0x6
 1449 03e7 27020000 		.4byte	.LASF56
 1450 03eb 09       		.byte	0x9
 1451 03ec 2D       		.byte	0x2d
 1452 03ed 3B040000 		.4byte	0x43b
 1453 03f1 02       		.byte	0x2
 1454 03f2 23       		.byte	0x23
 1455 03f3 00       		.uleb128 0
 1456 03f4 06       		.uleb128 0x6
 1457 03f5 63020000 		.4byte	.LASF57
 1458 03f9 09       		.byte	0x9
 1459 03fa 2F       		.byte	0x2f
 1460 03fb 3B040000 		.4byte	0x43b
 1461 03ff 02       		.byte	0x2
 1462 0400 23       		.byte	0x23
 1463 0401 04       		.uleb128 0x4
 1464 0402 06       		.uleb128 0x6
 1465 0403 70000000 		.4byte	.LASF58
 1466 0407 09       		.byte	0x9
 1467 0408 31       		.byte	0x31
 1468 0409 3B040000 		.4byte	0x43b
 1469 040d 02       		.byte	0x2
 1470 040e 23       		.byte	0x23
 1471 040f 08       		.uleb128 0x8
 1472 0410 06       		.uleb128 0x6
 1473 0411 FF010000 		.4byte	.LASF59
 1474 0415 09       		.byte	0x9
 1475 0416 32       		.byte	0x32
 1476 0417 3B040000 		.4byte	0x43b
 1477 041b 02       		.byte	0x2
 1478 041c 23       		.byte	0x23
 1479 041d 0C       		.uleb128 0xc
 1480 041e 06       		.uleb128 0x6
 1481 041f 26030000 		.4byte	.LASF60
 1482 0423 09       		.byte	0x9
 1483 0424 33       		.byte	0x33
 1484 0425 8B030000 		.4byte	0x38b
 1485 0429 02       		.byte	0x2
 1486 042a 23       		.byte	0x23
 1487 042b 10       		.uleb128 0x10
 1488 042c 06       		.uleb128 0x6
 1489 042d 80010000 		.4byte	.LASF61
 1490 0431 09       		.byte	0x9
 1491 0432 35       		.byte	0x35
 1492 0433 8B030000 		.4byte	0x38b
 1493 0437 02       		.byte	0x2
 1494 0438 23       		.byte	0x23
 1495 0439 1C       		.uleb128 0x1c
 1496 043a 00       		.byte	0
 1497 043b 09       		.uleb128 0x9
 1498 043c 04       		.byte	0x4
 1499 043d D2000000 		.4byte	0xd2
 1500 0441 04       		.uleb128 0x4
 1501 0442 2A000000 		.4byte	.LASF62
ARM GAS  /tmp/ccw4TIrd.s 			page 28


 1502 0446 09       		.byte	0x9
 1503 0447 37       		.byte	0x37
 1504 0448 DE030000 		.4byte	0x3de
 1505 044c 0E       		.uleb128 0xe
 1506 044d 04       		.byte	0x4
 1507 044e 05       		.byte	0x5
 1508 044f 8F       		.byte	0x8f
 1509 0450 81040000 		.4byte	0x481
 1510 0454 0F       		.uleb128 0xf
 1511 0455 06000000 		.4byte	.LASF63
 1512 0459 05       		.byte	0x5
 1513 045a 96       		.byte	0x96
 1514 045b D2000000 		.4byte	0xd2
 1515 045f 0F       		.uleb128 0xf
 1516 0460 58000000 		.4byte	.LASF64
 1517 0464 05       		.byte	0x5
 1518 0465 9D       		.byte	0x9d
 1519 0466 D2000000 		.4byte	0xd2
 1520 046a 0F       		.uleb128 0xf
 1521 046b 47030000 		.4byte	.LASF65
 1522 046f 05       		.byte	0x5
 1523 0470 A4       		.byte	0xa4
 1524 0471 9F020000 		.4byte	0x29f
 1525 0475 0F       		.uleb128 0xf
 1526 0476 90020000 		.4byte	.LASF66
 1527 047a 05       		.byte	0x5
 1528 047b AB       		.byte	0xab
 1529 047c DD000000 		.4byte	0xdd
 1530 0480 00       		.byte	0
 1531 0481 09       		.uleb128 0x9
 1532 0482 04       		.byte	0x4
 1533 0483 87040000 		.4byte	0x487
 1534 0487 10       		.uleb128 0x10
 1535 0488 8C040000 		.4byte	0x48c
 1536 048c 03       		.uleb128 0x3
 1537 048d 01       		.byte	0x1
 1538 048e 08       		.byte	0x8
 1539 048f CA020000 		.4byte	.LASF67
 1540 0493 09       		.uleb128 0x9
 1541 0494 04       		.byte	0x4
 1542 0495 A1020000 		.4byte	0x2a1
 1543 0499 09       		.uleb128 0x9
 1544 049a 04       		.byte	0x4
 1545 049b D3030000 		.4byte	0x3d3
 1546 049f 11       		.uleb128 0x11
 1547 04a0 01       		.byte	0x1
 1548 04a1 65010000 		.4byte	.LASF68
 1549 04a5 01       		.byte	0x1
 1550 04a6 41       		.byte	0x41
 1551 04a7 01       		.byte	0x1
 1552 04a8 00000000 		.4byte	.LFB7
 1553 04ac 6E000000 		.4byte	.LFE7
 1554 04b0 00000000 		.4byte	.LLST0
 1555 04b4 E1040000 		.4byte	0x4e1
 1556 04b8 12       		.uleb128 0x12
 1557 04b9 6D627000 		.ascii	"mbp\000"
 1558 04bd 01       		.byte	0x1
ARM GAS  /tmp/ccw4TIrd.s 			page 29


 1559 04be 41       		.byte	0x41
 1560 04bf E1040000 		.4byte	0x4e1
 1561 04c3 02       		.byte	0x2
 1562 04c4 91       		.byte	0x91
 1563 04c5 74       		.sleb128 -12
 1564 04c6 12       		.uleb128 0x12
 1565 04c7 62756600 		.ascii	"buf\000"
 1566 04cb 01       		.byte	0x1
 1567 04cc 41       		.byte	0x41
 1568 04cd 3B040000 		.4byte	0x43b
 1569 04d1 02       		.byte	0x2
 1570 04d2 91       		.byte	0x91
 1571 04d3 70       		.sleb128 -16
 1572 04d4 12       		.uleb128 0x12
 1573 04d5 6E00     		.ascii	"n\000"
 1574 04d7 01       		.byte	0x1
 1575 04d8 41       		.byte	0x41
 1576 04d9 F3000000 		.4byte	0xf3
 1577 04dd 02       		.byte	0x2
 1578 04de 91       		.byte	0x91
 1579 04df 6C       		.sleb128 -20
 1580 04e0 00       		.byte	0
 1581 04e1 09       		.uleb128 0x9
 1582 04e2 04       		.byte	0x4
 1583 04e3 41040000 		.4byte	0x441
 1584 04e7 11       		.uleb128 0x11
 1585 04e8 01       		.byte	0x1
 1586 04e9 08020000 		.4byte	.LASF69
 1587 04ed 01       		.byte	0x1
 1588 04ee 54       		.byte	0x54
 1589 04ef 01       		.byte	0x1
 1590 04f0 00000000 		.4byte	.LFB8
 1591 04f4 76000000 		.4byte	.LFE8
 1592 04f8 2C000000 		.4byte	.LLST1
 1593 04fc 41050000 		.4byte	0x541
 1594 0500 12       		.uleb128 0x12
 1595 0501 6D627000 		.ascii	"mbp\000"
 1596 0505 01       		.byte	0x1
 1597 0506 54       		.byte	0x54
 1598 0507 E1040000 		.4byte	0x4e1
 1599 050b 02       		.byte	0x2
 1600 050c 91       		.byte	0x91
 1601 050d 74       		.sleb128 -12
 1602 050e 13       		.uleb128 0x13
 1603 050f 18000000 		.4byte	.LBB2
 1604 0513 20000000 		.4byte	.LBE2
 1605 0517 29050000 		.4byte	0x529
 1606 051b 14       		.uleb128 0x14
 1607 051c 746D7000 		.ascii	"tmp\000"
 1608 0520 01       		.byte	0x1
 1609 0521 58       		.byte	0x58
 1610 0522 70000000 		.4byte	0x70
 1611 0526 01       		.byte	0x1
 1612 0527 53       		.byte	0x53
 1613 0528 00       		.byte	0
 1614 0529 15       		.uleb128 0x15
 1615 052a 6A000000 		.4byte	.LBB3
ARM GAS  /tmp/ccw4TIrd.s 			page 30


 1616 052e 72000000 		.4byte	.LBE3
 1617 0532 14       		.uleb128 0x14
 1618 0533 746D7000 		.ascii	"tmp\000"
 1619 0537 01       		.byte	0x1
 1620 0538 5D       		.byte	0x5d
 1621 0539 70000000 		.4byte	0x70
 1622 053d 01       		.byte	0x1
 1623 053e 53       		.byte	0x53
 1624 053f 00       		.byte	0
 1625 0540 00       		.byte	0
 1626 0541 16       		.uleb128 0x16
 1627 0542 01       		.byte	0x1
 1628 0543 A6020000 		.4byte	.LASF71
 1629 0547 01       		.byte	0x1
 1630 0548 73       		.byte	0x73
 1631 0549 01       		.byte	0x1
 1632 054a D2000000 		.4byte	0xd2
 1633 054e 00000000 		.4byte	.LFB9
 1634 0552 38000000 		.4byte	.LFE9
 1635 0556 58000000 		.4byte	.LLST2
 1636 055a C9050000 		.4byte	0x5c9
 1637 055e 12       		.uleb128 0x12
 1638 055f 6D627000 		.ascii	"mbp\000"
 1639 0563 01       		.byte	0x1
 1640 0564 73       		.byte	0x73
 1641 0565 E1040000 		.4byte	0x4e1
 1642 0569 02       		.byte	0x2
 1643 056a 91       		.byte	0x91
 1644 056b 6C       		.sleb128 -20
 1645 056c 12       		.uleb128 0x12
 1646 056d 6D736700 		.ascii	"msg\000"
 1647 0571 01       		.byte	0x1
 1648 0572 73       		.byte	0x73
 1649 0573 D2000000 		.4byte	0xd2
 1650 0577 02       		.byte	0x2
 1651 0578 91       		.byte	0x91
 1652 0579 68       		.sleb128 -24
 1653 057a 17       		.uleb128 0x17
 1654 057b 31020000 		.4byte	.LASF70
 1655 057f 01       		.byte	0x1
 1656 0580 73       		.byte	0x73
 1657 0581 E8000000 		.4byte	0xe8
 1658 0585 02       		.byte	0x2
 1659 0586 91       		.byte	0x91
 1660 0587 64       		.sleb128 -28
 1661 0588 18       		.uleb128 0x18
 1662 0589 06000000 		.4byte	.LASF63
 1663 058d 01       		.byte	0x1
 1664 058e 74       		.byte	0x74
 1665 058f D2000000 		.4byte	0xd2
 1666 0593 02       		.byte	0x2
 1667 0594 91       		.byte	0x91
 1668 0595 74       		.sleb128 -12
 1669 0596 13       		.uleb128 0x13
 1670 0597 0A000000 		.4byte	.LBB4
 1671 059b 12000000 		.4byte	.LBE4
 1672 059f B1050000 		.4byte	0x5b1
ARM GAS  /tmp/ccw4TIrd.s 			page 31


 1673 05a3 14       		.uleb128 0x14
 1674 05a4 746D7000 		.ascii	"tmp\000"
 1675 05a8 01       		.byte	0x1
 1676 05a9 76       		.byte	0x76
 1677 05aa 70000000 		.4byte	0x70
 1678 05ae 01       		.byte	0x1
 1679 05af 53       		.byte	0x53
 1680 05b0 00       		.byte	0
 1681 05b1 15       		.uleb128 0x15
 1682 05b2 28000000 		.4byte	.LBB5
 1683 05b6 30000000 		.4byte	.LBE5
 1684 05ba 14       		.uleb128 0x14
 1685 05bb 746D7000 		.ascii	"tmp\000"
 1686 05bf 01       		.byte	0x1
 1687 05c0 78       		.byte	0x78
 1688 05c1 70000000 		.4byte	0x70
 1689 05c5 01       		.byte	0x1
 1690 05c6 53       		.byte	0x53
 1691 05c7 00       		.byte	0
 1692 05c8 00       		.byte	0
 1693 05c9 16       		.uleb128 0x16
 1694 05ca 01       		.byte	0x1
 1695 05cb 20000000 		.4byte	.LASF72
 1696 05cf 01       		.byte	0x1
 1697 05d0 8F       		.byte	0x8f
 1698 05d1 01       		.byte	0x1
 1699 05d2 D2000000 		.4byte	0xd2
 1700 05d6 00000000 		.4byte	.LFB10
 1701 05da 74000000 		.4byte	.LFE10
 1702 05de 84000000 		.4byte	.LLST3
 1703 05e2 1F060000 		.4byte	0x61f
 1704 05e6 12       		.uleb128 0x12
 1705 05e7 6D627000 		.ascii	"mbp\000"
 1706 05eb 01       		.byte	0x1
 1707 05ec 8F       		.byte	0x8f
 1708 05ed E1040000 		.4byte	0x4e1
 1709 05f1 02       		.byte	0x2
 1710 05f2 91       		.byte	0x91
 1711 05f3 6C       		.sleb128 -20
 1712 05f4 12       		.uleb128 0x12
 1713 05f5 6D736700 		.ascii	"msg\000"
 1714 05f9 01       		.byte	0x1
 1715 05fa 8F       		.byte	0x8f
 1716 05fb D2000000 		.4byte	0xd2
 1717 05ff 02       		.byte	0x2
 1718 0600 91       		.byte	0x91
 1719 0601 68       		.sleb128 -24
 1720 0602 17       		.uleb128 0x17
 1721 0603 31020000 		.4byte	.LASF70
 1722 0607 01       		.byte	0x1
 1723 0608 8F       		.byte	0x8f
 1724 0609 E8000000 		.4byte	0xe8
 1725 060d 02       		.byte	0x2
 1726 060e 91       		.byte	0x91
 1727 060f 64       		.sleb128 -28
 1728 0610 18       		.uleb128 0x18
 1729 0611 06000000 		.4byte	.LASF63
ARM GAS  /tmp/ccw4TIrd.s 			page 32


 1730 0615 01       		.byte	0x1
 1731 0616 90       		.byte	0x90
 1732 0617 D2000000 		.4byte	0xd2
 1733 061b 02       		.byte	0x2
 1734 061c 91       		.byte	0x91
 1735 061d 74       		.sleb128 -12
 1736 061e 00       		.byte	0
 1737 061f 16       		.uleb128 0x16
 1738 0620 01       		.byte	0x1
 1739 0621 16000000 		.4byte	.LASF73
 1740 0625 01       		.byte	0x1
 1741 0626 AE       		.byte	0xae
 1742 0627 01       		.byte	0x1
 1743 0628 D2000000 		.4byte	0xd2
 1744 062c 00000000 		.4byte	.LFB11
 1745 0630 72000000 		.4byte	.LFE11
 1746 0634 B0000000 		.4byte	.LLST4
 1747 0638 59060000 		.4byte	0x659
 1748 063c 12       		.uleb128 0x12
 1749 063d 6D627000 		.ascii	"mbp\000"
 1750 0641 01       		.byte	0x1
 1751 0642 AE       		.byte	0xae
 1752 0643 E1040000 		.4byte	0x4e1
 1753 0647 02       		.byte	0x2
 1754 0648 91       		.byte	0x91
 1755 0649 74       		.sleb128 -12
 1756 064a 12       		.uleb128 0x12
 1757 064b 6D736700 		.ascii	"msg\000"
 1758 064f 01       		.byte	0x1
 1759 0650 AE       		.byte	0xae
 1760 0651 D2000000 		.4byte	0xd2
 1761 0655 02       		.byte	0x2
 1762 0656 91       		.byte	0x91
 1763 0657 70       		.sleb128 -16
 1764 0658 00       		.byte	0
 1765 0659 16       		.uleb128 0x16
 1766 065a 01       		.byte	0x1
 1767 065b F2020000 		.4byte	.LASF74
 1768 065f 01       		.byte	0x1
 1769 0660 D0       		.byte	0xd0
 1770 0661 01       		.byte	0x1
 1771 0662 D2000000 		.4byte	0xd2
 1772 0666 00000000 		.4byte	.LFB12
 1773 066a 38000000 		.4byte	.LFE12
 1774 066e DC000000 		.4byte	.LLST5
 1775 0672 E1060000 		.4byte	0x6e1
 1776 0676 12       		.uleb128 0x12
 1777 0677 6D627000 		.ascii	"mbp\000"
 1778 067b 01       		.byte	0x1
 1779 067c D0       		.byte	0xd0
 1780 067d E1040000 		.4byte	0x4e1
 1781 0681 02       		.byte	0x2
 1782 0682 91       		.byte	0x91
 1783 0683 6C       		.sleb128 -20
 1784 0684 12       		.uleb128 0x12
 1785 0685 6D736700 		.ascii	"msg\000"
 1786 0689 01       		.byte	0x1
ARM GAS  /tmp/ccw4TIrd.s 			page 33


 1787 068a D0       		.byte	0xd0
 1788 068b D2000000 		.4byte	0xd2
 1789 068f 02       		.byte	0x2
 1790 0690 91       		.byte	0x91
 1791 0691 68       		.sleb128 -24
 1792 0692 17       		.uleb128 0x17
 1793 0693 31020000 		.4byte	.LASF70
 1794 0697 01       		.byte	0x1
 1795 0698 D0       		.byte	0xd0
 1796 0699 E8000000 		.4byte	0xe8
 1797 069d 02       		.byte	0x2
 1798 069e 91       		.byte	0x91
 1799 069f 64       		.sleb128 -28
 1800 06a0 18       		.uleb128 0x18
 1801 06a1 06000000 		.4byte	.LASF63
 1802 06a5 01       		.byte	0x1
 1803 06a6 D1       		.byte	0xd1
 1804 06a7 D2000000 		.4byte	0xd2
 1805 06ab 02       		.byte	0x2
 1806 06ac 91       		.byte	0x91
 1807 06ad 74       		.sleb128 -12
 1808 06ae 13       		.uleb128 0x13
 1809 06af 0A000000 		.4byte	.LBB6
 1810 06b3 12000000 		.4byte	.LBE6
 1811 06b7 C9060000 		.4byte	0x6c9
 1812 06bb 14       		.uleb128 0x14
 1813 06bc 746D7000 		.ascii	"tmp\000"
 1814 06c0 01       		.byte	0x1
 1815 06c1 D3       		.byte	0xd3
 1816 06c2 70000000 		.4byte	0x70
 1817 06c6 01       		.byte	0x1
 1818 06c7 53       		.byte	0x53
 1819 06c8 00       		.byte	0
 1820 06c9 15       		.uleb128 0x15
 1821 06ca 28000000 		.4byte	.LBB7
 1822 06ce 30000000 		.4byte	.LBE7
 1823 06d2 14       		.uleb128 0x14
 1824 06d3 746D7000 		.ascii	"tmp\000"
 1825 06d7 01       		.byte	0x1
 1826 06d8 D5       		.byte	0xd5
 1827 06d9 70000000 		.4byte	0x70
 1828 06dd 01       		.byte	0x1
 1829 06de 53       		.byte	0x53
 1830 06df 00       		.byte	0
 1831 06e0 00       		.byte	0
 1832 06e1 16       		.uleb128 0x16
 1833 06e2 01       		.byte	0x1
 1834 06e3 61000000 		.4byte	.LASF75
 1835 06e7 01       		.byte	0x1
 1836 06e8 EC       		.byte	0xec
 1837 06e9 01       		.byte	0x1
 1838 06ea D2000000 		.4byte	0xd2
 1839 06ee 00000000 		.4byte	.LFB13
 1840 06f2 7C000000 		.4byte	.LFE13
 1841 06f6 08010000 		.4byte	.LLST6
 1842 06fa 37070000 		.4byte	0x737
 1843 06fe 12       		.uleb128 0x12
ARM GAS  /tmp/ccw4TIrd.s 			page 34


 1844 06ff 6D627000 		.ascii	"mbp\000"
 1845 0703 01       		.byte	0x1
 1846 0704 EC       		.byte	0xec
 1847 0705 E1040000 		.4byte	0x4e1
 1848 0709 02       		.byte	0x2
 1849 070a 91       		.byte	0x91
 1850 070b 6C       		.sleb128 -20
 1851 070c 12       		.uleb128 0x12
 1852 070d 6D736700 		.ascii	"msg\000"
 1853 0711 01       		.byte	0x1
 1854 0712 EC       		.byte	0xec
 1855 0713 D2000000 		.4byte	0xd2
 1856 0717 02       		.byte	0x2
 1857 0718 91       		.byte	0x91
 1858 0719 68       		.sleb128 -24
 1859 071a 17       		.uleb128 0x17
 1860 071b 31020000 		.4byte	.LASF70
 1861 071f 01       		.byte	0x1
 1862 0720 EC       		.byte	0xec
 1863 0721 E8000000 		.4byte	0xe8
 1864 0725 02       		.byte	0x2
 1865 0726 91       		.byte	0x91
 1866 0727 64       		.sleb128 -28
 1867 0728 18       		.uleb128 0x18
 1868 0729 06000000 		.4byte	.LASF63
 1869 072d 01       		.byte	0x1
 1870 072e ED       		.byte	0xed
 1871 072f D2000000 		.4byte	0xd2
 1872 0733 02       		.byte	0x2
 1873 0734 91       		.byte	0x91
 1874 0735 74       		.sleb128 -12
 1875 0736 00       		.byte	0
 1876 0737 19       		.uleb128 0x19
 1877 0738 01       		.byte	0x1
 1878 0739 32000000 		.4byte	.LASF76
 1879 073d 01       		.byte	0x1
 1880 073e 0B01     		.2byte	0x10b
 1881 0740 01       		.byte	0x1
 1882 0741 D2000000 		.4byte	0xd2
 1883 0745 00000000 		.4byte	.LFB14
 1884 0749 7A000000 		.4byte	.LFE14
 1885 074d 34010000 		.4byte	.LLST7
 1886 0751 74070000 		.4byte	0x774
 1887 0755 1A       		.uleb128 0x1a
 1888 0756 6D627000 		.ascii	"mbp\000"
 1889 075a 01       		.byte	0x1
 1890 075b 0B01     		.2byte	0x10b
 1891 075d E1040000 		.4byte	0x4e1
 1892 0761 02       		.byte	0x2
 1893 0762 91       		.byte	0x91
 1894 0763 74       		.sleb128 -12
 1895 0764 1A       		.uleb128 0x1a
 1896 0765 6D736700 		.ascii	"msg\000"
 1897 0769 01       		.byte	0x1
 1898 076a 0B01     		.2byte	0x10b
 1899 076c D2000000 		.4byte	0xd2
 1900 0770 02       		.byte	0x2
ARM GAS  /tmp/ccw4TIrd.s 			page 35


 1901 0771 91       		.byte	0x91
 1902 0772 70       		.sleb128 -16
 1903 0773 00       		.byte	0
 1904 0774 19       		.uleb128 0x19
 1905 0775 01       		.byte	0x1
 1906 0776 12030000 		.4byte	.LASF77
 1907 077a 01       		.byte	0x1
 1908 077b 2D01     		.2byte	0x12d
 1909 077d 01       		.byte	0x1
 1910 077e D2000000 		.4byte	0xd2
 1911 0782 00000000 		.4byte	.LFB15
 1912 0786 38000000 		.4byte	.LFE15
 1913 078a 60010000 		.4byte	.LLST8
 1914 078e 03080000 		.4byte	0x803
 1915 0792 1A       		.uleb128 0x1a
 1916 0793 6D627000 		.ascii	"mbp\000"
 1917 0797 01       		.byte	0x1
 1918 0798 2D01     		.2byte	0x12d
 1919 079a E1040000 		.4byte	0x4e1
 1920 079e 02       		.byte	0x2
 1921 079f 91       		.byte	0x91
 1922 07a0 6C       		.sleb128 -20
 1923 07a1 1B       		.uleb128 0x1b
 1924 07a2 EF010000 		.4byte	.LASF78
 1925 07a6 01       		.byte	0x1
 1926 07a7 2D01     		.2byte	0x12d
 1927 07a9 3B040000 		.4byte	0x43b
 1928 07ad 02       		.byte	0x2
 1929 07ae 91       		.byte	0x91
 1930 07af 68       		.sleb128 -24
 1931 07b0 1B       		.uleb128 0x1b
 1932 07b1 31020000 		.4byte	.LASF70
 1933 07b5 01       		.byte	0x1
 1934 07b6 2D01     		.2byte	0x12d
 1935 07b8 E8000000 		.4byte	0xe8
 1936 07bc 02       		.byte	0x2
 1937 07bd 91       		.byte	0x91
 1938 07be 64       		.sleb128 -28
 1939 07bf 1C       		.uleb128 0x1c
 1940 07c0 06000000 		.4byte	.LASF63
 1941 07c4 01       		.byte	0x1
 1942 07c5 2E01     		.2byte	0x12e
 1943 07c7 D2000000 		.4byte	0xd2
 1944 07cb 02       		.byte	0x2
 1945 07cc 91       		.byte	0x91
 1946 07cd 74       		.sleb128 -12
 1947 07ce 13       		.uleb128 0x13
 1948 07cf 0A000000 		.4byte	.LBB8
 1949 07d3 12000000 		.4byte	.LBE8
 1950 07d7 EA070000 		.4byte	0x7ea
 1951 07db 1D       		.uleb128 0x1d
 1952 07dc 746D7000 		.ascii	"tmp\000"
 1953 07e0 01       		.byte	0x1
 1954 07e1 3001     		.2byte	0x130
 1955 07e3 70000000 		.4byte	0x70
 1956 07e7 01       		.byte	0x1
 1957 07e8 53       		.byte	0x53
ARM GAS  /tmp/ccw4TIrd.s 			page 36


 1958 07e9 00       		.byte	0
 1959 07ea 15       		.uleb128 0x15
 1960 07eb 28000000 		.4byte	.LBB9
 1961 07ef 30000000 		.4byte	.LBE9
 1962 07f3 1D       		.uleb128 0x1d
 1963 07f4 746D7000 		.ascii	"tmp\000"
 1964 07f8 01       		.byte	0x1
 1965 07f9 3201     		.2byte	0x132
 1966 07fb 70000000 		.4byte	0x70
 1967 07ff 01       		.byte	0x1
 1968 0800 53       		.byte	0x53
 1969 0801 00       		.byte	0
 1970 0802 00       		.byte	0
 1971 0803 19       		.uleb128 0x19
 1972 0804 01       		.byte	0x1
 1973 0805 BE010000 		.4byte	.LASF79
 1974 0809 01       		.byte	0x1
 1975 080a 4901     		.2byte	0x149
 1976 080c 01       		.byte	0x1
 1977 080d D2000000 		.4byte	0xd2
 1978 0811 00000000 		.4byte	.LFB16
 1979 0815 7C000000 		.4byte	.LFE16
 1980 0819 8C010000 		.4byte	.LLST9
 1981 081d 5E080000 		.4byte	0x85e
 1982 0821 1A       		.uleb128 0x1a
 1983 0822 6D627000 		.ascii	"mbp\000"
 1984 0826 01       		.byte	0x1
 1985 0827 4901     		.2byte	0x149
 1986 0829 E1040000 		.4byte	0x4e1
 1987 082d 02       		.byte	0x2
 1988 082e 91       		.byte	0x91
 1989 082f 6C       		.sleb128 -20
 1990 0830 1B       		.uleb128 0x1b
 1991 0831 EF010000 		.4byte	.LASF78
 1992 0835 01       		.byte	0x1
 1993 0836 4901     		.2byte	0x149
 1994 0838 3B040000 		.4byte	0x43b
 1995 083c 02       		.byte	0x2
 1996 083d 91       		.byte	0x91
 1997 083e 68       		.sleb128 -24
 1998 083f 1B       		.uleb128 0x1b
 1999 0840 31020000 		.4byte	.LASF70
 2000 0844 01       		.byte	0x1
 2001 0845 4901     		.2byte	0x149
 2002 0847 E8000000 		.4byte	0xe8
 2003 084b 02       		.byte	0x2
 2004 084c 91       		.byte	0x91
 2005 084d 64       		.sleb128 -28
 2006 084e 1C       		.uleb128 0x1c
 2007 084f 06000000 		.4byte	.LASF63
 2008 0853 01       		.byte	0x1
 2009 0854 4A01     		.2byte	0x14a
 2010 0856 D2000000 		.4byte	0xd2
 2011 085a 02       		.byte	0x2
 2012 085b 91       		.byte	0x91
 2013 085c 74       		.sleb128 -12
 2014 085d 00       		.byte	0
ARM GAS  /tmp/ccw4TIrd.s 			page 37


 2015 085e 1E       		.uleb128 0x1e
 2016 085f 01       		.byte	0x1
 2017 0860 AD010000 		.4byte	.LASF80
 2018 0864 01       		.byte	0x1
 2019 0865 6801     		.2byte	0x168
 2020 0867 01       		.byte	0x1
 2021 0868 D2000000 		.4byte	0xd2
 2022 086c 00000000 		.4byte	.LFB17
 2023 0870 7A000000 		.4byte	.LFE17
 2024 0874 B8010000 		.4byte	.LLST10
 2025 0878 1A       		.uleb128 0x1a
 2026 0879 6D627000 		.ascii	"mbp\000"
 2027 087d 01       		.byte	0x1
 2028 087e 6801     		.2byte	0x168
 2029 0880 E1040000 		.4byte	0x4e1
 2030 0884 02       		.byte	0x2
 2031 0885 91       		.byte	0x91
 2032 0886 74       		.sleb128 -12
 2033 0887 1B       		.uleb128 0x1b
 2034 0888 EF010000 		.4byte	.LASF78
 2035 088c 01       		.byte	0x1
 2036 088d 6801     		.2byte	0x168
 2037 088f 3B040000 		.4byte	0x43b
 2038 0893 02       		.byte	0x2
 2039 0894 91       		.byte	0x91
 2040 0895 70       		.sleb128 -16
 2041 0896 00       		.byte	0
 2042 0897 00       		.byte	0
 2043              		.section	.debug_abbrev,"",%progbits
 2044              	.Ldebug_abbrev0:
 2045 0000 01       		.uleb128 0x1
 2046 0001 11       		.uleb128 0x11
 2047 0002 01       		.byte	0x1
 2048 0003 25       		.uleb128 0x25
 2049 0004 0E       		.uleb128 0xe
 2050 0005 13       		.uleb128 0x13
 2051 0006 0B       		.uleb128 0xb
 2052 0007 03       		.uleb128 0x3
 2053 0008 0E       		.uleb128 0xe
 2054 0009 1B       		.uleb128 0x1b
 2055 000a 0E       		.uleb128 0xe
 2056 000b 11       		.uleb128 0x11
 2057 000c 01       		.uleb128 0x1
 2058 000d 52       		.uleb128 0x52
 2059 000e 01       		.uleb128 0x1
 2060 000f 55       		.uleb128 0x55
 2061 0010 06       		.uleb128 0x6
 2062 0011 10       		.uleb128 0x10
 2063 0012 06       		.uleb128 0x6
 2064 0013 00       		.byte	0
 2065 0014 00       		.byte	0
 2066 0015 02       		.uleb128 0x2
 2067 0016 24       		.uleb128 0x24
 2068 0017 00       		.byte	0
 2069 0018 0B       		.uleb128 0xb
 2070 0019 0B       		.uleb128 0xb
 2071 001a 3E       		.uleb128 0x3e
ARM GAS  /tmp/ccw4TIrd.s 			page 38


 2072 001b 0B       		.uleb128 0xb
 2073 001c 03       		.uleb128 0x3
 2074 001d 08       		.uleb128 0x8
 2075 001e 00       		.byte	0
 2076 001f 00       		.byte	0
 2077 0020 03       		.uleb128 0x3
 2078 0021 24       		.uleb128 0x24
 2079 0022 00       		.byte	0
 2080 0023 0B       		.uleb128 0xb
 2081 0024 0B       		.uleb128 0xb
 2082 0025 3E       		.uleb128 0x3e
 2083 0026 0B       		.uleb128 0xb
 2084 0027 03       		.uleb128 0x3
 2085 0028 0E       		.uleb128 0xe
 2086 0029 00       		.byte	0
 2087 002a 00       		.byte	0
 2088 002b 04       		.uleb128 0x4
 2089 002c 16       		.uleb128 0x16
 2090 002d 00       		.byte	0
 2091 002e 03       		.uleb128 0x3
 2092 002f 0E       		.uleb128 0xe
 2093 0030 3A       		.uleb128 0x3a
 2094 0031 0B       		.uleb128 0xb
 2095 0032 3B       		.uleb128 0x3b
 2096 0033 0B       		.uleb128 0xb
 2097 0034 49       		.uleb128 0x49
 2098 0035 13       		.uleb128 0x13
 2099 0036 00       		.byte	0
 2100 0037 00       		.byte	0
 2101 0038 05       		.uleb128 0x5
 2102 0039 13       		.uleb128 0x13
 2103 003a 01       		.byte	0x1
 2104 003b 03       		.uleb128 0x3
 2105 003c 0E       		.uleb128 0xe
 2106 003d 0B       		.uleb128 0xb
 2107 003e 0B       		.uleb128 0xb
 2108 003f 3A       		.uleb128 0x3a
 2109 0040 0B       		.uleb128 0xb
 2110 0041 3B       		.uleb128 0x3b
 2111 0042 0B       		.uleb128 0xb
 2112 0043 01       		.uleb128 0x1
 2113 0044 13       		.uleb128 0x13
 2114 0045 00       		.byte	0
 2115 0046 00       		.byte	0
 2116 0047 06       		.uleb128 0x6
 2117 0048 0D       		.uleb128 0xd
 2118 0049 00       		.byte	0
 2119 004a 03       		.uleb128 0x3
 2120 004b 0E       		.uleb128 0xe
 2121 004c 3A       		.uleb128 0x3a
 2122 004d 0B       		.uleb128 0xb
 2123 004e 3B       		.uleb128 0x3b
 2124 004f 0B       		.uleb128 0xb
 2125 0050 49       		.uleb128 0x49
 2126 0051 13       		.uleb128 0x13
 2127 0052 38       		.uleb128 0x38
 2128 0053 0A       		.uleb128 0xa
ARM GAS  /tmp/ccw4TIrd.s 			page 39


 2129 0054 00       		.byte	0
 2130 0055 00       		.byte	0
 2131 0056 07       		.uleb128 0x7
 2132 0057 0D       		.uleb128 0xd
 2133 0058 00       		.byte	0
 2134 0059 03       		.uleb128 0x3
 2135 005a 08       		.uleb128 0x8
 2136 005b 3A       		.uleb128 0x3a
 2137 005c 0B       		.uleb128 0xb
 2138 005d 3B       		.uleb128 0x3b
 2139 005e 0B       		.uleb128 0xb
 2140 005f 49       		.uleb128 0x49
 2141 0060 13       		.uleb128 0x13
 2142 0061 38       		.uleb128 0x38
 2143 0062 0A       		.uleb128 0xa
 2144 0063 00       		.byte	0
 2145 0064 00       		.byte	0
 2146 0065 08       		.uleb128 0x8
 2147 0066 13       		.uleb128 0x13
 2148 0067 01       		.byte	0x1
 2149 0068 0B       		.uleb128 0xb
 2150 0069 0B       		.uleb128 0xb
 2151 006a 3A       		.uleb128 0x3a
 2152 006b 0B       		.uleb128 0xb
 2153 006c 3B       		.uleb128 0x3b
 2154 006d 0B       		.uleb128 0xb
 2155 006e 01       		.uleb128 0x1
 2156 006f 13       		.uleb128 0x13
 2157 0070 00       		.byte	0
 2158 0071 00       		.byte	0
 2159 0072 09       		.uleb128 0x9
 2160 0073 0F       		.uleb128 0xf
 2161 0074 00       		.byte	0
 2162 0075 0B       		.uleb128 0xb
 2163 0076 0B       		.uleb128 0xb
 2164 0077 49       		.uleb128 0x49
 2165 0078 13       		.uleb128 0x13
 2166 0079 00       		.byte	0
 2167 007a 00       		.byte	0
 2168 007b 0A       		.uleb128 0xa
 2169 007c 0F       		.uleb128 0xf
 2170 007d 00       		.byte	0
 2171 007e 0B       		.uleb128 0xb
 2172 007f 0B       		.uleb128 0xb
 2173 0080 00       		.byte	0
 2174 0081 00       		.byte	0
 2175 0082 0B       		.uleb128 0xb
 2176 0083 13       		.uleb128 0x13
 2177 0084 01       		.byte	0x1
 2178 0085 03       		.uleb128 0x3
 2179 0086 0E       		.uleb128 0xe
 2180 0087 0B       		.uleb128 0xb
 2181 0088 0B       		.uleb128 0xb
 2182 0089 3A       		.uleb128 0x3a
 2183 008a 0B       		.uleb128 0xb
 2184 008b 3B       		.uleb128 0x3b
 2185 008c 05       		.uleb128 0x5
ARM GAS  /tmp/ccw4TIrd.s 			page 40


 2186 008d 01       		.uleb128 0x1
 2187 008e 13       		.uleb128 0x13
 2188 008f 00       		.byte	0
 2189 0090 00       		.byte	0
 2190 0091 0C       		.uleb128 0xc
 2191 0092 0D       		.uleb128 0xd
 2192 0093 00       		.byte	0
 2193 0094 03       		.uleb128 0x3
 2194 0095 08       		.uleb128 0x8
 2195 0096 3A       		.uleb128 0x3a
 2196 0097 0B       		.uleb128 0xb
 2197 0098 3B       		.uleb128 0x3b
 2198 0099 05       		.uleb128 0x5
 2199 009a 49       		.uleb128 0x49
 2200 009b 13       		.uleb128 0x13
 2201 009c 38       		.uleb128 0x38
 2202 009d 0A       		.uleb128 0xa
 2203 009e 00       		.byte	0
 2204 009f 00       		.byte	0
 2205 00a0 0D       		.uleb128 0xd
 2206 00a1 35       		.uleb128 0x35
 2207 00a2 00       		.byte	0
 2208 00a3 49       		.uleb128 0x49
 2209 00a4 13       		.uleb128 0x13
 2210 00a5 00       		.byte	0
 2211 00a6 00       		.byte	0
 2212 00a7 0E       		.uleb128 0xe
 2213 00a8 17       		.uleb128 0x17
 2214 00a9 01       		.byte	0x1
 2215 00aa 0B       		.uleb128 0xb
 2216 00ab 0B       		.uleb128 0xb
 2217 00ac 3A       		.uleb128 0x3a
 2218 00ad 0B       		.uleb128 0xb
 2219 00ae 3B       		.uleb128 0x3b
 2220 00af 0B       		.uleb128 0xb
 2221 00b0 01       		.uleb128 0x1
 2222 00b1 13       		.uleb128 0x13
 2223 00b2 00       		.byte	0
 2224 00b3 00       		.byte	0
 2225 00b4 0F       		.uleb128 0xf
 2226 00b5 0D       		.uleb128 0xd
 2227 00b6 00       		.byte	0
 2228 00b7 03       		.uleb128 0x3
 2229 00b8 0E       		.uleb128 0xe
 2230 00b9 3A       		.uleb128 0x3a
 2231 00ba 0B       		.uleb128 0xb
 2232 00bb 3B       		.uleb128 0x3b
 2233 00bc 0B       		.uleb128 0xb
 2234 00bd 49       		.uleb128 0x49
 2235 00be 13       		.uleb128 0x13
 2236 00bf 00       		.byte	0
 2237 00c0 00       		.byte	0
 2238 00c1 10       		.uleb128 0x10
 2239 00c2 26       		.uleb128 0x26
 2240 00c3 00       		.byte	0
 2241 00c4 49       		.uleb128 0x49
 2242 00c5 13       		.uleb128 0x13
ARM GAS  /tmp/ccw4TIrd.s 			page 41


 2243 00c6 00       		.byte	0
 2244 00c7 00       		.byte	0
 2245 00c8 11       		.uleb128 0x11
 2246 00c9 2E       		.uleb128 0x2e
 2247 00ca 01       		.byte	0x1
 2248 00cb 3F       		.uleb128 0x3f
 2249 00cc 0C       		.uleb128 0xc
 2250 00cd 03       		.uleb128 0x3
 2251 00ce 0E       		.uleb128 0xe
 2252 00cf 3A       		.uleb128 0x3a
 2253 00d0 0B       		.uleb128 0xb
 2254 00d1 3B       		.uleb128 0x3b
 2255 00d2 0B       		.uleb128 0xb
 2256 00d3 27       		.uleb128 0x27
 2257 00d4 0C       		.uleb128 0xc
 2258 00d5 11       		.uleb128 0x11
 2259 00d6 01       		.uleb128 0x1
 2260 00d7 12       		.uleb128 0x12
 2261 00d8 01       		.uleb128 0x1
 2262 00d9 40       		.uleb128 0x40
 2263 00da 06       		.uleb128 0x6
 2264 00db 01       		.uleb128 0x1
 2265 00dc 13       		.uleb128 0x13
 2266 00dd 00       		.byte	0
 2267 00de 00       		.byte	0
 2268 00df 12       		.uleb128 0x12
 2269 00e0 05       		.uleb128 0x5
 2270 00e1 00       		.byte	0
 2271 00e2 03       		.uleb128 0x3
 2272 00e3 08       		.uleb128 0x8
 2273 00e4 3A       		.uleb128 0x3a
 2274 00e5 0B       		.uleb128 0xb
 2275 00e6 3B       		.uleb128 0x3b
 2276 00e7 0B       		.uleb128 0xb
 2277 00e8 49       		.uleb128 0x49
 2278 00e9 13       		.uleb128 0x13
 2279 00ea 02       		.uleb128 0x2
 2280 00eb 0A       		.uleb128 0xa
 2281 00ec 00       		.byte	0
 2282 00ed 00       		.byte	0
 2283 00ee 13       		.uleb128 0x13
 2284 00ef 0B       		.uleb128 0xb
 2285 00f0 01       		.byte	0x1
 2286 00f1 11       		.uleb128 0x11
 2287 00f2 01       		.uleb128 0x1
 2288 00f3 12       		.uleb128 0x12
 2289 00f4 01       		.uleb128 0x1
 2290 00f5 01       		.uleb128 0x1
 2291 00f6 13       		.uleb128 0x13
 2292 00f7 00       		.byte	0
 2293 00f8 00       		.byte	0
 2294 00f9 14       		.uleb128 0x14
 2295 00fa 34       		.uleb128 0x34
 2296 00fb 00       		.byte	0
 2297 00fc 03       		.uleb128 0x3
 2298 00fd 08       		.uleb128 0x8
 2299 00fe 3A       		.uleb128 0x3a
ARM GAS  /tmp/ccw4TIrd.s 			page 42


 2300 00ff 0B       		.uleb128 0xb
 2301 0100 3B       		.uleb128 0x3b
 2302 0101 0B       		.uleb128 0xb
 2303 0102 49       		.uleb128 0x49
 2304 0103 13       		.uleb128 0x13
 2305 0104 02       		.uleb128 0x2
 2306 0105 0A       		.uleb128 0xa
 2307 0106 00       		.byte	0
 2308 0107 00       		.byte	0
 2309 0108 15       		.uleb128 0x15
 2310 0109 0B       		.uleb128 0xb
 2311 010a 01       		.byte	0x1
 2312 010b 11       		.uleb128 0x11
 2313 010c 01       		.uleb128 0x1
 2314 010d 12       		.uleb128 0x12
 2315 010e 01       		.uleb128 0x1
 2316 010f 00       		.byte	0
 2317 0110 00       		.byte	0
 2318 0111 16       		.uleb128 0x16
 2319 0112 2E       		.uleb128 0x2e
 2320 0113 01       		.byte	0x1
 2321 0114 3F       		.uleb128 0x3f
 2322 0115 0C       		.uleb128 0xc
 2323 0116 03       		.uleb128 0x3
 2324 0117 0E       		.uleb128 0xe
 2325 0118 3A       		.uleb128 0x3a
 2326 0119 0B       		.uleb128 0xb
 2327 011a 3B       		.uleb128 0x3b
 2328 011b 0B       		.uleb128 0xb
 2329 011c 27       		.uleb128 0x27
 2330 011d 0C       		.uleb128 0xc
 2331 011e 49       		.uleb128 0x49
 2332 011f 13       		.uleb128 0x13
 2333 0120 11       		.uleb128 0x11
 2334 0121 01       		.uleb128 0x1
 2335 0122 12       		.uleb128 0x12
 2336 0123 01       		.uleb128 0x1
 2337 0124 40       		.uleb128 0x40
 2338 0125 06       		.uleb128 0x6
 2339 0126 01       		.uleb128 0x1
 2340 0127 13       		.uleb128 0x13
 2341 0128 00       		.byte	0
 2342 0129 00       		.byte	0
 2343 012a 17       		.uleb128 0x17
 2344 012b 05       		.uleb128 0x5
 2345 012c 00       		.byte	0
 2346 012d 03       		.uleb128 0x3
 2347 012e 0E       		.uleb128 0xe
 2348 012f 3A       		.uleb128 0x3a
 2349 0130 0B       		.uleb128 0xb
 2350 0131 3B       		.uleb128 0x3b
 2351 0132 0B       		.uleb128 0xb
 2352 0133 49       		.uleb128 0x49
 2353 0134 13       		.uleb128 0x13
 2354 0135 02       		.uleb128 0x2
 2355 0136 0A       		.uleb128 0xa
 2356 0137 00       		.byte	0
ARM GAS  /tmp/ccw4TIrd.s 			page 43


 2357 0138 00       		.byte	0
 2358 0139 18       		.uleb128 0x18
 2359 013a 34       		.uleb128 0x34
 2360 013b 00       		.byte	0
 2361 013c 03       		.uleb128 0x3
 2362 013d 0E       		.uleb128 0xe
 2363 013e 3A       		.uleb128 0x3a
 2364 013f 0B       		.uleb128 0xb
 2365 0140 3B       		.uleb128 0x3b
 2366 0141 0B       		.uleb128 0xb
 2367 0142 49       		.uleb128 0x49
 2368 0143 13       		.uleb128 0x13
 2369 0144 02       		.uleb128 0x2
 2370 0145 0A       		.uleb128 0xa
 2371 0146 00       		.byte	0
 2372 0147 00       		.byte	0
 2373 0148 19       		.uleb128 0x19
 2374 0149 2E       		.uleb128 0x2e
 2375 014a 01       		.byte	0x1
 2376 014b 3F       		.uleb128 0x3f
 2377 014c 0C       		.uleb128 0xc
 2378 014d 03       		.uleb128 0x3
 2379 014e 0E       		.uleb128 0xe
 2380 014f 3A       		.uleb128 0x3a
 2381 0150 0B       		.uleb128 0xb
 2382 0151 3B       		.uleb128 0x3b
 2383 0152 05       		.uleb128 0x5
 2384 0153 27       		.uleb128 0x27
 2385 0154 0C       		.uleb128 0xc
 2386 0155 49       		.uleb128 0x49
 2387 0156 13       		.uleb128 0x13
 2388 0157 11       		.uleb128 0x11
 2389 0158 01       		.uleb128 0x1
 2390 0159 12       		.uleb128 0x12
 2391 015a 01       		.uleb128 0x1
 2392 015b 40       		.uleb128 0x40
 2393 015c 06       		.uleb128 0x6
 2394 015d 01       		.uleb128 0x1
 2395 015e 13       		.uleb128 0x13
 2396 015f 00       		.byte	0
 2397 0160 00       		.byte	0
 2398 0161 1A       		.uleb128 0x1a
 2399 0162 05       		.uleb128 0x5
 2400 0163 00       		.byte	0
 2401 0164 03       		.uleb128 0x3
 2402 0165 08       		.uleb128 0x8
 2403 0166 3A       		.uleb128 0x3a
 2404 0167 0B       		.uleb128 0xb
 2405 0168 3B       		.uleb128 0x3b
 2406 0169 05       		.uleb128 0x5
 2407 016a 49       		.uleb128 0x49
 2408 016b 13       		.uleb128 0x13
 2409 016c 02       		.uleb128 0x2
 2410 016d 0A       		.uleb128 0xa
 2411 016e 00       		.byte	0
 2412 016f 00       		.byte	0
 2413 0170 1B       		.uleb128 0x1b
ARM GAS  /tmp/ccw4TIrd.s 			page 44


 2414 0171 05       		.uleb128 0x5
 2415 0172 00       		.byte	0
 2416 0173 03       		.uleb128 0x3
 2417 0174 0E       		.uleb128 0xe
 2418 0175 3A       		.uleb128 0x3a
 2419 0176 0B       		.uleb128 0xb
 2420 0177 3B       		.uleb128 0x3b
 2421 0178 05       		.uleb128 0x5
 2422 0179 49       		.uleb128 0x49
 2423 017a 13       		.uleb128 0x13
 2424 017b 02       		.uleb128 0x2
 2425 017c 0A       		.uleb128 0xa
 2426 017d 00       		.byte	0
 2427 017e 00       		.byte	0
 2428 017f 1C       		.uleb128 0x1c
 2429 0180 34       		.uleb128 0x34
 2430 0181 00       		.byte	0
 2431 0182 03       		.uleb128 0x3
 2432 0183 0E       		.uleb128 0xe
 2433 0184 3A       		.uleb128 0x3a
 2434 0185 0B       		.uleb128 0xb
 2435 0186 3B       		.uleb128 0x3b
 2436 0187 05       		.uleb128 0x5
 2437 0188 49       		.uleb128 0x49
 2438 0189 13       		.uleb128 0x13
 2439 018a 02       		.uleb128 0x2
 2440 018b 0A       		.uleb128 0xa
 2441 018c 00       		.byte	0
 2442 018d 00       		.byte	0
 2443 018e 1D       		.uleb128 0x1d
 2444 018f 34       		.uleb128 0x34
 2445 0190 00       		.byte	0
 2446 0191 03       		.uleb128 0x3
 2447 0192 08       		.uleb128 0x8
 2448 0193 3A       		.uleb128 0x3a
 2449 0194 0B       		.uleb128 0xb
 2450 0195 3B       		.uleb128 0x3b
 2451 0196 05       		.uleb128 0x5
 2452 0197 49       		.uleb128 0x49
 2453 0198 13       		.uleb128 0x13
 2454 0199 02       		.uleb128 0x2
 2455 019a 0A       		.uleb128 0xa
 2456 019b 00       		.byte	0
 2457 019c 00       		.byte	0
 2458 019d 1E       		.uleb128 0x1e
 2459 019e 2E       		.uleb128 0x2e
 2460 019f 01       		.byte	0x1
 2461 01a0 3F       		.uleb128 0x3f
 2462 01a1 0C       		.uleb128 0xc
 2463 01a2 03       		.uleb128 0x3
 2464 01a3 0E       		.uleb128 0xe
 2465 01a4 3A       		.uleb128 0x3a
 2466 01a5 0B       		.uleb128 0xb
 2467 01a6 3B       		.uleb128 0x3b
 2468 01a7 05       		.uleb128 0x5
 2469 01a8 27       		.uleb128 0x27
 2470 01a9 0C       		.uleb128 0xc
ARM GAS  /tmp/ccw4TIrd.s 			page 45


 2471 01aa 49       		.uleb128 0x49
 2472 01ab 13       		.uleb128 0x13
 2473 01ac 11       		.uleb128 0x11
 2474 01ad 01       		.uleb128 0x1
 2475 01ae 12       		.uleb128 0x12
 2476 01af 01       		.uleb128 0x1
 2477 01b0 40       		.uleb128 0x40
 2478 01b1 06       		.uleb128 0x6
 2479 01b2 00       		.byte	0
 2480 01b3 00       		.byte	0
 2481 01b4 00       		.byte	0
 2482              		.section	.debug_loc,"",%progbits
 2483              	.Ldebug_loc0:
 2484              	.LLST0:
 2485 0000 00000000 		.4byte	.LFB7
 2486 0004 02000000 		.4byte	.LCFI0
 2487 0008 0200     		.2byte	0x2
 2488 000a 7D       		.byte	0x7d
 2489 000b 00       		.sleb128 0
 2490 000c 02000000 		.4byte	.LCFI0
 2491 0010 04000000 		.4byte	.LCFI1
 2492 0014 0200     		.2byte	0x2
 2493 0016 7D       		.byte	0x7d
 2494 0017 04       		.sleb128 4
 2495 0018 04000000 		.4byte	.LCFI1
 2496 001c 6E000000 		.4byte	.LFE7
 2497 0020 0200     		.2byte	0x2
 2498 0022 7D       		.byte	0x7d
 2499 0023 18       		.sleb128 24
 2500 0024 00000000 		.4byte	0
 2501 0028 00000000 		.4byte	0
 2502              	.LLST1:
 2503 002c 00000000 		.4byte	.LFB8
 2504 0030 02000000 		.4byte	.LCFI2
 2505 0034 0200     		.2byte	0x2
 2506 0036 7D       		.byte	0x7d
 2507 0037 00       		.sleb128 0
 2508 0038 02000000 		.4byte	.LCFI2
 2509 003c 04000000 		.4byte	.LCFI3
 2510 0040 0200     		.2byte	0x2
 2511 0042 7D       		.byte	0x7d
 2512 0043 04       		.sleb128 4
 2513 0044 04000000 		.4byte	.LCFI3
 2514 0048 76000000 		.4byte	.LFE8
 2515 004c 0200     		.2byte	0x2
 2516 004e 7D       		.byte	0x7d
 2517 004f 10       		.sleb128 16
 2518 0050 00000000 		.4byte	0
 2519 0054 00000000 		.4byte	0
 2520              	.LLST2:
 2521 0058 00000000 		.4byte	.LFB9
 2522 005c 02000000 		.4byte	.LCFI4
 2523 0060 0200     		.2byte	0x2
 2524 0062 7D       		.byte	0x7d
 2525 0063 00       		.sleb128 0
 2526 0064 02000000 		.4byte	.LCFI4
 2527 0068 04000000 		.4byte	.LCFI5
ARM GAS  /tmp/ccw4TIrd.s 			page 46


 2528 006c 0200     		.2byte	0x2
 2529 006e 7D       		.byte	0x7d
 2530 006f 04       		.sleb128 4
 2531 0070 04000000 		.4byte	.LCFI5
 2532 0074 38000000 		.4byte	.LFE9
 2533 0078 0200     		.2byte	0x2
 2534 007a 7D       		.byte	0x7d
 2535 007b 20       		.sleb128 32
 2536 007c 00000000 		.4byte	0
 2537 0080 00000000 		.4byte	0
 2538              	.LLST3:
 2539 0084 00000000 		.4byte	.LFB10
 2540 0088 02000000 		.4byte	.LCFI6
 2541 008c 0200     		.2byte	0x2
 2542 008e 7D       		.byte	0x7d
 2543 008f 00       		.sleb128 0
 2544 0090 02000000 		.4byte	.LCFI6
 2545 0094 04000000 		.4byte	.LCFI7
 2546 0098 0200     		.2byte	0x2
 2547 009a 7D       		.byte	0x7d
 2548 009b 04       		.sleb128 4
 2549 009c 04000000 		.4byte	.LCFI7
 2550 00a0 74000000 		.4byte	.LFE10
 2551 00a4 0200     		.2byte	0x2
 2552 00a6 7D       		.byte	0x7d
 2553 00a7 20       		.sleb128 32
 2554 00a8 00000000 		.4byte	0
 2555 00ac 00000000 		.4byte	0
 2556              	.LLST4:
 2557 00b0 00000000 		.4byte	.LFB11
 2558 00b4 02000000 		.4byte	.LCFI8
 2559 00b8 0200     		.2byte	0x2
 2560 00ba 7D       		.byte	0x7d
 2561 00bb 00       		.sleb128 0
 2562 00bc 02000000 		.4byte	.LCFI8
 2563 00c0 04000000 		.4byte	.LCFI9
 2564 00c4 0200     		.2byte	0x2
 2565 00c6 7D       		.byte	0x7d
 2566 00c7 04       		.sleb128 4
 2567 00c8 04000000 		.4byte	.LCFI9
 2568 00cc 72000000 		.4byte	.LFE11
 2569 00d0 0200     		.2byte	0x2
 2570 00d2 7D       		.byte	0x7d
 2571 00d3 10       		.sleb128 16
 2572 00d4 00000000 		.4byte	0
 2573 00d8 00000000 		.4byte	0
 2574              	.LLST5:
 2575 00dc 00000000 		.4byte	.LFB12
 2576 00e0 02000000 		.4byte	.LCFI10
 2577 00e4 0200     		.2byte	0x2
 2578 00e6 7D       		.byte	0x7d
 2579 00e7 00       		.sleb128 0
 2580 00e8 02000000 		.4byte	.LCFI10
 2581 00ec 04000000 		.4byte	.LCFI11
 2582 00f0 0200     		.2byte	0x2
 2583 00f2 7D       		.byte	0x7d
 2584 00f3 04       		.sleb128 4
ARM GAS  /tmp/ccw4TIrd.s 			page 47


 2585 00f4 04000000 		.4byte	.LCFI11
 2586 00f8 38000000 		.4byte	.LFE12
 2587 00fc 0200     		.2byte	0x2
 2588 00fe 7D       		.byte	0x7d
 2589 00ff 20       		.sleb128 32
 2590 0100 00000000 		.4byte	0
 2591 0104 00000000 		.4byte	0
 2592              	.LLST6:
 2593 0108 00000000 		.4byte	.LFB13
 2594 010c 02000000 		.4byte	.LCFI12
 2595 0110 0200     		.2byte	0x2
 2596 0112 7D       		.byte	0x7d
 2597 0113 00       		.sleb128 0
 2598 0114 02000000 		.4byte	.LCFI12
 2599 0118 04000000 		.4byte	.LCFI13
 2600 011c 0200     		.2byte	0x2
 2601 011e 7D       		.byte	0x7d
 2602 011f 04       		.sleb128 4
 2603 0120 04000000 		.4byte	.LCFI13
 2604 0124 7C000000 		.4byte	.LFE13
 2605 0128 0200     		.2byte	0x2
 2606 012a 7D       		.byte	0x7d
 2607 012b 20       		.sleb128 32
 2608 012c 00000000 		.4byte	0
 2609 0130 00000000 		.4byte	0
 2610              	.LLST7:
 2611 0134 00000000 		.4byte	.LFB14
 2612 0138 02000000 		.4byte	.LCFI14
 2613 013c 0200     		.2byte	0x2
 2614 013e 7D       		.byte	0x7d
 2615 013f 00       		.sleb128 0
 2616 0140 02000000 		.4byte	.LCFI14
 2617 0144 04000000 		.4byte	.LCFI15
 2618 0148 0200     		.2byte	0x2
 2619 014a 7D       		.byte	0x7d
 2620 014b 04       		.sleb128 4
 2621 014c 04000000 		.4byte	.LCFI15
 2622 0150 7A000000 		.4byte	.LFE14
 2623 0154 0200     		.2byte	0x2
 2624 0156 7D       		.byte	0x7d
 2625 0157 10       		.sleb128 16
 2626 0158 00000000 		.4byte	0
 2627 015c 00000000 		.4byte	0
 2628              	.LLST8:
 2629 0160 00000000 		.4byte	.LFB15
 2630 0164 02000000 		.4byte	.LCFI16
 2631 0168 0200     		.2byte	0x2
 2632 016a 7D       		.byte	0x7d
 2633 016b 00       		.sleb128 0
 2634 016c 02000000 		.4byte	.LCFI16
 2635 0170 04000000 		.4byte	.LCFI17
 2636 0174 0200     		.2byte	0x2
 2637 0176 7D       		.byte	0x7d
 2638 0177 04       		.sleb128 4
 2639 0178 04000000 		.4byte	.LCFI17
 2640 017c 38000000 		.4byte	.LFE15
 2641 0180 0200     		.2byte	0x2
ARM GAS  /tmp/ccw4TIrd.s 			page 48


 2642 0182 7D       		.byte	0x7d
 2643 0183 20       		.sleb128 32
 2644 0184 00000000 		.4byte	0
 2645 0188 00000000 		.4byte	0
 2646              	.LLST9:
 2647 018c 00000000 		.4byte	.LFB16
 2648 0190 02000000 		.4byte	.LCFI18
 2649 0194 0200     		.2byte	0x2
 2650 0196 7D       		.byte	0x7d
 2651 0197 00       		.sleb128 0
 2652 0198 02000000 		.4byte	.LCFI18
 2653 019c 04000000 		.4byte	.LCFI19
 2654 01a0 0200     		.2byte	0x2
 2655 01a2 7D       		.byte	0x7d
 2656 01a3 04       		.sleb128 4
 2657 01a4 04000000 		.4byte	.LCFI19
 2658 01a8 7C000000 		.4byte	.LFE16
 2659 01ac 0200     		.2byte	0x2
 2660 01ae 7D       		.byte	0x7d
 2661 01af 20       		.sleb128 32
 2662 01b0 00000000 		.4byte	0
 2663 01b4 00000000 		.4byte	0
 2664              	.LLST10:
 2665 01b8 00000000 		.4byte	.LFB17
 2666 01bc 02000000 		.4byte	.LCFI20
 2667 01c0 0200     		.2byte	0x2
 2668 01c2 7D       		.byte	0x7d
 2669 01c3 00       		.sleb128 0
 2670 01c4 02000000 		.4byte	.LCFI20
 2671 01c8 04000000 		.4byte	.LCFI21
 2672 01cc 0200     		.2byte	0x2
 2673 01ce 7D       		.byte	0x7d
 2674 01cf 04       		.sleb128 4
 2675 01d0 04000000 		.4byte	.LCFI21
 2676 01d4 7A000000 		.4byte	.LFE17
 2677 01d8 0200     		.2byte	0x2
 2678 01da 7D       		.byte	0x7d
 2679 01db 10       		.sleb128 16
 2680 01dc 00000000 		.4byte	0
 2681 01e0 00000000 		.4byte	0
 2682              		.section	.debug_aranges,"",%progbits
 2683 0000 6C000000 		.4byte	0x6c
 2684 0004 0200     		.2byte	0x2
 2685 0006 00000000 		.4byte	.Ldebug_info0
 2686 000a 04       		.byte	0x4
 2687 000b 00       		.byte	0
 2688 000c 0000     		.2byte	0
 2689 000e 0000     		.2byte	0
 2690 0010 00000000 		.4byte	.LFB7
 2691 0014 6E000000 		.4byte	.LFE7-.LFB7
 2692 0018 00000000 		.4byte	.LFB8
 2693 001c 76000000 		.4byte	.LFE8-.LFB8
 2694 0020 00000000 		.4byte	.LFB9
 2695 0024 38000000 		.4byte	.LFE9-.LFB9
 2696 0028 00000000 		.4byte	.LFB10
 2697 002c 74000000 		.4byte	.LFE10-.LFB10
 2698 0030 00000000 		.4byte	.LFB11
ARM GAS  /tmp/ccw4TIrd.s 			page 49


 2699 0034 72000000 		.4byte	.LFE11-.LFB11
 2700 0038 00000000 		.4byte	.LFB12
 2701 003c 38000000 		.4byte	.LFE12-.LFB12
 2702 0040 00000000 		.4byte	.LFB13
 2703 0044 7C000000 		.4byte	.LFE13-.LFB13
 2704 0048 00000000 		.4byte	.LFB14
 2705 004c 7A000000 		.4byte	.LFE14-.LFB14
 2706 0050 00000000 		.4byte	.LFB15
 2707 0054 38000000 		.4byte	.LFE15-.LFB15
 2708 0058 00000000 		.4byte	.LFB16
 2709 005c 7C000000 		.4byte	.LFE16-.LFB16
 2710 0060 00000000 		.4byte	.LFB17
 2711 0064 7A000000 		.4byte	.LFE17-.LFB17
 2712 0068 00000000 		.4byte	0
 2713 006c 00000000 		.4byte	0
 2714              		.section	.debug_ranges,"",%progbits
 2715              	.Ldebug_ranges0:
 2716 0000 00000000 		.4byte	.LFB7
 2717 0004 6E000000 		.4byte	.LFE7
 2718 0008 00000000 		.4byte	.LFB8
 2719 000c 76000000 		.4byte	.LFE8
 2720 0010 00000000 		.4byte	.LFB9
 2721 0014 38000000 		.4byte	.LFE9
 2722 0018 00000000 		.4byte	.LFB10
 2723 001c 74000000 		.4byte	.LFE10
 2724 0020 00000000 		.4byte	.LFB11
 2725 0024 72000000 		.4byte	.LFE11
 2726 0028 00000000 		.4byte	.LFB12
 2727 002c 38000000 		.4byte	.LFE12
 2728 0030 00000000 		.4byte	.LFB13
 2729 0034 7C000000 		.4byte	.LFE13
 2730 0038 00000000 		.4byte	.LFB14
 2731 003c 7A000000 		.4byte	.LFE14
 2732 0040 00000000 		.4byte	.LFB15
 2733 0044 38000000 		.4byte	.LFE15
 2734 0048 00000000 		.4byte	.LFB16
 2735 004c 7C000000 		.4byte	.LFE16
 2736 0050 00000000 		.4byte	.LFB17
 2737 0054 7A000000 		.4byte	.LFE17
 2738 0058 00000000 		.4byte	0
 2739 005c 00000000 		.4byte	0
 2740              		.section	.debug_line,"",%progbits
 2741              	.Ldebug_line0:
 2742 0000 B6020000 		.section	.debug_str,"MS",%progbits,1
 2742      02005501 
 2742      00000201 
 2742      FB0E0D00 
 2742      01010101 
 2743              	.LASF38:
 2744 0000 705F6D73 		.ascii	"p_msg\000"
 2744      6700
 2745              	.LASF63:
 2746 0006 7264796D 		.ascii	"rdymsg\000"
 2746      736700
 2747              	.LASF11:
 2748 000d 75696E74 		.ascii	"uint64_t\000"
 2748      36345F74 
ARM GAS  /tmp/ccw4TIrd.s 			page 50


 2748      00
 2749              	.LASF73:
 2750 0016 63684D42 		.ascii	"chMBPostI\000"
 2750      506F7374 
 2750      4900
 2751              	.LASF72:
 2752 0020 63684D42 		.ascii	"chMBPostS\000"
 2752      506F7374 
 2752      5300
 2753              	.LASF62:
 2754 002a 4D61696C 		.ascii	"Mailbox\000"
 2754      626F7800 
 2755              	.LASF76:
 2756 0032 63684D42 		.ascii	"chMBPostAheadI\000"
 2756      506F7374 
 2756      41686561 
 2756      644900
 2757              	.LASF12:
 2758 0041 6C6F6E67 		.ascii	"long long unsigned int\000"
 2758      206C6F6E 
 2758      6720756E 
 2758      7369676E 
 2758      65642069 
 2759              	.LASF64:
 2760 0058 65786974 		.ascii	"exitcode\000"
 2760      636F6465 
 2760      00
 2761              	.LASF75:
 2762 0061 63684D42 		.ascii	"chMBPostAheadS\000"
 2762      506F7374 
 2762      41686561 
 2762      645300
 2763              	.LASF58:
 2764 0070 6D625F77 		.ascii	"mb_wrptr\000"
 2764      72707472 
 2764      00
 2765              	.LASF25:
 2766 0079 705F7072 		.ascii	"p_prio\000"
 2766      696F00
 2767              	.LASF10:
 2768 0080 6C6F6E67 		.ascii	"long long int\000"
 2768      206C6F6E 
 2768      6720696E 
 2768      7400
 2769              	.LASF1:
 2770 008e 7369676E 		.ascii	"signed char\000"
 2770      65642063 
 2770      68617200 
 2771              	.LASF42:
 2772 009a 705F6D70 		.ascii	"p_mpool\000"
 2772      6F6F6C00 
 2773              	.LASF53:
 2774 00a2 6D5F7175 		.ascii	"m_queue\000"
 2774      65756500 
 2775              	.LASF16:
 2776 00aa 74736C69 		.ascii	"tslices_t\000"
 2776      6365735F 
ARM GAS  /tmp/ccw4TIrd.s 			page 51


 2776      7400
 2777              	.LASF7:
 2778 00b4 6C6F6E67 		.ascii	"long int\000"
 2778      20696E74 
 2778      00
 2779              	.LASF81:
 2780 00bd 474E5520 		.ascii	"GNU C 4.6.2 20120613 (release) [ARM/embedded-4_6-br"
 2780      4320342E 
 2780      362E3220 
 2780      32303132 
 2780      30363133 
 2781 00f0 616E6368 		.ascii	"anch revision 188521]\000"
 2781      20726576 
 2781      6973696F 
 2781      6E203138 
 2781      38353231 
 2782              	.LASF14:
 2783 0106 74737461 		.ascii	"tstate_t\000"
 2783      74655F74 
 2783      00
 2784              	.LASF27:
 2785 010f 705F6E65 		.ascii	"p_newer\000"
 2785      77657200 
 2786              	.LASF50:
 2787 0117 735F7175 		.ascii	"s_queue\000"
 2787      65756500 
 2788              	.LASF82:
 2789 011f 2E2E2F2E 		.ascii	"../../os/kernel/src/chmboxes.c\000"
 2789      2E2F6F73 
 2789      2F6B6572 
 2789      6E656C2F 
 2789      7372632F 
 2790              	.LASF45:
 2791 013e 72656761 		.ascii	"regarm_t\000"
 2791      726D5F74 
 2791      00
 2792              	.LASF21:
 2793 0147 636E745F 		.ascii	"cnt_t\000"
 2793      7400
 2794              	.LASF30:
 2795 014d 705F7374 		.ascii	"p_stklimit\000"
 2795      6B6C696D 
 2795      697400
 2796              	.LASF0:
 2797 0158 756E7369 		.ascii	"unsigned int\000"
 2797      676E6564 
 2797      20696E74 
 2797      00
 2798              	.LASF68:
 2799 0165 63684D42 		.ascii	"chMBInit\000"
 2799      496E6974 
 2799      00
 2800              	.LASF9:
 2801 016e 6C6F6E67 		.ascii	"long unsigned int\000"
 2801      20756E73 
 2801      69676E65 
 2801      6420696E 
ARM GAS  /tmp/ccw4TIrd.s 			page 52


 2801      7400
 2802              	.LASF61:
 2803 0180 6D625F65 		.ascii	"mb_emptysem\000"
 2803      6D707479 
 2803      73656D00 
 2804              	.LASF51:
 2805 018c 735F636E 		.ascii	"s_cnt\000"
 2805      7400
 2806              	.LASF48:
 2807 0192 636F6E74 		.ascii	"context\000"
 2807      65787400 
 2808              	.LASF4:
 2809 019a 73686F72 		.ascii	"short unsigned int\000"
 2809      7420756E 
 2809      7369676E 
 2809      65642069 
 2809      6E7400
 2810              	.LASF80:
 2811 01ad 63684D42 		.ascii	"chMBFetchI\000"
 2811      46657463 
 2811      684900
 2812              	.LASF18:
 2813 01b8 6D73675F 		.ascii	"msg_t\000"
 2813      7400
 2814              	.LASF79:
 2815 01be 63684D42 		.ascii	"chMBFetchS\000"
 2815      46657463 
 2815      685300
 2816              	.LASF13:
 2817 01c9 746D6F64 		.ascii	"tmode_t\000"
 2817      655F7400 
 2818              	.LASF44:
 2819 01d1 54687265 		.ascii	"ThreadsList\000"
 2819      6164734C 
 2819      69737400 
 2820              	.LASF19:
 2821 01dd 6576656E 		.ascii	"eventmask_t\000"
 2821      746D6173 
 2821      6B5F7400 
 2822              	.LASF52:
 2823 01e9 4D757465 		.ascii	"Mutex\000"
 2823      7800
 2824              	.LASF78:
 2825 01ef 6D736770 		.ascii	"msgp\000"
 2825      00
 2826              	.LASF46:
 2827 01f4 73746B61 		.ascii	"stkalign_t\000"
 2827      6C69676E 
 2827      5F7400
 2828              	.LASF59:
 2829 01ff 6D625F72 		.ascii	"mb_rdptr\000"
 2829      64707472 
 2829      00
 2830              	.LASF69:
 2831 0208 63684D42 		.ascii	"chMBReset\000"
 2831      52657365 
 2831      7400
ARM GAS  /tmp/ccw4TIrd.s 			page 53


 2832              	.LASF28:
 2833 0212 705F6F6C 		.ascii	"p_older\000"
 2833      64657200 
 2834              	.LASF43:
 2835 021a 54687265 		.ascii	"ThreadsQueue\000"
 2835      61647351 
 2835      75657565 
 2835      00
 2836              	.LASF56:
 2837 0227 6D625F62 		.ascii	"mb_buffer\000"
 2837      75666665 
 2837      7200
 2838              	.LASF70:
 2839 0231 74696D65 		.ascii	"time\000"
 2839      00
 2840              	.LASF15:
 2841 0236 74726566 		.ascii	"trefs_t\000"
 2841      735F7400 
 2842              	.LASF24:
 2843 023e 705F7072 		.ascii	"p_prev\000"
 2843      657600
 2844              	.LASF17:
 2845 0245 74707269 		.ascii	"tprio_t\000"
 2845      6F5F7400 
 2846              	.LASF6:
 2847 024d 696E7433 		.ascii	"int32_t\000"
 2847      325F7400 
 2848              	.LASF2:
 2849 0255 756E7369 		.ascii	"unsigned char\000"
 2849      676E6564 
 2849      20636861 
 2849      7200
 2850              	.LASF57:
 2851 0263 6D625F74 		.ascii	"mb_top\000"
 2851      6F7000
 2852              	.LASF40:
 2853 026a 705F6D74 		.ascii	"p_mtxlist\000"
 2853      786C6973 
 2853      7400
 2854              	.LASF3:
 2855 0274 73686F72 		.ascii	"short int\000"
 2855      7420696E 
 2855      7400
 2856              	.LASF31:
 2857 027e 705F7374 		.ascii	"p_state\000"
 2857      61746500 
 2858              	.LASF34:
 2859 0286 705F7072 		.ascii	"p_preempt\000"
 2859      65656D70 
 2859      7400
 2860              	.LASF66:
 2861 0290 65776D61 		.ascii	"ewmask\000"
 2861      736B00
 2862              	.LASF23:
 2863 0297 705F6E65 		.ascii	"p_next\000"
 2863      787400
 2864              	.LASF32:
ARM GAS  /tmp/ccw4TIrd.s 			page 54


 2865 029e 705F666C 		.ascii	"p_flags\000"
 2865      61677300 
 2866              	.LASF71:
 2867 02a6 63684D42 		.ascii	"chMBPost\000"
 2867      506F7374 
 2867      00
 2868              	.LASF22:
 2869 02af 54687265 		.ascii	"Thread\000"
 2869      616400
 2870              	.LASF39:
 2871 02b6 705F6570 		.ascii	"p_epending\000"
 2871      656E6469 
 2871      6E6700
 2872              	.LASF8:
 2873 02c1 75696E74 		.ascii	"uint32_t\000"
 2873      33325F74 
 2873      00
 2874              	.LASF67:
 2875 02ca 63686172 		.ascii	"char\000"
 2875      00
 2876              	.LASF55:
 2877 02cf 6D5F6E65 		.ascii	"m_next\000"
 2877      787400
 2878              	.LASF20:
 2879 02d6 73797374 		.ascii	"systime_t\000"
 2879      696D655F 
 2879      7400
 2880              	.LASF41:
 2881 02e0 705F7265 		.ascii	"p_realprio\000"
 2881      616C7072 
 2881      696F00
 2882              	.LASF35:
 2883 02eb 705F7469 		.ascii	"p_time\000"
 2883      6D6500
 2884              	.LASF74:
 2885 02f2 63684D42 		.ascii	"chMBPostAhead\000"
 2885      506F7374 
 2885      41686561 
 2885      6400
 2886              	.LASF47:
 2887 0300 696E7463 		.ascii	"intctx\000"
 2887      747800
 2888              	.LASF37:
 2889 0307 705F6D73 		.ascii	"p_msgqueue\000"
 2889      67717565 
 2889      756500
 2890              	.LASF77:
 2891 0312 63684D42 		.ascii	"chMBFetch\000"
 2891      46657463 
 2891      6800
 2892              	.LASF49:
 2893 031c 53656D61 		.ascii	"Semaphore\000"
 2893      70686F72 
 2893      6500
 2894              	.LASF60:
 2895 0326 6D625F66 		.ascii	"mb_fullsem\000"
 2895      756C6C73 
ARM GAS  /tmp/ccw4TIrd.s 			page 55


 2895      656D00
 2896              	.LASF29:
 2897 0331 705F6E61 		.ascii	"p_name\000"
 2897      6D6500
 2898              	.LASF33:
 2899 0338 705F7265 		.ascii	"p_refs\000"
 2899      667300
 2900              	.LASF5:
 2901 033f 75696E74 		.ascii	"uint8_t\000"
 2901      385F7400 
 2902              	.LASF65:
 2903 0347 77746F62 		.ascii	"wtobjp\000"
 2903      6A7000
 2904              	.LASF83:
 2905 034e 2F686F6D 		.ascii	"/home/texzk/ChibiStudio/chibios/demos/ARMCM3-STM32F"
 2905      652F7465 
 2905      787A6B2F 
 2905      43686962 
 2905      69537475 
 2906 0381 3230372D 		.ascii	"207-STM3220G-EVAL\000"
 2906      53544D33 
 2906      32323047 
 2906      2D455641 
 2906      4C00
 2907              	.LASF54:
 2908 0393 6D5F6F77 		.ascii	"m_owner\000"
 2908      6E657200 
 2909              	.LASF26:
 2910 039b 705F6374 		.ascii	"p_ctx\000"
 2910      7800
 2911              	.LASF36:
 2912 03a1 705F7761 		.ascii	"p_waiting\000"
 2912      6974696E 
 2912      6700
 2913              		.ident	"GCC: (GNU Tools for ARM Embedded Processors) 4.6.2 20120613 (release) [ARM/embedded-4_6-br
ARM GAS  /tmp/ccw4TIrd.s 			page 56


DEFINED SYMBOLS
                            *ABS*:00000000 chmboxes.c
     /tmp/ccw4TIrd.s:19     .rodata:00000000 $d
     /tmp/ccw4TIrd.s:20     .rodata:00000000 .LC0
     /tmp/ccw4TIrd.s:23     .text.chMBInit:00000000 $t
     /tmp/ccw4TIrd.s:29     .text.chMBInit:00000000 chMBInit
     /tmp/ccw4TIrd.s:103    .rodata:00000010 .LC1
     /tmp/ccw4TIrd.s:106    .text.chMBReset:00000000 $t
     /tmp/ccw4TIrd.s:112    .text.chMBReset:00000000 chMBReset
     /tmp/ccw4TIrd.s:190    .text.chMBPost:00000000 $t
     /tmp/ccw4TIrd.s:196    .text.chMBPost:00000000 chMBPost
     /tmp/ccw4TIrd.s:257    .text.chMBPostS:00000000 chMBPostS
     /tmp/ccw4TIrd.s:248    .rodata:00000020 .LC2
     /tmp/ccw4TIrd.s:251    .text.chMBPostS:00000000 $t
     /tmp/ccw4TIrd.s:336    .rodata:00000030 .LC3
     /tmp/ccw4TIrd.s:339    .text.chMBPostI:00000000 $t
     /tmp/ccw4TIrd.s:345    .text.chMBPostI:00000000 chMBPostI
     /tmp/ccw4TIrd.s:423    .text.chMBPostAhead:00000000 $t
     /tmp/ccw4TIrd.s:429    .text.chMBPostAhead:00000000 chMBPostAhead
     /tmp/ccw4TIrd.s:490    .text.chMBPostAheadS:00000000 chMBPostAheadS
     /tmp/ccw4TIrd.s:481    .rodata:00000040 .LC4
     /tmp/ccw4TIrd.s:484    .text.chMBPostAheadS:00000000 $t
     /tmp/ccw4TIrd.s:572    .rodata:00000054 .LC5
     /tmp/ccw4TIrd.s:575    .text.chMBPostAheadI:00000000 $t
     /tmp/ccw4TIrd.s:581    .text.chMBPostAheadI:00000000 chMBPostAheadI
     /tmp/ccw4TIrd.s:662    .text.chMBFetch:00000000 $t
     /tmp/ccw4TIrd.s:668    .text.chMBFetch:00000000 chMBFetch
     /tmp/ccw4TIrd.s:729    .text.chMBFetchS:00000000 chMBFetchS
     /tmp/ccw4TIrd.s:720    .rodata:00000068 .LC6
     /tmp/ccw4TIrd.s:723    .text.chMBFetchS:00000000 $t
     /tmp/ccw4TIrd.s:814    .rodata:00000078 .LC7
     /tmp/ccw4TIrd.s:817    .text.chMBFetchI:00000000 $t
     /tmp/ccw4TIrd.s:823    .text.chMBFetchI:00000000 chMBFetchI
                     .debug_frame:00000010 $d

UNDEFINED SYMBOLS
chDbgPanic
chSemInit
dbg_check_lock
chSemResetI
chSchRescheduleS
dbg_check_unlock
chDbgCheckClassS
chSemWaitTimeoutS
chSemSignalI
chDbgCheckClassI
