ARM GAS  /tmp/ccWDGkq7.s 			page 1


   1              		.syntax unified
   2              		.cpu cortex-m3
   3              		.fpu softvfp
   4              		.eabi_attribute 20, 1
   5              		.eabi_attribute 21, 1
   6              		.eabi_attribute 23, 3
   7              		.eabi_attribute 24, 1
   8              		.eabi_attribute 25, 1
   9              		.eabi_attribute 26, 1
  10              		.eabi_attribute 30, 6
  11              		.eabi_attribute 34, 1
  12              		.eabi_attribute 18, 4
  13              		.thumb
  14              		.file	"chmsg.c"
  15              		.text
  16              	.Ltext0:
  17              		.cfi_sections	.debug_frame
  18              		.section	.text.queue_insert,"ax",%progbits
  19              		.align	2
  20              		.p2align 4,,15
  21              		.thumb
  22              		.thumb_func
  23              		.type	queue_insert, %function
  24              	queue_insert:
  25              	.LFB1:
  26              		.file 1 "../../os/kernel/include/chinline.h"
  27              		.loc 1 45 0
  28              		.cfi_startproc
  29              		@ args = 0, pretend = 0, frame = 8
  30              		@ frame_needed = 0, uses_anonymous_args = 0
  31              		@ link register save eliminated.
  32 0000 82B0     		sub	sp, sp, #8
  33              	.LCFI0:
  34              		.cfi_def_cfa_offset 8
  35 0002 0190     		str	r0, [sp, #4]
  36 0004 0091     		str	r1, [sp, #0]
  37              		.loc 1 47 0
  38 0006 019B     		ldr	r3, [sp, #4]
  39 0008 009A     		ldr	r2, [sp, #0]
  40 000a 1A60     		str	r2, [r3, #0]
  41              		.loc 1 48 0
  42 000c 009B     		ldr	r3, [sp, #0]
  43 000e 5A68     		ldr	r2, [r3, #4]
  44 0010 019B     		ldr	r3, [sp, #4]
  45 0012 5A60     		str	r2, [r3, #4]
  46              		.loc 1 49 0
  47 0014 019B     		ldr	r3, [sp, #4]
  48 0016 5B68     		ldr	r3, [r3, #4]
  49 0018 009A     		ldr	r2, [sp, #0]
  50 001a 0199     		ldr	r1, [sp, #4]
  51 001c 5160     		str	r1, [r2, #4]
  52 001e 009A     		ldr	r2, [sp, #0]
  53 0020 5268     		ldr	r2, [r2, #4]
  54 0022 1A60     		str	r2, [r3, #0]
  55              		.loc 1 50 0
  56 0024 02B0     		add	sp, sp, #8
  57 0026 7047     		bx	lr
ARM GAS  /tmp/ccWDGkq7.s 			page 2


  58              		.cfi_endproc
  59              	.LFE1:
  60              		.size	queue_insert, .-queue_insert
  61 0028 AFF30080 		.section	.text.fifo_remove,"ax",%progbits
  61      AFF30080 
  62              		.align	2
  63              		.p2align 4,,15
  64              		.thumb
  65              		.thumb_func
  66              		.type	fifo_remove, %function
  67              	fifo_remove:
  68              	.LFB2:
  69              		.loc 1 52 0
  70              		.cfi_startproc
  71              		@ args = 0, pretend = 0, frame = 16
  72              		@ frame_needed = 0, uses_anonymous_args = 0
  73              		@ link register save eliminated.
  74 0000 84B0     		sub	sp, sp, #16
  75              	.LCFI1:
  76              		.cfi_def_cfa_offset 16
  77 0002 0190     		str	r0, [sp, #4]
  78              		.loc 1 53 0
  79 0004 019B     		ldr	r3, [sp, #4]
  80 0006 1B68     		ldr	r3, [r3, #0]
  81 0008 0393     		str	r3, [sp, #12]
  82              		.loc 1 55 0
  83 000a 039B     		ldr	r3, [sp, #12]
  84 000c 1A68     		ldr	r2, [r3, #0]
  85 000e 019B     		ldr	r3, [sp, #4]
  86 0010 1A60     		str	r2, [r3, #0]
  87 0012 019B     		ldr	r3, [sp, #4]
  88 0014 1B68     		ldr	r3, [r3, #0]
  89 0016 019A     		ldr	r2, [sp, #4]
  90 0018 5A60     		str	r2, [r3, #4]
  91              		.loc 1 56 0
  92 001a 039B     		ldr	r3, [sp, #12]
  93              		.loc 1 57 0
  94 001c 1846     		mov	r0, r3
  95 001e 04B0     		add	sp, sp, #16
  96 0020 7047     		bx	lr
  97              		.cfi_endproc
  98              	.LFE2:
  99              		.size	fifo_remove, .-fifo_remove
 100 0022 00BFAFF3 		.section	.rodata
 100      0080AFF3 
 100      0080AFF3 
 100      0080
 101              		.align	2
 102              	.LC0:
 103 0000 2263684D 		.ascii	"\"chMsgSend\"()\000"
 103      73675365 
 103      6E642228 
 103      2900
 104              		.section	.text.chMsgSend,"ax",%progbits
 105              		.align	2
 106              		.p2align 4,,15
 107              		.global	chMsgSend
ARM GAS  /tmp/ccWDGkq7.s 			page 3


 108              		.thumb
 109              		.thumb_func
 110              		.type	chMsgSend, %function
 111              	chMsgSend:
 112              	.LFB7:
 113              		.file 2 "../../os/kernel/src/chmsg.c"
 114              		.loc 2 68 0
 115              		.cfi_startproc
 116              		@ args = 0, pretend = 0, frame = 16
 117              		@ frame_needed = 0, uses_anonymous_args = 0
 118 0000 00B5     		push	{lr}
 119              	.LCFI2:
 120              		.cfi_def_cfa_offset 4
 121              		.cfi_offset 14, -4
 122 0002 85B0     		sub	sp, sp, #20
 123              	.LCFI3:
 124              		.cfi_def_cfa_offset 24
 125 0004 0190     		str	r0, [sp, #4]
 126 0006 0091     		str	r1, [sp, #0]
 127              		.loc 2 69 0
 128 0008 40F20003 		movw	r3, #:lower16:rlist
 129 000c C0F20003 		movt	r3, #:upper16:rlist
 130 0010 9B69     		ldr	r3, [r3, #24]
 131 0012 0393     		str	r3, [sp, #12]
 132              		.loc 2 71 0
 133 0014 019B     		ldr	r3, [sp, #4]
 134 0016 002B     		cmp	r3, #0
 135 0018 05D1     		bne	.L4
 136              		.loc 2 71 0 is_stmt 0 discriminator 1
 137 001a 40F20000 		movw	r0, #:lower16:.LC0
 138 001e C0F20000 		movt	r0, #:upper16:.LC0
 139 0022 FFF7FEFF 		bl	chDbgPanic
 140              	.L4:
 141              	.LBB2:
 142              		.loc 2 73 0 is_stmt 1
 143 0026 4FF02003 		mov	r3, #32
 144              	@ 73 "../../os/kernel/src/chmsg.c" 1
 145 002a 83F31188 		msr     BASEPRI, r3
 146              	@ 0 "" 2
 147              		.thumb
 148              	.LBE2:
 149 002e FFF7FEFF 		bl	dbg_check_lock
 150              		.loc 2 74 0
 151 0032 039B     		ldr	r3, [sp, #12]
 152 0034 009A     		ldr	r2, [sp, #0]
 153 0036 9A63     		str	r2, [r3, #56]
 154              		.loc 2 75 0
 155 0038 019B     		ldr	r3, [sp, #4]
 156 003a 03F13002 		add	r2, r3, #48
 157 003e 039B     		ldr	r3, [sp, #12]
 158 0040 9A62     		str	r2, [r3, #40]
 159              		.loc 2 76 0
 160 0042 019B     		ldr	r3, [sp, #4]
 161 0044 03F13003 		add	r3, r3, #48
 162 0048 0398     		ldr	r0, [sp, #12]
 163 004a 1946     		mov	r1, r3
 164 004c FFF7FEFF 		bl	queue_insert
ARM GAS  /tmp/ccWDGkq7.s 			page 4


 165              		.loc 2 77 0
 166 0050 019B     		ldr	r3, [sp, #4]
 167 0052 93F82030 		ldrb	r3, [r3, #32]	@ zero_extendqisi2
 168 0056 0C2B     		cmp	r3, #12
 169 0058 02D1     		bne	.L5
 170              		.loc 2 78 0
 171 005a 0198     		ldr	r0, [sp, #4]
 172 005c FFF7FEFF 		bl	chSchReadyI
 173              	.L5:
 174              		.loc 2 79 0
 175 0060 4FF00A00 		mov	r0, #10
 176 0064 FFF7FEFF 		bl	chSchGoSleepS
 177              		.loc 2 80 0
 178 0068 039B     		ldr	r3, [sp, #12]
 179 006a 9B6A     		ldr	r3, [r3, #40]
 180 006c 0093     		str	r3, [sp, #0]
 181              		.loc 2 81 0
 182 006e FFF7FEFF 		bl	dbg_check_unlock
 183              	.LBB3:
 184 0072 4FF00003 		mov	r3, #0
 185              	@ 81 "../../os/kernel/src/chmsg.c" 1
 186 0076 83F31188 		msr     BASEPRI, r3
 187              	@ 0 "" 2
 188              		.thumb
 189              	.LBE3:
 190              		.loc 2 82 0
 191 007a 009B     		ldr	r3, [sp, #0]
 192              		.loc 2 83 0
 193 007c 1846     		mov	r0, r3
 194 007e 05B0     		add	sp, sp, #20
 195 0080 00BD     		pop	{pc}
 196              		.cfi_endproc
 197              	.LFE7:
 198              		.size	chMsgSend, .-chMsgSend
 199 0082 00BFAFF3 		.section	.text.chMsgWait,"ax",%progbits
 199      0080AFF3 
 199      0080AFF3 
 199      0080
 200              		.align	2
 201              		.p2align 4,,15
 202              		.global	chMsgWait
 203              		.thumb
 204              		.thumb_func
 205              		.type	chMsgWait, %function
 206              	chMsgWait:
 207              	.LFB8:
 208              		.loc 2 99 0
 209              		.cfi_startproc
 210              		@ args = 0, pretend = 0, frame = 8
 211              		@ frame_needed = 0, uses_anonymous_args = 0
 212 0000 00B5     		push	{lr}
 213              	.LCFI4:
 214              		.cfi_def_cfa_offset 4
 215              		.cfi_offset 14, -4
 216 0002 83B0     		sub	sp, sp, #12
 217              	.LCFI5:
 218              		.cfi_def_cfa_offset 16
ARM GAS  /tmp/ccWDGkq7.s 			page 5


 219              	.LBB4:
 220              		.loc 2 102 0
 221 0004 4FF02003 		mov	r3, #32
 222              	@ 102 "../../os/kernel/src/chmsg.c" 1
 223 0008 83F31188 		msr     BASEPRI, r3
 224              	@ 0 "" 2
 225              		.thumb
 226              	.LBE4:
 227 000c FFF7FEFF 		bl	dbg_check_lock
 228              		.loc 2 103 0
 229 0010 40F20003 		movw	r3, #:lower16:rlist
 230 0014 C0F20003 		movt	r3, #:upper16:rlist
 231 0018 9B69     		ldr	r3, [r3, #24]
 232 001a 1A6B     		ldr	r2, [r3, #48]
 233 001c 40F20003 		movw	r3, #:lower16:rlist
 234 0020 C0F20003 		movt	r3, #:upper16:rlist
 235 0024 9B69     		ldr	r3, [r3, #24]
 236 0026 03F13003 		add	r3, r3, #48
 237 002a 9A42     		cmp	r2, r3
 238 002c 03D1     		bne	.L7
 239              		.loc 2 104 0
 240 002e 4FF00C00 		mov	r0, #12
 241 0032 FFF7FEFF 		bl	chSchGoSleepS
 242              	.L7:
 243              		.loc 2 105 0
 244 0036 40F20003 		movw	r3, #:lower16:rlist
 245 003a C0F20003 		movt	r3, #:upper16:rlist
 246 003e 9B69     		ldr	r3, [r3, #24]
 247 0040 03F13003 		add	r3, r3, #48
 248 0044 1846     		mov	r0, r3
 249 0046 FFF7FEFF 		bl	fifo_remove
 250 004a 0346     		mov	r3, r0
 251 004c 0193     		str	r3, [sp, #4]
 252              		.loc 2 106 0
 253 004e 019B     		ldr	r3, [sp, #4]
 254 0050 4FF00B02 		mov	r2, #11
 255 0054 83F82020 		strb	r2, [r3, #32]
 256              		.loc 2 107 0
 257 0058 FFF7FEFF 		bl	dbg_check_unlock
 258              	.LBB5:
 259 005c 4FF00003 		mov	r3, #0
 260              	@ 107 "../../os/kernel/src/chmsg.c" 1
 261 0060 83F31188 		msr     BASEPRI, r3
 262              	@ 0 "" 2
 263              		.thumb
 264              	.LBE5:
 265              		.loc 2 108 0
 266 0064 019B     		ldr	r3, [sp, #4]
 267              		.loc 2 109 0
 268 0066 1846     		mov	r0, r3
 269 0068 03B0     		add	sp, sp, #12
 270 006a 00BD     		pop	{pc}
 271              		.cfi_endproc
 272              	.LFE8:
 273              		.size	chMsgWait, .-chMsgWait
 274 006c AFF30080 		.section	.rodata
 275 000e 0000     		.align	2
ARM GAS  /tmp/ccWDGkq7.s 			page 6


 276              	.LC1:
 277 0010 63684D73 		.ascii	"chMsgRelease(), #1\000"
 277      6752656C 
 277      65617365 
 277      28292C20 
 277      233100
 278 0023 00       		.section	.text.chMsgRelease,"ax",%progbits
 279              		.align	2
 280              		.p2align 4,,15
 281              		.global	chMsgRelease
 282              		.thumb
 283              		.thumb_func
 284              		.type	chMsgRelease, %function
 285              	chMsgRelease:
 286              	.LFB9:
 287              		.loc 2 121 0
 288              		.cfi_startproc
 289              		@ args = 0, pretend = 0, frame = 8
 290              		@ frame_needed = 0, uses_anonymous_args = 0
 291 0000 00B5     		push	{lr}
 292              	.LCFI6:
 293              		.cfi_def_cfa_offset 4
 294              		.cfi_offset 14, -4
 295 0002 83B0     		sub	sp, sp, #12
 296              	.LCFI7:
 297              		.cfi_def_cfa_offset 16
 298 0004 0190     		str	r0, [sp, #4]
 299 0006 0091     		str	r1, [sp, #0]
 300              	.LBB6:
 301              		.loc 2 123 0
 302 0008 4FF02003 		mov	r3, #32
 303              	@ 123 "../../os/kernel/src/chmsg.c" 1
 304 000c 83F31188 		msr     BASEPRI, r3
 305              	@ 0 "" 2
 306              		.thumb
 307              	.LBE6:
 308 0010 FFF7FEFF 		bl	dbg_check_lock
 309              		.loc 2 124 0
 310 0014 019B     		ldr	r3, [sp, #4]
 311 0016 93F82030 		ldrb	r3, [r3, #32]	@ zero_extendqisi2
 312 001a 0B2B     		cmp	r3, #11
 313 001c 05D0     		beq	.L9
 314              		.loc 2 124 0 is_stmt 0 discriminator 1
 315 001e 40F20000 		movw	r0, #:lower16:.LC1
 316 0022 C0F20000 		movt	r0, #:upper16:.LC1
 317 0026 FFF7FEFF 		bl	chDbgPanic
 318              	.L9:
 319              		.loc 2 126 0 is_stmt 1
 320 002a 0198     		ldr	r0, [sp, #4]
 321 002c 0099     		ldr	r1, [sp, #0]
 322 002e FFF7FEFF 		bl	chSchWakeupS
 323              		.loc 2 127 0
 324 0032 FFF7FEFF 		bl	dbg_check_unlock
 325              	.LBB7:
 326 0036 4FF00003 		mov	r3, #0
 327              	@ 127 "../../os/kernel/src/chmsg.c" 1
 328 003a 83F31188 		msr     BASEPRI, r3
ARM GAS  /tmp/ccWDGkq7.s 			page 7


 329              	@ 0 "" 2
 330              		.thumb
 331              	.LBE7:
 332              		.loc 2 128 0
 333 003e 03B0     		add	sp, sp, #12
 334 0040 00BD     		pop	{pc}
 335              		.cfi_endproc
 336              	.LFE9:
 337              		.size	chMsgRelease, .-chMsgRelease
 338 0042 00BFAFF3 		.text
 338      0080AFF3 
 338      0080AFF3 
 338      0080
 339              	.Letext0:
 340              		.file 3 "/home/texzk/ChibiStudio/tools/GNU Tools ARM Embedded/4.6 2012q2/bin/../lib/gcc/arm-none-e
 341              		.file 4 "../../os/ports/GCC/ARMCMx/chtypes.h"
 342              		.file 5 "../../os/kernel/include/chlists.h"
 343              		.file 6 "../../os/kernel/include/chthreads.h"
 344              		.file 7 "../../os/ports/GCC/ARMCMx/chcore_v7m.h"
 345              		.file 8 "../../os/kernel/include/chschd.h"
 346              		.file 9 "../../os/kernel/include/chmtx.h"