ARM GAS  /tmp/ccK3At5M.s 			page 1


   1              		.syntax unified
   2              		.cpu cortex-m3
   3              		.fpu softvfp
   4              		.eabi_attribute 20, 1
   5              		.eabi_attribute 21, 1
   6              		.eabi_attribute 23, 3
   7              		.eabi_attribute 24, 1
   8              		.eabi_attribute 25, 1
   9              		.eabi_attribute 26, 1
  10              		.eabi_attribute 30, 6
  11              		.eabi_attribute 34, 1
  12              		.eabi_attribute 18, 4
  13              		.thumb
  14              		.file	"chsem.c"
  15              		.text
  16              	.Ltext0:
  17              		.cfi_sections	.debug_frame
  18              		.section	.text.queue_insert,"ax",%progbits
  19              		.align	2
  20              		.p2align 4,,15
  21              		.thumb
  22              		.thumb_func
  23              		.type	queue_insert, %function
  24              	queue_insert:
  25              	.LFB1:
  26              		.file 1 "../../os/kernel/include/chinline.h"
  27              		.loc 1 45 0
  28              		.cfi_startproc
  29              		@ args = 0, pretend = 0, frame = 8
  30              		@ frame_needed = 0, uses_anonymous_args = 0
  31              		@ link register save eliminated.
  32 0000 82B0     		sub	sp, sp, #8
  33              	.LCFI0:
  34              		.cfi_def_cfa_offset 8
  35 0002 0190     		str	r0, [sp, #4]
  36 0004 0091     		str	r1, [sp, #0]
  37              		.loc 1 47 0
  38 0006 019B     		ldr	r3, [sp, #4]
  39 0008 009A     		ldr	r2, [sp, #0]
  40 000a 1A60     		str	r2, [r3, #0]
  41              		.loc 1 48 0
  42 000c 009B     		ldr	r3, [sp, #0]
  43 000e 5A68     		ldr	r2, [r3, #4]
  44 0010 019B     		ldr	r3, [sp, #4]
  45 0012 5A60     		str	r2, [r3, #4]
  46              		.loc 1 49 0
  47 0014 019B     		ldr	r3, [sp, #4]
  48 0016 5B68     		ldr	r3, [r3, #4]
  49 0018 009A     		ldr	r2, [sp, #0]
  50 001a 0199     		ldr	r1, [sp, #4]
  51 001c 5160     		str	r1, [r2, #4]
  52 001e 009A     		ldr	r2, [sp, #0]
  53 0020 5268     		ldr	r2, [r2, #4]
  54 0022 1A60     		str	r2, [r3, #0]
  55              		.loc 1 50 0
  56 0024 02B0     		add	sp, sp, #8
  57 0026 7047     		bx	lr
ARM GAS  /tmp/ccK3At5M.s 			page 2


  58              		.cfi_endproc
  59              	.LFE1:
  60              		.size	queue_insert, .-queue_insert
  61 0028 AFF30080 		.section	.text.fifo_remove,"ax",%progbits
  61      AFF30080 
  62              		.align	2
  63              		.p2align 4,,15
  64              		.thumb
  65              		.thumb_func
  66              		.type	fifo_remove, %function
  67              	fifo_remove:
  68              	.LFB2:
  69              		.loc 1 52 0
  70              		.cfi_startproc
  71              		@ args = 0, pretend = 0, frame = 16
  72              		@ frame_needed = 0, uses_anonymous_args = 0
  73              		@ link register save eliminated.
  74 0000 84B0     		sub	sp, sp, #16
  75              	.LCFI1:
  76              		.cfi_def_cfa_offset 16
  77 0002 0190     		str	r0, [sp, #4]
  78              		.loc 1 53 0
  79 0004 019B     		ldr	r3, [sp, #4]
  80 0006 1B68     		ldr	r3, [r3, #0]
  81 0008 0393     		str	r3, [sp, #12]
  82              		.loc 1 55 0
  83 000a 039B     		ldr	r3, [sp, #12]
  84 000c 1A68     		ldr	r2, [r3, #0]
  85 000e 019B     		ldr	r3, [sp, #4]
  86 0010 1A60     		str	r2, [r3, #0]
  87 0012 019B     		ldr	r3, [sp, #4]
  88 0014 1B68     		ldr	r3, [r3, #0]
  89 0016 019A     		ldr	r2, [sp, #4]
  90 0018 5A60     		str	r2, [r3, #4]
  91              		.loc 1 56 0
  92 001a 039B     		ldr	r3, [sp, #12]
  93              		.loc 1 57 0
  94 001c 1846     		mov	r0, r3
  95 001e 04B0     		add	sp, sp, #16
  96 0020 7047     		bx	lr
  97              		.cfi_endproc
  98              	.LFE2:
  99              		.size	fifo_remove, .-fifo_remove
 100 0022 00BFAFF3 		.section	.text.lifo_remove,"ax",%progbits
 100      0080AFF3 
 100      0080AFF3 
 100      0080
 101              		.align	2
 102              		.p2align 4,,15
 103              		.thumb
 104              		.thumb_func
 105              		.type	lifo_remove, %function
 106              	lifo_remove:
 107              	.LFB3:
 108              		.loc 1 59 0
 109              		.cfi_startproc
 110              		@ args = 0, pretend = 0, frame = 16
ARM GAS  /tmp/ccK3At5M.s 			page 3


 111              		@ frame_needed = 0, uses_anonymous_args = 0
 112              		@ link register save eliminated.
 113 0000 84B0     		sub	sp, sp, #16
 114              	.LCFI2:
 115              		.cfi_def_cfa_offset 16
 116 0002 0190     		str	r0, [sp, #4]
 117              		.loc 1 60 0
 118 0004 019B     		ldr	r3, [sp, #4]
 119 0006 5B68     		ldr	r3, [r3, #4]
 120 0008 0393     		str	r3, [sp, #12]
 121              		.loc 1 62 0
 122 000a 039B     		ldr	r3, [sp, #12]
 123 000c 5A68     		ldr	r2, [r3, #4]
 124 000e 019B     		ldr	r3, [sp, #4]
 125 0010 5A60     		str	r2, [r3, #4]
 126 0012 019B     		ldr	r3, [sp, #4]
 127 0014 5B68     		ldr	r3, [r3, #4]
 128 0016 019A     		ldr	r2, [sp, #4]
 129 0018 1A60     		str	r2, [r3, #0]
 130              		.loc 1 63 0
 131 001a 039B     		ldr	r3, [sp, #12]
 132              		.loc 1 64 0
 133 001c 1846     		mov	r0, r3
 134 001e 04B0     		add	sp, sp, #16
 135 0020 7047     		bx	lr
 136              		.cfi_endproc
 137              	.LFE3:
 138              		.size	lifo_remove, .-lifo_remove
 139 0022 00BFAFF3 		.section	.rodata
 139      0080AFF3 
 139      0080AFF3 
 139      0080
 140              		.align	2
 141              	.LC0:
 142 0000 22636853 		.ascii	"\"chSemInit\"()\000"
 142      656D496E 
 142      69742228 
 142      2900
 143              		.section	.text.chSemInit,"ax",%progbits
 144              		.align	2
 145              		.p2align 4,,15
 146              		.global	chSemInit
 147              		.thumb
 148              		.thumb_func
 149              		.type	chSemInit, %function
 150              	chSemInit:
 151              	.LFB7:
 152              		.file 2 "../../os/kernel/src/chsem.c"
 153              		.loc 2 79 0
 154              		.cfi_startproc
 155              		@ args = 0, pretend = 0, frame = 8
 156              		@ frame_needed = 0, uses_anonymous_args = 0
 157 0000 00B5     		push	{lr}
 158              	.LCFI3:
 159              		.cfi_def_cfa_offset 4
 160              		.cfi_offset 14, -4
 161 0002 83B0     		sub	sp, sp, #12
ARM GAS  /tmp/ccK3At5M.s 			page 4


 162              	.LCFI4:
 163              		.cfi_def_cfa_offset 16
 164 0004 0190     		str	r0, [sp, #4]
 165 0006 0091     		str	r1, [sp, #0]
 166              		.loc 2 81 0
 167 0008 019B     		ldr	r3, [sp, #4]
 168 000a 002B     		cmp	r3, #0
 169 000c 02D0     		beq	.L5
 170              		.loc 2 81 0 is_stmt 0 discriminator 2
 171 000e 009B     		ldr	r3, [sp, #0]
 172 0010 002B     		cmp	r3, #0
 173 0012 05DA     		bge	.L6
 174              	.L5:
 175              		.loc 2 81 0 discriminator 1
 176 0014 40F20000 		movw	r0, #:lower16:.LC0
 177 0018 C0F20000 		movt	r0, #:upper16:.LC0
 178 001c FFF7FEFF 		bl	chDbgPanic
 179              	.L6:
 180              		.loc 2 83 0 is_stmt 1
 181 0020 019A     		ldr	r2, [sp, #4]
 182 0022 019B     		ldr	r3, [sp, #4]
 183 0024 5A60     		str	r2, [r3, #4]
 184 0026 019B     		ldr	r3, [sp, #4]
 185 0028 5A68     		ldr	r2, [r3, #4]
 186 002a 019B     		ldr	r3, [sp, #4]
 187 002c 1A60     		str	r2, [r3, #0]
 188              		.loc 2 84 0
 189 002e 019B     		ldr	r3, [sp, #4]
 190 0030 009A     		ldr	r2, [sp, #0]
 191 0032 9A60     		str	r2, [r3, #8]
 192              		.loc 2 85 0
 193 0034 03B0     		add	sp, sp, #12
 194 0036 00BD     		pop	{pc}
 195              		.cfi_endproc
 196              	.LFE7:
 197              		.size	chSemInit, .-chSemInit
 198 0038 AFF30080 		.section	.text.chSemReset,"ax",%progbits
 198      AFF30080 
 199              		.align	2
 200              		.p2align 4,,15
 201              		.global	chSemReset
 202              		.thumb
 203              		.thumb_func
 204              		.type	chSemReset, %function
 205              	chSemReset:
 206              	.LFB8:
 207              		.loc 2 102 0
 208              		.cfi_startproc
 209              		@ args = 0, pretend = 0, frame = 8
 210              		@ frame_needed = 0, uses_anonymous_args = 0
 211 0000 00B5     		push	{lr}
 212              	.LCFI5:
 213              		.cfi_def_cfa_offset 4
 214              		.cfi_offset 14, -4
 215 0002 83B0     		sub	sp, sp, #12
 216              	.LCFI6:
 217              		.cfi_def_cfa_offset 16
ARM GAS  /tmp/ccK3At5M.s 			page 5


 218 0004 0190     		str	r0, [sp, #4]
 219 0006 0091     		str	r1, [sp, #0]
 220              	.LBB2:
 221              		.loc 2 104 0
 222 0008 4FF02003 		mov	r3, #32
 223              	@ 104 "../../os/kernel/src/chsem.c" 1
 224 000c 83F31188 		msr     BASEPRI, r3
 225              	@ 0 "" 2
 226              		.thumb
 227              	.LBE2:
 228 0010 FFF7FEFF 		bl	dbg_check_lock
 229              		.loc 2 105 0
 230 0014 0198     		ldr	r0, [sp, #4]
 231 0016 0099     		ldr	r1, [sp, #0]
 232 0018 FFF7FEFF 		bl	chSemResetI
 233              		.loc 2 106 0
 234 001c FFF7FEFF 		bl	chSchRescheduleS
 235              		.loc 2 107 0
 236 0020 FFF7FEFF 		bl	dbg_check_unlock
 237              	.LBB3:
 238 0024 4FF00003 		mov	r3, #0
 239              	@ 107 "../../os/kernel/src/chsem.c" 1
 240 0028 83F31188 		msr     BASEPRI, r3
 241              	@ 0 "" 2
 242              		.thumb
 243              	.LBE3:
 244              		.loc 2 108 0
 245 002c 03B0     		add	sp, sp, #12
 246 002e 00BD     		pop	{pc}
 247              		.cfi_endproc
 248              	.LFE8:
 249              		.size	chSemReset, .-chSemReset
 250              		.section	.rodata
 251 000e 0000     		.align	2
 252              	.LC1:
 253 0010 22636853 		.ascii	"\"chSemResetI\"()\000"
 253      656D5265 
 253      73657449 
 253      22282900 
 254              		.align	2
 255              	.LC2:
 256 0020 63685365 		.ascii	"chSemResetI(), #1\000"
 256      6D526573 
 256      65744928 
 256      292C2023 
 256      3100
 257              		.section	.text.chSemResetI,"ax",%progbits
 258              		.align	2
 259              		.p2align 4,,15
 260              		.global	chSemResetI
 261              		.thumb
 262              		.thumb_func
 263              		.type	chSemResetI, %function
 264              	chSemResetI:
 265              	.LFB9:
 266              		.loc 2 129 0
 267              		.cfi_startproc
ARM GAS  /tmp/ccK3At5M.s 			page 6


 268              		@ args = 0, pretend = 0, frame = 16
 269              		@ frame_needed = 0, uses_anonymous_args = 0
 270 0000 00B5     		push	{lr}
 271              	.LCFI7:
 272              		.cfi_def_cfa_offset 4
 273              		.cfi_offset 14, -4
 274 0002 85B0     		sub	sp, sp, #20
 275              	.LCFI8:
 276              		.cfi_def_cfa_offset 24
 277 0004 0190     		str	r0, [sp, #4]
 278 0006 0091     		str	r1, [sp, #0]
 279              		.loc 2 132 0
 280 0008 FFF7FEFF 		bl	chDbgCheckClassI
 281              		.loc 2 133 0
 282 000c 019B     		ldr	r3, [sp, #4]
 283 000e 002B     		cmp	r3, #0
 284 0010 02D0     		beq	.L9
 285              		.loc 2 133 0 is_stmt 0 discriminator 2
 286 0012 009B     		ldr	r3, [sp, #0]
 287 0014 002B     		cmp	r3, #0
 288 0016 05DA     		bge	.L10
 289              	.L9:
 290              		.loc 2 133 0 discriminator 1
 291 0018 40F20000 		movw	r0, #:lower16:.LC1
 292 001c C0F20000 		movt	r0, #:upper16:.LC1
 293 0020 FFF7FEFF 		bl	chDbgPanic
 294              	.L10:
 295              		.loc 2 134 0 is_stmt 1
 296 0024 019B     		ldr	r3, [sp, #4]
 297 0026 9B68     		ldr	r3, [r3, #8]
 298 0028 002B     		cmp	r3, #0
 299 002a 04DB     		blt	.L11
 300              		.loc 2 134 0 is_stmt 0 discriminator 2
 301 002c 019B     		ldr	r3, [sp, #4]
 302 002e 1A68     		ldr	r2, [r3, #0]
 303 0030 019B     		ldr	r3, [sp, #4]
 304 0032 9A42     		cmp	r2, r3
 305 0034 0ED0     		beq	.L12
 306              	.L11:
 307              		.loc 2 134 0 discriminator 1
 308 0036 019B     		ldr	r3, [sp, #4]
 309 0038 9B68     		ldr	r3, [r3, #8]
 310 003a 002B     		cmp	r3, #0
 311 003c 04DA     		bge	.L13
 312              		.loc 2 134 0 discriminator 4
 313 003e 019B     		ldr	r3, [sp, #4]
 314 0040 1A68     		ldr	r2, [r3, #0]
 315 0042 019B     		ldr	r3, [sp, #4]
 316 0044 9A42     		cmp	r2, r3
 317 0046 05D1     		bne	.L12
 318              	.L13:
 319              		.loc 2 134 0 discriminator 3
 320 0048 40F20000 		movw	r0, #:lower16:.LC2
 321 004c C0F20000 		movt	r0, #:upper16:.LC2
 322 0050 FFF7FEFF 		bl	chDbgPanic
 323              	.L12:
 324              		.loc 2 139 0 is_stmt 1
ARM GAS  /tmp/ccK3At5M.s 			page 7


 325 0054 019B     		ldr	r3, [sp, #4]
 326 0056 9B68     		ldr	r3, [r3, #8]
 327 0058 0393     		str	r3, [sp, #12]
 328              		.loc 2 140 0
 329 005a 019B     		ldr	r3, [sp, #4]
 330 005c 009A     		ldr	r2, [sp, #0]
 331 005e 9A60     		str	r2, [r3, #8]
 332              		.loc 2 141 0
 333 0060 0BE0     		b	.L14
 334              	.L15:
 335              		.loc 2 142 0
 336 0062 019B     		ldr	r3, [sp, #4]
 337 0064 1846     		mov	r0, r3
 338 0066 FFF7FEFF 		bl	lifo_remove
 339 006a 0346     		mov	r3, r0
 340 006c 1846     		mov	r0, r3
 341 006e FFF7FEFF 		bl	chSchReadyI
 342 0072 0346     		mov	r3, r0
 343 0074 6FF00102 		mvn	r2, #1
 344 0078 9A62     		str	r2, [r3, #40]
 345              	.L14:
 346              		.loc 2 141 0 discriminator 1
 347 007a 039B     		ldr	r3, [sp, #12]
 348 007c 03F10103 		add	r3, r3, #1
 349 0080 0393     		str	r3, [sp, #12]
 350 0082 039B     		ldr	r3, [sp, #12]
 351 0084 002B     		cmp	r3, #0
 352 0086 ECDD     		ble	.L15
 353              		.loc 2 143 0
 354 0088 05B0     		add	sp, sp, #20
 355 008a 00BD     		pop	{pc}
 356              		.cfi_endproc
 357              	.LFE9:
 358              		.size	chSemResetI, .-chSemResetI
 359 008c AFF30080 		.section	.text.chSemWait,"ax",%progbits
 360              		.align	2
 361              		.p2align 4,,15
 362              		.global	chSemWait
 363              		.thumb
 364              		.thumb_func
 365              		.type	chSemWait, %function
 366              	chSemWait:
 367              	.LFB10:
 368              		.loc 2 157 0
 369              		.cfi_startproc
 370              		@ args = 0, pretend = 0, frame = 16
 371              		@ frame_needed = 0, uses_anonymous_args = 0
 372 0000 00B5     		push	{lr}
 373              	.LCFI9:
 374              		.cfi_def_cfa_offset 4
 375              		.cfi_offset 14, -4
 376 0002 85B0     		sub	sp, sp, #20
 377              	.LCFI10:
 378              		.cfi_def_cfa_offset 24
 379 0004 0190     		str	r0, [sp, #4]
 380              	.LBB4:
 381              		.loc 2 160 0
ARM GAS  /tmp/ccK3At5M.s 			page 8


 382 0006 4FF02003 		mov	r3, #32
 383              	@ 160 "../../os/kernel/src/chsem.c" 1
 384 000a 83F31188 		msr     BASEPRI, r3
 385              	@ 0 "" 2
 386              		.thumb
 387              	.LBE4:
 388 000e FFF7FEFF 		bl	dbg_check_lock
 389              		.loc 2 161 0
 390 0012 0198     		ldr	r0, [sp, #4]
 391 0014 FFF7FEFF 		bl	chSemWaitS
 392 0018 0346     		mov	r3, r0
 393 001a 0393     		str	r3, [sp, #12]
 394              		.loc 2 162 0
 395 001c FFF7FEFF 		bl	dbg_check_unlock
 396              	.LBB5:
 397 0020 4FF00003 		mov	r3, #0
 398              	@ 162 "../../os/kernel/src/chsem.c" 1
 399 0024 83F31188 		msr     BASEPRI, r3
 400              	@ 0 "" 2
 401              		.thumb
 402              	.LBE5:
 403              		.loc 2 163 0
 404 0028 039B     		ldr	r3, [sp, #12]
 405              		.loc 2 164 0
 406 002a 1846     		mov	r0, r3
 407 002c 05B0     		add	sp, sp, #20
 408 002e 00BD     		pop	{pc}
 409              		.cfi_endproc
 410              	.LFE10:
 411              		.size	chSemWait, .-chSemWait
 412              		.section	.rodata
 413 0032 0000     		.align	2
 414              	.LC3:
 415 0034 22636853 		.ascii	"\"chSemWaitS\"()\000"
 415      656D5761 
 415      69745322 
 415      282900
 416 0043 00       		.align	2
 417              	.LC4:
 418 0044 63685365 		.ascii	"chSemWaitS(), #1\000"
 418      6D576169 
 418      74532829 
 418      2C202331 
 418      00
 419              		.section	.text.chSemWaitS,"ax",%progbits
 420              		.align	2
 421              		.p2align 4,,15
 422              		.global	chSemWaitS
 423              		.thumb
 424              		.thumb_func
 425              		.type	chSemWaitS, %function
 426              	chSemWaitS:
 427              	.LFB11:
 428              		.loc 2 178 0
 429              		.cfi_startproc
 430              		@ args = 0, pretend = 0, frame = 8
 431              		@ frame_needed = 0, uses_anonymous_args = 0
ARM GAS  /tmp/ccK3At5M.s 			page 9


 432 0000 00B5     		push	{lr}
 433              	.LCFI11:
 434              		.cfi_def_cfa_offset 4
 435              		.cfi_offset 14, -4
 436 0002 83B0     		sub	sp, sp, #12
 437              	.LCFI12:
 438              		.cfi_def_cfa_offset 16
 439 0004 0190     		str	r0, [sp, #4]
 440              		.loc 2 180 0
 441 0006 FFF7FEFF 		bl	chDbgCheckClassS
 442              		.loc 2 181 0
 443 000a 019B     		ldr	r3, [sp, #4]
 444 000c 002B     		cmp	r3, #0
 445 000e 05D1     		bne	.L18
 446              		.loc 2 181 0 is_stmt 0 discriminator 1
 447 0010 40F20000 		movw	r0, #:lower16:.LC3
 448 0014 C0F20000 		movt	r0, #:upper16:.LC3
 449 0018 FFF7FEFF 		bl	chDbgPanic
 450              	.L18:
 451              		.loc 2 182 0 is_stmt 1
 452 001c 019B     		ldr	r3, [sp, #4]
 453 001e 9B68     		ldr	r3, [r3, #8]
 454 0020 002B     		cmp	r3, #0
 455 0022 04DB     		blt	.L19
 456              		.loc 2 182 0 is_stmt 0 discriminator 2
 457 0024 019B     		ldr	r3, [sp, #4]
 458 0026 1A68     		ldr	r2, [r3, #0]
 459 0028 019B     		ldr	r3, [sp, #4]
 460 002a 9A42     		cmp	r2, r3
 461 002c 0ED0     		beq	.L20
 462              	.L19:
 463              		.loc 2 182 0 discriminator 1
 464 002e 019B     		ldr	r3, [sp, #4]
 465 0030 9B68     		ldr	r3, [r3, #8]
 466 0032 002B     		cmp	r3, #0
 467 0034 04DA     		bge	.L21
 468              		.loc 2 182 0 discriminator 4
 469 0036 019B     		ldr	r3, [sp, #4]
 470 0038 1A68     		ldr	r2, [r3, #0]
 471 003a 019B     		ldr	r3, [sp, #4]
 472 003c 9A42     		cmp	r2, r3
 473 003e 05D1     		bne	.L20
 474              	.L21:
 475              		.loc 2 182 0 discriminator 3
 476 0040 40F20000 		movw	r0, #:lower16:.LC4
 477 0044 C0F20000 		movt	r0, #:upper16:.LC4
 478 0048 FFF7FEFF 		bl	chDbgPanic
 479              	.L20:
 480              		.loc 2 187 0 is_stmt 1
 481 004c 019B     		ldr	r3, [sp, #4]
 482 004e 9B68     		ldr	r3, [r3, #8]
 483 0050 03F1FF32 		add	r2, r3, #-1
 484 0054 019B     		ldr	r3, [sp, #4]
 485 0056 9A60     		str	r2, [r3, #8]
 486 0058 019B     		ldr	r3, [sp, #4]
 487 005a 9B68     		ldr	r3, [r3, #8]
 488 005c 002B     		cmp	r3, #0
ARM GAS  /tmp/ccK3At5M.s 			page 10


 489 005e 1BDA     		bge	.L22
 490              		.loc 2 188 0
 491 0060 40F20003 		movw	r3, #:lower16:rlist
 492 0064 C0F20003 		movt	r3, #:upper16:rlist
 493 0068 9B69     		ldr	r3, [r3, #24]
 494 006a 019A     		ldr	r2, [sp, #4]
 495 006c 9A62     		str	r2, [r3, #40]
 496              		.loc 2 189 0
 497 006e 40F20003 		movw	r3, #:lower16:rlist
 498 0072 C0F20003 		movt	r3, #:upper16:rlist
 499 0076 9A69     		ldr	r2, [r3, #24]
 500 0078 019B     		ldr	r3, [sp, #4]
 501 007a 1046     		mov	r0, r2
 502 007c 1946     		mov	r1, r3
 503 007e FFF7FEFF 		bl	queue_insert
 504              		.loc 2 190 0
 505 0082 4FF00300 		mov	r0, #3
 506 0086 FFF7FEFF 		bl	chSchGoSleepS
 507              		.loc 2 191 0
 508 008a 40F20003 		movw	r3, #:lower16:rlist
 509 008e C0F20003 		movt	r3, #:upper16:rlist
 510 0092 9B69     		ldr	r3, [r3, #24]
 511 0094 9B6A     		ldr	r3, [r3, #40]
 512 0096 01E0     		b	.L23
 513              	.L22:
 514              		.loc 2 193 0
 515 0098 4FF00003 		mov	r3, #0
 516              	.L23:
 517              		.loc 2 194 0
 518 009c 1846     		mov	r0, r3
 519 009e 03B0     		add	sp, sp, #12
 520 00a0 00BD     		pop	{pc}
 521              		.cfi_endproc
 522              	.LFE11:
 523              		.size	chSemWaitS, .-chSemWaitS
 524 00a2 00BFAFF3 		.section	.text.chSemWaitTimeout,"ax",%progbits
 524      0080AFF3 
 524      0080AFF3 
 524      0080
 525              		.align	2
 526              		.p2align 4,,15
 527              		.global	chSemWaitTimeout
 528              		.thumb
 529              		.thumb_func
 530              		.type	chSemWaitTimeout, %function
 531              	chSemWaitTimeout:
 532              	.LFB12:
 533              		.loc 2 215 0
 534              		.cfi_startproc
 535              		@ args = 0, pretend = 0, frame = 16
 536              		@ frame_needed = 0, uses_anonymous_args = 0
 537 0000 00B5     		push	{lr}
 538              	.LCFI13:
 539              		.cfi_def_cfa_offset 4
 540              		.cfi_offset 14, -4
 541 0002 85B0     		sub	sp, sp, #20
 542              	.LCFI14:
ARM GAS  /tmp/ccK3At5M.s 			page 11


 543              		.cfi_def_cfa_offset 24
 544 0004 0190     		str	r0, [sp, #4]
 545 0006 0091     		str	r1, [sp, #0]
 546              	.LBB6:
 547              		.loc 2 218 0
 548 0008 4FF02003 		mov	r3, #32
 549              	@ 218 "../../os/kernel/src/chsem.c" 1
 550 000c 83F31188 		msr     BASEPRI, r3
 551              	@ 0 "" 2
 552              		.thumb
 553              	.LBE6:
 554 0010 FFF7FEFF 		bl	dbg_check_lock
 555              		.loc 2 219 0
 556 0014 0198     		ldr	r0, [sp, #4]
 557 0016 0099     		ldr	r1, [sp, #0]
 558 0018 FFF7FEFF 		bl	chSemWaitTimeoutS
 559 001c 0346     		mov	r3, r0
 560 001e 0393     		str	r3, [sp, #12]
 561              		.loc 2 220 0
 562 0020 FFF7FEFF 		bl	dbg_check_unlock
 563              	.LBB7:
 564 0024 4FF00003 		mov	r3, #0
 565              	@ 220 "../../os/kernel/src/chsem.c" 1
 566 0028 83F31188 		msr     BASEPRI, r3
 567              	@ 0 "" 2
 568              		.thumb
 569              	.LBE7:
 570              		.loc 2 221 0
 571 002c 039B     		ldr	r3, [sp, #12]
 572              		.loc 2 222 0
 573 002e 1846     		mov	r0, r3
 574 0030 05B0     		add	sp, sp, #20
 575 0032 00BD     		pop	{pc}
 576              		.cfi_endproc
 577              	.LFE12:
 578              		.size	chSemWaitTimeout, .-chSemWaitTimeout
 579 0034 AFF30080 		.section	.rodata
 579      AFF30080 
 579      AFF30080 
 580 0055 000000   		.align	2
 581              	.LC5:
 582 0058 22636853 		.ascii	"\"chSemWaitTimeoutS\"()\000"
 582      656D5761 
 582      69745469 
 582      6D656F75 
 582      74532228 
 583 006e 0000     		.align	2
 584              	.LC6:
 585 0070 63685365 		.ascii	"chSemWaitTimeoutS(), #1\000"
 585      6D576169 
 585      7454696D 
 585      656F7574 
 585      5328292C 
 586              		.section	.text.chSemWaitTimeoutS,"ax",%progbits
 587              		.align	2
 588              		.p2align 4,,15
 589              		.global	chSemWaitTimeoutS
ARM GAS  /tmp/ccK3At5M.s 			page 12


 590              		.thumb
 591              		.thumb_func
 592              		.type	chSemWaitTimeoutS, %function
 593              	chSemWaitTimeoutS:
 594              	.LFB13:
 595              		.loc 2 243 0
 596              		.cfi_startproc
 597              		@ args = 0, pretend = 0, frame = 8
 598              		@ frame_needed = 0, uses_anonymous_args = 0
 599 0000 00B5     		push	{lr}
 600              	.LCFI15:
 601              		.cfi_def_cfa_offset 4
 602              		.cfi_offset 14, -4
 603 0002 83B0     		sub	sp, sp, #12
 604              	.LCFI16:
 605              		.cfi_def_cfa_offset 16
 606 0004 0190     		str	r0, [sp, #4]
 607 0006 0091     		str	r1, [sp, #0]
 608              		.loc 2 245 0
 609 0008 FFF7FEFF 		bl	chDbgCheckClassS
 610              		.loc 2 246 0
 611 000c 019B     		ldr	r3, [sp, #4]
 612 000e 002B     		cmp	r3, #0
 613 0010 05D1     		bne	.L26
 614              		.loc 2 246 0 is_stmt 0 discriminator 1
 615 0012 40F20000 		movw	r0, #:lower16:.LC5
 616 0016 C0F20000 		movt	r0, #:upper16:.LC5
 617 001a FFF7FEFF 		bl	chDbgPanic
 618              	.L26:
 619              		.loc 2 247 0 is_stmt 1
 620 001e 019B     		ldr	r3, [sp, #4]
 621 0020 9B68     		ldr	r3, [r3, #8]
 622 0022 002B     		cmp	r3, #0
 623 0024 04DB     		blt	.L27
 624              		.loc 2 247 0 is_stmt 0 discriminator 2
 625 0026 019B     		ldr	r3, [sp, #4]
 626 0028 1A68     		ldr	r2, [r3, #0]
 627 002a 019B     		ldr	r3, [sp, #4]
 628 002c 9A42     		cmp	r2, r3
 629 002e 0ED0     		beq	.L28
 630              	.L27:
 631              		.loc 2 247 0 discriminator 1
 632 0030 019B     		ldr	r3, [sp, #4]
 633 0032 9B68     		ldr	r3, [r3, #8]
 634 0034 002B     		cmp	r3, #0
 635 0036 04DA     		bge	.L29
 636              		.loc 2 247 0 discriminator 4
 637 0038 019B     		ldr	r3, [sp, #4]
 638 003a 1A68     		ldr	r2, [r3, #0]
 639 003c 019B     		ldr	r3, [sp, #4]
 640 003e 9A42     		cmp	r2, r3
 641 0040 05D1     		bne	.L28
 642              	.L29:
 643              		.loc 2 247 0 discriminator 3
 644 0042 40F20000 		movw	r0, #:lower16:.LC6
 645 0046 C0F20000 		movt	r0, #:upper16:.LC6
 646 004a FFF7FEFF 		bl	chDbgPanic
ARM GAS  /tmp/ccK3At5M.s 			page 13


 647              	.L28:
 648              		.loc 2 252 0 is_stmt 1
 649 004e 019B     		ldr	r3, [sp, #4]
 650 0050 9B68     		ldr	r3, [r3, #8]
 651 0052 03F1FF32 		add	r2, r3, #-1
 652 0056 019B     		ldr	r3, [sp, #4]
 653 0058 9A60     		str	r2, [r3, #8]
 654 005a 019B     		ldr	r3, [sp, #4]
 655 005c 9B68     		ldr	r3, [r3, #8]
 656 005e 002B     		cmp	r3, #0
 657 0060 23DA     		bge	.L30
 658              		.loc 2 253 0
 659 0062 009B     		ldr	r3, [sp, #0]
 660 0064 002B     		cmp	r3, #0
 661 0066 08D1     		bne	.L31
 662              		.loc 2 254 0
 663 0068 019B     		ldr	r3, [sp, #4]
 664 006a 9B68     		ldr	r3, [r3, #8]
 665 006c 03F10102 		add	r2, r3, #1
 666 0070 019B     		ldr	r3, [sp, #4]
 667 0072 9A60     		str	r2, [r3, #8]
 668              		.loc 2 255 0
 669 0074 4FF0FF33 		mov	r3, #-1
 670 0078 19E0     		b	.L32
 671              	.L31:
 672              		.loc 2 257 0
 673 007a 40F20003 		movw	r3, #:lower16:rlist
 674 007e C0F20003 		movt	r3, #:upper16:rlist
 675 0082 9B69     		ldr	r3, [r3, #24]
 676 0084 019A     		ldr	r2, [sp, #4]
 677 0086 9A62     		str	r2, [r3, #40]
 678              		.loc 2 258 0
 679 0088 40F20003 		movw	r3, #:lower16:rlist
 680 008c C0F20003 		movt	r3, #:upper16:rlist
 681 0090 9A69     		ldr	r2, [r3, #24]
 682 0092 019B     		ldr	r3, [sp, #4]
 683 0094 1046     		mov	r0, r2
 684 0096 1946     		mov	r1, r3
 685 0098 FFF7FEFF 		bl	queue_insert
 686              		.loc 2 259 0
 687 009c 4FF00300 		mov	r0, #3
 688 00a0 0099     		ldr	r1, [sp, #0]
 689 00a2 FFF7FEFF 		bl	chSchGoSleepTimeoutS
 690 00a6 0346     		mov	r3, r0
 691 00a8 01E0     		b	.L32
 692              	.L30:
 693              		.loc 2 261 0
 694 00aa 4FF00003 		mov	r3, #0
 695              	.L32:
 696              		.loc 2 262 0
 697 00ae 1846     		mov	r0, r3
 698 00b0 03B0     		add	sp, sp, #12
 699 00b2 00BD     		pop	{pc}
 700              		.cfi_endproc
 701              	.LFE13:
 702              		.size	chSemWaitTimeoutS, .-chSemWaitTimeoutS
 703 00b4 AFF30080 		.section	.rodata
ARM GAS  /tmp/ccK3At5M.s 			page 14


 703      AFF30080 
 703      AFF30080 
 704              		.align	2
 705              	.LC7:
 706 0088 22636853 		.ascii	"\"chSemSignal\"()\000"
 706      656D5369 
 706      676E616C 
 706      22282900 
 707              		.align	2
 708              	.LC8:
 709 0098 63685365 		.ascii	"chSemSignal(), #1\000"
 709      6D536967 
 709      6E616C28 
 709      292C2023 
 709      3100
 710              		.section	.text.chSemSignal,"ax",%progbits
 711              		.align	2
 712              		.p2align 4,,15
 713              		.global	chSemSignal
 714              		.thumb
 715              		.thumb_func
 716              		.type	chSemSignal, %function
 717              	chSemSignal:
 718              	.LFB14:
 719              		.loc 2 271 0
 720              		.cfi_startproc
 721              		@ args = 0, pretend = 0, frame = 8
 722              		@ frame_needed = 0, uses_anonymous_args = 0
 723 0000 00B5     		push	{lr}
 724              	.LCFI17:
 725              		.cfi_def_cfa_offset 4
 726              		.cfi_offset 14, -4
 727 0002 83B0     		sub	sp, sp, #12
 728              	.LCFI18:
 729              		.cfi_def_cfa_offset 16
 730 0004 0190     		str	r0, [sp, #4]
 731              		.loc 2 273 0
 732 0006 019B     		ldr	r3, [sp, #4]
 733 0008 002B     		cmp	r3, #0
 734 000a 05D1     		bne	.L34
 735              		.loc 2 273 0 is_stmt 0 discriminator 1
 736 000c 40F20000 		movw	r0, #:lower16:.LC7
 737 0010 C0F20000 		movt	r0, #:upper16:.LC7
 738 0014 FFF7FEFF 		bl	chDbgPanic
 739              	.L34:
 740              		.loc 2 274 0 is_stmt 1
 741 0018 019B     		ldr	r3, [sp, #4]
 742 001a 9B68     		ldr	r3, [r3, #8]
 743 001c 002B     		cmp	r3, #0
 744 001e 04DB     		blt	.L35
 745              		.loc 2 274 0 is_stmt 0 discriminator 2
 746 0020 019B     		ldr	r3, [sp, #4]
 747 0022 1A68     		ldr	r2, [r3, #0]
 748 0024 019B     		ldr	r3, [sp, #4]
 749 0026 9A42     		cmp	r2, r3
 750 0028 0ED0     		beq	.L36
 751              	.L35:
ARM GAS  /tmp/ccK3At5M.s 			page 15


 752              		.loc 2 274 0 discriminator 1
 753 002a 019B     		ldr	r3, [sp, #4]
 754 002c 9B68     		ldr	r3, [r3, #8]
 755 002e 002B     		cmp	r3, #0
 756 0030 04DA     		bge	.L37
 757              		.loc 2 274 0 discriminator 4
 758 0032 019B     		ldr	r3, [sp, #4]
 759 0034 1A68     		ldr	r2, [r3, #0]
 760 0036 019B     		ldr	r3, [sp, #4]
 761 0038 9A42     		cmp	r2, r3
 762 003a 05D1     		bne	.L36
 763              	.L37:
 764              		.loc 2 274 0 discriminator 3
 765 003c 40F20000 		movw	r0, #:lower16:.LC8
 766 0040 C0F20000 		movt	r0, #:upper16:.LC8
 767 0044 FFF7FEFF 		bl	chDbgPanic
 768              	.L36:
 769              	.LBB8:
 770              		.loc 2 279 0 is_stmt 1
 771 0048 4FF02003 		mov	r3, #32
 772              	@ 279 "../../os/kernel/src/chsem.c" 1
 773 004c 83F31188 		msr     BASEPRI, r3
 774              	@ 0 "" 2
 775              		.thumb
 776              	.LBE8:
 777 0050 FFF7FEFF 		bl	dbg_check_lock
 778              		.loc 2 280 0
 779 0054 019B     		ldr	r3, [sp, #4]
 780 0056 9B68     		ldr	r3, [r3, #8]
 781 0058 03F10102 		add	r2, r3, #1
 782 005c 019B     		ldr	r3, [sp, #4]
 783 005e 9A60     		str	r2, [r3, #8]
 784 0060 019B     		ldr	r3, [sp, #4]
 785 0062 9B68     		ldr	r3, [r3, #8]
 786 0064 002B     		cmp	r3, #0
 787 0066 09DC     		bgt	.L38
 788              		.loc 2 281 0
 789 0068 019B     		ldr	r3, [sp, #4]
 790 006a 1846     		mov	r0, r3
 791 006c FFF7FEFF 		bl	fifo_remove
 792 0070 0346     		mov	r3, r0
 793 0072 1846     		mov	r0, r3
 794 0074 4FF00001 		mov	r1, #0
 795 0078 FFF7FEFF 		bl	chSchWakeupS
 796              	.L38:
 797              		.loc 2 282 0
 798 007c FFF7FEFF 		bl	dbg_check_unlock
 799              	.LBB9:
 800 0080 4FF00003 		mov	r3, #0
 801              	@ 282 "../../os/kernel/src/chsem.c" 1
 802 0084 83F31188 		msr     BASEPRI, r3
 803              	@ 0 "" 2
 804              		.thumb
 805              	.LBE9:
 806              		.loc 2 283 0
 807 0088 03B0     		add	sp, sp, #12
 808 008a 00BD     		pop	{pc}
ARM GAS  /tmp/ccK3At5M.s 			page 16


 809              		.cfi_endproc
 810              	.LFE14:
 811              		.size	chSemSignal, .-chSemSignal
 812 008c AFF30080 		.section	.rodata
 813 00aa 0000     		.align	2
 814              	.LC9:
 815 00ac 22636853 		.ascii	"\"chSemSignalI\"()\000"
 815      656D5369 
 815      676E616C 
 815      49222829 
 815      00
 816 00bd 000000   		.align	2
 817              	.LC10:
 818 00c0 63685365 		.ascii	"chSemSignalI(), #1\000"
 818      6D536967 
 818      6E616C49 
 818      28292C20 
 818      233100
 819              		.section	.text.chSemSignalI,"ax",%progbits
 820              		.align	2
 821              		.p2align 4,,15
 822              		.global	chSemSignalI
 823              		.thumb
 824              		.thumb_func
 825              		.type	chSemSignalI, %function
 826              	chSemSignalI:
 827              	.LFB15:
 828              		.loc 2 296 0
 829              		.cfi_startproc
 830              		@ args = 0, pretend = 0, frame = 16
 831              		@ frame_needed = 0, uses_anonymous_args = 0
 832 0000 00B5     		push	{lr}
 833              	.LCFI19:
 834              		.cfi_def_cfa_offset 4
 835              		.cfi_offset 14, -4
 836 0002 85B0     		sub	sp, sp, #20
 837              	.LCFI20:
 838              		.cfi_def_cfa_offset 24
 839 0004 0190     		str	r0, [sp, #4]
 840              		.loc 2 298 0
 841 0006 FFF7FEFF 		bl	chDbgCheckClassI
 842              		.loc 2 299 0
 843 000a 019B     		ldr	r3, [sp, #4]
 844 000c 002B     		cmp	r3, #0
 845 000e 05D1     		bne	.L40
 846              		.loc 2 299 0 is_stmt 0 discriminator 1
 847 0010 40F20000 		movw	r0, #:lower16:.LC9
 848 0014 C0F20000 		movt	r0, #:upper16:.LC9
 849 0018 FFF7FEFF 		bl	chDbgPanic
 850              	.L40:
 851              		.loc 2 300 0 is_stmt 1
 852 001c 019B     		ldr	r3, [sp, #4]
 853 001e 9B68     		ldr	r3, [r3, #8]
 854 0020 002B     		cmp	r3, #0
 855 0022 04DB     		blt	.L41
 856              		.loc 2 300 0 is_stmt 0 discriminator 2
 857 0024 019B     		ldr	r3, [sp, #4]
ARM GAS  /tmp/ccK3At5M.s 			page 17


 858 0026 1A68     		ldr	r2, [r3, #0]
 859 0028 019B     		ldr	r3, [sp, #4]
 860 002a 9A42     		cmp	r2, r3
 861 002c 0ED0     		beq	.L42
 862              	.L41:
 863              		.loc 2 300 0 discriminator 1
 864 002e 019B     		ldr	r3, [sp, #4]
 865 0030 9B68     		ldr	r3, [r3, #8]
 866 0032 002B     		cmp	r3, #0
 867 0034 04DA     		bge	.L43
 868              		.loc 2 300 0 discriminator 4
 869 0036 019B     		ldr	r3, [sp, #4]
 870 0038 1A68     		ldr	r2, [r3, #0]
 871 003a 019B     		ldr	r3, [sp, #4]
 872 003c 9A42     		cmp	r2, r3
 873 003e 05D1     		bne	.L42
 874              	.L43:
 875              		.loc 2 300 0 discriminator 3
 876 0040 40F20000 		movw	r0, #:lower16:.LC10
 877 0044 C0F20000 		movt	r0, #:upper16:.LC10
 878 0048 FFF7FEFF 		bl	chDbgPanic
 879              	.L42:
 880              		.loc 2 305 0 is_stmt 1
 881 004c 019B     		ldr	r3, [sp, #4]
 882 004e 9B68     		ldr	r3, [r3, #8]
 883 0050 03F10102 		add	r2, r3, #1
 884 0054 019B     		ldr	r3, [sp, #4]
 885 0056 9A60     		str	r2, [r3, #8]
 886 0058 019B     		ldr	r3, [sp, #4]
 887 005a 9B68     		ldr	r3, [r3, #8]
 888 005c 002B     		cmp	r3, #0
 889 005e 0CDC     		bgt	.L39
 890              	.LBB10:
 891              		.loc 2 308 0
 892 0060 019B     		ldr	r3, [sp, #4]
 893 0062 1846     		mov	r0, r3
 894 0064 FFF7FEFF 		bl	fifo_remove
 895 0068 0346     		mov	r3, r0
 896 006a 0393     		str	r3, [sp, #12]
 897              		.loc 2 309 0
 898 006c 039B     		ldr	r3, [sp, #12]
 899 006e 4FF00002 		mov	r2, #0
 900 0072 9A62     		str	r2, [r3, #40]
 901              		.loc 2 310 0
 902 0074 0398     		ldr	r0, [sp, #12]
 903 0076 FFF7FEFF 		bl	chSchReadyI
 904              	.L39:
 905              	.LBE10:
 906              		.loc 2 312 0
 907 007a 05B0     		add	sp, sp, #20
 908 007c 00BD     		pop	{pc}
 909              		.cfi_endproc
 910              	.LFE15:
 911              		.size	chSemSignalI, .-chSemSignalI
 912 007e 00BF     		.section	.rodata
 913 00d3 00       		.align	2
 914              	.LC11:
ARM GAS  /tmp/ccK3At5M.s 			page 18


 915 00d4 22636853 		.ascii	"\"chSemAddCounterI\"()\000"
 915      656D4164 
 915      64436F75 
 915      6E746572 
 915      49222829 
 916 00e9 000000   		.align	2
 917              	.LC12:
 918 00ec 63685365 		.ascii	"chSemAddCounterI(), #1\000"
 918      6D416464 
 918      436F756E 
 918      74657249 
 918      28292C20 
 919              		.section	.text.chSemAddCounterI,"ax",%progbits
 920              		.align	2
 921              		.p2align 4,,15
 922              		.global	chSemAddCounterI
 923              		.thumb
 924              		.thumb_func
 925              		.type	chSemAddCounterI, %function
 926              	chSemAddCounterI:
 927              	.LFB16:
 928              		.loc 2 327 0
 929              		.cfi_startproc
 930              		@ args = 0, pretend = 0, frame = 8
 931              		@ frame_needed = 0, uses_anonymous_args = 0
 932 0000 00B5     		push	{lr}
 933              	.LCFI21:
 934              		.cfi_def_cfa_offset 4
 935              		.cfi_offset 14, -4
 936 0002 83B0     		sub	sp, sp, #12
 937              	.LCFI22:
 938              		.cfi_def_cfa_offset 16
 939 0004 0190     		str	r0, [sp, #4]
 940 0006 0091     		str	r1, [sp, #0]
 941              		.loc 2 329 0
 942 0008 FFF7FEFF 		bl	chDbgCheckClassI
 943              		.loc 2 330 0
 944 000c 019B     		ldr	r3, [sp, #4]
 945 000e 002B     		cmp	r3, #0
 946 0010 02D0     		beq	.L46
 947              		.loc 2 330 0 is_stmt 0 discriminator 2
 948 0012 009B     		ldr	r3, [sp, #0]
 949 0014 002B     		cmp	r3, #0
 950 0016 05DC     		bgt	.L47
 951              	.L46:
 952              		.loc 2 330 0 discriminator 1
 953 0018 40F20000 		movw	r0, #:lower16:.LC11
 954 001c C0F20000 		movt	r0, #:upper16:.LC11
 955 0020 FFF7FEFF 		bl	chDbgPanic
 956              	.L47:
 957              		.loc 2 331 0 is_stmt 1
 958 0024 019B     		ldr	r3, [sp, #4]
 959 0026 9B68     		ldr	r3, [r3, #8]
 960 0028 002B     		cmp	r3, #0
 961 002a 04DB     		blt	.L48
 962              		.loc 2 331 0 is_stmt 0 discriminator 2
 963 002c 019B     		ldr	r3, [sp, #4]
ARM GAS  /tmp/ccK3At5M.s 			page 19


 964 002e 1A68     		ldr	r2, [r3, #0]
 965 0030 019B     		ldr	r3, [sp, #4]
 966 0032 9A42     		cmp	r2, r3
 967 0034 29D0     		beq	.L51
 968              	.L48:
 969              		.loc 2 331 0 discriminator 1
 970 0036 019B     		ldr	r3, [sp, #4]
 971 0038 9B68     		ldr	r3, [r3, #8]
 972 003a 002B     		cmp	r3, #0
 973 003c 04DA     		bge	.L50
 974              		.loc 2 331 0 discriminator 4
 975 003e 019B     		ldr	r3, [sp, #4]
 976 0040 1A68     		ldr	r2, [r3, #0]
 977 0042 019B     		ldr	r3, [sp, #4]
 978 0044 9A42     		cmp	r2, r3
 979 0046 20D1     		bne	.L51
 980              	.L50:
 981              		.loc 2 331 0 discriminator 3
 982 0048 40F20000 		movw	r0, #:lower16:.LC12
 983 004c C0F20000 		movt	r0, #:upper16:.LC12
 984 0050 FFF7FEFF 		bl	chDbgPanic
 985              		.loc 2 336 0 is_stmt 1 discriminator 3
 986 0054 19E0     		b	.L51
 987              	.L53:
 988              		.loc 2 337 0
 989 0056 019B     		ldr	r3, [sp, #4]
 990 0058 9B68     		ldr	r3, [r3, #8]
 991 005a 03F10102 		add	r2, r3, #1
 992 005e 019B     		ldr	r3, [sp, #4]
 993 0060 9A60     		str	r2, [r3, #8]
 994 0062 019B     		ldr	r3, [sp, #4]
 995 0064 9B68     		ldr	r3, [r3, #8]
 996 0066 002B     		cmp	r3, #0
 997 0068 0BDC     		bgt	.L52
 998              		.loc 2 338 0
 999 006a 019B     		ldr	r3, [sp, #4]
 1000 006c 1846     		mov	r0, r3
 1001 006e FFF7FEFF 		bl	fifo_remove
 1002 0072 0346     		mov	r3, r0
 1003 0074 1846     		mov	r0, r3
 1004 0076 FFF7FEFF 		bl	chSchReadyI
 1005 007a 0346     		mov	r3, r0
 1006 007c 4FF00002 		mov	r2, #0
 1007 0080 9A62     		str	r2, [r3, #40]
 1008              	.L52:
 1009              		.loc 2 339 0
 1010 0082 009B     		ldr	r3, [sp, #0]
 1011 0084 03F1FF33 		add	r3, r3, #-1
 1012 0088 0093     		str	r3, [sp, #0]
 1013              	.L51:
 1014              		.loc 2 336 0 discriminator 1
 1015 008a 009B     		ldr	r3, [sp, #0]
 1016 008c 002B     		cmp	r3, #0
 1017 008e E2DC     		bgt	.L53
 1018              		.loc 2 341 0
 1019 0090 03B0     		add	sp, sp, #12
 1020 0092 00BD     		pop	{pc}
ARM GAS  /tmp/ccK3At5M.s 			page 20


 1021              		.cfi_endproc
 1022              	.LFE16:
 1023              		.size	chSemAddCounterI, .-chSemAddCounterI
 1024 0094 AFF30080 		.section	.rodata
 1024      AFF30080 
 1024      AFF30080 
 1025 0103 00       		.align	2
 1026              	.LC13:
 1027 0104 22636853 		.ascii	"\"chSemSignalWait\"()\000"
 1027      656D5369 
 1027      676E616C 
 1027      57616974 
 1027      22282900 
 1028              		.align	2
 1029              	.LC14:
 1030 0118 63685365 		.ascii	"chSemSignalWait(), #1\000"
 1030      6D536967 
 1030      6E616C57 
 1030      61697428 
 1030      292C2023 
 1031 012e 0000     		.align	2
 1032              	.LC15:
 1033 0130 63685365 		.ascii	"chSemSignalWait(), #2\000"
 1033      6D536967 
 1033      6E616C57 
 1033      61697428 
 1033      292C2023 
 1034 0146 0000     		.section	.text.chSemSignalWait,"ax",%progbits
 1035              		.align	2
 1036              		.p2align 4,,15
 1037              		.global	chSemSignalWait
 1038              		.thumb
 1039              		.thumb_func
 1040              		.type	chSemSignalWait, %function
 1041              	chSemSignalWait:
 1042              	.LFB17:
 1043              		.loc 2 359 0
 1044              		.cfi_startproc
 1045              		@ args = 0, pretend = 0, frame = 16
 1046              		@ frame_needed = 0, uses_anonymous_args = 0
 1047 0000 00B5     		push	{lr}
 1048              	.LCFI23:
 1049              		.cfi_def_cfa_offset 4
 1050              		.cfi_offset 14, -4
 1051 0002 85B0     		sub	sp, sp, #20
 1052              	.LCFI24:
 1053              		.cfi_def_cfa_offset 24
 1054 0004 0190     		str	r0, [sp, #4]
 1055 0006 0091     		str	r1, [sp, #0]
 1056              		.loc 2 362 0
 1057 0008 019B     		ldr	r3, [sp, #4]
 1058 000a 002B     		cmp	r3, #0
 1059 000c 02D0     		beq	.L55
 1060              		.loc 2 362 0 is_stmt 0 discriminator 2
 1061 000e 009B     		ldr	r3, [sp, #0]
 1062 0010 002B     		cmp	r3, #0
 1063 0012 05D1     		bne	.L56
ARM GAS  /tmp/ccK3At5M.s 			page 21


 1064              	.L55:
 1065              		.loc 2 362 0 discriminator 1
 1066 0014 40F20000 		movw	r0, #:lower16:.LC13
 1067 0018 C0F20000 		movt	r0, #:upper16:.LC13
 1068 001c FFF7FEFF 		bl	chDbgPanic
 1069              	.L56:
 1070              		.loc 2 363 0 is_stmt 1
 1071 0020 019B     		ldr	r3, [sp, #4]
 1072 0022 9B68     		ldr	r3, [r3, #8]
 1073 0024 002B     		cmp	r3, #0
 1074 0026 04DB     		blt	.L57
 1075              		.loc 2 363 0 is_stmt 0 discriminator 2
 1076 0028 019B     		ldr	r3, [sp, #4]
 1077 002a 1A68     		ldr	r2, [r3, #0]
 1078 002c 019B     		ldr	r3, [sp, #4]
 1079 002e 9A42     		cmp	r2, r3
 1080 0030 0ED0     		beq	.L58
 1081              	.L57:
 1082              		.loc 2 363 0 discriminator 1
 1083 0032 019B     		ldr	r3, [sp, #4]
 1084 0034 9B68     		ldr	r3, [r3, #8]
 1085 0036 002B     		cmp	r3, #0
 1086 0038 04DA     		bge	.L59
 1087              		.loc 2 363 0 discriminator 4
 1088 003a 019B     		ldr	r3, [sp, #4]
 1089 003c 1A68     		ldr	r2, [r3, #0]
 1090 003e 019B     		ldr	r3, [sp, #4]
 1091 0040 9A42     		cmp	r2, r3
 1092 0042 05D1     		bne	.L58
 1093              	.L59:
 1094              		.loc 2 363 0 discriminator 3
 1095 0044 40F20000 		movw	r0, #:lower16:.LC14
 1096 0048 C0F20000 		movt	r0, #:upper16:.LC14
 1097 004c FFF7FEFF 		bl	chDbgPanic
 1098              	.L58:
 1099              		.loc 2 367 0 is_stmt 1
 1100 0050 009B     		ldr	r3, [sp, #0]
 1101 0052 9B68     		ldr	r3, [r3, #8]
 1102 0054 002B     		cmp	r3, #0
 1103 0056 04DB     		blt	.L60
 1104              		.loc 2 367 0 is_stmt 0 discriminator 2
 1105 0058 009B     		ldr	r3, [sp, #0]
 1106 005a 1A68     		ldr	r2, [r3, #0]
 1107 005c 009B     		ldr	r3, [sp, #0]
 1108 005e 9A42     		cmp	r2, r3
 1109 0060 0ED0     		beq	.L61
 1110              	.L60:
 1111              		.loc 2 367 0 discriminator 1
 1112 0062 009B     		ldr	r3, [sp, #0]
 1113 0064 9B68     		ldr	r3, [r3, #8]
 1114 0066 002B     		cmp	r3, #0
 1115 0068 04DA     		bge	.L62
 1116              		.loc 2 367 0 discriminator 4
 1117 006a 009B     		ldr	r3, [sp, #0]
 1118 006c 1A68     		ldr	r2, [r3, #0]
 1119 006e 009B     		ldr	r3, [sp, #0]
 1120 0070 9A42     		cmp	r2, r3
ARM GAS  /tmp/ccK3At5M.s 			page 22


 1121 0072 05D1     		bne	.L61
 1122              	.L62:
 1123              		.loc 2 367 0 discriminator 3
 1124 0074 40F20000 		movw	r0, #:lower16:.LC15
 1125 0078 C0F20000 		movt	r0, #:upper16:.LC15
 1126 007c FFF7FEFF 		bl	chDbgPanic
 1127              	.L61:
 1128              	.LBB11:
 1129              		.loc 2 372 0 is_stmt 1
 1130 0080 4FF02003 		mov	r3, #32
 1131              	@ 372 "../../os/kernel/src/chsem.c" 1
 1132 0084 83F31188 		msr     BASEPRI, r3
 1133              	@ 0 "" 2
 1134              		.thumb
 1135              	.LBE11:
 1136 0088 FFF7FEFF 		bl	dbg_check_lock
 1137              		.loc 2 373 0
 1138 008c 019B     		ldr	r3, [sp, #4]
 1139 008e 9B68     		ldr	r3, [r3, #8]
 1140 0090 03F10102 		add	r2, r3, #1
 1141 0094 019B     		ldr	r3, [sp, #4]
 1142 0096 9A60     		str	r2, [r3, #8]
 1143 0098 019B     		ldr	r3, [sp, #4]
 1144 009a 9B68     		ldr	r3, [r3, #8]
 1145 009c 002B     		cmp	r3, #0
 1146 009e 0BDC     		bgt	.L63
 1147              		.loc 2 374 0
 1148 00a0 019B     		ldr	r3, [sp, #4]
 1149 00a2 1846     		mov	r0, r3
 1150 00a4 FFF7FEFF 		bl	fifo_remove
 1151 00a8 0346     		mov	r3, r0
 1152 00aa 1846     		mov	r0, r3
 1153 00ac FFF7FEFF 		bl	chSchReadyI
 1154 00b0 0346     		mov	r3, r0
 1155 00b2 4FF00002 		mov	r2, #0
 1156 00b6 9A62     		str	r2, [r3, #40]
 1157              	.L63:
 1158              		.loc 2 375 0
 1159 00b8 009B     		ldr	r3, [sp, #0]
 1160 00ba 9B68     		ldr	r3, [r3, #8]
 1161 00bc 03F1FF32 		add	r2, r3, #-1
 1162 00c0 009B     		ldr	r3, [sp, #0]
 1163 00c2 9A60     		str	r2, [r3, #8]
 1164 00c4 009B     		ldr	r3, [sp, #0]
 1165 00c6 9B68     		ldr	r3, [r3, #8]
 1166 00c8 002B     		cmp	r3, #0
 1167 00ca 15DA     		bge	.L64
 1168              	.LBB12:
 1169              		.loc 2 376 0
 1170 00cc 40F20003 		movw	r3, #:lower16:rlist
 1171 00d0 C0F20003 		movt	r3, #:upper16:rlist
 1172 00d4 9B69     		ldr	r3, [r3, #24]
 1173 00d6 0293     		str	r3, [sp, #8]
 1174              		.loc 2 377 0
 1175 00d8 009B     		ldr	r3, [sp, #0]
 1176 00da 0298     		ldr	r0, [sp, #8]
 1177 00dc 1946     		mov	r1, r3
ARM GAS  /tmp/ccK3At5M.s 			page 23


 1178 00de FFF7FEFF 		bl	queue_insert
 1179              		.loc 2 378 0
 1180 00e2 029B     		ldr	r3, [sp, #8]
 1181 00e4 009A     		ldr	r2, [sp, #0]
 1182 00e6 9A62     		str	r2, [r3, #40]
 1183              		.loc 2 379 0
 1184 00e8 4FF00300 		mov	r0, #3
 1185 00ec FFF7FEFF 		bl	chSchGoSleepS
 1186              		.loc 2 380 0
 1187 00f0 029B     		ldr	r3, [sp, #8]
 1188 00f2 9B6A     		ldr	r3, [r3, #40]
 1189 00f4 0393     		str	r3, [sp, #12]
 1190 00f6 04E0     		b	.L65
 1191              	.L64:
 1192              	.LBE12:
 1193              		.loc 2 383 0
 1194 00f8 FFF7FEFF 		bl	chSchRescheduleS
 1195              		.loc 2 384 0
 1196 00fc 4FF00003 		mov	r3, #0
 1197 0100 0393     		str	r3, [sp, #12]
 1198              	.L65:
 1199              		.loc 2 386 0
 1200 0102 FFF7FEFF 		bl	dbg_check_unlock
 1201              	.LBB13:
 1202 0106 4FF00003 		mov	r3, #0
 1203              	@ 386 "../../os/kernel/src/chsem.c" 1
 1204 010a 83F31188 		msr     BASEPRI, r3
 1205              	@ 0 "" 2
 1206              		.thumb
 1207              	.LBE13:
 1208              		.loc 2 387 0
 1209 010e 039B     		ldr	r3, [sp, #12]
 1210              		.loc 2 388 0
 1211 0110 1846     		mov	r0, r3
 1212 0112 05B0     		add	sp, sp, #20
 1213 0114 00BD     		pop	{pc}
 1214              		.cfi_endproc
 1215              	.LFE17:
 1216              		.size	chSemSignalWait, .-chSemSignalWait
 1217 0116 00BFAFF3 		.text
 1217      0080AFF3 
 1217      0080
 1218              	.Letext0:
 1219              		.file 3 "/home/texzk/ChibiStudio/tools/GNU Tools ARM Embedded/4.6 2012q2/bin/../lib/gcc/arm-none-e
 1220              		.file 4 "../../os/ports/GCC/ARMCMx/chtypes.h"
 1221              		.file 5 "../../os/kernel/include/chlists.h"
 1222              		.file 6 "../../os/kernel/include/chthreads.h"
 1223              		.file 7 "../../os/ports/GCC/ARMCMx/chcore_v7m.h"
 1224              		.file 8 "../../os/kernel/include/chschd.h"
 1225              		.file 9 "../../os/kernel/include/chsem.h"
 1226              		.file 10 "../../os/kernel/include/chmtx.h"