ARM GAS  /tmp/cc5SSmX1.s 			page 1


   1              		.syntax unified
   2              		.cpu cortex-m3
   3              		.fpu softvfp
   4              		.eabi_attribute 20, 1
   5              		.eabi_attribute 21, 1
   6              		.eabi_attribute 23, 3
   7              		.eabi_attribute 24, 1
   8              		.eabi_attribute 25, 1
   9              		.eabi_attribute 26, 1
  10              		.eabi_attribute 30, 6
  11              		.eabi_attribute 34, 1
  12              		.eabi_attribute 18, 4
  13              		.thumb
  14              		.file	"hal_lld.c"
  15              		.text
  16              	.Ltext0:
  17              		.cfi_sections	.debug_frame
  18              		.section	.text.hal_lld_backup_domain_init,"ax",%progbits
  19              		.align	2
  20              		.p2align 4,,15
  21              		.thumb
  22              		.thumb_func
  23              		.type	hal_lld_backup_domain_init, %function
  24              	hal_lld_backup_domain_init:
  25              	.LFB63:
  26              		.file 1 "../../os/hal/platforms/STM32F2xx/hal_lld.c"
  27              		.loc 1 47 0
  28              		.cfi_startproc
  29              		@ args = 0, pretend = 0, frame = 0
  30              		@ frame_needed = 0, uses_anonymous_args = 0
  31              		@ link register save eliminated.
  32              		.loc 1 50 0
  33 0000 4FF4E043 		mov	r3, #28672
  34 0004 C4F20003 		movt	r3, 16384
  35 0008 4FF4E042 		mov	r2, #28672
  36 000c C4F20002 		movt	r2, 16384
  37 0010 1268     		ldr	r2, [r2, #0]
  38 0012 42F48072 		orr	r2, r2, #256
  39 0016 1A60     		str	r2, [r3, #0]
  40              		.loc 1 53 0
  41 0018 4FF46053 		mov	r3, #14336
  42 001c C4F20203 		movt	r3, 16386
  43 0020 1B6F     		ldr	r3, [r3, #112]
  44 0022 03F44073 		and	r3, r3, #768
  45 0026 B3F5007F 		cmp	r3, #512
  46 002a 0DD0     		beq	.L2
  47              		.loc 1 55 0
  48 002c 4FF46053 		mov	r3, #14336
  49 0030 C4F20203 		movt	r3, 16386
  50 0034 4FF48032 		mov	r2, #65536
  51 0038 1A67     		str	r2, [r3, #112]
  52              		.loc 1 56 0
  53 003a 4FF46053 		mov	r3, #14336
  54 003e C4F20203 		movt	r3, 16386
  55 0042 4FF00002 		mov	r2, #0
  56 0046 1A67     		str	r2, [r3, #112]
  57              	.L2:
ARM GAS  /tmp/cc5SSmX1.s 			page 2


  58              		.loc 1 69 0
  59 0048 4FF46053 		mov	r3, #14336
  60 004c C4F20203 		movt	r3, 16386
  61 0050 1B6F     		ldr	r3, [r3, #112]
  62 0052 03F40043 		and	r3, r3, #32768
  63 0056 002B     		cmp	r3, #0
  64 0058 17D1     		bne	.L1
  65              		.loc 1 71 0
  66 005a 4FF46053 		mov	r3, #14336
  67 005e C4F20203 		movt	r3, 16386
  68 0062 4FF46052 		mov	r2, #14336
  69 0066 C4F20202 		movt	r2, 16386
  70 006a 126F     		ldr	r2, [r2, #112]
  71 006c 42F40072 		orr	r2, r2, #512
  72 0070 1A67     		str	r2, [r3, #112]
  73              		.loc 1 74 0
  74 0072 4FF46053 		mov	r3, #14336
  75 0076 C4F20203 		movt	r3, 16386
  76 007a 4FF46052 		mov	r2, #14336
  77 007e C4F20202 		movt	r2, 16386
  78 0082 126F     		ldr	r2, [r2, #112]
  79 0084 42F40042 		orr	r2, r2, #32768
  80 0088 1A67     		str	r2, [r3, #112]
  81              	.L1:
  82              		.loc 1 77 0
  83 008a 7047     		bx	lr
  84              		.cfi_endproc
  85              	.LFE63:
  86              		.size	hal_lld_backup_domain_init, .-hal_lld_backup_domain_init
  87              		.section	.text.hal_lld_init,"ax",%progbits
  88              		.align	2
  89              		.p2align 4,,15
  90              		.global	hal_lld_init
  91              		.thumb
  92              		.thumb_func
  93              		.type	hal_lld_init, %function
  94              	hal_lld_init:
  95              	.LFB64:
  96              		.loc 1 92 0
  97              		.cfi_startproc
  98              		@ args = 0, pretend = 0, frame = 0
  99              		@ frame_needed = 0, uses_anonymous_args = 0
 100 0000 08B5     		push	{r3, lr}
 101              	.LCFI0:
 102              		.cfi_def_cfa_offset 8
 103              		.cfi_offset 14, -4
 104              		.cfi_offset 3, -8
 105              		.loc 1 96 0
 106 0002 4FF46053 		mov	r3, #14336
 107 0006 C4F20203 		movt	r3, 16386
 108 000a 4FF46052 		mov	r2, #14336
 109 000e C4F20202 		movt	r2, 16386
 110 0012 1269     		ldr	r2, [r2, #16]
 111 0014 42F00102 		orr	r2, r2, #1
 112 0018 1A61     		str	r2, [r3, #16]
 113 001a 4FF46053 		mov	r3, #14336
 114 001e C4F20203 		movt	r3, 16386
ARM GAS  /tmp/cc5SSmX1.s 			page 3


 115 0022 4FF00002 		mov	r2, #0
 116 0026 1A61     		str	r2, [r3, #16]
 117              		.loc 1 97 0
 118 0028 4FF46053 		mov	r3, #14336
 119 002c C4F20203 		movt	r3, 16386
 120 0030 4FF46052 		mov	r2, #14336
 121 0034 C4F20202 		movt	r2, 16386
 122 0038 5269     		ldr	r2, [r2, #20]
 123 003a 42F00102 		orr	r2, r2, #1
 124 003e 5A61     		str	r2, [r3, #20]
 125 0040 4FF46053 		mov	r3, #14336
 126 0044 C4F20203 		movt	r3, 16386
 127 0048 4FF00002 		mov	r2, #0
 128 004c 5A61     		str	r2, [r3, #20]
 129              		.loc 1 98 0
 130 004e 4FF46053 		mov	r3, #14336
 131 0052 C4F20203 		movt	r3, 16386
 132 0056 4FF46052 		mov	r2, #14336
 133 005a C4F20202 		movt	r2, 16386
 134 005e 9269     		ldr	r2, [r2, #24]
 135 0060 42F00102 		orr	r2, r2, #1
 136 0064 9A61     		str	r2, [r3, #24]
 137 0066 4FF46053 		mov	r3, #14336
 138 006a C4F20203 		movt	r3, 16386
 139 006e 4FF00002 		mov	r2, #0
 140 0072 9A61     		str	r2, [r3, #24]
 141              		.loc 1 99 0
 142 0074 4FF46053 		mov	r3, #14336
 143 0078 C4F20203 		movt	r3, 16386
 144 007c 4FF46052 		mov	r2, #14336
 145 0080 C4F20202 		movt	r2, 16386
 146 0084 126A     		ldr	r2, [r2, #32]
 147 0086 1A62     		str	r2, [r3, #32]
 148 0088 4FF46053 		mov	r3, #14336
 149 008c C4F20203 		movt	r3, 16386
 150 0090 4FF00002 		mov	r2, #0
 151 0094 1A62     		str	r2, [r3, #32]
 152              		.loc 1 100 0
 153 0096 4FF46053 		mov	r3, #14336
 154 009a C4F20203 		movt	r3, 16386
 155 009e 4FF46052 		mov	r2, #14336
 156 00a2 C4F20202 		movt	r2, 16386
 157 00a6 526A     		ldr	r2, [r2, #36]
 158 00a8 42F00102 		orr	r2, r2, #1
 159 00ac 5A62     		str	r2, [r3, #36]
 160 00ae 4FF46053 		mov	r3, #14336
 161 00b2 C4F20203 		movt	r3, 16386
 162 00b6 4FF00002 		mov	r2, #0
 163 00ba 5A62     		str	r2, [r3, #36]
 164              		.loc 1 103 0
 165 00bc 4EF21003 		movw	r3, #57360
 166 00c0 CEF20003 		movt	r3, 57344
 167 00c4 4DF2BF42 		movw	r2, #54463
 168 00c8 C0F20102 		movt	r2, 1
 169 00cc 5A60     		str	r2, [r3, #4]
 170              		.loc 1 104 0
 171 00ce 4EF21003 		movw	r3, #57360
ARM GAS  /tmp/cc5SSmX1.s 			page 4


 172 00d2 CEF20003 		movt	r3, 57344
 173 00d6 4FF00002 		mov	r2, #0
 174 00da 9A60     		str	r2, [r3, #8]
 175              		.loc 1 105 0
 176 00dc 4EF21003 		movw	r3, #57360
 177 00e0 CEF20003 		movt	r3, 57344
 178 00e4 4FF00702 		mov	r2, #7
 179 00e8 1A60     		str	r2, [r3, #0]
 180              		.loc 1 110 0
 181 00ea 4EF6F053 		movw	r3, #60912
 182 00ee CEF20003 		movt	r3, 57344
 183 00f2 4EF6F052 		movw	r2, #60912
 184 00f6 CEF20002 		movt	r2, 57344
 185 00fa D268     		ldr	r2, [r2, #12]
 186 00fc 42F08072 		orr	r2, r2, #16777216
 187 0100 DA60     		str	r2, [r3, #12]
 188              		.loc 1 111 0
 189 0102 4FF48053 		mov	r3, #4096
 190 0106 CEF20003 		movt	r3, 57344
 191 010a 4FF48052 		mov	r2, #4096
 192 010e CEF20002 		movt	r2, 57344
 193 0112 1268     		ldr	r2, [r2, #0]
 194 0114 42F00102 		orr	r2, r2, #1
 195 0118 1A60     		str	r2, [r3, #0]
 196              		.loc 1 114 0
 197 011a 4FF46053 		mov	r3, #14336
 198 011e C4F20203 		movt	r3, 16386
 199 0122 4FF46052 		mov	r2, #14336
 200 0126 C4F20202 		movt	r2, 16386
 201 012a 126C     		ldr	r2, [r2, #64]
 202 012c 42F08052 		orr	r2, r2, #268435456
 203 0130 1A64     		str	r2, [r3, #64]
 204              		.loc 1 117 0
 205 0132 FFF7FEFF 		bl	hal_lld_backup_domain_init
 206              		.loc 1 127 0
 207 0136 08BD     		pop	{r3, pc}
 208              		.cfi_endproc
 209              	.LFE64:
 210              		.size	hal_lld_init, .-hal_lld_init
 211 0138 AFF30080 		.section	.text.stm32_clock_init,"ax",%progbits
 211      AFF30080 
 212              		.align	2
 213              		.p2align 4,,15
 214              		.global	stm32_clock_init
 215              		.thumb
 216              		.thumb_func
 217              		.type	stm32_clock_init, %function
 218              	stm32_clock_init:
 219              	.LFB65:
 220              		.loc 1 136 0
 221              		.cfi_startproc
 222              		@ args = 0, pretend = 0, frame = 0
 223              		@ frame_needed = 0, uses_anonymous_args = 0
 224              		@ link register save eliminated.
 225              		.loc 1 140 0
 226 0000 4FF46053 		mov	r3, #14336
 227 0004 C4F20203 		movt	r3, 16386
ARM GAS  /tmp/cc5SSmX1.s 			page 5


 228 0008 4FF08052 		mov	r2, #268435456
 229 000c 1A64     		str	r2, [r3, #64]
 230              		.loc 1 143 0
 231 000e 4FF4E043 		mov	r3, #28672
 232 0012 C4F20003 		movt	r3, 16384
 233 0016 4FF00002 		mov	r2, #0
 234 001a 1A60     		str	r2, [r3, #0]
 235              		.loc 1 147 0
 236 001c 4FF46053 		mov	r3, #14336
 237 0020 C4F20203 		movt	r3, 16386
 238 0024 4FF46052 		mov	r2, #14336
 239 0028 C4F20202 		movt	r2, 16386
 240 002c 1268     		ldr	r2, [r2, #0]
 241 002e 42F00102 		orr	r2, r2, #1
 242 0032 1A60     		str	r2, [r3, #0]
 243              		.loc 1 148 0
 244 0034 00BF     		nop
 245              	.L6:
 246              		.loc 1 148 0 is_stmt 0 discriminator 1
 247 0036 4FF46053 		mov	r3, #14336
 248 003a C4F20203 		movt	r3, 16386
 249 003e 1B68     		ldr	r3, [r3, #0]
 250 0040 03F00203 		and	r3, r3, #2
 251 0044 002B     		cmp	r3, #0
 252 0046 F6D0     		beq	.L6
 253              		.loc 1 157 0 is_stmt 1
 254 0048 4FF46053 		mov	r3, #14336
 255 004c C4F20203 		movt	r3, 16386
 256 0050 4FF46052 		mov	r2, #14336
 257 0054 C4F20202 		movt	r2, 16386
 258 0058 1268     		ldr	r2, [r2, #0]
 259 005a 42F48032 		orr	r2, r2, #65536
 260 005e 1A60     		str	r2, [r3, #0]
 261              		.loc 1 158 0
 262 0060 00BF     		nop
 263              	.L7:
 264              		.loc 1 158 0 is_stmt 0 discriminator 1
 265 0062 4FF46053 		mov	r3, #14336
 266 0066 C4F20203 		movt	r3, 16386
 267 006a 1B68     		ldr	r3, [r3, #0]
 268 006c 03F40033 		and	r3, r3, #131072
 269 0070 002B     		cmp	r3, #0
 270 0072 F6D0     		beq	.L7
 271              		.loc 1 164 0 is_stmt 1
 272 0074 4FF46053 		mov	r3, #14336
 273 0078 C4F20203 		movt	r3, 16386
 274 007c 4FF46052 		mov	r2, #14336
 275 0080 C4F20202 		movt	r2, 16386
 276 0084 526F     		ldr	r2, [r2, #116]
 277 0086 42F00102 		orr	r2, r2, #1
 278 008a 5A67     		str	r2, [r3, #116]
 279              		.loc 1 165 0
 280 008c 00BF     		nop
 281              	.L8:
 282              		.loc 1 165 0 is_stmt 0 discriminator 1
 283 008e 4FF46053 		mov	r3, #14336
 284 0092 C4F20203 		movt	r3, 16386
ARM GAS  /tmp/cc5SSmX1.s 			page 6


 285 0096 5B6F     		ldr	r3, [r3, #116]
 286 0098 03F00203 		and	r3, r3, #2
 287 009c 002B     		cmp	r3, #0
 288 009e F6D0     		beq	.L8
 289              		.loc 1 182 0 is_stmt 1
 290 00a0 4FF46053 		mov	r3, #14336
 291 00a4 C4F20203 		movt	r3, 16386
 292 00a8 43F61942 		movw	r2, #15385
 293 00ac C0F24052 		movt	r2, 1344
 294 00b0 5A60     		str	r2, [r3, #4]
 295              		.loc 1 183 0
 296 00b2 4FF46053 		mov	r3, #14336
 297 00b6 C4F20203 		movt	r3, 16386
 298 00ba 4FF46052 		mov	r2, #14336
 299 00be C4F20202 		movt	r2, 16386
 300 00c2 1268     		ldr	r2, [r2, #0]
 301 00c4 42F08072 		orr	r2, r2, #16777216
 302 00c8 1A60     		str	r2, [r3, #0]
 303              		.loc 1 184 0
 304 00ca 00BF     		nop
 305              	.L9:
 306              		.loc 1 184 0 is_stmt 0 discriminator 1
 307 00cc 4FF46053 		mov	r3, #14336
 308 00d0 C4F20203 		movt	r3, 16386
 309 00d4 1B68     		ldr	r3, [r3, #0]
 310 00d6 03F00073 		and	r3, r3, #33554432
 311 00da 002B     		cmp	r3, #0
 312 00dc F6D0     		beq	.L9
 313              		.loc 1 197 0 is_stmt 1
 314 00de 4FF46052 		mov	r2, #14336
 315 00e2 C4F20202 		movt	r2, 16386
 316 00e6 4FF46053 		mov	r3, #14336
 317 00ea C4F20203 		movt	r3, 16386
 318 00ee 9B68     		ldr	r3, [r3, #8]
 319 00f0 1946     		mov	r1, r3
 320 00f2 4FF41443 		mov	r3, #37888
 321 00f6 C3F20803 		movt	r3, 12296
 322 00fa 0B43     		orrs	r3, r3, r1
 323 00fc 9360     		str	r3, [r2, #8]
 324              		.loc 1 201 0
 325 00fe 4FF47053 		mov	r3, #15360
 326 0102 C4F20203 		movt	r3, 16386
 327 0106 40F20372 		movw	r2, #1795
 328 010a 1A60     		str	r2, [r3, #0]
 329              		.loc 1 206 0
 330 010c 4FF46053 		mov	r3, #14336
 331 0110 C4F20203 		movt	r3, 16386
 332 0114 4FF46052 		mov	r2, #14336
 333 0118 C4F20202 		movt	r2, 16386
 334 011c 9268     		ldr	r2, [r2, #8]
 335 011e 42F00202 		orr	r2, r2, #2
 336 0122 9A60     		str	r2, [r3, #8]
 337              		.loc 1 207 0
 338 0124 00BF     		nop
 339              	.L10:
 340              		.loc 1 207 0 is_stmt 0 discriminator 1
 341 0126 4FF46053 		mov	r3, #14336
ARM GAS  /tmp/cc5SSmX1.s 			page 7


 342 012a C4F20203 		movt	r3, 16386
 343 012e 9B68     		ldr	r3, [r3, #8]
 344 0130 03F00C03 		and	r3, r3, #12
 345 0134 082B     		cmp	r3, #8
 346 0136 F6D1     		bne	.L10
 347              		.loc 1 214 0 is_stmt 1
 348 0138 4FF46053 		mov	r3, #14336
 349 013c C4F20203 		movt	r3, 16386
 350 0140 4FF46052 		mov	r2, #14336
 351 0144 C4F20202 		movt	r2, 16386
 352 0148 526C     		ldr	r2, [r2, #68]
 353 014a 42F48042 		orr	r2, r2, #16384
 354 014e 5A64     		str	r2, [r3, #68]
 355 0150 4FF46053 		mov	r3, #14336
 356 0154 C4F20203 		movt	r3, 16386
 357 0158 4FF46052 		mov	r2, #14336
 358 015c C4F20202 		movt	r2, 16386
 359 0160 526E     		ldr	r2, [r2, #100]
 360 0162 42F48042 		orr	r2, r2, #16384
 361 0166 5A66     		str	r2, [r3, #100]
 362              		.loc 1 215 0
 363 0168 7047     		bx	lr
 364              		.cfi_endproc
 365              	.LFE65:
 366              		.size	stm32_clock_init, .-stm32_clock_init
 367 016a 00BFAFF3 		.text
 367      0080
 368              	.Letext0:
 369              		.file 2 "/home/texzk/ChibiStudio/tools/GNU Tools ARM Embedded/4.6 2012q2/bin/../lib/gcc/arm-none-e
 370              		.file 3 "../../os/ports/common/ARMCMx/nvic.h"
 371              		.file 4 "../../os/ports/common/ARMCMx/CMSIS/include/core_cm3.h"
 372              		.file 5 "../../os/hal/platforms/STM32F2xx/stm32f2xx.h"