ARM GAS  /tmp/ccDJ4VZf.s 			page 1


   1              		.syntax unified
   2              		.cpu cortex-m3
   3              		.fpu softvfp
   4              		.eabi_attribute 20, 1
   5              		.eabi_attribute 21, 1
   6              		.eabi_attribute 23, 3
   7              		.eabi_attribute 24, 1
   8              		.eabi_attribute 25, 1
   9              		.eabi_attribute 26, 1
  10              		.eabi_attribute 30, 6
  11              		.eabi_attribute 34, 1
  12              		.eabi_attribute 18, 4
  13              		.thumb
  14              		.file	"testpools.c"
  15              		.text
  16              	.Ltext0:
  17              		.cfi_sections	.debug_frame
  18              		.section	.data.mp1,"aw",%progbits
  19              		.align	2
  20              		.type	mp1, %object
  21              		.size	mp1, 12
  22              	mp1:
  23 0000 00000000 		.word	0
  24 0004 30010000 		.word	304
  25 0008 00000000 		.word	0
  26              		.section	.text.null_provider,"ax",%progbits
  27              		.align	2
  28              		.p2align 4,,15
  29              		.thumb
  30              		.thumb_func
  31              		.type	null_provider, %function
  32              	null_provider:
  33              	.LFB7:
  34              		.file 1 "../../test/testpools.c"
  35              		.loc 1 64 0
  36              		.cfi_startproc
  37              		@ args = 0, pretend = 0, frame = 8
  38              		@ frame_needed = 0, uses_anonymous_args = 0
  39              		@ link register save eliminated.
  40 0000 82B0     		sub	sp, sp, #8
  41              	.LCFI0:
  42              		.cfi_def_cfa_offset 8
  43 0002 0190     		str	r0, [sp, #4]
  44              		.loc 1 67 0
  45 0004 4FF00003 		mov	r3, #0
  46              		.loc 1 68 0
  47 0008 1846     		mov	r0, r3
  48 000a 02B0     		add	sp, sp, #8
  49 000c 7047     		bx	lr
  50              		.cfi_endproc
  51              	.LFE7:
  52              		.size	null_provider, .-null_provider
  53 000e 00BF     		.section	.text.pools1_setup,"ax",%progbits
  54              		.align	2
  55              		.p2align 4,,15
  56              		.thumb
  57              		.thumb_func
ARM GAS  /tmp/ccDJ4VZf.s 			page 2


  58              		.type	pools1_setup, %function
  59              	pools1_setup:
  60              	.LFB8:
  61              		.loc 1 70 0
  62              		.cfi_startproc
  63              		@ args = 0, pretend = 0, frame = 0
  64              		@ frame_needed = 0, uses_anonymous_args = 0
  65 0000 08B5     		push	{r3, lr}
  66              	.LCFI1:
  67              		.cfi_def_cfa_offset 8
  68              		.cfi_offset 14, -4
  69              		.cfi_offset 3, -8
  70              		.loc 1 72 0
  71 0002 40F20000 		movw	r0, #:lower16:mp1
  72 0006 C0F20000 		movt	r0, #:upper16:mp1
  73 000a 4FF49871 		mov	r1, #304
  74 000e 4FF00002 		mov	r2, #0
  75 0012 FFF7FEFF 		bl	chPoolInit
  76              		.loc 1 73 0
  77 0016 08BD     		pop	{r3, pc}
  78              		.cfi_endproc
  79              	.LFE8:
  80              		.size	pools1_setup, .-pools1_setup
  81 0018 AFF30080 		.section	.text.pools1_execute,"ax",%progbits
  81      AFF30080 
  82              		.align	2
  83              		.p2align 4,,15
  84              		.thumb
  85              		.thumb_func
  86              		.type	pools1_execute, %function
  87              	pools1_execute:
  88              	.LFB9:
  89              		.loc 1 75 0
  90              		.cfi_startproc
  91              		@ args = 0, pretend = 0, frame = 8
  92              		@ frame_needed = 0, uses_anonymous_args = 0
  93 0000 00B5     		push	{lr}
  94              	.LCFI2:
  95              		.cfi_def_cfa_offset 4
  96              		.cfi_offset 14, -4
  97 0002 83B0     		sub	sp, sp, #12
  98              	.LCFI3:
  99              		.cfi_def_cfa_offset 16
 100              		.loc 1 79 0
 101 0004 40F20003 		movw	r3, #:lower16:wa
 102 0008 C0F20003 		movt	r3, #:upper16:wa
 103 000c 1B68     		ldr	r3, [r3, #0]
 104 000e 40F20000 		movw	r0, #:lower16:mp1
 105 0012 C0F20000 		movt	r0, #:upper16:mp1
 106 0016 1946     		mov	r1, r3
 107 0018 4FF00502 		mov	r2, #5
 108 001c FFF7FEFF 		bl	chPoolLoadArray
 109              		.loc 1 82 0
 110 0020 4FF00003 		mov	r3, #0
 111 0024 0193     		str	r3, [sp, #4]
 112 0026 17E0     		b	.L4
 113              	.L7:
ARM GAS  /tmp/ccDJ4VZf.s 			page 3


 114              		.loc 1 83 0
 115 0028 40F20000 		movw	r0, #:lower16:mp1
 116 002c C0F20000 		movt	r0, #:upper16:mp1
 117 0030 FFF7FEFF 		bl	chPoolAlloc
 118 0034 0346     		mov	r3, r0
 119 0036 002B     		cmp	r3, #0
 120 0038 0CBF     		ite	eq
 121 003a 0023     		moveq	r3, #0
 122 003c 0123     		movne	r3, #1
 123 003e 4FF00100 		mov	r0, #1
 124 0042 1946     		mov	r1, r3
 125 0044 FFF7FEFF 		bl	_test_assert
 126 0048 0346     		mov	r3, r0
 127 004a 002B     		cmp	r3, #0
 128 004c 40F08280 		bne	.L3
 129              	.L5:
 130              		.loc 1 82 0
 131 0050 019B     		ldr	r3, [sp, #4]
 132 0052 03F10103 		add	r3, r3, #1
 133 0056 0193     		str	r3, [sp, #4]
 134              	.L4:
 135              		.loc 1 82 0 is_stmt 0 discriminator 1
 136 0058 019B     		ldr	r3, [sp, #4]
 137 005a 042B     		cmp	r3, #4
 138 005c E4DD     		ble	.L7
 139              		.loc 1 86 0 is_stmt 1
 140 005e 40F20000 		movw	r0, #:lower16:mp1
 141 0062 C0F20000 		movt	r0, #:upper16:mp1
 142 0066 FFF7FEFF 		bl	chPoolAlloc
 143 006a 0346     		mov	r3, r0
 144 006c 002B     		cmp	r3, #0
 145 006e 14BF     		ite	ne
 146 0070 0023     		movne	r3, #0
 147 0072 0123     		moveq	r3, #1
 148 0074 4FF00200 		mov	r0, #2
 149 0078 1946     		mov	r1, r3
 150 007a FFF7FEFF 		bl	_test_assert
 151 007e 0346     		mov	r3, r0
 152 0080 002B     		cmp	r3, #0
 153 0082 67D1     		bne	.L3
 154              	.L8:
 155              		.loc 1 89 0
 156 0084 4FF00003 		mov	r3, #0
 157 0088 0193     		str	r3, [sp, #4]
 158 008a 11E0     		b	.L9
 159              	.L10:
 160              		.loc 1 90 0 discriminator 2
 161 008c 40F20003 		movw	r3, #:lower16:wa
 162 0090 C0F20003 		movt	r3, #:upper16:wa
 163 0094 019A     		ldr	r2, [sp, #4]
 164 0096 53F82230 		ldr	r3, [r3, r2, lsl #2]
 165 009a 40F20000 		movw	r0, #:lower16:mp1
 166 009e C0F20000 		movt	r0, #:upper16:mp1
 167 00a2 1946     		mov	r1, r3
 168 00a4 FFF7FEFF 		bl	chPoolFree
 169              		.loc 1 89 0 discriminator 2
 170 00a8 019B     		ldr	r3, [sp, #4]
ARM GAS  /tmp/ccDJ4VZf.s 			page 4


 171 00aa 03F10103 		add	r3, r3, #1
 172 00ae 0193     		str	r3, [sp, #4]
 173              	.L9:
 174              		.loc 1 89 0 is_stmt 0 discriminator 1
 175 00b0 019B     		ldr	r3, [sp, #4]
 176 00b2 042B     		cmp	r3, #4
 177 00b4 EADD     		ble	.L10
 178              		.loc 1 93 0 is_stmt 1
 179 00b6 4FF00003 		mov	r3, #0
 180 00ba 0193     		str	r3, [sp, #4]
 181 00bc 16E0     		b	.L11
 182              	.L13:
 183              		.loc 1 94 0
 184 00be 40F20000 		movw	r0, #:lower16:mp1
 185 00c2 C0F20000 		movt	r0, #:upper16:mp1
 186 00c6 FFF7FEFF 		bl	chPoolAlloc
 187 00ca 0346     		mov	r3, r0
 188 00cc 002B     		cmp	r3, #0
 189 00ce 0CBF     		ite	eq
 190 00d0 0023     		moveq	r3, #0
 191 00d2 0123     		movne	r3, #1
 192 00d4 4FF00300 		mov	r0, #3
 193 00d8 1946     		mov	r1, r3
 194 00da FFF7FEFF 		bl	_test_assert
 195 00de 0346     		mov	r3, r0
 196 00e0 002B     		cmp	r3, #0
 197 00e2 37D1     		bne	.L3
 198              	.L12:
 199              		.loc 1 93 0
 200 00e4 019B     		ldr	r3, [sp, #4]
 201 00e6 03F10103 		add	r3, r3, #1
 202 00ea 0193     		str	r3, [sp, #4]
 203              	.L11:
 204              		.loc 1 93 0 is_stmt 0 discriminator 1
 205 00ec 019B     		ldr	r3, [sp, #4]
 206 00ee 042B     		cmp	r3, #4
 207 00f0 E5DD     		ble	.L13
 208              		.loc 1 97 0 is_stmt 1
 209 00f2 40F20000 		movw	r0, #:lower16:mp1
 210 00f6 C0F20000 		movt	r0, #:upper16:mp1
 211 00fa FFF7FEFF 		bl	chPoolAlloc
 212 00fe 0346     		mov	r3, r0
 213 0100 002B     		cmp	r3, #0
 214 0102 14BF     		ite	ne
 215 0104 0023     		movne	r3, #0
 216 0106 0123     		moveq	r3, #1
 217 0108 4FF00400 		mov	r0, #4
 218 010c 1946     		mov	r1, r3
 219 010e FFF7FEFF 		bl	_test_assert
 220 0112 0346     		mov	r3, r0
 221 0114 002B     		cmp	r3, #0
 222 0116 1DD1     		bne	.L3
 223              	.L14:
 224              		.loc 1 100 0
 225 0118 40F20000 		movw	r0, #:lower16:mp1
 226 011c C0F20000 		movt	r0, #:upper16:mp1
 227 0120 4FF01001 		mov	r1, #16
ARM GAS  /tmp/ccDJ4VZf.s 			page 5


 228 0124 40F20002 		movw	r2, #:lower16:null_provider
 229 0128 C0F20002 		movt	r2, #:upper16:null_provider
 230 012c FFF7FEFF 		bl	chPoolInit
 231              		.loc 1 101 0
 232 0130 40F20000 		movw	r0, #:lower16:mp1
 233 0134 C0F20000 		movt	r0, #:upper16:mp1
 234 0138 FFF7FEFF 		bl	chPoolAlloc
 235 013c 0346     		mov	r3, r0
 236 013e 002B     		cmp	r3, #0
 237 0140 14BF     		ite	ne
 238 0142 0023     		movne	r3, #0
 239 0144 0123     		moveq	r3, #1
 240 0146 4FF00500 		mov	r0, #5
 241 014a 1946     		mov	r1, r3
 242 014c FFF7FEFF 		bl	_test_assert
 243 0150 0346     		mov	r3, r0
 244 0152 002B     		cmp	r3, #0
 245              	.L3:
 246              		.loc 1 102 0
 247 0154 03B0     		add	sp, sp, #12
 248 0156 00BD     		pop	{pc}
 249              		.cfi_endproc
 250              	.LFE9:
 251              		.size	pools1_execute, .-pools1_execute
 252              		.global	testpools1
 253 0158 AFF30080 		.section	.rodata
 253      AFF30080 
 254              		.align	2
 255              	.LC0:
 256 0000 4D656D6F 		.ascii	"Memory Pools, queue/dequeue\000"
 256      72792050 
 256      6F6F6C73 
 256      2C207175 
 256      6575652F 
 257              		.section	.rodata.testpools1,"a",%progbits
 258              		.align	2
 259              		.type	testpools1, %object
 260              		.size	testpools1, 16
 261              	testpools1:
 262 0000 00000000 		.word	.LC0
 263 0004 00000000 		.word	pools1_setup
 264 0008 00000000 		.word	0
 265 000c 00000000 		.word	pools1_execute
 266              		.global	patternpools
 267              		.section	.rodata.patternpools,"a",%progbits
 268              		.align	2
 269              		.type	patternpools, %object
 270              		.size	patternpools, 8
 271              	patternpools:
 272 0000 00000000 		.word	testpools1
 273 0004 00000000 		.word	0
 274              		.text
 275              	.Letext0:
 276              		.file 2 "/home/texzk/ChibiStudio/tools/GNU Tools ARM Embedded/4.6 2012q2/bin/../lib/gcc/arm-none-e
 277              		.file 3 "../../os/kernel/include/chmemcore.h"
 278              		.file 4 "../../os/kernel/include/chmempools.h"
 279              		.file 5 "../../test/test.h"
ARM GAS  /tmp/ccDJ4VZf.s 			page 6

