ARM GAS  /tmp/cc5RHCEG.s 			page 1


   1              		.syntax unified
   2              		.cpu cortex-m3
   3              		.fpu softvfp
   4              		.eabi_attribute 20, 1
   5              		.eabi_attribute 21, 1
   6              		.eabi_attribute 23, 3
   7              		.eabi_attribute 24, 1
   8              		.eabi_attribute 25, 1
   9              		.eabi_attribute 26, 1
  10              		.eabi_attribute 30, 6
  11              		.eabi_attribute 34, 1
  12              		.eabi_attribute 18, 4
  13              		.thumb
  14              		.file	"testsem.c"
  15              		.text
  16              	.Ltext0:
  17              		.cfi_sections	.debug_frame
  18              		.section	.data.sem1,"aw",%progbits
  19              		.align	2
  20              		.type	sem1, %object
  21              		.size	sem1, 12
  22              	sem1:
  23 0000 00000000 		.word	sem1
  24 0004 00000000 		.word	sem1
  25 0008 00000000 		.word	0
  26              		.section	.text.sem1_setup,"ax",%progbits
  27              		.align	2
  28              		.p2align 4,,15
  29              		.thumb
  30              		.thumb_func
  31              		.type	sem1_setup, %function
  32              	sem1_setup:
  33              	.LFB7:
  34              		.file 1 "../../test/testsem.c"
  35              		.loc 1 76 0
  36              		.cfi_startproc
  37              		@ args = 0, pretend = 0, frame = 0
  38              		@ frame_needed = 0, uses_anonymous_args = 0
  39 0000 08B5     		push	{r3, lr}
  40              	.LCFI0:
  41              		.cfi_def_cfa_offset 8
  42              		.cfi_offset 14, -4
  43              		.cfi_offset 3, -8
  44              		.loc 1 78 0
  45 0002 40F20000 		movw	r0, #:lower16:sem1
  46 0006 C0F20000 		movt	r0, #:upper16:sem1
  47 000a 4FF00001 		mov	r1, #0
  48 000e FFF7FEFF 		bl	chSemInit
  49              		.loc 1 79 0
  50 0012 08BD     		pop	{r3, pc}
  51              		.cfi_endproc
  52              	.LFE7:
  53              		.size	sem1_setup, .-sem1_setup
  54 0014 AFF30080 		.section	.text.thread1,"ax",%progbits
  54      AFF30080 
  54      AFF30080 
  55              		.align	2
ARM GAS  /tmp/cc5RHCEG.s 			page 2


  56              		.p2align 4,,15
  57              		.thumb
  58              		.thumb_func
  59              		.type	thread1, %function
  60              	thread1:
  61              	.LFB8:
  62              		.loc 1 81 0
  63              		.cfi_startproc
  64              		@ args = 0, pretend = 0, frame = 8
  65              		@ frame_needed = 0, uses_anonymous_args = 0
  66 0000 00B5     		push	{lr}
  67              	.LCFI1:
  68              		.cfi_def_cfa_offset 4
  69              		.cfi_offset 14, -4
  70 0002 83B0     		sub	sp, sp, #12
  71              	.LCFI2:
  72              		.cfi_def_cfa_offset 16
  73 0004 0190     		str	r0, [sp, #4]
  74              		.loc 1 83 0
  75 0006 40F20000 		movw	r0, #:lower16:sem1
  76 000a C0F20000 		movt	r0, #:upper16:sem1
  77 000e FFF7FEFF 		bl	chSemWait
  78              		.loc 1 84 0
  79 0012 019B     		ldr	r3, [sp, #4]
  80 0014 1B78     		ldrb	r3, [r3, #0]	@ zero_extendqisi2
  81 0016 1846     		mov	r0, r3
  82 0018 FFF7FEFF 		bl	test_emit_token
  83              		.loc 1 85 0
  84 001c 4FF00003 		mov	r3, #0
  85              		.loc 1 86 0
  86 0020 1846     		mov	r0, r3
  87 0022 03B0     		add	sp, sp, #12
  88 0024 00BD     		pop	{pc}
  89              		.cfi_endproc
  90              	.LFE8:
  91              		.size	thread1, .-thread1
  92 0026 00BFAFF3 		.section	.rodata
  92      0080AFF3 
  92      0080
  93              		.align	2
  94              	.LC0:
  95 0000 4100     		.ascii	"A\000"
  96 0002 0000     		.align	2
  97              	.LC1:
  98 0004 4200     		.ascii	"B\000"
  99 0006 0000     		.align	2
 100              	.LC2:
 101 0008 4300     		.ascii	"C\000"
 102 000a 0000     		.align	2
 103              	.LC3:
 104 000c 4400     		.ascii	"D\000"
 105 000e 0000     		.align	2
 106              	.LC4:
 107 0010 4500     		.ascii	"E\000"
 108 0012 0000     		.align	2
 109              	.LC5:
 110 0014 41424344 		.ascii	"ABCDE\000"
ARM GAS  /tmp/cc5RHCEG.s 			page 3


 110      4500
 111              		.section	.text.sem1_execute,"ax",%progbits
 112              		.align	2
 113              		.p2align 4,,15
 114              		.thumb
 115              		.thumb_func
 116              		.type	sem1_execute, %function
 117              	sem1_execute:
 118              	.LFB9:
 119              		.loc 1 88 0
 120              		.cfi_startproc
 121              		@ args = 0, pretend = 0, frame = 0
 122              		@ frame_needed = 0, uses_anonymous_args = 0
 123 0000 00B5     		push	{lr}
 124              	.LCFI3:
 125              		.cfi_def_cfa_offset 4
 126              		.cfi_offset 14, -4
 127 0002 83B0     		sub	sp, sp, #12
 128              	.LCFI4:
 129              		.cfi_def_cfa_offset 16
 130              		.loc 1 90 0
 131 0004 40F20003 		movw	r3, #:lower16:wa
 132 0008 C0F20003 		movt	r3, #:upper16:wa
 133 000c 1968     		ldr	r1, [r3, #0]
 134 000e 40F20003 		movw	r3, #:lower16:rlist
 135 0012 C0F20003 		movt	r3, #:upper16:rlist
 136 0016 9B69     		ldr	r3, [r3, #24]
 137 0018 9B68     		ldr	r3, [r3, #8]
 138 001a 03F10502 		add	r2, r3, #5
 139 001e 40F20003 		movw	r3, #:lower16:.LC0
 140 0022 C0F20003 		movt	r3, #:upper16:.LC0
 141 0026 0093     		str	r3, [sp, #0]
 142 0028 0846     		mov	r0, r1
 143 002a 4FF49871 		mov	r1, #304
 144 002e 40F20003 		movw	r3, #:lower16:thread1
 145 0032 C0F20003 		movt	r3, #:upper16:thread1
 146 0036 FFF7FEFF 		bl	chThdCreateStatic
 147 003a 0246     		mov	r2, r0
 148 003c 40F20003 		movw	r3, #:lower16:threads
 149 0040 C0F20003 		movt	r3, #:upper16:threads
 150 0044 1A60     		str	r2, [r3, #0]
 151              		.loc 1 91 0
 152 0046 40F20003 		movw	r3, #:lower16:wa
 153 004a C0F20003 		movt	r3, #:upper16:wa
 154 004e 5968     		ldr	r1, [r3, #4]
 155 0050 40F20003 		movw	r3, #:lower16:rlist
 156 0054 C0F20003 		movt	r3, #:upper16:rlist
 157 0058 9B69     		ldr	r3, [r3, #24]
 158 005a 9B68     		ldr	r3, [r3, #8]
 159 005c 03F10102 		add	r2, r3, #1
 160 0060 40F20003 		movw	r3, #:lower16:.LC1
 161 0064 C0F20003 		movt	r3, #:upper16:.LC1
 162 0068 0093     		str	r3, [sp, #0]
 163 006a 0846     		mov	r0, r1
 164 006c 4FF49871 		mov	r1, #304
 165 0070 40F20003 		movw	r3, #:lower16:thread1
 166 0074 C0F20003 		movt	r3, #:upper16:thread1
ARM GAS  /tmp/cc5RHCEG.s 			page 4


 167 0078 FFF7FEFF 		bl	chThdCreateStatic
 168 007c 0246     		mov	r2, r0
 169 007e 40F20003 		movw	r3, #:lower16:threads
 170 0082 C0F20003 		movt	r3, #:upper16:threads
 171 0086 5A60     		str	r2, [r3, #4]
 172              		.loc 1 92 0
 173 0088 40F20003 		movw	r3, #:lower16:wa
 174 008c C0F20003 		movt	r3, #:upper16:wa
 175 0090 9968     		ldr	r1, [r3, #8]
 176 0092 40F20003 		movw	r3, #:lower16:rlist
 177 0096 C0F20003 		movt	r3, #:upper16:rlist
 178 009a 9B69     		ldr	r3, [r3, #24]
 179 009c 9B68     		ldr	r3, [r3, #8]
 180 009e 03F10302 		add	r2, r3, #3
 181 00a2 40F20003 		movw	r3, #:lower16:.LC2
 182 00a6 C0F20003 		movt	r3, #:upper16:.LC2
 183 00aa 0093     		str	r3, [sp, #0]
 184 00ac 0846     		mov	r0, r1
 185 00ae 4FF49871 		mov	r1, #304
 186 00b2 40F20003 		movw	r3, #:lower16:thread1
 187 00b6 C0F20003 		movt	r3, #:upper16:thread1
 188 00ba FFF7FEFF 		bl	chThdCreateStatic
 189 00be 0246     		mov	r2, r0
 190 00c0 40F20003 		movw	r3, #:lower16:threads
 191 00c4 C0F20003 		movt	r3, #:upper16:threads
 192 00c8 9A60     		str	r2, [r3, #8]
 193              		.loc 1 93 0
 194 00ca 40F20003 		movw	r3, #:lower16:wa
 195 00ce C0F20003 		movt	r3, #:upper16:wa
 196 00d2 D968     		ldr	r1, [r3, #12]
 197 00d4 40F20003 		movw	r3, #:lower16:rlist
 198 00d8 C0F20003 		movt	r3, #:upper16:rlist
 199 00dc 9B69     		ldr	r3, [r3, #24]
 200 00de 9B68     		ldr	r3, [r3, #8]
 201 00e0 03F10402 		add	r2, r3, #4
 202 00e4 40F20003 		movw	r3, #:lower16:.LC3
 203 00e8 C0F20003 		movt	r3, #:upper16:.LC3
 204 00ec 0093     		str	r3, [sp, #0]
 205 00ee 0846     		mov	r0, r1
 206 00f0 4FF49871 		mov	r1, #304
 207 00f4 40F20003 		movw	r3, #:lower16:thread1
 208 00f8 C0F20003 		movt	r3, #:upper16:thread1
 209 00fc FFF7FEFF 		bl	chThdCreateStatic
 210 0100 0246     		mov	r2, r0
 211 0102 40F20003 		movw	r3, #:lower16:threads
 212 0106 C0F20003 		movt	r3, #:upper16:threads
 213 010a DA60     		str	r2, [r3, #12]
 214              		.loc 1 94 0
 215 010c 40F20003 		movw	r3, #:lower16:wa
 216 0110 C0F20003 		movt	r3, #:upper16:wa
 217 0114 1969     		ldr	r1, [r3, #16]
 218 0116 40F20003 		movw	r3, #:lower16:rlist
 219 011a C0F20003 		movt	r3, #:upper16:rlist
 220 011e 9B69     		ldr	r3, [r3, #24]
 221 0120 9B68     		ldr	r3, [r3, #8]
 222 0122 03F10202 		add	r2, r3, #2
 223 0126 40F20003 		movw	r3, #:lower16:.LC4
ARM GAS  /tmp/cc5RHCEG.s 			page 5


 224 012a C0F20003 		movt	r3, #:upper16:.LC4
 225 012e 0093     		str	r3, [sp, #0]
 226 0130 0846     		mov	r0, r1
 227 0132 4FF49871 		mov	r1, #304
 228 0136 40F20003 		movw	r3, #:lower16:thread1
 229 013a C0F20003 		movt	r3, #:upper16:thread1
 230 013e FFF7FEFF 		bl	chThdCreateStatic
 231 0142 0246     		mov	r2, r0
 232 0144 40F20003 		movw	r3, #:lower16:threads
 233 0148 C0F20003 		movt	r3, #:upper16:threads
 234 014c 1A61     		str	r2, [r3, #16]
 235              		.loc 1 95 0
 236 014e 40F20000 		movw	r0, #:lower16:sem1
 237 0152 C0F20000 		movt	r0, #:upper16:sem1
 238 0156 FFF7FEFF 		bl	chSemSignal
 239              		.loc 1 96 0
 240 015a 40F20000 		movw	r0, #:lower16:sem1
 241 015e C0F20000 		movt	r0, #:upper16:sem1
 242 0162 FFF7FEFF 		bl	chSemSignal
 243              		.loc 1 97 0
 244 0166 40F20000 		movw	r0, #:lower16:sem1
 245 016a C0F20000 		movt	r0, #:upper16:sem1
 246 016e FFF7FEFF 		bl	chSemSignal
 247              		.loc 1 98 0
 248 0172 40F20000 		movw	r0, #:lower16:sem1
 249 0176 C0F20000 		movt	r0, #:upper16:sem1
 250 017a FFF7FEFF 		bl	chSemSignal
 251              		.loc 1 99 0
 252 017e 40F20000 		movw	r0, #:lower16:sem1
 253 0182 C0F20000 		movt	r0, #:upper16:sem1
 254 0186 FFF7FEFF 		bl	chSemSignal
 255              		.loc 1 100 0
 256 018a FFF7FEFF 		bl	test_wait_threads
 257              		.loc 1 104 0
 258 018e 4FF00100 		mov	r0, #1
 259 0192 40F20001 		movw	r1, #:lower16:.LC5
 260 0196 C0F20001 		movt	r1, #:upper16:.LC5
 261 019a FFF7FEFF 		bl	_test_assert_sequence
 262 019e 0346     		mov	r3, r0
 263 01a0 002B     		cmp	r3, #0
 264 01a2 46D1     		bne	.L3
 265              	.L4:
 266              		.loc 1 106 0
 267 01a4 40F20003 		movw	r3, #:lower16:wa
 268 01a8 C0F20003 		movt	r3, #:upper16:wa
 269 01ac 1968     		ldr	r1, [r3, #0]
 270 01ae 40F20003 		movw	r3, #:lower16:rlist
 271 01b2 C0F20003 		movt	r3, #:upper16:rlist
 272 01b6 9B69     		ldr	r3, [r3, #24]
 273 01b8 9B68     		ldr	r3, [r3, #8]
 274 01ba 03F10502 		add	r2, r3, #5
 275 01be 40F20003 		movw	r3, #:lower16:.LC0
 276 01c2 C0F20003 		movt	r3, #:upper16:.LC0
 277 01c6 0093     		str	r3, [sp, #0]
 278 01c8 0846     		mov	r0, r1
 279 01ca 4FF49871 		mov	r1, #304
 280 01ce 40F20003 		movw	r3, #:lower16:thread1
ARM GAS  /tmp/cc5RHCEG.s 			page 6


 281 01d2 C0F20003 		movt	r3, #:upper16:thread1
 282 01d6 FFF7FEFF 		bl	chThdCreateStatic
 283 01da 0246     		mov	r2, r0
 284 01dc 40F20003 		movw	r3, #:lower16:threads
 285 01e0 C0F20003 		movt	r3, #:upper16:threads
 286 01e4 1A60     		str	r2, [r3, #0]
 287              	.LBB2:
 288              		.loc 1 107 0
 289 01e6 4FF02003 		mov	r3, #32
 290              	@ 107 "../../test/testsem.c" 1
 291 01ea 83F31188 		msr     BASEPRI, r3
 292              	@ 0 "" 2
 293              		.thumb
 294              	.LBE2:
 295 01ee FFF7FEFF 		bl	dbg_check_lock
 296              		.loc 1 108 0
 297 01f2 40F20000 		movw	r0, #:lower16:sem1
 298 01f6 C0F20000 		movt	r0, #:upper16:sem1
 299 01fa 4FF00201 		mov	r1, #2
 300 01fe FFF7FEFF 		bl	chSemAddCounterI
 301              		.loc 1 109 0
 302 0202 FFF7FEFF 		bl	dbg_check_unlock
 303              	.LBB3:
 304 0206 4FF00003 		mov	r3, #0
 305              	@ 109 "../../test/testsem.c" 1
 306 020a 83F31188 		msr     BASEPRI, r3
 307              	@ 0 "" 2
 308              		.thumb
 309              	.LBE3:
 310              		.loc 1 110 0
 311 020e FFF7FEFF 		bl	test_wait_threads
 312              		.loc 1 111 0
 313 0212 40F20003 		movw	r3, #:lower16:sem1
 314 0216 C0F20003 		movt	r3, #:upper16:sem1
 315 021a 9B68     		ldr	r3, [r3, #8]
 316 021c 012B     		cmp	r3, #1
 317 021e 14BF     		ite	ne
 318 0220 0023     		movne	r3, #0
 319 0222 0123     		moveq	r3, #1
 320 0224 4FF00200 		mov	r0, #2
 321 0228 1946     		mov	r1, r3
 322 022a FFF7FEFF 		bl	_test_assert
 323 022e 0346     		mov	r3, r0
 324 0230 002B     		cmp	r3, #0
 325              	.L3:
 326              		.loc 1 112 0
 327 0232 03B0     		add	sp, sp, #12
 328 0234 00BD     		pop	{pc}
 329              		.cfi_endproc
 330              	.LFE9:
 331              		.size	sem1_execute, .-sem1_execute
 332              		.global	testsem1
 333 0236 00BFAFF3 		.section	.rodata
 333      0080AFF3 
 333      0080
 334 001a 0000     		.align	2
 335              	.LC6:
ARM GAS  /tmp/cc5RHCEG.s 			page 7


 336 001c 53656D61 		.ascii	"Semaphores, enqueuing\000"
 336      70686F72 
 336      65732C20 
 336      656E7175 
 336      6575696E 
 337              		.section	.rodata.testsem1,"a",%progbits
 338              		.align	2
 339              		.type	testsem1, %object
 340              		.size	testsem1, 16
 341              	testsem1:
 342 0000 1C000000 		.word	.LC6
 343 0004 00000000 		.word	sem1_setup
 344 0008 00000000 		.word	0
 345 000c 00000000 		.word	sem1_execute
 346              		.section	.text.sem2_setup,"ax",%progbits
 347              		.align	2
 348              		.p2align 4,,15
 349              		.thumb
 350              		.thumb_func
 351              		.type	sem2_setup, %function
 352              	sem2_setup:
 353              	.LFB10:
 354              		.loc 1 132 0
 355              		.cfi_startproc
 356              		@ args = 0, pretend = 0, frame = 0
 357              		@ frame_needed = 0, uses_anonymous_args = 0
 358 0000 08B5     		push	{r3, lr}
 359              	.LCFI5:
 360              		.cfi_def_cfa_offset 8
 361              		.cfi_offset 14, -4
 362              		.cfi_offset 3, -8
 363              		.loc 1 134 0
 364 0002 40F20000 		movw	r0, #:lower16:sem1
 365 0006 C0F20000 		movt	r0, #:upper16:sem1
 366 000a 4FF00001 		mov	r1, #0
 367 000e FFF7FEFF 		bl	chSemInit
 368              		.loc 1 135 0
 369 0012 08BD     		pop	{r3, pc}
 370              		.cfi_endproc
 371              	.LFE10:
 372              		.size	sem2_setup, .-sem2_setup
 373 0014 AFF30080 		.section	.text.thread2,"ax",%progbits
 373      AFF30080 
 373      AFF30080 
 374              		.align	2
 375              		.p2align 4,,15
 376              		.thumb
 377              		.thumb_func
 378              		.type	thread2, %function
 379              	thread2:
 380              	.LFB11:
 381              		.loc 1 137 0
 382              		.cfi_startproc
 383              		@ args = 0, pretend = 0, frame = 8
 384              		@ frame_needed = 0, uses_anonymous_args = 0
 385 0000 00B5     		push	{lr}
 386              	.LCFI6:
ARM GAS  /tmp/cc5RHCEG.s 			page 8


 387              		.cfi_def_cfa_offset 4
 388              		.cfi_offset 14, -4
 389 0002 83B0     		sub	sp, sp, #12
 390              	.LCFI7:
 391              		.cfi_def_cfa_offset 16
 392 0004 0190     		str	r0, [sp, #4]
 393              		.loc 1 140 0
 394 0006 4FF03200 		mov	r0, #50
 395 000a FFF7FEFF 		bl	chThdSleep
 396              	.LBB4:
 397              		.loc 1 141 0
 398 000e 4FF02003 		mov	r3, #32
 399              	@ 141 "../../test/testsem.c" 1
 400 0012 83F31188 		msr     BASEPRI, r3
 401              	@ 0 "" 2
 402              		.thumb
 403              	.LBE4:
 404 0016 FFF7FEFF 		bl	dbg_check_lock
 405              		.loc 1 142 0
 406 001a 40F20000 		movw	r0, #:lower16:sem1
 407 001e C0F20000 		movt	r0, #:upper16:sem1
 408 0022 FFF7FEFF 		bl	chSemSignalI
 409              		.loc 1 143 0
 410 0026 FFF7FEFF 		bl	chSchRescheduleS
 411              		.loc 1 144 0
 412 002a FFF7FEFF 		bl	dbg_check_unlock
 413              	.LBB5:
 414 002e 4FF00003 		mov	r3, #0
 415              	@ 144 "../../test/testsem.c" 1
 416 0032 83F31188 		msr     BASEPRI, r3
 417              	@ 0 "" 2
 418              		.thumb
 419              	.LBE5:
 420              		.loc 1 145 0
 421 0036 4FF00003 		mov	r3, #0
 422              		.loc 1 146 0
 423 003a 1846     		mov	r0, r3
 424 003c 03B0     		add	sp, sp, #12
 425 003e 00BD     		pop	{pc}
 426              		.cfi_endproc
 427              	.LFE11:
 428              		.size	thread2, .-thread2
 429              		.section	.text.sem2_execute,"ax",%progbits
 430              		.align	2
 431              		.p2align 4,,15
 432              		.thumb
 433              		.thumb_func
 434              		.type	sem2_execute, %function
 435              	sem2_execute:
 436              	.LFB12:
 437              		.loc 1 148 0
 438              		.cfi_startproc
 439              		@ args = 0, pretend = 0, frame = 16
 440              		@ frame_needed = 0, uses_anonymous_args = 0
 441 0000 00B5     		push	{lr}
 442              	.LCFI8:
 443              		.cfi_def_cfa_offset 4
ARM GAS  /tmp/cc5RHCEG.s 			page 9


 444              		.cfi_offset 14, -4
 445 0002 87B0     		sub	sp, sp, #28
 446              	.LCFI9:
 447              		.cfi_def_cfa_offset 32
 448              		.loc 1 156 0
 449 0004 40F20000 		movw	r0, #:lower16:sem1
 450 0008 C0F20000 		movt	r0, #:upper16:sem1
 451 000c 4FF00001 		mov	r1, #0
 452 0010 FFF7FEFF 		bl	chSemWaitTimeout
 453 0014 0346     		mov	r3, r0
 454 0016 0493     		str	r3, [sp, #16]
 455              		.loc 1 157 0
 456 0018 049B     		ldr	r3, [sp, #16]
 457 001a B3F1FF3F 		cmp	r3, #-1
 458 001e 14BF     		ite	ne
 459 0020 0023     		movne	r3, #0
 460 0022 0123     		moveq	r3, #1
 461 0024 4FF00100 		mov	r0, #1
 462 0028 1946     		mov	r1, r3
 463 002a FFF7FEFF 		bl	_test_assert
 464 002e 0346     		mov	r3, r0
 465 0030 002B     		cmp	r3, #0
 466 0032 40F0FC80 		bne	.L8
 467              	.L9:
 468              		.loc 1 158 0
 469 0036 40F20003 		movw	r3, #:lower16:sem1
 470 003a C0F20003 		movt	r3, #:upper16:sem1
 471 003e 1A68     		ldr	r2, [r3, #0]
 472 0040 40F20003 		movw	r3, #:lower16:sem1
 473 0044 C0F20003 		movt	r3, #:upper16:sem1
 474 0048 9A42     		cmp	r2, r3
 475 004a 14BF     		ite	ne
 476 004c 0023     		movne	r3, #0
 477 004e 0123     		moveq	r3, #1
 478 0050 4FF00200 		mov	r0, #2
 479 0054 1946     		mov	r1, r3
 480 0056 FFF7FEFF 		bl	_test_assert
 481 005a 0346     		mov	r3, r0
 482 005c 002B     		cmp	r3, #0
 483 005e 40F0E680 		bne	.L8
 484              	.L11:
 485              		.loc 1 159 0
 486 0062 40F20003 		movw	r3, #:lower16:sem1
 487 0066 C0F20003 		movt	r3, #:upper16:sem1
 488 006a 9B68     		ldr	r3, [r3, #8]
 489 006c 002B     		cmp	r3, #0
 490 006e 14BF     		ite	ne
 491 0070 0023     		movne	r3, #0
 492 0072 0123     		moveq	r3, #1
 493 0074 4FF00300 		mov	r0, #3
 494 0078 1946     		mov	r1, r3
 495 007a FFF7FEFF 		bl	_test_assert
 496 007e 0346     		mov	r3, r0
 497 0080 002B     		cmp	r3, #0
 498 0082 40F0D480 		bne	.L8
 499              	.L12:
 500              		.loc 1 164 0
ARM GAS  /tmp/cc5RHCEG.s 			page 10


 501 0086 40F20003 		movw	r3, #:lower16:wa
 502 008a C0F20003 		movt	r3, #:upper16:wa
 503 008e 1A68     		ldr	r2, [r3, #0]
 504 0090 40F20003 		movw	r3, #:lower16:rlist
 505 0094 C0F20003 		movt	r3, #:upper16:rlist
 506 0098 9B69     		ldr	r3, [r3, #24]
 507 009a 9B68     		ldr	r3, [r3, #8]
 508 009c 03F1FF33 		add	r3, r3, #-1
 509 00a0 4FF00001 		mov	r1, #0
 510 00a4 0091     		str	r1, [sp, #0]
 511 00a6 1046     		mov	r0, r2
 512 00a8 4FF49871 		mov	r1, #304
 513 00ac 1A46     		mov	r2, r3
 514 00ae 40F20003 		movw	r3, #:lower16:thread2
 515 00b2 C0F20003 		movt	r3, #:upper16:thread2
 516 00b6 FFF7FEFF 		bl	chThdCreateStatic
 517 00ba 0246     		mov	r2, r0
 518 00bc 40F20003 		movw	r3, #:lower16:threads
 519 00c0 C0F20003 		movt	r3, #:upper16:threads
 520 00c4 1A60     		str	r2, [r3, #0]
 521              		.loc 1 166 0
 522 00c6 40F20000 		movw	r0, #:lower16:sem1
 523 00ca C0F20000 		movt	r0, #:upper16:sem1
 524 00ce 4FF4FA71 		mov	r1, #500
 525 00d2 FFF7FEFF 		bl	chSemWaitTimeout
 526 00d6 0346     		mov	r3, r0
 527 00d8 0493     		str	r3, [sp, #16]
 528              		.loc 1 167 0
 529 00da FFF7FEFF 		bl	test_wait_threads
 530              		.loc 1 168 0
 531 00de 049B     		ldr	r3, [sp, #16]
 532 00e0 002B     		cmp	r3, #0
 533 00e2 14BF     		ite	ne
 534 00e4 0023     		movne	r3, #0
 535 00e6 0123     		moveq	r3, #1
 536 00e8 4FF00400 		mov	r0, #4
 537 00ec 1946     		mov	r1, r3
 538 00ee FFF7FEFF 		bl	_test_assert
 539 00f2 0346     		mov	r3, r0
 540 00f4 002B     		cmp	r3, #0
 541 00f6 40F09A80 		bne	.L8
 542              	.L13:
 543              		.loc 1 169 0
 544 00fa 40F20003 		movw	r3, #:lower16:sem1
 545 00fe C0F20003 		movt	r3, #:upper16:sem1
 546 0102 1A68     		ldr	r2, [r3, #0]
 547 0104 40F20003 		movw	r3, #:lower16:sem1
 548 0108 C0F20003 		movt	r3, #:upper16:sem1
 549 010c 9A42     		cmp	r2, r3
 550 010e 14BF     		ite	ne
 551 0110 0023     		movne	r3, #0
 552 0112 0123     		moveq	r3, #1
 553 0114 4FF00500 		mov	r0, #5
 554 0118 1946     		mov	r1, r3
 555 011a FFF7FEFF 		bl	_test_assert
 556 011e 0346     		mov	r3, r0
 557 0120 002B     		cmp	r3, #0
ARM GAS  /tmp/cc5RHCEG.s 			page 11


 558 0122 40F08480 		bne	.L8
 559              	.L14:
 560              		.loc 1 170 0
 561 0126 40F20003 		movw	r3, #:lower16:sem1
 562 012a C0F20003 		movt	r3, #:upper16:sem1
 563 012e 9B68     		ldr	r3, [r3, #8]
 564 0130 002B     		cmp	r3, #0
 565 0132 14BF     		ite	ne
 566 0134 0023     		movne	r3, #0
 567 0136 0123     		moveq	r3, #1
 568 0138 4FF00600 		mov	r0, #6
 569 013c 1946     		mov	r1, r3
 570 013e FFF7FEFF 		bl	_test_assert
 571 0142 0346     		mov	r3, r0
 572 0144 002B     		cmp	r3, #0
 573 0146 72D1     		bne	.L8
 574              	.L15:
 575              		.loc 1 175 0
 576 0148 FFF7FEFF 		bl	test_wait_tick
 577              		.loc 1 176 0
 578 014c 40F20003 		movw	r3, #:lower16:vtlist
 579 0150 C0F20003 		movt	r3, #:upper16:vtlist
 580 0154 DB68     		ldr	r3, [r3, #12]
 581 0156 03F51C63 		add	r3, r3, #2496
 582 015a 03F10403 		add	r3, r3, #4
 583 015e 0393     		str	r3, [sp, #12]
 584              		.loc 1 177 0
 585 0160 4FF00003 		mov	r3, #0
 586 0164 0593     		str	r3, [sp, #20]
 587 0166 49E0     		b	.L16
 588              	.L20:
 589              		.loc 1 178 0
 590 0168 059B     		ldr	r3, [sp, #20]
 591 016a DBB2     		uxtb	r3, r3
 592 016c 03F14103 		add	r3, r3, #65
 593 0170 DBB2     		uxtb	r3, r3
 594 0172 1846     		mov	r0, r3
 595 0174 FFF7FEFF 		bl	test_emit_token
 596              		.loc 1 179 0
 597 0178 40F20000 		movw	r0, #:lower16:sem1
 598 017c C0F20000 		movt	r0, #:upper16:sem1
 599 0180 4FF4FA71 		mov	r1, #500
 600 0184 FFF7FEFF 		bl	chSemWaitTimeout
 601 0188 0346     		mov	r3, r0
 602 018a 0493     		str	r3, [sp, #16]
 603              		.loc 1 180 0
 604 018c 049B     		ldr	r3, [sp, #16]
 605 018e B3F1FF3F 		cmp	r3, #-1
 606 0192 14BF     		ite	ne
 607 0194 0023     		movne	r3, #0
 608 0196 0123     		moveq	r3, #1
 609 0198 4FF00700 		mov	r0, #7
 610 019c 1946     		mov	r1, r3
 611 019e FFF7FEFF 		bl	_test_assert
 612 01a2 0346     		mov	r3, r0
 613 01a4 002B     		cmp	r3, #0
 614 01a6 42D1     		bne	.L8
ARM GAS  /tmp/cc5RHCEG.s 			page 12


 615              	.L17:
 616              		.loc 1 181 0
 617 01a8 40F20003 		movw	r3, #:lower16:sem1
 618 01ac C0F20003 		movt	r3, #:upper16:sem1
 619 01b0 1A68     		ldr	r2, [r3, #0]
 620 01b2 40F20003 		movw	r3, #:lower16:sem1
 621 01b6 C0F20003 		movt	r3, #:upper16:sem1
 622 01ba 9A42     		cmp	r2, r3
 623 01bc 14BF     		ite	ne
 624 01be 0023     		movne	r3, #0
 625 01c0 0123     		moveq	r3, #1
 626 01c2 4FF00800 		mov	r0, #8
 627 01c6 1946     		mov	r1, r3
 628 01c8 FFF7FEFF 		bl	_test_assert
 629 01cc 0346     		mov	r3, r0
 630 01ce 002B     		cmp	r3, #0
 631 01d0 2DD1     		bne	.L8
 632              	.L18:
 633              		.loc 1 182 0
 634 01d2 40F20003 		movw	r3, #:lower16:sem1
 635 01d6 C0F20003 		movt	r3, #:upper16:sem1
 636 01da 9B68     		ldr	r3, [r3, #8]
 637 01dc 002B     		cmp	r3, #0
 638 01de 14BF     		ite	ne
 639 01e0 0023     		movne	r3, #0
 640 01e2 0123     		moveq	r3, #1
 641 01e4 4FF00900 		mov	r0, #9
 642 01e8 1946     		mov	r1, r3
 643 01ea FFF7FEFF 		bl	_test_assert
 644 01ee 0346     		mov	r3, r0
 645 01f0 002B     		cmp	r3, #0
 646 01f2 1CD1     		bne	.L8
 647              	.L19:
 648              		.loc 1 177 0
 649 01f4 059B     		ldr	r3, [sp, #20]
 650 01f6 03F10103 		add	r3, r3, #1
 651 01fa 0593     		str	r3, [sp, #20]
 652              	.L16:
 653              		.loc 1 177 0 is_stmt 0 discriminator 1
 654 01fc 059B     		ldr	r3, [sp, #20]
 655 01fe 042B     		cmp	r3, #4
 656 0200 B2DD     		ble	.L20
 657              		.loc 1 184 0 is_stmt 1
 658 0202 4FF00A00 		mov	r0, #10
 659 0206 40F20001 		movw	r1, #:lower16:.LC5
 660 020a C0F20001 		movt	r1, #:upper16:.LC5
 661 020e FFF7FEFF 		bl	_test_assert_sequence
 662 0212 0346     		mov	r3, r0
 663 0214 002B     		cmp	r3, #0
 664 0216 0AD1     		bne	.L8
 665              	.L21:
 666              		.loc 1 185 0
 667 0218 039B     		ldr	r3, [sp, #12]
 668 021a 03F10503 		add	r3, r3, #5
 669 021e 4FF00B00 		mov	r0, #11
 670 0222 0399     		ldr	r1, [sp, #12]
 671 0224 1A46     		mov	r2, r3
ARM GAS  /tmp/cc5RHCEG.s 			page 13


 672 0226 FFF7FEFF 		bl	_test_assert_time_window
 673 022a 0346     		mov	r3, r0
 674 022c 002B     		cmp	r3, #0
 675              	.L8:
 676              		.loc 1 186 0
 677 022e 07B0     		add	sp, sp, #28
 678 0230 00BD     		pop	{pc}
 679              		.cfi_endproc
 680              	.LFE12:
 681              		.size	sem2_execute, .-sem2_execute
 682              		.global	testsem2
 683 0232 00BFAFF3 		.section	.rodata
 683      0080AFF3 
 683      0080AFF3 
 683      0080
 684 0032 0000     		.align	2
 685              	.LC7:
 686 0034 53656D61 		.ascii	"Semaphores, timeout\000"
 686      70686F72 
 686      65732C20 
 686      74696D65 
 686      6F757400 
 687              		.section	.rodata.testsem2,"a",%progbits
 688              		.align	2
 689              		.type	testsem2, %object
 690              		.size	testsem2, 16
 691              	testsem2:
 692 0000 34000000 		.word	.LC7
 693 0004 00000000 		.word	sem2_setup
 694 0008 00000000 		.word	0
 695 000c 00000000 		.word	sem2_execute
 696              		.section	.text.sem3_setup,"ax",%progbits
 697              		.align	2
 698              		.p2align 4,,15
 699              		.thumb
 700              		.thumb_func
 701              		.type	sem3_setup, %function
 702              	sem3_setup:
 703              	.LFB13:
 704              		.loc 1 208 0
 705              		.cfi_startproc
 706              		@ args = 0, pretend = 0, frame = 0
 707              		@ frame_needed = 0, uses_anonymous_args = 0
 708 0000 08B5     		push	{r3, lr}
 709              	.LCFI10:
 710              		.cfi_def_cfa_offset 8
 711              		.cfi_offset 14, -4
 712              		.cfi_offset 3, -8
 713              		.loc 1 210 0
 714 0002 40F20000 		movw	r0, #:lower16:sem1
 715 0006 C0F20000 		movt	r0, #:upper16:sem1
 716 000a 4FF00001 		mov	r1, #0
 717 000e FFF7FEFF 		bl	chSemInit
 718              		.loc 1 211 0
 719 0012 08BD     		pop	{r3, pc}
 720              		.cfi_endproc
 721              	.LFE13:
ARM GAS  /tmp/cc5RHCEG.s 			page 14


 722              		.size	sem3_setup, .-sem3_setup
 723 0014 AFF30080 		.section	.text.thread3,"ax",%progbits
 723      AFF30080 
 723      AFF30080 
 724              		.align	2
 725              		.p2align 4,,15
 726              		.thumb
 727              		.thumb_func
 728              		.type	thread3, %function
 729              	thread3:
 730              	.LFB14:
 731              		.loc 1 213 0
 732              		.cfi_startproc
 733              		@ args = 0, pretend = 0, frame = 8
 734              		@ frame_needed = 0, uses_anonymous_args = 0
 735 0000 00B5     		push	{lr}
 736              	.LCFI11:
 737              		.cfi_def_cfa_offset 4
 738              		.cfi_offset 14, -4
 739 0002 83B0     		sub	sp, sp, #12
 740              	.LCFI12:
 741              		.cfi_def_cfa_offset 16
 742 0004 0190     		str	r0, [sp, #4]
 743              		.loc 1 216 0
 744 0006 40F20000 		movw	r0, #:lower16:sem1
 745 000a C0F20000 		movt	r0, #:upper16:sem1
 746 000e FFF7FEFF 		bl	chSemWait
 747              		.loc 1 217 0
 748 0012 40F20000 		movw	r0, #:lower16:sem1
 749 0016 C0F20000 		movt	r0, #:upper16:sem1
 750 001a FFF7FEFF 		bl	chSemSignal
 751              		.loc 1 218 0
 752 001e 4FF00003 		mov	r3, #0
 753              		.loc 1 219 0
 754 0022 1846     		mov	r0, r3
 755 0024 03B0     		add	sp, sp, #12
 756 0026 00BD     		pop	{pc}
 757              		.cfi_endproc
 758              	.LFE14:
 759              		.size	thread3, .-thread3
 760 0028 AFF30080 		.section	.text.sem3_execute,"ax",%progbits
 760      AFF30080 
 761              		.align	2
 762              		.p2align 4,,15
 763              		.thumb
 764              		.thumb_func
 765              		.type	sem3_execute, %function
 766              	sem3_execute:
 767              	.LFB15:
 768              		.loc 1 221 0
 769              		.cfi_startproc
 770              		@ args = 0, pretend = 0, frame = 0
 771              		@ frame_needed = 0, uses_anonymous_args = 0
 772 0000 00B5     		push	{lr}
 773              	.LCFI13:
 774              		.cfi_def_cfa_offset 4
 775              		.cfi_offset 14, -4
ARM GAS  /tmp/cc5RHCEG.s 			page 15


 776 0002 83B0     		sub	sp, sp, #12
 777              	.LCFI14:
 778              		.cfi_def_cfa_offset 16
 779              		.loc 1 223 0
 780 0004 40F20003 		movw	r3, #:lower16:wa
 781 0008 C0F20003 		movt	r3, #:upper16:wa
 782 000c 1A68     		ldr	r2, [r3, #0]
 783 000e 40F20003 		movw	r3, #:lower16:rlist
 784 0012 C0F20003 		movt	r3, #:upper16:rlist
 785 0016 9B69     		ldr	r3, [r3, #24]
 786 0018 9B68     		ldr	r3, [r3, #8]
 787 001a 03F10103 		add	r3, r3, #1
 788 001e 4FF00001 		mov	r1, #0
 789 0022 0091     		str	r1, [sp, #0]
 790 0024 1046     		mov	r0, r2
 791 0026 4FF49871 		mov	r1, #304
 792 002a 1A46     		mov	r2, r3
 793 002c 40F20003 		movw	r3, #:lower16:thread3
 794 0030 C0F20003 		movt	r3, #:upper16:thread3
 795 0034 FFF7FEFF 		bl	chThdCreateStatic
 796 0038 0246     		mov	r2, r0
 797 003a 40F20003 		movw	r3, #:lower16:threads
 798 003e C0F20003 		movt	r3, #:upper16:threads
 799 0042 1A60     		str	r2, [r3, #0]
 800              		.loc 1 224 0
 801 0044 40F20000 		movw	r0, #:lower16:sem1
 802 0048 C0F20000 		movt	r0, #:upper16:sem1
 803 004c 40F20001 		movw	r1, #:lower16:sem1
 804 0050 C0F20001 		movt	r1, #:upper16:sem1
 805 0054 FFF7FEFF 		bl	chSemSignalWait
 806              		.loc 1 225 0
 807 0058 40F20003 		movw	r3, #:lower16:sem1
 808 005c C0F20003 		movt	r3, #:upper16:sem1
 809 0060 1A68     		ldr	r2, [r3, #0]
 810 0062 40F20003 		movw	r3, #:lower16:sem1
 811 0066 C0F20003 		movt	r3, #:upper16:sem1
 812 006a 9A42     		cmp	r2, r3
 813 006c 14BF     		ite	ne
 814 006e 0023     		movne	r3, #0
 815 0070 0123     		moveq	r3, #1
 816 0072 4FF00100 		mov	r0, #1
 817 0076 1946     		mov	r1, r3
 818 0078 FFF7FEFF 		bl	_test_assert
 819 007c 0346     		mov	r3, r0
 820 007e 002B     		cmp	r3, #0
 821 0080 3FD1     		bne	.L24
 822              	.L25:
 823              		.loc 1 226 0
 824 0082 40F20003 		movw	r3, #:lower16:sem1
 825 0086 C0F20003 		movt	r3, #:upper16:sem1
 826 008a 9B68     		ldr	r3, [r3, #8]
 827 008c 002B     		cmp	r3, #0
 828 008e 14BF     		ite	ne
 829 0090 0023     		movne	r3, #0
 830 0092 0123     		moveq	r3, #1
 831 0094 4FF00200 		mov	r0, #2
 832 0098 1946     		mov	r1, r3
ARM GAS  /tmp/cc5RHCEG.s 			page 16


 833 009a FFF7FEFF 		bl	_test_assert
 834 009e 0346     		mov	r3, r0
 835 00a0 002B     		cmp	r3, #0
 836 00a2 2ED1     		bne	.L24
 837              	.L27:
 838              		.loc 1 228 0
 839 00a4 40F20000 		movw	r0, #:lower16:sem1
 840 00a8 C0F20000 		movt	r0, #:upper16:sem1
 841 00ac 40F20001 		movw	r1, #:lower16:sem1
 842 00b0 C0F20001 		movt	r1, #:upper16:sem1
 843 00b4 FFF7FEFF 		bl	chSemSignalWait
 844              		.loc 1 229 0
 845 00b8 40F20003 		movw	r3, #:lower16:sem1
 846 00bc C0F20003 		movt	r3, #:upper16:sem1
 847 00c0 1A68     		ldr	r2, [r3, #0]
 848 00c2 40F20003 		movw	r3, #:lower16:sem1
 849 00c6 C0F20003 		movt	r3, #:upper16:sem1
 850 00ca 9A42     		cmp	r2, r3
 851 00cc 14BF     		ite	ne
 852 00ce 0023     		movne	r3, #0
 853 00d0 0123     		moveq	r3, #1
 854 00d2 4FF00300 		mov	r0, #3
 855 00d6 1946     		mov	r1, r3
 856 00d8 FFF7FEFF 		bl	_test_assert
 857 00dc 0346     		mov	r3, r0
 858 00de 002B     		cmp	r3, #0
 859 00e0 0FD1     		bne	.L24
 860              	.L28:
 861              		.loc 1 230 0
 862 00e2 40F20003 		movw	r3, #:lower16:sem1
 863 00e6 C0F20003 		movt	r3, #:upper16:sem1
 864 00ea 9B68     		ldr	r3, [r3, #8]
 865 00ec 002B     		cmp	r3, #0
 866 00ee 14BF     		ite	ne
 867 00f0 0023     		movne	r3, #0
 868 00f2 0123     		moveq	r3, #1
 869 00f4 4FF00400 		mov	r0, #4
 870 00f8 1946     		mov	r1, r3
 871 00fa FFF7FEFF 		bl	_test_assert
 872 00fe 0346     		mov	r3, r0
 873 0100 002B     		cmp	r3, #0
 874              	.L24:
 875              		.loc 1 231 0
 876 0102 03B0     		add	sp, sp, #12
 877 0104 00BD     		pop	{pc}
 878              		.cfi_endproc
 879              	.LFE15:
 880              		.size	sem3_execute, .-sem3_execute
 881              		.global	testsem3
 882 0106 00BFAFF3 		.section	.rodata
 882      0080AFF3 
 882      0080
 883              		.align	2
 884              	.LC8:
 885 0048 53656D61 		.ascii	"Semaphores, atomic signal-wait\000"
 885      70686F72 
 885      65732C20 
ARM GAS  /tmp/cc5RHCEG.s 			page 17


 885      61746F6D 
 885      69632073 
 886              		.section	.rodata.testsem3,"a",%progbits
 887              		.align	2
 888              		.type	testsem3, %object
 889              		.size	testsem3, 16
 890              	testsem3:
 891 0000 48000000 		.word	.LC8
 892 0004 00000000 		.word	sem3_setup
 893 0008 00000000 		.word	0
 894 000c 00000000 		.word	sem3_execute
 895              		.section	.text.thread4,"ax",%progbits
 896              		.align	2
 897              		.p2align 4,,15
 898              		.thumb
 899              		.thumb_func
 900              		.type	thread4, %function
 901              	thread4:
 902              	.LFB16:
 903              		.loc 1 249 0
 904              		.cfi_startproc
 905              		@ args = 0, pretend = 0, frame = 8
 906              		@ frame_needed = 0, uses_anonymous_args = 0
 907 0000 00B5     		push	{lr}
 908              	.LCFI15:
 909              		.cfi_def_cfa_offset 4
 910              		.cfi_offset 14, -4
 911 0002 83B0     		sub	sp, sp, #12
 912              	.LCFI16:
 913              		.cfi_def_cfa_offset 16
 914 0004 0190     		str	r0, [sp, #4]
 915              	.LBB6:
 916              		.loc 1 251 0
 917 0006 4FF02003 		mov	r3, #32
 918              	@ 251 "../../test/testsem.c" 1
 919 000a 83F31188 		msr     BASEPRI, r3
 920              	@ 0 "" 2
 921              		.thumb
 922              	.LBE6:
 923 000e FFF7FEFF 		bl	dbg_check_lock
 924 0012 019B     		ldr	r3, [sp, #4]
 925 0014 9B68     		ldr	r3, [r3, #8]
 926 0016 002B     		cmp	r3, #0
 927 0018 03DC     		bgt	.L30
 928              		.loc 1 251 0 is_stmt 0 discriminator 1
 929 001a 019B     		ldr	r3, [sp, #4]
 930 001c 1846     		mov	r0, r3
 931 001e FFF7FEFF 		bl	chSemSignalI
 932              	.L30:
 933              		.loc 1 251 0 discriminator 2
 934 0022 FFF7FEFF 		bl	chSchRescheduleS
 935 0026 FFF7FEFF 		bl	dbg_check_unlock
 936              	.LBB7:
 937 002a 4FF00003 		mov	r3, #0
 938              	@ 251 "../../test/testsem.c" 1
 939 002e 83F31188 		msr     BASEPRI, r3
 940              	@ 0 "" 2
ARM GAS  /tmp/cc5RHCEG.s 			page 18


 941              		.thumb
 942              	.LBE7:
 943              		.loc 1 252 0 is_stmt 1 discriminator 2
 944 0032 4FF00003 		mov	r3, #0
 945              		.loc 1 253 0 discriminator 2
 946 0036 1846     		mov	r0, r3
 947 0038 03B0     		add	sp, sp, #12
 948 003a 00BD     		pop	{pc}
 949              		.cfi_endproc
 950              	.LFE16:
 951              		.size	thread4, .-thread4
 952 003c AFF30080 		.section	.text.sem4_execute,"ax",%progbits
 953              		.align	2
 954              		.p2align 4,,15
 955              		.thumb
 956              		.thumb_func
 957              		.type	sem4_execute, %function
 958              	sem4_execute:
 959              	.LFB17:
 960              		.loc 1 255 0
 961              		.cfi_startproc
 962              		@ args = 0, pretend = 0, frame = 16
 963              		@ frame_needed = 0, uses_anonymous_args = 0
 964 0000 00B5     		push	{lr}
 965              	.LCFI17:
 966              		.cfi_def_cfa_offset 4
 967              		.cfi_offset 14, -4
 968 0002 87B0     		sub	sp, sp, #28
 969              	.LCFI18:
 970              		.cfi_def_cfa_offset 32
 971              		.loc 1 259 0
 972 0004 03AB     		add	r3, sp, #12
 973 0006 1846     		mov	r0, r3
 974 0008 4FF00001 		mov	r1, #0
 975 000c FFF7FEFF 		bl	chSemInit
 976              		.loc 1 260 0
 977 0010 03AB     		add	r3, sp, #12
 978 0012 1846     		mov	r0, r3
 979 0014 4FF00001 		mov	r1, #0
 980 0018 FFF7FEFF 		bl	chSemReset
 981              		.loc 1 261 0
 982 001c 059B     		ldr	r3, [sp, #20]
 983 001e 002B     		cmp	r3, #0
 984 0020 CCBF     		ite	gt
 985 0022 0023     		movgt	r3, #0
 986 0024 0123     		movle	r3, #1
 987 0026 4FF00100 		mov	r0, #1
 988 002a 1946     		mov	r1, r3
 989 002c FFF7FEFF 		bl	_test_assert
 990 0030 0346     		mov	r3, r0
 991 0032 002B     		cmp	r3, #0
 992 0034 40F08D80 		bne	.L31
 993              	.L32:
 994              		.loc 1 264 0
 995 0038 40F20003 		movw	r3, #:lower16:wa
 996 003c C0F20003 		movt	r3, #:upper16:wa
 997 0040 1A68     		ldr	r2, [r3, #0]
ARM GAS  /tmp/cc5RHCEG.s 			page 19


 998              		.loc 1 265 0
 999 0042 40F20003 		movw	r3, #:lower16:rlist
 1000 0046 C0F20003 		movt	r3, #:upper16:rlist
 1001 004a 9B69     		ldr	r3, [r3, #24]
 1002 004c 9B68     		ldr	r3, [r3, #8]
 1003              		.loc 1 264 0
 1004 004e 03F1FF33 		add	r3, r3, #-1
 1005 0052 03A9     		add	r1, sp, #12
 1006 0054 0091     		str	r1, [sp, #0]
 1007 0056 1046     		mov	r0, r2
 1008 0058 4FF49871 		mov	r1, #304
 1009 005c 1A46     		mov	r2, r3
 1010 005e 40F20003 		movw	r3, #:lower16:thread4
 1011 0062 C0F20003 		movt	r3, #:upper16:thread4
 1012 0066 FFF7FEFF 		bl	chThdCreateStatic
 1013 006a 0246     		mov	r2, r0
 1014 006c 40F20003 		movw	r3, #:lower16:threads
 1015 0070 C0F20003 		movt	r3, #:upper16:threads
 1016 0074 1A60     		str	r2, [r3, #0]
 1017              		.loc 1 268 0
 1018 0076 03AB     		add	r3, sp, #12
 1019 0078 1846     		mov	r0, r3
 1020 007a FFF7FEFF 		bl	chSemWait
 1021              		.loc 1 271 0
 1022 007e 059B     		ldr	r3, [sp, #20]
 1023 0080 002B     		cmp	r3, #0
 1024 0082 CCBF     		ite	gt
 1025 0084 0023     		movgt	r3, #0
 1026 0086 0123     		movle	r3, #1
 1027 0088 4FF00200 		mov	r0, #2
 1028 008c 1946     		mov	r1, r3
 1029 008e FFF7FEFF 		bl	_test_assert
 1030 0092 0346     		mov	r3, r0
 1031 0094 002B     		cmp	r3, #0
 1032 0096 5CD1     		bne	.L31
 1033              	.L34:
 1034              	.LBB8:
 1035              		.loc 1 275 0
 1036 0098 4FF02003 		mov	r3, #32
 1037              	@ 275 "../../test/testsem.c" 1
 1038 009c 83F31188 		msr     BASEPRI, r3
 1039              	@ 0 "" 2
 1040              		.thumb
 1041              	.LBE8:
 1042 00a0 FFF7FEFF 		bl	dbg_check_lock
 1043 00a4 059B     		ldr	r3, [sp, #20]
 1044 00a6 002B     		cmp	r3, #0
 1045 00a8 03DC     		bgt	.L35
 1046              		.loc 1 275 0 is_stmt 0 discriminator 1
 1047 00aa 03AB     		add	r3, sp, #12
 1048 00ac 1846     		mov	r0, r3
 1049 00ae FFF7FEFF 		bl	chSemSignalI
 1050              	.L35:
 1051              		.loc 1 275 0 discriminator 2
 1052 00b2 FFF7FEFF 		bl	chSchRescheduleS
 1053 00b6 FFF7FEFF 		bl	dbg_check_unlock
 1054              	.LBB9:
ARM GAS  /tmp/cc5RHCEG.s 			page 20


 1055 00ba 4FF00003 		mov	r3, #0
 1056              	@ 275 "../../test/testsem.c" 1
 1057 00be 83F31188 		msr     BASEPRI, r3
 1058              	@ 0 "" 2
 1059              		.thumb
 1060              	.LBE9:
 1061              		.loc 1 276 0 is_stmt 1 discriminator 2
 1062 00c2 059B     		ldr	r3, [sp, #20]
 1063 00c4 002B     		cmp	r3, #0
 1064 00c6 D4BF     		ite	le
 1065 00c8 0023     		movle	r3, #0
 1066 00ca 0123     		movgt	r3, #1
 1067 00cc 4FF00300 		mov	r0, #3
 1068 00d0 1946     		mov	r1, r3
 1069 00d2 FFF7FEFF 		bl	_test_assert
 1070 00d6 0346     		mov	r3, r0
 1071 00d8 002B     		cmp	r3, #0
 1072 00da 3AD1     		bne	.L31
 1073              	.L36:
 1074              		.loc 1 277 0
 1075 00dc 059B     		ldr	r3, [sp, #20]
 1076 00de 012B     		cmp	r3, #1
 1077 00e0 14BF     		ite	ne
 1078 00e2 0023     		movne	r3, #0
 1079 00e4 0123     		moveq	r3, #1
 1080 00e6 4FF00400 		mov	r0, #4
 1081 00ea 1946     		mov	r1, r3
 1082 00ec FFF7FEFF 		bl	_test_assert
 1083 00f0 0346     		mov	r3, r0
 1084 00f2 002B     		cmp	r3, #0
 1085 00f4 2DD1     		bne	.L31
 1086              	.L37:
 1087              	.LBB10:
 1088              		.loc 1 280 0
 1089 00f6 4FF02003 		mov	r3, #32
 1090              	@ 280 "../../test/testsem.c" 1
 1091 00fa 83F31188 		msr     BASEPRI, r3
 1092              	@ 0 "" 2
 1093              		.thumb
 1094              	.LBE10:
 1095 00fe FFF7FEFF 		bl	dbg_check_lock
 1096 0102 059B     		ldr	r3, [sp, #20]
 1097 0104 002B     		cmp	r3, #0
 1098 0106 03DC     		bgt	.L38
 1099              		.loc 1 280 0 is_stmt 0 discriminator 1
 1100 0108 03AB     		add	r3, sp, #12
 1101 010a 1846     		mov	r0, r3
 1102 010c FFF7FEFF 		bl	chSemSignalI
 1103              	.L38:
 1104              		.loc 1 280 0 discriminator 2
 1105 0110 FFF7FEFF 		bl	chSchRescheduleS
 1106 0114 FFF7FEFF 		bl	dbg_check_unlock
 1107              	.LBB11:
 1108 0118 4FF00003 		mov	r3, #0
 1109              	@ 280 "../../test/testsem.c" 1
 1110 011c 83F31188 		msr     BASEPRI, r3
 1111              	@ 0 "" 2
ARM GAS  /tmp/cc5RHCEG.s 			page 21


 1112              		.thumb
 1113              	.LBE11:
 1114              		.loc 1 281 0 is_stmt 1 discriminator 2
 1115 0120 059B     		ldr	r3, [sp, #20]
 1116 0122 002B     		cmp	r3, #0
 1117 0124 D4BF     		ite	le
 1118 0126 0023     		movle	r3, #0
 1119 0128 0123     		movgt	r3, #1
 1120 012a 4FF00300 		mov	r0, #3
 1121 012e 1946     		mov	r1, r3
 1122 0130 FFF7FEFF 		bl	_test_assert
 1123 0134 0346     		mov	r3, r0
 1124 0136 002B     		cmp	r3, #0
 1125 0138 0BD1     		bne	.L31
 1126              	.L39:
 1127              		.loc 1 282 0
 1128 013a 059B     		ldr	r3, [sp, #20]
 1129 013c 012B     		cmp	r3, #1
 1130 013e 14BF     		ite	ne
 1131 0140 0023     		movne	r3, #0
 1132 0142 0123     		moveq	r3, #1
 1133 0144 4FF00500 		mov	r0, #5
 1134 0148 1946     		mov	r1, r3
 1135 014a FFF7FEFF 		bl	_test_assert
 1136 014e 0346     		mov	r3, r0
 1137 0150 002B     		cmp	r3, #0
 1138              	.L31:
 1139              		.loc 1 283 0
 1140 0152 07B0     		add	sp, sp, #28
 1141 0154 00BD     		pop	{pc}
 1142              		.cfi_endproc
 1143              	.LFE17:
 1144              		.size	sem4_execute, .-sem4_execute
 1145              		.global	testsem4
 1146 0156 00BFAFF3 		.section	.rodata
 1146      0080AFF3 
 1146      0080
 1147 0067 00       		.align	2
 1148              	.LC9:
 1149 0068 42696E61 		.ascii	"Binary Semaphores, functionality\000"
 1149      72792053 
 1149      656D6170 
 1149      686F7265 
 1149      732C2066 
 1150 0089 000000   		.section	.rodata.testsem4,"a",%progbits
 1151              		.align	2
 1152              		.type	testsem4, %object
 1153              		.size	testsem4, 16
 1154              	testsem4:
 1155 0000 68000000 		.word	.LC9
 1156 0004 00000000 		.word	0
 1157 0008 00000000 		.word	0
 1158 000c 00000000 		.word	sem4_execute
 1159              		.global	patternsem
 1160              		.section	.rodata.patternsem,"a",%progbits
 1161              		.align	2
 1162              		.type	patternsem, %object
ARM GAS  /tmp/cc5RHCEG.s 			page 22


 1163              		.size	patternsem, 20
 1164              	patternsem:
 1165 0000 00000000 		.word	testsem1
 1166 0004 00000000 		.word	testsem2
 1167 0008 00000000 		.word	testsem3
 1168 000c 00000000 		.word	testsem4
 1169 0010 00000000 		.word	0
 1170              		.text
 1171              	.Letext0:
 1172              		.file 2 "/home/texzk/ChibiStudio/tools/GNU Tools ARM Embedded/4.6 2012q2/bin/../lib/gcc/arm-none-e
 1173              		.file 3 "../../os/ports/GCC/ARMCMx/chtypes.h"
 1174              		.file 4 "../../os/kernel/include/chlists.h"
 1175              		.file 5 "../../os/kernel/include/chthreads.h"
 1176              		.file 6 "../../os/ports/GCC/ARMCMx/chcore_v7m.h"
 1177              		.file 7 "../../os/kernel/include/chvt.h"
 1178              		.file 8 "../../os/kernel/include/chschd.h"
 1179              		.file 9 "../../os/kernel/include/chsem.h"
 1180              		.file 10 "../../os/kernel/include/chbsem.h"
 1181              		.file 11 "../../os/kernel/include/chmtx.h"
 1182              		.file 12 "../../test/test.h"