ARM GAS  /tmp/cczJP3Bq.s 			page 1


   1              		.syntax unified
   2              		.cpu cortex-m3
   3              		.fpu softvfp
   4              		.eabi_attribute 20, 1
   5              		.eabi_attribute 21, 1
   6              		.eabi_attribute 23, 3
   7              		.eabi_attribute 24, 1
   8              		.eabi_attribute 25, 1
   9              		.eabi_attribute 26, 1
  10              		.eabi_attribute 30, 6
  11              		.eabi_attribute 34, 1
  12              		.eabi_attribute 18, 4
  13              		.thumb
  14              		.file	"test.c"
  15              		.text
  16              	.Ltext0:
  17              		.cfi_sections	.debug_frame
  18              		.section	.data.patterns,"aw",%progbits
  19              		.align	2
  20              		.type	patterns, %object
  21              		.size	patterns, 48
  22              	patterns:
  23 0000 00000000 		.word	patternthd
  24 0004 00000000 		.word	patternsem
  25 0008 00000000 		.word	patternmtx
  26 000c 00000000 		.word	patternmsg
  27 0010 00000000 		.word	patternmbox
  28 0014 00000000 		.word	patternevt
  29 0018 00000000 		.word	patternheap
  30 001c 00000000 		.word	patternpools
  31 0020 00000000 		.word	patterndyn
  32 0024 00000000 		.word	patternqueues
  33 0028 00000000 		.word	patternbmk
  34 002c 00000000 		.word	0
  35              		.section	.bss.local_fail,"aw",%nobits
  36              		.align	2
  37              		.type	local_fail, %object
  38              		.size	local_fail, 4
  39              	local_fail:
  40 0000 00000000 		.space	4
  41              		.section	.bss.global_fail,"aw",%nobits
  42              		.align	2
  43              		.type	global_fail, %object
  44              		.size	global_fail, 4
  45              	global_fail:
  46 0000 00000000 		.space	4
  47              		.section	.bss.failpoint,"aw",%nobits
  48              		.align	2
  49              		.type	failpoint, %object
  50              		.size	failpoint, 4
  51              	failpoint:
  52 0000 00000000 		.space	4
  53              		.section	.bss.tokens_buffer,"aw",%nobits
  54              		.align	2
  55              		.type	tokens_buffer, %object
  56              		.size	tokens_buffer, 16
  57              	tokens_buffer:
ARM GAS  /tmp/cczJP3Bq.s 			page 2


  58 0000 00000000 		.space	16
  58      00000000 
  58      00000000 
  58      00000000 
  59              		.section	.bss.tokp,"aw",%nobits
  60              		.align	2
  61              		.type	tokp, %object
  62              		.size	tokp, 4
  63              	tokp:
  64 0000 00000000 		.space	4
  65              		.global	test
  66              		.section	.bss.test,"aw",%nobits
  67              		.align	3
  68              		.type	test, %object
  69              		.size	test, 1520
  70              	test:
  71 0000 00000000 		.space	1520
  71      00000000 
  71      00000000 
  71      00000000 
  71      00000000 
  72              		.global	threads
  73              		.section	.bss.threads,"aw",%nobits
  74              		.align	2
  75              		.type	threads, %object
  76              		.size	threads, 20
  77              	threads:
  78 0000 00000000 		.space	20
  78      00000000 
  78      00000000 
  78      00000000 
  78      00000000 
  79              		.global	wa
  80              		.section	.rodata.wa,"a",%progbits
  81              		.align	2
  82              		.type	wa, %object
  83              		.size	wa, 20
  84              	wa:
  85 0000 00000000 		.word	test
  86 0004 30010000 		.word	test+304
  87 0008 60020000 		.word	test+608
  88 000c 90030000 		.word	test+912
  89 0010 C0040000 		.word	test+1216
  90              		.section	.bss.chp,"aw",%nobits
  91              		.align	2
  92              		.type	chp, %object
  93              		.size	chp, 4
  94              	chp:
  95 0000 00000000 		.space	4
  96              		.section	.text.test_printn,"ax",%progbits
  97              		.align	2
  98              		.p2align 4,,15
  99              		.global	test_printn
 100              		.thumb
 101              		.thumb_func
 102              		.type	test_printn, %function
 103              	test_printn:
ARM GAS  /tmp/cczJP3Bq.s 			page 3


 104              	.LFB63:
 105              		.file 1 "../../test/test.c"
 106              		.loc 1 95 0
 107              		.cfi_startproc
 108              		@ args = 0, pretend = 0, frame = 32
 109              		@ frame_needed = 0, uses_anonymous_args = 0
 110 0000 00B5     		push	{lr}
 111              	.LCFI0:
 112              		.cfi_def_cfa_offset 4
 113              		.cfi_offset 14, -4
 114 0002 89B0     		sub	sp, sp, #36
 115              	.LCFI1:
 116              		.cfi_def_cfa_offset 40
 117 0004 0190     		str	r0, [sp, #4]
 118              		.loc 1 98 0
 119 0006 019B     		ldr	r3, [sp, #4]
 120 0008 002B     		cmp	r3, #0
 121 000a 10D1     		bne	.L2
 122              		.loc 1 99 0
 123 000c 40F20003 		movw	r3, #:lower16:chp
 124 0010 C0F20003 		movt	r3, #:upper16:chp
 125 0014 1B68     		ldr	r3, [r3, #0]
 126 0016 1B68     		ldr	r3, [r3, #0]
 127 0018 9A68     		ldr	r2, [r3, #8]
 128 001a 40F20003 		movw	r3, #:lower16:chp
 129 001e C0F20003 		movt	r3, #:upper16:chp
 130 0022 1B68     		ldr	r3, [r3, #0]
 131 0024 1846     		mov	r0, r3
 132 0026 4FF03001 		mov	r1, #48
 133 002a 9047     		blx	r2
 134 002c 43E0     		b	.L1
 135              	.L2:
 136              		.loc 1 101 0
 137 002e 03AB     		add	r3, sp, #12
 138 0030 0793     		str	r3, [sp, #28]
 139              		.loc 1 102 0
 140 0032 23E0     		b	.L4
 141              	.L5:
 142              		.loc 1 103 0
 143 0034 0199     		ldr	r1, [sp, #4]
 144 0036 4CF6CD43 		movw	r3, #52429
 145 003a CCF6CC43 		movt	r3, 52428
 146 003e A3FB0123 		umull	r2, r3, r3, r1
 147 0042 4FEAD302 		lsr	r2, r3, #3
 148 0046 1346     		mov	r3, r2
 149 0048 4FEA8303 		lsl	r3, r3, #2
 150 004c 9B18     		adds	r3, r3, r2
 151 004e 4FEA4303 		lsl	r3, r3, #1
 152 0052 CA1A     		subs	r2, r1, r3
 153 0054 D3B2     		uxtb	r3, r2
 154 0056 03F13003 		add	r3, r3, #48
 155 005a DAB2     		uxtb	r2, r3
 156 005c 079B     		ldr	r3, [sp, #28]
 157 005e 1A70     		strb	r2, [r3, #0]
 158 0060 079B     		ldr	r3, [sp, #28]
 159 0062 03F10103 		add	r3, r3, #1
 160 0066 0793     		str	r3, [sp, #28]
ARM GAS  /tmp/cczJP3Bq.s 			page 4


 161 0068 019A     		ldr	r2, [sp, #4]
 162 006a 4CF6CD43 		movw	r3, #52429
 163 006e CCF6CC43 		movt	r3, 52428
 164 0072 A3FB0213 		umull	r1, r3, r3, r2
 165 0076 4FEAD303 		lsr	r3, r3, #3
 166 007a 0193     		str	r3, [sp, #4]
 167              	.L4:
 168              		.loc 1 102 0 discriminator 1
 169 007c 019B     		ldr	r3, [sp, #4]
 170 007e 002B     		cmp	r3, #0
 171 0080 D8D1     		bne	.L5
 172              		.loc 1 104 0
 173 0082 14E0     		b	.L6
 174              	.L7:
 175              		.loc 1 105 0
 176 0084 40F20003 		movw	r3, #:lower16:chp
 177 0088 C0F20003 		movt	r3, #:upper16:chp
 178 008c 1B68     		ldr	r3, [r3, #0]
 179 008e 1B68     		ldr	r3, [r3, #0]
 180 0090 9A68     		ldr	r2, [r3, #8]
 181 0092 40F20003 		movw	r3, #:lower16:chp
 182 0096 C0F20003 		movt	r3, #:upper16:chp
 183 009a 1968     		ldr	r1, [r3, #0]
 184 009c 079B     		ldr	r3, [sp, #28]
 185 009e 03F1FF33 		add	r3, r3, #-1
 186 00a2 0793     		str	r3, [sp, #28]
 187 00a4 079B     		ldr	r3, [sp, #28]
 188 00a6 1B78     		ldrb	r3, [r3, #0]	@ zero_extendqisi2
 189 00a8 0846     		mov	r0, r1
 190 00aa 1946     		mov	r1, r3
 191 00ac 9047     		blx	r2
 192              	.L6:
 193              		.loc 1 104 0 discriminator 1
 194 00ae 03AB     		add	r3, sp, #12
 195 00b0 079A     		ldr	r2, [sp, #28]
 196 00b2 9A42     		cmp	r2, r3
 197 00b4 E6D8     		bhi	.L7
 198              	.L1:
 199              		.loc 1 107 0
 200 00b6 09B0     		add	sp, sp, #36
 201 00b8 00BD     		pop	{pc}
 202              		.cfi_endproc
 203              	.LFE63:
 204              		.size	test_printn, .-test_printn
 205 00ba 00BFAFF3 		.section	.text.test_print,"ax",%progbits
 205      0080
 206              		.align	2
 207              		.p2align 4,,15
 208              		.global	test_print
 209              		.thumb
 210              		.thumb_func
 211              		.type	test_print, %function
 212              	test_print:
 213              	.LFB64:
 214              		.loc 1 114 0
 215              		.cfi_startproc
 216              		@ args = 0, pretend = 0, frame = 8
ARM GAS  /tmp/cczJP3Bq.s 			page 5


 217              		@ frame_needed = 0, uses_anonymous_args = 0
 218 0000 00B5     		push	{lr}
 219              	.LCFI2:
 220              		.cfi_def_cfa_offset 4
 221              		.cfi_offset 14, -4
 222 0002 83B0     		sub	sp, sp, #12
 223              	.LCFI3:
 224              		.cfi_def_cfa_offset 16
 225 0004 0190     		str	r0, [sp, #4]
 226              		.loc 1 116 0
 227 0006 14E0     		b	.L9
 228              	.L10:
 229              		.loc 1 117 0
 230 0008 40F20003 		movw	r3, #:lower16:chp
 231 000c C0F20003 		movt	r3, #:upper16:chp
 232 0010 1B68     		ldr	r3, [r3, #0]
 233 0012 1B68     		ldr	r3, [r3, #0]
 234 0014 9A68     		ldr	r2, [r3, #8]
 235 0016 40F20003 		movw	r3, #:lower16:chp
 236 001a C0F20003 		movt	r3, #:upper16:chp
 237 001e 1968     		ldr	r1, [r3, #0]
 238 0020 019B     		ldr	r3, [sp, #4]
 239 0022 1B78     		ldrb	r3, [r3, #0]	@ zero_extendqisi2
 240 0024 0198     		ldr	r0, [sp, #4]
 241 0026 00F10100 		add	r0, r0, #1
 242 002a 0190     		str	r0, [sp, #4]
 243 002c 0846     		mov	r0, r1
 244 002e 1946     		mov	r1, r3
 245 0030 9047     		blx	r2
 246              	.L9:
 247              		.loc 1 116 0 discriminator 1
 248 0032 019B     		ldr	r3, [sp, #4]
 249 0034 1B78     		ldrb	r3, [r3, #0]	@ zero_extendqisi2
 250 0036 002B     		cmp	r3, #0
 251 0038 E6D1     		bne	.L10
 252              		.loc 1 118 0
 253 003a 03B0     		add	sp, sp, #12
 254 003c 00BD     		pop	{pc}
 255              		.cfi_endproc
 256              	.LFE64:
 257              		.size	test_print, .-test_print
 258 003e 00BF     		.section	.rodata
 259              		.align	2
 260              	.LC0:
 261 0000 0D0A00   		.ascii	"\015\012\000"
 262              		.section	.text.test_println,"ax",%progbits
 263              		.align	2
 264              		.p2align 4,,15
 265              		.global	test_println
 266              		.thumb
 267              		.thumb_func
 268              		.type	test_println, %function
 269              	test_println:
 270              	.LFB65:
 271              		.loc 1 125 0
 272              		.cfi_startproc
 273              		@ args = 0, pretend = 0, frame = 8
ARM GAS  /tmp/cczJP3Bq.s 			page 6


 274              		@ frame_needed = 0, uses_anonymous_args = 0
 275 0000 10B5     		push	{r4, lr}
 276              	.LCFI4:
 277              		.cfi_def_cfa_offset 8
 278              		.cfi_offset 14, -4
 279              		.cfi_offset 4, -8
 280 0002 82B0     		sub	sp, sp, #8
 281              	.LCFI5:
 282              		.cfi_def_cfa_offset 16
 283 0004 0190     		str	r0, [sp, #4]
 284              		.loc 1 127 0
 285 0006 0198     		ldr	r0, [sp, #4]
 286 0008 FFF7FEFF 		bl	test_print
 287              		.loc 1 128 0
 288 000c 40F20003 		movw	r3, #:lower16:chp
 289 0010 C0F20003 		movt	r3, #:upper16:chp
 290 0014 1B68     		ldr	r3, [r3, #0]
 291 0016 1B68     		ldr	r3, [r3, #0]
 292 0018 1C68     		ldr	r4, [r3, #0]
 293 001a 40F20003 		movw	r3, #:lower16:chp
 294 001e C0F20003 		movt	r3, #:upper16:chp
 295 0022 1B68     		ldr	r3, [r3, #0]
 296 0024 1846     		mov	r0, r3
 297 0026 40F20001 		movw	r1, #:lower16:.LC0
 298 002a C0F20001 		movt	r1, #:upper16:.LC0
 299 002e 4FF00202 		mov	r2, #2
 300 0032 A047     		blx	r4
 301              		.loc 1 129 0
 302 0034 02B0     		add	sp, sp, #8
 303 0036 10BD     		pop	{r4, pc}
 304              		.cfi_endproc
 305              	.LFE65:
 306              		.size	test_println, .-test_println
 307 0038 AFF30080 		.section	.text.clear_tokens,"ax",%progbits
 307      AFF30080 
 308              		.align	2
 309              		.p2align 4,,15
 310              		.thumb
 311              		.thumb_func
 312              		.type	clear_tokens, %function
 313              	clear_tokens:
 314              	.LFB66:
 315              		.loc 1 134 0
 316              		.cfi_startproc
 317              		@ args = 0, pretend = 0, frame = 0
 318              		@ frame_needed = 0, uses_anonymous_args = 0
 319              		@ link register save eliminated.
 320              		.loc 1 136 0
 321 0000 40F20003 		movw	r3, #:lower16:tokp
 322 0004 C0F20003 		movt	r3, #:upper16:tokp
 323 0008 40F20002 		movw	r2, #:lower16:tokens_buffer
 324 000c C0F20002 		movt	r2, #:upper16:tokens_buffer
 325 0010 1A60     		str	r2, [r3, #0]
 326              		.loc 1 137 0
 327 0012 7047     		bx	lr
 328              		.cfi_endproc
 329              	.LFE66:
ARM GAS  /tmp/cczJP3Bq.s 			page 7


 330              		.size	clear_tokens, .-clear_tokens
 331 0014 AFF30080 		.section	.text.print_tokens,"ax",%progbits
 331      AFF30080 
 331      AFF30080 
 332              		.align	2
 333              		.p2align 4,,15
 334              		.thumb
 335              		.thumb_func
 336              		.type	print_tokens, %function
 337              	print_tokens:
 338              	.LFB67:
 339              		.loc 1 139 0
 340              		.cfi_startproc
 341              		@ args = 0, pretend = 0, frame = 8
 342              		@ frame_needed = 0, uses_anonymous_args = 0
 343 0000 00B5     		push	{lr}
 344              	.LCFI6:
 345              		.cfi_def_cfa_offset 4
 346              		.cfi_offset 14, -4
 347 0002 83B0     		sub	sp, sp, #12
 348              	.LCFI7:
 349              		.cfi_def_cfa_offset 16
 350              		.loc 1 140 0
 351 0004 40F20003 		movw	r3, #:lower16:tokens_buffer
 352 0008 C0F20003 		movt	r3, #:upper16:tokens_buffer
 353 000c 0193     		str	r3, [sp, #4]
 354              		.loc 1 142 0
 355 000e 14E0     		b	.L14
 356              	.L15:
 357              		.loc 1 143 0
 358 0010 40F20003 		movw	r3, #:lower16:chp
 359 0014 C0F20003 		movt	r3, #:upper16:chp
 360 0018 1B68     		ldr	r3, [r3, #0]
 361 001a 1B68     		ldr	r3, [r3, #0]
 362 001c 9A68     		ldr	r2, [r3, #8]
 363 001e 40F20003 		movw	r3, #:lower16:chp
 364 0022 C0F20003 		movt	r3, #:upper16:chp
 365 0026 1968     		ldr	r1, [r3, #0]
 366 0028 019B     		ldr	r3, [sp, #4]
 367 002a 1B78     		ldrb	r3, [r3, #0]	@ zero_extendqisi2
 368 002c 0198     		ldr	r0, [sp, #4]
 369 002e 00F10100 		add	r0, r0, #1
 370 0032 0190     		str	r0, [sp, #4]
 371 0034 0846     		mov	r0, r1
 372 0036 1946     		mov	r1, r3
 373 0038 9047     		blx	r2
 374              	.L14:
 375              		.loc 1 142 0 discriminator 1
 376 003a 40F20003 		movw	r3, #:lower16:tokp
 377 003e C0F20003 		movt	r3, #:upper16:tokp
 378 0042 1B68     		ldr	r3, [r3, #0]
 379 0044 019A     		ldr	r2, [sp, #4]
 380 0046 9A42     		cmp	r2, r3
 381 0048 E2D3     		bcc	.L15
 382              		.loc 1 144 0
 383 004a 03B0     		add	sp, sp, #12
 384 004c 00BD     		pop	{pc}
ARM GAS  /tmp/cczJP3Bq.s 			page 8


 385              		.cfi_endproc
 386              	.LFE67:
 387              		.size	print_tokens, .-print_tokens
 388 004e 00BF     		.section	.text.test_emit_token,"ax",%progbits
 389              		.align	2
 390              		.p2align 4,,15
 391              		.global	test_emit_token
 392              		.thumb
 393              		.thumb_func
 394              		.type	test_emit_token, %function
 395              	test_emit_token:
 396              	.LFB68:
 397              		.loc 1 151 0
 398              		.cfi_startproc
 399              		@ args = 0, pretend = 0, frame = 8
 400              		@ frame_needed = 0, uses_anonymous_args = 0
 401 0000 00B5     		push	{lr}
 402              	.LCFI8:
 403              		.cfi_def_cfa_offset 4
 404              		.cfi_offset 14, -4
 405 0002 83B0     		sub	sp, sp, #12
 406              	.LCFI9:
 407              		.cfi_def_cfa_offset 16
 408 0004 0346     		mov	r3, r0
 409 0006 8DF80730 		strb	r3, [sp, #7]
 410              	.LBB2:
 411              		.loc 1 153 0
 412 000a 4FF02003 		mov	r3, #32
 413              	@ 153 "../../test/test.c" 1
 414 000e 83F31188 		msr     BASEPRI, r3
 415              	@ 0 "" 2
 416              		.thumb
 417              	.LBE2:
 418 0012 FFF7FEFF 		bl	dbg_check_lock
 419              		.loc 1 154 0
 420 0016 40F20003 		movw	r3, #:lower16:tokp
 421 001a C0F20003 		movt	r3, #:upper16:tokp
 422 001e 1B68     		ldr	r3, [r3, #0]
 423 0020 9DF80720 		ldrb	r2, [sp, #7]
 424 0024 1A70     		strb	r2, [r3, #0]
 425 0026 03F10102 		add	r2, r3, #1
 426 002a 40F20003 		movw	r3, #:lower16:tokp
 427 002e C0F20003 		movt	r3, #:upper16:tokp
 428 0032 1A60     		str	r2, [r3, #0]
 429              		.loc 1 155 0
 430 0034 FFF7FEFF 		bl	dbg_check_unlock
 431              	.LBB3:
 432 0038 4FF00003 		mov	r3, #0
 433              	@ 155 "../../test/test.c" 1
 434 003c 83F31188 		msr     BASEPRI, r3
 435              	@ 0 "" 2
 436              		.thumb
 437              	.LBE3:
 438              		.loc 1 156 0
 439 0040 03B0     		add	sp, sp, #12
 440 0042 00BD     		pop	{pc}
 441              		.cfi_endproc
ARM GAS  /tmp/cczJP3Bq.s 			page 9


 442              	.LFE68:
 443              		.size	test_emit_token, .-test_emit_token
 444 0044 AFF30080 		.section	.text._test_fail,"ax",%progbits
 444      AFF30080 
 444      AFF30080 
 445              		.align	2
 446              		.p2align 4,,15
 447              		.global	_test_fail
 448              		.thumb
 449              		.thumb_func
 450              		.type	_test_fail, %function
 451              	_test_fail:
 452              	.LFB69:
 453              		.loc 1 161 0
 454              		.cfi_startproc
 455              		@ args = 0, pretend = 0, frame = 8
 456              		@ frame_needed = 0, uses_anonymous_args = 0
 457              		@ link register save eliminated.
 458 0000 82B0     		sub	sp, sp, #8
 459              	.LCFI10:
 460              		.cfi_def_cfa_offset 8
 461 0002 0190     		str	r0, [sp, #4]
 462              		.loc 1 163 0
 463 0004 40F20003 		movw	r3, #:lower16:local_fail
 464 0008 C0F20003 		movt	r3, #:upper16:local_fail
 465 000c 4FF00102 		mov	r2, #1
 466 0010 1A60     		str	r2, [r3, #0]
 467              		.loc 1 164 0
 468 0012 40F20003 		movw	r3, #:lower16:global_fail
 469 0016 C0F20003 		movt	r3, #:upper16:global_fail
 470 001a 4FF00102 		mov	r2, #1
 471 001e 1A60     		str	r2, [r3, #0]
 472              		.loc 1 165 0
 473 0020 40F20003 		movw	r3, #:lower16:failpoint
 474 0024 C0F20003 		movt	r3, #:upper16:failpoint
 475 0028 019A     		ldr	r2, [sp, #4]
 476 002a 1A60     		str	r2, [r3, #0]
 477              		.loc 1 166 0
 478 002c 4FF00103 		mov	r3, #1
 479              		.loc 1 167 0
 480 0030 1846     		mov	r0, r3
 481 0032 02B0     		add	sp, sp, #8
 482 0034 7047     		bx	lr
 483              		.cfi_endproc
 484              	.LFE69:
 485              		.size	_test_fail, .-_test_fail
 486 0036 00BFAFF3 		.section	.text._test_assert,"ax",%progbits
 486      0080AFF3 
 486      0080
 487              		.align	2
 488              		.p2align 4,,15
 489              		.global	_test_assert
 490              		.thumb
 491              		.thumb_func
 492              		.type	_test_assert, %function
 493              	_test_assert:
 494              	.LFB70:
ARM GAS  /tmp/cczJP3Bq.s 			page 10


 495              		.loc 1 169 0
 496              		.cfi_startproc
 497              		@ args = 0, pretend = 0, frame = 8
 498              		@ frame_needed = 0, uses_anonymous_args = 0
 499 0000 00B5     		push	{lr}
 500              	.LCFI11:
 501              		.cfi_def_cfa_offset 4
 502              		.cfi_offset 14, -4
 503 0002 83B0     		sub	sp, sp, #12
 504              	.LCFI12:
 505              		.cfi_def_cfa_offset 16
 506 0004 0190     		str	r0, [sp, #4]
 507 0006 0091     		str	r1, [sp, #0]
 508              		.loc 1 171 0
 509 0008 009B     		ldr	r3, [sp, #0]
 510 000a 002B     		cmp	r3, #0
 511 000c 04D1     		bne	.L19
 512              		.loc 1 172 0
 513 000e 0198     		ldr	r0, [sp, #4]
 514 0010 FFF7FEFF 		bl	_test_fail
 515 0014 0346     		mov	r3, r0
 516 0016 01E0     		b	.L20
 517              	.L19:
 518              		.loc 1 173 0
 519 0018 4FF00003 		mov	r3, #0
 520              	.L20:
 521              		.loc 1 174 0
 522 001c 1846     		mov	r0, r3
 523 001e 03B0     		add	sp, sp, #12
 524 0020 00BD     		pop	{pc}
 525              		.cfi_endproc
 526              	.LFE70:
 527              		.size	_test_assert, .-_test_assert
 528 0022 00BFAFF3 		.section	.text._test_assert_sequence,"ax",%progbits
 528      0080AFF3 
 528      0080AFF3 
 528      0080
 529              		.align	2
 530              		.p2align 4,,15
 531              		.global	_test_assert_sequence
 532              		.thumb
 533              		.thumb_func
 534              		.type	_test_assert_sequence, %function
 535              	_test_assert_sequence:
 536              	.LFB71:
 537              		.loc 1 176 0
 538              		.cfi_startproc
 539              		@ args = 0, pretend = 0, frame = 16
 540              		@ frame_needed = 0, uses_anonymous_args = 0
 541 0000 00B5     		push	{lr}
 542              	.LCFI13:
 543              		.cfi_def_cfa_offset 4
 544              		.cfi_offset 14, -4
 545 0002 85B0     		sub	sp, sp, #20
 546              	.LCFI14:
 547              		.cfi_def_cfa_offset 24
 548 0004 0190     		str	r0, [sp, #4]
ARM GAS  /tmp/cczJP3Bq.s 			page 11


 549 0006 0091     		str	r1, [sp, #0]
 550              		.loc 1 177 0
 551 0008 40F20003 		movw	r3, #:lower16:tokens_buffer
 552 000c C0F20003 		movt	r3, #:upper16:tokens_buffer
 553 0010 0393     		str	r3, [sp, #12]
 554              		.loc 1 178 0
 555 0012 17E0     		b	.L22
 556              	.L24:
 557              		.loc 1 179 0
 558 0014 039B     		ldr	r3, [sp, #12]
 559 0016 1A78     		ldrb	r2, [r3, #0]	@ zero_extendqisi2
 560 0018 009B     		ldr	r3, [sp, #0]
 561 001a 1B78     		ldrb	r3, [r3, #0]	@ zero_extendqisi2
 562 001c 9A42     		cmp	r2, r3
 563 001e 0CBF     		ite	eq
 564 0020 0023     		moveq	r3, #0
 565 0022 0123     		movne	r3, #1
 566 0024 DBB2     		uxtb	r3, r3
 567 0026 039A     		ldr	r2, [sp, #12]
 568 0028 02F10102 		add	r2, r2, #1
 569 002c 0392     		str	r2, [sp, #12]
 570 002e 009A     		ldr	r2, [sp, #0]
 571 0030 02F10102 		add	r2, r2, #1
 572 0034 0092     		str	r2, [sp, #0]
 573 0036 002B     		cmp	r3, #0
 574 0038 04D0     		beq	.L22
 575              		.loc 1 180 0
 576 003a 0198     		ldr	r0, [sp, #4]
 577 003c FFF7FEFF 		bl	_test_fail
 578 0040 0346     		mov	r3, r0
 579 0042 14E0     		b	.L23
 580              	.L22:
 581              		.loc 1 178 0 discriminator 1
 582 0044 40F20003 		movw	r3, #:lower16:tokp
 583 0048 C0F20003 		movt	r3, #:upper16:tokp
 584 004c 1B68     		ldr	r3, [r3, #0]
 585 004e 039A     		ldr	r2, [sp, #12]
 586 0050 9A42     		cmp	r2, r3
 587 0052 DFD3     		bcc	.L24
 588              		.loc 1 182 0
 589 0054 009B     		ldr	r3, [sp, #0]
 590 0056 1B78     		ldrb	r3, [r3, #0]	@ zero_extendqisi2
 591 0058 002B     		cmp	r3, #0
 592 005a 04D0     		beq	.L25
 593              		.loc 1 183 0
 594 005c 0198     		ldr	r0, [sp, #4]
 595 005e FFF7FEFF 		bl	_test_fail
 596 0062 0346     		mov	r3, r0
 597 0064 03E0     		b	.L23
 598              	.L25:
 599              		.loc 1 184 0
 600 0066 FFF7FEFF 		bl	clear_tokens
 601              		.loc 1 185 0
 602 006a 4FF00003 		mov	r3, #0
 603              	.L23:
 604              		.loc 1 186 0
 605 006e 1846     		mov	r0, r3
ARM GAS  /tmp/cczJP3Bq.s 			page 12


 606 0070 05B0     		add	sp, sp, #20
 607 0072 00BD     		pop	{pc}
 608              		.cfi_endproc
 609              	.LFE71:
 610              		.size	_test_assert_sequence, .-_test_assert_sequence
 611 0074 AFF30080 		.section	.text._test_assert_time_window,"ax",%progbits
 611      AFF30080 
 611      AFF30080 
 612              		.align	2
 613              		.p2align 4,,15
 614              		.global	_test_assert_time_window
 615              		.thumb
 616              		.thumb_func
 617              		.type	_test_assert_time_window, %function
 618              	_test_assert_time_window:
 619              	.LFB72:
 620              		.loc 1 188 0
 621              		.cfi_startproc
 622              		@ args = 0, pretend = 0, frame = 16
 623              		@ frame_needed = 0, uses_anonymous_args = 0
 624 0000 00B5     		push	{lr}
 625              	.LCFI15:
 626              		.cfi_def_cfa_offset 4
 627              		.cfi_offset 14, -4
 628 0002 85B0     		sub	sp, sp, #20
 629              	.LCFI16:
 630              		.cfi_def_cfa_offset 24
 631 0004 0390     		str	r0, [sp, #12]
 632 0006 0291     		str	r1, [sp, #8]
 633 0008 0192     		str	r2, [sp, #4]
 634              		.loc 1 190 0
 635 000a 0298     		ldr	r0, [sp, #8]
 636 000c 0199     		ldr	r1, [sp, #4]
 637 000e FFF7FEFF 		bl	chTimeIsWithin
 638 0012 0346     		mov	r3, r0
 639 0014 0398     		ldr	r0, [sp, #12]
 640 0016 1946     		mov	r1, r3
 641 0018 FFF7FEFF 		bl	_test_assert
 642 001c 0346     		mov	r3, r0
 643              		.loc 1 191 0
 644 001e 1846     		mov	r0, r3
 645 0020 05B0     		add	sp, sp, #20
 646 0022 00BD     		pop	{pc}
 647              		.cfi_endproc
 648              	.LFE72:
 649              		.size	_test_assert_time_window, .-_test_assert_time_window
 650 0024 AFF30080 		.section	.text.test_terminate_threads,"ax",%progbits
 650      AFF30080 
 650      AFF30080 
 651              		.align	2
 652              		.p2align 4,,15
 653              		.global	test_terminate_threads
 654              		.thumb
 655              		.thumb_func
 656              		.type	test_terminate_threads, %function
 657              	test_terminate_threads:
 658              	.LFB73:
ARM GAS  /tmp/cczJP3Bq.s 			page 13


 659              		.loc 1 200 0
 660              		.cfi_startproc
 661              		@ args = 0, pretend = 0, frame = 8
 662              		@ frame_needed = 0, uses_anonymous_args = 0
 663 0000 00B5     		push	{lr}
 664              	.LCFI17:
 665              		.cfi_def_cfa_offset 4
 666              		.cfi_offset 14, -4
 667 0002 83B0     		sub	sp, sp, #12
 668              	.LCFI18:
 669              		.cfi_def_cfa_offset 16
 670              		.loc 1 203 0
 671 0004 4FF00003 		mov	r3, #0
 672 0008 0193     		str	r3, [sp, #4]
 673 000a 16E0     		b	.L28
 674              	.L30:
 675              		.loc 1 204 0
 676 000c 40F20003 		movw	r3, #:lower16:threads
 677 0010 C0F20003 		movt	r3, #:upper16:threads
 678 0014 019A     		ldr	r2, [sp, #4]
 679 0016 53F82230 		ldr	r3, [r3, r2, lsl #2]
 680 001a 002B     		cmp	r3, #0
 681 001c 09D0     		beq	.L29
 682              		.loc 1 205 0
 683 001e 40F20003 		movw	r3, #:lower16:threads
 684 0022 C0F20003 		movt	r3, #:upper16:threads
 685 0026 019A     		ldr	r2, [sp, #4]
 686 0028 53F82230 		ldr	r3, [r3, r2, lsl #2]
 687 002c 1846     		mov	r0, r3
 688 002e FFF7FEFF 		bl	chThdTerminate
 689              	.L29:
 690              		.loc 1 203 0
 691 0032 019B     		ldr	r3, [sp, #4]
 692 0034 03F10103 		add	r3, r3, #1
 693 0038 0193     		str	r3, [sp, #4]
 694              	.L28:
 695              		.loc 1 203 0 is_stmt 0 discriminator 1
 696 003a 019B     		ldr	r3, [sp, #4]
 697 003c 042B     		cmp	r3, #4
 698 003e E5DD     		ble	.L30
 699              		.loc 1 206 0 is_stmt 1
 700 0040 03B0     		add	sp, sp, #12
 701 0042 00BD     		pop	{pc}
 702              		.cfi_endproc
 703              	.LFE73:
 704              		.size	test_terminate_threads, .-test_terminate_threads
 705 0044 AFF30080 		.section	.text.test_wait_threads,"ax",%progbits
 705      AFF30080 
 705      AFF30080 
 706              		.align	2
 707              		.p2align 4,,15
 708              		.global	test_wait_threads
 709              		.thumb
 710              		.thumb_func
 711              		.type	test_wait_threads, %function
 712              	test_wait_threads:
 713              	.LFB74:
ARM GAS  /tmp/cczJP3Bq.s 			page 14


 714              		.loc 1 211 0
 715              		.cfi_startproc
 716              		@ args = 0, pretend = 0, frame = 8
 717              		@ frame_needed = 0, uses_anonymous_args = 0
 718 0000 00B5     		push	{lr}
 719              	.LCFI19:
 720              		.cfi_def_cfa_offset 4
 721              		.cfi_offset 14, -4
 722 0002 83B0     		sub	sp, sp, #12
 723              	.LCFI20:
 724              		.cfi_def_cfa_offset 16
 725              		.loc 1 214 0
 726 0004 4FF00003 		mov	r3, #0
 727 0008 0193     		str	r3, [sp, #4]
 728 000a 1FE0     		b	.L32
 729              	.L34:
 730              		.loc 1 215 0
 731 000c 40F20003 		movw	r3, #:lower16:threads
 732 0010 C0F20003 		movt	r3, #:upper16:threads
 733 0014 019A     		ldr	r2, [sp, #4]
 734 0016 53F82230 		ldr	r3, [r3, r2, lsl #2]
 735 001a 002B     		cmp	r3, #0
 736 001c 12D0     		beq	.L33
 737              		.loc 1 216 0
 738 001e 40F20003 		movw	r3, #:lower16:threads
 739 0022 C0F20003 		movt	r3, #:upper16:threads
 740 0026 019A     		ldr	r2, [sp, #4]
 741 0028 53F82230 		ldr	r3, [r3, r2, lsl #2]
 742 002c 1846     		mov	r0, r3
 743 002e FFF7FEFF 		bl	chThdWait
 744              		.loc 1 217 0
 745 0032 40F20003 		movw	r3, #:lower16:threads
 746 0036 C0F20003 		movt	r3, #:upper16:threads
 747 003a 019A     		ldr	r2, [sp, #4]
 748 003c 4FF00001 		mov	r1, #0
 749 0040 43F82210 		str	r1, [r3, r2, lsl #2]
 750              	.L33:
 751              		.loc 1 214 0
 752 0044 019B     		ldr	r3, [sp, #4]
 753 0046 03F10103 		add	r3, r3, #1
 754 004a 0193     		str	r3, [sp, #4]
 755              	.L32:
 756              		.loc 1 214 0 is_stmt 0 discriminator 1
 757 004c 019B     		ldr	r3, [sp, #4]
 758 004e 042B     		cmp	r3, #4
 759 0050 DCDD     		ble	.L34
 760              		.loc 1 219 0 is_stmt 1
 761 0052 03B0     		add	sp, sp, #12
 762 0054 00BD     		pop	{pc}
 763              		.cfi_endproc
 764              	.LFE74:
 765              		.size	test_wait_threads, .-test_wait_threads
 766 0056 00BFAFF3 		.section	.text.test_cpu_pulse,"ax",%progbits
 766      0080AFF3 
 766      0080
 767              		.align	2
 768              		.p2align 4,,15
ARM GAS  /tmp/cczJP3Bq.s 			page 15


 769              		.global	test_cpu_pulse
 770              		.thumb
 771              		.thumb_func
 772              		.type	test_cpu_pulse, %function
 773              	test_cpu_pulse:
 774              	.LFB75:
 775              		.loc 1 228 0
 776              		.cfi_startproc
 777              		@ args = 0, pretend = 0, frame = 24
 778              		@ frame_needed = 0, uses_anonymous_args = 0
 779              		@ link register save eliminated.
 780 0000 86B0     		sub	sp, sp, #24
 781              	.LCFI21:
 782              		.cfi_def_cfa_offset 24
 783 0002 0190     		str	r0, [sp, #4]
 784              		.loc 1 231 0
 785 0004 40F20003 		movw	r3, #:lower16:rlist
 786 0008 C0F20003 		movt	r3, #:upper16:rlist
 787 000c 9B69     		ldr	r3, [r3, #24]
 788 000e 5B6A     		ldr	r3, [r3, #36]
 789 0010 0593     		str	r3, [sp, #20]
 790              		.loc 1 232 0
 791 0012 019B     		ldr	r3, [sp, #4]
 792 0014 4FF47A72 		mov	r2, #1000
 793 0018 02FB03F3 		mul	r3, r2, r3
 794 001c A3F57A72 		sub	r2, r3, #1000
 795 0020 44F6D353 		movw	r3, #19923
 796 0024 C1F26203 		movt	r3, 4194
 797 0028 A3FB0213 		umull	r1, r3, r3, r2
 798 002c 4FEA9312 		lsr	r2, r3, #6
 799 0030 059B     		ldr	r3, [sp, #20]
 800 0032 D318     		adds	r3, r2, r3
 801 0034 03F10103 		add	r3, r3, #1
 802 0038 0493     		str	r3, [sp, #16]
 803              	.L43:
 804              		.loc 1 234 0
 805 003a 40F20003 		movw	r3, #:lower16:rlist
 806 003e C0F20003 		movt	r3, #:upper16:rlist
 807 0042 9B69     		ldr	r3, [r3, #24]
 808 0044 5B6A     		ldr	r3, [r3, #36]
 809 0046 0393     		str	r3, [sp, #12]
 810              		.loc 1 239 0
 811 0048 049A     		ldr	r2, [sp, #16]
 812 004a 059B     		ldr	r3, [sp, #20]
 813 004c 9A42     		cmp	r2, r3
 814 004e 0ED9     		bls	.L36
 815              		.loc 1 239 0 is_stmt 0 discriminator 1
 816 0050 039A     		ldr	r2, [sp, #12]
 817 0052 059B     		ldr	r3, [sp, #20]
 818 0054 9A42     		cmp	r2, r3
 819 0056 06D3     		bcc	.L37
 820              		.loc 1 239 0 discriminator 3
 821 0058 039A     		ldr	r2, [sp, #12]
 822 005a 049B     		ldr	r3, [sp, #16]
 823 005c 9A42     		cmp	r2, r3
 824 005e 02D2     		bcs	.L37
 825              		.loc 1 239 0 discriminator 1
ARM GAS  /tmp/cczJP3Bq.s 			page 16


 826 0060 4FF00103 		mov	r3, #1
 827 0064 01E0     		b	.L38
 828              	.L37:
 829              		.loc 1 239 0 discriminator 4
 830 0066 4FF00003 		mov	r3, #0
 831              	.L38:
 832              		.loc 1 239 0 discriminator 5
 833 006a DBB2     		uxtb	r3, r3
 834 006c 0DE0     		b	.L39
 835              	.L36:
 836              		.loc 1 239 0 discriminator 2
 837 006e 039A     		ldr	r2, [sp, #12]
 838 0070 059B     		ldr	r3, [sp, #20]
 839 0072 9A42     		cmp	r2, r3
 840 0074 03D2     		bcs	.L40
 841              		.loc 1 240 0 is_stmt 1
 842 0076 039A     		ldr	r2, [sp, #12]
 843 0078 049B     		ldr	r3, [sp, #16]
 844 007a 9A42     		cmp	r2, r3
 845 007c 02D2     		bcs	.L41
 846              	.L40:
 847              		.loc 1 239 0 discriminator 6
 848 007e 4FF00103 		mov	r3, #1
 849 0082 01E0     		b	.L42
 850              	.L41:
 851              		.loc 1 239 0 is_stmt 0
 852 0084 4FF00003 		mov	r3, #0
 853              	.L42:
 854              		.loc 1 239 0 discriminator 7
 855 0088 DBB2     		uxtb	r3, r3
 856              	.L39:
 857              		.loc 1 240 0 is_stmt 1
 858 008a 002B     		cmp	r3, #0
 859 008c D5D1     		bne	.L43
 860              		.loc 1 241 0
 861 008e 06B0     		add	sp, sp, #24
 862 0090 7047     		bx	lr
 863              		.cfi_endproc
 864              	.LFE75:
 865              		.size	test_cpu_pulse, .-test_cpu_pulse
 866 0092 00BFAFF3 		.section	.text.test_wait_tick,"ax",%progbits
 866      0080AFF3 
 866      0080AFF3 
 866      0080
 867              		.align	2
 868              		.p2align 4,,15
 869              		.global	test_wait_tick
 870              		.thumb
 871              		.thumb_func
 872              		.type	test_wait_tick, %function
 873              	test_wait_tick:
 874              	.LFB76:
 875              		.loc 1 249 0
 876              		.cfi_startproc
 877              		@ args = 0, pretend = 0, frame = 0
 878              		@ frame_needed = 0, uses_anonymous_args = 0
 879 0000 08B5     		push	{r3, lr}
ARM GAS  /tmp/cczJP3Bq.s 			page 17


 880              	.LCFI22:
 881              		.cfi_def_cfa_offset 8
 882              		.cfi_offset 14, -4
 883              		.cfi_offset 3, -8
 884              		.loc 1 251 0
 885 0002 4FF00100 		mov	r0, #1
 886 0006 FFF7FEFF 		bl	chThdSleep
 887              		.loc 1 252 0
 888 000a 40F20003 		movw	r3, #:lower16:vtlist
 889 000e C0F20003 		movt	r3, #:upper16:vtlist
 890 0012 DB68     		ldr	r3, [r3, #12]
 891              		.loc 1 253 0
 892 0014 1846     		mov	r0, r3
 893 0016 08BD     		pop	{r3, pc}
 894              		.cfi_endproc
 895              	.LFE76:
 896              		.size	test_wait_tick, .-test_wait_tick
 897              		.global	test_timer_done
 898 0018 AFF30080 		.section	.bss.test_timer_done,"aw",%nobits
 898      AFF30080 
 899              		.align	2
 900              		.type	test_timer_done, %object
 901              		.size	test_timer_done, 4
 902              	test_timer_done:
 903 0000 00000000 		.space	4
 904              		.section	.bss.vt,"aw",%nobits
 905              		.align	2
 906              		.type	vt, %object
 907              		.size	vt, 20
 908              	vt:
 909 0000 00000000 		.space	20
 909      00000000 
 909      00000000 
 909      00000000 
 909      00000000 
 910              		.section	.text.tmr,"ax",%progbits
 911              		.align	2
 912              		.p2align 4,,15
 913              		.thumb
 914              		.thumb_func
 915              		.type	tmr, %function
 916              	tmr:
 917              	.LFB77:
 918              		.loc 1 265 0
 919              		.cfi_startproc
 920              		@ args = 0, pretend = 0, frame = 8
 921              		@ frame_needed = 0, uses_anonymous_args = 0
 922              		@ link register save eliminated.
 923 0000 82B0     		sub	sp, sp, #8
 924              	.LCFI23:
 925              		.cfi_def_cfa_offset 8
 926 0002 0190     		str	r0, [sp, #4]
 927              		.loc 1 268 0
 928 0004 40F20003 		movw	r3, #:lower16:test_timer_done
 929 0008 C0F20003 		movt	r3, #:upper16:test_timer_done
 930 000c 4FF00102 		mov	r2, #1
 931 0010 1A60     		str	r2, [r3, #0]
ARM GAS  /tmp/cczJP3Bq.s 			page 18


 932              		.loc 1 269 0
 933 0012 02B0     		add	sp, sp, #8
 934 0014 7047     		bx	lr
 935              		.cfi_endproc
 936              	.LFE77:
 937              		.size	tmr, .-tmr
 938 0016 00BFAFF3 		.section	.text.test_start_timer,"ax",%progbits
 938      0080AFF3 
 938      0080
 939              		.align	2
 940              		.p2align 4,,15
 941              		.global	test_start_timer
 942              		.thumb
 943              		.thumb_func
 944              		.type	test_start_timer, %function
 945              	test_start_timer:
 946              	.LFB78:
 947              		.loc 1 276 0
 948              		.cfi_startproc
 949              		@ args = 0, pretend = 0, frame = 16
 950              		@ frame_needed = 0, uses_anonymous_args = 0
 951 0000 00B5     		push	{lr}
 952              	.LCFI24:
 953              		.cfi_def_cfa_offset 4
 954              		.cfi_offset 14, -4
 955 0002 85B0     		sub	sp, sp, #20
 956              	.LCFI25:
 957              		.cfi_def_cfa_offset 24
 958 0004 0190     		str	r0, [sp, #4]
 959              		.loc 1 278 0
 960 0006 019B     		ldr	r3, [sp, #4]
 961 0008 4FF47A72 		mov	r2, #1000
 962 000c 02FB03F3 		mul	r3, r2, r3
 963 0010 A3F57A72 		sub	r2, r3, #1000
 964 0014 44F6D353 		movw	r3, #19923
 965 0018 C1F26203 		movt	r3, 4194
 966 001c A3FB0213 		umull	r1, r3, r3, r2
 967 0020 4FEA9313 		lsr	r3, r3, #6
 968 0024 03F10103 		add	r3, r3, #1
 969 0028 0393     		str	r3, [sp, #12]
 970              		.loc 1 279 0
 971 002a 40F20003 		movw	r3, #:lower16:test_timer_done
 972 002e C0F20003 		movt	r3, #:upper16:test_timer_done
 973 0032 4FF00002 		mov	r2, #0
 974 0036 1A60     		str	r2, [r3, #0]
 975              	.LBB4:
 976              		.loc 1 280 0
 977 0038 4FF02003 		mov	r3, #32
 978              	@ 280 "../../test/test.c" 1
 979 003c 83F31188 		msr     BASEPRI, r3
 980              	@ 0 "" 2
 981              		.thumb
 982              	.LBE4:
 983 0040 FFF7FEFF 		bl	dbg_check_lock
 984 0044 40F20000 		movw	r0, #:lower16:vt
 985 0048 C0F20000 		movt	r0, #:upper16:vt
 986 004c 0399     		ldr	r1, [sp, #12]
ARM GAS  /tmp/cczJP3Bq.s 			page 19


 987 004e 40F20002 		movw	r2, #:lower16:tmr
 988 0052 C0F20002 		movt	r2, #:upper16:tmr
 989 0056 4FF00003 		mov	r3, #0
 990 005a FFF7FEFF 		bl	chVTSetI
 991 005e FFF7FEFF 		bl	dbg_check_unlock
 992              	.LBB5:
 993 0062 4FF00003 		mov	r3, #0
 994              	@ 280 "../../test/test.c" 1
 995 0066 83F31188 		msr     BASEPRI, r3
 996              	@ 0 "" 2
 997              		.thumb
 998              	.LBE5:
 999              		.loc 1 281 0
 1000 006a 05B0     		add	sp, sp, #20
 1001 006c 00BD     		pop	{pc}
 1002              		.cfi_endproc
 1003              	.LFE78:
 1004              		.size	test_start_timer, .-test_start_timer
 1005 006e 00BF     		.section	.text.execute_test,"ax",%progbits
 1006              		.align	2
 1007              		.p2align 4,,15
 1008              		.thumb
 1009              		.thumb_func
 1010              		.type	execute_test, %function
 1011              	execute_test:
 1012              	.LFB79:
 1013              		.loc 1 286 0
 1014              		.cfi_startproc
 1015              		@ args = 0, pretend = 0, frame = 16
 1016              		@ frame_needed = 0, uses_anonymous_args = 0
 1017 0000 00B5     		push	{lr}
 1018              	.LCFI26:
 1019              		.cfi_def_cfa_offset 4
 1020              		.cfi_offset 14, -4
 1021 0002 85B0     		sub	sp, sp, #20
 1022              	.LCFI27:
 1023              		.cfi_def_cfa_offset 24
 1024 0004 0190     		str	r0, [sp, #4]
 1025              		.loc 1 290 0
 1026 0006 FFF7FEFF 		bl	clear_tokens
 1027              		.loc 1 291 0
 1028 000a 40F20003 		movw	r3, #:lower16:local_fail
 1029 000e C0F20003 		movt	r3, #:upper16:local_fail
 1030 0012 4FF00002 		mov	r2, #0
 1031 0016 1A60     		str	r2, [r3, #0]
 1032              		.loc 1 292 0
 1033 0018 4FF00003 		mov	r3, #0
 1034 001c 0393     		str	r3, [sp, #12]
 1035 001e 0CE0     		b	.L48
 1036              	.L49:
 1037              		.loc 1 293 0 discriminator 2
 1038 0020 40F20003 		movw	r3, #:lower16:threads
 1039 0024 C0F20003 		movt	r3, #:upper16:threads
 1040 0028 039A     		ldr	r2, [sp, #12]
 1041 002a 4FF00001 		mov	r1, #0
 1042 002e 43F82210 		str	r1, [r3, r2, lsl #2]
 1043              		.loc 1 292 0 discriminator 2
ARM GAS  /tmp/cczJP3Bq.s 			page 20


 1044 0032 039B     		ldr	r3, [sp, #12]
 1045 0034 03F10103 		add	r3, r3, #1
 1046 0038 0393     		str	r3, [sp, #12]
 1047              	.L48:
 1048              		.loc 1 292 0 is_stmt 0 discriminator 1
 1049 003a 039B     		ldr	r3, [sp, #12]
 1050 003c 042B     		cmp	r3, #4
 1051 003e EFDD     		ble	.L49
 1052              		.loc 1 295 0 is_stmt 1
 1053 0040 019B     		ldr	r3, [sp, #4]
 1054 0042 5B68     		ldr	r3, [r3, #4]
 1055 0044 002B     		cmp	r3, #0
 1056 0046 02D0     		beq	.L50
 1057              		.loc 1 296 0
 1058 0048 019B     		ldr	r3, [sp, #4]
 1059 004a 5B68     		ldr	r3, [r3, #4]
 1060 004c 9847     		blx	r3
 1061              	.L50:
 1062              		.loc 1 297 0
 1063 004e 019B     		ldr	r3, [sp, #4]
 1064 0050 DB68     		ldr	r3, [r3, #12]
 1065 0052 9847     		blx	r3
 1066              		.loc 1 298 0
 1067 0054 019B     		ldr	r3, [sp, #4]
 1068 0056 9B68     		ldr	r3, [r3, #8]
 1069 0058 002B     		cmp	r3, #0
 1070 005a 02D0     		beq	.L51
 1071              		.loc 1 299 0
 1072 005c 019B     		ldr	r3, [sp, #4]
 1073 005e 9B68     		ldr	r3, [r3, #8]
 1074 0060 9847     		blx	r3
 1075              	.L51:
 1076              		.loc 1 301 0
 1077 0062 FFF7FEFF 		bl	test_wait_threads
 1078              		.loc 1 302 0
 1079 0066 05B0     		add	sp, sp, #20
 1080 0068 00BD     		pop	{pc}
 1081              		.cfi_endproc
 1082              	.LFE79:
 1083              		.size	execute_test, .-execute_test
 1084 006a 00BFAFF3 		.section	.text.print_line,"ax",%progbits
 1084      0080
 1085              		.align	2
 1086              		.p2align 4,,15
 1087              		.thumb
 1088              		.thumb_func
 1089              		.type	print_line, %function
 1090              	print_line:
 1091              	.LFB80:
 1092              		.loc 1 304 0
 1093              		.cfi_startproc
 1094              		@ args = 0, pretend = 0, frame = 8
 1095              		@ frame_needed = 0, uses_anonymous_args = 0
 1096 0000 10B5     		push	{r4, lr}
 1097              	.LCFI28:
 1098              		.cfi_def_cfa_offset 8
 1099              		.cfi_offset 14, -4
ARM GAS  /tmp/cczJP3Bq.s 			page 21


 1100              		.cfi_offset 4, -8
 1101 0002 82B0     		sub	sp, sp, #8
 1102              	.LCFI29:
 1103              		.cfi_def_cfa_offset 16
 1104              		.loc 1 307 0
 1105 0004 4FF00003 		mov	r3, #0
 1106 0008 0193     		str	r3, [sp, #4]
 1107 000a 13E0     		b	.L53
 1108              	.L54:
 1109              		.loc 1 308 0 discriminator 2
 1110 000c 40F20003 		movw	r3, #:lower16:chp
 1111 0010 C0F20003 		movt	r3, #:upper16:chp
 1112 0014 1B68     		ldr	r3, [r3, #0]
 1113 0016 1B68     		ldr	r3, [r3, #0]
 1114 0018 9A68     		ldr	r2, [r3, #8]
 1115 001a 40F20003 		movw	r3, #:lower16:chp
 1116 001e C0F20003 		movt	r3, #:upper16:chp
 1117 0022 1B68     		ldr	r3, [r3, #0]
 1118 0024 1846     		mov	r0, r3
 1119 0026 4FF02D01 		mov	r1, #45
 1120 002a 9047     		blx	r2
 1121              		.loc 1 307 0 discriminator 2
 1122 002c 019B     		ldr	r3, [sp, #4]
 1123 002e 03F10103 		add	r3, r3, #1
 1124 0032 0193     		str	r3, [sp, #4]
 1125              	.L53:
 1126              		.loc 1 307 0 is_stmt 0 discriminator 1
 1127 0034 019B     		ldr	r3, [sp, #4]
 1128 0036 4B2B     		cmp	r3, #75
 1129 0038 E8D9     		bls	.L54
 1130              		.loc 1 309 0 is_stmt 1
 1131 003a 40F20003 		movw	r3, #:lower16:chp
 1132 003e C0F20003 		movt	r3, #:upper16:chp
 1133 0042 1B68     		ldr	r3, [r3, #0]
 1134 0044 1B68     		ldr	r3, [r3, #0]
 1135 0046 1C68     		ldr	r4, [r3, #0]
 1136 0048 40F20003 		movw	r3, #:lower16:chp
 1137 004c C0F20003 		movt	r3, #:upper16:chp
 1138 0050 1B68     		ldr	r3, [r3, #0]
 1139 0052 1846     		mov	r0, r3
 1140 0054 40F20001 		movw	r1, #:lower16:.LC0
 1141 0058 C0F20001 		movt	r1, #:upper16:.LC0
 1142 005c 4FF00202 		mov	r2, #2
 1143 0060 A047     		blx	r4
 1144              		.loc 1 310 0
 1145 0062 02B0     		add	sp, sp, #8
 1146 0064 10BD     		pop	{r4, pc}
 1147              		.cfi_endproc
 1148              	.LFE80:
 1149              		.size	print_line, .-print_line
 1150 0066 00BFAFF3 		.section	.rodata
 1150      0080AFF3 
 1150      0080
 1151 0003 00       		.align	2
 1152              	.LC1:
 1153 0004 00       		.ascii	"\000"
 1154 0005 000000   		.align	2
ARM GAS  /tmp/cczJP3Bq.s 			page 22


 1155              	.LC2:
 1156 0008 2A2A2A20 		.ascii	"*** ChibiOS/RT test suite\000"
 1156      43686962 
 1156      694F532F 
 1156      52542074 
 1156      65737420 
 1157 0022 0000     		.align	2
 1158              	.LC3:
 1159 0024 2A2A2A00 		.ascii	"***\000"
 1160              		.align	2
 1161              	.LC4:
 1162 0028 2A2A2A20 		.ascii	"*** Kernel:       \000"
 1162      4B65726E 
 1162      656C3A20 
 1162      20202020 
 1162      202000
 1163 003b 00       		.align	2
 1164              	.LC5:
 1165 003c 322E352E 		.ascii	"2.5.0\000"
 1165      3000
 1166 0042 0000     		.align	2
 1167              	.LC6:
 1168 0044 2A2A2A20 		.ascii	"*** Compiled:     \000"
 1168      436F6D70 
 1168      696C6564 
 1168      3A202020 
 1168      202000
 1169 0057 00       		.align	2
 1170              	.LC7:
 1171 0058 53657020 		.ascii	"Sep 21 2012 - 16:31:53\000"
 1171      32312032 
 1171      30313220 
 1171      2D203136 
 1171      3A33313A 
 1172 006f 00       		.align	2
 1173              	.LC8:
 1174 0070 2A2A2A20 		.ascii	"*** Compiler:     \000"
 1174      436F6D70 
 1174      696C6572 
 1174      3A202020 
 1174      202000
 1175 0083 00       		.align	2
 1176              	.LC9:
 1177 0084 47434320 		.ascii	"GCC 4.6.2 20120613 (release) [ARM/embedded-4_6-bran"
 1177      342E362E 
 1177      32203230 
 1177      31323036 
 1177      31332028 
 1178 00b7 63682072 		.ascii	"ch revision 188521]\000"
 1178      65766973 
 1178      696F6E20 
 1178      31383835 
 1178      32315D00 
 1179 00cb 00       		.align	2
 1180              	.LC10:
 1181 00cc 2A2A2A20 		.ascii	"*** Architecture: \000"
 1181      41726368 
ARM GAS  /tmp/cczJP3Bq.s 			page 23


 1181      69746563 
 1181      74757265 
 1181      3A2000
 1182 00df 00       		.align	2
 1183              	.LC11:
 1184 00e0 41524D76 		.ascii	"ARMv7-M\000"
 1184      372D4D00 
 1185              		.align	2
 1186              	.LC12:
 1187 00e8 2A2A2A20 		.ascii	"*** Core Variant: \000"
 1187      436F7265 
 1187      20566172 
 1187      69616E74 
 1187      3A2000
 1188 00fb 00       		.align	2
 1189              	.LC13:
 1190 00fc 436F7274 		.ascii	"Cortex-M3\000"
 1190      65782D4D 
 1190      3300
 1191 0106 0000     		.align	2
 1192              	.LC14:
 1193 0108 2A2A2A20 		.ascii	"*** Port Info:    \000"
 1193      506F7274 
 1193      20496E66 
 1193      6F3A2020 
 1193      202000
 1194 011b 00       		.align	2
 1195              	.LC15:
 1196 011c 41647661 		.ascii	"Advanced kernel mode\000"
 1196      6E636564 
 1196      206B6572 
 1196      6E656C20 
 1196      6D6F6465 
 1197 0131 000000   		.align	2
 1198              	.LC16:
 1199 0134 2A2A2A20 		.ascii	"*** Platform:     \000"
 1199      506C6174 
 1199      666F726D 
 1199      3A202020 
 1199      202000
 1200 0147 00       		.align	2
 1201              	.LC17:
 1202 0148 53544D33 		.ascii	"STM32F2 High Performance\000"
 1202      32463220 
 1202      48696768 
 1202      20506572 
 1202      666F726D 
 1203 0161 000000   		.align	2
 1204              	.LC18:
 1205 0164 2A2A2A20 		.ascii	"*** Test Board:   \000"
 1205      54657374 
 1205      20426F61 
 1205      72643A20 
 1205      202000
 1206 0177 00       		.align	2
 1207              	.LC19:
 1208 0178 53542053 		.ascii	"ST STM3220G-EVAL\000"
ARM GAS  /tmp/cczJP3Bq.s 			page 24


 1208      544D3332 
 1208      3230472D 
 1208      4556414C 
 1208      00
 1209 0189 000000   		.align	2
 1210              	.LC20:
 1211 018c 2D2D2D20 		.ascii	"--- Test Case \000"
 1211      54657374 
 1211      20436173 
 1211      652000
 1212 019b 00       		.align	2
 1213              	.LC21:
 1214 019c 2E00     		.ascii	".\000"
 1215 019e 0000     		.align	2
 1216              	.LC22:
 1217 01a0 202800   		.ascii	" (\000"
 1218 01a3 00       		.align	2
 1219              	.LC23:
 1220 01a4 2900     		.ascii	")\000"
 1221 01a6 0000     		.align	2
 1222              	.LC24:
 1223 01a8 2D2D2D20 		.ascii	"--- Result: FAILURE (#\000"
 1223      52657375 
 1223      6C743A20 
 1223      4641494C 
 1223      55524520 
 1224 01bf 00       		.align	2
 1225              	.LC25:
 1226 01c0 205B00   		.ascii	" [\000"
 1227 01c3 00       		.align	2
 1228              	.LC26:
 1229 01c4 5D2900   		.ascii	"])\000"
 1230 01c7 00       		.align	2
 1231              	.LC27:
 1232 01c8 2D2D2D20 		.ascii	"--- Result: SUCCESS\000"
 1232      52657375 
 1232      6C743A20 
 1232      53554343 
 1232      45535300 
 1233              		.align	2
 1234              	.LC28:
 1235 01dc 46696E61 		.ascii	"Final result: \000"
 1235      6C207265 
 1235      73756C74 
 1235      3A2000
 1236 01eb 00       		.align	2
 1237              	.LC29:
 1238 01ec 4641494C 		.ascii	"FAILURE\000"
 1238      55524500 
 1239              		.align	2
 1240              	.LC30:
 1241 01f4 53554343 		.ascii	"SUCCESS\000"
 1241      45535300 
 1242              		.section	.text.TestThread,"ax",%progbits
 1243              		.align	2
 1244              		.p2align 4,,15
 1245              		.global	TestThread
ARM GAS  /tmp/cczJP3Bq.s 			page 25


 1246              		.thumb
 1247              		.thumb_func
 1248              		.type	TestThread, %function
 1249              	TestThread:
 1250              	.LFB81:
 1251              		.loc 1 318 0
 1252              		.cfi_startproc
 1253              		@ args = 0, pretend = 0, frame = 16
 1254              		@ frame_needed = 0, uses_anonymous_args = 0
 1255 0000 00B5     		push	{lr}
 1256              	.LCFI30:
 1257              		.cfi_def_cfa_offset 4
 1258              		.cfi_offset 14, -4
 1259 0002 85B0     		sub	sp, sp, #20
 1260              	.LCFI31:
 1261              		.cfi_def_cfa_offset 24
 1262 0004 0190     		str	r0, [sp, #4]
 1263              		.loc 1 321 0
 1264 0006 40F20003 		movw	r3, #:lower16:chp
 1265 000a C0F20003 		movt	r3, #:upper16:chp
 1266 000e 019A     		ldr	r2, [sp, #4]
 1267 0010 1A60     		str	r2, [r3, #0]
 1268              		.loc 1 322 0
 1269 0012 40F20000 		movw	r0, #:lower16:.LC1
 1270 0016 C0F20000 		movt	r0, #:upper16:.LC1
 1271 001a FFF7FEFF 		bl	test_println
 1272              		.loc 1 323 0
 1273 001e 40F20000 		movw	r0, #:lower16:.LC2
 1274 0022 C0F20000 		movt	r0, #:upper16:.LC2
 1275 0026 FFF7FEFF 		bl	test_println
 1276              		.loc 1 324 0
 1277 002a 40F20000 		movw	r0, #:lower16:.LC3
 1278 002e C0F20000 		movt	r0, #:upper16:.LC3
 1279 0032 FFF7FEFF 		bl	test_println
 1280              		.loc 1 325 0
 1281 0036 40F20000 		movw	r0, #:lower16:.LC4
 1282 003a C0F20000 		movt	r0, #:upper16:.LC4
 1283 003e FFF7FEFF 		bl	test_print
 1284              		.loc 1 326 0
 1285 0042 40F20000 		movw	r0, #:lower16:.LC5
 1286 0046 C0F20000 		movt	r0, #:upper16:.LC5
 1287 004a FFF7FEFF 		bl	test_println
 1288              		.loc 1 327 0
 1289 004e 40F20000 		movw	r0, #:lower16:.LC6
 1290 0052 C0F20000 		movt	r0, #:upper16:.LC6
 1291 0056 FFF7FEFF 		bl	test_print
 1292              		.loc 1 328 0
 1293 005a 40F20000 		movw	r0, #:lower16:.LC7
 1294 005e C0F20000 		movt	r0, #:upper16:.LC7
 1295 0062 FFF7FEFF 		bl	test_println
 1296              		.loc 1 330 0
 1297 0066 40F20000 		movw	r0, #:lower16:.LC8
 1298 006a C0F20000 		movt	r0, #:upper16:.LC8
 1299 006e FFF7FEFF 		bl	test_print
 1300              		.loc 1 331 0
 1301 0072 40F20000 		movw	r0, #:lower16:.LC9
 1302 0076 C0F20000 		movt	r0, #:upper16:.LC9
ARM GAS  /tmp/cczJP3Bq.s 			page 26


 1303 007a FFF7FEFF 		bl	test_println
 1304              		.loc 1 333 0
 1305 007e 40F20000 		movw	r0, #:lower16:.LC10
 1306 0082 C0F20000 		movt	r0, #:upper16:.LC10
 1307 0086 FFF7FEFF 		bl	test_print
 1308              		.loc 1 334 0
 1309 008a 40F20000 		movw	r0, #:lower16:.LC11
 1310 008e C0F20000 		movt	r0, #:upper16:.LC11
 1311 0092 FFF7FEFF 		bl	test_println
 1312              		.loc 1 336 0
 1313 0096 40F20000 		movw	r0, #:lower16:.LC12
 1314 009a C0F20000 		movt	r0, #:upper16:.LC12
 1315 009e FFF7FEFF 		bl	test_print
 1316              		.loc 1 337 0
 1317 00a2 40F20000 		movw	r0, #:lower16:.LC13
 1318 00a6 C0F20000 		movt	r0, #:upper16:.LC13
 1319 00aa FFF7FEFF 		bl	test_println
 1320              		.loc 1 340 0
 1321 00ae 40F20000 		movw	r0, #:lower16:.LC14
 1322 00b2 C0F20000 		movt	r0, #:upper16:.LC14
 1323 00b6 FFF7FEFF 		bl	test_print
 1324              		.loc 1 341 0
 1325 00ba 40F20000 		movw	r0, #:lower16:.LC15
 1326 00be C0F20000 		movt	r0, #:upper16:.LC15
 1327 00c2 FFF7FEFF 		bl	test_println
 1328              		.loc 1 344 0
 1329 00c6 40F20000 		movw	r0, #:lower16:.LC16
 1330 00ca C0F20000 		movt	r0, #:upper16:.LC16
 1331 00ce FFF7FEFF 		bl	test_print
 1332              		.loc 1 345 0
 1333 00d2 40F20000 		movw	r0, #:lower16:.LC17
 1334 00d6 C0F20000 		movt	r0, #:upper16:.LC17
 1335 00da FFF7FEFF 		bl	test_println
 1336              		.loc 1 348 0
 1337 00de 40F20000 		movw	r0, #:lower16:.LC18
 1338 00e2 C0F20000 		movt	r0, #:upper16:.LC18
 1339 00e6 FFF7FEFF 		bl	test_print
 1340              		.loc 1 349 0
 1341 00ea 40F20000 		movw	r0, #:lower16:.LC19
 1342 00ee C0F20000 		movt	r0, #:upper16:.LC19
 1343 00f2 FFF7FEFF 		bl	test_println
 1344              		.loc 1 351 0
 1345 00f6 40F20000 		movw	r0, #:lower16:.LC1
 1346 00fa C0F20000 		movt	r0, #:upper16:.LC1
 1347 00fe FFF7FEFF 		bl	test_println
 1348              		.loc 1 353 0
 1349 0102 40F20003 		movw	r3, #:lower16:global_fail
 1350 0106 C0F20003 		movt	r3, #:upper16:global_fail
 1351 010a 4FF00002 		mov	r2, #0
 1352 010e 1A60     		str	r2, [r3, #0]
 1353              		.loc 1 354 0
 1354 0110 4FF00003 		mov	r3, #0
 1355 0114 0393     		str	r3, [sp, #12]
 1356              		.loc 1 355 0
 1357 0116 8DE0     		b	.L56
 1358              	.L61:
 1359              		.loc 1 356 0
ARM GAS  /tmp/cczJP3Bq.s 			page 27


 1360 0118 4FF00003 		mov	r3, #0
 1361 011c 0293     		str	r3, [sp, #8]
 1362              		.loc 1 357 0
 1363 011e 76E0     		b	.L57
 1364              	.L60:
 1365              		.loc 1 358 0
 1366 0120 FFF7FEFF 		bl	print_line
 1367              		.loc 1 359 0
 1368 0124 40F20000 		movw	r0, #:lower16:.LC20
 1369 0128 C0F20000 		movt	r0, #:upper16:.LC20
 1370 012c FFF7FEFF 		bl	test_print
 1371              		.loc 1 360 0
 1372 0130 039B     		ldr	r3, [sp, #12]
 1373 0132 03F10103 		add	r3, r3, #1
 1374 0136 1846     		mov	r0, r3
 1375 0138 FFF7FEFF 		bl	test_printn
 1376              		.loc 1 361 0
 1377 013c 40F20000 		movw	r0, #:lower16:.LC21
 1378 0140 C0F20000 		movt	r0, #:upper16:.LC21
 1379 0144 FFF7FEFF 		bl	test_print
 1380              		.loc 1 362 0
 1381 0148 029B     		ldr	r3, [sp, #8]
 1382 014a 03F10103 		add	r3, r3, #1
 1383 014e 1846     		mov	r0, r3
 1384 0150 FFF7FEFF 		bl	test_printn
 1385              		.loc 1 363 0
 1386 0154 40F20000 		movw	r0, #:lower16:.LC22
 1387 0158 C0F20000 		movt	r0, #:upper16:.LC22
 1388 015c FFF7FEFF 		bl	test_print
 1389              		.loc 1 364 0
 1390 0160 40F20003 		movw	r3, #:lower16:patterns
 1391 0164 C0F20003 		movt	r3, #:upper16:patterns
 1392 0168 039A     		ldr	r2, [sp, #12]
 1393 016a 53F82220 		ldr	r2, [r3, r2, lsl #2]
 1394 016e 029B     		ldr	r3, [sp, #8]
 1395 0170 4FEA8303 		lsl	r3, r3, #2
 1396 0174 D318     		adds	r3, r2, r3
 1397 0176 1B68     		ldr	r3, [r3, #0]
 1398 0178 1B68     		ldr	r3, [r3, #0]
 1399 017a 1846     		mov	r0, r3
 1400 017c FFF7FEFF 		bl	test_print
 1401              		.loc 1 365 0
 1402 0180 40F20000 		movw	r0, #:lower16:.LC23
 1403 0184 C0F20000 		movt	r0, #:upper16:.LC23
 1404 0188 FFF7FEFF 		bl	test_println
 1405              		.loc 1 367 0
 1406 018c 4FF0C800 		mov	r0, #200
 1407 0190 FFF7FEFF 		bl	chThdSleep
 1408              		.loc 1 369 0
 1409 0194 40F20003 		movw	r3, #:lower16:patterns
 1410 0198 C0F20003 		movt	r3, #:upper16:patterns
 1411 019c 039A     		ldr	r2, [sp, #12]
 1412 019e 53F82220 		ldr	r2, [r3, r2, lsl #2]
 1413 01a2 029B     		ldr	r3, [sp, #8]
 1414 01a4 4FEA8303 		lsl	r3, r3, #2
 1415 01a8 D318     		adds	r3, r2, r3
 1416 01aa 1B68     		ldr	r3, [r3, #0]
ARM GAS  /tmp/cczJP3Bq.s 			page 28


 1417 01ac 1846     		mov	r0, r3
 1418 01ae FFF7FEFF 		bl	execute_test
 1419              		.loc 1 370 0
 1420 01b2 40F20003 		movw	r3, #:lower16:local_fail
 1421 01b6 C0F20003 		movt	r3, #:upper16:local_fail
 1422 01ba 1B68     		ldr	r3, [r3, #0]
 1423 01bc 002B     		cmp	r3, #0
 1424 01be 1CD0     		beq	.L58
 1425              		.loc 1 371 0
 1426 01c0 40F20000 		movw	r0, #:lower16:.LC24
 1427 01c4 C0F20000 		movt	r0, #:upper16:.LC24
 1428 01c8 FFF7FEFF 		bl	test_print
 1429              		.loc 1 372 0
 1430 01cc 40F20003 		movw	r3, #:lower16:failpoint
 1431 01d0 C0F20003 		movt	r3, #:upper16:failpoint
 1432 01d4 1B68     		ldr	r3, [r3, #0]
 1433 01d6 1846     		mov	r0, r3
 1434 01d8 FFF7FEFF 		bl	test_printn
 1435              		.loc 1 373 0
 1436 01dc 40F20000 		movw	r0, #:lower16:.LC25
 1437 01e0 C0F20000 		movt	r0, #:upper16:.LC25
 1438 01e4 FFF7FEFF 		bl	test_print
 1439              		.loc 1 374 0
 1440 01e8 FFF7FEFF 		bl	print_tokens
 1441              		.loc 1 375 0
 1442 01ec 40F20000 		movw	r0, #:lower16:.LC26
 1443 01f0 C0F20000 		movt	r0, #:upper16:.LC26
 1444 01f4 FFF7FEFF 		bl	test_println
 1445 01f8 05E0     		b	.L59
 1446              	.L58:
 1447              		.loc 1 378 0
 1448 01fa 40F20000 		movw	r0, #:lower16:.LC27
 1449 01fe C0F20000 		movt	r0, #:upper16:.LC27
 1450 0202 FFF7FEFF 		bl	test_println
 1451              	.L59:
 1452              		.loc 1 379 0
 1453 0206 029B     		ldr	r3, [sp, #8]
 1454 0208 03F10103 		add	r3, r3, #1
 1455 020c 0293     		str	r3, [sp, #8]
 1456              	.L57:
 1457              		.loc 1 357 0 discriminator 1
 1458 020e 40F20003 		movw	r3, #:lower16:patterns
 1459 0212 C0F20003 		movt	r3, #:upper16:patterns
 1460 0216 039A     		ldr	r2, [sp, #12]
 1461 0218 53F82220 		ldr	r2, [r3, r2, lsl #2]
 1462 021c 029B     		ldr	r3, [sp, #8]
 1463 021e 4FEA8303 		lsl	r3, r3, #2
 1464 0222 D318     		adds	r3, r2, r3
 1465 0224 1B68     		ldr	r3, [r3, #0]
 1466 0226 002B     		cmp	r3, #0
 1467 0228 7FF47AAF 		bne	.L60
 1468              		.loc 1 381 0
 1469 022c 039B     		ldr	r3, [sp, #12]
 1470 022e 03F10103 		add	r3, r3, #1
 1471 0232 0393     		str	r3, [sp, #12]
 1472              	.L56:
 1473              		.loc 1 355 0 discriminator 1
ARM GAS  /tmp/cczJP3Bq.s 			page 29


 1474 0234 40F20003 		movw	r3, #:lower16:patterns
 1475 0238 C0F20003 		movt	r3, #:upper16:patterns
 1476 023c 039A     		ldr	r2, [sp, #12]
 1477 023e 53F82230 		ldr	r3, [r3, r2, lsl #2]
 1478 0242 002B     		cmp	r3, #0
 1479 0244 7FF468AF 		bne	.L61
 1480              		.loc 1 383 0
 1481 0248 FFF7FEFF 		bl	print_line
 1482              		.loc 1 384 0
 1483 024c 40F20000 		movw	r0, #:lower16:.LC1
 1484 0250 C0F20000 		movt	r0, #:upper16:.LC1
 1485 0254 FFF7FEFF 		bl	test_println
 1486              		.loc 1 385 0
 1487 0258 40F20000 		movw	r0, #:lower16:.LC28
 1488 025c C0F20000 		movt	r0, #:upper16:.LC28
 1489 0260 FFF7FEFF 		bl	test_print
 1490              		.loc 1 386 0
 1491 0264 40F20003 		movw	r3, #:lower16:global_fail
 1492 0268 C0F20003 		movt	r3, #:upper16:global_fail
 1493 026c 1B68     		ldr	r3, [r3, #0]
 1494 026e 002B     		cmp	r3, #0
 1495 0270 06D0     		beq	.L62
 1496              		.loc 1 387 0
 1497 0272 40F20000 		movw	r0, #:lower16:.LC29
 1498 0276 C0F20000 		movt	r0, #:upper16:.LC29
 1499 027a FFF7FEFF 		bl	test_println
 1500 027e 05E0     		b	.L63
 1501              	.L62:
 1502              		.loc 1 389 0
 1503 0280 40F20000 		movw	r0, #:lower16:.LC30
 1504 0284 C0F20000 		movt	r0, #:upper16:.LC30
 1505 0288 FFF7FEFF 		bl	test_println
 1506              	.L63:
 1507              		.loc 1 391 0
 1508 028c 40F20003 		movw	r3, #:lower16:global_fail
 1509 0290 C0F20003 		movt	r3, #:upper16:global_fail
 1510 0294 1B68     		ldr	r3, [r3, #0]
 1511              		.loc 1 392 0
 1512 0296 1846     		mov	r0, r3
 1513 0298 05B0     		add	sp, sp, #20
 1514 029a 00BD     		pop	{pc}
 1515              		.cfi_endproc
 1516              	.LFE81:
 1517              		.size	TestThread, .-TestThread
 1518 029c AFF30080 		.text
 1519              	.Letext0:
 1520              		.file 2 "/home/texzk/ChibiStudio/tools/GNU Tools ARM Embedded/4.6 2012q2/bin/../lib/gcc/arm-none-e
 1521              		.file 3 "/home/texzk/ChibiStudio/tools/GNU Tools ARM Embedded/4.6 2012q2/bin/../lib/gcc/arm-none-e
 1522              		.file 4 "../../os/ports/GCC/ARMCMx/chtypes.h"
 1523              		.file 5 "../../os/kernel/include/chlists.h"
 1524              		.file 6 "../../os/kernel/include/chthreads.h"
 1525              		.file 7 "../../os/ports/GCC/ARMCMx/chcore_v7m.h"
 1526              		.file 8 "../../os/kernel/include/chvt.h"
 1527              		.file 9 "../../os/kernel/include/chschd.h"
 1528              		.file 10 "../../os/kernel/include/chmtx.h"
 1529              		.file 11 "../../os/kernel/include/chstreams.h"
 1530              		.file 12 "../../test/test.h"
ARM GAS  /tmp/cczJP3Bq.s 			page 30


 1531              		.file 13 "../../os/ports/common/ARMCMx/CMSIS/include/core_cm3.h"
 1532              		.file 14 "../../test/testthd.h"
 1533              		.file 15 "../../test/testsem.h"
 1534              		.file 16 "../../test/testmtx.h"
 1535              		.file 17 "../../test/testmsg.h"
 1536              		.file 18 "../../test/testmbox.h"
 1537              		.file 19 "../../test/testevt.h"
 1538              		.file 20 "../../test/testheap.h"
 1539              		.file 21 "../../test/testpools.h"
 1540              		.file 22 "../../test/testdyn.h"
 1541              		.file 23 "../../test/testqueues.h"
 1542              		.file 24 "../../test/testbmk.h"