ARM GAS  /tmp/cc9tELD5.s 			page 1


   1              		.syntax unified
   2              		.cpu cortex-m3
   3              		.fpu softvfp
   4              		.eabi_attribute 20, 1
   5              		.eabi_attribute 21, 1
   6              		.eabi_attribute 23, 3
   7              		.eabi_attribute 24, 1
   8              		.eabi_attribute 25, 1
   9              		.eabi_attribute 26, 1
  10              		.eabi_attribute 30, 6
  11              		.eabi_attribute 34, 1
  12              		.eabi_attribute 18, 4
  13              		.thumb
  14              		.file	"testevt.c"
  15              		.text
  16              	.Ltext0:
  17              		.cfi_sections	.debug_frame
  18              		.section	.data.es1,"aw",%progbits
  19              		.align	2
  20              		.type	es1, %object
  21              		.size	es1, 4
  22              	es1:
  23 0000 00000000 		.word	es1
  24              		.section	.data.es2,"aw",%progbits
  25              		.align	2
  26              		.type	es2, %object
  27              		.size	es2, 4
  28              	es2:
  29 0000 00000000 		.word	es2
  30              		.section	.text.evt1_setup,"ax",%progbits
  31              		.align	2
  32              		.p2align 4,,15
  33              		.thumb
  34              		.thumb_func
  35              		.type	evt1_setup, %function
  36              	evt1_setup:
  37              	.LFB7:
  38              		.file 1 "../../test/testevt.c"
  39              		.loc 1 79 0
  40              		.cfi_startproc
  41              		@ args = 0, pretend = 0, frame = 0
  42              		@ frame_needed = 0, uses_anonymous_args = 0
  43 0000 08B5     		push	{r3, lr}
  44              	.LCFI0:
  45              		.cfi_def_cfa_offset 8
  46              		.cfi_offset 14, -4
  47              		.cfi_offset 3, -8
  48              		.loc 1 81 0
  49 0002 4FF0FF30 		mov	r0, #-1
  50 0006 FFF7FEFF 		bl	chEvtClearFlags
  51              		.loc 1 82 0
  52 000a 08BD     		pop	{r3, pc}
  53              		.cfi_endproc
  54              	.LFE7:
  55              		.size	evt1_setup, .-evt1_setup
  56 000c AFF30080 		.section	.text.h1,"ax",%progbits
  57              		.align	2
ARM GAS  /tmp/cc9tELD5.s 			page 2


  58              		.p2align 4,,15
  59              		.thumb
  60              		.thumb_func
  61              		.type	h1, %function
  62              	h1:
  63              	.LFB8:
  64              		.loc 1 84 0
  65              		.cfi_startproc
  66              		@ args = 0, pretend = 0, frame = 8
  67              		@ frame_needed = 0, uses_anonymous_args = 0
  68 0000 00B5     		push	{lr}
  69              	.LCFI1:
  70              		.cfi_def_cfa_offset 4
  71              		.cfi_offset 14, -4
  72 0002 83B0     		sub	sp, sp, #12
  73              	.LCFI2:
  74              		.cfi_def_cfa_offset 16
  75 0004 0190     		str	r0, [sp, #4]
  76              		.loc 1 84 0
  77 0006 4FF04100 		mov	r0, #65
  78 000a FFF7FEFF 		bl	test_emit_token
  79 000e 03B0     		add	sp, sp, #12
  80 0010 00BD     		pop	{pc}
  81              		.cfi_endproc
  82              	.LFE8:
  83              		.size	h1, .-h1
  84 0012 00BFAFF3 		.section	.text.h2,"ax",%progbits
  84      0080AFF3 
  84      0080AFF3 
  84      0080
  85              		.align	2
  86              		.p2align 4,,15
  87              		.thumb
  88              		.thumb_func
  89              		.type	h2, %function
  90              	h2:
  91              	.LFB9:
  92              		.loc 1 85 0
  93              		.cfi_startproc
  94              		@ args = 0, pretend = 0, frame = 8
  95              		@ frame_needed = 0, uses_anonymous_args = 0
  96 0000 00B5     		push	{lr}
  97              	.LCFI3:
  98              		.cfi_def_cfa_offset 4
  99              		.cfi_offset 14, -4
 100 0002 83B0     		sub	sp, sp, #12
 101              	.LCFI4:
 102              		.cfi_def_cfa_offset 16
 103 0004 0190     		str	r0, [sp, #4]
 104              		.loc 1 85 0
 105 0006 4FF04200 		mov	r0, #66
 106 000a FFF7FEFF 		bl	test_emit_token
 107 000e 03B0     		add	sp, sp, #12
 108 0010 00BD     		pop	{pc}
 109              		.cfi_endproc
 110              	.LFE9:
 111              		.size	h2, .-h2
ARM GAS  /tmp/cc9tELD5.s 			page 3


 112 0012 00BFAFF3 		.section	.text.h3,"ax",%progbits
 112      0080AFF3 
 112      0080AFF3 
 112      0080
 113              		.align	2
 114              		.p2align 4,,15
 115              		.thumb
 116              		.thumb_func
 117              		.type	h3, %function
 118              	h3:
 119              	.LFB10:
 120              		.loc 1 86 0
 121              		.cfi_startproc
 122              		@ args = 0, pretend = 0, frame = 8
 123              		@ frame_needed = 0, uses_anonymous_args = 0
 124 0000 00B5     		push	{lr}
 125              	.LCFI5:
 126              		.cfi_def_cfa_offset 4
 127              		.cfi_offset 14, -4
 128 0002 83B0     		sub	sp, sp, #12
 129              	.LCFI6:
 130              		.cfi_def_cfa_offset 16
 131 0004 0190     		str	r0, [sp, #4]
 132              		.loc 1 86 0
 133 0006 4FF04300 		mov	r0, #67
 134 000a FFF7FEFF 		bl	test_emit_token
 135 000e 03B0     		add	sp, sp, #12
 136 0010 00BD     		pop	{pc}
 137              		.cfi_endproc
 138              	.LFE10:
 139              		.size	h3, .-h3
 140 0012 00BFAFF3 		.section	.rodata.evhndl,"a",%progbits
 140      0080AFF3 
 140      0080AFF3 
 140      0080
 141              		.align	2
 142              		.type	evhndl, %object
 143              		.size	evhndl, 12
 144              	evhndl:
 145 0000 00000000 		.word	h1
 146 0004 00000000 		.word	h2
 147 0008 00000000 		.word	h3
 148              		.section	.rodata
 149              		.align	2
 150              	.LC0:
 151 0000 41424300 		.ascii	"ABC\000"
 152              		.section	.text.evt1_execute,"ax",%progbits
 153              		.align	2
 154              		.p2align 4,,15
 155              		.thumb
 156              		.thumb_func
 157              		.type	evt1_execute, %function
 158              	evt1_execute:
 159              	.LFB11:
 160              		.loc 1 89 0
 161              		.cfi_startproc
 162              		@ args = 0, pretend = 0, frame = 24
ARM GAS  /tmp/cc9tELD5.s 			page 4


 163              		@ frame_needed = 0, uses_anonymous_args = 0
 164 0000 00B5     		push	{lr}
 165              	.LCFI7:
 166              		.cfi_def_cfa_offset 4
 167              		.cfi_offset 14, -4
 168 0002 87B0     		sub	sp, sp, #28
 169              	.LCFI8:
 170              		.cfi_def_cfa_offset 32
 171              		.loc 1 95 0
 172 0004 40F20003 		movw	r3, #:lower16:es1
 173 0008 C0F20003 		movt	r3, #:upper16:es1
 174 000c 40F20002 		movw	r2, #:lower16:es1
 175 0010 C0F20002 		movt	r2, #:upper16:es1
 176 0014 1A60     		str	r2, [r3, #0]
 177              		.loc 1 96 0
 178 0016 03AB     		add	r3, sp, #12
 179 0018 40F20000 		movw	r0, #:lower16:es1
 180 001c C0F20000 		movt	r0, #:upper16:es1
 181 0020 1946     		mov	r1, r3
 182 0022 4FF00102 		mov	r2, #1
 183 0026 FFF7FEFF 		bl	chEvtRegisterMask
 184              		.loc 1 97 0
 185 002a 6B46     		mov	r3, sp
 186 002c 40F20000 		movw	r0, #:lower16:es1
 187 0030 C0F20000 		movt	r0, #:upper16:es1
 188 0034 1946     		mov	r1, r3
 189 0036 4FF00202 		mov	r2, #2
 190 003a FFF7FEFF 		bl	chEvtRegisterMask
 191              		.loc 1 98 0
 192 003e 40F20003 		movw	r3, #:lower16:es1
 193 0042 C0F20003 		movt	r3, #:upper16:es1
 194 0046 1A68     		ldr	r2, [r3, #0]
 195 0048 40F20003 		movw	r3, #:lower16:es1
 196 004c C0F20003 		movt	r3, #:upper16:es1
 197 0050 9A42     		cmp	r2, r3
 198 0052 0CBF     		ite	eq
 199 0054 0023     		moveq	r3, #0
 200 0056 0123     		movne	r3, #1
 201 0058 4FF00100 		mov	r0, #1
 202 005c 1946     		mov	r1, r3
 203 005e FFF7FEFF 		bl	_test_assert
 204 0062 0346     		mov	r3, r0
 205 0064 002B     		cmp	r3, #0
 206 0066 4BD1     		bne	.L5
 207              	.L6:
 208              		.loc 1 99 0
 209 0068 03AB     		add	r3, sp, #12
 210 006a 40F20000 		movw	r0, #:lower16:es1
 211 006e C0F20000 		movt	r0, #:upper16:es1
 212 0072 1946     		mov	r1, r3
 213 0074 FFF7FEFF 		bl	chEvtUnregister
 214              		.loc 1 100 0
 215 0078 40F20003 		movw	r3, #:lower16:es1
 216 007c C0F20003 		movt	r3, #:upper16:es1
 217 0080 1A68     		ldr	r2, [r3, #0]
 218 0082 40F20003 		movw	r3, #:lower16:es1
 219 0086 C0F20003 		movt	r3, #:upper16:es1
ARM GAS  /tmp/cc9tELD5.s 			page 5


 220 008a 9A42     		cmp	r2, r3
 221 008c 0CBF     		ite	eq
 222 008e 0023     		moveq	r3, #0
 223 0090 0123     		movne	r3, #1
 224 0092 4FF00200 		mov	r0, #2
 225 0096 1946     		mov	r1, r3
 226 0098 FFF7FEFF 		bl	_test_assert
 227 009c 0346     		mov	r3, r0
 228 009e 002B     		cmp	r3, #0
 229 00a0 2ED1     		bne	.L5
 230              	.L8:
 231              		.loc 1 101 0
 232 00a2 6B46     		mov	r3, sp
 233 00a4 40F20000 		movw	r0, #:lower16:es1
 234 00a8 C0F20000 		movt	r0, #:upper16:es1
 235 00ac 1946     		mov	r1, r3
 236 00ae FFF7FEFF 		bl	chEvtUnregister
 237              		.loc 1 102 0
 238 00b2 40F20003 		movw	r3, #:lower16:es1
 239 00b6 C0F20003 		movt	r3, #:upper16:es1
 240 00ba 1A68     		ldr	r2, [r3, #0]
 241 00bc 40F20003 		movw	r3, #:lower16:es1
 242 00c0 C0F20003 		movt	r3, #:upper16:es1
 243 00c4 9A42     		cmp	r2, r3
 244 00c6 14BF     		ite	ne
 245 00c8 0023     		movne	r3, #0
 246 00ca 0123     		moveq	r3, #1
 247 00cc 4FF00300 		mov	r0, #3
 248 00d0 1946     		mov	r1, r3
 249 00d2 FFF7FEFF 		bl	_test_assert
 250 00d6 0346     		mov	r3, r0
 251 00d8 002B     		cmp	r3, #0
 252 00da 11D1     		bne	.L5
 253              	.L9:
 254              		.loc 1 107 0
 255 00dc 40F20000 		movw	r0, #:lower16:evhndl
 256 00e0 C0F20000 		movt	r0, #:upper16:evhndl
 257 00e4 4FF00701 		mov	r1, #7
 258 00e8 FFF7FEFF 		bl	chEvtDispatch
 259              		.loc 1 108 0
 260 00ec 4FF00400 		mov	r0, #4
 261 00f0 40F20001 		movw	r1, #:lower16:.LC0
 262 00f4 C0F20001 		movt	r1, #:upper16:.LC0
 263 00f8 FFF7FEFF 		bl	_test_assert_sequence
 264 00fc 0346     		mov	r3, r0
 265 00fe 002B     		cmp	r3, #0
 266              	.L5:
 267              		.loc 1 109 0
 268 0100 07B0     		add	sp, sp, #28
 269 0102 00BD     		pop	{pc}
 270              		.cfi_endproc
 271              	.LFE11:
 272              		.size	evt1_execute, .-evt1_execute
 273              		.global	testevt1
 274 0104 AFF30080 		.section	.rodata
 274      AFF30080 
 274      AFF30080 
ARM GAS  /tmp/cc9tELD5.s 			page 6


 275              		.align	2
 276              	.LC1:
 277 0004 4576656E 		.ascii	"Events, registration and dispatch\000"
 277      74732C20 
 277      72656769 
 277      73747261 
 277      74696F6E 
 278              		.section	.rodata.testevt1,"a",%progbits
 279              		.align	2
 280              		.type	testevt1, %object
 281              		.size	testevt1, 16
 282              	testevt1:
 283 0000 04000000 		.word	.LC1
 284 0004 00000000 		.word	evt1_setup
 285 0008 00000000 		.word	0
 286 000c 00000000 		.word	evt1_execute
 287              		.section	.text.evt2_setup,"ax",%progbits
 288              		.align	2
 289              		.p2align 4,,15
 290              		.thumb
 291              		.thumb_func
 292              		.type	evt2_setup, %function
 293              	evt2_setup:
 294              	.LFB12:
 295              		.loc 1 132 0
 296              		.cfi_startproc
 297              		@ args = 0, pretend = 0, frame = 0
 298              		@ frame_needed = 0, uses_anonymous_args = 0
 299 0000 08B5     		push	{r3, lr}
 300              	.LCFI9:
 301              		.cfi_def_cfa_offset 8
 302              		.cfi_offset 14, -4
 303              		.cfi_offset 3, -8
 304              		.loc 1 134 0
 305 0002 4FF0FF30 		mov	r0, #-1
 306 0006 FFF7FEFF 		bl	chEvtClearFlags
 307              		.loc 1 135 0
 308 000a 08BD     		pop	{r3, pc}
 309              		.cfi_endproc
 310              	.LFE12:
 311              		.size	evt2_setup, .-evt2_setup
 312 000c AFF30080 		.section	.text.thread1,"ax",%progbits
 313              		.align	2
 314              		.p2align 4,,15
 315              		.thumb
 316              		.thumb_func
 317              		.type	thread1, %function
 318              	thread1:
 319              	.LFB13:
 320              		.loc 1 137 0
 321              		.cfi_startproc
 322              		@ args = 0, pretend = 0, frame = 8
 323              		@ frame_needed = 0, uses_anonymous_args = 0
 324 0000 00B5     		push	{lr}
 325              	.LCFI10:
 326              		.cfi_def_cfa_offset 4
 327              		.cfi_offset 14, -4
ARM GAS  /tmp/cc9tELD5.s 			page 7


 328 0002 83B0     		sub	sp, sp, #12
 329              	.LCFI11:
 330              		.cfi_def_cfa_offset 16
 331 0004 0190     		str	r0, [sp, #4]
 332              		.loc 1 139 0
 333 0006 4FF03200 		mov	r0, #50
 334 000a FFF7FEFF 		bl	chThdSleep
 335              		.loc 1 140 0
 336 000e 0198     		ldr	r0, [sp, #4]
 337 0010 4FF00101 		mov	r1, #1
 338 0014 FFF7FEFF 		bl	chEvtSignalFlags
 339              		.loc 1 141 0
 340 0018 4FF00003 		mov	r3, #0
 341              		.loc 1 142 0
 342 001c 1846     		mov	r0, r3
 343 001e 03B0     		add	sp, sp, #12
 344 0020 00BD     		pop	{pc}
 345              		.cfi_endproc
 346              	.LFE13:
 347              		.size	thread1, .-thread1
 348 0022 00BFAFF3 		.section	.text.thread2,"ax",%progbits
 348      0080AFF3 
 348      0080AFF3 
 348      0080
 349              		.align	2
 350              		.p2align 4,,15
 351              		.thumb
 352              		.thumb_func
 353              		.type	thread2, %function
 354              	thread2:
 355              	.LFB14:
 356              		.loc 1 144 0
 357              		.cfi_startproc
 358              		@ args = 0, pretend = 0, frame = 8
 359              		@ frame_needed = 0, uses_anonymous_args = 0
 360 0000 00B5     		push	{lr}
 361              	.LCFI12:
 362              		.cfi_def_cfa_offset 4
 363              		.cfi_offset 14, -4
 364 0002 83B0     		sub	sp, sp, #12
 365              	.LCFI13:
 366              		.cfi_def_cfa_offset 16
 367 0004 0190     		str	r0, [sp, #4]
 368              		.loc 1 147 0
 369 0006 40F20000 		movw	r0, #:lower16:es1
 370 000a C0F20000 		movt	r0, #:upper16:es1
 371 000e 4FF00001 		mov	r1, #0
 372 0012 FFF7FEFF 		bl	chEvtBroadcastFlags
 373              		.loc 1 148 0
 374 0016 4FF03200 		mov	r0, #50
 375 001a FFF7FEFF 		bl	chThdSleep
 376              		.loc 1 149 0
 377 001e 40F20000 		movw	r0, #:lower16:es2
 378 0022 C0F20000 		movt	r0, #:upper16:es2
 379 0026 4FF00001 		mov	r1, #0
 380 002a FFF7FEFF 		bl	chEvtBroadcastFlags
 381              		.loc 1 150 0
ARM GAS  /tmp/cc9tELD5.s 			page 8


 382 002e 4FF00003 		mov	r3, #0
 383              		.loc 1 151 0
 384 0032 1846     		mov	r0, r3
 385 0034 03B0     		add	sp, sp, #12
 386 0036 00BD     		pop	{pc}
 387              		.cfi_endproc
 388              	.LFE14:
 389              		.size	thread2, .-thread2
 390 0038 AFF30080 		.section	.rodata
 390      AFF30080 
 391 0026 0000     		.align	2
 392              	.LC2:
 393 0028 4100     		.ascii	"A\000"
 394              		.section	.text.evt2_execute,"ax",%progbits
 395              		.align	2
 396              		.p2align 4,,15
 397              		.thumb
 398              		.thumb_func
 399              		.type	evt2_execute, %function
 400              	evt2_execute:
 401              	.LFB15:
 402              		.loc 1 153 0
 403              		.cfi_startproc
 404              		@ args = 0, pretend = 0, frame = 32
 405              		@ frame_needed = 0, uses_anonymous_args = 0
 406 0000 00B5     		push	{lr}
 407              	.LCFI14:
 408              		.cfi_def_cfa_offset 4
 409              		.cfi_offset 14, -4
 410 0002 8BB0     		sub	sp, sp, #44
 411              	.LCFI15:
 412              		.cfi_def_cfa_offset 48
 413              		.loc 1 161 0
 414 0004 4FF00500 		mov	r0, #5
 415 0008 FFF7FEFF 		bl	chEvtAddFlags
 416              		.loc 1 162 0
 417 000c 4FF0FF30 		mov	r0, #-1
 418 0010 FFF7FEFF 		bl	chEvtWaitOne
 419 0014 0346     		mov	r3, r0
 420 0016 0993     		str	r3, [sp, #36]
 421              		.loc 1 163 0
 422 0018 099B     		ldr	r3, [sp, #36]
 423 001a 012B     		cmp	r3, #1
 424 001c 14BF     		ite	ne
 425 001e 0023     		movne	r3, #0
 426 0020 0123     		moveq	r3, #1
 427 0022 4FF00100 		mov	r0, #1
 428 0026 1946     		mov	r1, r3
 429 0028 FFF7FEFF 		bl	_test_assert
 430 002c 0346     		mov	r3, r0
 431 002e 002B     		cmp	r3, #0
 432 0030 40F0CB81 		bne	.L13
 433              	.L14:
 434              		.loc 1 164 0
 435 0034 4FF0FF30 		mov	r0, #-1
 436 0038 FFF7FEFF 		bl	chEvtWaitOne
 437 003c 0346     		mov	r3, r0
ARM GAS  /tmp/cc9tELD5.s 			page 9


 438 003e 0993     		str	r3, [sp, #36]
 439              		.loc 1 165 0
 440 0040 099B     		ldr	r3, [sp, #36]
 441 0042 042B     		cmp	r3, #4
 442 0044 14BF     		ite	ne
 443 0046 0023     		movne	r3, #0
 444 0048 0123     		moveq	r3, #1
 445 004a 4FF00200 		mov	r0, #2
 446 004e 1946     		mov	r1, r3
 447 0050 FFF7FEFF 		bl	_test_assert
 448 0054 0346     		mov	r3, r0
 449 0056 002B     		cmp	r3, #0
 450 0058 40F0B781 		bne	.L13
 451              	.L16:
 452              		.loc 1 166 0
 453 005c 4FF0FF30 		mov	r0, #-1
 454 0060 FFF7FEFF 		bl	chEvtClearFlags
 455 0064 0346     		mov	r3, r0
 456 0066 0993     		str	r3, [sp, #36]
 457              		.loc 1 167 0
 458 0068 099B     		ldr	r3, [sp, #36]
 459 006a 002B     		cmp	r3, #0
 460 006c 14BF     		ite	ne
 461 006e 0023     		movne	r3, #0
 462 0070 0123     		moveq	r3, #1
 463 0072 4FF00300 		mov	r0, #3
 464 0076 1946     		mov	r1, r3
 465 0078 FFF7FEFF 		bl	_test_assert
 466 007c 0346     		mov	r3, r0
 467 007e 002B     		cmp	r3, #0
 468 0080 40F0A381 		bne	.L13
 469              	.L17:
 470              		.loc 1 172 0
 471 0084 FFF7FEFF 		bl	test_wait_tick
 472              		.loc 1 173 0
 473 0088 40F20003 		movw	r3, #:lower16:vtlist
 474 008c C0F20003 		movt	r3, #:upper16:vtlist
 475 0090 DB68     		ldr	r3, [r3, #12]
 476 0092 03F13203 		add	r3, r3, #50
 477 0096 0893     		str	r3, [sp, #32]
 478              		.loc 1 174 0
 479 0098 40F20003 		movw	r3, #:lower16:wa
 480 009c C0F20003 		movt	r3, #:upper16:wa
 481 00a0 1968     		ldr	r1, [r3, #0]
 482 00a2 40F20003 		movw	r3, #:lower16:rlist
 483 00a6 C0F20003 		movt	r3, #:upper16:rlist
 484 00aa 9B69     		ldr	r3, [r3, #24]
 485 00ac 9B68     		ldr	r3, [r3, #8]
 486 00ae 03F1FF32 		add	r2, r3, #-1
 487              		.loc 1 175 0
 488 00b2 40F20003 		movw	r3, #:lower16:rlist
 489 00b6 C0F20003 		movt	r3, #:upper16:rlist
 490 00ba 9B69     		ldr	r3, [r3, #24]
 491              		.loc 1 174 0
 492 00bc 0093     		str	r3, [sp, #0]
 493 00be 0846     		mov	r0, r1
 494 00c0 4FF49871 		mov	r1, #304
ARM GAS  /tmp/cc9tELD5.s 			page 10


 495 00c4 40F20003 		movw	r3, #:lower16:thread1
 496 00c8 C0F20003 		movt	r3, #:upper16:thread1
 497 00cc FFF7FEFF 		bl	chThdCreateStatic
 498 00d0 0246     		mov	r2, r0
 499 00d2 40F20003 		movw	r3, #:lower16:threads
 500 00d6 C0F20003 		movt	r3, #:upper16:threads
 501 00da 1A60     		str	r2, [r3, #0]
 502              		.loc 1 176 0
 503 00dc 4FF0FF30 		mov	r0, #-1
 504 00e0 FFF7FEFF 		bl	chEvtWaitOne
 505 00e4 0346     		mov	r3, r0
 506 00e6 0993     		str	r3, [sp, #36]
 507              		.loc 1 177 0
 508 00e8 089B     		ldr	r3, [sp, #32]
 509 00ea 03F10503 		add	r3, r3, #5
 510 00ee 4FF00400 		mov	r0, #4
 511 00f2 0899     		ldr	r1, [sp, #32]
 512 00f4 1A46     		mov	r2, r3
 513 00f6 FFF7FEFF 		bl	_test_assert_time_window
 514 00fa 0346     		mov	r3, r0
 515 00fc 002B     		cmp	r3, #0
 516 00fe 40F06481 		bne	.L13
 517              	.L18:
 518              		.loc 1 178 0
 519 0102 099B     		ldr	r3, [sp, #36]
 520 0104 012B     		cmp	r3, #1
 521 0106 14BF     		ite	ne
 522 0108 0023     		movne	r3, #0
 523 010a 0123     		moveq	r3, #1
 524 010c 4FF00500 		mov	r0, #5
 525 0110 1946     		mov	r1, r3
 526 0112 FFF7FEFF 		bl	_test_assert
 527 0116 0346     		mov	r3, r0
 528 0118 002B     		cmp	r3, #0
 529 011a 40F05681 		bne	.L13
 530              	.L19:
 531              		.loc 1 179 0
 532 011e 4FF0FF30 		mov	r0, #-1
 533 0122 FFF7FEFF 		bl	chEvtClearFlags
 534 0126 0346     		mov	r3, r0
 535 0128 0993     		str	r3, [sp, #36]
 536              		.loc 1 180 0
 537 012a 099B     		ldr	r3, [sp, #36]
 538 012c 002B     		cmp	r3, #0
 539 012e 14BF     		ite	ne
 540 0130 0023     		movne	r3, #0
 541 0132 0123     		moveq	r3, #1
 542 0134 4FF00600 		mov	r0, #6
 543 0138 1946     		mov	r1, r3
 544 013a FFF7FEFF 		bl	_test_assert
 545 013e 0346     		mov	r3, r0
 546 0140 002B     		cmp	r3, #0
 547 0142 40F04281 		bne	.L13
 548              	.L20:
 549              		.loc 1 181 0
 550 0146 FFF7FEFF 		bl	test_wait_threads
 551              		.loc 1 186 0
ARM GAS  /tmp/cc9tELD5.s 			page 11


 552 014a 4FF00500 		mov	r0, #5
 553 014e FFF7FEFF 		bl	chEvtAddFlags
 554              		.loc 1 187 0
 555 0152 4FF0FF30 		mov	r0, #-1
 556 0156 FFF7FEFF 		bl	chEvtWaitAny
 557 015a 0346     		mov	r3, r0
 558 015c 0993     		str	r3, [sp, #36]
 559              		.loc 1 188 0
 560 015e 099B     		ldr	r3, [sp, #36]
 561 0160 052B     		cmp	r3, #5
 562 0162 14BF     		ite	ne
 563 0164 0023     		movne	r3, #0
 564 0166 0123     		moveq	r3, #1
 565 0168 4FF00700 		mov	r0, #7
 566 016c 1946     		mov	r1, r3
 567 016e FFF7FEFF 		bl	_test_assert
 568 0172 0346     		mov	r3, r0
 569 0174 002B     		cmp	r3, #0
 570 0176 40F02881 		bne	.L13
 571              	.L21:
 572              		.loc 1 189 0
 573 017a 4FF0FF30 		mov	r0, #-1
 574 017e FFF7FEFF 		bl	chEvtClearFlags
 575 0182 0346     		mov	r3, r0
 576 0184 0993     		str	r3, [sp, #36]
 577              		.loc 1 190 0
 578 0186 099B     		ldr	r3, [sp, #36]
 579 0188 002B     		cmp	r3, #0
 580 018a 14BF     		ite	ne
 581 018c 0023     		movne	r3, #0
 582 018e 0123     		moveq	r3, #1
 583 0190 4FF00800 		mov	r0, #8
 584 0194 1946     		mov	r1, r3
 585 0196 FFF7FEFF 		bl	_test_assert
 586 019a 0346     		mov	r3, r0
 587 019c 002B     		cmp	r3, #0
 588 019e 40F01481 		bne	.L13
 589              	.L22:
 590              		.loc 1 195 0
 591 01a2 FFF7FEFF 		bl	test_wait_tick
 592              		.loc 1 196 0
 593 01a6 40F20003 		movw	r3, #:lower16:vtlist
 594 01aa C0F20003 		movt	r3, #:upper16:vtlist
 595 01ae DB68     		ldr	r3, [r3, #12]
 596 01b0 03F13203 		add	r3, r3, #50
 597 01b4 0893     		str	r3, [sp, #32]
 598              		.loc 1 197 0
 599 01b6 40F20003 		movw	r3, #:lower16:wa
 600 01ba C0F20003 		movt	r3, #:upper16:wa
 601 01be 1968     		ldr	r1, [r3, #0]
 602 01c0 40F20003 		movw	r3, #:lower16:rlist
 603 01c4 C0F20003 		movt	r3, #:upper16:rlist
 604 01c8 9B69     		ldr	r3, [r3, #24]
 605 01ca 9B68     		ldr	r3, [r3, #8]
 606 01cc 03F1FF32 		add	r2, r3, #-1
 607              		.loc 1 198 0
 608 01d0 40F20003 		movw	r3, #:lower16:rlist
ARM GAS  /tmp/cc9tELD5.s 			page 12


 609 01d4 C0F20003 		movt	r3, #:upper16:rlist
 610 01d8 9B69     		ldr	r3, [r3, #24]
 611              		.loc 1 197 0
 612 01da 0093     		str	r3, [sp, #0]
 613 01dc 0846     		mov	r0, r1
 614 01de 4FF49871 		mov	r1, #304
 615 01e2 40F20003 		movw	r3, #:lower16:thread1
 616 01e6 C0F20003 		movt	r3, #:upper16:thread1
 617 01ea FFF7FEFF 		bl	chThdCreateStatic
 618 01ee 0246     		mov	r2, r0
 619 01f0 40F20003 		movw	r3, #:lower16:threads
 620 01f4 C0F20003 		movt	r3, #:upper16:threads
 621 01f8 1A60     		str	r2, [r3, #0]
 622              		.loc 1 199 0
 623 01fa 4FF0FF30 		mov	r0, #-1
 624 01fe FFF7FEFF 		bl	chEvtWaitAny
 625 0202 0346     		mov	r3, r0
 626 0204 0993     		str	r3, [sp, #36]
 627              		.loc 1 200 0
 628 0206 089B     		ldr	r3, [sp, #32]
 629 0208 03F10503 		add	r3, r3, #5
 630 020c 4FF00900 		mov	r0, #9
 631 0210 0899     		ldr	r1, [sp, #32]
 632 0212 1A46     		mov	r2, r3
 633 0214 FFF7FEFF 		bl	_test_assert_time_window
 634 0218 0346     		mov	r3, r0
 635 021a 002B     		cmp	r3, #0
 636 021c 40F0D580 		bne	.L13
 637              	.L23:
 638              		.loc 1 201 0
 639 0220 099B     		ldr	r3, [sp, #36]
 640 0222 012B     		cmp	r3, #1
 641 0224 14BF     		ite	ne
 642 0226 0023     		movne	r3, #0
 643 0228 0123     		moveq	r3, #1
 644 022a 4FF00A00 		mov	r0, #10
 645 022e 1946     		mov	r1, r3
 646 0230 FFF7FEFF 		bl	_test_assert
 647 0234 0346     		mov	r3, r0
 648 0236 002B     		cmp	r3, #0
 649 0238 40F0C780 		bne	.L13
 650              	.L24:
 651              		.loc 1 202 0
 652 023c 4FF0FF30 		mov	r0, #-1
 653 0240 FFF7FEFF 		bl	chEvtClearFlags
 654 0244 0346     		mov	r3, r0
 655 0246 0993     		str	r3, [sp, #36]
 656              		.loc 1 203 0
 657 0248 099B     		ldr	r3, [sp, #36]
 658 024a 002B     		cmp	r3, #0
 659 024c 14BF     		ite	ne
 660 024e 0023     		movne	r3, #0
 661 0250 0123     		moveq	r3, #1
 662 0252 4FF00B00 		mov	r0, #11
 663 0256 1946     		mov	r1, r3
 664 0258 FFF7FEFF 		bl	_test_assert
 665 025c 0346     		mov	r3, r0
ARM GAS  /tmp/cc9tELD5.s 			page 13


 666 025e 002B     		cmp	r3, #0
 667 0260 40F0B380 		bne	.L13
 668              	.L25:
 669              		.loc 1 204 0
 670 0264 FFF7FEFF 		bl	test_wait_threads
 671              		.loc 1 209 0
 672 0268 40F20003 		movw	r3, #:lower16:es1
 673 026c C0F20003 		movt	r3, #:upper16:es1
 674 0270 40F20002 		movw	r2, #:lower16:es1
 675 0274 C0F20002 		movt	r2, #:upper16:es1
 676 0278 1A60     		str	r2, [r3, #0]
 677              		.loc 1 210 0
 678 027a 40F20003 		movw	r3, #:lower16:es2
 679 027e C0F20003 		movt	r3, #:upper16:es2
 680 0282 40F20002 		movw	r2, #:lower16:es2
 681 0286 C0F20002 		movt	r2, #:upper16:es2
 682 028a 1A60     		str	r2, [r3, #0]
 683              		.loc 1 211 0
 684 028c 05AB     		add	r3, sp, #20
 685 028e 40F20000 		movw	r0, #:lower16:es1
 686 0292 C0F20000 		movt	r0, #:upper16:es1
 687 0296 1946     		mov	r1, r3
 688 0298 4FF00102 		mov	r2, #1
 689 029c FFF7FEFF 		bl	chEvtRegisterMask
 690              		.loc 1 212 0
 691 02a0 02AB     		add	r3, sp, #8
 692 02a2 40F20000 		movw	r0, #:lower16:es2
 693 02a6 C0F20000 		movt	r0, #:upper16:es2
 694 02aa 1946     		mov	r1, r3
 695 02ac 4FF00402 		mov	r2, #4
 696 02b0 FFF7FEFF 		bl	chEvtRegisterMask
 697              		.loc 1 213 0
 698 02b4 FFF7FEFF 		bl	test_wait_tick
 699              		.loc 1 214 0
 700 02b8 40F20003 		movw	r3, #:lower16:vtlist
 701 02bc C0F20003 		movt	r3, #:upper16:vtlist
 702 02c0 DB68     		ldr	r3, [r3, #12]
 703 02c2 03F13203 		add	r3, r3, #50
 704 02c6 0893     		str	r3, [sp, #32]
 705              		.loc 1 215 0
 706 02c8 40F20003 		movw	r3, #:lower16:wa
 707 02cc C0F20003 		movt	r3, #:upper16:wa
 708 02d0 1968     		ldr	r1, [r3, #0]
 709 02d2 40F20003 		movw	r3, #:lower16:rlist
 710 02d6 C0F20003 		movt	r3, #:upper16:rlist
 711 02da 9B69     		ldr	r3, [r3, #24]
 712 02dc 9B68     		ldr	r3, [r3, #8]
 713 02de 03F1FF32 		add	r2, r3, #-1
 714 02e2 40F20003 		movw	r3, #:lower16:.LC2
 715 02e6 C0F20003 		movt	r3, #:upper16:.LC2
 716 02ea 0093     		str	r3, [sp, #0]
 717 02ec 0846     		mov	r0, r1
 718 02ee 4FF49871 		mov	r1, #304
 719 02f2 40F20003 		movw	r3, #:lower16:thread2
 720 02f6 C0F20003 		movt	r3, #:upper16:thread2
 721 02fa FFF7FEFF 		bl	chThdCreateStatic
 722 02fe 0246     		mov	r2, r0
ARM GAS  /tmp/cc9tELD5.s 			page 14


 723 0300 40F20003 		movw	r3, #:lower16:threads
 724 0304 C0F20003 		movt	r3, #:upper16:threads
 725 0308 1A60     		str	r2, [r3, #0]
 726              		.loc 1 217 0
 727 030a 4FF00500 		mov	r0, #5
 728 030e FFF7FEFF 		bl	chEvtWaitAll
 729 0312 0346     		mov	r3, r0
 730 0314 0993     		str	r3, [sp, #36]
 731              		.loc 1 218 0
 732 0316 089B     		ldr	r3, [sp, #32]
 733 0318 03F10503 		add	r3, r3, #5
 734 031c 4FF00C00 		mov	r0, #12
 735 0320 0899     		ldr	r1, [sp, #32]
 736 0322 1A46     		mov	r2, r3
 737 0324 FFF7FEFF 		bl	_test_assert_time_window
 738 0328 0346     		mov	r3, r0
 739 032a 002B     		cmp	r3, #0
 740 032c 4DD1     		bne	.L13
 741              	.L26:
 742              		.loc 1 219 0
 743 032e 4FF0FF30 		mov	r0, #-1
 744 0332 FFF7FEFF 		bl	chEvtClearFlags
 745 0336 0346     		mov	r3, r0
 746 0338 0993     		str	r3, [sp, #36]
 747              		.loc 1 220 0
 748 033a 099B     		ldr	r3, [sp, #36]
 749 033c 002B     		cmp	r3, #0
 750 033e 14BF     		ite	ne
 751 0340 0023     		movne	r3, #0
 752 0342 0123     		moveq	r3, #1
 753 0344 4FF00D00 		mov	r0, #13
 754 0348 1946     		mov	r1, r3
 755 034a FFF7FEFF 		bl	_test_assert
 756 034e 0346     		mov	r3, r0
 757 0350 002B     		cmp	r3, #0
 758 0352 3AD1     		bne	.L13
 759              	.L27:
 760              		.loc 1 221 0
 761 0354 FFF7FEFF 		bl	test_wait_threads
 762              		.loc 1 222 0
 763 0358 05AB     		add	r3, sp, #20
 764 035a 40F20000 		movw	r0, #:lower16:es1
 765 035e C0F20000 		movt	r0, #:upper16:es1
 766 0362 1946     		mov	r1, r3
 767 0364 FFF7FEFF 		bl	chEvtUnregister
 768              		.loc 1 223 0
 769 0368 02AB     		add	r3, sp, #8
 770 036a 40F20000 		movw	r0, #:lower16:es2
 771 036e C0F20000 		movt	r0, #:upper16:es2
 772 0372 1946     		mov	r1, r3
 773 0374 FFF7FEFF 		bl	chEvtUnregister
 774              		.loc 1 224 0
 775 0378 40F20003 		movw	r3, #:lower16:es1
 776 037c C0F20003 		movt	r3, #:upper16:es1
 777 0380 1A68     		ldr	r2, [r3, #0]
 778 0382 40F20003 		movw	r3, #:lower16:es1
 779 0386 C0F20003 		movt	r3, #:upper16:es1
ARM GAS  /tmp/cc9tELD5.s 			page 15


 780 038a 9A42     		cmp	r2, r3
 781 038c 14BF     		ite	ne
 782 038e 0023     		movne	r3, #0
 783 0390 0123     		moveq	r3, #1
 784 0392 4FF00E00 		mov	r0, #14
 785 0396 1946     		mov	r1, r3
 786 0398 FFF7FEFF 		bl	_test_assert
 787 039c 0346     		mov	r3, r0
 788 039e 002B     		cmp	r3, #0
 789 03a0 13D1     		bne	.L13
 790              	.L28:
 791              		.loc 1 225 0
 792 03a2 40F20003 		movw	r3, #:lower16:es2
 793 03a6 C0F20003 		movt	r3, #:upper16:es2
 794 03aa 1A68     		ldr	r2, [r3, #0]
 795 03ac 40F20003 		movw	r3, #:lower16:es2
 796 03b0 C0F20003 		movt	r3, #:upper16:es2
 797 03b4 9A42     		cmp	r2, r3
 798 03b6 14BF     		ite	ne
 799 03b8 0023     		movne	r3, #0
 800 03ba 0123     		moveq	r3, #1
 801 03bc 4FF00F00 		mov	r0, #15
 802 03c0 1946     		mov	r1, r3
 803 03c2 FFF7FEFF 		bl	_test_assert
 804 03c6 0346     		mov	r3, r0
 805 03c8 002B     		cmp	r3, #0
 806              	.L13:
 807              		.loc 1 226 0
 808 03ca 0BB0     		add	sp, sp, #44
 809 03cc 00BD     		pop	{pc}
 810              		.cfi_endproc
 811              	.LFE15:
 812              		.size	evt2_execute, .-evt2_execute
 813              		.global	testevt2
 814 03ce 00BF     		.section	.rodata
 815 002a 0000     		.align	2
 816              	.LC3:
 817 002c 4576656E 		.ascii	"Events, wait and broadcast\000"
 817      74732C20 
 817      77616974 
 817      20616E64 
 817      2062726F 
 818              		.section	.rodata.testevt2,"a",%progbits
 819              		.align	2
 820              		.type	testevt2, %object
 821              		.size	testevt2, 16
 822              	testevt2:
 823 0000 2C000000 		.word	.LC3
 824 0004 00000000 		.word	evt2_setup
 825 0008 00000000 		.word	0
 826 000c 00000000 		.word	evt2_execute
 827              		.section	.text.evt3_setup,"ax",%progbits
 828              		.align	2
 829              		.p2align 4,,15
 830              		.thumb
 831              		.thumb_func
 832              		.type	evt3_setup, %function
ARM GAS  /tmp/cc9tELD5.s 			page 16


 833              	evt3_setup:
 834              	.LFB16:
 835              		.loc 1 251 0
 836              		.cfi_startproc
 837              		@ args = 0, pretend = 0, frame = 0
 838              		@ frame_needed = 0, uses_anonymous_args = 0
 839 0000 08B5     		push	{r3, lr}
 840              	.LCFI16:
 841              		.cfi_def_cfa_offset 8
 842              		.cfi_offset 14, -4
 843              		.cfi_offset 3, -8
 844              		.loc 1 253 0
 845 0002 4FF0FF30 		mov	r0, #-1
 846 0006 FFF7FEFF 		bl	chEvtClearFlags
 847              		.loc 1 254 0
 848 000a 08BD     		pop	{r3, pc}
 849              		.cfi_endproc
 850              	.LFE16:
 851              		.size	evt3_setup, .-evt3_setup
 852 000c AFF30080 		.section	.text.evt3_execute,"ax",%progbits
 853              		.align	2
 854              		.p2align 4,,15
 855              		.thumb
 856              		.thumb_func
 857              		.type	evt3_execute, %function
 858              	evt3_execute:
 859              	.LFB17:
 860              		.loc 1 256 0
 861              		.cfi_startproc
 862              		@ args = 0, pretend = 0, frame = 8
 863              		@ frame_needed = 0, uses_anonymous_args = 0
 864 0000 00B5     		push	{lr}
 865              	.LCFI17:
 866              		.cfi_def_cfa_offset 4
 867              		.cfi_offset 14, -4
 868 0002 83B0     		sub	sp, sp, #12
 869              	.LCFI18:
 870              		.cfi_def_cfa_offset 16
 871              		.loc 1 262 0
 872 0004 4FF0FF30 		mov	r0, #-1
 873 0008 4FF00001 		mov	r1, #0
 874 000c FFF7FEFF 		bl	chEvtWaitOneTimeout
 875 0010 0346     		mov	r3, r0
 876 0012 0193     		str	r3, [sp, #4]
 877              		.loc 1 263 0
 878 0014 019B     		ldr	r3, [sp, #4]
 879 0016 002B     		cmp	r3, #0
 880 0018 14BF     		ite	ne
 881 001a 0023     		movne	r3, #0
 882 001c 0123     		moveq	r3, #1
 883 001e 4FF00100 		mov	r0, #1
 884 0022 1946     		mov	r1, r3
 885 0024 FFF7FEFF 		bl	_test_assert
 886 0028 0346     		mov	r3, r0
 887 002a 002B     		cmp	r3, #0
 888 002c 67D1     		bne	.L30
 889              	.L31:
ARM GAS  /tmp/cc9tELD5.s 			page 17


 890              		.loc 1 264 0
 891 002e 4FF0FF30 		mov	r0, #-1
 892 0032 4FF00001 		mov	r1, #0
 893 0036 FFF7FEFF 		bl	chEvtWaitAnyTimeout
 894 003a 0346     		mov	r3, r0
 895 003c 0193     		str	r3, [sp, #4]
 896              		.loc 1 265 0
 897 003e 019B     		ldr	r3, [sp, #4]
 898 0040 002B     		cmp	r3, #0
 899 0042 14BF     		ite	ne
 900 0044 0023     		movne	r3, #0
 901 0046 0123     		moveq	r3, #1
 902 0048 4FF00200 		mov	r0, #2
 903 004c 1946     		mov	r1, r3
 904 004e FFF7FEFF 		bl	_test_assert
 905 0052 0346     		mov	r3, r0
 906 0054 002B     		cmp	r3, #0
 907 0056 52D1     		bne	.L30
 908              	.L33:
 909              		.loc 1 266 0
 910 0058 4FF0FF30 		mov	r0, #-1
 911 005c 4FF00001 		mov	r1, #0
 912 0060 FFF7FEFF 		bl	chEvtWaitAllTimeout
 913 0064 0346     		mov	r3, r0
 914 0066 0193     		str	r3, [sp, #4]
 915              		.loc 1 267 0
 916 0068 019B     		ldr	r3, [sp, #4]
 917 006a 002B     		cmp	r3, #0
 918 006c 14BF     		ite	ne
 919 006e 0023     		movne	r3, #0
 920 0070 0123     		moveq	r3, #1
 921 0072 4FF00300 		mov	r0, #3
 922 0076 1946     		mov	r1, r3
 923 0078 FFF7FEFF 		bl	_test_assert
 924 007c 0346     		mov	r3, r0
 925 007e 002B     		cmp	r3, #0
 926 0080 3DD1     		bne	.L30
 927              	.L34:
 928              		.loc 1 268 0
 929 0082 4FF0FF30 		mov	r0, #-1
 930 0086 4FF00A01 		mov	r1, #10
 931 008a FFF7FEFF 		bl	chEvtWaitOneTimeout
 932 008e 0346     		mov	r3, r0
 933 0090 0193     		str	r3, [sp, #4]
 934              		.loc 1 269 0
 935 0092 019B     		ldr	r3, [sp, #4]
 936 0094 002B     		cmp	r3, #0
 937 0096 14BF     		ite	ne
 938 0098 0023     		movne	r3, #0
 939 009a 0123     		moveq	r3, #1
 940 009c 4FF00400 		mov	r0, #4
 941 00a0 1946     		mov	r1, r3
 942 00a2 FFF7FEFF 		bl	_test_assert
 943 00a6 0346     		mov	r3, r0
 944 00a8 002B     		cmp	r3, #0
 945 00aa 28D1     		bne	.L30
 946              	.L35:
ARM GAS  /tmp/cc9tELD5.s 			page 18


 947              		.loc 1 270 0
 948 00ac 4FF0FF30 		mov	r0, #-1
 949 00b0 4FF00A01 		mov	r1, #10
 950 00b4 FFF7FEFF 		bl	chEvtWaitAnyTimeout
 951 00b8 0346     		mov	r3, r0
 952 00ba 0193     		str	r3, [sp, #4]
 953              		.loc 1 271 0
 954 00bc 019B     		ldr	r3, [sp, #4]
 955 00be 002B     		cmp	r3, #0
 956 00c0 14BF     		ite	ne
 957 00c2 0023     		movne	r3, #0
 958 00c4 0123     		moveq	r3, #1
 959 00c6 4FF00500 		mov	r0, #5
 960 00ca 1946     		mov	r1, r3
 961 00cc FFF7FEFF 		bl	_test_assert
 962 00d0 0346     		mov	r3, r0
 963 00d2 002B     		cmp	r3, #0
 964 00d4 13D1     		bne	.L30
 965              	.L36:
 966              		.loc 1 272 0
 967 00d6 4FF0FF30 		mov	r0, #-1
 968 00da 4FF00A01 		mov	r1, #10
 969 00de FFF7FEFF 		bl	chEvtWaitAllTimeout
 970 00e2 0346     		mov	r3, r0
 971 00e4 0193     		str	r3, [sp, #4]
 972              		.loc 1 273 0
 973 00e6 019B     		ldr	r3, [sp, #4]
 974 00e8 002B     		cmp	r3, #0
 975 00ea 14BF     		ite	ne
 976 00ec 0023     		movne	r3, #0
 977 00ee 0123     		moveq	r3, #1
 978 00f0 4FF00600 		mov	r0, #6
 979 00f4 1946     		mov	r1, r3
 980 00f6 FFF7FEFF 		bl	_test_assert
 981 00fa 0346     		mov	r3, r0
 982 00fc 002B     		cmp	r3, #0
 983              	.L30:
 984              		.loc 1 274 0
 985 00fe 03B0     		add	sp, sp, #12
 986 0100 00BD     		pop	{pc}
 987              		.cfi_endproc
 988              	.LFE17:
 989              		.size	evt3_execute, .-evt3_execute
 990              		.global	testevt3
 991 0102 00BFAFF3 		.section	.rodata
 991      0080AFF3 
 991      0080AFF3 
 991      0080
 992 0047 00       		.align	2
 993              	.LC4:
 994 0048 4576656E 		.ascii	"Events, timeouts\000"
 994      74732C20 
 994      74696D65 
 994      6F757473 
 994      00
 995 0059 000000   		.section	.rodata.testevt3,"a",%progbits
 996              		.align	2
ARM GAS  /tmp/cc9tELD5.s 			page 19


 997              		.type	testevt3, %object
 998              		.size	testevt3, 16
 999              	testevt3:
 1000 0000 48000000 		.word	.LC4
 1001 0004 00000000 		.word	evt3_setup
 1002 0008 00000000 		.word	0
 1003 000c 00000000 		.word	evt3_execute
 1004              		.global	patternevt
 1005              		.section	.rodata.patternevt,"a",%progbits
 1006              		.align	2
 1007              		.type	patternevt, %object
 1008              		.size	patternevt, 16
 1009              	patternevt:
 1010 0000 00000000 		.word	testevt1
 1011 0004 00000000 		.word	testevt2
 1012 0008 00000000 		.word	testevt3
 1013 000c 00000000 		.word	0
 1014              		.text
 1015              	.Letext0:
 1016              		.file 2 "/home/texzk/ChibiStudio/tools/GNU Tools ARM Embedded/4.6 2012q2/bin/../lib/gcc/arm-none-e
 1017              		.file 3 "../../os/ports/GCC/ARMCMx/chtypes.h"
 1018              		.file 4 "../../os/kernel/include/chlists.h"
 1019              		.file 5 "../../os/kernel/include/chthreads.h"
 1020              		.file 6 "../../os/ports/GCC/ARMCMx/chcore_v7m.h"
 1021              		.file 7 "../../os/kernel/include/chvt.h"
 1022              		.file 8 "../../os/kernel/include/chschd.h"
 1023              		.file 9 "../../os/kernel/include/chmtx.h"
 1024              		.file 10 "../../os/kernel/include/chevents.h"
 1025              		.file 11 "../../test/test.h"