ARM GAS  /tmp/ccG45m1g.s 			page 1


   1              		.syntax unified
   2              		.cpu cortex-m3
   3              		.fpu softvfp
   4              		.eabi_attribute 20, 1
   5              		.eabi_attribute 21, 1
   6              		.eabi_attribute 23, 3
   7              		.eabi_attribute 24, 1
   8              		.eabi_attribute 25, 1
   9              		.eabi_attribute 26, 1
  10              		.eabi_attribute 30, 6
  11              		.eabi_attribute 34, 1
  12              		.eabi_attribute 18, 4
  13              		.thumb
  14              		.file	"testqueues.c"
  15              		.text
  16              	.Ltext0:
  17              		.cfi_sections	.debug_frame
  18              		.section	.text.notify,"ax",%progbits
  19              		.align	2
  20              		.p2align 4,,15
  21              		.thumb
  22              		.thumb_func
  23              		.type	notify, %function
  24              	notify:
  25              	.LFB7:
  26              		.file 1 "../../test/testqueues.c"
  27              		.loc 1 61 0
  28              		.cfi_startproc
  29              		@ args = 0, pretend = 0, frame = 8
  30              		@ frame_needed = 0, uses_anonymous_args = 0
  31              		@ link register save eliminated.
  32 0000 82B0     		sub	sp, sp, #8
  33              	.LCFI0:
  34              		.cfi_def_cfa_offset 8
  35 0002 0190     		str	r0, [sp, #4]
  36              		.loc 1 63 0
  37 0004 02B0     		add	sp, sp, #8
  38 0006 7047     		bx	lr
  39              		.cfi_endproc
  40              	.LFE7:
  41              		.size	notify, .-notify
  42 0008 AFF30080 		.section	.data.iq,"aw",%progbits
  42      AFF30080 
  43              		.align	2
  44              		.type	iq, %object
  45              		.size	iq, 36
  46              	iq:
  47 0000 00000000 		.word	iq
  48 0004 00000000 		.word	iq
  49 0008 00000000 		.word	0
  50 000c 00000000 		.word	test
  51 0010 04000000 		.word	test+4
  52 0014 00000000 		.word	test
  53 0018 00000000 		.word	test
  54 001c 00000000 		.word	notify
  55 0020 00000000 		.word	0
  56              		.section	.data.oq,"aw",%progbits
ARM GAS  /tmp/ccG45m1g.s 			page 2


  57              		.align	2
  58              		.type	oq, %object
  59              		.size	oq, 36
  60              	oq:
  61 0000 00000000 		.word	oq
  62 0004 00000000 		.word	oq
  63 0008 04000000 		.word	4
  64 000c 30010000 		.word	test+304
  65 0010 34010000 		.word	test+308
  66 0014 30010000 		.word	test+304
  67 0018 30010000 		.word	test+304
  68 001c 00000000 		.word	notify
  69 0020 00000000 		.word	0
  70              		.section	.text.queues1_setup,"ax",%progbits
  71              		.align	2
  72              		.p2align 4,,15
  73              		.thumb
  74              		.thumb_func
  75              		.type	queues1_setup, %function
  76              	queues1_setup:
  77              	.LFB8:
  78              		.loc 1 82 0
  79              		.cfi_startproc
  80              		@ args = 0, pretend = 0, frame = 0
  81              		@ frame_needed = 0, uses_anonymous_args = 0
  82 0000 00B5     		push	{lr}
  83              	.LCFI1:
  84              		.cfi_def_cfa_offset 4
  85              		.cfi_offset 14, -4
  86 0002 83B0     		sub	sp, sp, #12
  87              	.LCFI2:
  88              		.cfi_def_cfa_offset 16
  89              		.loc 1 84 0
  90 0004 40F20003 		movw	r3, #:lower16:wa
  91 0008 C0F20003 		movt	r3, #:upper16:wa
  92 000c 1B68     		ldr	r3, [r3, #0]
  93 000e 4FF00002 		mov	r2, #0
  94 0012 0092     		str	r2, [sp, #0]
  95 0014 40F20000 		movw	r0, #:lower16:iq
  96 0018 C0F20000 		movt	r0, #:upper16:iq
  97 001c 1946     		mov	r1, r3
  98 001e 4FF00402 		mov	r2, #4
  99 0022 40F20003 		movw	r3, #:lower16:notify
 100 0026 C0F20003 		movt	r3, #:upper16:notify
 101 002a FFF7FEFF 		bl	chIQInit
 102              		.loc 1 85 0
 103 002e 03B0     		add	sp, sp, #12
 104 0030 00BD     		pop	{pc}
 105              		.cfi_endproc
 106              	.LFE8:
 107              		.size	queues1_setup, .-queues1_setup
 108 0032 00BFAFF3 		.section	.text.thread1,"ax",%progbits
 108      0080AFF3 
 108      0080AFF3 
 108      0080
 109              		.align	2
 110              		.p2align 4,,15
ARM GAS  /tmp/ccG45m1g.s 			page 3


 111              		.thumb
 112              		.thumb_func
 113              		.type	thread1, %function
 114              	thread1:
 115              	.LFB9:
 116              		.loc 1 87 0
 117              		.cfi_startproc
 118              		@ args = 0, pretend = 0, frame = 8
 119              		@ frame_needed = 0, uses_anonymous_args = 0
 120 0000 00B5     		push	{lr}
 121              	.LCFI3:
 122              		.cfi_def_cfa_offset 4
 123              		.cfi_offset 14, -4
 124 0002 83B0     		sub	sp, sp, #12
 125              	.LCFI4:
 126              		.cfi_def_cfa_offset 16
 127 0004 0190     		str	r0, [sp, #4]
 128              		.loc 1 90 0
 129 0006 40F20000 		movw	r0, #:lower16:iq
 130 000a C0F20000 		movt	r0, #:upper16:iq
 131 000e 4FF0C801 		mov	r1, #200
 132 0012 FFF7FEFF 		bl	chIQGetTimeout
 133              		.loc 1 91 0
 134 0016 4FF00003 		mov	r3, #0
 135              		.loc 1 92 0
 136 001a 1846     		mov	r0, r3
 137 001c 03B0     		add	sp, sp, #12
 138 001e 00BD     		pop	{pc}
 139              		.cfi_endproc
 140              	.LFE9:
 141              		.size	thread1, .-thread1
 142              		.section	.rodata
 143              		.align	2
 144              	.LC0:
 145 0000 41424344 		.ascii	"ABCD\000"
 145      00
 146              		.section	.text.queues1_execute,"ax",%progbits
 147              		.align	2
 148              		.p2align 4,,15
 149              		.thumb
 150              		.thumb_func
 151              		.type	queues1_execute, %function
 152              	queues1_execute:
 153              	.LFB10:
 154              		.loc 1 94 0
 155              		.cfi_startproc
 156              		@ args = 0, pretend = 0, frame = 8
 157              		@ frame_needed = 0, uses_anonymous_args = 0
 158 0000 00B5     		push	{lr}
 159              	.LCFI5:
 160              		.cfi_def_cfa_offset 4
 161              		.cfi_offset 14, -4
 162 0002 85B0     		sub	sp, sp, #20
 163              	.LCFI6:
 164              		.cfi_def_cfa_offset 24
 165              	.LBB2:
 166              		.loc 1 99 0
ARM GAS  /tmp/ccG45m1g.s 			page 4


 167 0004 4FF02003 		mov	r3, #32
 168              	@ 99 "../../test/testqueues.c" 1
 169 0008 83F31188 		msr     BASEPRI, r3
 170              	@ 0 "" 2
 171              		.thumb
 172              	.LBE2:
 173 000c FFF7FEFF 		bl	dbg_check_lock
 174 0010 40F20003 		movw	r3, #:lower16:iq
 175 0014 C0F20003 		movt	r3, #:upper16:iq
 176 0018 9B68     		ldr	r3, [r3, #8]
 177 001a 002B     		cmp	r3, #0
 178 001c 14BF     		ite	ne
 179 001e 0023     		movne	r3, #0
 180 0020 0123     		moveq	r3, #1
 181 0022 4FF00100 		mov	r0, #1
 182 0026 1946     		mov	r1, r3
 183 0028 FFF7FEFF 		bl	_test_assert
 184 002c 0346     		mov	r3, r0
 185 002e 002B     		cmp	r3, #0
 186 0030 06D0     		beq	.L5
 187              		.loc 1 99 0 is_stmt 0 discriminator 1
 188 0032 FFF7FEFF 		bl	dbg_check_unlock
 189              	.LBB3:
 190 0036 4FF00003 		mov	r3, #0
 191              	@ 99 "../../test/testqueues.c" 1
 192 003a 83F31188 		msr     BASEPRI, r3
 193              	@ 0 "" 2
 194              		.thumb
 195              	.LBE3:
 196 003e 53E2     		b	.L4
 197              	.L5:
 198              		.loc 1 99 0 discriminator 2
 199 0040 FFF7FEFF 		bl	dbg_check_unlock
 200              	.LBB4:
 201 0044 4FF00003 		mov	r3, #0
 202              	@ 99 "../../test/testqueues.c" 1
 203 0048 83F31188 		msr     BASEPRI, r3
 204              	@ 0 "" 2
 205              		.thumb
 206              	.LBE4:
 207              	.LBB5:
 208              		.loc 1 102 0 is_stmt 1 discriminator 2
 209 004c 4FF02003 		mov	r3, #32
 210              	@ 102 "../../test/testqueues.c" 1
 211 0050 83F31188 		msr     BASEPRI, r3
 212              	@ 0 "" 2
 213              		.thumb
 214              	.LBE5:
 215 0054 FFF7FEFF 		bl	dbg_check_lock
 216              		.loc 1 103 0 discriminator 2
 217 0058 4FF00003 		mov	r3, #0
 218 005c 0393     		str	r3, [sp, #12]
 219 005e 0FE0     		b	.L7
 220              	.L8:
 221              		.loc 1 104 0 discriminator 2
 222 0060 039B     		ldr	r3, [sp, #12]
 223 0062 DBB2     		uxtb	r3, r3
ARM GAS  /tmp/ccG45m1g.s 			page 5


 224 0064 03F14103 		add	r3, r3, #65
 225 0068 DBB2     		uxtb	r3, r3
 226 006a 40F20000 		movw	r0, #:lower16:iq
 227 006e C0F20000 		movt	r0, #:upper16:iq
 228 0072 1946     		mov	r1, r3
 229 0074 FFF7FEFF 		bl	chIQPutI
 230              		.loc 1 103 0 discriminator 2
 231 0078 039B     		ldr	r3, [sp, #12]
 232 007a 03F10103 		add	r3, r3, #1
 233 007e 0393     		str	r3, [sp, #12]
 234              	.L7:
 235              		.loc 1 103 0 is_stmt 0 discriminator 1
 236 0080 039B     		ldr	r3, [sp, #12]
 237 0082 032B     		cmp	r3, #3
 238 0084 ECD9     		bls	.L8
 239              		.loc 1 105 0 is_stmt 1
 240 0086 FFF7FEFF 		bl	dbg_check_unlock
 241              	.LBB6:
 242 008a 4FF00003 		mov	r3, #0
 243              	@ 105 "../../test/testqueues.c" 1
 244 008e 83F31188 		msr     BASEPRI, r3
 245              	@ 0 "" 2
 246              		.thumb
 247              	.LBE6:
 248              	.LBB7:
 249              		.loc 1 106 0
 250 0092 4FF02003 		mov	r3, #32
 251              	@ 106 "../../test/testqueues.c" 1
 252 0096 83F31188 		msr     BASEPRI, r3
 253              	@ 0 "" 2
 254              		.thumb
 255              	.LBE7:
 256 009a FFF7FEFF 		bl	dbg_check_lock
 257 009e 40F20003 		movw	r3, #:lower16:iq
 258 00a2 C0F20003 		movt	r3, #:upper16:iq
 259 00a6 5A69     		ldr	r2, [r3, #20]
 260 00a8 40F20003 		movw	r3, #:lower16:iq
 261 00ac C0F20003 		movt	r3, #:upper16:iq
 262 00b0 9B69     		ldr	r3, [r3, #24]
 263 00b2 9A42     		cmp	r2, r3
 264 00b4 09D1     		bne	.L9
 265              		.loc 1 106 0 is_stmt 0 discriminator 1
 266 00b6 40F20003 		movw	r3, #:lower16:iq
 267 00ba C0F20003 		movt	r3, #:upper16:iq
 268 00be 9B68     		ldr	r3, [r3, #8]
 269 00c0 002B     		cmp	r3, #0
 270 00c2 02D0     		beq	.L9
 271              		.loc 1 106 0 discriminator 3
 272 00c4 4FF00103 		mov	r3, #1
 273 00c8 01E0     		b	.L10
 274              	.L9:
 275              		.loc 1 106 0 discriminator 2
 276 00ca 4FF00003 		mov	r3, #0
 277              	.L10:
 278              		.loc 1 106 0 discriminator 4
 279 00ce 4FF00200 		mov	r0, #2
 280 00d2 1946     		mov	r1, r3
ARM GAS  /tmp/ccG45m1g.s 			page 6


 281 00d4 FFF7FEFF 		bl	_test_assert
 282 00d8 0346     		mov	r3, r0
 283 00da 002B     		cmp	r3, #0
 284 00dc 06D0     		beq	.L11
 285              		.loc 1 106 0 discriminator 5
 286 00de FFF7FEFF 		bl	dbg_check_unlock
 287              	.LBB8:
 288 00e2 4FF00003 		mov	r3, #0
 289              	@ 106 "../../test/testqueues.c" 1
 290 00e6 83F31188 		msr     BASEPRI, r3
 291              	@ 0 "" 2
 292              		.thumb
 293              	.LBE8:
 294 00ea FDE1     		b	.L4
 295              	.L11:
 296              		.loc 1 106 0 discriminator 6
 297 00ec FFF7FEFF 		bl	dbg_check_unlock
 298              	.LBB9:
 299 00f0 4FF00003 		mov	r3, #0
 300              	@ 106 "../../test/testqueues.c" 1
 301 00f4 83F31188 		msr     BASEPRI, r3
 302              	@ 0 "" 2
 303              		.thumb
 304              	.LBE9:
 305              	.LBB10:
 306              		.loc 1 107 0 is_stmt 1 discriminator 6
 307 00f8 4FF02003 		mov	r3, #32
 308              	@ 107 "../../test/testqueues.c" 1
 309 00fc 83F31188 		msr     BASEPRI, r3
 310              	@ 0 "" 2
 311              		.thumb
 312              	.LBE10:
 313 0100 FFF7FEFF 		bl	dbg_check_lock
 314 0104 40F20000 		movw	r0, #:lower16:iq
 315 0108 C0F20000 		movt	r0, #:upper16:iq
 316 010c 4FF00001 		mov	r1, #0
 317 0110 FFF7FEFF 		bl	chIQPutI
 318 0114 0346     		mov	r3, r0
 319 0116 13F1040F 		cmn	r3, #4
 320 011a 14BF     		ite	ne
 321 011c 0023     		movne	r3, #0
 322 011e 0123     		moveq	r3, #1
 323 0120 4FF00300 		mov	r0, #3
 324 0124 1946     		mov	r1, r3
 325 0126 FFF7FEFF 		bl	_test_assert
 326 012a 0346     		mov	r3, r0
 327 012c 002B     		cmp	r3, #0
 328 012e 06D0     		beq	.L12
 329              		.loc 1 107 0 is_stmt 0 discriminator 1
 330 0130 FFF7FEFF 		bl	dbg_check_unlock
 331              	.LBB11:
 332 0134 4FF00003 		mov	r3, #0
 333              	@ 107 "../../test/testqueues.c" 1
 334 0138 83F31188 		msr     BASEPRI, r3
 335              	@ 0 "" 2
 336              		.thumb
 337              	.LBE11:
ARM GAS  /tmp/ccG45m1g.s 			page 7


 338 013c D4E1     		b	.L4
 339              	.L12:
 340              		.loc 1 107 0 discriminator 2
 341 013e FFF7FEFF 		bl	dbg_check_unlock
 342              	.LBB12:
 343 0142 4FF00003 		mov	r3, #0
 344              	@ 107 "../../test/testqueues.c" 1
 345 0146 83F31188 		msr     BASEPRI, r3
 346              	@ 0 "" 2
 347              		.thumb
 348              	.LBE12:
 349              		.loc 1 110 0 is_stmt 1 discriminator 2
 350 014a 4FF00003 		mov	r3, #0
 351 014e 0393     		str	r3, [sp, #12]
 352 0150 10E0     		b	.L13
 353              	.L14:
 354              		.loc 1 111 0 discriminator 2
 355 0152 40F20000 		movw	r0, #:lower16:iq
 356 0156 C0F20000 		movt	r0, #:upper16:iq
 357 015a 4FF0FF31 		mov	r1, #-1
 358 015e FFF7FEFF 		bl	chIQGetTimeout
 359 0162 0346     		mov	r3, r0
 360 0164 DBB2     		uxtb	r3, r3
 361 0166 1846     		mov	r0, r3
 362 0168 FFF7FEFF 		bl	test_emit_token
 363              		.loc 1 110 0 discriminator 2
 364 016c 039B     		ldr	r3, [sp, #12]
 365 016e 03F10103 		add	r3, r3, #1
 366 0172 0393     		str	r3, [sp, #12]
 367              	.L13:
 368              		.loc 1 110 0 is_stmt 0 discriminator 1
 369 0174 039B     		ldr	r3, [sp, #12]
 370 0176 032B     		cmp	r3, #3
 371 0178 EBD9     		bls	.L14
 372              	.LBB13:
 373              		.loc 1 112 0 is_stmt 1
 374 017a 4FF02003 		mov	r3, #32
 375              	@ 112 "../../test/testqueues.c" 1
 376 017e 83F31188 		msr     BASEPRI, r3
 377              	@ 0 "" 2
 378              		.thumb
 379              	.LBE13:
 380 0182 FFF7FEFF 		bl	dbg_check_lock
 381 0186 40F20003 		movw	r3, #:lower16:iq
 382 018a C0F20003 		movt	r3, #:upper16:iq
 383 018e 9B68     		ldr	r3, [r3, #8]
 384 0190 002B     		cmp	r3, #0
 385 0192 14BF     		ite	ne
 386 0194 0023     		movne	r3, #0
 387 0196 0123     		moveq	r3, #1
 388 0198 4FF00400 		mov	r0, #4
 389 019c 1946     		mov	r1, r3
 390 019e FFF7FEFF 		bl	_test_assert
 391 01a2 0346     		mov	r3, r0
 392 01a4 002B     		cmp	r3, #0
 393 01a6 06D0     		beq	.L15
 394              		.loc 1 112 0 is_stmt 0 discriminator 1
ARM GAS  /tmp/ccG45m1g.s 			page 8


 395 01a8 FFF7FEFF 		bl	dbg_check_unlock
 396              	.LBB14:
 397 01ac 4FF00003 		mov	r3, #0
 398              	@ 112 "../../test/testqueues.c" 1
 399 01b0 83F31188 		msr     BASEPRI, r3
 400              	@ 0 "" 2
 401              		.thumb
 402              	.LBE14:
 403 01b4 98E1     		b	.L4
 404              	.L15:
 405              		.loc 1 112 0 discriminator 2
 406 01b6 FFF7FEFF 		bl	dbg_check_unlock
 407              	.LBB15:
 408 01ba 4FF00003 		mov	r3, #0
 409              	@ 112 "../../test/testqueues.c" 1
 410 01be 83F31188 		msr     BASEPRI, r3
 411              	@ 0 "" 2
 412              		.thumb
 413              	.LBE15:
 414              		.loc 1 113 0 is_stmt 1 discriminator 2
 415 01c2 4FF00500 		mov	r0, #5
 416 01c6 40F20001 		movw	r1, #:lower16:.LC0
 417 01ca C0F20001 		movt	r1, #:upper16:.LC0
 418 01ce FFF7FEFF 		bl	_test_assert_sequence
 419 01d2 0346     		mov	r3, r0
 420 01d4 002B     		cmp	r3, #0
 421 01d6 40F08781 		bne	.L4
 422              	.L16:
 423              	.LBB16:
 424              		.loc 1 116 0
 425 01da 4FF02003 		mov	r3, #32
 426              	@ 116 "../../test/testqueues.c" 1
 427 01de 83F31188 		msr     BASEPRI, r3
 428              	@ 0 "" 2
 429              		.thumb
 430              	.LBE16:
 431 01e2 FFF7FEFF 		bl	dbg_check_lock
 432              		.loc 1 117 0
 433 01e6 4FF00003 		mov	r3, #0
 434 01ea 0393     		str	r3, [sp, #12]
 435 01ec 0FE0     		b	.L17
 436              	.L18:
 437              		.loc 1 118 0 discriminator 2
 438 01ee 039B     		ldr	r3, [sp, #12]
 439 01f0 DBB2     		uxtb	r3, r3
 440 01f2 03F14103 		add	r3, r3, #65
 441 01f6 DBB2     		uxtb	r3, r3
 442 01f8 40F20000 		movw	r0, #:lower16:iq
 443 01fc C0F20000 		movt	r0, #:upper16:iq
 444 0200 1946     		mov	r1, r3
 445 0202 FFF7FEFF 		bl	chIQPutI
 446              		.loc 1 117 0 discriminator 2
 447 0206 039B     		ldr	r3, [sp, #12]
 448 0208 03F10103 		add	r3, r3, #1
 449 020c 0393     		str	r3, [sp, #12]
 450              	.L17:
 451              		.loc 1 117 0 is_stmt 0 discriminator 1
ARM GAS  /tmp/ccG45m1g.s 			page 9


 452 020e 039B     		ldr	r3, [sp, #12]
 453 0210 032B     		cmp	r3, #3
 454 0212 ECD9     		bls	.L18
 455              		.loc 1 119 0 is_stmt 1
 456 0214 FFF7FEFF 		bl	dbg_check_unlock
 457              	.LBB17:
 458 0218 4FF00003 		mov	r3, #0
 459              	@ 119 "../../test/testqueues.c" 1
 460 021c 83F31188 		msr     BASEPRI, r3
 461              	@ 0 "" 2
 462              		.thumb
 463              	.LBE17:
 464              		.loc 1 122 0
 465 0220 40F20003 		movw	r3, #:lower16:wa
 466 0224 C0F20003 		movt	r3, #:upper16:wa
 467 0228 5B68     		ldr	r3, [r3, #4]
 468 022a 40F20000 		movw	r0, #:lower16:iq
 469 022e C0F20000 		movt	r0, #:upper16:iq
 470 0232 1946     		mov	r1, r3
 471 0234 4FF00802 		mov	r2, #8
 472 0238 4FF00003 		mov	r3, #0
 473 023c FFF7FEFF 		bl	chIQReadTimeout
 474 0240 0346     		mov	r3, r0
 475 0242 0293     		str	r3, [sp, #8]
 476              		.loc 1 123 0
 477 0244 029B     		ldr	r3, [sp, #8]
 478 0246 042B     		cmp	r3, #4
 479 0248 14BF     		ite	ne
 480 024a 0023     		movne	r3, #0
 481 024c 0123     		moveq	r3, #1
 482 024e 4FF00600 		mov	r0, #6
 483 0252 1946     		mov	r1, r3
 484 0254 FFF7FEFF 		bl	_test_assert
 485 0258 0346     		mov	r3, r0
 486 025a 002B     		cmp	r3, #0
 487 025c 40F04481 		bne	.L4
 488              	.L19:
 489              	.LBB18:
 490              		.loc 1 124 0
 491 0260 4FF02003 		mov	r3, #32
 492              	@ 124 "../../test/testqueues.c" 1
 493 0264 83F31188 		msr     BASEPRI, r3
 494              	@ 0 "" 2
 495              		.thumb
 496              	.LBE18:
 497 0268 FFF7FEFF 		bl	dbg_check_lock
 498 026c 40F20003 		movw	r3, #:lower16:iq
 499 0270 C0F20003 		movt	r3, #:upper16:iq
 500 0274 9B68     		ldr	r3, [r3, #8]
 501 0276 002B     		cmp	r3, #0
 502 0278 14BF     		ite	ne
 503 027a 0023     		movne	r3, #0
 504 027c 0123     		moveq	r3, #1
 505 027e 4FF00700 		mov	r0, #7
 506 0282 1946     		mov	r1, r3
 507 0284 FFF7FEFF 		bl	_test_assert
 508 0288 0346     		mov	r3, r0
ARM GAS  /tmp/ccG45m1g.s 			page 10


 509 028a 002B     		cmp	r3, #0
 510 028c 06D0     		beq	.L20
 511              		.loc 1 124 0 is_stmt 0 discriminator 1
 512 028e FFF7FEFF 		bl	dbg_check_unlock
 513              	.LBB19:
 514 0292 4FF00003 		mov	r3, #0
 515              	@ 124 "../../test/testqueues.c" 1
 516 0296 83F31188 		msr     BASEPRI, r3
 517              	@ 0 "" 2
 518              		.thumb
 519              	.LBE19:
 520 029a 25E1     		b	.L4
 521              	.L20:
 522              		.loc 1 124 0 discriminator 2
 523 029c FFF7FEFF 		bl	dbg_check_unlock
 524              	.LBB20:
 525 02a0 4FF00003 		mov	r3, #0
 526              	@ 124 "../../test/testqueues.c" 1
 527 02a4 83F31188 		msr     BASEPRI, r3
 528              	@ 0 "" 2
 529              		.thumb
 530              	.LBE20:
 531              	.LBB21:
 532              		.loc 1 127 0 is_stmt 1 discriminator 2
 533 02a8 4FF02003 		mov	r3, #32
 534              	@ 127 "../../test/testqueues.c" 1
 535 02ac 83F31188 		msr     BASEPRI, r3
 536              	@ 0 "" 2
 537              		.thumb
 538              	.LBE21:
 539 02b0 FFF7FEFF 		bl	dbg_check_lock
 540              		.loc 1 128 0 discriminator 2
 541 02b4 4FF00003 		mov	r3, #0
 542 02b8 0393     		str	r3, [sp, #12]
 543 02ba 0FE0     		b	.L21
 544              	.L22:
 545              		.loc 1 129 0 discriminator 2
 546 02bc 039B     		ldr	r3, [sp, #12]
 547 02be DBB2     		uxtb	r3, r3
 548 02c0 03F14103 		add	r3, r3, #65
 549 02c4 DBB2     		uxtb	r3, r3
 550 02c6 40F20000 		movw	r0, #:lower16:iq
 551 02ca C0F20000 		movt	r0, #:upper16:iq
 552 02ce 1946     		mov	r1, r3
 553 02d0 FFF7FEFF 		bl	chIQPutI
 554              		.loc 1 128 0 discriminator 2
 555 02d4 039B     		ldr	r3, [sp, #12]
 556 02d6 03F10103 		add	r3, r3, #1
 557 02da 0393     		str	r3, [sp, #12]
 558              	.L21:
 559              		.loc 1 128 0 is_stmt 0 discriminator 1
 560 02dc 039B     		ldr	r3, [sp, #12]
 561 02de 032B     		cmp	r3, #3
 562 02e0 ECD9     		bls	.L22
 563              		.loc 1 130 0 is_stmt 1
 564 02e2 FFF7FEFF 		bl	dbg_check_unlock
 565              	.LBB22:
ARM GAS  /tmp/ccG45m1g.s 			page 11


 566 02e6 4FF00003 		mov	r3, #0
 567              	@ 130 "../../test/testqueues.c" 1
 568 02ea 83F31188 		msr     BASEPRI, r3
 569              	@ 0 "" 2
 570              		.thumb
 571              	.LBE22:
 572              		.loc 1 133 0
 573 02ee 40F20003 		movw	r3, #:lower16:wa
 574 02f2 C0F20003 		movt	r3, #:upper16:wa
 575 02f6 5B68     		ldr	r3, [r3, #4]
 576 02f8 40F20000 		movw	r0, #:lower16:iq
 577 02fc C0F20000 		movt	r0, #:upper16:iq
 578 0300 1946     		mov	r1, r3
 579 0302 4FF00202 		mov	r2, #2
 580 0306 4FF00003 		mov	r3, #0
 581 030a FFF7FEFF 		bl	chIQReadTimeout
 582 030e 0346     		mov	r3, r0
 583 0310 0293     		str	r3, [sp, #8]
 584              		.loc 1 134 0
 585 0312 029B     		ldr	r3, [sp, #8]
 586 0314 022B     		cmp	r3, #2
 587 0316 14BF     		ite	ne
 588 0318 0023     		movne	r3, #0
 589 031a 0123     		moveq	r3, #1
 590 031c 4FF00800 		mov	r0, #8
 591 0320 1946     		mov	r1, r3
 592 0322 FFF7FEFF 		bl	_test_assert
 593 0326 0346     		mov	r3, r0
 594 0328 002B     		cmp	r3, #0
 595 032a 40F0DD80 		bne	.L4
 596              	.L23:
 597              		.loc 1 135 0
 598 032e 40F20003 		movw	r3, #:lower16:wa
 599 0332 C0F20003 		movt	r3, #:upper16:wa
 600 0336 5B68     		ldr	r3, [r3, #4]
 601 0338 40F20000 		movw	r0, #:lower16:iq
 602 033c C0F20000 		movt	r0, #:upper16:iq
 603 0340 1946     		mov	r1, r3
 604 0342 4FF00202 		mov	r2, #2
 605 0346 4FF00003 		mov	r3, #0
 606 034a FFF7FEFF 		bl	chIQReadTimeout
 607 034e 0346     		mov	r3, r0
 608 0350 0293     		str	r3, [sp, #8]
 609              		.loc 1 136 0
 610 0352 029B     		ldr	r3, [sp, #8]
 611 0354 022B     		cmp	r3, #2
 612 0356 14BF     		ite	ne
 613 0358 0023     		movne	r3, #0
 614 035a 0123     		moveq	r3, #1
 615 035c 4FF00900 		mov	r0, #9
 616 0360 1946     		mov	r1, r3
 617 0362 FFF7FEFF 		bl	_test_assert
 618 0366 0346     		mov	r3, r0
 619 0368 002B     		cmp	r3, #0
 620 036a 40F0BD80 		bne	.L4
 621              	.L24:
 622              	.LBB23:
ARM GAS  /tmp/ccG45m1g.s 			page 12


 623              		.loc 1 137 0
 624 036e 4FF02003 		mov	r3, #32
 625              	@ 137 "../../test/testqueues.c" 1
 626 0372 83F31188 		msr     BASEPRI, r3
 627              	@ 0 "" 2
 628              		.thumb
 629              	.LBE23:
 630 0376 FFF7FEFF 		bl	dbg_check_lock
 631 037a 40F20003 		movw	r3, #:lower16:iq
 632 037e C0F20003 		movt	r3, #:upper16:iq
 633 0382 9B68     		ldr	r3, [r3, #8]
 634 0384 002B     		cmp	r3, #0
 635 0386 14BF     		ite	ne
 636 0388 0023     		movne	r3, #0
 637 038a 0123     		moveq	r3, #1
 638 038c 4FF00A00 		mov	r0, #10
 639 0390 1946     		mov	r1, r3
 640 0392 FFF7FEFF 		bl	_test_assert
 641 0396 0346     		mov	r3, r0
 642 0398 002B     		cmp	r3, #0
 643 039a 06D0     		beq	.L25
 644              		.loc 1 137 0 is_stmt 0 discriminator 1
 645 039c FFF7FEFF 		bl	dbg_check_unlock
 646              	.LBB24:
 647 03a0 4FF00003 		mov	r3, #0
 648              	@ 137 "../../test/testqueues.c" 1
 649 03a4 83F31188 		msr     BASEPRI, r3
 650              	@ 0 "" 2
 651              		.thumb
 652              	.LBE24:
 653 03a8 9EE0     		b	.L4
 654              	.L25:
 655              		.loc 1 137 0 discriminator 2
 656 03aa FFF7FEFF 		bl	dbg_check_unlock
 657              	.LBB25:
 658 03ae 4FF00003 		mov	r3, #0
 659              	@ 137 "../../test/testqueues.c" 1
 660 03b2 83F31188 		msr     BASEPRI, r3
 661              	@ 0 "" 2
 662              		.thumb
 663              	.LBE25:
 664              	.LBB26:
 665              		.loc 1 140 0 is_stmt 1 discriminator 2
 666 03b6 4FF02003 		mov	r3, #32
 667              	@ 140 "../../test/testqueues.c" 1
 668 03ba 83F31188 		msr     BASEPRI, r3
 669              	@ 0 "" 2
 670              		.thumb
 671              	.LBE26:
 672 03be FFF7FEFF 		bl	dbg_check_lock
 673              		.loc 1 141 0 discriminator 2
 674 03c2 40F20000 		movw	r0, #:lower16:iq
 675 03c6 C0F20000 		movt	r0, #:upper16:iq
 676 03ca 4FF00001 		mov	r1, #0
 677 03ce FFF7FEFF 		bl	chIQPutI
 678              		.loc 1 142 0 discriminator 2
 679 03d2 40F20000 		movw	r0, #:lower16:iq
ARM GAS  /tmp/ccG45m1g.s 			page 13


 680 03d6 C0F20000 		movt	r0, #:upper16:iq
 681 03da FFF7FEFF 		bl	chIQResetI
 682              		.loc 1 143 0 discriminator 2
 683 03de FFF7FEFF 		bl	dbg_check_unlock
 684              	.LBB27:
 685 03e2 4FF00003 		mov	r3, #0
 686              	@ 143 "../../test/testqueues.c" 1
 687 03e6 83F31188 		msr     BASEPRI, r3
 688              	@ 0 "" 2
 689              		.thumb
 690              	.LBE27:
 691              	.LBB28:
 692              		.loc 1 144 0 discriminator 2
 693 03ea 4FF02003 		mov	r3, #32
 694              	@ 144 "../../test/testqueues.c" 1
 695 03ee 83F31188 		msr     BASEPRI, r3
 696              	@ 0 "" 2
 697              		.thumb
 698              	.LBE28:
 699 03f2 FFF7FEFF 		bl	dbg_check_lock
 700 03f6 40F20003 		movw	r3, #:lower16:iq
 701 03fa C0F20003 		movt	r3, #:upper16:iq
 702 03fe 9B68     		ldr	r3, [r3, #8]
 703 0400 002B     		cmp	r3, #0
 704 0402 14BF     		ite	ne
 705 0404 0023     		movne	r3, #0
 706 0406 0123     		moveq	r3, #1
 707 0408 4FF00B00 		mov	r0, #11
 708 040c 1946     		mov	r1, r3
 709 040e FFF7FEFF 		bl	_test_assert
 710 0412 0346     		mov	r3, r0
 711 0414 002B     		cmp	r3, #0
 712 0416 06D0     		beq	.L26
 713              		.loc 1 144 0 is_stmt 0 discriminator 1
 714 0418 FFF7FEFF 		bl	dbg_check_unlock
 715              	.LBB29:
 716 041c 4FF00003 		mov	r3, #0
 717              	@ 144 "../../test/testqueues.c" 1
 718 0420 83F31188 		msr     BASEPRI, r3
 719              	@ 0 "" 2
 720              		.thumb
 721              	.LBE29:
 722 0424 60E0     		b	.L4
 723              	.L26:
 724              		.loc 1 144 0 discriminator 2
 725 0426 FFF7FEFF 		bl	dbg_check_unlock
 726              	.LBB30:
 727 042a 4FF00003 		mov	r3, #0
 728              	@ 144 "../../test/testqueues.c" 1
 729 042e 83F31188 		msr     BASEPRI, r3
 730              	@ 0 "" 2
 731              		.thumb
 732              	.LBE30:
 733              		.loc 1 145 0 is_stmt 1 discriminator 2
 734 0432 40F20003 		movw	r3, #:lower16:wa
 735 0436 C0F20003 		movt	r3, #:upper16:wa
 736 043a 1A68     		ldr	r2, [r3, #0]
ARM GAS  /tmp/ccG45m1g.s 			page 14


 737 043c 40F20003 		movw	r3, #:lower16:rlist
 738 0440 C0F20003 		movt	r3, #:upper16:rlist
 739 0444 9B69     		ldr	r3, [r3, #24]
 740 0446 9B68     		ldr	r3, [r3, #8]
 741 0448 03F10103 		add	r3, r3, #1
 742 044c 4FF00001 		mov	r1, #0
 743 0450 0091     		str	r1, [sp, #0]
 744 0452 1046     		mov	r0, r2
 745 0454 4FF49871 		mov	r1, #304
 746 0458 1A46     		mov	r2, r3
 747 045a 40F20003 		movw	r3, #:lower16:thread1
 748 045e C0F20003 		movt	r3, #:upper16:thread1
 749 0462 FFF7FEFF 		bl	chThdCreateStatic
 750 0466 0246     		mov	r2, r0
 751 0468 40F20003 		movw	r3, #:lower16:threads
 752 046c C0F20003 		movt	r3, #:upper16:threads
 753 0470 1A60     		str	r2, [r3, #0]
 754              	.LBB31:
 755              		.loc 1 146 0 discriminator 2
 756 0472 4FF02003 		mov	r3, #32
 757              	@ 146 "../../test/testqueues.c" 1
 758 0476 83F31188 		msr     BASEPRI, r3
 759              	@ 0 "" 2
 760              		.thumb
 761              	.LBE31:
 762 047a FFF7FEFF 		bl	dbg_check_lock
 763 047e 40F20003 		movw	r3, #:lower16:iq
 764 0482 C0F20003 		movt	r3, #:upper16:iq
 765 0486 9B68     		ldr	r3, [r3, #8]
 766 0488 002B     		cmp	r3, #0
 767 048a 14BF     		ite	ne
 768 048c 0023     		movne	r3, #0
 769 048e 0123     		moveq	r3, #1
 770 0490 4FF00C00 		mov	r0, #12
 771 0494 1946     		mov	r1, r3
 772 0496 FFF7FEFF 		bl	_test_assert
 773 049a 0346     		mov	r3, r0
 774 049c 002B     		cmp	r3, #0
 775 049e 06D0     		beq	.L27
 776              		.loc 1 146 0 is_stmt 0 discriminator 1
 777 04a0 FFF7FEFF 		bl	dbg_check_unlock
 778              	.LBB32:
 779 04a4 4FF00003 		mov	r3, #0
 780              	@ 146 "../../test/testqueues.c" 1
 781 04a8 83F31188 		msr     BASEPRI, r3
 782              	@ 0 "" 2
 783              		.thumb
 784              	.LBE32:
 785 04ac 1CE0     		b	.L4
 786              	.L27:
 787              		.loc 1 146 0 discriminator 2
 788 04ae FFF7FEFF 		bl	dbg_check_unlock
 789              	.LBB33:
 790 04b2 4FF00003 		mov	r3, #0
 791              	@ 146 "../../test/testqueues.c" 1
 792 04b6 83F31188 		msr     BASEPRI, r3
 793              	@ 0 "" 2
ARM GAS  /tmp/ccG45m1g.s 			page 15


 794              		.thumb
 795              	.LBE33:
 796              		.loc 1 147 0 is_stmt 1 discriminator 2
 797 04ba FFF7FEFF 		bl	test_wait_threads
 798              		.loc 1 150 0 discriminator 2
 799 04be 40F20000 		movw	r0, #:lower16:iq
 800 04c2 C0F20000 		movt	r0, #:upper16:iq
 801 04c6 4FF00A01 		mov	r1, #10
 802 04ca FFF7FEFF 		bl	chIQGetTimeout
 803 04ce 0346     		mov	r3, r0
 804 04d0 B3F1FF3F 		cmp	r3, #-1
 805 04d4 14BF     		ite	ne
 806 04d6 0023     		movne	r3, #0
 807 04d8 0123     		moveq	r3, #1
 808 04da 4FF00D00 		mov	r0, #13
 809 04de 1946     		mov	r1, r3
 810 04e0 FFF7FEFF 		bl	_test_assert
 811 04e4 0346     		mov	r3, r0
 812 04e6 002B     		cmp	r3, #0
 813              	.L4:
 814              		.loc 1 151 0
 815 04e8 05B0     		add	sp, sp, #20
 816 04ea 00BD     		pop	{pc}
 817              		.cfi_endproc
 818              	.LFE10:
 819              		.size	queues1_execute, .-queues1_execute
 820              		.global	testqueues1
 821 04ec AFF30080 		.section	.rodata
 822 0005 000000   		.align	2
 823              	.LC1:
 824 0008 51756575 		.ascii	"Queues, input queues\000"
 824      65732C20 
 824      696E7075 
 824      74207175 
 824      65756573 
 825              		.section	.rodata.testqueues1,"a",%progbits
 826              		.align	2
 827              		.type	testqueues1, %object
 828              		.size	testqueues1, 16
 829              	testqueues1:
 830 0000 08000000 		.word	.LC1
 831 0004 00000000 		.word	queues1_setup
 832 0008 00000000 		.word	0
 833 000c 00000000 		.word	queues1_execute
 834              		.section	.text.queues2_setup,"ax",%progbits
 835              		.align	2
 836              		.p2align 4,,15
 837              		.thumb
 838              		.thumb_func
 839              		.type	queues2_setup, %function
 840              	queues2_setup:
 841              	.LFB11:
 842              		.loc 1 169 0
 843              		.cfi_startproc
 844              		@ args = 0, pretend = 0, frame = 0
 845              		@ frame_needed = 0, uses_anonymous_args = 0
 846 0000 00B5     		push	{lr}
ARM GAS  /tmp/ccG45m1g.s 			page 16


 847              	.LCFI7:
 848              		.cfi_def_cfa_offset 4
 849              		.cfi_offset 14, -4
 850 0002 83B0     		sub	sp, sp, #12
 851              	.LCFI8:
 852              		.cfi_def_cfa_offset 16
 853              		.loc 1 171 0
 854 0004 40F20003 		movw	r3, #:lower16:wa
 855 0008 C0F20003 		movt	r3, #:upper16:wa
 856 000c 1B68     		ldr	r3, [r3, #0]
 857 000e 4FF00002 		mov	r2, #0
 858 0012 0092     		str	r2, [sp, #0]
 859 0014 40F20000 		movw	r0, #:lower16:oq
 860 0018 C0F20000 		movt	r0, #:upper16:oq
 861 001c 1946     		mov	r1, r3
 862 001e 4FF00402 		mov	r2, #4
 863 0022 40F20003 		movw	r3, #:lower16:notify
 864 0026 C0F20003 		movt	r3, #:upper16:notify
 865 002a FFF7FEFF 		bl	chOQInit
 866              		.loc 1 172 0
 867 002e 03B0     		add	sp, sp, #12
 868 0030 00BD     		pop	{pc}
 869              		.cfi_endproc
 870              	.LFE11:
 871              		.size	queues2_setup, .-queues2_setup
 872 0032 00BFAFF3 		.section	.text.thread2,"ax",%progbits
 872      0080AFF3 
 872      0080AFF3 
 872      0080
 873              		.align	2
 874              		.p2align 4,,15
 875              		.thumb
 876              		.thumb_func
 877              		.type	thread2, %function
 878              	thread2:
 879              	.LFB12:
 880              		.loc 1 174 0
 881              		.cfi_startproc
 882              		@ args = 0, pretend = 0, frame = 8
 883              		@ frame_needed = 0, uses_anonymous_args = 0
 884 0000 00B5     		push	{lr}
 885              	.LCFI9:
 886              		.cfi_def_cfa_offset 4
 887              		.cfi_offset 14, -4
 888 0002 83B0     		sub	sp, sp, #12
 889              	.LCFI10:
 890              		.cfi_def_cfa_offset 16
 891 0004 0190     		str	r0, [sp, #4]
 892              		.loc 1 177 0
 893 0006 40F20000 		movw	r0, #:lower16:oq
 894 000a C0F20000 		movt	r0, #:upper16:oq
 895 000e 4FF00001 		mov	r1, #0
 896 0012 4FF0C802 		mov	r2, #200
 897 0016 FFF7FEFF 		bl	chOQPutTimeout
 898              		.loc 1 178 0
 899 001a 4FF00003 		mov	r3, #0
 900              		.loc 1 179 0
ARM GAS  /tmp/ccG45m1g.s 			page 17


 901 001e 1846     		mov	r0, r3
 902 0020 03B0     		add	sp, sp, #12
 903 0022 00BD     		pop	{pc}
 904              		.cfi_endproc
 905              	.LFE12:
 906              		.size	thread2, .-thread2
 907 0024 AFF30080 		.section	.text.queues2_execute,"ax",%progbits
 907      AFF30080 
 907      AFF30080 
 908              		.align	2
 909              		.p2align 4,,15
 910              		.thumb
 911              		.thumb_func
 912              		.type	queues2_execute, %function
 913              	queues2_execute:
 914              	.LFB13:
 915              		.loc 1 181 0
 916              		.cfi_startproc
 917              		@ args = 0, pretend = 0, frame = 16
 918              		@ frame_needed = 0, uses_anonymous_args = 0
 919 0000 00B5     		push	{lr}
 920              	.LCFI11:
 921              		.cfi_def_cfa_offset 4
 922              		.cfi_offset 14, -4
 923 0002 87B0     		sub	sp, sp, #28
 924              	.LCFI12:
 925              		.cfi_def_cfa_offset 32
 926              	.LBB34:
 927              		.loc 1 186 0
 928 0004 4FF02003 		mov	r3, #32
 929              	@ 186 "../../test/testqueues.c" 1
 930 0008 83F31188 		msr     BASEPRI, r3
 931              	@ 0 "" 2
 932              		.thumb
 933              	.LBE34:
 934 000c FFF7FEFF 		bl	dbg_check_lock
 935 0010 40F20003 		movw	r3, #:lower16:oq
 936 0014 C0F20003 		movt	r3, #:upper16:oq
 937 0018 5A69     		ldr	r2, [r3, #20]
 938 001a 40F20003 		movw	r3, #:lower16:oq
 939 001e C0F20003 		movt	r3, #:upper16:oq
 940 0022 9B69     		ldr	r3, [r3, #24]
 941 0024 9A42     		cmp	r2, r3
 942 0026 09D1     		bne	.L31
 943              		.loc 1 186 0 is_stmt 0 discriminator 1
 944 0028 40F20003 		movw	r3, #:lower16:oq
 945 002c C0F20003 		movt	r3, #:upper16:oq
 946 0030 9B68     		ldr	r3, [r3, #8]
 947 0032 002B     		cmp	r3, #0
 948 0034 02D0     		beq	.L31
 949              		.loc 1 186 0 discriminator 3
 950 0036 4FF00103 		mov	r3, #1
 951 003a 01E0     		b	.L32
 952              	.L31:
 953              		.loc 1 186 0 discriminator 2
 954 003c 4FF00003 		mov	r3, #0
 955              	.L32:
ARM GAS  /tmp/ccG45m1g.s 			page 18


 956              		.loc 1 186 0 discriminator 4
 957 0040 4FF00100 		mov	r0, #1
 958 0044 1946     		mov	r1, r3
 959 0046 FFF7FEFF 		bl	_test_assert
 960 004a 0346     		mov	r3, r0
 961 004c 002B     		cmp	r3, #0
 962 004e 06D0     		beq	.L33
 963              		.loc 1 186 0 discriminator 5
 964 0050 FFF7FEFF 		bl	dbg_check_unlock
 965              	.LBB35:
 966 0054 4FF00003 		mov	r3, #0
 967              	@ 186 "../../test/testqueues.c" 1
 968 0058 83F31188 		msr     BASEPRI, r3
 969              	@ 0 "" 2
 970              		.thumb
 971              	.LBE35:
 972 005c 21E2     		b	.L30
 973              	.L33:
 974              		.loc 1 186 0 discriminator 6
 975 005e FFF7FEFF 		bl	dbg_check_unlock
 976              	.LBB36:
 977 0062 4FF00003 		mov	r3, #0
 978              	@ 186 "../../test/testqueues.c" 1
 979 0066 83F31188 		msr     BASEPRI, r3
 980              	@ 0 "" 2
 981              		.thumb
 982              	.LBE36:
 983              		.loc 1 189 0 is_stmt 1 discriminator 6
 984 006a 4FF00003 		mov	r3, #0
 985 006e 0593     		str	r3, [sp, #20]
 986 0070 11E0     		b	.L35
 987              	.L36:
 988              		.loc 1 190 0 discriminator 2
 989 0072 059B     		ldr	r3, [sp, #20]
 990 0074 DBB2     		uxtb	r3, r3
 991 0076 03F14103 		add	r3, r3, #65
 992 007a DBB2     		uxtb	r3, r3
 993 007c 40F20000 		movw	r0, #:lower16:oq
 994 0080 C0F20000 		movt	r0, #:upper16:oq
 995 0084 1946     		mov	r1, r3
 996 0086 4FF0FF32 		mov	r2, #-1
 997 008a FFF7FEFF 		bl	chOQPutTimeout
 998              		.loc 1 189 0 discriminator 2
 999 008e 059B     		ldr	r3, [sp, #20]
 1000 0090 03F10103 		add	r3, r3, #1
 1001 0094 0593     		str	r3, [sp, #20]
 1002              	.L35:
 1003              		.loc 1 189 0 is_stmt 0 discriminator 1
 1004 0096 059B     		ldr	r3, [sp, #20]
 1005 0098 032B     		cmp	r3, #3
 1006 009a EAD9     		bls	.L36
 1007              	.LBB37:
 1008              		.loc 1 191 0 is_stmt 1
 1009 009c 4FF02003 		mov	r3, #32
 1010              	@ 191 "../../test/testqueues.c" 1
 1011 00a0 83F31188 		msr     BASEPRI, r3
 1012              	@ 0 "" 2
ARM GAS  /tmp/ccG45m1g.s 			page 19


 1013              		.thumb
 1014              	.LBE37:
 1015 00a4 FFF7FEFF 		bl	dbg_check_lock
 1016 00a8 40F20003 		movw	r3, #:lower16:oq
 1017 00ac C0F20003 		movt	r3, #:upper16:oq
 1018 00b0 9B68     		ldr	r3, [r3, #8]
 1019 00b2 002B     		cmp	r3, #0
 1020 00b4 14BF     		ite	ne
 1021 00b6 0023     		movne	r3, #0
 1022 00b8 0123     		moveq	r3, #1
 1023 00ba 4FF00200 		mov	r0, #2
 1024 00be 1946     		mov	r1, r3
 1025 00c0 FFF7FEFF 		bl	_test_assert
 1026 00c4 0346     		mov	r3, r0
 1027 00c6 002B     		cmp	r3, #0
 1028 00c8 06D0     		beq	.L37
 1029              		.loc 1 191 0 is_stmt 0 discriminator 1
 1030 00ca FFF7FEFF 		bl	dbg_check_unlock
 1031              	.LBB38:
 1032 00ce 4FF00003 		mov	r3, #0
 1033              	@ 191 "../../test/testqueues.c" 1
 1034 00d2 83F31188 		msr     BASEPRI, r3
 1035              	@ 0 "" 2
 1036              		.thumb
 1037              	.LBE38:
 1038 00d6 E4E1     		b	.L30
 1039              	.L37:
 1040              		.loc 1 191 0 discriminator 2
 1041 00d8 FFF7FEFF 		bl	dbg_check_unlock
 1042              	.LBB39:
 1043 00dc 4FF00003 		mov	r3, #0
 1044              	@ 191 "../../test/testqueues.c" 1
 1045 00e0 83F31188 		msr     BASEPRI, r3
 1046              	@ 0 "" 2
 1047              		.thumb
 1048              	.LBE39:
 1049              		.loc 1 194 0 is_stmt 1 discriminator 2
 1050 00e4 4FF00003 		mov	r3, #0
 1051 00e8 0593     		str	r3, [sp, #20]
 1052 00ea 1DE0     		b	.L38
 1053              	.L39:
 1054              	.LBB40:
 1055              	.LBB41:
 1056              		.loc 1 197 0 discriminator 2
 1057 00ec 4FF02003 		mov	r3, #32
 1058              	@ 197 "../../test/testqueues.c" 1
 1059 00f0 83F31188 		msr     BASEPRI, r3
 1060              	@ 0 "" 2
 1061              		.thumb
 1062              	.LBE41:
 1063 00f4 FFF7FEFF 		bl	dbg_check_lock
 1064              		.loc 1 198 0 discriminator 2
 1065 00f8 40F20000 		movw	r0, #:lower16:oq
 1066 00fc C0F20000 		movt	r0, #:upper16:oq
 1067 0100 FFF7FEFF 		bl	chOQGetI
 1068 0104 0346     		mov	r3, r0
 1069 0106 8DF81330 		strb	r3, [sp, #19]
ARM GAS  /tmp/ccG45m1g.s 			page 20


 1070              		.loc 1 199 0 discriminator 2
 1071 010a FFF7FEFF 		bl	dbg_check_unlock
 1072              	.LBB42:
 1073 010e 4FF00003 		mov	r3, #0
 1074              	@ 199 "../../test/testqueues.c" 1
 1075 0112 83F31188 		msr     BASEPRI, r3
 1076              	@ 0 "" 2
 1077              		.thumb
 1078              	.LBE42:
 1079              		.loc 1 200 0 discriminator 2
 1080 0116 9DF81330 		ldrb	r3, [sp, #19]	@ zero_extendqisi2
 1081 011a 1846     		mov	r0, r3
 1082 011c FFF7FEFF 		bl	test_emit_token
 1083              	.LBE40:
 1084              		.loc 1 194 0 discriminator 2
 1085 0120 059B     		ldr	r3, [sp, #20]
 1086 0122 03F10103 		add	r3, r3, #1
 1087 0126 0593     		str	r3, [sp, #20]
 1088              	.L38:
 1089              		.loc 1 194 0 is_stmt 0 discriminator 1
 1090 0128 059B     		ldr	r3, [sp, #20]
 1091 012a 032B     		cmp	r3, #3
 1092 012c DED9     		bls	.L39
 1093              	.LBB43:
 1094              		.loc 1 202 0 is_stmt 1
 1095 012e 4FF02003 		mov	r3, #32
 1096              	@ 202 "../../test/testqueues.c" 1
 1097 0132 83F31188 		msr     BASEPRI, r3
 1098              	@ 0 "" 2
 1099              		.thumb
 1100              	.LBE43:
 1101 0136 FFF7FEFF 		bl	dbg_check_lock
 1102 013a 40F20003 		movw	r3, #:lower16:oq
 1103 013e C0F20003 		movt	r3, #:upper16:oq
 1104 0142 5A69     		ldr	r2, [r3, #20]
 1105 0144 40F20003 		movw	r3, #:lower16:oq
 1106 0148 C0F20003 		movt	r3, #:upper16:oq
 1107 014c 9B69     		ldr	r3, [r3, #24]
 1108 014e 9A42     		cmp	r2, r3
 1109 0150 09D1     		bne	.L40
 1110              		.loc 1 202 0 is_stmt 0 discriminator 1
 1111 0152 40F20003 		movw	r3, #:lower16:oq
 1112 0156 C0F20003 		movt	r3, #:upper16:oq
 1113 015a 9B68     		ldr	r3, [r3, #8]
 1114 015c 002B     		cmp	r3, #0
 1115 015e 02D0     		beq	.L40
 1116              		.loc 1 202 0 discriminator 3
 1117 0160 4FF00103 		mov	r3, #1
 1118 0164 01E0     		b	.L41
 1119              	.L40:
 1120              		.loc 1 202 0 discriminator 2
 1121 0166 4FF00003 		mov	r3, #0
 1122              	.L41:
 1123              		.loc 1 202 0 discriminator 4
 1124 016a 4FF00300 		mov	r0, #3
 1125 016e 1946     		mov	r1, r3
 1126 0170 FFF7FEFF 		bl	_test_assert
ARM GAS  /tmp/ccG45m1g.s 			page 21


 1127 0174 0346     		mov	r3, r0
 1128 0176 002B     		cmp	r3, #0
 1129 0178 06D0     		beq	.L42
 1130              		.loc 1 202 0 discriminator 5
 1131 017a FFF7FEFF 		bl	dbg_check_unlock
 1132              	.LBB44:
 1133 017e 4FF00003 		mov	r3, #0
 1134              	@ 202 "../../test/testqueues.c" 1
 1135 0182 83F31188 		msr     BASEPRI, r3
 1136              	@ 0 "" 2
 1137              		.thumb
 1138              	.LBE44:
 1139 0186 8CE1     		b	.L30
 1140              	.L42:
 1141              		.loc 1 202 0 discriminator 6
 1142 0188 FFF7FEFF 		bl	dbg_check_unlock
 1143              	.LBB45:
 1144 018c 4FF00003 		mov	r3, #0
 1145              	@ 202 "../../test/testqueues.c" 1
 1146 0190 83F31188 		msr     BASEPRI, r3
 1147              	@ 0 "" 2
 1148              		.thumb
 1149              	.LBE45:
 1150              		.loc 1 203 0 is_stmt 1 discriminator 6
 1151 0194 4FF00400 		mov	r0, #4
 1152 0198 40F20001 		movw	r1, #:lower16:.LC0
 1153 019c C0F20001 		movt	r1, #:upper16:.LC0
 1154 01a0 FFF7FEFF 		bl	_test_assert_sequence
 1155 01a4 0346     		mov	r3, r0
 1156 01a6 002B     		cmp	r3, #0
 1157 01a8 40F07B81 		bne	.L30
 1158              	.L43:
 1159              	.LBB46:
 1160              		.loc 1 204 0
 1161 01ac 4FF02003 		mov	r3, #32
 1162              	@ 204 "../../test/testqueues.c" 1
 1163 01b0 83F31188 		msr     BASEPRI, r3
 1164              	@ 0 "" 2
 1165              		.thumb
 1166              	.LBE46:
 1167 01b4 FFF7FEFF 		bl	dbg_check_lock
 1168 01b8 40F20000 		movw	r0, #:lower16:oq
 1169 01bc C0F20000 		movt	r0, #:upper16:oq
 1170 01c0 FFF7FEFF 		bl	chOQGetI
 1171 01c4 0346     		mov	r3, r0
 1172 01c6 13F1030F 		cmn	r3, #3
 1173 01ca 14BF     		ite	ne
 1174 01cc 0023     		movne	r3, #0
 1175 01ce 0123     		moveq	r3, #1
 1176 01d0 4FF00500 		mov	r0, #5
 1177 01d4 1946     		mov	r1, r3
 1178 01d6 FFF7FEFF 		bl	_test_assert
 1179 01da 0346     		mov	r3, r0
 1180 01dc 002B     		cmp	r3, #0
 1181 01de 06D0     		beq	.L44
 1182              		.loc 1 204 0 is_stmt 0 discriminator 1
 1183 01e0 FFF7FEFF 		bl	dbg_check_unlock
ARM GAS  /tmp/ccG45m1g.s 			page 22


 1184              	.LBB47:
 1185 01e4 4FF00003 		mov	r3, #0
 1186              	@ 204 "../../test/testqueues.c" 1
 1187 01e8 83F31188 		msr     BASEPRI, r3
 1188              	@ 0 "" 2
 1189              		.thumb
 1190              	.LBE47:
 1191 01ec 59E1     		b	.L30
 1192              	.L44:
 1193              		.loc 1 204 0 discriminator 2
 1194 01ee FFF7FEFF 		bl	dbg_check_unlock
 1195              	.LBB48:
 1196 01f2 4FF00003 		mov	r3, #0
 1197              	@ 204 "../../test/testqueues.c" 1
 1198 01f6 83F31188 		msr     BASEPRI, r3
 1199              	@ 0 "" 2
 1200              		.thumb
 1201              	.LBE48:
 1202              		.loc 1 207 0 is_stmt 1 discriminator 2
 1203 01fa 40F20003 		movw	r3, #:lower16:wa
 1204 01fe C0F20003 		movt	r3, #:upper16:wa
 1205 0202 5B68     		ldr	r3, [r3, #4]
 1206 0204 40F20000 		movw	r0, #:lower16:oq
 1207 0208 C0F20000 		movt	r0, #:upper16:oq
 1208 020c 1946     		mov	r1, r3
 1209 020e 4FF00802 		mov	r2, #8
 1210 0212 4FF00003 		mov	r3, #0
 1211 0216 FFF7FEFF 		bl	chOQWriteTimeout
 1212 021a 0346     		mov	r3, r0
 1213 021c 0393     		str	r3, [sp, #12]
 1214              		.loc 1 208 0 discriminator 2
 1215 021e 039B     		ldr	r3, [sp, #12]
 1216 0220 042B     		cmp	r3, #4
 1217 0222 14BF     		ite	ne
 1218 0224 0023     		movne	r3, #0
 1219 0226 0123     		moveq	r3, #1
 1220 0228 4FF00600 		mov	r0, #6
 1221 022c 1946     		mov	r1, r3
 1222 022e FFF7FEFF 		bl	_test_assert
 1223 0232 0346     		mov	r3, r0
 1224 0234 002B     		cmp	r3, #0
 1225 0236 40F03481 		bne	.L30
 1226              	.L45:
 1227              	.LBB49:
 1228              		.loc 1 209 0
 1229 023a 4FF02003 		mov	r3, #32
 1230              	@ 209 "../../test/testqueues.c" 1
 1231 023e 83F31188 		msr     BASEPRI, r3
 1232              	@ 0 "" 2
 1233              		.thumb
 1234              	.LBE49:
 1235 0242 FFF7FEFF 		bl	dbg_check_lock
 1236 0246 40F20003 		movw	r3, #:lower16:oq
 1237 024a C0F20003 		movt	r3, #:upper16:oq
 1238 024e 9B68     		ldr	r3, [r3, #8]
 1239 0250 002B     		cmp	r3, #0
 1240 0252 14BF     		ite	ne
ARM GAS  /tmp/ccG45m1g.s 			page 23


 1241 0254 0023     		movne	r3, #0
 1242 0256 0123     		moveq	r3, #1
 1243 0258 4FF00700 		mov	r0, #7
 1244 025c 1946     		mov	r1, r3
 1245 025e FFF7FEFF 		bl	_test_assert
 1246 0262 0346     		mov	r3, r0
 1247 0264 002B     		cmp	r3, #0
 1248 0266 06D0     		beq	.L46
 1249              		.loc 1 209 0 is_stmt 0 discriminator 1
 1250 0268 FFF7FEFF 		bl	dbg_check_unlock
 1251              	.LBB50:
 1252 026c 4FF00003 		mov	r3, #0
 1253              	@ 209 "../../test/testqueues.c" 1
 1254 0270 83F31188 		msr     BASEPRI, r3
 1255              	@ 0 "" 2
 1256              		.thumb
 1257              	.LBE50:
 1258 0274 15E1     		b	.L30
 1259              	.L46:
 1260              		.loc 1 209 0 discriminator 2
 1261 0276 FFF7FEFF 		bl	dbg_check_unlock
 1262              	.LBB51:
 1263 027a 4FF00003 		mov	r3, #0
 1264              	@ 209 "../../test/testqueues.c" 1
 1265 027e 83F31188 		msr     BASEPRI, r3
 1266              	@ 0 "" 2
 1267              		.thumb
 1268              	.LBE51:
 1269              		.loc 1 210 0 is_stmt 1 discriminator 2
 1270 0282 40F20003 		movw	r3, #:lower16:wa
 1271 0286 C0F20003 		movt	r3, #:upper16:wa
 1272 028a 1A68     		ldr	r2, [r3, #0]
 1273 028c 40F20003 		movw	r3, #:lower16:rlist
 1274 0290 C0F20003 		movt	r3, #:upper16:rlist
 1275 0294 9B69     		ldr	r3, [r3, #24]
 1276 0296 9B68     		ldr	r3, [r3, #8]
 1277 0298 03F10103 		add	r3, r3, #1
 1278 029c 4FF00001 		mov	r1, #0
 1279 02a0 0091     		str	r1, [sp, #0]
 1280 02a2 1046     		mov	r0, r2
 1281 02a4 4FF49871 		mov	r1, #304
 1282 02a8 1A46     		mov	r2, r3
 1283 02aa 40F20003 		movw	r3, #:lower16:thread2
 1284 02ae C0F20003 		movt	r3, #:upper16:thread2
 1285 02b2 FFF7FEFF 		bl	chThdCreateStatic
 1286 02b6 0246     		mov	r2, r0
 1287 02b8 40F20003 		movw	r3, #:lower16:threads
 1288 02bc C0F20003 		movt	r3, #:upper16:threads
 1289 02c0 1A60     		str	r2, [r3, #0]
 1290              	.LBB52:
 1291              		.loc 1 211 0 discriminator 2
 1292 02c2 4FF02003 		mov	r3, #32
 1293              	@ 211 "../../test/testqueues.c" 1
 1294 02c6 83F31188 		msr     BASEPRI, r3
 1295              	@ 0 "" 2
 1296              		.thumb
 1297              	.LBE52:
ARM GAS  /tmp/ccG45m1g.s 			page 24


 1298 02ca FFF7FEFF 		bl	dbg_check_lock
 1299 02ce 40F20003 		movw	r3, #:lower16:oq
 1300 02d2 C0F20003 		movt	r3, #:upper16:oq
 1301 02d6 1B69     		ldr	r3, [r3, #16]
 1302 02d8 1A46     		mov	r2, r3
 1303 02da 40F20003 		movw	r3, #:lower16:oq
 1304 02de C0F20003 		movt	r3, #:upper16:oq
 1305 02e2 DB68     		ldr	r3, [r3, #12]
 1306 02e4 D31A     		subs	r3, r2, r3
 1307 02e6 1A46     		mov	r2, r3
 1308 02e8 40F20003 		movw	r3, #:lower16:oq
 1309 02ec C0F20003 		movt	r3, #:upper16:oq
 1310 02f0 9B68     		ldr	r3, [r3, #8]
 1311 02f2 D31A     		subs	r3, r2, r3
 1312 02f4 042B     		cmp	r3, #4
 1313 02f6 14BF     		ite	ne
 1314 02f8 0023     		movne	r3, #0
 1315 02fa 0123     		moveq	r3, #1
 1316 02fc 4FF00800 		mov	r0, #8
 1317 0300 1946     		mov	r1, r3
 1318 0302 FFF7FEFF 		bl	_test_assert
 1319 0306 0346     		mov	r3, r0
 1320 0308 002B     		cmp	r3, #0
 1321 030a 06D0     		beq	.L47
 1322              		.loc 1 211 0 is_stmt 0 discriminator 1
 1323 030c FFF7FEFF 		bl	dbg_check_unlock
 1324              	.LBB53:
 1325 0310 4FF00003 		mov	r3, #0
 1326              	@ 211 "../../test/testqueues.c" 1
 1327 0314 83F31188 		msr     BASEPRI, r3
 1328              	@ 0 "" 2
 1329              		.thumb
 1330              	.LBE53:
 1331 0318 C3E0     		b	.L30
 1332              	.L47:
 1333              		.loc 1 211 0 discriminator 2
 1334 031a FFF7FEFF 		bl	dbg_check_unlock
 1335              	.LBB54:
 1336 031e 4FF00003 		mov	r3, #0
 1337              	@ 211 "../../test/testqueues.c" 1
 1338 0322 83F31188 		msr     BASEPRI, r3
 1339              	@ 0 "" 2
 1340              		.thumb
 1341              	.LBE54:
 1342              		.loc 1 212 0 is_stmt 1 discriminator 2
 1343 0326 FFF7FEFF 		bl	test_wait_threads
 1344              	.LBB55:
 1345              		.loc 1 215 0 discriminator 2
 1346 032a 4FF02003 		mov	r3, #32
 1347              	@ 215 "../../test/testqueues.c" 1
 1348 032e 83F31188 		msr     BASEPRI, r3
 1349              	@ 0 "" 2
 1350              		.thumb
 1351              	.LBE55:
 1352 0332 FFF7FEFF 		bl	dbg_check_lock
 1353              		.loc 1 216 0 discriminator 2
 1354 0336 40F20000 		movw	r0, #:lower16:oq
ARM GAS  /tmp/ccG45m1g.s 			page 25


 1355 033a C0F20000 		movt	r0, #:upper16:oq
 1356 033e FFF7FEFF 		bl	chOQResetI
 1357              		.loc 1 217 0 discriminator 2
 1358 0342 FFF7FEFF 		bl	dbg_check_unlock
 1359              	.LBB56:
 1360 0346 4FF00003 		mov	r3, #0
 1361              	@ 217 "../../test/testqueues.c" 1
 1362 034a 83F31188 		msr     BASEPRI, r3
 1363              	@ 0 "" 2
 1364              		.thumb
 1365              	.LBE56:
 1366              	.LBB57:
 1367              		.loc 1 218 0 discriminator 2
 1368 034e 4FF02003 		mov	r3, #32
 1369              	@ 218 "../../test/testqueues.c" 1
 1370 0352 83F31188 		msr     BASEPRI, r3
 1371              	@ 0 "" 2
 1372              		.thumb
 1373              	.LBE57:
 1374 0356 FFF7FEFF 		bl	dbg_check_lock
 1375 035a 40F20003 		movw	r3, #:lower16:oq
 1376 035e C0F20003 		movt	r3, #:upper16:oq
 1377 0362 1B69     		ldr	r3, [r3, #16]
 1378 0364 1A46     		mov	r2, r3
 1379 0366 40F20003 		movw	r3, #:lower16:oq
 1380 036a C0F20003 		movt	r3, #:upper16:oq
 1381 036e DB68     		ldr	r3, [r3, #12]
 1382 0370 D31A     		subs	r3, r2, r3
 1383 0372 1A46     		mov	r2, r3
 1384 0374 40F20003 		movw	r3, #:lower16:oq
 1385 0378 C0F20003 		movt	r3, #:upper16:oq
 1386 037c 9B68     		ldr	r3, [r3, #8]
 1387 037e 9A42     		cmp	r2, r3
 1388 0380 14BF     		ite	ne
 1389 0382 0023     		movne	r3, #0
 1390 0384 0123     		moveq	r3, #1
 1391 0386 4FF00900 		mov	r0, #9
 1392 038a 1946     		mov	r1, r3
 1393 038c FFF7FEFF 		bl	_test_assert
 1394 0390 0346     		mov	r3, r0
 1395 0392 002B     		cmp	r3, #0
 1396 0394 06D0     		beq	.L48
 1397              		.loc 1 218 0 is_stmt 0 discriminator 1
 1398 0396 FFF7FEFF 		bl	dbg_check_unlock
 1399              	.LBB58:
 1400 039a 4FF00003 		mov	r3, #0
 1401              	@ 218 "../../test/testqueues.c" 1
 1402 039e 83F31188 		msr     BASEPRI, r3
 1403              	@ 0 "" 2
 1404              		.thumb
 1405              	.LBE58:
 1406 03a2 7EE0     		b	.L30
 1407              	.L48:
 1408              		.loc 1 218 0 discriminator 2
 1409 03a4 FFF7FEFF 		bl	dbg_check_unlock
 1410              	.LBB59:
 1411 03a8 4FF00003 		mov	r3, #0
ARM GAS  /tmp/ccG45m1g.s 			page 26


 1412              	@ 218 "../../test/testqueues.c" 1
 1413 03ac 83F31188 		msr     BASEPRI, r3
 1414              	@ 0 "" 2
 1415              		.thumb
 1416              	.LBE59:
 1417              		.loc 1 221 0 is_stmt 1 discriminator 2
 1418 03b0 40F20003 		movw	r3, #:lower16:wa
 1419 03b4 C0F20003 		movt	r3, #:upper16:wa
 1420 03b8 5B68     		ldr	r3, [r3, #4]
 1421 03ba 40F20000 		movw	r0, #:lower16:oq
 1422 03be C0F20000 		movt	r0, #:upper16:oq
 1423 03c2 1946     		mov	r1, r3
 1424 03c4 4FF00202 		mov	r2, #2
 1425 03c8 4FF00003 		mov	r3, #0
 1426 03cc FFF7FEFF 		bl	chOQWriteTimeout
 1427 03d0 0346     		mov	r3, r0
 1428 03d2 0393     		str	r3, [sp, #12]
 1429              		.loc 1 222 0 discriminator 2
 1430 03d4 039B     		ldr	r3, [sp, #12]
 1431 03d6 022B     		cmp	r3, #2
 1432 03d8 14BF     		ite	ne
 1433 03da 0023     		movne	r3, #0
 1434 03dc 0123     		moveq	r3, #1
 1435 03de 4FF00A00 		mov	r0, #10
 1436 03e2 1946     		mov	r1, r3
 1437 03e4 FFF7FEFF 		bl	_test_assert
 1438 03e8 0346     		mov	r3, r0
 1439 03ea 002B     		cmp	r3, #0
 1440 03ec 59D1     		bne	.L30
 1441              	.L49:
 1442              		.loc 1 223 0
 1443 03ee 40F20003 		movw	r3, #:lower16:wa
 1444 03f2 C0F20003 		movt	r3, #:upper16:wa
 1445 03f6 5B68     		ldr	r3, [r3, #4]
 1446 03f8 40F20000 		movw	r0, #:lower16:oq
 1447 03fc C0F20000 		movt	r0, #:upper16:oq
 1448 0400 1946     		mov	r1, r3
 1449 0402 4FF00202 		mov	r2, #2
 1450 0406 4FF00003 		mov	r3, #0
 1451 040a FFF7FEFF 		bl	chOQWriteTimeout
 1452 040e 0346     		mov	r3, r0
 1453 0410 0393     		str	r3, [sp, #12]
 1454              		.loc 1 224 0
 1455 0412 039B     		ldr	r3, [sp, #12]
 1456 0414 022B     		cmp	r3, #2
 1457 0416 14BF     		ite	ne
 1458 0418 0023     		movne	r3, #0
 1459 041a 0123     		moveq	r3, #1
 1460 041c 4FF00B00 		mov	r0, #11
 1461 0420 1946     		mov	r1, r3
 1462 0422 FFF7FEFF 		bl	_test_assert
 1463 0426 0346     		mov	r3, r0
 1464 0428 002B     		cmp	r3, #0
 1465 042a 3AD1     		bne	.L30
 1466              	.L50:
 1467              	.LBB60:
 1468              		.loc 1 225 0
ARM GAS  /tmp/ccG45m1g.s 			page 27


 1469 042c 4FF02003 		mov	r3, #32
 1470              	@ 225 "../../test/testqueues.c" 1
 1471 0430 83F31188 		msr     BASEPRI, r3
 1472              	@ 0 "" 2
 1473              		.thumb
 1474              	.LBE60:
 1475 0434 FFF7FEFF 		bl	dbg_check_lock
 1476 0438 40F20003 		movw	r3, #:lower16:oq
 1477 043c C0F20003 		movt	r3, #:upper16:oq
 1478 0440 9B68     		ldr	r3, [r3, #8]
 1479 0442 002B     		cmp	r3, #0
 1480 0444 14BF     		ite	ne
 1481 0446 0023     		movne	r3, #0
 1482 0448 0123     		moveq	r3, #1
 1483 044a 4FF00C00 		mov	r0, #12
 1484 044e 1946     		mov	r1, r3
 1485 0450 FFF7FEFF 		bl	_test_assert
 1486 0454 0346     		mov	r3, r0
 1487 0456 002B     		cmp	r3, #0
 1488 0458 06D0     		beq	.L51
 1489              		.loc 1 225 0 is_stmt 0 discriminator 1
 1490 045a FFF7FEFF 		bl	dbg_check_unlock
 1491              	.LBB61:
 1492 045e 4FF00003 		mov	r3, #0
 1493              	@ 225 "../../test/testqueues.c" 1
 1494 0462 83F31188 		msr     BASEPRI, r3
 1495              	@ 0 "" 2
 1496              		.thumb
 1497              	.LBE61:
 1498 0466 1CE0     		b	.L30
 1499              	.L51:
 1500              		.loc 1 225 0 discriminator 2
 1501 0468 FFF7FEFF 		bl	dbg_check_unlock
 1502              	.LBB62:
 1503 046c 4FF00003 		mov	r3, #0
 1504              	@ 225 "../../test/testqueues.c" 1
 1505 0470 83F31188 		msr     BASEPRI, r3
 1506              	@ 0 "" 2
 1507              		.thumb
 1508              	.LBE62:
 1509              		.loc 1 228 0 is_stmt 1 discriminator 2
 1510 0474 40F20000 		movw	r0, #:lower16:oq
 1511 0478 C0F20000 		movt	r0, #:upper16:oq
 1512 047c 4FF00001 		mov	r1, #0
 1513 0480 4FF00A02 		mov	r2, #10
 1514 0484 FFF7FEFF 		bl	chOQPutTimeout
 1515 0488 0346     		mov	r3, r0
 1516 048a B3F1FF3F 		cmp	r3, #-1
 1517 048e 14BF     		ite	ne
 1518 0490 0023     		movne	r3, #0
 1519 0492 0123     		moveq	r3, #1
 1520 0494 4FF00D00 		mov	r0, #13
 1521 0498 1946     		mov	r1, r3
 1522 049a FFF7FEFF 		bl	_test_assert
 1523 049e 0346     		mov	r3, r0
 1524 04a0 002B     		cmp	r3, #0
 1525              	.L30:
ARM GAS  /tmp/ccG45m1g.s 			page 28


 1526              		.loc 1 229 0
 1527 04a2 07B0     		add	sp, sp, #28
 1528 04a4 00BD     		pop	{pc}
 1529              		.cfi_endproc
 1530              	.LFE13:
 1531              		.size	queues2_execute, .-queues2_execute
 1532              		.global	testqueues2
 1533 04a6 00BFAFF3 		.section	.rodata
 1533      0080AFF3 
 1533      0080
 1534 001d 000000   		.align	2
 1535              	.LC2:
 1536 0020 51756575 		.ascii	"Queues, output queues\000"
 1536      65732C20 
 1536      6F757470 
 1536      75742071 
 1536      75657565 
 1537 0036 0000     		.section	.rodata.testqueues2,"a",%progbits
 1538              		.align	2
 1539              		.type	testqueues2, %object
 1540              		.size	testqueues2, 16
 1541              	testqueues2:
 1542 0000 20000000 		.word	.LC2
 1543 0004 00000000 		.word	queues2_setup
 1544 0008 00000000 		.word	0
 1545 000c 00000000 		.word	queues2_execute
 1546              		.global	patternqueues
 1547              		.section	.rodata.patternqueues,"a",%progbits
 1548              		.align	2
 1549              		.type	patternqueues, %object
 1550              		.size	patternqueues, 12
 1551              	patternqueues:
 1552 0000 00000000 		.word	testqueues1
 1553 0004 00000000 		.word	testqueues2
 1554 0008 00000000 		.word	0
 1555              		.text
 1556              	.Letext0:
 1557              		.file 2 "/home/texzk/ChibiStudio/tools/GNU Tools ARM Embedded/4.6 2012q2/bin/../lib/gcc/arm-none-e
 1558              		.file 3 "/home/texzk/ChibiStudio/tools/GNU Tools ARM Embedded/4.6 2012q2/bin/../lib/gcc/arm-none-e
 1559              		.file 4 "../../os/ports/GCC/ARMCMx/chtypes.h"
 1560              		.file 5 "../../os/kernel/include/chlists.h"
 1561              		.file 6 "../../os/kernel/include/chthreads.h"
 1562              		.file 7 "../../os/ports/GCC/ARMCMx/chcore_v7m.h"
 1563              		.file 8 "../../os/kernel/include/chschd.h"
 1564              		.file 9 "../../os/kernel/include/chmtx.h"
 1565              		.file 10 "../../os/kernel/include/chqueues.h"
 1566              		.file 11 "../../test/test.h"